
mecrisp-stellaris-xmc1100.elf:     file format elf32-littlearm


Disassembly of section .text:

10001000 <addresszero>:
10001000:	20000524 	andcs	r0, r0, r4, lsr #10
10001004:	10004b65 	andne	r4, r0, r5, ror #22
10001008:	ffffffff 			; <UNDEFINED> instruction: 0xffffffff
1000100c:	ffffffff 			; <UNDEFINED> instruction: 0xffffffff
10001010:	ffffffff 			; <UNDEFINED> instruction: 0xffffffff
10001014:	00000008 	andeq	r0, r0, r8

10001018 <CoreDictionaryAnfang>:
10001018:	10001040 	andne	r1, r0, r0, asr #32
1000101c:	2d1effff 	ldccs	15, cr15, [lr, #-1020]	; 0xfffffc04
10001020:	4d202d2d 	stcmi	13, cr2, [r0, #-180]!	; 0xffffff4c
10001024:	69726365 	ldmdbvs	r2!, {r0, r2, r5, r6, r8, r9, sp, lr}^
10001028:	532d7073 	teqpl	sp, #115	; 0x73
1000102c:	6c6c6574 	cfstr64vs	mvdx6, [ip], #-464	; 0xfffffe30
10001030:	73697261 	cmnvc	r9, #268435462	; 0x10000006
10001034:	726f4320 	rsbvc	r4, pc, #-2147483648	; 0x80000000
10001038:	2d2d2065 	stccs	0, cr2, [sp, #-404]!	; 0xfffffe6c
1000103c:	46c0002d 	strbmi	r0, [r0], sp, lsr #32

1000103e <Code_19>:
1000103e:	46c0      	nop			; (mov r8, r8)

10001040 <Dictionary_20>:
10001040:	10001058 	andne	r1, r0, r8, asr r0
10001044:	32040042 	andcc	r0, r4, #66	; 0x42
10001048:	00707564 	rsbseq	r7, r0, r4, ror #10

1000104c <Code_20>:
1000104c:	6838      	ldr	r0, [r7, #0]
1000104e:	3f04      	subs	r7, #4
10001050:	603e      	str	r6, [r7, #0]
10001052:	3f04      	subs	r7, #4
10001054:	6038      	str	r0, [r7, #0]
10001056:	4770      	bx	lr

10001058 <Dictionary_22>:
10001058:	1000106c 	andne	r1, r0, ip, rrx
1000105c:	32050062 	andcc	r0, r5, #98	; 0x62
10001060:	706f7264 	rsbvc	r7, pc, r4, ror #4

10001064 <Code_22>:
10001064:	3704      	adds	r7, #4
10001066:	cf40      	ldmia	r7!, {r6}
10001068:	4770      	bx	lr
1000106a:	46c0      	nop			; (mov r8, r8)

1000106c <Dictionary_24>:
1000106c:	1000108c 	andne	r1, r0, ip, lsl #1
10001070:	32050044 	andcc	r0, r5, #68	; 0x44
10001074:	70617773 	rsbvc	r7, r1, r3, ror r7

10001078 <Code_24>:
10001078:	cf07      	ldmia	r7!, {r0, r1, r2}
1000107a:	3f04      	subs	r7, #4
1000107c:	6038      	str	r0, [r7, #0]
1000107e:	3f04      	subs	r7, #4
10001080:	603e      	str	r6, [r7, #0]
10001082:	3f04      	subs	r7, #4
10001084:	603a      	str	r2, [r7, #0]
10001086:	000e      	movs	r6, r1
10001088:	4770      	bx	lr
1000108a:	46c0      	nop			; (mov r8, r8)

1000108c <Dictionary_26>:
1000108c:	100010a0 	andne	r1, r0, r0, lsr #1
10001090:	32040062 	andcc	r0, r4, #98	; 0x62
10001094:	0070696e 	rsbseq	r6, r0, lr, ror #18

10001098 <Code_26>:
10001098:	cf07      	ldmia	r7!, {r0, r1, r2}
1000109a:	3f04      	subs	r7, #4
1000109c:	6038      	str	r0, [r7, #0]
1000109e:	4770      	bx	lr

100010a0 <Dictionary_27>:
100010a0:	100010bc 	strhne	r1, [r0], -ip
100010a4:	32050044 	andcc	r0, r5, #68	; 0x44
100010a8:	7265766f 	rsbvc	r7, r5, #116391936	; 0x6f00000

100010ac <Code_27>:
100010ac:	68b8      	ldr	r0, [r7, #8]
100010ae:	3f04      	subs	r7, #4
100010b0:	603e      	str	r6, [r7, #0]
100010b2:	3f04      	subs	r7, #4
100010b4:	6038      	str	r0, [r7, #0]
100010b6:	68fe      	ldr	r6, [r7, #12]
100010b8:	4770      	bx	lr
100010ba:	46c0      	nop			; (mov r8, r8)

100010bc <Dictionary_29>:
100010bc:	100010e0 	andne	r1, r0, r0, ror #1
100010c0:	32050044 	andcc	r0, r5, #68	; 0x44
100010c4:	6b637574 	blvs	118de69c <FlashDictionaryEnde+0x18cd69c>

100010c8 <Code_29>:
100010c8:	cf07      	ldmia	r7!, {r0, r1, r2}
100010ca:	3f04      	subs	r7, #4
100010cc:	6038      	str	r0, [r7, #0]
100010ce:	3f04      	subs	r7, #4
100010d0:	603e      	str	r6, [r7, #0]
100010d2:	3f04      	subs	r7, #4
100010d4:	603a      	str	r2, [r7, #0]
100010d6:	3f04      	subs	r7, #4
100010d8:	6039      	str	r1, [r7, #0]
100010da:	3f04      	subs	r7, #4
100010dc:	6038      	str	r0, [r7, #0]
100010de:	4770      	bx	lr

100010e0 <Dictionary_31>:
100010e0:	10001104 	andne	r1, r0, r4, lsl #2
100010e4:	32040046 	andcc	r0, r4, #70	; 0x46
100010e8:	00746f72 	rsbseq	r6, r4, r2, ror pc

100010ec <Code_31>:
100010ec:	6838      	ldr	r0, [r7, #0]
100010ee:	68b9      	ldr	r1, [r7, #8]
100010f0:	693a      	ldr	r2, [r7, #16]
100010f2:	60b8      	str	r0, [r7, #8]
100010f4:	6139      	str	r1, [r7, #16]
100010f6:	603a      	str	r2, [r7, #0]
100010f8:	6879      	ldr	r1, [r7, #4]
100010fa:	607e      	str	r6, [r7, #4]
100010fc:	68fe      	ldr	r6, [r7, #12]
100010fe:	60f9      	str	r1, [r7, #12]
10001100:	4770      	bx	lr
10001102:	46c0      	nop			; (mov r8, r8)

10001104 <Dictionary_32>:
10001104:	10001128 	andne	r1, r0, r8, lsr #2
10001108:	32050046 	andcc	r0, r5, #70	; 0x46
1000110c:	746f722d 	strbtvc	r7, [pc], #-557	; 10001114 <Code_32+0x4>

10001110 <Code_32>:
10001110:	6838      	ldr	r0, [r7, #0]
10001112:	68b9      	ldr	r1, [r7, #8]
10001114:	693a      	ldr	r2, [r7, #16]
10001116:	6138      	str	r0, [r7, #16]
10001118:	6039      	str	r1, [r7, #0]
1000111a:	60ba      	str	r2, [r7, #8]
1000111c:	68f9      	ldr	r1, [r7, #12]
1000111e:	60fe      	str	r6, [r7, #12]
10001120:	687e      	ldr	r6, [r7, #4]
10001122:	6079      	str	r1, [r7, #4]
10001124:	4770      	bx	lr
10001126:	46c0      	nop			; (mov r8, r8)

10001128 <Dictionary_33>:
10001128:	1000113c 	andne	r1, r0, ip, lsr r1
1000112c:	32030020 	andcc	r0, r3, #32
10001130:	cf01723e 	svcgt	0x0001723e

10001132 <Code_33>:
10001132:	cf01      	ldmia	r7!, {r0}
10001134:	b401      	push	{r0}
10001136:	b440      	push	{r6}
10001138:	cf40      	ldmia	r7!, {r6}
1000113a:	4770      	bx	lr

1000113c <Dictionary_34>:
1000113c:	10001154 	andne	r1, r0, r4, asr r1
10001140:	32030020 	andcc	r0, r3, #32
10001144:	3f043e72 	svccc	0x00043e72

10001146 <Code_34>:
10001146:	3f04      	subs	r7, #4
10001148:	603e      	str	r6, [r7, #0]
1000114a:	bc40      	pop	{r6}
1000114c:	bc01      	pop	{r0}
1000114e:	3f04      	subs	r7, #4
10001150:	6038      	str	r0, [r7, #0]
10001152:	4770      	bx	lr

10001154 <Dictionary_36>:
10001154:	1000116c 	andne	r1, r0, ip, ror #2
10001158:	32030020 	andcc	r0, r3, #32
1000115c:	3f044072 	svccc	0x00044072

1000115e <Code_36>:
1000115e:	3f04      	subs	r7, #4
10001160:	603e      	str	r6, [r7, #0]
10001162:	9e01      	ldr	r6, [sp, #4]
10001164:	3f04      	subs	r7, #4
10001166:	603e      	str	r6, [r7, #0]
10001168:	9e00      	ldr	r6, [sp, #0]
1000116a:	4770      	bx	lr

1000116c <Dictionary_39>:
1000116c:	10001180 	andne	r1, r0, r0, lsl #3
10001170:	32060020 	andcc	r0, r6, #32
10001174:	6f726472 	svcvs	0x00726472
10001178:	b0020070 	andlt	r0, r2, r0, ror r0

1000117a <Code_39>:
1000117a:	b002      	add	sp, #8
1000117c:	4770      	bx	lr
1000117e:	46c0      	nop			; (mov r8, r8)

10001180 <Dictionary_40>:
10001180:	10001198 	mulne	r0, r8, r1
10001184:	64030042 	strvs	r0, [r3], #-66	; 0x42
10001188:	68382f32 	ldmdavs	r8!, {r1, r4, r5, r8, r9, sl, fp, sp}

1000118a <Code_40>:
1000118a:	6838      	ldr	r0, [r7, #0]
1000118c:	07f1      	lsls	r1, r6, #31
1000118e:	1076      	asrs	r6, r6, #1
10001190:	0840      	lsrs	r0, r0, #1
10001192:	4308      	orrs	r0, r1
10001194:	6038      	str	r0, [r7, #0]
10001196:	4770      	bx	lr

10001198 <Dictionary_41>:
10001198:	100011ac 	andne	r1, r0, ip, lsr #3
1000119c:	64030062 	strvs	r0, [r3], #-98	; 0x62
100011a0:	68382a32 	ldmdavs	r8!, {r1, r4, r5, r9, fp, sp}

100011a2 <Code_41>:
100011a2:	6838      	ldr	r0, [r7, #0]
100011a4:	1800      	adds	r0, r0, r0
100011a6:	4176      	adcs	r6, r6
100011a8:	6038      	str	r0, [r7, #0]
100011aa:	4770      	bx	lr

100011ac <Dictionary_42>:
100011ac:	100011c8 	andne	r1, r0, r8, asr #3
100011b0:	64040042 	strvs	r0, [r4], #-66	; 0x42
100011b4:	00726873 	rsbseq	r6, r2, r3, ror r8

100011b8 <Code_42>:
100011b8:	6838      	ldr	r0, [r7, #0]
100011ba:	07f1      	lsls	r1, r6, #31
100011bc:	0876      	lsrs	r6, r6, #1
100011be:	0840      	lsrs	r0, r0, #1
100011c0:	4308      	orrs	r0, r1
100011c2:	6038      	str	r0, [r7, #0]
100011c4:	4770      	bx	lr
100011c6:	46c0      	nop			; (mov r8, r8)

100011c8 <Dictionary_43>:
100011c8:	100011e0 	andne	r1, r0, r0, ror #3
100011cc:	64040062 	strvs	r0, [r4], #-98	; 0x62
100011d0:	006c6873 	rsbeq	r6, ip, r3, ror r8

100011d4 <Code_43>:
100011d4:	6838      	ldr	r0, [r7, #0]
100011d6:	1800      	adds	r0, r0, r0
100011d8:	4176      	adcs	r6, r6
100011da:	6038      	str	r0, [r7, #0]
100011dc:	4770      	bx	lr
100011de:	46c0      	nop			; (mov r8, r8)

100011e0 <Dictionary_44>:
100011e0:	100011f4 	strdne	r1, [r0], -r4
100011e4:	64040042 	strvs	r0, [r4], #-66	; 0x42
100011e8:	00736261 	rsbseq	r6, r3, r1, ror #4

100011ec <Code_44>:
100011ec:	2e00      	cmp	r6, #0
100011ee:	d408      	bmi.n	10001202 <Code_45>
100011f0:	4770      	bx	lr
100011f2:	46c0      	nop			; (mov r8, r8)

100011f4 <Dictionary_45>:
100011f4:	10001214 	andne	r1, r0, r4, lsl r2
100011f8:	64070042 	strvs	r0, [r7], #-66	; 0x42
100011fc:	6167656e 	cmnvs	r7, lr, ror #10
10001200:	68386574 	ldmdavs	r8!, {r2, r4, r5, r6, r8, sl, sp, lr}

10001202 <Code_45>:
10001202:	6838      	ldr	r0, [r7, #0]
10001204:	2100      	movs	r1, #0
10001206:	43c0      	mvns	r0, r0
10001208:	43f6      	mvns	r6, r6
1000120a:	3001      	adds	r0, #1
1000120c:	414e      	adcs	r6, r1
1000120e:	6038      	str	r0, [r7, #0]
10001210:	4770      	bx	lr
10001212:	46c0      	nop			; (mov r8, r8)

10001214 <Dictionary_46>:
10001214:	1000122c 	andne	r1, r0, ip, lsr #4
10001218:	64020064 	strvs	r0, [r2], #-100	; 0x64
1000121c:	cf07002d 	svcgt	0x0007002d

1000121e <Code_46>:
1000121e:	cf07      	ldmia	r7!, {r0, r1, r2}
10001220:	1a12      	subs	r2, r2, r0
10001222:	41b1      	sbcs	r1, r6
10001224:	000e      	movs	r6, r1
10001226:	3f04      	subs	r7, #4
10001228:	603a      	str	r2, [r7, #0]
1000122a:	4770      	bx	lr

1000122c <Dictionary_47>:
1000122c:	10001244 	andne	r1, r0, r4, asr #4
10001230:	64020064 	strvs	r0, [r2], #-100	; 0x64
10001234:	cf07002b 	svcgt	0x0007002b

10001236 <Code_47>:
10001236:	cf07      	ldmia	r7!, {r0, r1, r2}
10001238:	1812      	adds	r2, r2, r0
1000123a:	414e      	adcs	r6, r1
1000123c:	3f04      	subs	r7, #4
1000123e:	603a      	str	r2, [r7, #0]
10001240:	4770      	bx	lr
10001242:	46c0      	nop			; (mov r8, r8)

10001244 <Dictionary_48>:
10001244:	10001258 	andne	r1, r0, r8, asr r2
10001248:	73030061 	movwvc	r0, #12385	; 0x3061
1000124c:	3f04643e 	svccc	0x0004643e

1000124e <Code_48>:
1000124e:	3f04      	subs	r7, #4
10001250:	603e      	str	r6, [r7, #0]
10001252:	17f6      	asrs	r6, r6, #31
10001254:	4770      	bx	lr
10001256:	46c0      	nop			; (mov r8, r8)

10001258 <Dictionary_50>:
10001258:	10001284 	andne	r1, r0, r4, lsl #5
1000125c:	75030042 	strvc	r0, [r3, #-66]	; 0x42
10001260:	68382a6d 	ldmdavs	r8!, {r0, r2, r3, r5, r6, r9, fp, sp}

10001262 <Code_50>:
10001262:	6838      	ldr	r0, [r7, #0]
10001264:	0003      	movs	r3, r0
10001266:	4373      	muls	r3, r6
10001268:	603b      	str	r3, [r7, #0]
1000126a:	0c01      	lsrs	r1, r0, #16
1000126c:	0c32      	lsrs	r2, r6, #16
1000126e:	000b      	movs	r3, r1
10001270:	4353      	muls	r3, r2
10001272:	b2b6      	uxth	r6, r6
10001274:	b280      	uxth	r0, r0
10001276:	434e      	muls	r6, r1
10001278:	4350      	muls	r0, r2
1000127a:	1836      	adds	r6, r6, r0
1000127c:	0c36      	lsrs	r6, r6, #16
1000127e:	18f6      	adds	r6, r6, r3
10001280:	4770      	bx	lr
10001282:	46c0      	nop			; (mov r8, r8)

10001284 <Dictionary_51>:
10001284:	100012b4 			; <UNDEFINED> instruction: 0x100012b4
10001288:	6d020042 	stcvs	0, cr0, [r2, #-264]	; 0xfffffef8
1000128c:	6838002a 	ldmdavs	r8!, {r1, r3, r5}

1000128e <Code_51>:
1000128e:	6838      	ldr	r0, [r7, #0]
10001290:	17c1      	asrs	r1, r0, #31
10001292:	d005      	beq.n	100012a0 <Code_51+0x12>
10001294:	4240      	negs	r0, r0
10001296:	6038      	str	r0, [r7, #0]
10001298:	17f0      	asrs	r0, r6, #31
1000129a:	d004      	beq.n	100012a6 <Code_51+0x18>
1000129c:	4276      	negs	r6, r6
1000129e:	e7e0      	b.n	10001262 <Code_50>
100012a0:	17f0      	asrs	r0, r6, #31
100012a2:	d0de      	beq.n	10001262 <Code_50>
100012a4:	4276      	negs	r6, r6
100012a6:	b500      	push	{lr}
100012a8:	f7ff ffdb 	bl	10001262 <Code_50>
100012ac:	f7ff ffa9 	bl	10001202 <Code_45>
100012b0:	bd00      	pop	{pc}
100012b2:	46c0      	nop			; (mov r8, r8)

100012b4 <Dictionary_52>:
100012b4:	100012f4 	strdne	r1, [r0], -r4
100012b8:	75030044 	strvc	r0, [r3, #-68]	; 0x44
100012bc:	cf072a64 	svcgt	0x00072a64

100012be <Code_52>:
100012be:	cf07      	ldmia	r7!, {r0, r1, r2}
100012c0:	4356      	muls	r6, r2
100012c2:	4341      	muls	r1, r0
100012c4:	1876      	adds	r6, r6, r1
100012c6:	0c01      	lsrs	r1, r0, #16
100012c8:	0c13      	lsrs	r3, r2, #16
100012ca:	4359      	muls	r1, r3
100012cc:	1876      	adds	r6, r6, r1
100012ce:	0c01      	lsrs	r1, r0, #16
100012d0:	b280      	uxth	r0, r0
100012d2:	b292      	uxth	r2, r2
100012d4:	4351      	muls	r1, r2
100012d6:	4343      	muls	r3, r0
100012d8:	4350      	muls	r0, r2
100012da:	2200      	movs	r2, #0
100012dc:	18c9      	adds	r1, r1, r3
100012de:	4152      	adcs	r2, r2
100012e0:	0412      	lsls	r2, r2, #16
100012e2:	18b6      	adds	r6, r6, r2
100012e4:	040a      	lsls	r2, r1, #16
100012e6:	0c09      	lsrs	r1, r1, #16
100012e8:	1880      	adds	r0, r0, r2
100012ea:	414e      	adcs	r6, r1
100012ec:	3f04      	subs	r7, #4
100012ee:	6038      	str	r0, [r7, #0]
100012f0:	4770      	bx	lr
100012f2:	46c0      	nop			; (mov r8, r8)

100012f4 <Dictionary_53>:
100012f4:	10001388 	andne	r1, r0, r8, lsl #7
100012f8:	75040044 	strvc	r0, [r4, #-68]	; 0x44
100012fc:	002a6d64 	eoreq	r6, sl, r4, ror #26

10001300 <Code_53>:
10001300:	b510      	push	{r4, lr}
10001302:	2400      	movs	r4, #0
10001304:	3f04      	subs	r7, #4
10001306:	603e      	str	r6, [r7, #0]
10001308:	687e      	ldr	r6, [r7, #4]
1000130a:	3f04      	subs	r7, #4
1000130c:	603e      	str	r6, [r7, #0]
1000130e:	693e      	ldr	r6, [r7, #16]
10001310:	f7ff ffa7 	bl	10001262 <Code_50>
10001314:	0031      	movs	r1, r6
10001316:	cf40      	ldmia	r7!, {r6}
10001318:	0030      	movs	r0, r6
1000131a:	cf40      	ldmia	r7!, {r6}
1000131c:	3f04      	subs	r7, #4
1000131e:	603e      	str	r6, [r7, #0]
10001320:	683e      	ldr	r6, [r7, #0]
10001322:	3f04      	subs	r7, #4
10001324:	603e      	str	r6, [r7, #0]
10001326:	68fe      	ldr	r6, [r7, #12]
10001328:	b403      	push	{r0, r1}
1000132a:	f7ff ff9a 	bl	10001262 <Code_50>
1000132e:	bc03      	pop	{r0, r1}
10001330:	0033      	movs	r3, r6
10001332:	cf40      	ldmia	r7!, {r6}
10001334:	0032      	movs	r2, r6
10001336:	cf40      	ldmia	r7!, {r6}
10001338:	3f04      	subs	r7, #4
1000133a:	603e      	str	r6, [r7, #0]
1000133c:	683e      	ldr	r6, [r7, #0]
1000133e:	3f04      	subs	r7, #4
10001340:	603e      	str	r6, [r7, #0]
10001342:	693e      	ldr	r6, [r7, #16]
10001344:	b40f      	push	{r0, r1, r2, r3}
10001346:	f7ff ff8c 	bl	10001262 <Code_50>
1000134a:	bc0f      	pop	{r0, r1, r2, r3}
1000134c:	1992      	adds	r2, r2, r6
1000134e:	4163      	adcs	r3, r4
10001350:	cf40      	ldmia	r7!, {r6}
10001352:	1989      	adds	r1, r1, r6
10001354:	4162      	adcs	r2, r4
10001356:	4163      	adcs	r3, r4
10001358:	cf40      	ldmia	r7!, {r6}
1000135a:	3f04      	subs	r7, #4
1000135c:	603e      	str	r6, [r7, #0]
1000135e:	687e      	ldr	r6, [r7, #4]
10001360:	3f04      	subs	r7, #4
10001362:	603e      	str	r6, [r7, #0]
10001364:	68fe      	ldr	r6, [r7, #12]
10001366:	b40f      	push	{r0, r1, r2, r3}
10001368:	f7ff ff7b 	bl	10001262 <Code_50>
1000136c:	bc0f      	pop	{r0, r1, r2, r3}
1000136e:	1992      	adds	r2, r2, r6
10001370:	4163      	adcs	r3, r4
10001372:	cf40      	ldmia	r7!, {r6}
10001374:	1989      	adds	r1, r1, r6
10001376:	4162      	adcs	r2, r4
10001378:	4163      	adcs	r3, r4
1000137a:	cf40      	ldmia	r7!, {r6}
1000137c:	001e      	movs	r6, r3
1000137e:	603a      	str	r2, [r7, #0]
10001380:	6079      	str	r1, [r7, #4]
10001382:	60b8      	str	r0, [r7, #8]
10001384:	bd10      	pop	{r4, pc}
10001386:	46c0      	nop			; (mov r8, r8)

10001388 <Dictionary_70>:
10001388:	100013ac 	andne	r1, r0, ip, lsr #7
1000138c:	2a020043 	bcs	100814a0 <FlashDictionaryEnde+0x704a0>
10001390:	b500002f 	strlt	r0, [r0, #-47]	; 0x2f

10001392 <Code_70>:
10001392:	b500      	push	{lr}
10001394:	b440      	push	{r6}
10001396:	cf40      	ldmia	r7!, {r6}
10001398:	f7ff ff79 	bl	1000128e <Code_51>
1000139c:	3f04      	subs	r7, #4
1000139e:	603e      	str	r6, [r7, #0]
100013a0:	bc40      	pop	{r6}
100013a2:	f000 f84f 	bl	10001444 <Code_93>
100013a6:	3704      	adds	r7, #4
100013a8:	bd00      	pop	{pc}
100013aa:	46c0      	nop			; (mov r8, r8)

100013ac <Dictionary_75>:
100013ac:	100013d0 	ldrdne	r1, [r0], -r0
100013b0:	2a050043 	bcs	101414c4 <FlashDictionaryEnde+0x1304c4>
100013b4:	646f6d2f 	strbtvs	r6, [pc], #-3375	; 100013bc <Code_75+0x4>

100013b8 <Code_75>:
100013b8:	b500      	push	{lr}
100013ba:	b440      	push	{r6}
100013bc:	cf40      	ldmia	r7!, {r6}
100013be:	f7ff ff66 	bl	1000128e <Code_51>
100013c2:	3f04      	subs	r7, #4
100013c4:	603e      	str	r6, [r7, #0]
100013c6:	bc40      	pop	{r6}
100013c8:	f000 f83c 	bl	10001444 <Code_93>
100013cc:	bd00      	pop	{pc}
100013ce:	46c0      	nop			; (mov r8, r8)

100013d0 <Dictionary_79>:
100013d0:	100013f4 	strdne	r1, [r0], -r4
100013d4:	75030043 	strvc	r0, [r3, #-67]	; 0x43
100013d8:	b5002f2a 	strlt	r2, [r0, #-3882]	; 0xf2a

100013da <Code_79>:
100013da:	b500      	push	{lr}
100013dc:	b440      	push	{r6}
100013de:	cf40      	ldmia	r7!, {r6}
100013e0:	f7ff ff3f 	bl	10001262 <Code_50>
100013e4:	3f04      	subs	r7, #4
100013e6:	603e      	str	r6, [r7, #0]
100013e8:	bc40      	pop	{r6}
100013ea:	f000 f81c 	bl	10001426 <Code_88>
100013ee:	3704      	adds	r7, #4
100013f0:	bd00      	pop	{pc}
100013f2:	46c0      	nop			; (mov r8, r8)

100013f4 <Dictionary_84>:
100013f4:	10001418 	andne	r1, r0, r8, lsl r4
100013f8:	75060043 	strvc	r0, [r6, #-67]	; 0x43
100013fc:	6f6d2f2a 	svcvs	0x006d2f2a
10001400:	b5000064 	strlt	r0, [r0, #-100]	; 0x64

10001402 <Code_84>:
10001402:	b500      	push	{lr}
10001404:	b440      	push	{r6}
10001406:	cf40      	ldmia	r7!, {r6}
10001408:	f7ff ff2b 	bl	10001262 <Code_50>
1000140c:	3f04      	subs	r7, #4
1000140e:	603e      	str	r6, [r7, #0]
10001410:	bc40      	pop	{r6}
10001412:	f000 f808 	bl	10001426 <Code_88>
10001416:	bd00      	pop	{pc}

10001418 <Dictionary_88>:
10001418:	10001438 	andne	r1, r0, r8, lsr r4
1000141c:	75060043 	strvc	r0, [r6, #-67]	; 0x43
10001420:	6f6d2f6d 	svcvs	0x006d2f6d
10001424:	b5000064 	strlt	r0, [r0, #-100]	; 0x64

10001426 <Code_88>:
10001426:	b500      	push	{lr}
10001428:	3f04      	subs	r7, #4
1000142a:	603e      	str	r6, [r7, #0]
1000142c:	2600      	movs	r6, #0
1000142e:	f000 f81a 	bl	10001466 <Code_97>
10001432:	cf40      	ldmia	r7!, {r6}
10001434:	3704      	adds	r7, #4
10001436:	bd00      	pop	{pc}

10001438 <Dictionary_93>:
10001438:	10001458 	andne	r1, r0, r8, asr r4
1000143c:	6d050043 	stcvs	0, cr0, [r5, #-268]	; 0xfffffef4
10001440:	646f6d2f 	strbtvs	r6, [pc], #-3375	; 10001448 <Code_93+0x4>

10001444 <Code_93>:
10001444:	b500      	push	{lr}
10001446:	3f04      	subs	r7, #4
10001448:	603e      	str	r6, [r7, #0]
1000144a:	17f6      	asrs	r6, r6, #31
1000144c:	f000 f834 	bl	100014b8 <Code_99>
10001450:	cf40      	ldmia	r7!, {r6}
10001452:	3704      	adds	r7, #4
10001454:	bd00      	pop	{pc}
10001456:	46c0      	nop			; (mov r8, r8)

10001458 <Dictionary_97>:
10001458:	100014ac 	andne	r1, r0, ip, lsr #9
1000145c:	75060044 	strvc	r0, [r6, #-68]	; 0x44
10001460:	6f6d2f64 	svcvs	0x006d2f64
10001464:	b4300064 	ldrtlt	r0, [r0], #-100	; 0x64

10001466 <Code_97>:
10001466:	b430      	push	{r4, r5}
10001468:	2300      	movs	r3, #0
1000146a:	2200      	movs	r2, #0
1000146c:	6879      	ldr	r1, [r7, #4]
1000146e:	68b8      	ldr	r0, [r7, #8]

10001470 <ud_slash_mod_internal>:
10001470:	0035      	movs	r5, r6
10001472:	683c      	ldr	r4, [r7, #0]
10001474:	2640      	movs	r6, #64	; 0x40
10001476:	0040      	lsls	r0, r0, #1
10001478:	4149      	adcs	r1, r1
1000147a:	4152      	adcs	r2, r2
1000147c:	415b      	adcs	r3, r3
1000147e:	42ab      	cmp	r3, r5
10001480:	d802      	bhi.n	10001488 <ud_slash_mod_internal+0x18>
10001482:	d304      	bcc.n	1000148e <ud_slash_mod_internal+0x1e>
10001484:	42a2      	cmp	r2, r4
10001486:	d302      	bcc.n	1000148e <ud_slash_mod_internal+0x1e>
10001488:	1b12      	subs	r2, r2, r4
1000148a:	41ab      	sbcs	r3, r5
1000148c:	3001      	adds	r0, #1
1000148e:	3e01      	subs	r6, #1
10001490:	d1f1      	bne.n	10001476 <ud_slash_mod_internal+0x6>
10001492:	000e      	movs	r6, r1
10001494:	6038      	str	r0, [r7, #0]
10001496:	607b      	str	r3, [r7, #4]
10001498:	60ba      	str	r2, [r7, #8]
1000149a:	bc30      	pop	{r4, r5}
1000149c:	4770      	bx	lr

1000149e <uf_slash_mod>:
1000149e:	b430      	push	{r4, r5}
100014a0:	2300      	movs	r3, #0
100014a2:	687a      	ldr	r2, [r7, #4]
100014a4:	68b9      	ldr	r1, [r7, #8]
100014a6:	2000      	movs	r0, #0
100014a8:	e7e2      	b.n	10001470 <ud_slash_mod_internal>
100014aa:	46c0      	nop			; (mov r8, r8)

100014ac <Dictionary_99>:
100014ac:	10001524 	andne	r1, r0, r4, lsr #10
100014b0:	64050044 	strvs	r0, [r5], #-68	; 0x44
100014b4:	646f6d2f 	strbtvs	r6, [pc], #-3375	; 100014bc <Code_99+0x4>

100014b8 <Code_99>:
100014b8:	b500      	push	{lr}
100014ba:	17f0      	asrs	r0, r6, #31
100014bc:	d019      	beq.n	100014f2 <Code_99+0x3a>
100014be:	f7ff fea0 	bl	10001202 <Code_45>
100014c2:	f7ff fdd9 	bl	10001078 <Code_24>
100014c6:	17f0      	asrs	r0, r6, #31
100014c8:	d00c      	beq.n	100014e4 <Code_99+0x2c>
100014ca:	f7ff fe9a 	bl	10001202 <Code_45>
100014ce:	f7ff fdd3 	bl	10001078 <Code_24>
100014d2:	f7ff ffc8 	bl	10001466 <Code_97>
100014d6:	f7ff fdcf 	bl	10001078 <Code_24>
100014da:	f7ff fe92 	bl	10001202 <Code_45>
100014de:	f7ff fdcb 	bl	10001078 <Code_24>
100014e2:	bd00      	pop	{pc}
100014e4:	f7ff fdc8 	bl	10001078 <Code_24>
100014e8:	f7ff ffbd 	bl	10001466 <Code_97>
100014ec:	f7ff fe89 	bl	10001202 <Code_45>
100014f0:	bd00      	pop	{pc}
100014f2:	f7ff fdc1 	bl	10001078 <Code_24>
100014f6:	17f0      	asrs	r0, r6, #31
100014f8:	d00e      	beq.n	10001518 <Code_99+0x60>
100014fa:	f7ff fe82 	bl	10001202 <Code_45>
100014fe:	f7ff fdbb 	bl	10001078 <Code_24>
10001502:	f7ff ffb0 	bl	10001466 <Code_97>
10001506:	f7ff fe7c 	bl	10001202 <Code_45>
1000150a:	f7ff fdb5 	bl	10001078 <Code_24>
1000150e:	f7ff fe78 	bl	10001202 <Code_45>
10001512:	f7ff fdb1 	bl	10001078 <Code_24>
10001516:	bd00      	pop	{pc}
10001518:	f7ff fdae 	bl	10001078 <Code_24>
1000151c:	f7ff ffa3 	bl	10001466 <Code_97>
10001520:	bd00      	pop	{pc}
10001522:	46c0      	nop			; (mov r8, r8)

10001524 <Dictionary_100>:
10001524:	1000153c 	andne	r1, r0, ip, lsr r5
10001528:	64020044 	strvs	r0, [r2], #-68	; 0x44
1000152c:	b500002f 	strlt	r0, [r0, #-47]	; 0x2f

1000152e <Code_100>:
1000152e:	b500      	push	{lr}
10001530:	f7ff ffc2 	bl	100014b8 <Code_99>
10001534:	f7ff fdb0 	bl	10001098 <Code_26>
10001538:	bd00      	pop	{pc}
1000153a:	46c0      	nop			; (mov r8, r8)

1000153c <Dictionary_101>:
1000153c:	10001584 	andne	r1, r0, r4, lsl #11
10001540:	66020044 	strvs	r0, [r2], -r4, asr #32
10001544:	b500002a 	strlt	r0, [r0, #-42]	; 0x2a

10001546 <Code_101>:
10001546:	b500      	push	{lr}
10001548:	17f0      	asrs	r0, r6, #31
1000154a:	d00d      	beq.n	10001568 <Code_101+0x22>
1000154c:	f7ff fe59 	bl	10001202 <Code_45>
10001550:	f7ff fd92 	bl	10001078 <Code_24>
10001554:	17f0      	asrs	r0, r6, #31
10001556:	d00d      	beq.n	10001574 <Code_101+0x2e>
10001558:	f7ff fe53 	bl	10001202 <Code_45>
1000155c:	f7ff fed0 	bl	10001300 <Code_53>
10001560:	cf40      	ldmia	r7!, {r6}
10001562:	cf01      	ldmia	r7!, {r0}
10001564:	6038      	str	r0, [r7, #0]
10001566:	bd00      	pop	{pc}
10001568:	f7ff fd86 	bl	10001078 <Code_24>
1000156c:	17f0      	asrs	r0, r6, #31
1000156e:	d0f5      	beq.n	1000155c <Code_101+0x16>
10001570:	f7ff fe47 	bl	10001202 <Code_45>
10001574:	f7ff fec4 	bl	10001300 <Code_53>
10001578:	cf40      	ldmia	r7!, {r6}
1000157a:	cf01      	ldmia	r7!, {r0}
1000157c:	6038      	str	r0, [r7, #0]
1000157e:	f7ff fe40 	bl	10001202 <Code_45>
10001582:	bd00      	pop	{pc}

10001584 <Dictionary_104>:
10001584:	100015d0 	ldrdne	r1, [r0], -r0
10001588:	66020044 	strvs	r0, [r2], -r4, asr #32
1000158c:	b500002f 	strlt	r0, [r0, #-47]	; 0x2f

1000158e <Code_104>:
1000158e:	b500      	push	{lr}
10001590:	17f0      	asrs	r0, r6, #31
10001592:	d00e      	beq.n	100015b2 <Code_104+0x24>
10001594:	f7ff fe35 	bl	10001202 <Code_45>
10001598:	f7ff fd6e 	bl	10001078 <Code_24>
1000159c:	17f0      	asrs	r0, r6, #31
1000159e:	d00e      	beq.n	100015be <Code_104+0x30>
100015a0:	f7ff fe2f 	bl	10001202 <Code_45>
100015a4:	f7ff fd68 	bl	10001078 <Code_24>
100015a8:	f7ff ff79 	bl	1000149e <uf_slash_mod>
100015ac:	f7ff fd74 	bl	10001098 <Code_26>
100015b0:	bd00      	pop	{pc}
100015b2:	f7ff fd61 	bl	10001078 <Code_24>
100015b6:	17f0      	asrs	r0, r6, #31
100015b8:	d0f4      	beq.n	100015a4 <Code_104+0x16>
100015ba:	f7ff fe22 	bl	10001202 <Code_45>
100015be:	f7ff fd5b 	bl	10001078 <Code_24>
100015c2:	f7ff ff6c 	bl	1000149e <uf_slash_mod>
100015c6:	f7ff fe1c 	bl	10001202 <Code_45>
100015ca:	f7ff fd65 	bl	10001098 <Code_26>
100015ce:	bd00      	pop	{pc}

100015d0 <Dictionary_105>:
100015d0:	100015e4 	andne	r1, r0, r4, ror #11
100015d4:	32020020 	andcc	r0, r2, #32
100015d8:	cf060021 	svcgt	0x00060021

100015da <Code_105>:
100015da:	cf06      	ldmia	r7!, {r1, r2}
100015dc:	6031      	str	r1, [r6, #0]
100015de:	6072      	str	r2, [r6, #4]
100015e0:	cf40      	ldmia	r7!, {r6}
100015e2:	4770      	bx	lr

100015e4 <Dictionary_107>:
100015e4:	100015f8 	strdne	r1, [r0], -r8
100015e8:	32020020 	andcc	r0, r2, #32
100015ec:	3f040040 	svccc	0x00040040

100015ee <Code_107>:
100015ee:	3f04      	subs	r7, #4
100015f0:	6870      	ldr	r0, [r6, #4]
100015f2:	6038      	str	r0, [r7, #0]
100015f4:	6836      	ldr	r6, [r6, #0]
100015f6:	4770      	bx	lr

100015f8 <Dictionary_108>:
100015f8:	10001618 	andne	r1, r0, r8, lsl r6
100015fc:	64030044 	strvs	r0, [r3], #-68	; 0x44
10001600:	cf073c75 	svcgt	0x00073c75

10001602 <Code_108>:
10001602:	cf07      	ldmia	r7!, {r0, r1, r2}
10001604:	428e      	cmp	r6, r1
10001606:	d804      	bhi.n	10001612 <Code_108+0x10>
10001608:	d101      	bne.n	1000160e <Code_108+0xc>
1000160a:	4290      	cmp	r0, r2
1000160c:	d801      	bhi.n	10001612 <Code_108+0x10>
1000160e:	2600      	movs	r6, #0
10001610:	4770      	bx	lr
10001612:	2600      	movs	r6, #0
10001614:	43f6      	mvns	r6, r6
10001616:	4770      	bx	lr

10001618 <Dictionary_109>:
10001618:	10001638 	andne	r1, r0, r8, lsr r6
1000161c:	64030044 	strvs	r0, [r3], #-68	; 0x44
10001620:	cf073e75 	svcgt	0x00073e75

10001622 <Code_109>:
10001622:	cf07      	ldmia	r7!, {r0, r1, r2}
10001624:	42b1      	cmp	r1, r6
10001626:	d804      	bhi.n	10001632 <Code_109+0x10>
10001628:	d101      	bne.n	1000162e <Code_109+0xc>
1000162a:	4282      	cmp	r2, r0
1000162c:	d801      	bhi.n	10001632 <Code_109+0x10>
1000162e:	2600      	movs	r6, #0
10001630:	4770      	bx	lr
10001632:	2600      	movs	r6, #0
10001634:	43f6      	mvns	r6, r6
10001636:	4770      	bx	lr

10001638 <Dictionary_110>:
10001638:	10001658 	andne	r1, r0, r8, asr r6
1000163c:	64020044 	strvs	r0, [r2], #-68	; 0x44
10001640:	cf07003c 	svcgt	0x0007003c

10001642 <Code_110>:
10001642:	cf07      	ldmia	r7!, {r0, r1, r2}
10001644:	428e      	cmp	r6, r1
10001646:	dc04      	bgt.n	10001652 <Code_110+0x10>
10001648:	d101      	bne.n	1000164e <Code_110+0xc>
1000164a:	4290      	cmp	r0, r2
1000164c:	dc01      	bgt.n	10001652 <Code_110+0x10>
1000164e:	2600      	movs	r6, #0
10001650:	4770      	bx	lr
10001652:	2600      	movs	r6, #0
10001654:	43f6      	mvns	r6, r6
10001656:	4770      	bx	lr

10001658 <Dictionary_111>:
10001658:	10001678 	andne	r1, r0, r8, ror r6
1000165c:	64020044 	strvs	r0, [r2], #-68	; 0x44
10001660:	cf07003e 	svcgt	0x0007003e

10001662 <Code_111>:
10001662:	cf07      	ldmia	r7!, {r0, r1, r2}
10001664:	42b1      	cmp	r1, r6
10001666:	dc04      	bgt.n	10001672 <Code_111+0x10>
10001668:	d101      	bne.n	1000166e <Code_111+0xc>
1000166a:	4282      	cmp	r2, r0
1000166c:	dc01      	bgt.n	10001672 <Code_111+0x10>
1000166e:	2600      	movs	r6, #0
10001670:	4770      	bx	lr
10001672:	2600      	movs	r6, #0
10001674:	43f6      	mvns	r6, r6
10001676:	4770      	bx	lr

10001678 <Dictionary_112>:
10001678:	10001688 	andne	r1, r0, r8, lsl #13
1000167c:	64030062 	strvs	r0, [r3], #-98	; 0x62
10001680:	37043c30 	smladxcc	r4, r0, ip, r3

10001682 <Code_112>:
10001682:	3704      	adds	r7, #4
10001684:	17f6      	asrs	r6, r6, #31
10001686:	4770      	bx	lr

10001688 <Dictionary_113>:
10001688:	1000169c 	mulne	r0, ip, r6
1000168c:	64030062 	strvs	r0, [r3], #-98	; 0x62
10001690:	cf013d30 	svcgt	0x00013d30

10001692 <Code_113>:
10001692:	cf01      	ldmia	r7!, {r0}
10001694:	4306      	orrs	r6, r0
10001696:	3e01      	subs	r6, #1
10001698:	41b6      	sbcs	r6, r6
1000169a:	4770      	bx	lr

1000169c <Dictionary_114>:
1000169c:	100016b8 			; <UNDEFINED> instruction: 0x100016b8
100016a0:	64030044 	strvs	r0, [r3], #-68	; 0x44
100016a4:	cf073e3c 	svcgt	0x00073e3c

100016a6 <Code_114>:
100016a6:	cf07      	ldmia	r7!, {r0, r1, r2}
100016a8:	4050      	eors	r0, r2
100016aa:	404e      	eors	r6, r1
100016ac:	4306      	orrs	r6, r0
100016ae:	3e01      	subs	r6, #1
100016b0:	41b6      	sbcs	r6, r6
100016b2:	43f6      	mvns	r6, r6
100016b4:	4770      	bx	lr
100016b6:	46c0      	nop			; (mov r8, r8)

100016b8 <Dictionary_115>:
100016b8:	100016d0 	ldrdne	r1, [r0], -r0
100016bc:	64020044 	strvs	r0, [r2], #-68	; 0x44
100016c0:	cf07003d 	svcgt	0x0007003d

100016c2 <Code_115>:
100016c2:	cf07      	ldmia	r7!, {r0, r1, r2}
100016c4:	4050      	eors	r0, r2
100016c6:	404e      	eors	r6, r1
100016c8:	4306      	orrs	r6, r0
100016ca:	3e01      	subs	r6, #1
100016cc:	41b6      	sbcs	r6, r6
100016ce:	4770      	bx	lr

100016d0 <Dictionary_116>:
100016d0:	100016e4 	andne	r1, r0, r4, ror #13
100016d4:	73030020 	movwvc	r0, #12320	; 0x3020
100016d8:	3f044070 	svccc	0x00044070

100016da <Code_116>:
100016da:	3f04      	subs	r7, #4
100016dc:	603e      	str	r6, [r7, #0]
100016de:	003e      	movs	r6, r7
100016e0:	4770      	bx	lr
100016e2:	46c0      	nop			; (mov r8, r8)

100016e4 <Dictionary_118>:
100016e4:	100016f4 	strdne	r1, [r0], -r4
100016e8:	73030020 	movwvc	r0, #12320	; 0x3020
100016ec:	00372170 	eorseq	r2, r7, r0, ror r1

100016ee <Code_118>:
100016ee:	0037      	movs	r7, r6
100016f0:	cf40      	ldmia	r7!, {r6}
100016f2:	4770      	bx	lr

100016f4 <Dictionary_119>:
100016f4:	10001708 	andne	r1, r0, r8, lsl #14
100016f8:	72030020 	andvc	r0, r3, #32
100016fc:	3f044070 	svccc	0x00044070

100016fe <Code_119>:
100016fe:	3f04      	subs	r7, #4
10001700:	603e      	str	r6, [r7, #0]
10001702:	466e      	mov	r6, sp
10001704:	4770      	bx	lr
10001706:	46c0      	nop			; (mov r8, r8)

10001708 <Dictionary_121>:
10001708:	10001718 	andne	r1, r0, r8, lsl r7
1000170c:	72030020 	andvc	r0, r3, #32
10001710:	46b52170 			; <UNDEFINED> instruction: 0x46b52170

10001712 <Code_121>:
10001712:	46b5      	mov	sp, r6
10001714:	cf40      	ldmia	r7!, {r6}
10001716:	4770      	bx	lr

10001718 <Dictionary_122>:
10001718:	10001728 	andne	r1, r0, r8, lsr #14
1000171c:	64030061 	strvs	r0, [r3], #-97	; 0x61
10001720:	3f047075 	svccc	0x00047075

10001722 <Code_122>:
10001722:	3f04      	subs	r7, #4
10001724:	603e      	str	r6, [r7, #0]
10001726:	4770      	bx	lr

10001728 <Dictionary_125>:
10001728:	10001738 	andne	r1, r0, r8, lsr r7
1000172c:	64040061 	strvs	r0, [r4], #-97	; 0x61
10001730:	00706f72 	rsbseq	r6, r0, r2, ror pc

10001734 <Code_125>:
10001734:	cf40      	ldmia	r7!, {r6}
10001736:	4770      	bx	lr

10001738 <Dictionary_127>:
10001738:	10001750 	andne	r1, r0, r0, asr r7
1000173c:	3f040061 	svccc	0x00040061
10001740:	00707564 	rsbseq	r7, r0, r4, ror #10

10001744 <Code_127>:
10001744:	2e00      	cmp	r6, #0
10001746:	d001      	beq.n	1000174c <Code_127+0x8>
10001748:	3f04      	subs	r7, #4
1000174a:	603e      	str	r6, [r7, #0]
1000174c:	4770      	bx	lr
1000174e:	46c0      	nop			; (mov r8, r8)

10001750 <Dictionary_129>:
10001750:	10001764 	andne	r1, r0, r4, ror #14
10001754:	73040062 	movwvc	r0, #16482	; 0x4062
10001758:	00706177 	rsbseq	r6, r0, r7, ror r1

1000175c <Code_129>:
1000175c:	6839      	ldr	r1, [r7, #0]
1000175e:	603e      	str	r6, [r7, #0]
10001760:	000e      	movs	r6, r1
10001762:	4770      	bx	lr

10001764 <Dictionary_130>:
10001764:	10001774 	andne	r1, r0, r4, ror r7
10001768:	6e030062 	cdpvs	0, 0, cr0, cr3, cr2, {3}
1000176c:	37047069 	strcc	r7, [r4, -r9, rrx]

1000176e <Code_130>:
1000176e:	3704      	adds	r7, #4
10001770:	4770      	bx	lr
10001772:	46c0      	nop			; (mov r8, r8)

10001774 <Dictionary_132>:
10001774:	10001788 	andne	r1, r0, r8, lsl #15
10001778:	6f040062 	svcvs	0x00040062
1000177c:	00726576 	rsbseq	r6, r2, r6, ror r5

10001780 <Code_132>:
10001780:	3f04      	subs	r7, #4
10001782:	603e      	str	r6, [r7, #0]
10001784:	687e      	ldr	r6, [r7, #4]
10001786:	4770      	bx	lr

10001788 <Dictionary_134>:
10001788:	100017a0 	andne	r1, r0, r0, lsr #15
1000178c:	74040062 	strvc	r0, [r4], #-98	; 0x62
10001790:	006b6375 	rsbeq	r6, fp, r5, ror r3

10001794 <Code_134>:
10001794:	cf01      	ldmia	r7!, {r0}
10001796:	3f08      	subs	r7, #8
10001798:	607e      	str	r6, [r7, #4]
1000179a:	6038      	str	r0, [r7, #0]
1000179c:	4770      	bx	lr
1000179e:	46c0      	nop			; (mov r8, r8)

100017a0 <Dictionary_135>:
100017a0:	100017b8 			; <UNDEFINED> instruction: 0x100017b8
100017a4:	72030063 	andvc	r0, r3, #99	; 0x63
100017a8:	cf03746f 	svcgt	0x0003746f

100017aa <Code_135>:
100017aa:	cf03      	ldmia	r7!, {r0, r1}
100017ac:	3f08      	subs	r7, #8
100017ae:	6078      	str	r0, [r7, #4]
100017b0:	603e      	str	r6, [r7, #0]
100017b2:	000e      	movs	r6, r1
100017b4:	4770      	bx	lr
100017b6:	46c0      	nop			; (mov r8, r8)

100017b8 <Dictionary_136>:
100017b8:	100017d0 	ldrdne	r1, [r0], -r0
100017bc:	2d040063 	stccs	0, cr0, [r4, #-396]	; 0xfffffe74
100017c0:	00746f72 	rsbseq	r6, r4, r2, ror pc

100017c4 <Code_136>:
100017c4:	cf03      	ldmia	r7!, {r0, r1}
100017c6:	3f08      	subs	r7, #8
100017c8:	607e      	str	r6, [r7, #4]
100017ca:	6039      	str	r1, [r7, #0]
100017cc:	0006      	movs	r6, r0
100017ce:	4770      	bx	lr

100017d0 <Dictionary_137>:
100017d0:	100017e4 	andne	r1, r0, r4, ror #15
100017d4:	70040020 	andvc	r0, r4, r0, lsr #32
100017d8:	006b6369 	rsbeq	r6, fp, r9, ror #6

100017dc <Code_137>:
100017dc:	00b0      	lsls	r0, r6, #2
100017de:	583e      	ldr	r6, [r7, r0]
100017e0:	4770      	bx	lr
100017e2:	46c0      	nop			; (mov r8, r8)

100017e4 <Dictionary_138>:
100017e4:	100017fc 	strdne	r1, [r0], -ip
100017e8:	64050000 	strvs	r0, [r5]
100017ec:	68747065 	ldmdavs	r4!, {r0, r2, r5, r6, ip, sp, lr}^

100017f0 <Code_138>:
100017f0:	49c7      	ldr	r1, [pc, #796]	; (10001b10 <Code_182+0xc>)
100017f2:	1bc9      	subs	r1, r1, r7
100017f4:	3f04      	subs	r7, #4
100017f6:	603e      	str	r6, [r7, #0]
100017f8:	088e      	lsrs	r6, r1, #2
100017fa:	4770      	bx	lr

100017fc <Dictionary_140>:
100017fc:	10001818 	andne	r1, r0, r8, lsl r8
10001800:	72060000 	andvc	r0, r6, #0
10001804:	74706564 	ldrbtvc	r6, [r0], #-1380	; 0x564
10001808:	3f040068 	svccc	0x00040068

1000180a <Code_140>:
1000180a:	3f04      	subs	r7, #4
1000180c:	603e      	str	r6, [r7, #0]
1000180e:	466e      	mov	r6, sp
10001810:	49c0      	ldr	r1, [pc, #768]	; (10001b14 <Code_182+0x10>)
10001812:	1b89      	subs	r1, r1, r6
10001814:	088e      	lsrs	r6, r1, #2
10001816:	4770      	bx	lr

10001818 <Dictionary_142>:
10001818:	10001828 	andne	r1, r0, r8, lsr #16
1000181c:	3e020020 	cdpcc	0, 0, cr0, cr2, cr0, {1}
10001820:	b4400072 	strblt	r0, [r0], #-114	; 0x72

10001822 <Code_142>:
10001822:	b440      	push	{r6}
10001824:	cf40      	ldmia	r7!, {r6}
10001826:	4770      	bx	lr

10001828 <Dictionary_143>:
10001828:	1000183c 	andne	r1, r0, ip, lsr r8
1000182c:	72020020 	andvc	r0, r2, #32
10001830:	3f04003e 	svccc	0x0004003e

10001832 <Code_143>:
10001832:	3f04      	subs	r7, #4
10001834:	603e      	str	r6, [r7, #0]
10001836:	bc40      	pop	{r6}
10001838:	4770      	bx	lr
1000183a:	46c0      	nop			; (mov r8, r8)

1000183c <Dictionary_145>:
1000183c:	10001850 	andne	r1, r0, r0, asr r8
10001840:	72020020 	andvc	r0, r2, #32
10001844:	3f040040 	svccc	0x00040040

10001846 <Code_145>:
10001846:	3f04      	subs	r7, #4
10001848:	603e      	str	r6, [r7, #0]
1000184a:	9e00      	ldr	r6, [sp, #0]
1000184c:	4770      	bx	lr
1000184e:	46c0      	nop			; (mov r8, r8)

10001850 <Dictionary_147>:
10001850:	10001860 	andne	r1, r0, r0, ror #16
10001854:	72050020 	andvc	r0, r5, #32
10001858:	706f7264 	rsbvc	r7, pc, r4, ror #4

1000185c <Code_147>:
1000185c:	b001      	add	sp, #4
1000185e:	4770      	bx	lr

10001860 <Dictionary_148>:
10001860:	10001874 	andne	r1, r0, r4, ror r8
10001864:	72050020 	andvc	r0, r5, #32
10001868:	6b636970 	blvs	118dbe30 <FlashDictionaryEnde+0x18cae30>

1000186c <Code_148>:
1000186c:	00b6      	lsls	r6, r6, #2
1000186e:	446e      	add	r6, sp
10001870:	6836      	ldr	r6, [r6, #0]
10001872:	4770      	bx	lr

10001874 <Dictionary_149>:
10001874:	10001888 	andne	r1, r0, r8, lsl #17
10001878:	6103006a 	tstvs	r3, sl, rrx
1000187c:	cf01646e 	svcgt	0x0001646e

1000187e <Code_149>:
1000187e:	cf01      	ldmia	r7!, {r0}
10001880:	4006      	ands	r6, r0
10001882:	4770      	bx	lr
10001884:	4006      	ands	r6, r0
10001886:	46c0      	nop			; (mov r8, r8)

10001888 <Dictionary_150>:
10001888:	1000189c 	mulne	r0, ip, r8
1000188c:	6203006a 	andvs	r0, r3, #106	; 0x6a
10001890:	cf016369 	svcgt	0x00016369

10001892 <Code_150>:
10001892:	cf01      	ldmia	r7!, {r0}
10001894:	43b0      	bics	r0, r6
10001896:	0006      	movs	r6, r0
10001898:	4770      	bx	lr
1000189a:	4386      	bics	r6, r0

1000189c <Dictionary_151>:
1000189c:	100018b0 			; <UNDEFINED> instruction: 0x100018b0
100018a0:	6f02006a 	svcvs	0x0002006a
100018a4:	cf010072 	svcgt	0x00010072

100018a6 <Code_151>:
100018a6:	cf01      	ldmia	r7!, {r0}
100018a8:	4306      	orrs	r6, r0
100018aa:	4770      	bx	lr
100018ac:	4306      	orrs	r6, r0
100018ae:	46c0      	nop			; (mov r8, r8)

100018b0 <Dictionary_152>:
100018b0:	100018c4 	andne	r1, r0, r4, asr #17
100018b4:	7803006a 	stmdavc	r3, {r1, r3, r5, r6}
100018b8:	cf01726f 	svcgt	0x0001726f

100018ba <Code_152>:
100018ba:	cf01      	ldmia	r7!, {r0}
100018bc:	4046      	eors	r6, r0
100018be:	4770      	bx	lr
100018c0:	4046      	eors	r6, r0
100018c2:	46c0      	nop			; (mov r8, r8)

100018c4 <Dictionary_153>:
100018c4:	100018d4 	ldrdne	r1, [r0], -r4
100018c8:	6e030061 	cdpvs	0, 0, cr0, cr3, cr1, {3}
100018cc:	43f6746f 	mvnsmi	r7, #1862270976	; 0x6f000000

100018ce <Code_153>:
100018ce:	43f6      	mvns	r6, r6
100018d0:	4770      	bx	lr
100018d2:	46c0      	nop			; (mov r8, r8)

100018d4 <Dictionary_154>:
100018d4:	100018f4 	strdne	r1, [r0], -r4
100018d8:	63030041 	movwvs	r0, #12353	; 0x3041
100018dc:	00307a6c 	eorseq	r7, r0, ip, ror #20

100018de <Code_154>:
100018de:	0030      	movs	r0, r6
100018e0:	d006      	beq.n	100018f0 <Code_154+0x12>
100018e2:	2600      	movs	r6, #0
100018e4:	0040      	lsls	r0, r0, #1
100018e6:	d002      	beq.n	100018ee <Code_154+0x10>
100018e8:	d201      	bcs.n	100018ee <Code_154+0x10>
100018ea:	3601      	adds	r6, #1
100018ec:	e7fa      	b.n	100018e4 <Code_154+0x6>
100018ee:	4770      	bx	lr
100018f0:	2620      	movs	r6, #32
100018f2:	4770      	bx	lr

100018f4 <Dictionary_155>:
100018f4:	10001904 	andne	r1, r0, r4, lsl #18
100018f8:	73030061 	movwvc	r0, #12385	; 0x3061
100018fc:	08767268 	ldmdaeq	r6!, {r3, r5, r6, r9, ip, sp, lr}^

100018fe <Code_155>:
100018fe:	0876      	lsrs	r6, r6, #1
10001900:	4770      	bx	lr
10001902:	46c0      	nop			; (mov r8, r8)

10001904 <Dictionary_156>:
10001904:	10001914 	andne	r1, r0, r4, lsl r9
10001908:	73030061 	movwvc	r0, #12385	; 0x3061
1000190c:	00766c68 	rsbseq	r6, r6, r8, ror #24

1000190e <Code_156>:
1000190e:	0076      	lsls	r6, r6, #1
10001910:	4770      	bx	lr
10001912:	46c0      	nop			; (mov r8, r8)

10001914 <Dictionary_157>:
10001914:	10001924 	andne	r1, r0, r4, lsr #18
10001918:	72030061 	andvc	r0, r3, #97	; 0x61
1000191c:	2001726f 	andcs	r7, r1, pc, ror #4

1000191e <Code_157>:
1000191e:	2001      	movs	r0, #1
10001920:	41c6      	rors	r6, r0
10001922:	4770      	bx	lr

10001924 <Dictionary_158>:
10001924:	10001938 	andne	r1, r0, r8, lsr r9
10001928:	72030061 	andvc	r0, r3, #97	; 0x61
1000192c:	20006c6f 	andcs	r6, r0, pc, ror #24

1000192e <Code_158>:
1000192e:	2000      	movs	r0, #0
10001930:	19b6      	adds	r6, r6, r6
10001932:	4146      	adcs	r6, r0
10001934:	4770      	bx	lr
10001936:	46c0      	nop			; (mov r8, r8)

10001938 <Dictionary_159>:
10001938:	10001954 	andne	r1, r0, r4, asr r9
1000193c:	7206006c 	andvc	r0, r6, #108	; 0x6c
10001940:	66696873 			; <UNDEFINED> instruction: 0x66696873
10001944:	cf010074 	svcgt	0x00010074

10001946 <Code_159>:
10001946:	cf01      	ldmia	r7!, {r0}
10001948:	40f0      	lsrs	r0, r6
1000194a:	0006      	movs	r6, r0
1000194c:	4770      	bx	lr
1000194e:	26000836 			; <UNDEFINED> instruction: 0x26000836
10001952:	46c0      	nop			; (mov r8, r8)

10001954 <Dictionary_160>:
10001954:	10001970 	andne	r1, r0, r0, ror r9
10001958:	6107006c 	tstvs	r7, ip, rrx
1000195c:	69687372 	stmdbvs	r8!, {r1, r4, r5, r6, r8, r9, ip, sp, lr}^
10001960:	cf017466 	svcgt	0x00017466

10001962 <Code_160>:
10001962:	cf01      	ldmia	r7!, {r0}
10001964:	4130      	asrs	r0, r6
10001966:	0006      	movs	r6, r0
10001968:	4770      	bx	lr
1000196a:	17f61036 			; <UNDEFINED> instruction: 0x17f61036
1000196e:	46c0      	nop			; (mov r8, r8)

10001970 <Dictionary_161>:
10001970:	1000198c 	andne	r1, r0, ip, lsl #19
10001974:	6c06006c 	stcvs	0, cr0, [r6], {108}	; 0x6c
10001978:	66696873 			; <UNDEFINED> instruction: 0x66696873
1000197c:	cf010074 	svcgt	0x00010074

1000197e <Code_161>:
1000197e:	cf01      	ldmia	r7!, {r0}
10001980:	40b0      	lsls	r0, r6
10001982:	0006      	movs	r6, r0
10001984:	4770      	bx	lr
10001986:	26000036 			; <UNDEFINED> instruction: 0x26000036
1000198a:	46c0      	nop			; (mov r8, r8)

1000198c <Dictionary_162>:
1000198c:	1000199c 	mulne	r0, ip, r9
10001990:	30020061 	andcc	r0, r2, r1, rrx
10001994:	3e01003d 	mcrcc	0, 0, r0, cr1, cr13, {1}

10001996 <Code_162>:
10001996:	3e01      	subs	r6, #1
10001998:	41b6      	sbcs	r6, r6
1000199a:	4770      	bx	lr

1000199c <Dictionary_163>:
1000199c:	100019b0 			; <UNDEFINED> instruction: 0x100019b0
100019a0:	30030061 	andcc	r0, r3, r1, rrx
100019a4:	3e013e3c 	mcrcc	14, 0, r3, cr1, cr12, {1}

100019a6 <Code_163>:
100019a6:	3e01      	subs	r6, #1
100019a8:	41b6      	sbcs	r6, r6
100019aa:	43f6      	mvns	r6, r6
100019ac:	4770      	bx	lr
100019ae:	46c0      	nop			; (mov r8, r8)

100019b0 <Dictionary_164>:
100019b0:	100019c0 	andne	r1, r0, r0, asr #19
100019b4:	30020061 	andcc	r0, r2, r1, rrx
100019b8:	17f6003c 			; <UNDEFINED> instruction: 0x17f6003c

100019ba <Code_164>:
100019ba:	17f6      	asrs	r6, r6, #31
100019bc:	4770      	bx	lr
100019be:	46c0      	nop			; (mov r8, r8)

100019c0 <Dictionary_165>:
100019c0:	100019d8 	ldrdne	r1, [r0], -r8
100019c4:	74040060 	strvc	r0, [r4], #-96	; 0x60
100019c8:	00657572 	rsbeq	r7, r5, r2, ror r5

100019cc <Code_165>:
100019cc:	3f04      	subs	r7, #4
100019ce:	603e      	str	r6, [r7, #0]

100019d0 <generate_true>:
100019d0:	2600      	movs	r6, #0
100019d2:	43f6      	mvns	r6, r6
100019d4:	4770      	bx	lr
100019d6:	46c0      	nop			; (mov r8, r8)

100019d8 <Dictionary_167>:
100019d8:	100019ec 	andne	r1, r0, ip, ror #19
100019dc:	66050060 	strvs	r0, [r5], -r0, rrx
100019e0:	65736c61 	ldrbvs	r6, [r3, #-3169]!	; 0xc61

100019e4 <Code_167>:
100019e4:	3f04      	subs	r7, #4
100019e6:	603e      	str	r6, [r7, #0]
100019e8:	2600      	movs	r6, #0
100019ea:	4770      	bx	lr

100019ec <Dictionary_169>:
100019ec:	10001a00 	andne	r1, r0, r0, lsl #20
100019f0:	3e020042 	cdpcc	0, 0, cr0, cr2, cr2, {2}
100019f4:	cf01003d 	svcgt	0x0001003d

100019f6 <Code_169>:
100019f6:	cf01      	ldmia	r7!, {r0}
100019f8:	42b0      	cmp	r0, r6
100019fa:	dae9      	bge.n	100019d0 <generate_true>
100019fc:	2600      	movs	r6, #0
100019fe:	4770      	bx	lr

10001a00 <Dictionary_170>:
10001a00:	10001a14 	andne	r1, r0, r4, lsl sl
10001a04:	3c020042 	stccc	0, cr0, [r2], {66}	; 0x42
10001a08:	cf01003d 	svcgt	0x0001003d

10001a0a <Code_170>:
10001a0a:	cf01      	ldmia	r7!, {r0}
10001a0c:	42b0      	cmp	r0, r6
10001a0e:	dddf      	ble.n	100019d0 <generate_true>
10001a10:	2600      	movs	r6, #0
10001a12:	4770      	bx	lr

10001a14 <Dictionary_171>:
10001a14:	10001a28 	andne	r1, r0, r8, lsr #20
10001a18:	3c010042 	stccc	0, cr0, [r1], {66}	; 0x42

10001a1c <Code_171>:
10001a1c:	cf01      	ldmia	r7!, {r0}
10001a1e:	42b0      	cmp	r0, r6
10001a20:	dbd6      	blt.n	100019d0 <generate_true>
10001a22:	2600      	movs	r6, #0
10001a24:	4770      	bx	lr
10001a26:	46c0      	nop			; (mov r8, r8)

10001a28 <Dictionary_172>:
10001a28:	10001a3c 	andne	r1, r0, ip, lsr sl
10001a2c:	3e010042 	cdpcc	0, 0, cr0, cr1, cr2, {2}

10001a30 <Code_172>:
10001a30:	cf01      	ldmia	r7!, {r0}
10001a32:	42b0      	cmp	r0, r6
10001a34:	dccc      	bgt.n	100019d0 <generate_true>
10001a36:	2600      	movs	r6, #0
10001a38:	4770      	bx	lr
10001a3a:	46c0      	nop			; (mov r8, r8)

10001a3c <Dictionary_173>:
10001a3c:	10001a50 	andne	r1, r0, r0, asr sl
10001a40:	75030062 	strvc	r0, [r3, #-98]	; 0x62
10001a44:	cf013d3e 	svcgt	0x00013d3e

10001a46 <Code_173>:
10001a46:	cf01      	ldmia	r7!, {r0}
10001a48:	1b86      	subs	r6, r0, r6
10001a4a:	41b6      	sbcs	r6, r6
10001a4c:	43f6      	mvns	r6, r6
10001a4e:	4770      	bx	lr

10001a50 <Dictionary_174>:
10001a50:	10001a64 	andne	r1, r0, r4, ror #20
10001a54:	75030062 	strvc	r0, [r3, #-98]	; 0x62
10001a58:	cf013d3c 	svcgt	0x00013d3c

10001a5a <Code_174>:
10001a5a:	cf01      	ldmia	r7!, {r0}
10001a5c:	1a36      	subs	r6, r6, r0
10001a5e:	41b6      	sbcs	r6, r6
10001a60:	43f6      	mvns	r6, r6
10001a62:	4770      	bx	lr

10001a64 <Dictionary_175>:
10001a64:	10001a78 	andne	r1, r0, r8, ror sl
10001a68:	75020062 	strvc	r0, [r2, #-98]	; 0x62
10001a6c:	cf01003c 	svcgt	0x0001003c

10001a6e <Code_175>:
10001a6e:	cf01      	ldmia	r7!, {r0}
10001a70:	1b86      	subs	r6, r0, r6
10001a72:	41b6      	sbcs	r6, r6
10001a74:	4770      	bx	lr
10001a76:	46c0      	nop			; (mov r8, r8)

10001a78 <Dictionary_176>:
10001a78:	10001a8c 	andne	r1, r0, ip, lsl #21
10001a7c:	75020062 	strvc	r0, [r2, #-98]	; 0x62
10001a80:	cf01003e 	svcgt	0x0001003e

10001a82 <Code_176>:
10001a82:	cf01      	ldmia	r7!, {r0}
10001a84:	1a36      	subs	r6, r6, r0
10001a86:	41b6      	sbcs	r6, r6
10001a88:	4770      	bx	lr
10001a8a:	46c0      	nop			; (mov r8, r8)

10001a8c <Dictionary_177>:
10001a8c:	10001aa4 	andne	r1, r0, r4, lsr #21
10001a90:	3c02006b 	stccc	0, cr0, [r2], {107}	; 0x6b
10001a94:	cf01003e 	svcgt	0x0001003e

10001a96 <Code_177>:
10001a96:	cf01      	ldmia	r7!, {r0}
10001a98:	1a36      	subs	r6, r6, r0
10001a9a:	3e01      	subs	r6, #1
10001a9c:	41b6      	sbcs	r6, r6
10001a9e:	43f6      	mvns	r6, r6
10001aa0:	4770      	bx	lr
10001aa2:	46c0      	nop			; (mov r8, r8)

10001aa4 <Dictionary_178>:
10001aa4:	10001ab8 			; <UNDEFINED> instruction: 0x10001ab8
10001aa8:	3d01006b 	stccc	0, cr0, [r1, #-428]	; 0xfffffe54

10001aac <Code_178>:
10001aac:	cf01      	ldmia	r7!, {r0}
10001aae:	1a36      	subs	r6, r6, r0
10001ab0:	3e01      	subs	r6, #1
10001ab2:	41b6      	sbcs	r6, r6
10001ab4:	4770      	bx	lr
10001ab6:	46c0      	nop			; (mov r8, r8)

10001ab8 <Dictionary_179>:
10001ab8:	10001acc 	andne	r1, r0, ip, asr #21
10001abc:	6d030062 	stcvs	0, cr0, [r3, #-392]	; 0xfffffe78
10001ac0:	cf016e69 	svcgt	0x00016e69

10001ac2 <Code_179>:
10001ac2:	cf01      	ldmia	r7!, {r0}
10001ac4:	42b0      	cmp	r0, r6
10001ac6:	dc00      	bgt.n	10001aca <Code_179+0x8>
10001ac8:	0006      	movs	r6, r0
10001aca:	4770      	bx	lr

10001acc <Dictionary_180>:
10001acc:	10001ae0 	andne	r1, r0, r0, ror #21
10001ad0:	6d030062 	stcvs	0, cr0, [r3, #-392]	; 0xfffffe78
10001ad4:	cf017861 	svcgt	0x00017861

10001ad6 <Code_180>:
10001ad6:	cf01      	ldmia	r7!, {r0}
10001ad8:	42b0      	cmp	r0, r6
10001ada:	db00      	blt.n	10001ade <Code_180+0x8>
10001adc:	0006      	movs	r6, r0
10001ade:	4770      	bx	lr

10001ae0 <Dictionary_181>:
10001ae0:	10001af8 	strdne	r1, [r0], -r8
10001ae4:	75040062 	strvc	r0, [r4, #-98]	; 0x62
10001ae8:	0078616d 	rsbseq	r6, r8, sp, ror #2

10001aec <Code_181>:
10001aec:	cf01      	ldmia	r7!, {r0}
10001aee:	42b0      	cmp	r0, r6
10001af0:	d300      	bcc.n	10001af4 <Code_181+0x8>
10001af2:	0006      	movs	r6, r0
10001af4:	4770      	bx	lr
10001af6:	46c0      	nop			; (mov r8, r8)

10001af8 <Dictionary_182>:
10001af8:	10001b18 	andne	r1, r0, r8, lsl fp
10001afc:	75040062 	strvc	r0, [r4, #-98]	; 0x62
10001b00:	006e696d 	rsbeq	r6, lr, sp, ror #18

10001b04 <Code_182>:
10001b04:	cf01      	ldmia	r7!, {r0}
10001b06:	42b0      	cmp	r0, r6
10001b08:	d800      	bhi.n	10001b0c <Code_182+0x8>
10001b0a:	0006      	movs	r6, r0
10001b0c:	4770      	bx	lr
10001b0e:	04240000 	strteq	r0, [r4]
10001b12:	05242000 	streq	r2, [r4]!
10001b16:	1b582000 	blne	11609b1e <FlashDictionaryEnde+0x15f8b1e>

10001b18 <Dictionary_183>:
10001b18:	10001b58 	andne	r1, r0, r8, asr fp
10001b1c:	6d040000 	stcvs	0, cr0, [r4]
10001b20:	0065766f 	rsbeq	r7, r5, pc, ror #12

10001b24 <Code_183>:
10001b24:	b507      	push	{r0, r1, r2, lr}
10001b26:	0031      	movs	r1, r6
10001b28:	cf40      	ldmia	r7!, {r6}
10001b2a:	0032      	movs	r2, r6
10001b2c:	cf40      	ldmia	r7!, {r6}
10001b2e:	2900      	cmp	r1, #0
10001b30:	d00f      	beq.n	10001b52 <Code_183+0x2e>
10001b32:	42b2      	cmp	r2, r6
10001b34:	d00d      	beq.n	10001b52 <Code_183+0x2e>
10001b36:	d306      	bcc.n	10001b46 <Code_183+0x22>
10001b38:	3e01      	subs	r6, #1
10001b3a:	3a01      	subs	r2, #1
10001b3c:	5c70      	ldrb	r0, [r6, r1]
10001b3e:	5450      	strb	r0, [r2, r1]
10001b40:	3901      	subs	r1, #1
10001b42:	d1fb      	bne.n	10001b3c <Code_183+0x18>
10001b44:	e005      	b.n	10001b52 <Code_183+0x2e>
10001b46:	7830      	ldrb	r0, [r6, #0]
10001b48:	7010      	strb	r0, [r2, #0]
10001b4a:	3601      	adds	r6, #1
10001b4c:	3201      	adds	r2, #1
10001b4e:	3901      	subs	r1, #1
10001b50:	d1f9      	bne.n	10001b46 <Code_183+0x22>
10001b52:	cf40      	ldmia	r7!, {r6}
10001b54:	bd07      	pop	{r0, r1, r2, pc}
10001b56:	46c0      	nop			; (mov r8, r8)

10001b58 <Dictionary_187>:
10001b58:	10001b7c 	andne	r1, r0, ip, ror fp
10001b5c:	66040000 	strvs	r0, [r4], -r0
10001b60:	006c6c69 	rsbeq	r6, ip, r9, ror #24

10001b64 <Code_187>:
10001b64:	0030      	movs	r0, r6
10001b66:	cf40      	ldmia	r7!, {r6}
10001b68:	0031      	movs	r1, r6
10001b6a:	cf40      	ldmia	r7!, {r6}
10001b6c:	2900      	cmp	r1, #0
10001b6e:	d002      	beq.n	10001b76 <Code_187+0x12>
10001b70:	3901      	subs	r1, #1
10001b72:	5470      	strb	r0, [r6, r1]
10001b74:	d1fc      	bne.n	10001b70 <Code_187+0xc>
10001b76:	cf40      	ldmia	r7!, {r6}
10001b78:	4770      	bx	lr
10001b7a:	46c0      	nop			; (mov r8, r8)

10001b7c <Dictionary_191>:
10001b7c:	10001b88 	andne	r1, r0, r8, lsl #23
10001b80:	40010020 	andmi	r0, r1, r0, lsr #32

10001b84 <Code_191>:
10001b84:	6836      	ldr	r6, [r6, #0]
10001b86:	4770      	bx	lr

10001b88 <Dictionary_192>:
10001b88:	10001ba0 	andne	r1, r0, r0, lsr #23
10001b8c:	2101006d 	tstcs	r1, sp, rrx

10001b90 <Code_192>:
10001b90:	cf03      	ldmia	r7!, {r0, r1}
10001b92:	6030      	str	r0, [r6, #0]
10001b94:	000e      	movs	r6, r1
10001b96:	4770      	bx	lr
10001b98:	6006      	str	r6, [r0, #0]
10001b9a:	4770      	bx	lr
10001b9c:	6001      	str	r1, [r0, #0]
10001b9e:	4770      	bx	lr

10001ba0 <Dictionary_193>:
10001ba0:	10001bc8 	andne	r1, r0, r8, asr #23
10001ba4:	2b02006d 	blcs	10081d60 <FlashDictionaryEnde+0x70d60>
10001ba8:	cf030021 	svcgt	0x00030021

10001baa <Code_193>:
10001baa:	cf03      	ldmia	r7!, {r0, r1}
10001bac:	6832      	ldr	r2, [r6, #0]
10001bae:	1812      	adds	r2, r2, r0
10001bb0:	6032      	str	r2, [r6, #0]
10001bb2:	000e      	movs	r6, r1
10001bb4:	4770      	bx	lr
10001bb6:	6802      	ldr	r2, [r0, #0]
10001bb8:	1992      	adds	r2, r2, r6
10001bba:	6002      	str	r2, [r0, #0]
10001bbc:	4770      	bx	lr
10001bbe:	6802      	ldr	r2, [r0, #0]
10001bc0:	1852      	adds	r2, r2, r1
10001bc2:	6002      	str	r2, [r0, #0]
10001bc4:	4770      	bx	lr
10001bc6:	46c0      	nop			; (mov r8, r8)

10001bc8 <Dictionary_194>:
10001bc8:	10001bd8 	ldrdne	r1, [r0], -r8
10001bcc:	68020020 	stmdavs	r2, {r5}
10001bd0:	88360040 	ldmdahi	r6!, {r6}

10001bd2 <Code_194>:
10001bd2:	8836      	ldrh	r6, [r6, #0]
10001bd4:	4770      	bx	lr
10001bd6:	46c0      	nop			; (mov r8, r8)

10001bd8 <Dictionary_195>:
10001bd8:	10001bf4 	strdne	r1, [r0], -r4
10001bdc:	6802006d 	stmdavs	r2, {r0, r2, r3, r5, r6}
10001be0:	cf030021 	svcgt	0x00030021

10001be2 <Code_195>:
10001be2:	cf03      	ldmia	r7!, {r0, r1}
10001be4:	8030      	strh	r0, [r6, #0]
10001be6:	000e      	movs	r6, r1
10001be8:	4770      	bx	lr
10001bea:	8006      	strh	r6, [r0, #0]
10001bec:	4770      	bx	lr
10001bee:	8001      	strh	r1, [r0, #0]
10001bf0:	4770      	bx	lr
10001bf2:	46c0      	nop			; (mov r8, r8)

10001bf4 <Dictionary_196>:
10001bf4:	10001c1c 	andne	r1, r0, ip, lsl ip
10001bf8:	6803006d 	stmdavs	r3, {r0, r2, r3, r5, r6}
10001bfc:	cf03212b 	svcgt	0x0003212b

10001bfe <Code_196>:
10001bfe:	cf03      	ldmia	r7!, {r0, r1}
10001c00:	8832      	ldrh	r2, [r6, #0]
10001c02:	1812      	adds	r2, r2, r0
10001c04:	8032      	strh	r2, [r6, #0]
10001c06:	000e      	movs	r6, r1
10001c08:	4770      	bx	lr
10001c0a:	8802      	ldrh	r2, [r0, #0]
10001c0c:	1992      	adds	r2, r2, r6
10001c0e:	8002      	strh	r2, [r0, #0]
10001c10:	4770      	bx	lr
10001c12:	8802      	ldrh	r2, [r0, #0]
10001c14:	1852      	adds	r2, r2, r1
10001c16:	8002      	strh	r2, [r0, #0]
10001c18:	4770      	bx	lr
10001c1a:	46c0      	nop			; (mov r8, r8)

10001c1c <Dictionary_197>:
10001c1c:	10001c2c 	andne	r1, r0, ip, lsr #24
10001c20:	63020020 	movwvs	r0, #8224	; 0x2020
10001c24:	78360040 	ldmdavc	r6!, {r6}

10001c26 <Code_197>:
10001c26:	7836      	ldrb	r6, [r6, #0]
10001c28:	4770      	bx	lr
10001c2a:	46c0      	nop			; (mov r8, r8)

10001c2c <Dictionary_198>:
10001c2c:	10001c48 	andne	r1, r0, r8, asr #24
10001c30:	6302006d 	movwvs	r0, #8301	; 0x206d
10001c34:	cf030021 	svcgt	0x00030021

10001c36 <Code_198>:
10001c36:	cf03      	ldmia	r7!, {r0, r1}
10001c38:	7030      	strb	r0, [r6, #0]
10001c3a:	000e      	movs	r6, r1
10001c3c:	4770      	bx	lr
10001c3e:	7006      	strb	r6, [r0, #0]
10001c40:	4770      	bx	lr
10001c42:	7001      	strb	r1, [r0, #0]
10001c44:	4770      	bx	lr
10001c46:	46c0      	nop			; (mov r8, r8)

10001c48 <Dictionary_199>:
10001c48:	10001c70 	andne	r1, r0, r0, ror ip
10001c4c:	6303006d 	movwvs	r0, #12397	; 0x306d
10001c50:	cf03212b 	svcgt	0x0003212b

10001c52 <Code_199>:
10001c52:	cf03      	ldmia	r7!, {r0, r1}
10001c54:	7832      	ldrb	r2, [r6, #0]
10001c56:	1812      	adds	r2, r2, r0
10001c58:	7032      	strb	r2, [r6, #0]
10001c5a:	000e      	movs	r6, r1
10001c5c:	4770      	bx	lr
10001c5e:	7802      	ldrb	r2, [r0, #0]
10001c60:	1992      	adds	r2, r2, r6
10001c62:	7002      	strb	r2, [r0, #0]
10001c64:	4770      	bx	lr
10001c66:	7802      	ldrb	r2, [r0, #0]
10001c68:	1852      	adds	r2, r2, r1
10001c6a:	7002      	strb	r2, [r0, #0]
10001c6c:	4770      	bx	lr
10001c6e:	46c0      	nop			; (mov r8, r8)

10001c70 <Dictionary_200>:
10001c70:	10001c98 	mulne	r0, r8, ip
10001c74:	6204006d 	andvs	r0, r4, #109	; 0x6d
10001c78:	00217369 	eoreq	r7, r1, r9, ror #6

10001c7c <Code_200>:
10001c7c:	cf03      	ldmia	r7!, {r0, r1}
10001c7e:	6832      	ldr	r2, [r6, #0]
10001c80:	4302      	orrs	r2, r0
10001c82:	6032      	str	r2, [r6, #0]
10001c84:	000e      	movs	r6, r1
10001c86:	4770      	bx	lr
10001c88:	6802      	ldr	r2, [r0, #0]
10001c8a:	4332      	orrs	r2, r6
10001c8c:	6002      	str	r2, [r0, #0]
10001c8e:	4770      	bx	lr
10001c90:	6802      	ldr	r2, [r0, #0]
10001c92:	430a      	orrs	r2, r1
10001c94:	6002      	str	r2, [r0, #0]
10001c96:	4770      	bx	lr

10001c98 <Dictionary_201>:
10001c98:	10001cc0 	andne	r1, r0, r0, asr #25
10001c9c:	6204006d 	andvs	r0, r4, #109	; 0x6d
10001ca0:	00216369 	eoreq	r6, r1, r9, ror #6

10001ca4 <Code_201>:
10001ca4:	cf03      	ldmia	r7!, {r0, r1}
10001ca6:	6832      	ldr	r2, [r6, #0]
10001ca8:	4382      	bics	r2, r0
10001caa:	6032      	str	r2, [r6, #0]
10001cac:	000e      	movs	r6, r1
10001cae:	4770      	bx	lr
10001cb0:	6802      	ldr	r2, [r0, #0]
10001cb2:	43b2      	bics	r2, r6
10001cb4:	6002      	str	r2, [r0, #0]
10001cb6:	4770      	bx	lr
10001cb8:	6802      	ldr	r2, [r0, #0]
10001cba:	438a      	bics	r2, r1
10001cbc:	6002      	str	r2, [r0, #0]
10001cbe:	4770      	bx	lr

10001cc0 <Dictionary_202>:
10001cc0:	10001ce8 	andne	r1, r0, r8, ror #25
10001cc4:	7804006d 	stmdavc	r4, {r0, r2, r3, r5, r6}
10001cc8:	0021726f 	eoreq	r7, r1, pc, ror #4

10001ccc <Code_202>:
10001ccc:	cf03      	ldmia	r7!, {r0, r1}
10001cce:	6832      	ldr	r2, [r6, #0]
10001cd0:	4042      	eors	r2, r0
10001cd2:	6032      	str	r2, [r6, #0]
10001cd4:	000e      	movs	r6, r1
10001cd6:	4770      	bx	lr
10001cd8:	6802      	ldr	r2, [r0, #0]
10001cda:	4072      	eors	r2, r6
10001cdc:	6002      	str	r2, [r0, #0]
10001cde:	4770      	bx	lr
10001ce0:	6802      	ldr	r2, [r0, #0]
10001ce2:	404a      	eors	r2, r1
10001ce4:	6002      	str	r2, [r0, #0]
10001ce6:	4770      	bx	lr

10001ce8 <Dictionary_203>:
10001ce8:	10001d50 	andne	r1, r0, r0, asr sp
10001cec:	62040068 	andvs	r0, r4, #104	; 0x68
10001cf0:	00407469 	subeq	r7, r0, r9, ror #8

10001cf4 <Code_203>:
10001cf4:	cf01      	ldmia	r7!, {r0}
10001cf6:	6836      	ldr	r6, [r6, #0]

10001cf8 <struktur_bitfetch>:
10001cf8:	4006      	ands	r6, r0
10001cfa:	3e01      	subs	r6, #1
10001cfc:	41b6      	sbcs	r6, r6
10001cfe:	43f6      	mvns	r6, r6
10001d00:	4770      	bx	lr
10001d02:	4ac5      	ldr	r2, [pc, #788]	; (10002018 <Code_239+0x6>)

10001d04 <bitfetch_opcoding>:
10001d04:	b500      	push	{lr}
10001d06:	2b01      	cmp	r3, #1
10001d08:	d10a      	bne.n	10001d20 <bitfetch_opcoding+0x1c>
10001d0a:	3f04      	subs	r7, #4
10001d0c:	603e      	str	r6, [r7, #0]
10001d0e:	2600      	movs	r6, #0
10001d10:	f000 ff24 	bl	10002b5c <Code_437>
10001d14:	3f04      	subs	r7, #4
10001d16:	603e      	str	r6, [r7, #0]
10001d18:	0016      	movs	r6, r2
10001d1a:	f001 faf6 	bl	1000330a <Code_584>
10001d1e:	e011      	b.n	10001d44 <bitfetch_opcoding+0x40>
10001d20:	cf02      	ldmia	r7!, {r1}
10001d22:	3b01      	subs	r3, #1
10001d24:	f002 fc53 	bl	100045ce <konstantenschreiben>
10001d28:	3f04      	subs	r7, #4
10001d2a:	603e      	str	r6, [r7, #0]
10001d2c:	2636      	movs	r6, #54	; 0x36
10001d2e:	4316      	orrs	r6, r2
10001d30:	f001 faeb 	bl	1000330a <Code_584>
10001d34:	3f04      	subs	r7, #4
10001d36:	603e      	str	r6, [r7, #0]
10001d38:	000e      	movs	r6, r1
10001d3a:	3f04      	subs	r7, #4
10001d3c:	603e      	str	r6, [r7, #0]
10001d3e:	2600      	movs	r6, #0
10001d40:	f000 ff0c 	bl	10002b5c <Code_437>
10001d44:	3f04      	subs	r7, #4
10001d46:	603e      	str	r6, [r7, #0]
10001d48:	4eb4      	ldr	r6, [pc, #720]	; (1000201c <Code_239+0xa>)
10001d4a:	f001 f8d6 	bl	10002efa <Code_506>
10001d4e:	bd00      	pop	{pc}

10001d50 <Dictionary_215>:
10001d50:	10001d78 	andne	r1, r0, r8, ror sp
10001d54:	6805006d 	stmdavs	r5, {r0, r2, r3, r5, r6}
10001d58:	21736962 	cmncs	r3, r2, ror #18

10001d5c <Code_215>:
10001d5c:	cf03      	ldmia	r7!, {r0, r1}
10001d5e:	8832      	ldrh	r2, [r6, #0]
10001d60:	4302      	orrs	r2, r0
10001d62:	8032      	strh	r2, [r6, #0]
10001d64:	000e      	movs	r6, r1
10001d66:	4770      	bx	lr
10001d68:	8802      	ldrh	r2, [r0, #0]
10001d6a:	4332      	orrs	r2, r6
10001d6c:	8002      	strh	r2, [r0, #0]
10001d6e:	4770      	bx	lr
10001d70:	8802      	ldrh	r2, [r0, #0]
10001d72:	430a      	orrs	r2, r1
10001d74:	8002      	strh	r2, [r0, #0]
10001d76:	4770      	bx	lr

10001d78 <Dictionary_216>:
10001d78:	10001da0 	andne	r1, r0, r0, lsr #27
10001d7c:	6805006d 	stmdavs	r5, {r0, r2, r3, r5, r6}
10001d80:	21636962 	cmncs	r3, r2, ror #18

10001d84 <Code_216>:
10001d84:	cf03      	ldmia	r7!, {r0, r1}
10001d86:	8832      	ldrh	r2, [r6, #0]
10001d88:	4382      	bics	r2, r0
10001d8a:	8032      	strh	r2, [r6, #0]
10001d8c:	000e      	movs	r6, r1
10001d8e:	4770      	bx	lr
10001d90:	8802      	ldrh	r2, [r0, #0]
10001d92:	43b2      	bics	r2, r6
10001d94:	8002      	strh	r2, [r0, #0]
10001d96:	4770      	bx	lr
10001d98:	8802      	ldrh	r2, [r0, #0]
10001d9a:	438a      	bics	r2, r1
10001d9c:	8002      	strh	r2, [r0, #0]
10001d9e:	4770      	bx	lr

10001da0 <Dictionary_217>:
10001da0:	10001dc8 	andne	r1, r0, r8, asr #27
10001da4:	6805006d 	stmdavs	r5, {r0, r2, r3, r5, r6}
10001da8:	21726f78 	cmncs	r2, r8, ror pc

10001dac <Code_217>:
10001dac:	cf03      	ldmia	r7!, {r0, r1}
10001dae:	8832      	ldrh	r2, [r6, #0]
10001db0:	4042      	eors	r2, r0
10001db2:	8032      	strh	r2, [r6, #0]
10001db4:	000e      	movs	r6, r1
10001db6:	4770      	bx	lr
10001db8:	8802      	ldrh	r2, [r0, #0]
10001dba:	4072      	eors	r2, r6
10001dbc:	8002      	strh	r2, [r0, #0]
10001dbe:	4770      	bx	lr
10001dc0:	8802      	ldrh	r2, [r0, #0]
10001dc2:	404a      	eors	r2, r1
10001dc4:	8002      	strh	r2, [r0, #0]
10001dc6:	4770      	bx	lr

10001dc8 <Dictionary_218>:
10001dc8:	10001de8 	andne	r1, r0, r8, ror #27
10001dcc:	68050068 	stmdavs	r5, {r3, r5, r6}
10001dd0:	40746962 	rsbsmi	r6, r4, r2, ror #18

10001dd4 <Code_218>:
10001dd4:	cf01      	ldmia	r7!, {r0}
10001dd6:	8836      	ldrh	r6, [r6, #0]
10001dd8:	4006      	ands	r6, r0
10001dda:	3e01      	subs	r6, #1
10001ddc:	41b6      	sbcs	r6, r6
10001dde:	43f6      	mvns	r6, r6
10001de0:	4770      	bx	lr
10001de2:	4a8f      	ldr	r2, [pc, #572]	; (10002020 <Code_239+0xe>)
10001de4:	e78e      	b.n	10001d04 <bitfetch_opcoding>
10001de6:	46c0      	nop			; (mov r8, r8)

10001de8 <Dictionary_219>:
10001de8:	10001e10 	andne	r1, r0, r0, lsl lr
10001dec:	6305006d 	movwvs	r0, #20589	; 0x506d
10001df0:	21736962 	cmncs	r3, r2, ror #18

10001df4 <Code_219>:
10001df4:	cf03      	ldmia	r7!, {r0, r1}
10001df6:	7832      	ldrb	r2, [r6, #0]
10001df8:	4302      	orrs	r2, r0
10001dfa:	7032      	strb	r2, [r6, #0]
10001dfc:	000e      	movs	r6, r1
10001dfe:	4770      	bx	lr
10001e00:	7802      	ldrb	r2, [r0, #0]
10001e02:	4332      	orrs	r2, r6
10001e04:	7002      	strb	r2, [r0, #0]
10001e06:	4770      	bx	lr
10001e08:	7802      	ldrb	r2, [r0, #0]
10001e0a:	430a      	orrs	r2, r1
10001e0c:	7002      	strb	r2, [r0, #0]
10001e0e:	4770      	bx	lr

10001e10 <Dictionary_220>:
10001e10:	10001e38 	andne	r1, r0, r8, lsr lr
10001e14:	6305006d 	movwvs	r0, #20589	; 0x506d
10001e18:	21636962 	cmncs	r3, r2, ror #18

10001e1c <Code_220>:
10001e1c:	cf03      	ldmia	r7!, {r0, r1}
10001e1e:	7832      	ldrb	r2, [r6, #0]
10001e20:	4382      	bics	r2, r0
10001e22:	7032      	strb	r2, [r6, #0]
10001e24:	000e      	movs	r6, r1
10001e26:	4770      	bx	lr
10001e28:	7802      	ldrb	r2, [r0, #0]
10001e2a:	43b2      	bics	r2, r6
10001e2c:	7002      	strb	r2, [r0, #0]
10001e2e:	4770      	bx	lr
10001e30:	7802      	ldrb	r2, [r0, #0]
10001e32:	438a      	bics	r2, r1
10001e34:	7002      	strb	r2, [r0, #0]
10001e36:	4770      	bx	lr

10001e38 <Dictionary_221>:
10001e38:	10001e60 	andne	r1, r0, r0, ror #28
10001e3c:	6305006d 	movwvs	r0, #20589	; 0x506d
10001e40:	21726f78 	cmncs	r2, r8, ror pc

10001e44 <Code_221>:
10001e44:	cf03      	ldmia	r7!, {r0, r1}
10001e46:	7832      	ldrb	r2, [r6, #0]
10001e48:	4042      	eors	r2, r0
10001e4a:	7032      	strb	r2, [r6, #0]
10001e4c:	000e      	movs	r6, r1
10001e4e:	4770      	bx	lr
10001e50:	7802      	ldrb	r2, [r0, #0]
10001e52:	4072      	eors	r2, r6
10001e54:	7002      	strb	r2, [r0, #0]
10001e56:	4770      	bx	lr
10001e58:	7802      	ldrb	r2, [r0, #0]
10001e5a:	404a      	eors	r2, r1
10001e5c:	7002      	strb	r2, [r0, #0]
10001e5e:	4770      	bx	lr

10001e60 <Dictionary_222>:
10001e60:	10001e80 	andne	r1, r0, r0, lsl #29
10001e64:	63050068 	movwvs	r0, #20584	; 0x5068
10001e68:	40746962 	rsbsmi	r6, r4, r2, ror #18

10001e6c <Code_222>:
10001e6c:	cf01      	ldmia	r7!, {r0}
10001e6e:	7836      	ldrb	r6, [r6, #0]
10001e70:	4006      	ands	r6, r0
10001e72:	3e01      	subs	r6, #1
10001e74:	41b6      	sbcs	r6, r6
10001e76:	43f6      	mvns	r6, r6
10001e78:	4770      	bx	lr
10001e7a:	4a6a      	ldr	r2, [pc, #424]	; (10002024 <Code_239+0x12>)
10001e7c:	e742      	b.n	10001d04 <bitfetch_opcoding>
10001e7e:	46c0      	nop			; (mov r8, r8)

10001e80 <Dictionary_223>:
10001e80:	10001e90 	mulne	r0, r0, lr
10001e84:	63050061 	movwvs	r0, #20577	; 0x5061
10001e88:	2b6c6c65 	blcs	11b1d024 <FlashDictionaryEnde+0x1b0c024>

10001e8c <Code_223>:
10001e8c:	3604      	adds	r6, #4
10001e8e:	4770      	bx	lr

10001e90 <Dictionary_224>:
10001e90:	10001ec8 	andne	r1, r0, r8, asr #29
10001e94:	63050061 	movwvs	r0, #20577	; 0x5061
10001e98:	736c6c65 	cmnvc	ip, #25856	; 0x6500

10001e9c <Code_224>:
10001e9c:	00b6      	lsls	r6, r6, #2
10001e9e:	4770      	bx	lr

10001ea0 <hexflashstore_fehler>:
10001ea0:	f000 fd0e 	bl	100028c0 <dotgaensefuesschen>
10001ea4:	616c461e 	cmnvs	ip, lr, lsl r6
10001ea8:	63206873 	teqvs	r0, #7536640	; 0x730000
10001eac:	6f6e6e61 	svcvs	0x006e6e61
10001eb0:	65622074 	strbvs	r2, [r2, #-116]!	; 0x74
10001eb4:	69727720 	ldmdbvs	r2!, {r5, r8, r9, sl, ip, sp, lr}^
10001eb8:	6e657474 	mcrvs	4, 3, r7, cr5, cr4, {3}
10001ebc:	69777420 	ldmdbvs	r7!, {r5, sl, ip, sp, lr}^
10001ec0:	000a6563 	andeq	r6, sl, r3, ror #10
10001ec4:	f002 fbaa 	bl	1000461c <Code_962>

10001ec8 <Dictionary_226>:
10001ec8:	10001f48 	andne	r1, r0, r8, asr #30
10001ecc:	31080000 	mrscc	r0, (UNDEF: 8)
10001ed0:	616c6636 	cmnvs	ip, r6, lsr r6
10001ed4:	00216873 	eoreq	r6, r1, r3, ror r8

10001ed8 <Code_226>:
10001ed8:	b50f      	push	{r0, r1, r2, r3, lr}
10001eda:	200f      	movs	r0, #15
10001edc:	4030      	ands	r0, r6
10001ede:	d015      	beq.n	10001f0c <Code_226+0x34>
10001ee0:	f000 fcee 	bl	100028c0 <dotgaensefuesschen>
10001ee4:	66363122 	ldrtvs	r3, [r6], -r2, lsr #2
10001ee8:	6873616c 	ldmdavs	r3!, {r2, r3, r5, r6, r8, sp, lr}^
10001eec:	656e2021 	strbvs	r2, [lr, #-33]!	; 0x21
10001ef0:	20736465 	rsbscs	r6, r3, r5, ror #8
10001ef4:	612d3631 	teqvs	sp, r1, lsr r6
10001ef8:	6e67696c 	cdpvs	9, 6, cr6, cr7, cr12, {3}
10001efc:	61206465 	teqvs	r0, r5, ror #8
10001f00:	65726464 	ldrbvs	r6, [r2, #-1124]!	; 0x464
10001f04:	000a7373 	andeq	r7, sl, r3, ror r3
10001f08:	f002 fb88 	bl	1000461c <Code_962>
10001f0c:	6830      	ldr	r0, [r6, #0]
10001f0e:	3001      	adds	r0, #1
10001f10:	d1c6      	bne.n	10001ea0 <hexflashstore_fehler>
10001f12:	6870      	ldr	r0, [r6, #4]
10001f14:	3001      	adds	r0, #1
10001f16:	d1c3      	bne.n	10001ea0 <hexflashstore_fehler>
10001f18:	68b0      	ldr	r0, [r6, #8]
10001f1a:	3001      	adds	r0, #1
10001f1c:	d1c0      	bne.n	10001ea0 <hexflashstore_fehler>
10001f1e:	68f0      	ldr	r0, [r6, #12]
10001f20:	3001      	adds	r0, #1
10001f22:	d1bd      	bne.n	10001ea0 <hexflashstore_fehler>
10001f24:	4840      	ldr	r0, [pc, #256]	; (10002028 <Code_239+0x16>)
10001f26:	2191      	movs	r1, #145	; 0x91
10001f28:	6001      	str	r1, [r0, #0]
10001f2a:	cf08      	ldmia	r7!, {r3}
10001f2c:	cf04      	ldmia	r7!, {r2}
10001f2e:	cf02      	ldmia	r7!, {r1}
10001f30:	cf01      	ldmia	r7!, {r0}
10001f32:	6030      	str	r0, [r6, #0]
10001f34:	6071      	str	r1, [r6, #4]
10001f36:	60b2      	str	r2, [r6, #8]
10001f38:	60f3      	str	r3, [r6, #12]
10001f3a:	4a3c      	ldr	r2, [pc, #240]	; (1000202c <Code_239+0x1a>)
10001f3c:	6813      	ldr	r3, [r2, #0]
10001f3e:	2001      	movs	r0, #1
10001f40:	4018      	ands	r0, r3
10001f42:	d1fb      	bne.n	10001f3c <Code_226+0x64>
10001f44:	cf40      	ldmia	r7!, {r6}
10001f46:	bd0f      	pop	{r0, r1, r2, r3, pc}

10001f48 <Dictionary_229>:
10001f48:	10001f80 	andne	r1, r0, r0, lsl #31
10001f4c:	660e0000 	strvs	r0, [lr], -r0
10001f50:	6873616c 	ldmdavs	r3!, {r2, r3, r5, r6, r8, sp, lr}^
10001f54:	65676170 	strbvs	r6, [r7, #-368]!	; 0x170
10001f58:	73617265 	cmnvc	r1, #1342177286	; 0x50000006
10001f5c:	b50f0065 	strlt	r0, [pc, #-101]	; 10001eff <Code_226+0x27>

10001f5e <Code_229>:
10001f5e:	b50f      	push	{r0, r1, r2, r3, lr}
10001f60:	0030      	movs	r0, r6
10001f62:	cf40      	ldmia	r7!, {r6}
10001f64:	4b32      	ldr	r3, [pc, #200]	; (10002030 <Code_239+0x1e>)
10001f66:	4298      	cmp	r0, r3
10001f68:	d308      	bcc.n	10001f7c <Code_229+0x1e>
10001f6a:	4b2f      	ldr	r3, [pc, #188]	; (10002028 <Code_239+0x16>)
10001f6c:	2192      	movs	r1, #146	; 0x92
10001f6e:	6019      	str	r1, [r3, #0]
10001f70:	6000      	str	r0, [r0, #0]
10001f72:	4a2e      	ldr	r2, [pc, #184]	; (1000202c <Code_239+0x1a>)
10001f74:	6813      	ldr	r3, [r2, #0]
10001f76:	2001      	movs	r0, #1
10001f78:	4018      	ands	r0, r3
10001f7a:	d1fb      	bne.n	10001f74 <Code_229+0x16>
10001f7c:	bd0f      	pop	{r0, r1, r2, r3, pc}
10001f7e:	46c0      	nop			; (mov r8, r8)

10001f80 <Dictionary_231>:
10001f80:	10001ffc 	strdne	r1, [r0], -ip
10001f84:	650a0000 	strvs	r0, [sl]
10001f88:	65736172 	ldrbvs	r6, [r3, #-370]!	; 0x172
10001f8c:	73616c66 	cmnvc	r1, #26112	; 0x6600
10001f90:	48270068 	stmdami	r7!, {r3, r5, r6}

10001f92 <Code_231>:
10001f92:	4827      	ldr	r0, [pc, #156]	; (10002030 <Code_239+0x1e>)

10001f94 <eraseflash_intern>:
10001f94:	b672      	cpsid	i
10001f96:	4927      	ldr	r1, [pc, #156]	; (10002034 <Code_239+0x22>)
10001f98:	4a27      	ldr	r2, [pc, #156]	; (10002038 <Code_239+0x26>)
10001f9a:	8803      	ldrh	r3, [r0, #0]
10001f9c:	4293      	cmp	r3, r2
10001f9e:	d01c      	beq.n	10001fda <eraseflash_intern+0x46>
10001fa0:	3f04      	subs	r7, #4
10001fa2:	603e      	str	r6, [r7, #0]
10001fa4:	0006      	movs	r6, r0
10001fa6:	3f04      	subs	r7, #4
10001fa8:	603e      	str	r6, [r7, #0]
10001faa:	f000 fc89 	bl	100028c0 <dotgaensefuesschen>
10001fae:	61724510 	cmnvs	r2, r0, lsl r5
10001fb2:	62206573 	eorvs	r6, r0, #482344960	; 0x1cc00000
10001fb6:	6b636f6c 	blvs	118ddd6e <FlashDictionaryEnde+0x18ccd6e>
10001fba:	20746120 	rsbscs	r6, r4, r0, lsr #2
10001fbe:	f0000020 			; <UNDEFINED> instruction: 0xf0000020
10001fc2:	fcf6 f000 	ldc2l	0, cr15, [r6]
10001fc6:	fc7c 200c 	ldc2l	0, cr2, [ip], #-48	; 0xffffffd0
10001fca:	6d6f7266 	sfmvs	f7, 2, [pc, #-408]!	; 10001e38 <Dictionary_221>
10001fce:	616c4620 	cmnvs	ip, r0, lsr #12
10001fd2:	000a6873 	andeq	r6, sl, r3, ror r8
10001fd6:	f7ff ffc2 	bl	10001f5e <Code_229>
10001fda:	3002      	adds	r0, #2
10001fdc:	4288      	cmp	r0, r1
10001fde:	d1dc      	bne.n	10001f9a <eraseflash_intern+0x6>
10001fe0:	f000 fc6e 	bl	100028c0 <dotgaensefuesschen>
10001fe4:	6e694612 	mcrvs	6, 3, r4, cr9, cr2, {0}
10001fe8:	65687369 	strbvs	r7, [r8, #-873]!	; 0x369
10001fec:	52202e64 	eorpl	r2, r0, #1600	; 0x640
10001ff0:	74657365 	strbtvc	r7, [r5], #-869	; 0x365
10001ff4:	000a2120 	andeq	r2, sl, r0, lsr #2
10001ff8:	f002 fba0 	bl	1000473c <Code_975>

10001ffc <Dictionary_239>:
10001ffc:	1000203c 	andne	r2, r0, ip, lsr r0
10002000:	650e0000 	strvs	r0, [lr]
10002004:	65736172 	ldrbvs	r6, [r3, #-370]!	; 0x172
10002008:	73616c66 	cmnvc	r1, #26112	; 0x6600
1000200c:	6f726668 	svcvs	0x00726668
10002010:	0030006d 	eorseq	r0, r0, sp, rrx

10002012 <Code_239>:
10002012:	0030      	movs	r0, r6
10002014:	cf40      	ldmia	r7!, {r6}
10002016:	e7bd      	b.n	10001f94 <eraseflash_intern>
10002018:	00006800 	andeq	r6, r0, r0, lsl #16
1000201c:	10001cf8 	strdne	r1, [r0], -r8
10002020:	00008800 	andeq	r8, r0, r0, lsl #16
10002024:	00007800 	andeq	r7, r0, r0, lsl #16
10002028:	40050004 	andmi	r0, r5, r4
1000202c:	40050000 	andmi	r0, r5, r0
10002030:	10005000 	andne	r5, r0, r0
10002034:	10011000 	andne	r1, r1, r0
10002038:	0000ffff 	strdeq	pc, [r0], -pc	; <UNPREDICTABLE>

1000203c <Dictionary_241>:
1000203c:	1000205c 	andne	r2, r0, ip, asr r0
10002040:	69090000 	stmdbvs	r9, {}	; <UNPREDICTABLE>
10002044:	6674696e 	ldrbtvs	r6, [r4], -lr, ror #18
10002048:	6873616c 	ldmdavs	r3!, {r2, r3, r5, r6, r8, sp, lr}^

1000204c <Code_241>:
1000204c:	4853      	ldr	r0, [pc, #332]	; (1000219c <flushblock+0x2a>)
1000204e:	4954      	ldr	r1, [pc, #336]	; (100021a0 <flushblock+0x2e>)
10002050:	2200      	movs	r2, #0
10002052:	7002      	strb	r2, [r0, #0]
10002054:	3001      	adds	r0, #1
10002056:	3901      	subs	r1, #1
10002058:	d1fb      	bne.n	10002052 <Code_241+0x6>
1000205a:	4770      	bx	lr

1000205c <Dictionary_242>:
1000205c:	10002144 	andne	r2, r0, r4, asr #2
10002060:	68070000 	stmdavs	r7, {}	; <UNPREDICTABLE>
10002064:	73616c66 	cmnvc	r1, #26112	; 0x6600
10002068:	b5302168 	ldrlt	r2, [r0, #-360]!	; 0x168

1000206a <Code_242>:
1000206a:	b530      	push	{r4, r5, lr}
1000206c:	0032      	movs	r2, r6
1000206e:	cf40      	ldmia	r7!, {r6}
10002070:	0850      	lsrs	r0, r2, #1
10002072:	d313      	bcc.n	1000209c <Code_242+0x32>
10002074:	f000 fc24 	bl	100028c0 <dotgaensefuesschen>
10002078:	6c66681e 	stclvs	8, cr6, [r6], #-120	; 0xffffff88
1000207c:	21687361 	cmncs	r8, r1, ror #6
10002080:	65656e20 	strbvs	r6, [r5, #-3616]!	; 0xe20
10002084:	65207364 	strvs	r7, [r0, #-868]!	; 0x364
10002088:	206e6576 	rsbcs	r6, lr, r6, ror r5
1000208c:	72646461 	rsbvc	r6, r4, #1627389952	; 0x61000000
10002090:	65737365 	ldrbvs	r7, [r3, #-869]!	; 0x365
10002094:	000a2e73 	andeq	r2, sl, r3, ror lr
10002098:	f002 fac0 	bl	1000461c <Code_962>
1000209c:	4b41      	ldr	r3, [pc, #260]	; (100021a4 <flushblock+0x32>)
1000209e:	429a      	cmp	r2, r3
100020a0:	d210      	bcs.n	100020c4 <Code_242+0x5a>
100020a2:	f000 fc0d 	bl	100028c0 <dotgaensefuesschen>
100020a6:	6e614319 	mcrvs	3, 3, r4, cr1, cr9, {0}
100020aa:	20746f6e 	rsbscs	r6, r4, lr, ror #30
100020ae:	74697277 	strbtvc	r7, [r9], #-631	; 0x277
100020b2:	6e692065 	cdpvs	0, 6, cr2, cr9, cr5, {3}
100020b6:	63206f74 	teqvs	r0, #464	; 0x1d0
100020ba:	2065726f 	rsbcs	r7, r5, pc, ror #4
100020be:	f0020a21 			; <UNDEFINED> instruction: 0xf0020a21
100020c2:	faac 0913 			; <UNDEFINED> instruction: 0xfaac0913
100020c6:	4835      	ldr	r0, [pc, #212]	; (1000219c <flushblock+0x2a>)
100020c8:	2120      	movs	r1, #32
100020ca:	6804      	ldr	r4, [r0, #0]
100020cc:	0924      	lsrs	r4, r4, #4
100020ce:	429c      	cmp	r4, r3
100020d0:	d026      	beq.n	10002120 <hflashstoreemulation_gefunden>
100020d2:	3014      	adds	r0, #20
100020d4:	3901      	subs	r1, #1
100020d6:	d1f8      	bne.n	100020ca <Code_242+0x60>
100020d8:	4830      	ldr	r0, [pc, #192]	; (1000219c <flushblock+0x2a>)
100020da:	2120      	movs	r1, #32
100020dc:	6804      	ldr	r4, [r0, #0]
100020de:	2c00      	cmp	r4, #0
100020e0:	d017      	beq.n	10002112 <hflashstoreemulation_leerestelle>
100020e2:	3014      	adds	r0, #20
100020e4:	3901      	subs	r1, #1
100020e6:	d1f9      	bne.n	100020dc <Code_242+0x72>
100020e8:	f000 fbea 	bl	100028c0 <dotgaensefuesschen>
100020ec:	6f6f5421 	svcvs	0x006f5421
100020f0:	6e616d20 	cdpvs	13, 6, cr6, cr1, cr0, {1}
100020f4:	63732079 	cmnvs	r3, #121	; 0x79
100020f8:	65747461 	ldrbvs	r7, [r4, #-1121]!	; 0x461
100020fc:	20646572 	rsbcs	r6, r4, r2, ror r5
10002100:	73616c46 	cmnvc	r1, #17920	; 0x4600
10002104:	72772068 	rsbsvc	r2, r7, #104	; 0x68
10002108:	73657469 	cmnvc	r5, #1761607680	; 0x69000000
1000210c:	f0020a2e 			; <UNDEFINED> instruction: 0xf0020a2e
10002110:	fa85 011b 			; <UNDEFINED> instruction: 0xfa85011b

10002112 <hflashstoreemulation_leerestelle>:
10002112:	011b      	lsls	r3, r3, #4
10002114:	6003      	str	r3, [r0, #0]
10002116:	3901      	subs	r1, #1
10002118:	6041      	str	r1, [r0, #4]
1000211a:	6081      	str	r1, [r0, #8]
1000211c:	60c1      	str	r1, [r0, #12]
1000211e:	6101      	str	r1, [r0, #16]

10002120 <hflashstoreemulation_gefunden>:
10002120:	210f      	movs	r1, #15
10002122:	4011      	ands	r1, r2
10002124:	3104      	adds	r1, #4
10002126:	5246      	strh	r6, [r0, r1]
10002128:	cf40      	ldmia	r7!, {r6}
1000212a:	6801      	ldr	r1, [r0, #0]
1000212c:	3101      	adds	r1, #1
1000212e:	6001      	str	r1, [r0, #0]
10002130:	220f      	movs	r2, #15
10002132:	4011      	ands	r1, r2
10002134:	2908      	cmp	r1, #8
10002136:	d103      	bne.n	10002140 <hflashstoreemulation_fertig>
10002138:	f000 f81b 	bl	10002172 <flushblock>
1000213c:	f7ff fecc 	bl	10001ed8 <Code_226>

10002140 <hflashstoreemulation_fertig>:
10002140:	bd30      	pop	{r4, r5, pc}
10002142:	46c0      	nop			; (mov r8, r8)

10002144 <Dictionary_248>:
10002144:	100021a8 	andne	r2, r0, r8, lsr #3
10002148:	660a0000 	strvs	r0, [sl], -r0
1000214c:	6873756c 	ldmdavs	r3!, {r2, r3, r5, r6, r8, sl, ip, sp, lr}^
10002150:	73616c66 	cmnvc	r1, #26112	; 0x6600
10002154:	b5000068 	strlt	r0, [r0, #-104]	; 0x68

10002156 <Code_248>:
10002156:	b500      	push	{lr}
10002158:	4810      	ldr	r0, [pc, #64]	; (1000219c <flushblock+0x2a>)
1000215a:	2120      	movs	r1, #32
1000215c:	6802      	ldr	r2, [r0, #0]
1000215e:	2a00      	cmp	r2, #0
10002160:	d003      	beq.n	1000216a <Code_248+0x14>
10002162:	f000 f806 	bl	10002172 <flushblock>
10002166:	f7ff feb7 	bl	10001ed8 <Code_226>
1000216a:	3014      	adds	r0, #20
1000216c:	3901      	subs	r1, #1
1000216e:	d1f5      	bne.n	1000215c <Code_248+0x6>
10002170:	bd00      	pop	{pc}

10002172 <flushblock>:
10002172:	3f04      	subs	r7, #4
10002174:	603e      	str	r6, [r7, #0]
10002176:	6846      	ldr	r6, [r0, #4]
10002178:	3f04      	subs	r7, #4
1000217a:	603e      	str	r6, [r7, #0]
1000217c:	6886      	ldr	r6, [r0, #8]
1000217e:	3f04      	subs	r7, #4
10002180:	603e      	str	r6, [r7, #0]
10002182:	68c6      	ldr	r6, [r0, #12]
10002184:	3f04      	subs	r7, #4
10002186:	603e      	str	r6, [r7, #0]
10002188:	6906      	ldr	r6, [r0, #16]
1000218a:	3f04      	subs	r7, #4
1000218c:	603e      	str	r6, [r7, #0]
1000218e:	260f      	movs	r6, #15
10002190:	43f6      	mvns	r6, r6
10002192:	6802      	ldr	r2, [r0, #0]
10002194:	4016      	ands	r6, r2
10002196:	2200      	movs	r2, #0
10002198:	6002      	str	r2, [r0, #0]
1000219a:	4770      	bx	lr
1000219c:	20000524 	andcs	r0, r0, r4, lsr #10
100021a0:	00000280 	andeq	r0, r0, r0, lsl #5
100021a4:	10005000 	andne	r5, r0, r0

100021a8 <Dictionary_254>:
100021a8:	100021bc 			; <UNDEFINED> instruction: 0x100021bc
100021ac:	2b010069 	blcs	10042358 <FlashDictionaryEnde+0x31358>

100021b0 <Code_254>:
100021b0:	cf01      	ldmia	r7!, {r0}
100021b2:	1836      	adds	r6, r6, r0
100021b4:	4770      	bx	lr
100021b6:	1836      	adds	r6, r6, r0
100021b8:	3600      	adds	r6, #0
100021ba:	46c0      	nop			; (mov r8, r8)

100021bc <Dictionary_255>:
100021bc:	100021d0 	ldrdne	r2, [r0], -r0
100021c0:	2d010069 	stccs	0, cr0, [r1, #-420]	; 0xfffffe5c

100021c4 <Code_255>:
100021c4:	cf01      	ldmia	r7!, {r0}
100021c6:	1b86      	subs	r6, r0, r6
100021c8:	4770      	bx	lr
100021ca:	1a36      	subs	r6, r6, r0
100021cc:	3e00      	subs	r6, #0
100021ce:	46c0      	nop			; (mov r8, r8)

100021d0 <Dictionary_256>:
100021d0:	100021e0 	andne	r2, r0, r0, ror #3
100021d4:	31020061 	tstcc	r2, r1, rrx
100021d8:	3e01002d 	cdpcc	0, 0, cr0, cr1, cr13, {1}

100021da <Code_256>:
100021da:	3e01      	subs	r6, #1
100021dc:	4770      	bx	lr
100021de:	46c0      	nop			; (mov r8, r8)

100021e0 <Dictionary_257>:
100021e0:	100021f0 	strdne	r2, [r0], -r0
100021e4:	31020061 	tstcc	r2, r1, rrx
100021e8:	3601002b 	strcc	r0, [r1], -fp, lsr #32

100021ea <Code_257>:
100021ea:	3601      	adds	r6, #1
100021ec:	4770      	bx	lr
100021ee:	46c0      	nop			; (mov r8, r8)

100021f0 <Dictionary_258>:
100021f0:	10002200 	andne	r2, r0, r0, lsl #4
100021f4:	32020061 	andcc	r0, r2, #97	; 0x61
100021f8:	3e02002d 	cdpcc	0, 0, cr0, cr2, cr13, {1}

100021fa <Code_258>:
100021fa:	3e02      	subs	r6, #2
100021fc:	4770      	bx	lr
100021fe:	46c0      	nop			; (mov r8, r8)

10002200 <Dictionary_259>:
10002200:	10002210 	andne	r2, r0, r0, lsl r2
10002204:	32020061 	andcc	r0, r2, #97	; 0x61
10002208:	3602002b 	strcc	r0, [r2], -fp, lsr #32

1000220a <Code_259>:
1000220a:	3602      	adds	r6, #2
1000220c:	4770      	bx	lr
1000220e:	46c0      	nop			; (mov r8, r8)

10002210 <Dictionary_260>:
10002210:	10002224 	andne	r2, r0, r4, lsr #4
10002214:	6e060061 	cdpvs	0, 0, cr0, cr6, cr1, {3}
10002218:	74616765 	strbtvc	r6, [r1], #-1893	; 0x765
1000221c:	42760065 	rsbsmi	r0, r6, #101	; 0x65

1000221e <Code_260>:
1000221e:	4276      	negs	r6, r6
10002220:	4770      	bx	lr
10002222:	46c0      	nop			; (mov r8, r8)

10002224 <Dictionary_261>:
10002224:	10002238 	andne	r2, r0, r8, lsr r2
10002228:	61030061 	tstvs	r3, r1, rrx
1000222c:	17f07362 	ldrbne	r7, [r0, r2, ror #6]!

1000222e <Code_261>:
1000222e:	17f0      	asrs	r0, r6, #31
10002230:	1836      	adds	r6, r6, r0
10002232:	4046      	eors	r6, r0
10002234:	4770      	bx	lr
10002236:	46c0      	nop			; (mov r8, r8)

10002238 <Dictionary_262>:
10002238:	10002280 	andne	r2, r0, r0, lsl #5
1000223c:	75050042 	strvc	r0, [r5, #-66]	; 0x42
10002240:	646f6d2f 	strbtvs	r6, [pc], #-3375	; 10002248 <Code_262+0x4>

10002244 <Code_262>:
10002244:	0031      	movs	r1, r6
10002246:	cf40      	ldmia	r7!, {r6}
10002248:	2900      	cmp	r1, #0
1000224a:	d103      	bne.n	10002254 <Code_262+0x10>
1000224c:	3f04      	subs	r7, #4
1000224e:	603e      	str	r6, [r7, #0]
10002250:	2600      	movs	r6, #0
10002252:	4770      	bx	lr
10002254:	2201      	movs	r2, #1
10002256:	2300      	movs	r3, #0
10002258:	428e      	cmp	r6, r1
1000225a:	d906      	bls.n	1000226a <Code_262+0x26>
1000225c:	3100      	adds	r1, #0
1000225e:	d404      	bmi.n	1000226a <Code_262+0x26>
10002260:	0052      	lsls	r2, r2, #1
10002262:	0049      	lsls	r1, r1, #1
10002264:	d401      	bmi.n	1000226a <Code_262+0x26>
10002266:	428e      	cmp	r6, r1
10002268:	d8fa      	bhi.n	10002260 <Code_262+0x1c>
1000226a:	428e      	cmp	r6, r1
1000226c:	d301      	bcc.n	10002272 <Code_262+0x2e>
1000226e:	1a76      	subs	r6, r6, r1
10002270:	4313      	orrs	r3, r2
10002272:	0849      	lsrs	r1, r1, #1
10002274:	0852      	lsrs	r2, r2, #1
10002276:	d1f8      	bne.n	1000226a <Code_262+0x26>
10002278:	3f04      	subs	r7, #4
1000227a:	603e      	str	r6, [r7, #0]
1000227c:	001e      	movs	r6, r3
1000227e:	4770      	bx	lr

10002280 <Dictionary_268>:
10002280:	100022f0 	strdne	r2, [r0], -r0
10002284:	2f040042 	svccs	0x00040042
10002288:	00646f6d 	rsbeq	r6, r4, sp, ror #30

1000228c <Code_268>:
1000228c:	b500      	push	{lr}
1000228e:	0030      	movs	r0, r6
10002290:	cf40      	ldmia	r7!, {r6}
10002292:	2e00      	cmp	r6, #0
10002294:	da1c      	bge.n	100022d0 <divmod_plus>
10002296:	4276      	negs	r6, r6

10002298 <divmod_minus>:
10002298:	2800      	cmp	r0, #0
1000229a:	da0c      	bge.n	100022b6 <divmod_minus_plus>

1000229c <divmod_minus_minus>:
1000229c:	4240      	negs	r0, r0
1000229e:	3f04      	subs	r7, #4
100022a0:	603e      	str	r6, [r7, #0]
100022a2:	0006      	movs	r6, r0
100022a4:	f7ff ffce 	bl	10002244 <Code_262>
100022a8:	0030      	movs	r0, r6
100022aa:	cf40      	ldmia	r7!, {r6}
100022ac:	4276      	negs	r6, r6
100022ae:	3f04      	subs	r7, #4
100022b0:	603e      	str	r6, [r7, #0]
100022b2:	0006      	movs	r6, r0
100022b4:	bd00      	pop	{pc}

100022b6 <divmod_minus_plus>:
100022b6:	3f04      	subs	r7, #4
100022b8:	603e      	str	r6, [r7, #0]
100022ba:	0006      	movs	r6, r0
100022bc:	f7ff ffc2 	bl	10002244 <Code_262>
100022c0:	0030      	movs	r0, r6
100022c2:	cf40      	ldmia	r7!, {r6}
100022c4:	4240      	negs	r0, r0
100022c6:	4276      	negs	r6, r6
100022c8:	3f04      	subs	r7, #4
100022ca:	603e      	str	r6, [r7, #0]
100022cc:	0006      	movs	r6, r0
100022ce:	bd00      	pop	{pc}

100022d0 <divmod_plus>:
100022d0:	2800      	cmp	r0, #0
100022d2:	da07      	bge.n	100022e4 <divmod_plus_plus>

100022d4 <divmod_plus_minus>:
100022d4:	4240      	negs	r0, r0
100022d6:	3f04      	subs	r7, #4
100022d8:	603e      	str	r6, [r7, #0]
100022da:	0006      	movs	r6, r0
100022dc:	f7ff ffb2 	bl	10002244 <Code_262>
100022e0:	4276      	negs	r6, r6
100022e2:	bd00      	pop	{pc}

100022e4 <divmod_plus_plus>:
100022e4:	3f04      	subs	r7, #4
100022e6:	603e      	str	r6, [r7, #0]
100022e8:	0006      	movs	r6, r0
100022ea:	f7ff ffab 	bl	10002244 <Code_262>
100022ee:	bd00      	pop	{pc}

100022f0 <Dictionary_284>:
100022f0:	10002304 	andne	r2, r0, r4, lsl #6
100022f4:	6d030042 	stcvs	0, cr0, [r3, #-264]	; 0xfffffef8
100022f8:	b500646f 	strlt	r6, [r0, #-1135]	; 0x46f

100022fa <Code_284>:
100022fa:	b500      	push	{lr}
100022fc:	f7ff ffc6 	bl	1000228c <Code_268>
10002300:	cf40      	ldmia	r7!, {r6}
10002302:	bd00      	pop	{pc}

10002304 <Dictionary_286>:
10002304:	10002318 	andne	r2, r0, r8, lsl r3
10002308:	2f010042 	svccs	0x00010042

1000230c <Code_286>:
1000230c:	b500      	push	{lr}
1000230e:	f7ff ffbd 	bl	1000228c <Code_268>
10002312:	3704      	adds	r7, #4
10002314:	bd00      	pop	{pc}
10002316:	46c0      	nop			; (mov r8, r8)

10002318 <Dictionary_287>:
10002318:	10002328 	andne	r2, r0, r8, lsr #6
1000231c:	2a01006a 	bcs	100424cc <FlashDictionaryEnde+0x314cc>

10002320 <Code_287>:
10002320:	cf01      	ldmia	r7!, {r0}
10002322:	4346      	muls	r6, r0
10002324:	4770      	bx	lr
10002326:	4346      	muls	r6, r0

10002328 <Dictionary_288>:
10002328:	10002338 	andne	r2, r0, r8, lsr r3
1000232c:	32020061 	andcc	r0, r2, #97	; 0x61
10002330:	0076002a 	rsbseq	r0, r6, sl, lsr #32

10002332 <Code_288>:
10002332:	0076      	lsls	r6, r6, #1
10002334:	4770      	bx	lr
10002336:	46c0      	nop			; (mov r8, r8)

10002338 <Dictionary_289>:
10002338:	10002348 	andne	r2, r0, r8, asr #6
1000233c:	32020061 	andcc	r0, r2, #97	; 0x61
10002340:	1076002f 	rsbsne	r0, r6, pc, lsr #32

10002342 <Code_289>:
10002342:	1076      	asrs	r6, r6, #1
10002344:	4770      	bx	lr
10002346:	46c0      	nop			; (mov r8, r8)

10002348 <Dictionary_290>:
10002348:	1000235c 	andne	r2, r0, ip, asr r3
1000234c:	65040061 	strvs	r0, [r4, #-97]	; 0x61
10002350:	006e6576 	rsbeq	r6, lr, r6, ror r5

10002354 <Code_290>:
10002354:	2001      	movs	r0, #1
10002356:	4030      	ands	r0, r6
10002358:	1836      	adds	r6, r6, r0
1000235a:	4770      	bx	lr

1000235c <Dictionary_291>:
1000235c:	10002374 	andne	r2, r0, r4, ror r3
10002360:	62040081 	andvs	r0, r4, #129	; 0x81
10002364:	00657361 	rsbeq	r7, r5, r1, ror #6

10002368 <Code_291>:
10002368:	3f04      	subs	r7, #4
1000236a:	603e      	str	r6, [r7, #0]
1000236c:	4e91      	ldr	r6, [pc, #580]	; (100025b4 <Code_326+0x1a>)
1000236e:	4770      	bx	lr
10002370:	0000000a 	andeq	r0, r0, sl

10002374 <Dictionary_294>:
10002374:	1000238c 	andne	r2, r0, ip, lsl #7
10002378:	62060000 	andvs	r0, r6, #0
1000237c:	72616e69 	rsbvc	r6, r1, #1680	; 0x690
10002380:	488c0079 	stmmi	ip, {r0, r3, r4, r5, r6}

10002382 <Code_294>:
10002382:	488c      	ldr	r0, [pc, #560]	; (100025b4 <Code_326+0x1a>)
10002384:	2102      	movs	r1, #2
10002386:	6001      	str	r1, [r0, #0]
10002388:	4770      	bx	lr
1000238a:	46c0      	nop			; (mov r8, r8)

1000238c <Dictionary_295>:
1000238c:	100023a4 	andne	r2, r0, r4, lsr #7
10002390:	64070000 	strvs	r0, [r7]
10002394:	6d696365 	stclvs	3, cr6, [r9, #-404]!	; 0xfffffe6c
10002398:	48866c61 	stmmi	r6, {r0, r5, r6, sl, fp, sp, lr}

1000239a <Code_295>:
1000239a:	4886      	ldr	r0, [pc, #536]	; (100025b4 <Code_326+0x1a>)
1000239c:	210a      	movs	r1, #10
1000239e:	6001      	str	r1, [r0, #0]
100023a0:	4770      	bx	lr
100023a2:	46c0      	nop			; (mov r8, r8)

100023a4 <Dictionary_296>:
100023a4:	10002408 	andne	r2, r0, r8, lsl #8
100023a8:	68030000 	stmdavs	r3, {}	; <UNPREDICTABLE>
100023ac:	48817865 	stmmi	r1, {r0, r2, r5, r6, fp, ip, sp, lr}

100023ae <Code_296>:
100023ae:	4881      	ldr	r0, [pc, #516]	; (100025b4 <Code_326+0x1a>)
100023b0:	2110      	movs	r1, #16
100023b2:	6001      	str	r1, [r0, #0]
100023b4:	4770      	bx	lr

100023b6 <uart_init>:
100023b6:	4880      	ldr	r0, [pc, #512]	; (100025b8 <Code_326+0x1e>)
100023b8:	2100      	movs	r1, #0
100023ba:	6001      	str	r1, [r0, #0]
100023bc:	487f      	ldr	r0, [pc, #508]	; (100025bc <Code_326+0x22>)
100023be:	2103      	movs	r1, #3
100023c0:	6001      	str	r1, [r0, #0]
100023c2:	487f      	ldr	r0, [pc, #508]	; (100025c0 <Code_326+0x26>)
100023c4:	497f      	ldr	r1, [pc, #508]	; (100025c4 <Code_326+0x2a>)
100023c6:	6001      	str	r1, [r0, #0]
100023c8:	487f      	ldr	r0, [pc, #508]	; (100025c8 <Code_326+0x2e>)
100023ca:	4980      	ldr	r1, [pc, #512]	; (100025cc <Code_326+0x32>)
100023cc:	6001      	str	r1, [r0, #0]
100023ce:	4880      	ldr	r0, [pc, #512]	; (100025d0 <Code_326+0x36>)
100023d0:	4980      	ldr	r1, [pc, #512]	; (100025d4 <Code_326+0x3a>)
100023d2:	6001      	str	r1, [r0, #0]
100023d4:	4880      	ldr	r0, [pc, #512]	; (100025d8 <Code_326+0x3e>)
100023d6:	4981      	ldr	r1, [pc, #516]	; (100025dc <Code_326+0x42>)
100023d8:	6001      	str	r1, [r0, #0]
100023da:	4881      	ldr	r0, [pc, #516]	; (100025e0 <Code_326+0x46>)
100023dc:	4981      	ldr	r1, [pc, #516]	; (100025e4 <Code_326+0x4a>)
100023de:	6001      	str	r1, [r0, #0]
100023e0:	4881      	ldr	r0, [pc, #516]	; (100025e8 <Code_326+0x4e>)
100023e2:	2100      	movs	r1, #0
100023e4:	6001      	str	r1, [r0, #0]
100023e6:	4881      	ldr	r0, [pc, #516]	; (100025ec <Code_326+0x52>)
100023e8:	2106      	movs	r1, #6
100023ea:	6001      	str	r1, [r0, #0]
100023ec:	4880      	ldr	r0, [pc, #512]	; (100025f0 <Code_326+0x56>)
100023ee:	4981      	ldr	r1, [pc, #516]	; (100025f4 <Code_326+0x5a>)
100023f0:	6001      	str	r1, [r0, #0]
100023f2:	4881      	ldr	r0, [pc, #516]	; (100025f8 <Code_326+0x5e>)
100023f4:	4981      	ldr	r1, [pc, #516]	; (100025fc <Code_326+0x62>)
100023f6:	6001      	str	r1, [r0, #0]
100023f8:	4881      	ldr	r0, [pc, #516]	; (10002600 <Code_326+0x66>)
100023fa:	4982      	ldr	r1, [pc, #520]	; (10002604 <Code_326+0x6a>)
100023fc:	6001      	str	r1, [r0, #0]
100023fe:	4882      	ldr	r0, [pc, #520]	; (10002608 <Code_326+0x6e>)
10002400:	2102      	movs	r1, #2
10002402:	6001      	str	r1, [r0, #0]
10002404:	4770      	bx	lr
10002406:	46c0      	nop			; (mov r8, r8)

10002408 <Dictionary_297>:
10002408:	10002424 	andne	r2, r0, r4, lsr #8
1000240c:	68090081 	stmdavs	r9, {r0, r7}
10002410:	2d6b6f6f 	stclcs	15, cr6, [fp, #-444]!	; 0xfffffe44
10002414:	74696d65 	strbtvc	r6, [r9], #-3429	; 0xd65

10002418 <Code_297>:
10002418:	3f04      	subs	r7, #4
1000241a:	603e      	str	r6, [r7, #0]
1000241c:	4e7b      	ldr	r6, [pc, #492]	; (1000260c <Code_326+0x72>)
1000241e:	4770      	bx	lr
10002420:	1000251a 	andne	r2, r0, sl, lsl r5

10002424 <Dictionary_300>:
10002424:	10002440 	andne	r2, r0, r0, asr #8
10002428:	68080081 	stmdavs	r8, {r0, r7}
1000242c:	2d6b6f6f 	stclcs	15, cr6, [fp, #-444]!	; 0xfffffe44
10002430:	0079656b 	rsbseq	r6, r9, fp, ror #10

10002434 <Code_300>:
10002434:	3f04      	subs	r7, #4
10002436:	603e      	str	r6, [r7, #0]
10002438:	4e75      	ldr	r6, [pc, #468]	; (10002610 <Code_326+0x76>)
1000243a:	4770      	bx	lr
1000243c:	10002542 	andne	r2, r0, r2, asr #10

10002440 <Dictionary_303>:
10002440:	10002460 	andne	r2, r0, r0, ror #8
10002444:	680a0081 	stmdavs	sl, {r0, r7}
10002448:	2d6b6f6f 	stclcs	15, cr6, [fp, #-444]!	; 0xfffffe44
1000244c:	74696d65 	strbtvc	r6, [r9], #-3429	; 0xd65
10002450:	3f04003f 	svccc	0x0004003f

10002452 <Code_303>:
10002452:	3f04      	subs	r7, #4
10002454:	603e      	str	r6, [r7, #0]
10002456:	4e6f      	ldr	r6, [pc, #444]	; (10002614 <Code_326+0x7a>)
10002458:	4770      	bx	lr
1000245a:	1000256c 	andne	r2, r0, ip, ror #10
1000245e:	247c46c0 	ldrbtcs	r4, [ip], #-1728	; 0x6c0

10002460 <Dictionary_306>:
10002460:	1000247c 	andne	r2, r0, ip, ror r4
10002464:	68090081 	stmdavs	r9, {r0, r7}
10002468:	2d6b6f6f 	stclcs	15, cr6, [fp, #-444]!	; 0xfffffe44
1000246c:	3f79656b 	svccc	0x0079656b

10002470 <Code_306>:
10002470:	3f04      	subs	r7, #4
10002472:	603e      	str	r6, [r7, #0]
10002474:	4e68      	ldr	r6, [pc, #416]	; (10002618 <Code_326+0x7e>)
10002476:	4770      	bx	lr
10002478:	1000259a 	mulne	r0, sl, r5

1000247c <Dictionary_309>:
1000247c:	1000249c 	mulne	r0, ip, r4
10002480:	680a0081 	stmdavs	sl, {r0, r7}
10002484:	2d6b6f6f 	stclcs	15, cr6, [fp, #-444]!	; 0xfffffe44
10002488:	73756170 	cmnvc	r5, #28
1000248c:	3f040065 	svccc	0x00040065

1000248e <Code_309>:
1000248e:	3f04      	subs	r7, #4
10002490:	603e      	str	r6, [r7, #0]
10002492:	4e62      	ldr	r6, [pc, #392]	; (1000261c <Code_326+0x82>)
10002494:	4770      	bx	lr
10002496:	100046ea 	andne	r4, r0, sl, ror #13
1000249a:	46c0      	nop			; (mov r8, r8)

1000249c <Dictionary_312>:
1000249c:	100024b4 			; <UNDEFINED> instruction: 0x100024b4
100024a0:	65040000 	strvs	r0, [r4]
100024a4:	0074696d 	rsbseq	r6, r4, sp, ror #18

100024a8 <Code_312>:
100024a8:	b50f      	push	{r0, r1, r2, r3, lr}
100024aa:	4858      	ldr	r0, [pc, #352]	; (1000260c <Code_326+0x72>)
100024ac:	f000 f829 	bl	10002502 <hook_intern>
100024b0:	bd0f      	pop	{r0, r1, r2, r3, pc}
100024b2:	46c0      	nop			; (mov r8, r8)

100024b4 <Dictionary_313>:
100024b4:	100024c8 	andne	r2, r0, r8, asr #9
100024b8:	6b030000 	blvs	100c24c0 <FlashDictionaryEnde+0xb14c0>
100024bc:	b50f7965 	strlt	r7, [pc, #-2405]	; 10001b5f <Dictionary_187+0x7>

100024be <Code_313>:
100024be:	b50f      	push	{r0, r1, r2, r3, lr}
100024c0:	4853      	ldr	r0, [pc, #332]	; (10002610 <Code_326+0x76>)
100024c2:	f000 f81e 	bl	10002502 <hook_intern>
100024c6:	bd0f      	pop	{r0, r1, r2, r3, pc}

100024c8 <Dictionary_314>:
100024c8:	100024dc 	ldrdne	r2, [r0], -ip
100024cc:	65050000 	strvs	r0, [r5]
100024d0:	3f74696d 	svccc	0x0074696d

100024d4 <Code_314>:
100024d4:	484f      	ldr	r0, [pc, #316]	; (10002614 <Code_326+0x7a>)
100024d6:	6800      	ldr	r0, [r0, #0]
100024d8:	4687      	mov	pc, r0
100024da:	46c0      	nop			; (mov r8, r8)

100024dc <Dictionary_315>:
100024dc:	100024f0 	strdne	r2, [r0], -r0
100024e0:	6b040000 	blvs	101024e8 <FlashDictionaryEnde+0xf14e8>
100024e4:	003f7965 	eorseq	r7, pc, r5, ror #18

100024e8 <Code_315>:
100024e8:	484b      	ldr	r0, [pc, #300]	; (10002618 <Code_326+0x7e>)
100024ea:	6800      	ldr	r0, [r0, #0]
100024ec:	4687      	mov	pc, r0
100024ee:	46c0      	nop			; (mov r8, r8)

100024f0 <Dictionary_316>:
100024f0:	10002508 	andne	r2, r0, r8, lsl #10
100024f4:	70050000 	andvc	r0, r5, r0
100024f8:	65737561 	ldrbvs	r7, [r3, #-1377]!	; 0x561

100024fc <Code_316>:
100024fc:	4847      	ldr	r0, [pc, #284]	; (1000261c <Code_326+0x82>)
100024fe:	6800      	ldr	r0, [r0, #0]
10002500:	4687      	mov	pc, r0

10002502 <hook_intern>:
10002502:	6800      	ldr	r0, [r0, #0]
10002504:	4687      	mov	pc, r0
10002506:	46c0      	nop			; (mov r8, r8)

10002508 <Dictionary_317>:
10002508:	10002530 	andne	r2, r0, r0, lsr r5
1000250c:	730b0000 	movwvc	r0, #45056	; 0xb000
10002510:	61697265 	cmnvs	r9, r5, ror #4
10002514:	6d652d6c 	stclvs	13, cr2, [r5, #-432]!	; 0xfffffe50
10002518:	b5007469 	strlt	r7, [r0, #-1129]	; 0x469

1000251a <Code_317>:
1000251a:	b500      	push	{lr}
1000251c:	f000 f826 	bl	1000256c <Code_323>
10002520:	2e00      	cmp	r6, #0
10002522:	cf40      	ldmia	r7!, {r6}
10002524:	d0fa      	beq.n	1000251c <Code_317+0x2>
10002526:	483e      	ldr	r0, [pc, #248]	; (10002620 <Code_326+0x86>)
10002528:	7006      	strb	r6, [r0, #0]
1000252a:	cf40      	ldmia	r7!, {r6}
1000252c:	bd00      	pop	{pc}
1000252e:	46c0      	nop			; (mov r8, r8)

10002530 <Dictionary_320>:
10002530:	10002558 	andne	r2, r0, r8, asr r5
10002534:	730a0000 	movwvc	r0, #40960	; 0xa000
10002538:	61697265 	cmnvs	r9, r5, ror #4
1000253c:	656b2d6c 	strbvs	r2, [fp, #-3436]!	; 0xd6c
10002540:	b5000079 	strlt	r0, [r0, #-121]	; 0x79

10002542 <Code_320>:
10002542:	b500      	push	{lr}
10002544:	f000 f829 	bl	1000259a <Code_326>
10002548:	2e00      	cmp	r6, #0
1000254a:	cf40      	ldmia	r7!, {r6}
1000254c:	d0fa      	beq.n	10002544 <Code_320+0x2>
1000254e:	3f04      	subs	r7, #4
10002550:	603e      	str	r6, [r7, #0]
10002552:	4e34      	ldr	r6, [pc, #208]	; (10002624 <Code_326+0x8a>)
10002554:	7836      	ldrb	r6, [r6, #0]
10002556:	bd00      	pop	{pc}

10002558 <Dictionary_323>:
10002558:	10002588 	andne	r2, r0, r8, lsl #11
1000255c:	730c0000 	movwvc	r0, #49152	; 0xc000
10002560:	61697265 	cmnvs	r9, r5, ror #4
10002564:	6d652d6c 	stclvs	13, cr2, [r5, #-432]!	; 0xfffffe50
10002568:	003f7469 	eorseq	r7, pc, r9, ror #8

1000256c <Code_323>:
1000256c:	b500      	push	{lr}
1000256e:	f7ff ffc5 	bl	100024fc <Code_316>
10002572:	3f04      	subs	r7, #4
10002574:	603e      	str	r6, [r7, #0]
10002576:	2600      	movs	r6, #0
10002578:	482b      	ldr	r0, [pc, #172]	; (10002628 <Code_326+0x8e>)
1000257a:	4a2c      	ldr	r2, [pc, #176]	; (1000262c <Code_326+0x92>)
1000257c:	6801      	ldr	r1, [r0, #0]
1000257e:	4011      	ands	r1, r2
10002580:	d100      	bne.n	10002584 <Code_323+0x18>
10002582:	43f6      	mvns	r6, r6
10002584:	bd00      	pop	{pc}
10002586:	46c0      	nop			; (mov r8, r8)

10002588 <Dictionary_326>:
10002588:	10002634 	andne	r2, r0, r4, lsr r6
1000258c:	730b0000 	movwvc	r0, #45056	; 0xb000
10002590:	61697265 	cmnvs	r9, r5, ror #4
10002594:	656b2d6c 	strbvs	r2, [fp, #-3436]!	; 0xd6c
10002598:	b5003f79 	strlt	r3, [r0, #-3961]	; 0xf79

1000259a <Code_326>:
1000259a:	b500      	push	{lr}
1000259c:	f7ff ffae 	bl	100024fc <Code_316>
100025a0:	3f04      	subs	r7, #4
100025a2:	603e      	str	r6, [r7, #0]
100025a4:	2600      	movs	r6, #0
100025a6:	4822      	ldr	r0, [pc, #136]	; (10002630 <Code_326+0x96>)
100025a8:	2208      	movs	r2, #8
100025aa:	6801      	ldr	r1, [r0, #0]
100025ac:	4011      	ands	r1, r2
100025ae:	d100      	bne.n	100025b2 <Code_326+0x18>
100025b0:	43f6      	mvns	r6, r6
100025b2:	bd00      	pop	{pc}
100025b4:	20003ffc 	strdcs	r3, [r0], -ip
100025b8:	40040260 	andmi	r0, r4, r0, ror #4
100025bc:	4800000c 	stmdami	r0, {r2, r3}
100025c0:	48000010 	stmdami	r0, {r4}
100025c4:	0000823f 	andeq	r8, r0, pc, lsr r2
100025c8:	48000014 	stmdami	r0, {r2, r4}
100025cc:	00032400 	andeq	r2, r3, r0, lsl #8
100025d0:	48000034 	stmdami	r0, {r2, r4, r5}
100025d4:	07070102 	streq	r0, [r7, -r2, lsl #2]
100025d8:	48000038 	stmdami	r0, {r3, r4, r5}
100025dc:	00000500 	andeq	r0, r0, r0, lsl #10
100025e0:	4800003c 	stmdami	r0, {r2, r3, r4, r5}
100025e4:	00020901 	andeq	r0, r2, r1, lsl #18
100025e8:	48000028 	stmdami	r0, {r3, r5}
100025ec:	4800001c 	stmdami	r0, {r2, r3, r4}
100025f0:	4800010c 	stmdami	r0, {r2, r3, r8}
100025f4:	05000020 	streq	r0, [r0, #-32]
100025f8:	48000108 	stmdami	r0, {r3, r8}
100025fc:	05000000 	streq	r0, [r0]
10002600:	40040210 	andmi	r0, r4, r0, lsl r2
10002604:	0000b000 	andeq	fp, r0, r0
10002608:	48000040 	stmdami	r0, {r6}
1000260c:	20003ff8 	strdcs	r3, [r0], -r8
10002610:	20003ff4 	strdcs	r3, [r0], -r4
10002614:	20003ff0 	strdcs	r3, [r0], -r0
10002618:	20003fec 	andcs	r3, r0, ip, ror #31
1000261c:	20003fe8 	andcs	r3, r0, r8, ror #31
10002620:	48000180 	stmdami	r0, {r7, r8}
10002624:	4800011c 	stmdami	r0, {r2, r3, r4, r8}
10002628:	48000048 	stmdami	r0, {r3, r6}
1000262c:	00000200 	andeq	r0, r0, r0, lsl #4
10002630:	48000114 	stmdami	r0, {r2, r4, r8}

10002634 <Dictionary_329>:
10002634:	10002658 	andne	r2, r0, r8, asr r6
10002638:	63070000 	movwvs	r0, #28672	; 0x7000
1000263c:	65707865 	ldrbvs	r7, [r0, #-2149]!	; 0x865
10002640:	b5007463 	strlt	r7, [r0, #-1123]	; 0x463

10002642 <Code_329>:
10002642:	b500      	push	{lr}
10002644:	6838      	ldr	r0, [r7, #0]
10002646:	b401      	push	{r0}
10002648:	3001      	adds	r0, #1
1000264a:	6038      	str	r0, [r7, #0]
1000264c:	f000 f80b 	bl	10002666 <Code_331>
10002650:	bc01      	pop	{r0}
10002652:	7006      	strb	r6, [r0, #0]
10002654:	cf40      	ldmia	r7!, {r6}
10002656:	bd00      	pop	{pc}

10002658 <Dictionary_331>:
10002658:	100026d0 	ldrdne	r2, [r0], -r0
1000265c:	61060000 	mrsvs	r0, (UNDEF: 6)
10002660:	70656363 	rsbvc	r6, r5, r3, ror #6
10002664:	b5000074 	strlt	r0, [r0, #-116]	; 0x74

10002666 <Code_331>:
10002666:	b500      	push	{lr}
10002668:	cf02      	ldmia	r7!, {r1}
1000266a:	3901      	subs	r1, #1
1000266c:	2200      	movs	r2, #0
1000266e:	f7ff ff26 	bl	100024be <Code_313>
10002672:	0030      	movs	r0, r6
10002674:	cf40      	ldmia	r7!, {r6}
10002676:	287f      	cmp	r0, #127	; 0x7f
10002678:	d009      	beq.n	1000268e <Code_331+0x28>
1000267a:	2820      	cmp	r0, #32
1000267c:	d219      	bcs.n	100026b2 <Code_331+0x4c>
1000267e:	2809      	cmp	r0, #9
10002680:	d016      	beq.n	100026b0 <Code_331+0x4a>
10002682:	280a      	cmp	r0, #10
10002684:	d01f      	beq.n	100026c6 <Code_331+0x60>
10002686:	280d      	cmp	r0, #13
10002688:	d01d      	beq.n	100026c6 <Code_331+0x60>
1000268a:	2808      	cmp	r0, #8
1000268c:	d1ef      	bne.n	1000266e <Code_331+0x8>
1000268e:	2a00      	cmp	r2, #0
10002690:	d0ed      	beq.n	1000266e <Code_331+0x8>
10002692:	f000 f915 	bl	100028c0 <dotgaensefuesschen>
10002696:	08200803 	stmdaeq	r0!, {r0, r1, fp}
1000269a:	2a00      	cmp	r2, #0
1000269c:	d0e7      	beq.n	1000266e <Code_331+0x8>
1000269e:	5c88      	ldrb	r0, [r1, r2]
100026a0:	3a01      	subs	r2, #1
100026a2:	2380      	movs	r3, #128	; 0x80
100026a4:	4003      	ands	r3, r0
100026a6:	d0e2      	beq.n	1000266e <Code_331+0x8>
100026a8:	2340      	movs	r3, #64	; 0x40
100026aa:	4003      	ands	r3, r0
100026ac:	d0f5      	beq.n	1000269a <Code_331+0x34>
100026ae:	e7de      	b.n	1000266e <Code_331+0x8>
100026b0:	2020      	movs	r0, #32
100026b2:	42b2      	cmp	r2, r6
100026b4:	d2db      	bcs.n	1000266e <Code_331+0x8>
100026b6:	3f04      	subs	r7, #4
100026b8:	603e      	str	r6, [r7, #0]
100026ba:	0006      	movs	r6, r0
100026bc:	f7ff fef4 	bl	100024a8 <Code_312>
100026c0:	3201      	adds	r2, #1
100026c2:	5488      	strb	r0, [r1, r2]
100026c4:	e7d3      	b.n	1000266e <Code_331+0x8>
100026c6:	0016      	movs	r6, r2
100026c8:	f000 f8a8 	bl	1000281c <Code_362>
100026cc:	bd00      	pop	{pc}
100026ce:	46c0      	nop			; (mov r8, r8)

100026d0 <Dictionary_335>:
100026d0:	100026e4 	andne	r2, r0, r4, ror #13
100026d4:	74030040 	strvc	r0, [r3], #-64	; 0x40
100026d8:	3f046269 	svccc	0x00046269

100026da <Code_335>:
100026da:	3f04      	subs	r7, #4
100026dc:	603e      	str	r6, [r7, #0]
100026de:	4e2b      	ldr	r6, [pc, #172]	; (1000278c <Code_347+0x20>)
100026e0:	4770      	bx	lr
100026e2:	46c0      	nop			; (mov r8, r8)

100026e4 <Dictionary_337>:
100026e4:	100026fc 	strdne	r2, [r0], -ip
100026e8:	3e030081 	cdpcc	0, 0, cr0, cr3, cr1, {4}
100026ec:	3f046e69 	svccc	0x00046e69

100026ee <Code_337>:
100026ee:	3f04      	subs	r7, #4
100026f0:	603e      	str	r6, [r7, #0]
100026f2:	4e27      	ldr	r6, [pc, #156]	; (10002790 <Code_347+0x24>)
100026f4:	4770      	bx	lr
100026f6:	00000000 	andeq	r0, r0, r0
100026fa:	272446c0 	strcs	r4, [r4, -r0, asr #13]!

100026fc <Dictionary_340>:
100026fc:	10002724 	andne	r2, r0, r4, lsr #14
10002700:	630e0082 	movwvs	r0, #57474	; 0xe082
10002704:	65727275 	ldrbvs	r7, [r2, #-629]!	; 0x275
10002708:	732d746e 	teqvc	sp, #1845493760	; 0x6e000000
1000270c:	6372756f 	cmnvs	r2, #465567744	; 0x1bc00000
10002710:	3f040065 	svccc	0x00040065

10002712 <Code_340>:
10002712:	3f04      	subs	r7, #4
10002714:	603e      	str	r6, [r7, #0]
10002716:	4e1f      	ldr	r6, [pc, #124]	; (10002794 <Code_347+0x28>)
10002718:	4770      	bx	lr
1000271a:	00000000 	andeq	r0, r0, r0
1000271e:	2000015c 	andcs	r0, r0, ip, asr r1
10002722:	274046c0 	strbcs	r4, [r0, -r0, asr #13]

10002724 <Dictionary_343>:
10002724:	10002740 	andne	r2, r0, r0, asr #14
10002728:	73090000 	movwvc	r0, #36864	; 0x9000
1000272c:	6f737465 	svcvs	0x00737465
10002730:	65637275 	strbvs	r7, [r3, #-629]!	; 0x275

10002734 <Code_343>:
10002734:	4817      	ldr	r0, [pc, #92]	; (10002794 <Code_347+0x28>)
10002736:	cf02      	ldmia	r7!, {r1}
10002738:	6006      	str	r6, [r0, #0]
1000273a:	6041      	str	r1, [r0, #4]
1000273c:	cf40      	ldmia	r7!, {r6}
1000273e:	4770      	bx	lr

10002740 <Dictionary_345>:
10002740:	10002760 	andne	r2, r0, r0, ror #14
10002744:	73060000 	movwvc	r0, #24576	; 0x6000
10002748:	6372756f 	cmnvs	r2, #465567744	; 0x1bc00000
1000274c:	3f040065 	svccc	0x00040065

1000274e <Code_345>:
1000274e:	3f04      	subs	r7, #4
10002750:	603e      	str	r6, [r7, #0]
10002752:	4e10      	ldr	r6, [pc, #64]	; (10002794 <Code_347+0x28>)
10002754:	3f04      	subs	r7, #4
10002756:	6870      	ldr	r0, [r6, #4]
10002758:	6038      	str	r0, [r7, #0]
1000275a:	6836      	ldr	r6, [r6, #0]
1000275c:	4770      	bx	lr
1000275e:	46c0      	nop			; (mov r8, r8)

10002760 <Dictionary_347>:
10002760:	10002798 	mulne	r0, r8, r7
10002764:	71050000 	mrsvc	r0, (UNDEF: 5)
10002768:	79726575 	ldmdbvc	r2!, {r0, r2, r4, r5, r6, r8, sl, sp, lr}^

1000276c <Code_347>:
1000276c:	b50f      	push	{r0, r1, r2, r3, lr}
1000276e:	4808      	ldr	r0, [pc, #32]	; (10002790 <Code_347+0x24>)
10002770:	2100      	movs	r1, #0
10002772:	6001      	str	r1, [r0, #0]
10002774:	f7ff ffb1 	bl	100026da <Code_335>
10002778:	3f04      	subs	r7, #4
1000277a:	603e      	str	r6, [r7, #0]
1000277c:	3f04      	subs	r7, #4
1000277e:	603e      	str	r6, [r7, #0]
10002780:	26c8      	movs	r6, #200	; 0xc8
10002782:	f7ff ff70 	bl	10002666 <Code_331>
10002786:	f7ff ffd5 	bl	10002734 <Code_343>
1000278a:	bd0f      	pop	{r0, r1, r2, r3, pc}
1000278c:	2000015c 	andcs	r0, r0, ip, asr r1
10002790:	20003fe4 	andcs	r3, r0, r4, ror #31
10002794:	20003fdc 	ldrdcs	r3, [r0], -ip

10002798 <Dictionary_352>:
10002798:	100027e8 	andne	r2, r0, r8, ror #15
1000279c:	63070000 	movwvs	r0, #28672	; 0x7000
100027a0:	61706d6f 	cmnvs	r0, pc, ror #26
100027a4:	b50f6572 	strlt	r6, [pc, #-1394]	; 1000223a <Dictionary_262+0x2>

100027a6 <Code_352>:
100027a6:	b50f      	push	{r0, r1, r2, r3, lr}
100027a8:	0031      	movs	r1, r6
100027aa:	cf40      	ldmia	r7!, {r6}
100027ac:	cf01      	ldmia	r7!, {r0}
100027ae:	4288      	cmp	r0, r1
100027b0:	d002      	beq.n	100027b8 <Code_352+0x12>
100027b2:	cf40      	ldmia	r7!, {r6}
100027b4:	2600      	movs	r6, #0
100027b6:	bd0f      	pop	{r0, r1, r2, r3, pc}
100027b8:	cf02      	ldmia	r7!, {r1}
100027ba:	2800      	cmp	r0, #0
100027bc:	d010      	beq.n	100027e0 <Code_352+0x3a>
100027be:	3801      	subs	r0, #1
100027c0:	5c0a      	ldrb	r2, [r1, r0]
100027c2:	5c33      	ldrb	r3, [r6, r0]
100027c4:	2a41      	cmp	r2, #65	; 0x41
100027c6:	d302      	bcc.n	100027ce <Code_352+0x28>
100027c8:	2a5b      	cmp	r2, #91	; 0x5b
100027ca:	d200      	bcs.n	100027ce <Code_352+0x28>
100027cc:	3220      	adds	r2, #32
100027ce:	2b41      	cmp	r3, #65	; 0x41
100027d0:	d302      	bcc.n	100027d8 <Code_352+0x32>
100027d2:	2b5b      	cmp	r3, #91	; 0x5b
100027d4:	d200      	bcs.n	100027d8 <Code_352+0x32>
100027d6:	3320      	adds	r3, #32
100027d8:	429a      	cmp	r2, r3
100027da:	d0ee      	beq.n	100027ba <Code_352+0x14>
100027dc:	2600      	movs	r6, #0
100027de:	bd0f      	pop	{r0, r1, r2, r3, pc}
100027e0:	2600      	movs	r6, #0
100027e2:	43f6      	mvns	r6, r6
100027e4:	bd0f      	pop	{r0, r1, r2, r3, pc}
100027e6:	46c0      	nop			; (mov r8, r8)

100027e8 <Dictionary_357>:
100027e8:	100027fc 	strdne	r2, [r0], -ip
100027ec:	63020000 	movwvs	r0, #8192	; 0x2000
100027f0:	b5000072 	strlt	r0, [r0, #-114]	; 0x72

100027f2 <Code_357>:
100027f2:	b500      	push	{lr}
100027f4:	f000 f864 	bl	100028c0 <dotgaensefuesschen>
100027f8:	bd000a01 	vstrlt	s0, [r0, #-4]

100027fc <Dictionary_359>:
100027fc:	10002810 	andne	r2, r0, r0, lsl r8
10002800:	62020000 	andvs	r0, r2, #0
10002804:	3f04006c 	svccc	0x0004006c

10002806 <Code_359>:
10002806:	3f04      	subs	r7, #4
10002808:	603e      	str	r6, [r7, #0]
1000280a:	2620      	movs	r6, #32
1000280c:	4770      	bx	lr
1000280e:	46c0      	nop			; (mov r8, r8)

10002810 <Dictionary_362>:
10002810:	10002824 	andne	r2, r0, r4, lsr #16
10002814:	73050000 	movwvc	r0, #20480	; 0x5000
10002818:	65636170 	strbvs	r6, [r3, #-368]!	; 0x170

1000281c <Code_362>:
1000281c:	3f04      	subs	r7, #4
1000281e:	603e      	str	r6, [r7, #0]
10002820:	2620      	movs	r6, #32
10002822:	e641      	b.n	100024a8 <Code_312>

10002824 <Dictionary_365>:
10002824:	10002844 	andne	r2, r0, r4, asr #16
10002828:	73060000 	movwvc	r0, #24576	; 0x6000
1000282c:	65636170 	strbvs	r6, [r3, #-368]!	; 0x170
10002830:	b5000073 	strlt	r0, [r0, #-115]	; 0x73

10002832 <Code_365>:
10002832:	b500      	push	{lr}
10002834:	2e00      	cmp	r6, #0
10002836:	dd03      	ble.n	10002840 <Code_365+0xe>
10002838:	f7ff fff0 	bl	1000281c <Code_362>
1000283c:	3e01      	subs	r6, #1
1000283e:	d1fb      	bne.n	10002838 <Code_365+0x6>
10002840:	cf40      	ldmia	r7!, {r6}
10002842:	bd00      	pop	{pc}

10002844 <Dictionary_367>:
10002844:	10002854 	andne	r2, r0, r4, asr r8
10002848:	5b060050 	blpl	10182990 <FlashDictionaryEnde+0x171990>
1000284c:	72616863 	rsbvc	r6, r1, #6488064	; 0x630000
10002850:	e005005d 	and	r0, r5, sp, asr r0

10002852 <Code_367>:
10002852:	e005      	b.n	10002860 <Code_368>

10002854 <Dictionary_368>:
10002854:	1000286c 	andne	r2, r0, ip, ror #16
10002858:	63040000 	movwvs	r0, #16384	; 0x4000
1000285c:	00726168 	rsbseq	r6, r2, r8, ror #2

10002860 <Code_368>:
10002860:	b500      	push	{lr}
10002862:	f001 fb69 	bl	10003f38 <Code_839>
10002866:	cf40      	ldmia	r7!, {r6}
10002868:	7836      	ldrb	r6, [r6, #0]
1000286a:	bd00      	pop	{pc}

1000286c <Dictionary_370>:
1000286c:	1000287c 	andne	r2, r0, ip, ror r8
10002870:	28010050 	stmdacs	r1, {r4, r6}

10002874 <Code_370>:
10002874:	3f04      	subs	r7, #4
10002876:	603e      	str	r6, [r7, #0]
10002878:	2629      	movs	r6, #41	; 0x29
1000287a:	e006      	b.n	1000288a <Code_373+0x6>

1000287c <Dictionary_373>:
1000287c:	10002898 	mulne	r0, r8, r8
10002880:	5c010050 	stcpl	0, cr0, [r1], {80}	; 0x50

10002884 <Code_373>:
10002884:	3f04      	subs	r7, #4
10002886:	603e      	str	r6, [r7, #0]
10002888:	2600      	movs	r6, #0
1000288a:	b500      	push	{lr}
1000288c:	f001 fb5e 	bl	10003f4c <Code_841>
10002890:	3704      	adds	r7, #4
10002892:	cf40      	ldmia	r7!, {r6}
10002894:	bd00      	pop	{pc}
10002896:	46c0      	nop			; (mov r8, r8)

10002898 <Dictionary_378>:
10002898:	100028e0 	andne	r2, r0, r0, ror #17
1000289c:	2e020010 	mcrcs	0, 0, r0, cr2, cr0, {0}
100028a0:	489f0022 	ldmmi	pc, {r1, r5}	; <UNPREDICTABLE>

100028a2 <Code_378>:
100028a2:	489f      	ldr	r0, [pc, #636]	; (10002b20 <Code_417+0x94>)
100028a4:	b500      	push	{lr}
100028a6:	3f04      	subs	r7, #4
100028a8:	603e      	str	r6, [r7, #0]
100028aa:	0006      	movs	r6, r0
100028ac:	f000 f9f8 	bl	10002ca0 <Code_464>
100028b0:	3f04      	subs	r7, #4
100028b2:	603e      	str	r6, [r7, #0]
100028b4:	2622      	movs	r6, #34	; 0x22
100028b6:	f001 fb49 	bl	10003f4c <Code_841>
100028ba:	f000 fd60 	bl	1000337e <Code_596>
100028be:	bd00      	pop	{pc}

100028c0 <dotgaensefuesschen>:
100028c0:	b40a      	push	{r1, r3}
100028c2:	3f04      	subs	r7, #4
100028c4:	603e      	str	r6, [r7, #0]
100028c6:	4676      	mov	r6, lr
100028c8:	3e01      	subs	r6, #1
100028ca:	7833      	ldrb	r3, [r6, #0]
100028cc:	2101      	movs	r1, #1
100028ce:	3301      	adds	r3, #1
100028d0:	4019      	ands	r1, r3
100028d2:	185b      	adds	r3, r3, r1
100028d4:	4671      	mov	r1, lr
100028d6:	18c9      	adds	r1, r1, r3
100028d8:	468e      	mov	lr, r1
100028da:	bc0a      	pop	{r1, r3}
100028dc:	e03c      	b.n	10002958 <Code_393>
100028de:	46c0      	nop			; (mov r8, r8)

100028e0 <Dictionary_384>:
100028e0:	10002908 	andne	r2, r0, r8, lsl #18
100028e4:	63020010 	movwvs	r0, #8208	; 0x2010
100028e8:	488e0022 	stmmi	lr, {r1, r5}

100028ea <Code_384>:
100028ea:	488e      	ldr	r0, [pc, #568]	; (10002b24 <Code_417+0x98>)
100028ec:	e7da      	b.n	100028a4 <Code_378+0x2>

100028ee <dotcfuesschen>:
100028ee:	3f04      	subs	r7, #4
100028f0:	603e      	str	r6, [r7, #0]
100028f2:	4676      	mov	r6, lr
100028f4:	3e01      	subs	r6, #1
100028f6:	7833      	ldrb	r3, [r6, #0]
100028f8:	2101      	movs	r1, #1
100028fa:	3301      	adds	r3, #1
100028fc:	4019      	ands	r1, r3
100028fe:	185b      	adds	r3, r3, r1
10002900:	4671      	mov	r1, lr
10002902:	18c9      	adds	r1, r1, r3
10002904:	468e      	mov	lr, r1
10002906:	4770      	bx	lr

10002908 <Dictionary_386>:
10002908:	10002934 	andne	r2, r0, r4, lsr r9
1000290c:	73020010 	movwvc	r0, #8208	; 0x2010
10002910:	48850022 	stmmi	r5, {r1, r5}

10002912 <Code_386>:
10002912:	4885      	ldr	r0, [pc, #532]	; (10002b28 <Code_417+0x9c>)
10002914:	e7c6      	b.n	100028a4 <Code_378+0x2>

10002916 <dotsfuesschen>:
10002916:	3f04      	subs	r7, #4
10002918:	603e      	str	r6, [r7, #0]
1000291a:	4676      	mov	r6, lr
1000291c:	3f04      	subs	r7, #4
1000291e:	603e      	str	r6, [r7, #0]
10002920:	3e01      	subs	r6, #1
10002922:	7836      	ldrb	r6, [r6, #0]
10002924:	2101      	movs	r1, #1
10002926:	1c73      	adds	r3, r6, #1
10002928:	4019      	ands	r1, r3
1000292a:	185b      	adds	r3, r3, r1
1000292c:	4671      	mov	r1, lr
1000292e:	18c9      	adds	r1, r1, r3
10002930:	468e      	mov	lr, r1
10002932:	4770      	bx	lr

10002934 <Dictionary_390>:
10002934:	1000294c 	andne	r2, r0, ip, asr #18
10002938:	63050000 	movwvs	r0, #20480	; 0x5000
1000293c:	746e756f 	strbtvc	r7, [lr], #-1391	; 0x56f

10002940 <Code_390>:
10002940:	3601      	adds	r6, #1
10002942:	3f04      	subs	r7, #4
10002944:	603e      	str	r6, [r7, #0]
10002946:	3e01      	subs	r6, #1
10002948:	7836      	ldrb	r6, [r6, #0]
1000294a:	4770      	bx	lr

1000294c <Dictionary_393>:
1000294c:	10002974 	andne	r2, r0, r4, ror r9
10002950:	63050000 	movwvs	r0, #20480	; 0x5000
10002954:	65707974 	ldrbvs	r7, [r0, #-2420]!	; 0x974

10002958 <Code_393>:
10002958:	b501      	push	{r0, lr}
1000295a:	7830      	ldrb	r0, [r6, #0]
1000295c:	2800      	cmp	r0, #0
1000295e:	d007      	beq.n	10002970 <Code_393+0x18>
10002960:	3601      	adds	r6, #1
10002962:	3f04      	subs	r7, #4
10002964:	603e      	str	r6, [r7, #0]
10002966:	7836      	ldrb	r6, [r6, #0]
10002968:	f7ff fd9e 	bl	100024a8 <Code_312>
1000296c:	3801      	subs	r0, #1
1000296e:	d1f7      	bne.n	10002960 <Code_393+0x8>
10002970:	cf40      	ldmia	r7!, {r6}
10002972:	bd01      	pop	{r0, pc}

10002974 <Dictionary_397>:
10002974:	100029a4 	andne	r2, r0, r4, lsr #19
10002978:	74040000 	strvc	r0, [r4]
1000297c:	00657079 	rsbeq	r7, r5, r9, ror r0

10002980 <Code_397>:
10002980:	0031      	movs	r1, r6
10002982:	cf40      	ldmia	r7!, {r6}
10002984:	0030      	movs	r0, r6
10002986:	cf40      	ldmia	r7!, {r6}

10002988 <stype_addr_r0_len_r1>:
10002988:	b500      	push	{lr}
1000298a:	2900      	cmp	r1, #0
1000298c:	d008      	beq.n	100029a0 <stype_addr_r0_len_r1+0x18>
1000298e:	2200      	movs	r2, #0
10002990:	3f04      	subs	r7, #4
10002992:	603e      	str	r6, [r7, #0]
10002994:	5c86      	ldrb	r6, [r0, r2]
10002996:	f7ff fd87 	bl	100024a8 <Code_312>
1000299a:	3201      	adds	r2, #1
1000299c:	4291      	cmp	r1, r2
1000299e:	d1f7      	bne.n	10002990 <stype_addr_r0_len_r1+0x8>
100029a0:	bd00      	pop	{pc}
100029a2:	46c0      	nop			; (mov r8, r8)

100029a4 <Dictionary_401>:
100029a4:	100029e0 	andne	r2, r0, r0, ror #19
100029a8:	68040000 	stmdavs	r4, {}	; <UNPREDICTABLE>
100029ac:	002e7865 	eoreq	r7, lr, r5, ror #16

100029b0 <Code_401>:
100029b0:	b507      	push	{r0, r1, r2, lr}
100029b2:	0031      	movs	r1, r6
100029b4:	cf40      	ldmia	r7!, {r6}
100029b6:	2020      	movs	r0, #32
100029b8:	220f      	movs	r2, #15
100029ba:	3804      	subs	r0, #4
100029bc:	3f04      	subs	r7, #4
100029be:	603e      	str	r6, [r7, #0]
100029c0:	000e      	movs	r6, r1
100029c2:	40c6      	lsrs	r6, r0
100029c4:	4016      	ands	r6, r2
100029c6:	2e09      	cmp	r6, #9
100029c8:	d901      	bls.n	100029ce <Code_401+0x1e>
100029ca:	3637      	adds	r6, #55	; 0x37
100029cc:	e000      	b.n	100029d0 <Code_401+0x20>
100029ce:	3630      	adds	r6, #48	; 0x30
100029d0:	f7ff fd6a 	bl	100024a8 <Code_312>
100029d4:	2800      	cmp	r0, #0
100029d6:	d1f0      	bne.n	100029ba <Code_401+0xa>
100029d8:	f7ff ff20 	bl	1000281c <Code_362>
100029dc:	bd07      	pop	{r0, r1, r2, pc}
100029de:	46c0      	nop			; (mov r8, r8)

100029e0 <Dictionary_404>:
100029e0:	100029f0 	strdne	r2, [r0], -r0
100029e4:	68030000 	stmdavs	r3, {}	; <UNPREDICTABLE>
100029e8:	b51f732e 	ldrlt	r7, [pc, #-814]	; 100026c2 <Code_331+0x5c>

100029ea <Code_404>:
100029ea:	b51f      	push	{r0, r1, r2, r3, r4, lr}
100029ec:	4c4f      	ldr	r4, [pc, #316]	; (10002b2c <Code_417+0xa0>)
100029ee:	e00e      	b.n	10002a0e <Code_406+0x4>

100029f0 <Dictionary_405>:
100029f0:	10002a00 	andne	r2, r0, r0, lsl #20
100029f4:	75030000 	strvc	r0, [r3]
100029f8:	b51f732e 	ldrlt	r7, [pc, #-814]	; 100026d2 <Dictionary_335+0x2>

100029fa <Code_405>:
100029fa:	b51f      	push	{r0, r1, r2, r3, r4, lr}
100029fc:	4c4c      	ldr	r4, [pc, #304]	; (10002b30 <Code_417+0xa4>)
100029fe:	e006      	b.n	10002a0e <Code_406+0x4>

10002a00 <Dictionary_406>:
10002a00:	10002a80 	andne	r2, r0, r0, lsl #21
10002a04:	2e020000 	cdpcs	0, 0, cr0, cr2, cr0, {0}
10002a08:	b51f0073 	ldrlt	r0, [pc, #-115]	; 1000299d <stype_addr_r0_len_r1+0x15>

10002a0a <Code_406>:
10002a0a:	b51f      	push	{r0, r1, r2, r3, r4, lr}
10002a0c:	4c49      	ldr	r4, [pc, #292]	; (10002b34 <Code_417+0xa8>)
10002a0e:	494a      	ldr	r1, [pc, #296]	; (10002b38 <Code_417+0xac>)
10002a10:	1bc9      	subs	r1, r1, r7
10002a12:	0889      	lsrs	r1, r1, #2
10002a14:	4a49      	ldr	r2, [pc, #292]	; (10002b3c <Code_417+0xb0>)
10002a16:	6810      	ldr	r0, [r2, #0]
10002a18:	b403      	push	{r0, r1}
10002a1a:	200a      	movs	r0, #10
10002a1c:	6010      	str	r0, [r2, #0]
10002a1e:	f7ff ff4f 	bl	100028c0 <dotgaensefuesschen>
10002a22:	61745308 	cmnvs	r4, r8, lsl #6
10002a26:	203a6b63 	eorscs	r6, sl, r3, ror #22
10002a2a:	3f04005b 	svccc	0x0004005b
10002a2e:	603e      	str	r6, [r7, #0]
10002a30:	000e      	movs	r6, r1
10002a32:	f001 fc77 	bl	10004324 <Code_907>
10002a36:	f7ff ff43 	bl	100028c0 <dotgaensefuesschen>
10002a3a:	00205d02 	eoreq	r5, r0, r2, lsl #26
10002a3e:	bc03      	pop	{r0, r1}
10002a40:	4a3e      	ldr	r2, [pc, #248]	; (10002b3c <Code_417+0xb0>)
10002a42:	6010      	str	r0, [r2, #0]
10002a44:	2900      	cmp	r1, #0
10002a46:	d00a      	beq.n	10002a5e <Code_406+0x54>
10002a48:	4a3d      	ldr	r2, [pc, #244]	; (10002b40 <Code_417+0xb4>)
10002a4a:	6810      	ldr	r0, [r2, #0]
10002a4c:	b406      	push	{r1, r2}
10002a4e:	3f04      	subs	r7, #4
10002a50:	603e      	str	r6, [r7, #0]
10002a52:	0006      	movs	r6, r0
10002a54:	47a0      	blx	r4
10002a56:	bc06      	pop	{r1, r2}
10002a58:	3a04      	subs	r2, #4
10002a5a:	3901      	subs	r1, #1
10002a5c:	d1f5      	bne.n	10002a4a <Code_406+0x40>
10002a5e:	f7ff ff2f 	bl	100028c0 <dotgaensefuesschen>
10002a62:	4f542006 	svcmi	0x00542006
10002a66:	00203a53 	eoreq	r3, r0, r3, asr sl
10002a6a:	3f04      	subs	r7, #4
10002a6c:	603e      	str	r6, [r7, #0]
10002a6e:	0036      	movs	r6, r6
10002a70:	47a0      	blx	r4
10002a72:	f7ff ff25 	bl	100028c0 <dotgaensefuesschen>
10002a76:	3e2a2004 	cdpcc	0, 2, cr2, cr10, cr4, {0}
10002a7a:	bd1f000a 	ldclt	0, cr0, [pc, #-40]	; 10002a58 <Code_406+0x4e>
10002a7e:	46c0      	nop			; (mov r8, r8)

10002a80 <Dictionary_417>:
10002a80:	10002b44 	andne	r2, r0, r4, asr #22
10002a84:	77050000 	strvc	r0, [r5, -r0]
10002a88:	7364726f 	cmnvc	r4, #-268435450	; 0xf0000006

10002a8c <Code_417>:
10002a8c:	b500      	push	{lr}
10002a8e:	f7ff ff17 	bl	100028c0 <dotgaensefuesschen>
10002a92:	f0000a01 			; <UNDEFINED> instruction: 0xf0000a01
10002a96:	febd f7ff 	mrc2	7, 5, pc, cr13, cr15, {7}
10002a9a:	ff12 4109 	vrhadd.u16	d4, d2, d9
10002a9e:	65726464 	ldrbvs	r6, [r2, #-1124]!	; 0x464
10002aa2:	203a7373 	eorscs	r7, sl, r3, ror r3
10002aa6:	3f04      	subs	r7, #4
10002aa8:	603e      	str	r6, [r7, #0]
10002aaa:	f7ff ff81 	bl	100029b0 <Code_401>
10002aae:	f7ff ff07 	bl	100028c0 <dotgaensefuesschen>
10002ab2:	6e694c06 	cdpvs	12, 6, cr4, cr9, cr6, {0}
10002ab6:	00203a6b 	eoreq	r3, r0, fp, ror #20
10002aba:	3f04      	subs	r7, #4
10002abc:	603e      	str	r6, [r7, #0]
10002abe:	6836      	ldr	r6, [r6, #0]
10002ac0:	f7ff ff76 	bl	100029b0 <Code_401>
10002ac4:	f7ff fefc 	bl	100028c0 <dotgaensefuesschen>
10002ac8:	616c4607 	cmnvs	ip, r7, lsl #12
10002acc:	203a7367 	eorscs	r7, sl, r7, ror #6
10002ad0:	3f04      	subs	r7, #4
10002ad2:	603e      	str	r6, [r7, #0]
10002ad4:	88b6      	ldrh	r6, [r6, #4]
10002ad6:	f7ff ff6b 	bl	100029b0 <Code_401>
10002ada:	f7ff fef1 	bl	100028c0 <dotgaensefuesschen>
10002ade:	646f4306 	strbtvs	r4, [pc], #-774	; 10002ae6 <Code_417+0x5a>
10002ae2:	00203a65 	eoreq	r3, r0, r5, ror #20
10002ae6:	1db0      	adds	r0, r6, #6
10002ae8:	f000 fece 	bl	10003888 <skipstring>
10002aec:	3f04      	subs	r7, #4
10002aee:	603e      	str	r6, [r7, #0]
10002af0:	0006      	movs	r6, r0
10002af2:	f7ff ff5d 	bl	100029b0 <Code_401>
10002af6:	f7ff fee3 	bl	100028c0 <dotgaensefuesschen>
10002afa:	6d614e06 	stclvs	14, cr4, [r1, #-24]!	; 0xffffffe8
10002afe:	00203a65 	eoreq	r3, r0, r5, ror #20
10002b02:	3f04      	subs	r7, #4
10002b04:	603e      	str	r6, [r7, #0]
10002b06:	3606      	adds	r6, #6
10002b08:	f7ff ff26 	bl	10002958 <Code_393>
10002b0c:	f7ff fed8 	bl	100028c0 <dotgaensefuesschen>
10002b10:	f0000a01 			; <UNDEFINED> instruction: 0xf0000a01
10002b14:	fe96 0030 	mrc2	0, 4, r0, cr6, cr0, {1}
10002b18:	cf40      	ldmia	r7!, {r6}
10002b1a:	d0bd      	beq.n	10002a98 <Code_417+0xc>
10002b1c:	cf40      	ldmia	r7!, {r6}
10002b1e:	bd00      	pop	{pc}
10002b20:	100028c0 	andne	r2, r0, r0, asr #17
10002b24:	100028ee 	andne	r2, r0, lr, ror #17
10002b28:	10002916 	andne	r2, r0, r6, lsl r9
10002b2c:	100029b1 			; <UNDEFINED> instruction: 0x100029b1
10002b30:	10004313 	andne	r4, r0, r3, lsl r3
10002b34:	10004325 	andne	r4, r0, r5, lsr #6
10002b38:	20000424 	andcs	r0, r0, r4, lsr #8
10002b3c:	20003ffc 	strdcs	r3, [r0], -ip
10002b40:	20000420 	andcs	r0, r0, r0, lsr #8

10002b44 <Dictionary_437>:
10002b44:	10002c94 	mulne	r0, r4, ip
10002b48:	72100000 	andsvc	r0, r0, #0
10002b4c:	73696765 	cmnvc	r9, #26476544	; 0x1940000
10002b50:	6c726574 	cfldr64vs	mvdx6, [r2], #-464	; 0xfffffe30
10002b54:	72657469 	rsbvc	r7, r5, #1761607680	; 0x69000000
10002b58:	002c6c61 	eoreq	r6, ip, r1, ror #24

10002b5c <Code_437>:
10002b5c:	b53f      	push	{r0, r1, r2, r3, r4, r5, lr}
10002b5e:	4bb8      	ldr	r3, [pc, #736]	; (10002e40 <builds_ram+0x2c>)
10002b60:	6838      	ldr	r0, [r7, #0]
10002b62:	4018      	ands	r0, r3
10002b64:	4298      	cmp	r0, r3
10002b66:	d10f      	bne.n	10002b88 <Code_437+0x2c>
10002b68:	6838      	ldr	r0, [r7, #0]
10002b6a:	43c0      	mvns	r0, r0
10002b6c:	6038      	str	r0, [r7, #0]
10002b6e:	b440      	push	{r6}
10002b70:	f000 f80d 	bl	10002b8e <registerliteralkomma_intern>
10002b74:	3f04      	subs	r7, #4
10002b76:	603e      	str	r6, [r7, #0]
10002b78:	4eb2      	ldr	r6, [pc, #712]	; (10002e44 <builds_ram+0x30>)
10002b7a:	bc01      	pop	{r0}
10002b7c:	4306      	orrs	r6, r0
10002b7e:	00c0      	lsls	r0, r0, #3
10002b80:	4306      	orrs	r6, r0
10002b82:	f000 fbc2 	bl	1000330a <Code_584>
10002b86:	bd3f      	pop	{r0, r1, r2, r3, r4, r5, pc}
10002b88:	f000 f801 	bl	10002b8e <registerliteralkomma_intern>
10002b8c:	bd3f      	pop	{r0, r1, r2, r3, r4, r5, pc}

10002b8e <registerliteralkomma_intern>:
10002b8e:	b500      	push	{lr}
10002b90:	0035      	movs	r5, r6
10002b92:	cf40      	ldmia	r7!, {r6}
10002b94:	0029      	movs	r1, r5
10002b96:	00c9      	lsls	r1, r1, #3
10002b98:	4329      	orrs	r1, r5
10002b9a:	022d      	lsls	r5, r5, #8
10002b9c:	48aa      	ldr	r0, [pc, #680]	; (10002e48 <builds_ram+0x34>)
10002b9e:	4305      	orrs	r5, r0
10002ba0:	23ff      	movs	r3, #255	; 0xff
10002ba2:	2200      	movs	r2, #0
10002ba4:	0030      	movs	r0, r6
10002ba6:	40d0      	lsrs	r0, r2
10002ba8:	4398      	bics	r0, r3
10002baa:	d001      	beq.n	10002bb0 <registerliteralkomma_intern+0x22>
10002bac:	3201      	adds	r2, #1
10002bae:	e7f9      	b.n	10002ba4 <registerliteralkomma_intern+0x16>
10002bb0:	0030      	movs	r0, r6
10002bb2:	40d0      	lsrs	r0, r2
10002bb4:	4018      	ands	r0, r3
10002bb6:	4328      	orrs	r0, r5
10002bb8:	3f04      	subs	r7, #4
10002bba:	603e      	str	r6, [r7, #0]
10002bbc:	0006      	movs	r6, r0
10002bbe:	f000 fba4 	bl	1000330a <Code_584>
10002bc2:	48a2      	ldr	r0, [pc, #648]	; (10002e4c <builds_ram+0x38>)
10002bc4:	4305      	orrs	r5, r0
10002bc6:	0018      	movs	r0, r3
10002bc8:	4090      	lsls	r0, r2
10002bca:	4386      	bics	r6, r0
10002bcc:	d010      	beq.n	10002bf0 <registerliteralkomma_intern+0x62>
10002bce:	2400      	movs	r4, #0
10002bd0:	0030      	movs	r0, r6
10002bd2:	40e0      	lsrs	r0, r4
10002bd4:	4398      	bics	r0, r3
10002bd6:	d001      	beq.n	10002bdc <registerliteralkomma_intern+0x4e>
10002bd8:	3401      	adds	r4, #1
10002bda:	e7f9      	b.n	10002bd0 <registerliteralkomma_intern+0x42>
10002bdc:	1b10      	subs	r0, r2, r4
10002bde:	3f04      	subs	r7, #4
10002be0:	603e      	str	r6, [r7, #0]
10002be2:	000e      	movs	r6, r1
10002be4:	0180      	lsls	r0, r0, #6
10002be6:	4306      	orrs	r6, r0
10002be8:	f000 fb8f 	bl	1000330a <Code_584>
10002bec:	0022      	movs	r2, r4
10002bee:	e7df      	b.n	10002bb0 <registerliteralkomma_intern+0x22>
10002bf0:	2a00      	cmp	r2, #0
10002bf2:	d006      	beq.n	10002c02 <registerliteralkomma_intern+0x74>
10002bf4:	3f04      	subs	r7, #4
10002bf6:	603e      	str	r6, [r7, #0]
10002bf8:	000e      	movs	r6, r1
10002bfa:	0192      	lsls	r2, r2, #6
10002bfc:	4316      	orrs	r6, r2
10002bfe:	f000 fb84 	bl	1000330a <Code_584>
10002c02:	cf40      	ldmia	r7!, {r6}
10002c04:	bd00      	pop	{pc}

10002c06 <registerliteralkommalang>:
10002c06:	b51f      	push	{r0, r1, r2, r3, r4, lr}
10002c08:	0031      	movs	r1, r6
10002c0a:	cf40      	ldmia	r7!, {r6}
10002c0c:	4c90      	ldr	r4, [pc, #576]	; (10002e50 <builds_ram+0x3c>)
10002c0e:	430c      	orrs	r4, r1
10002c10:	00c9      	lsls	r1, r1, #3
10002c12:	430c      	orrs	r4, r1
10002c14:	0149      	lsls	r1, r1, #5
10002c16:	0030      	movs	r0, r6
10002c18:	cf40      	ldmia	r7!, {r6}
10002c1a:	0e02      	lsrs	r2, r0, #24
10002c1c:	23ff      	movs	r3, #255	; 0xff
10002c1e:	401a      	ands	r2, r3
10002c20:	4b89      	ldr	r3, [pc, #548]	; (10002e48 <builds_ram+0x34>)
10002c22:	430b      	orrs	r3, r1
10002c24:	4313      	orrs	r3, r2
10002c26:	3f04      	subs	r7, #4
10002c28:	603e      	str	r6, [r7, #0]
10002c2a:	001e      	movs	r6, r3
10002c2c:	f000 fb6d 	bl	1000330a <Code_584>
10002c30:	3f04      	subs	r7, #4
10002c32:	603e      	str	r6, [r7, #0]
10002c34:	0026      	movs	r6, r4
10002c36:	f000 fb68 	bl	1000330a <Code_584>
10002c3a:	0c02      	lsrs	r2, r0, #16
10002c3c:	23ff      	movs	r3, #255	; 0xff
10002c3e:	401a      	ands	r2, r3
10002c40:	4b84      	ldr	r3, [pc, #528]	; (10002e54 <builds_ram+0x40>)
10002c42:	430b      	orrs	r3, r1
10002c44:	4313      	orrs	r3, r2
10002c46:	3f04      	subs	r7, #4
10002c48:	603e      	str	r6, [r7, #0]
10002c4a:	001e      	movs	r6, r3
10002c4c:	f000 fb5d 	bl	1000330a <Code_584>
10002c50:	3f04      	subs	r7, #4
10002c52:	603e      	str	r6, [r7, #0]
10002c54:	0026      	movs	r6, r4
10002c56:	f000 fb58 	bl	1000330a <Code_584>
10002c5a:	0a02      	lsrs	r2, r0, #8
10002c5c:	23ff      	movs	r3, #255	; 0xff
10002c5e:	401a      	ands	r2, r3
10002c60:	4b7c      	ldr	r3, [pc, #496]	; (10002e54 <builds_ram+0x40>)
10002c62:	430b      	orrs	r3, r1
10002c64:	4313      	orrs	r3, r2
10002c66:	3f04      	subs	r7, #4
10002c68:	603e      	str	r6, [r7, #0]
10002c6a:	001e      	movs	r6, r3
10002c6c:	f000 fb4d 	bl	1000330a <Code_584>
10002c70:	3f04      	subs	r7, #4
10002c72:	603e      	str	r6, [r7, #0]
10002c74:	0026      	movs	r6, r4
10002c76:	f000 fb48 	bl	1000330a <Code_584>
10002c7a:	0002      	movs	r2, r0
10002c7c:	23ff      	movs	r3, #255	; 0xff
10002c7e:	401a      	ands	r2, r3
10002c80:	4b74      	ldr	r3, [pc, #464]	; (10002e54 <builds_ram+0x40>)
10002c82:	430b      	orrs	r3, r1
10002c84:	4313      	orrs	r3, r2
10002c86:	3f04      	subs	r7, #4
10002c88:	603e      	str	r6, [r7, #0]
10002c8a:	001e      	movs	r6, r3
10002c8c:	f000 fb3d 	bl	1000330a <Code_584>
10002c90:	bd1f      	pop	{r0, r1, r2, r3, r4, pc}
10002c92:	46c0      	nop			; (mov r8, r8)

10002c94 <Dictionary_464>:
10002c94:	10002d04 	andne	r2, r0, r4, lsl #26
10002c98:	63050000 	movwvs	r0, #20480	; 0x5000
10002c9c:	2c6c6c61 	stclcs	12, cr6, [ip], #-388	; 0xfffffe7c

10002ca0 <Code_464>:
10002ca0:	b50f      	push	{r0, r1, r2, r3, lr}
10002ca2:	0033      	movs	r3, r6
10002ca4:	f000 fe8a 	bl	100039bc <Code_702>
10002ca8:	0030      	movs	r0, r6
10002caa:	cf40      	ldmia	r7!, {r6}
10002cac:	1a1b      	subs	r3, r3, r0
10002cae:	3b04      	subs	r3, #4
10002cb0:	4969      	ldr	r1, [pc, #420]	; (10002e58 <builds_ram+0x44>)
10002cb2:	4019      	ands	r1, r3
10002cb4:	2900      	cmp	r1, #0
10002cb6:	d00e      	beq.n	10002cd6 <Code_464+0x36>
10002cb8:	4a68      	ldr	r2, [pc, #416]	; (10002e5c <builds_ram+0x48>)
10002cba:	4291      	cmp	r1, r2
10002cbc:	d00b      	beq.n	10002cd6 <Code_464+0x36>
10002cbe:	3601      	adds	r6, #1
10002cc0:	3f04      	subs	r7, #4
10002cc2:	603e      	str	r6, [r7, #0]
10002cc4:	2600      	movs	r6, #0
10002cc6:	f7ff ff49 	bl	10002b5c <Code_437>
10002cca:	3f04      	subs	r7, #4
10002ccc:	603e      	str	r6, [r7, #0]
10002cce:	4e64      	ldr	r6, [pc, #400]	; (10002e60 <builds_ram+0x4c>)
10002cd0:	f000 fb1b 	bl	1000330a <Code_584>
10002cd4:	bd0f      	pop	{r0, r1, r2, r3, pc}
10002cd6:	cf40      	ldmia	r7!, {r6}
10002cd8:	085b      	lsrs	r3, r3, #1
10002cda:	4862      	ldr	r0, [pc, #392]	; (10002e64 <builds_ram+0x50>)
10002cdc:	4962      	ldr	r1, [pc, #392]	; (10002e68 <builds_ram+0x54>)
10002cde:	4019      	ands	r1, r3
10002ce0:	4308      	orrs	r0, r1
10002ce2:	0adb      	lsrs	r3, r3, #11
10002ce4:	4961      	ldr	r1, [pc, #388]	; (10002e6c <builds_ram+0x58>)
10002ce6:	4019      	ands	r1, r3
10002ce8:	0409      	lsls	r1, r1, #16
10002cea:	4308      	orrs	r0, r1
10002cec:	0a9b      	lsrs	r3, r3, #10
10002cee:	2101      	movs	r1, #1
10002cf0:	4019      	ands	r1, r3
10002cf2:	0689      	lsls	r1, r1, #26
10002cf4:	4308      	orrs	r0, r1
10002cf6:	3f04      	subs	r7, #4
10002cf8:	603e      	str	r6, [r7, #0]
10002cfa:	0006      	movs	r6, r0
10002cfc:	f000 fb2f 	bl	1000335e <Code_593>
10002d00:	bd0f      	pop	{r0, r1, r2, r3, pc}
10002d02:	46c0      	nop			; (mov r8, r8)

10002d04 <Dictionary_473>:
10002d04:	10002d38 	andne	r2, r0, r8, lsr sp
10002d08:	6c080000 	stcvs	0, cr0, [r8], {0}
10002d0c:	72657469 	rsbvc	r7, r5, #1761607680	; 0x69000000
10002d10:	002c6c61 	eoreq	r6, ip, r1, ror #24

10002d14 <Code_473>:
10002d14:	b500      	push	{lr}
10002d16:	3f04      	subs	r7, #4
10002d18:	603e      	str	r6, [r7, #0]
10002d1a:	4e55      	ldr	r6, [pc, #340]	; (10002e70 <builds_ram+0x5c>)
10002d1c:	f000 faf5 	bl	1000330a <Code_584>
10002d20:	3f04      	subs	r7, #4
10002d22:	603e      	str	r6, [r7, #0]
10002d24:	4e53      	ldr	r6, [pc, #332]	; (10002e74 <builds_ram+0x60>)
10002d26:	f000 faf0 	bl	1000330a <Code_584>
10002d2a:	3f04      	subs	r7, #4
10002d2c:	603e      	str	r6, [r7, #0]
10002d2e:	2606      	movs	r6, #6
10002d30:	f7ff ff14 	bl	10002b5c <Code_437>
10002d34:	bd00      	pop	{pc}
10002d36:	46c0      	nop			; (mov r8, r8)

10002d38 <Dictionary_480>:
10002d38:	10002d68 	andne	r2, r0, r8, ror #26
10002d3c:	63060000 	movwvs	r0, #24576	; 0x6000
10002d40:	74616572 	strbtvc	r6, [r1], #-1394	; 0x572
10002d44:	b5000065 	strlt	r0, [r0, #-101]	; 0x65

10002d46 <Code_480>:
10002d46:	b500      	push	{lr}
10002d48:	f000 f84f 	bl	10002dea <Code_489>
10002d4c:	2010      	movs	r0, #16
10002d4e:	0200      	lsls	r0, r0, #8
10002d50:	3000      	adds	r0, #0
10002d52:	0200      	lsls	r0, r0, #8
10002d54:	302d      	adds	r0, #45	; 0x2d
10002d56:	0200      	lsls	r0, r0, #8
10002d58:	308f      	adds	r0, #143	; 0x8f
10002d5a:	4780      	blx	r0
10002d5c:	3f04      	subs	r7, #4
10002d5e:	603e      	str	r6, [r7, #0]
10002d60:	4676      	mov	r6, lr
10002d62:	3e01      	subs	r6, #1
10002d64:	bd00      	pop	{pc}
10002d66:	46c0      	nop			; (mov r8, r8)

10002d68 <Dictionary_482>:
10002d68:	10002ddc 	ldrdne	r2, [r0], -ip
10002d6c:	64050020 	strvs	r0, [r5], #-32
10002d70:	3e73656f 	cdpcc	5, 7, cr6, cr3, cr15, {3}

10002d74 <Code_482>:
10002d74:	2010      	movs	r0, #16
10002d76:	0200      	lsls	r0, r0, #8
10002d78:	3000      	adds	r0, #0
10002d7a:	0200      	lsls	r0, r0, #8
10002d7c:	302d      	adds	r0, #45	; 0x2d
10002d7e:	0200      	lsls	r0, r0, #8
10002d80:	308f      	adds	r0, #143	; 0x8f
10002d82:	4780      	blx	r0
10002d84:	3f04      	subs	r7, #4
10002d86:	603e      	str	r6, [r7, #0]
10002d88:	4676      	mov	r6, lr
10002d8a:	3e01      	subs	r6, #1
10002d8c:	4770      	bx	lr

10002d8e <dodoes>:
10002d8e:	3f04      	subs	r7, #4
10002d90:	603e      	str	r6, [r7, #0]
10002d92:	4676      	mov	r6, lr
10002d94:	3e01      	subs	r6, #1
10002d96:	4a38      	ldr	r2, [pc, #224]	; (10002e78 <builds_ram+0x64>)
10002d98:	6813      	ldr	r3, [r2, #0]
10002d9a:	4938      	ldr	r1, [pc, #224]	; (10002e7c <builds_ram+0x68>)
10002d9c:	6809      	ldr	r1, [r1, #0]
10002d9e:	4838      	ldr	r0, [pc, #224]	; (10002e80 <builds_ram+0x6c>)
10002da0:	4283      	cmp	r3, r0
10002da2:	d205      	bcs.n	10002db0 <dodoes_ram>
10002da4:	200f      	movs	r0, #15
10002da6:	4008      	ands	r0, r1
10002da8:	280e      	cmp	r0, #14
10002daa:	d005      	beq.n	10002db8 <dodoes_ram+0x8>
10002dac:	3102      	adds	r1, #2
10002dae:	e7f9      	b.n	10002da4 <dodoes+0x16>

10002db0 <dodoes_ram>:
10002db0:	2002      	movs	r0, #2
10002db2:	4008      	ands	r0, r1
10002db4:	d100      	bne.n	10002db8 <dodoes_ram+0x8>
10002db6:	3102      	adds	r1, #2
10002db8:	3102      	adds	r1, #2
10002dba:	6011      	str	r1, [r2, #0]
10002dbc:	3601      	adds	r6, #1
10002dbe:	3f04      	subs	r7, #4
10002dc0:	603e      	str	r6, [r7, #0]
10002dc2:	2600      	movs	r6, #0
10002dc4:	f7ff ff1f 	bl	10002c06 <registerliteralkommalang>
10002dc8:	3f04      	subs	r7, #4
10002dca:	603e      	str	r6, [r7, #0]
10002dcc:	4e24      	ldr	r6, [pc, #144]	; (10002e60 <builds_ram+0x4c>)
10002dce:	f000 fa9c 	bl	1000330a <Code_584>
10002dd2:	6013      	str	r3, [r2, #0]
10002dd4:	f000 f9f5 	bl	100031c2 <Code_568>
10002dd8:	bd00      	pop	{pc}
10002dda:	46c0      	nop			; (mov r8, r8)

10002ddc <Dictionary_489>:
10002ddc:	10002e88 	andne	r2, r0, r8, lsl #29
10002de0:	3c070000 	stccc	0, cr0, [r7], {0}
10002de4:	6c697562 	cfstr64vs	mvdx7, [r9], #-392	; 0xfffffe78
10002de8:	b5007364 	strlt	r7, [r0, #-868]	; 0x364

10002dea <Code_489>:
10002dea:	b500      	push	{lr}
10002dec:	f000 fb94 	bl	10003518 <Code_615>
10002df0:	4821      	ldr	r0, [pc, #132]	; (10002e78 <builds_ram+0x64>)
10002df2:	6801      	ldr	r1, [r0, #0]
10002df4:	4a22      	ldr	r2, [pc, #136]	; (10002e80 <builds_ram+0x6c>)
10002df6:	4291      	cmp	r1, r2
10002df8:	d20c      	bcs.n	10002e14 <builds_ram>
10002dfa:	f000 fddf 	bl	100039bc <Code_702>
10002dfe:	200f      	movs	r0, #15
10002e00:	4006      	ands	r6, r0
10002e02:	2e0e      	cmp	r6, #14
10002e04:	cf40      	ldmia	r7!, {r6}
10002e06:	d010      	beq.n	10002e2a <builds_ram+0x16>
10002e08:	3f04      	subs	r7, #4
10002e0a:	603e      	str	r6, [r7, #0]
10002e0c:	2636      	movs	r6, #54	; 0x36
10002e0e:	f000 fa7c 	bl	1000330a <Code_584>
10002e12:	e7f2      	b.n	10002dfa <Code_489+0x10>

10002e14 <builds_ram>:
10002e14:	f000 fdd2 	bl	100039bc <Code_702>
10002e18:	2002      	movs	r0, #2
10002e1a:	4006      	ands	r6, r0
10002e1c:	cf40      	ldmia	r7!, {r6}
10002e1e:	d104      	bne.n	10002e2a <builds_ram+0x16>
10002e20:	3f04      	subs	r7, #4
10002e22:	603e      	str	r6, [r7, #0]
10002e24:	2636      	movs	r6, #54	; 0x36
10002e26:	f000 fa70 	bl	1000330a <Code_584>
10002e2a:	3f04      	subs	r7, #4
10002e2c:	603e      	str	r6, [r7, #0]
10002e2e:	4e15      	ldr	r6, [pc, #84]	; (10002e84 <builds_ram+0x70>)
10002e30:	f000 fa6b 	bl	1000330a <Code_584>
10002e34:	3f04      	subs	r7, #4
10002e36:	603e      	str	r6, [r7, #0]
10002e38:	2610      	movs	r6, #16
10002e3a:	f000 fad3 	bl	100033e4 <Code_604>
10002e3e:	bd00      	pop	{pc}
10002e40:	ffff0000 			; <UNDEFINED> instruction: 0xffff0000
10002e44:	000043c0 	andeq	r4, r0, r0, asr #7
10002e48:	00002000 	andeq	r2, r0, r0
10002e4c:	00001000 	andeq	r1, r0, r0
10002e50:	00000200 	andeq	r0, r0, r0, lsl #4
10002e54:	00003000 	andeq	r3, r0, r0
10002e58:	ffc00001 			; <UNDEFINED> instruction: 0xffc00001
10002e5c:	ffc00000 			; <UNDEFINED> instruction: 0xffc00000
10002e60:	00004780 	andeq	r4, r0, r0, lsl #15
10002e64:	f000f800 			; <UNDEFINED> instruction: 0xf000f800
10002e68:	000007ff 	strdeq	r0, [r0], -pc	; <UNPREDICTABLE>
10002e6c:	000003ff 	strdeq	r0, [r0], -pc	; <UNPREDICTABLE>
10002e70:	00003f04 	andeq	r3, r0, r4, lsl #30
10002e74:	0000603e 	andeq	r6, r0, lr, lsr r0
10002e78:	200000f4 	strdcs	r0, [r0], -r4
10002e7c:	20000108 	andcs	r0, r0, r8, lsl #2
10002e80:	200000f4 	strdcs	r0, [r0], -r4
10002e84:	0000b500 	andeq	fp, r0, r0, lsl #10

10002e88 <Dictionary_500>:
10002e88:	10002e94 	mulne	r0, r4, lr
10002e8c:	5b030050 	blpl	100c2fd4 <FlashDictionaryEnde+0xb1fd4>
10002e90:	e0035d27 	and	r5, r3, r7, lsr #26

10002e92 <Code_500>:
10002e92:	e003      	b.n	10002e9c <Code_501>

10002e94 <Dictionary_501>:
10002e94:	10002eac 	andne	r2, r0, ip, lsr #29
10002e98:	27010000 	strcs	r0, [r1, -r0]

10002e9c <Code_501>:
10002e9c:	b500      	push	{lr}
10002e9e:	f001 f84b 	bl	10003f38 <Code_839>
10002ea2:	f000 fd30 	bl	10003906 <find_not_found>
10002ea6:	0030      	movs	r0, r6
10002ea8:	cf40      	ldmia	r7!, {r6}
10002eaa:	bd00      	pop	{pc}

10002eac <Dictionary_503>:
10002eac:	10002eec 	andne	r2, r0, ip, ror #29
10002eb0:	70080030 	andvc	r0, r8, r0, lsr r0
10002eb4:	7074736f 	rsbsvc	r7, r4, pc, ror #6
10002eb8:	00656e6f 	rsbeq	r6, r5, pc, ror #28

10002ebc <Code_503>:
10002ebc:	b500      	push	{lr}
10002ebe:	f7ff ffed 	bl	10002e9c <Code_501>
10002ec2:	2110      	movs	r1, #16
10002ec4:	4001      	ands	r1, r0
10002ec6:	d10d      	bne.n	10002ee4 <Code_503+0x28>
10002ec8:	2120      	movs	r1, #32
10002eca:	4001      	ands	r1, r0
10002ecc:	d005      	beq.n	10002eda <Code_503+0x1e>
10002ece:	f7ff ff21 	bl	10002d14 <Code_473>
10002ed2:	3f04      	subs	r7, #4
10002ed4:	603e      	str	r6, [r7, #0]
10002ed6:	4ee1      	ldr	r6, [pc, #900]	; (1000325c <setflags_ram+0x1c>)
10002ed8:	e004      	b.n	10002ee4 <Code_503+0x28>
10002eda:	f7ff ff1b 	bl	10002d14 <Code_473>
10002ede:	3f04      	subs	r7, #4
10002ee0:	603e      	str	r6, [r7, #0]
10002ee2:	4edf      	ldr	r6, [pc, #892]	; (10003260 <setflags_ram+0x20>)
10002ee4:	f7ff fedc 	bl	10002ca0 <Code_464>
10002ee8:	bd00      	pop	{pc}
10002eea:	46c0      	nop			; (mov r8, r8)

10002eec <Dictionary_506>:
10002eec:	10002f38 	andne	r2, r0, r8, lsr pc
10002ef0:	69070000 	stmdbvs	r7, {}	; <UNPREDICTABLE>
10002ef4:	6e696c6e 	cdpvs	12, 6, cr6, cr9, cr14, {3}
10002ef8:	b5002c65 	strlt	r2, [r0, #-3173]	; 0xc65

10002efa <Code_506>:
10002efa:	b500      	push	{lr}
10002efc:	49d9      	ldr	r1, [pc, #868]	; (10003264 <setflags_ram+0x24>)
10002efe:	4ada      	ldr	r2, [pc, #872]	; (10003268 <setflags_ram+0x28>)
10002f00:	4bda      	ldr	r3, [pc, #872]	; (1000326c <setflags_ram+0x2c>)
10002f02:	8830      	ldrh	r0, [r6, #0]
10002f04:	4288      	cmp	r0, r1
10002f06:	d008      	beq.n	10002f1a <Code_506+0x20>
10002f08:	4290      	cmp	r0, r2
10002f0a:	d008      	beq.n	10002f1e <Code_506+0x24>
10002f0c:	4298      	cmp	r0, r3
10002f0e:	d006      	beq.n	10002f1e <Code_506+0x24>
10002f10:	3f04      	subs	r7, #4
10002f12:	603e      	str	r6, [r7, #0]
10002f14:	0006      	movs	r6, r0
10002f16:	f000 f9f8 	bl	1000330a <Code_584>
10002f1a:	3602      	adds	r6, #2
10002f1c:	e7f1      	b.n	10002f02 <Code_506+0x8>
10002f1e:	cf40      	ldmia	r7!, {r6}
10002f20:	bd00      	pop	{pc}

10002f22 <suchedefinitionsende>:
10002f22:	b40e      	push	{r1, r2, r3}
10002f24:	4ad0      	ldr	r2, [pc, #832]	; (10003268 <setflags_ram+0x28>)
10002f26:	4bd1      	ldr	r3, [pc, #836]	; (1000326c <setflags_ram+0x2c>)
10002f28:	8801      	ldrh	r1, [r0, #0]
10002f2a:	3002      	adds	r0, #2
10002f2c:	4291      	cmp	r1, r2
10002f2e:	d001      	beq.n	10002f34 <suchedefinitionsende+0x12>
10002f30:	4299      	cmp	r1, r3
10002f32:	d1f9      	bne.n	10002f28 <suchedefinitionsende+0x6>
10002f34:	bc0e      	pop	{r1, r2, r3}
10002f36:	4770      	bx	lr

10002f38 <Dictionary_510>:
10002f38:	10002f4c 	andne	r2, r0, ip, asr #30
10002f3c:	72040000 	andvc	r0, r4, #0
10002f40:	002c7465 	eoreq	r7, ip, r5, ror #8

10002f44 <Code_510>:
10002f44:	3f04      	subs	r7, #4
10002f46:	603e      	str	r6, [r7, #0]
10002f48:	4ec7      	ldr	r6, [pc, #796]	; (10003268 <setflags_ram+0x28>)
10002f4a:	e1de      	b.n	1000330a <Code_584>

10002f4c <Dictionary_513>:
10002f4c:	10002f5c 	andne	r2, r0, ip, asr pc
10002f50:	65040030 	strvs	r0, [r4, #-48]	; 0x30
10002f54:	00746978 	rsbseq	r6, r4, r8, ror r9

10002f58 <Code_513>:
10002f58:	e7f4      	b.n	10002f44 <Code_510>
10002f5a:	46c0      	nop			; (mov r8, r8)

10002f5c <Dictionary_514>:
10002f5c:	10002f74 	andne	r2, r0, r4, ror pc
10002f60:	72070030 	andvc	r0, r7, #48	; 0x30
10002f64:	72756365 	rsbsvc	r6, r5, #-1811939327	; 0x94000001
10002f68:	3f046573 	svccc	0x00046573

10002f6a <Code_514>:
10002f6a:	3f04      	subs	r7, #4
10002f6c:	603e      	str	r6, [r7, #0]
10002f6e:	4ec0      	ldr	r6, [pc, #768]	; (10003270 <setflags_ram+0x30>)
10002f70:	6836      	ldr	r6, [r6, #0]
10002f72:	e695      	b.n	10002ca0 <Code_464>

10002f74 <Dictionary_516>:
10002f74:	10002f8c 	andne	r2, r0, ip, lsl #31
10002f78:	73050081 	movwvc	r0, #20609	; 0x5081
10002f7c:	65746174 	ldrbvs	r6, [r4, #-372]!	; 0x174

10002f80 <Code_516>:
10002f80:	3f04      	subs	r7, #4
10002f82:	603e      	str	r6, [r7, #0]
10002f84:	4ebb      	ldr	r6, [pc, #748]	; (10003274 <setflags_ram+0x34>)
10002f86:	4770      	bx	lr
10002f88:	00000000 	andeq	r0, r0, r0

10002f8c <Dictionary_519>:
10002f8c:	10002fa0 	andne	r2, r0, r0, lsr #31
10002f90:	5d010000 	stcpl	0, cr0, [r1]

10002f94 <Code_519>:
10002f94:	48b7      	ldr	r0, [pc, #732]	; (10003274 <setflags_ram+0x34>)
10002f96:	2100      	movs	r1, #0
10002f98:	43c9      	mvns	r1, r1
10002f9a:	6001      	str	r1, [r0, #0]
10002f9c:	4770      	bx	lr
10002f9e:	46c0      	nop			; (mov r8, r8)

10002fa0 <Dictionary_520>:
10002fa0:	10002fb0 			; <UNDEFINED> instruction: 0x10002fb0
10002fa4:	5b010010 	blpl	10042fec <FlashDictionaryEnde+0x31fec>

10002fa8 <Code_520>:
10002fa8:	48b2      	ldr	r0, [pc, #712]	; (10003274 <setflags_ram+0x34>)
10002faa:	2100      	movs	r1, #0
10002fac:	6001      	str	r1, [r0, #0]
10002fae:	4770      	bx	lr

10002fb0 <Dictionary_521>:
10002fb0:	10002fd8 	ldrdne	r2, [r0], -r8
10002fb4:	3a010000 	bcc	10042fbc <FlashDictionaryEnde+0x31fbc>

10002fb8 <Code_521>:
10002fb8:	b500      	push	{lr}
10002fba:	48af      	ldr	r0, [pc, #700]	; (10003278 <setflags_ram+0x38>)
10002fbc:	6007      	str	r7, [r0, #0]
10002fbe:	f000 faab 	bl	10003518 <Code_615>
10002fc2:	3f04      	subs	r7, #4
10002fc4:	603e      	str	r6, [r7, #0]
10002fc6:	4ea7      	ldr	r6, [pc, #668]	; (10003264 <setflags_ram+0x24>)
10002fc8:	f000 f99f 	bl	1000330a <Code_584>
10002fcc:	48a9      	ldr	r0, [pc, #676]	; (10003274 <setflags_ram+0x34>)
10002fce:	2100      	movs	r1, #0
10002fd0:	43c9      	mvns	r1, r1
10002fd2:	6001      	str	r1, [r0, #0]
10002fd4:	bd00      	pop	{pc}
10002fd6:	46c0      	nop			; (mov r8, r8)

10002fd8 <Dictionary_524>:
10002fd8:	10003020 	andne	r3, r0, r0, lsr #32
10002fdc:	3b010030 	blcc	100430a4 <FlashDictionaryEnde+0x320a4>

10002fe0 <Code_524>:
10002fe0:	b500      	push	{lr}
10002fe2:	48a5      	ldr	r0, [pc, #660]	; (10003278 <setflags_ram+0x38>)
10002fe4:	6801      	ldr	r1, [r0, #0]
10002fe6:	42b9      	cmp	r1, r7
10002fe8:	d00e      	beq.n	10003008 <Code_524+0x28>
10002fea:	f7ff fc69 	bl	100028c0 <dotgaensefuesschen>
10002fee:	74532015 	ldrbvc	r2, [r3], #-21
10002ff2:	206b6361 	rsbcs	r6, fp, r1, ror #6
10002ff6:	20746f6e 	rsbscs	r6, r4, lr, ror #30
10002ffa:	616c6162 	cmnvs	ip, r2, ror #2
10002ffe:	6465636e 	strbtvs	r6, [r5], #-878	; 0x36e
10003002:	f0010a2e 			; <UNDEFINED> instruction: 0xf0010a2e
10003006:	fb0a 3f04 	mla	pc, sl, r4, r3
1000300a:	603e      	str	r6, [r7, #0]
1000300c:	4e96      	ldr	r6, [pc, #600]	; (10003268 <setflags_ram+0x28>)
1000300e:	f000 f97c 	bl	1000330a <Code_584>
10003012:	f000 f8d6 	bl	100031c2 <Code_568>
10003016:	4897      	ldr	r0, [pc, #604]	; (10003274 <setflags_ram+0x34>)
10003018:	2100      	movs	r1, #0
1000301a:	6001      	str	r1, [r0, #0]
1000301c:	bd00      	pop	{pc}
1000301e:	46c0      	nop			; (mov r8, r8)

10003020 <Dictionary_528>:
10003020:	10003034 	andne	r3, r0, r4, lsr r0
10003024:	65070000 	strvs	r0, [r7]
10003028:	75636578 	strbvc	r6, [r3, #-1400]!	; 0x578
1000302c:	00306574 	eorseq	r6, r0, r4, ror r5

1000302e <Code_528>:
1000302e:	0030      	movs	r0, r6
10003030:	cf40      	ldmia	r7!, {r6}
10003032:	4687      	mov	pc, r0

10003034 <Dictionary_530>:
10003034:	1000304c 	andne	r3, r0, ip, asr #32
10003038:	69090010 	stmdbvs	r9, {r4}
1000303c:	64656d6d 	strbtvs	r6, [r5], #-3437	; 0xd6d
10003040:	65746169 	ldrbvs	r6, [r4, #-361]!	; 0x169

10003044 <Code_530>:
10003044:	3f04      	subs	r7, #4
10003046:	603e      	str	r6, [r7, #0]
10003048:	2610      	movs	r6, #16
1000304a:	e0ed      	b.n	10003228 <Code_574>

1000304c <Dictionary_533>:
1000304c:	10003064 	andne	r3, r0, r4, rrx
10003050:	69060050 	stmdbvs	r6, {r4, r6}
10003054:	6e696c6e 	cdpvs	12, 6, cr6, cr9, cr14, {3}
10003058:	3f040065 	svccc	0x00040065

1000305a <Code_533>:
1000305a:	3f04      	subs	r7, #4
1000305c:	603e      	str	r6, [r7, #0]
1000305e:	2620      	movs	r6, #32
10003060:	e0e2      	b.n	10003228 <Code_574>
10003062:	46c0      	nop			; (mov r8, r8)

10003064 <Dictionary_536>:
10003064:	10003080 	andne	r3, r0, r0, lsl #1
10003068:	630b0010 	movwvs	r0, #45072	; 0xb010
1000306c:	69706d6f 	ldmdbvs	r0!, {r0, r1, r2, r3, r5, r6, r8, sl, fp, sp, lr}^
10003070:	6e6f656c 	cdpvs	5, 6, cr6, cr15, cr12, {3}
10003074:	3f04796c 	svccc	0x0004796c

10003076 <Code_536>:
10003076:	3f04      	subs	r7, #4
10003078:	603e      	str	r6, [r7, #0]
1000307a:	2630      	movs	r6, #48	; 0x30
1000307c:	e0d4      	b.n	10003228 <Code_574>
1000307e:	46c0      	nop			; (mov r8, r8)

10003080 <Dictionary_539>:
10003080:	1000309c 	mulne	r0, ip, r0
10003084:	300a0050 	andcc	r0, sl, r0, asr r0
10003088:	6c6f662d 	stclvs	6, cr6, [pc], #-180	; 10002fdc <Dictionary_524+0x4>
1000308c:	6c626164 	stfvse	f6, [r2], #-400	; 0xfffffe70
10003090:	3f040065 	svccc	0x00040065

10003092 <Code_539>:
10003092:	3f04      	subs	r7, #4
10003094:	603e      	str	r6, [r7, #0]
10003096:	2640      	movs	r6, #64	; 0x40
10003098:	e0c6      	b.n	10003228 <Code_574>
1000309a:	46c0      	nop			; (mov r8, r8)

1000309c <Dictionary_542>:
1000309c:	100030b8 	strhne	r3, [r0], -r8
100030a0:	310a0050 	qaddcc	r0, r0, sl
100030a4:	6c6f662d 	stclvs	6, cr6, [pc], #-180	; 10002ff8 <Code_524+0x18>
100030a8:	6c626164 	stfvse	f6, [r2], #-400	; 0xfffffe70
100030ac:	3f040065 	svccc	0x00040065

100030ae <Code_542>:
100030ae:	3f04      	subs	r7, #4
100030b0:	603e      	str	r6, [r7, #0]
100030b2:	2641      	movs	r6, #65	; 0x41
100030b4:	e0b8      	b.n	10003228 <Code_574>
100030b6:	46c0      	nop			; (mov r8, r8)

100030b8 <Dictionary_545>:
100030b8:	100030d4 	ldrdne	r3, [r0], -r4
100030bc:	320a0050 	andcc	r0, sl, #80	; 0x50
100030c0:	6c6f662d 	stclvs	6, cr6, [pc], #-180	; 10003014 <Code_524+0x34>
100030c4:	6c626164 	stfvse	f6, [r2], #-400	; 0xfffffe70
100030c8:	3f040065 	svccc	0x00040065

100030ca <Code_545>:
100030ca:	3f04      	subs	r7, #4
100030cc:	603e      	str	r6, [r7, #0]
100030ce:	2642      	movs	r6, #66	; 0x42
100030d0:	e0aa      	b.n	10003228 <Code_574>
100030d2:	46c0      	nop			; (mov r8, r8)

100030d4 <Dictionary_548>:
100030d4:	100030f0 	strdne	r3, [r0], -r0
100030d8:	330a0050 	movwcc	r0, #41040	; 0xa050
100030dc:	6c6f662d 	stclvs	6, cr6, [pc], #-180	; 10003030 <Code_528+0x2>
100030e0:	6c626164 	stfvse	f6, [r2], #-400	; 0xfffffe70
100030e4:	3f040065 	svccc	0x00040065

100030e6 <Code_548>:
100030e6:	3f04      	subs	r7, #4
100030e8:	603e      	str	r6, [r7, #0]
100030ea:	2643      	movs	r6, #67	; 0x43
100030ec:	e09c      	b.n	10003228 <Code_574>
100030ee:	46c0      	nop			; (mov r8, r8)

100030f0 <Dictionary_551>:
100030f0:	1000310c 	andne	r3, r0, ip, lsl #2
100030f4:	340a0050 	strcc	r0, [sl], #-80	; 0x50
100030f8:	6c6f662d 	stclvs	6, cr6, [pc], #-180	; 1000304c <Dictionary_533>
100030fc:	6c626164 	stfvse	f6, [r2], #-400	; 0xfffffe70
10003100:	3f040065 	svccc	0x00040065

10003102 <Code_551>:
10003102:	3f04      	subs	r7, #4
10003104:	603e      	str	r6, [r7, #0]
10003106:	2644      	movs	r6, #68	; 0x44
10003108:	e08e      	b.n	10003228 <Code_574>
1000310a:	46c0      	nop			; (mov r8, r8)

1000310c <Dictionary_554>:
1000310c:	10003128 	andne	r3, r0, r8, lsr #2
10003110:	350a0050 	strcc	r0, [sl, #-80]	; 0x50
10003114:	6c6f662d 	stclvs	6, cr6, [pc], #-180	; 10003068 <Dictionary_536+0x4>
10003118:	6c626164 	stfvse	f6, [r2], #-400	; 0xfffffe70
1000311c:	3f040065 	svccc	0x00040065

1000311e <Code_554>:
1000311e:	3f04      	subs	r7, #4
10003120:	603e      	str	r6, [r7, #0]
10003122:	2645      	movs	r6, #69	; 0x45
10003124:	e080      	b.n	10003228 <Code_574>
10003126:	46c0      	nop			; (mov r8, r8)

10003128 <Dictionary_557>:
10003128:	10003144 	andne	r3, r0, r4, asr #2
1000312c:	360a0050 			; <UNDEFINED> instruction: 0x360a0050
10003130:	6c6f662d 	stclvs	6, cr6, [pc], #-180	; 10003084 <Dictionary_539+0x4>
10003134:	6c626164 	stfvse	f6, [r2], #-400	; 0xfffffe70
10003138:	3f040065 	svccc	0x00040065

1000313a <Code_557>:
1000313a:	3f04      	subs	r7, #4
1000313c:	603e      	str	r6, [r7, #0]
1000313e:	2646      	movs	r6, #70	; 0x46
10003140:	e072      	b.n	10003228 <Code_574>
10003142:	46c0      	nop			; (mov r8, r8)

10003144 <Dictionary_560>:
10003144:	10003160 	andne	r3, r0, r0, ror #2
10003148:	370a0050 	smlsdcc	sl, r0, r0, r0
1000314c:	6c6f662d 	stclvs	6, cr6, [pc], #-180	; 100030a0 <Dictionary_542+0x4>
10003150:	6c626164 	stfvse	f6, [r2], #-400	; 0xfffffe70
10003154:	3f040065 	svccc	0x00040065

10003156 <Code_560>:
10003156:	3f04      	subs	r7, #4
10003158:	603e      	str	r6, [r7, #0]
1000315a:	2647      	movs	r6, #71	; 0x47
1000315c:	e064      	b.n	10003228 <Code_574>
1000315e:	46c0      	nop			; (mov r8, r8)

10003160 <Dictionary_563>:
10003160:	10003190 	mulne	r0, r0, r1
10003164:	63080000 	movwvs	r0, #32768	; 0x8000
10003168:	74736e6f 	ldrbtvc	r6, [r3], #-3695	; 0xe6f
1000316c:	00746e61 	rsbseq	r6, r4, r1, ror #28

10003170 <Code_563>:
10003170:	b500      	push	{lr}
10003172:	f000 f9d1 	bl	10003518 <Code_615>
10003176:	f7ff fdcd 	bl	10002d14 <Code_473>
1000317a:	3f04      	subs	r7, #4
1000317c:	603e      	str	r6, [r7, #0]
1000317e:	4e3b      	ldr	r6, [pc, #236]	; (1000326c <setflags_ram+0x2c>)
10003180:	f000 f8c3 	bl	1000330a <Code_584>
10003184:	f7ff ff85 	bl	10003092 <Code_539>
10003188:	f000 f81b 	bl	100031c2 <Code_568>
1000318c:	bd00      	pop	{pc}
1000318e:	46c0      	nop			; (mov r8, r8)

10003190 <Dictionary_566>:
10003190:	100031b4 			; <UNDEFINED> instruction: 0x100031b4
10003194:	32090000 	andcc	r0, r9, #0
10003198:	736e6f63 	cmnvc	lr, #396	; 0x18c
1000319c:	746e6174 	strbtvc	r6, [lr], #-372	; 0x174

100031a0 <Code_566>:
100031a0:	b500      	push	{lr}
100031a2:	f000 f9b9 	bl	10003518 <Code_615>
100031a6:	6839      	ldr	r1, [r7, #0]
100031a8:	603e      	str	r6, [r7, #0]
100031aa:	460e      	mov	r6, r1
100031ac:	f7ff fdb2 	bl	10002d14 <Code_473>
100031b0:	e7e1      	b.n	10003176 <Code_563+0x6>
100031b2:	46c0      	nop			; (mov r8, r8)

100031b4 <Dictionary_568>:
100031b4:	10003218 	andne	r3, r0, r8, lsl r2
100031b8:	73060000 	movwvc	r0, #24576	; 0x6000
100031bc:	6764756d 	strbvs	r7, [r4, -sp, ror #10]!
100031c0:	b5000065 	strlt	r0, [r0, #-101]	; 0x65

100031c2 <Code_568>:
100031c2:	b500      	push	{lr}
100031c4:	482d      	ldr	r0, [pc, #180]	; (1000327c <setflags_ram+0x3c>)
100031c6:	6801      	ldr	r1, [r0, #0]
100031c8:	4a2d      	ldr	r2, [pc, #180]	; (10003280 <setflags_ram+0x40>)
100031ca:	4291      	cmp	r1, r2
100031cc:	d21e      	bcs.n	1000320c <smudge_ram>
100031ce:	3902      	subs	r1, #2
100031d0:	880a      	ldrh	r2, [r1, #0]
100031d2:	4b2c      	ldr	r3, [pc, #176]	; (10003284 <setflags_ram+0x44>)
100031d4:	429a      	cmp	r2, r3
100031d6:	d104      	bne.n	100031e2 <Code_568+0x20>
100031d8:	3f04      	subs	r7, #4
100031da:	603e      	str	r6, [r7, #0]
100031dc:	4e2a      	ldr	r6, [pc, #168]	; (10003288 <setflags_ram+0x48>)
100031de:	f000 f894 	bl	1000330a <Code_584>
100031e2:	f000 f86b 	bl	100032bc <Code_578>
100031e6:	f000 f87d 	bl	100032e4 <Code_581>
100031ea:	4828      	ldr	r0, [pc, #160]	; (1000328c <setflags_ram+0x4c>)
100031ec:	6800      	ldr	r0, [r0, #0]
100031ee:	3f04      	subs	r7, #4
100031f0:	603e      	str	r6, [r7, #0]
100031f2:	0006      	movs	r6, r0
100031f4:	4926      	ldr	r1, [pc, #152]	; (10003290 <setflags_ram+0x50>)
100031f6:	6809      	ldr	r1, [r1, #0]
100031f8:	3104      	adds	r1, #4
100031fa:	4a20      	ldr	r2, [pc, #128]	; (1000327c <setflags_ram+0x3c>)
100031fc:	6813      	ldr	r3, [r2, #0]
100031fe:	6011      	str	r1, [r2, #0]
10003200:	f000 f883 	bl	1000330a <Code_584>
10003204:	6013      	str	r3, [r2, #0]
10003206:	f7fe ffa6 	bl	10002156 <Code_248>
1000320a:	bd00      	pop	{pc}

1000320c <smudge_ram>:
1000320c:	f000 f856 	bl	100032bc <Code_578>
10003210:	3f04      	subs	r7, #4
10003212:	603e      	str	r6, [r7, #0]
10003214:	2600      	movs	r6, #0
10003216:	e008      	b.n	1000322a <setflags_intern>

10003218 <Dictionary_574>:
10003218:	10003294 	mulne	r0, r4, r2
1000321c:	73080000 	movwvc	r0, #32768	; 0x8000
10003220:	6c667465 	cfstrdvs	mvd7, [r6], #-404	; 0xfffffe6c
10003224:	00736761 	rsbseq	r6, r3, r1, ror #14

10003228 <Code_574>:
10003228:	b500      	push	{lr}

1000322a <setflags_intern>:
1000322a:	4814      	ldr	r0, [pc, #80]	; (1000327c <setflags_ram+0x3c>)
1000322c:	6801      	ldr	r1, [r0, #0]
1000322e:	4a14      	ldr	r2, [pc, #80]	; (10003280 <setflags_ram+0x40>)
10003230:	4291      	cmp	r1, r2
10003232:	d205      	bcs.n	10003240 <setflags_ram>
10003234:	4815      	ldr	r0, [pc, #84]	; (1000328c <setflags_ram+0x4c>)
10003236:	6801      	ldr	r1, [r0, #0]
10003238:	4331      	orrs	r1, r6
1000323a:	6001      	str	r1, [r0, #0]
1000323c:	cf40      	ldmia	r7!, {r6}
1000323e:	bd00      	pop	{pc}

10003240 <setflags_ram>:
10003240:	0032      	movs	r2, r6
10003242:	cf40      	ldmia	r7!, {r6}
10003244:	4812      	ldr	r0, [pc, #72]	; (10003290 <setflags_ram+0x50>)
10003246:	6800      	ldr	r0, [r0, #0]
10003248:	3004      	adds	r0, #4
1000324a:	8801      	ldrh	r1, [r0, #0]
1000324c:	4b0d      	ldr	r3, [pc, #52]	; (10003284 <setflags_ram+0x44>)
1000324e:	4299      	cmp	r1, r3
10003250:	d101      	bne.n	10003256 <setflags_ram+0x16>
10003252:	0011      	movs	r1, r2
10003254:	e000      	b.n	10003258 <setflags_ram+0x18>
10003256:	4311      	orrs	r1, r2
10003258:	8001      	strh	r1, [r0, #0]
1000325a:	bd00      	pop	{pc}
1000325c:	10002efa 	strdne	r2, [r0], -sl
10003260:	10002ca0 	andne	r2, r0, r0, lsr #25
10003264:	0000b500 	andeq	fp, r0, r0, lsl #10
10003268:	0000bd00 	andeq	fp, r0, r0, lsl #26
1000326c:	00004770 	andeq	r4, r0, r0, ror r7
10003270:	20000108 	andcs	r0, r0, r8, lsl #2
10003274:	20003fd8 	ldrdcs	r3, [r0], -r8
10003278:	20000104 	andcs	r0, r0, r4, lsl #2
1000327c:	200000f4 	strdcs	r0, [r0], -r4
10003280:	200000f4 	strdcs	r0, [r0], -r4
10003284:	0000ffff 	strdeq	pc, [r0], -pc	; <UNPREDICTABLE>
10003288:	00000000 	andeq	r0, r0, r0
1000328c:	20000114 	andcs	r0, r0, r4, lsl r1
10003290:	200000f8 	strdcs	r0, [r0], -r8

10003294 <Dictionary_577>:
10003294:	100032b0 			; <UNDEFINED> instruction: 0x100032b0
10003298:	61070041 	tstvs	r7, r1, asr #32
1000329c:	6e67696c 	cdpvs	9, 6, cr6, cr7, cr12, {3}
100032a0:	20016465 	andcs	r6, r1, r5, ror #8

100032a2 <Code_577>:
100032a2:	2001      	movs	r0, #1
100032a4:	4030      	ands	r0, r6
100032a6:	1836      	adds	r6, r6, r0
100032a8:	2002      	movs	r0, #2
100032aa:	4030      	ands	r0, r6
100032ac:	1836      	adds	r6, r6, r0
100032ae:	4770      	bx	lr

100032b0 <Dictionary_578>:
100032b0:	100032d4 	ldrdne	r3, [r0], -r4
100032b4:	61050000 	mrsvs	r0, (UNDEF: 5)
100032b8:	6e67696c 	cdpvs	9, 6, cr6, cr7, cr12, {3}

100032bc <Code_578>:
100032bc:	b500      	push	{lr}
100032be:	488b      	ldr	r0, [pc, #556]	; (100034ec <Zweitpointertausch+0x4e>)
100032c0:	6801      	ldr	r1, [r0, #0]
100032c2:	2002      	movs	r0, #2
100032c4:	4001      	ands	r1, r0
100032c6:	d004      	beq.n	100032d2 <Code_578+0x16>
100032c8:	3f04      	subs	r7, #4
100032ca:	603e      	str	r6, [r7, #0]
100032cc:	2600      	movs	r6, #0
100032ce:	f000 f81c 	bl	1000330a <Code_584>
100032d2:	bd00      	pop	{pc}

100032d4 <Dictionary_581>:
100032d4:	10003300 	andne	r3, r0, r0, lsl #6
100032d8:	61080000 	mrsvs	r0, (UNDEF: 8)
100032dc:	6e67696c 	cdpvs	9, 6, cr6, cr7, cr12, {3}
100032e0:	002c3631 	eoreq	r3, ip, r1, lsr r6

100032e4 <Code_581>:
100032e4:	b500      	push	{lr}
100032e6:	4881      	ldr	r0, [pc, #516]	; (100034ec <Zweitpointertausch+0x4e>)
100032e8:	6801      	ldr	r1, [r0, #0]
100032ea:	200f      	movs	r0, #15
100032ec:	4001      	ands	r1, r0
100032ee:	d005      	beq.n	100032fc <Code_581+0x18>
100032f0:	3f04      	subs	r7, #4
100032f2:	603e      	str	r6, [r7, #0]
100032f4:	2600      	movs	r6, #0
100032f6:	f000 f808 	bl	1000330a <Code_584>
100032fa:	e7f4      	b.n	100032e6 <Code_581+0x2>
100032fc:	bd00      	pop	{pc}
100032fe:	46c0      	nop			; (mov r8, r8)

10003300 <Dictionary_584>:
10003300:	10003338 	andne	r3, r0, r8, lsr r3
10003304:	68020000 	stmdavs	r2, {}	; <UNPREDICTABLE>
10003308:	b50f002c 	strlt	r0, [pc, #-44]	; 100032e4 <Code_581>

1000330a <Code_584>:
1000330a:	b50f      	push	{r0, r1, r2, r3, lr}
1000330c:	b2b6      	uxth	r6, r6
1000330e:	4877      	ldr	r0, [pc, #476]	; (100034ec <Zweitpointertausch+0x4e>)
10003310:	6801      	ldr	r1, [r0, #0]
10003312:	4a77      	ldr	r2, [pc, #476]	; (100034f0 <Zweitpointertausch+0x52>)
10003314:	4291      	cmp	r1, r2
10003316:	d205      	bcs.n	10003324 <hkomma_ram>
10003318:	3f04      	subs	r7, #4
1000331a:	603e      	str	r6, [r7, #0]
1000331c:	000e      	movs	r6, r1
1000331e:	f7fe fea4 	bl	1000206a <Code_242>
10003322:	e002      	b.n	1000332a <hkomma_fertig>

10003324 <hkomma_ram>:
10003324:	0032      	movs	r2, r6
10003326:	cf40      	ldmia	r7!, {r6}
10003328:	800a      	strh	r2, [r1, #0]

1000332a <hkomma_fertig>:
1000332a:	3f04      	subs	r7, #4
1000332c:	603e      	str	r6, [r7, #0]
1000332e:	2602      	movs	r6, #2
10003330:	f000 f858 	bl	100033e4 <Code_604>
10003334:	bd0f      	pop	{r0, r1, r2, r3, pc}
10003336:	46c0      	nop			; (mov r8, r8)

10003338 <Dictionary_590>:
10003338:	10003354 	andne	r3, r0, r4, asr r3
1000333c:	2c010000 	stccs	0, cr0, [r1], {0}

10003340 <Code_590>:
10003340:	b500      	push	{lr}
10003342:	3f04      	subs	r7, #4
10003344:	603e      	str	r6, [r7, #0]
10003346:	f7ff ffe0 	bl	1000330a <Code_584>
1000334a:	0c36      	lsrs	r6, r6, #16
1000334c:	f7ff ffdd 	bl	1000330a <Code_584>
10003350:	bd00      	pop	{pc}
10003352:	46c0      	nop			; (mov r8, r8)

10003354 <Dictionary_593>:
10003354:	10003370 	andne	r3, r0, r0, ror r3
10003358:	3e030000 	cdpcc	0, 0, cr0, cr3, cr0, {0}
1000335c:	b5002c3c 	strlt	r2, [r0, #-3132]	; 0xc3c

1000335e <Code_593>:
1000335e:	b500      	push	{lr}
10003360:	3f04      	subs	r7, #4
10003362:	603e      	str	r6, [r7, #0]
10003364:	0c36      	lsrs	r6, r6, #16
10003366:	f7ff ffd0 	bl	1000330a <Code_584>
1000336a:	f7ff ffce 	bl	1000330a <Code_584>
1000336e:	bd00      	pop	{pc}

10003370 <Dictionary_596>:
10003370:	100033d8 	ldrdne	r3, [r0], -r8
10003374:	73070000 	movwvc	r0, #28672	; 0x7000
10003378:	6e697274 	mcrvs	2, 3, r7, cr9, cr4, {3}
1000337c:	b5072c67 	strlt	r2, [r7, #-3175]	; 0xc67

1000337e <Code_596>:
1000337e:	b507      	push	{r0, r1, r2, lr}
10003380:	21ff      	movs	r1, #255	; 0xff
10003382:	4031      	ands	r1, r6
10003384:	cf40      	ldmia	r7!, {r6}
10003386:	0030      	movs	r0, r6
10003388:	cf40      	ldmia	r7!, {r6}
1000338a:	2900      	cmp	r1, #0
1000338c:	d105      	bne.n	1000339a <Code_596+0x1c>
1000338e:	3f04      	subs	r7, #4
10003390:	603e      	str	r6, [r7, #0]
10003392:	2600      	movs	r6, #0
10003394:	f7ff ffb9 	bl	1000330a <Code_584>
10003398:	bd07      	pop	{r0, r1, r2, pc}
1000339a:	3f04      	subs	r7, #4
1000339c:	603e      	str	r6, [r7, #0]
1000339e:	7806      	ldrb	r6, [r0, #0]
100033a0:	0236      	lsls	r6, r6, #8
100033a2:	430e      	orrs	r6, r1
100033a4:	f7ff ffb1 	bl	1000330a <Code_584>
100033a8:	3001      	adds	r0, #1
100033aa:	3901      	subs	r1, #1
100033ac:	2902      	cmp	r1, #2
100033ae:	d30a      	bcc.n	100033c6 <Code_596+0x48>
100033b0:	3f04      	subs	r7, #4
100033b2:	603e      	str	r6, [r7, #0]
100033b4:	7846      	ldrb	r6, [r0, #1]
100033b6:	0236      	lsls	r6, r6, #8
100033b8:	7802      	ldrb	r2, [r0, #0]
100033ba:	4316      	orrs	r6, r2
100033bc:	f7ff ffa5 	bl	1000330a <Code_584>
100033c0:	3002      	adds	r0, #2
100033c2:	3902      	subs	r1, #2
100033c4:	e7f2      	b.n	100033ac <Code_596+0x2e>
100033c6:	2900      	cmp	r1, #0
100033c8:	d100      	bne.n	100033cc <Code_596+0x4e>
100033ca:	bd07      	pop	{r0, r1, r2, pc}
100033cc:	3f04      	subs	r7, #4
100033ce:	603e      	str	r6, [r7, #0]
100033d0:	7806      	ldrb	r6, [r0, #0]
100033d2:	f7ff ff9a 	bl	1000330a <Code_584>
100033d6:	bd07      	pop	{r0, r1, r2, pc}

100033d8 <Dictionary_604>:
100033d8:	10003434 	andne	r3, r0, r4, lsr r4
100033dc:	61050000 	mrsvs	r0, (UNDEF: 5)
100033e0:	746f6c6c 	strbtvc	r6, [pc], #-3180	; 100033e8 <Code_604+0x4>

100033e4 <Code_604>:
100033e4:	4841      	ldr	r0, [pc, #260]	; (100034ec <Zweitpointertausch+0x4e>)
100033e6:	6801      	ldr	r1, [r0, #0]
100033e8:	4a41      	ldr	r2, [pc, #260]	; (100034f0 <Zweitpointertausch+0x52>)
100033ea:	4291      	cmp	r1, r2
100033ec:	d20f      	bcs.n	1000340e <allot_ram>
100033ee:	0032      	movs	r2, r6
100033f0:	cf40      	ldmia	r7!, {r6}
100033f2:	1889      	adds	r1, r1, r2
100033f4:	4a3f      	ldr	r2, [pc, #252]	; (100034f4 <Zweitpointertausch+0x56>)
100033f6:	4291      	cmp	r1, r2
100033f8:	d319      	bcc.n	1000342e <allot_ok>
100033fa:	f7ff fa61 	bl	100028c0 <dotgaensefuesschen>
100033fe:	616c460b 	cmnvs	ip, fp, lsl #12
10003402:	66206873 			; <UNDEFINED> instruction: 0x66206873
10003406:	0a6c6c75 	beq	11b1e5e2 <FlashDictionaryEnde+0x1b0d5e2>
1000340a:	f001 f907 	bl	1000461c <Code_962>

1000340e <allot_ram>:
1000340e:	0032      	movs	r2, r6
10003410:	cf40      	ldmia	r7!, {r6}
10003412:	1889      	adds	r1, r1, r2
10003414:	4a38      	ldr	r2, [pc, #224]	; (100034f8 <Zweitpointertausch+0x5a>)
10003416:	6812      	ldr	r2, [r2, #0]
10003418:	4291      	cmp	r1, r2
1000341a:	d308      	bcc.n	1000342e <allot_ok>
1000341c:	f7ff fa50 	bl	100028c0 <dotgaensefuesschen>
10003420:	6d615209 	sfmvs	f5, 2, [r1, #-36]!	; 0xffffffdc
10003424:	6c756620 	ldclvs	6, cr6, [r5], #-128	; 0xffffff80
10003428:	f0010a6c 			; <UNDEFINED> instruction: 0xf0010a6c
1000342c:	f8f7 6001 	ldr??.w	r6, [r7, #1]

1000342e <allot_ok>:
1000342e:	6001      	str	r1, [r0, #0]
10003430:	4770      	bx	lr
10003432:	46c0      	nop			; (mov r8, r8)

10003434 <Dictionary_609>:
10003434:	1000345c 	andne	r3, r0, ip, asr r4
10003438:	630d0000 	movwvs	r0, #53248	; 0xd000
1000343c:	69706d6f 	ldmdbvs	r0!, {r0, r1, r2, r3, r5, r6, r8, sl, fp, sp, lr}^
10003440:	6f74656c 	svcvs	0x0074656c
10003444:	3f6d6172 	svccc	0x006d6172

10003448 <Code_609>:
10003448:	3f04      	subs	r7, #4
1000344a:	603e      	str	r6, [r7, #0]
1000344c:	2600      	movs	r6, #0
1000344e:	4827      	ldr	r0, [pc, #156]	; (100034ec <Zweitpointertausch+0x4e>)
10003450:	6800      	ldr	r0, [r0, #0]
10003452:	4927      	ldr	r1, [pc, #156]	; (100034f0 <Zweitpointertausch+0x52>)
10003454:	4288      	cmp	r0, r1
10003456:	d348      	bcc.n	100034ea <Zweitpointertausch+0x4c>
10003458:	43f6      	mvns	r6, r6
1000345a:	4770      	bx	lr

1000345c <Dictionary_612>:
1000345c:	1000347c 	andne	r3, r0, ip, ror r4
10003460:	630c0000 	movwvs	r0, #49152	; 0xc000
10003464:	69706d6f 	ldmdbvs	r0!, {r0, r1, r2, r3, r5, r6, r8, sl, fp, sp, lr}^
10003468:	6f74656c 	svcvs	0x0074656c
1000346c:	006d6172 	rsbeq	r6, sp, r2, ror r1

10003470 <Code_612>:
10003470:	481e      	ldr	r0, [pc, #120]	; (100034ec <Zweitpointertausch+0x4e>)
10003472:	6800      	ldr	r0, [r0, #0]
10003474:	491e      	ldr	r1, [pc, #120]	; (100034f0 <Zweitpointertausch+0x52>)
10003476:	4288      	cmp	r0, r1
10003478:	d311      	bcc.n	1000349e <Zweitpointertausch>
1000347a:	4770      	bx	lr

1000347c <Dictionary_613>:
1000347c:	10003508 	andne	r3, r0, r8, lsl #10
10003480:	630e0000 	movwvs	r0, #57344	; 0xe000
10003484:	69706d6f 	ldmdbvs	r0!, {r0, r1, r2, r3, r5, r6, r8, sl, fp, sp, lr}^
10003488:	6f74656c 	svcvs	0x0074656c
1000348c:	73616c66 	cmnvc	r1, #26112	; 0x6600
10003490:	48160068 	ldmdami	r6, {r3, r5, r6}

10003492 <Code_613>:
10003492:	4816      	ldr	r0, [pc, #88]	; (100034ec <Zweitpointertausch+0x4e>)
10003494:	6800      	ldr	r0, [r0, #0]
10003496:	4916      	ldr	r1, [pc, #88]	; (100034f0 <Zweitpointertausch+0x52>)
10003498:	4288      	cmp	r0, r1
1000349a:	d200      	bcs.n	1000349e <Zweitpointertausch>
1000349c:	4770      	bx	lr

1000349e <Zweitpointertausch>:
1000349e:	4817      	ldr	r0, [pc, #92]	; (100034fc <Zweitpointertausch+0x5e>)
100034a0:	4917      	ldr	r1, [pc, #92]	; (10003500 <Zweitpointertausch+0x62>)
100034a2:	6802      	ldr	r2, [r0, #0]
100034a4:	680b      	ldr	r3, [r1, #0]
100034a6:	600a      	str	r2, [r1, #0]
100034a8:	6003      	str	r3, [r0, #0]
100034aa:	4810      	ldr	r0, [pc, #64]	; (100034ec <Zweitpointertausch+0x4e>)
100034ac:	4915      	ldr	r1, [pc, #84]	; (10003504 <Zweitpointertausch+0x66>)
100034ae:	6802      	ldr	r2, [r0, #0]
100034b0:	680b      	ldr	r3, [r1, #0]
100034b2:	600a      	str	r2, [r1, #0]
100034b4:	6003      	str	r3, [r0, #0]
100034b6:	4810      	ldr	r0, [pc, #64]	; (100034f8 <Zweitpointertausch+0x5a>)
100034b8:	6800      	ldr	r0, [r0, #0]
100034ba:	4283      	cmp	r3, r0
100034bc:	d315      	bcc.n	100034ea <Zweitpointertausch+0x4c>
100034be:	b500      	push	{lr}
100034c0:	f7ff f9fe 	bl	100028c0 <dotgaensefuesschen>
100034c4:	61562023 	cmpvs	r6, r3, lsr #32
100034c8:	62616972 	rsbvs	r6, r1, #1867776	; 0x1c8000
100034cc:	2073656c 	rsbscs	r6, r3, ip, ror #10
100034d0:	6c6c6f63 	stclvs	15, cr6, [ip], #-396	; 0xfffffe74
100034d4:	20656469 	rsbcs	r6, r5, r9, ror #8
100034d8:	68746977 	ldmdavs	r4!, {r0, r1, r2, r4, r5, r6, r8, fp, sp, lr}^
100034dc:	63696420 	cmnvs	r9, #536870912	; 0x20000000
100034e0:	6e6f6974 	mcrvs	9, 3, r6, cr15, cr4, {3}
100034e4:	0a797261 	beq	11e5fe70 <FlashDictionaryEnde+0x1e4ee70>
100034e8:	bd00      	pop	{pc}
100034ea:	4770      	bx	lr
100034ec:	200000f4 	strdcs	r0, [r0], -r4
100034f0:	200000f4 	strdcs	r0, [r0], -r4
100034f4:	10011000 	andne	r1, r1, r0
100034f8:	20000118 	andcs	r0, r0, r8, lsl r1
100034fc:	200000f8 	strdcs	r0, [r0], -r8
10003500:	20000110 	andcs	r0, r0, r0, lsl r1
10003504:	2000010c 	andcs	r0, r0, ip, lsl #2

10003508 <Dictionary_615>:
10003508:	10003604 	andne	r3, r0, r4, lsl #12
1000350c:	28080000 	stmdacs	r8, {}	; <UNPREDICTABLE>
10003510:	61657263 	cmnvs	r5, r3, ror #4
10003514:	00296574 	eoreq	r6, r9, r4, ror r5

10003518 <Code_615>:
10003518:	b500      	push	{lr}
1000351a:	f000 fd0d 	bl	10003f38 <Code_839>
1000351e:	2e00      	cmp	r6, #0
10003520:	d10e      	bne.n	10003540 <Code_615+0x28>
10003522:	f7ff f9cd 	bl	100028c0 <dotgaensefuesschen>
10003526:	72432015 	subvc	r2, r3, #21
1000352a:	65746165 	ldrbvs	r6, [r4, #-357]!	; 0x165
1000352e:	65656e20 	strbvs	r6, [r5, #-3616]!	; 0xe20
10003532:	6e207364 	cdpvs	3, 2, cr7, cr0, cr4, {3}
10003536:	20656d61 	rsbcs	r6, r5, r1, ror #26
1000353a:	f0010a21 			; <UNDEFINED> instruction: 0xf0010a21
1000353e:	f86e 6838 	str??.w	r6, [lr, <undefined>]
10003542:	3f04      	subs	r7, #4
10003544:	603e      	str	r6, [r7, #0]
10003546:	3f04      	subs	r7, #4
10003548:	6038      	str	r0, [r7, #0]
1000354a:	f000 f9ad 	bl	100038a8 <Code_680>
1000354e:	cf40      	ldmia	r7!, {r6}
10003550:	2e00      	cmp	r6, #0
10003552:	cf40      	ldmia	r7!, {r6}
10003554:	d011      	beq.n	1000357a <Code_615+0x62>
10003556:	6838      	ldr	r0, [r7, #0]
10003558:	3f04      	subs	r7, #4
1000355a:	603e      	str	r6, [r7, #0]
1000355c:	3f04      	subs	r7, #4
1000355e:	6038      	str	r0, [r7, #0]
10003560:	f7ff f9ae 	bl	100028c0 <dotgaensefuesschen>
10003564:	64655209 	strbtvs	r5, [r5], #-521	; 0x209
10003568:	6e696665 	cdpvs	6, 6, cr6, cr9, cr5, {3}
1000356c:	f7ff2065 			; <UNDEFINED> instruction: 0xf7ff2065
10003570:	fa07 f7ff 			; <UNDEFINED> instruction: 0xfa07f7ff
10003574:	f9a5 2e02 	vld3.8	{d2[]-d4[]}, [r5], r2
10003578:	f7ff000a 			; <UNDEFINED> instruction: 0xf7ff000a
1000357c:	fe9f 4892 	mrc2	8, 4, r4, cr15, cr2, {4}
10003580:	6800      	ldr	r0, [r0, #0]
10003582:	4992      	ldr	r1, [pc, #584]	; (100037cc <rambuffer_ram+0x48>)
10003584:	4288      	cmp	r0, r1
10003586:	d225      	bcs.n	100035d4 <create_ram>
10003588:	4891      	ldr	r0, [pc, #580]	; (100037d0 <rambuffer_ram+0x4c>)
1000358a:	2100      	movs	r1, #0
1000358c:	6001      	str	r1, [r0, #0]
1000358e:	f7ff fea9 	bl	100032e4 <Code_581>
10003592:	3f04      	subs	r7, #4
10003594:	603e      	str	r6, [r7, #0]
10003596:	260c      	movs	r6, #12
10003598:	f7ff ff24 	bl	100033e4 <Code_604>
1000359c:	f000 fa0e 	bl	100039bc <Code_702>
100035a0:	3f04      	subs	r7, #4
100035a2:	603e      	str	r6, [r7, #0]
100035a4:	2606      	movs	r6, #6
100035a6:	f7ff ff1d 	bl	100033e4 <Code_604>
100035aa:	f7fe f90b 	bl	100017c4 <Code_136>
100035ae:	f7ff fee6 	bl	1000337e <Code_596>
100035b2:	4888      	ldr	r0, [pc, #544]	; (100037d4 <rambuffer_ram+0x50>)
100035b4:	6801      	ldr	r1, [r0, #0]
100035b6:	680a      	ldr	r2, [r1, #0]
100035b8:	4b87      	ldr	r3, [pc, #540]	; (100037d8 <rambuffer_ram+0x54>)
100035ba:	429a      	cmp	r2, r3
100035bc:	d107      	bne.n	100035ce <Code_615+0xb6>
100035be:	4a82      	ldr	r2, [pc, #520]	; (100037c8 <rambuffer_ram+0x44>)
100035c0:	6813      	ldr	r3, [r2, #0]
100035c2:	6011      	str	r1, [r2, #0]
100035c4:	3f04      	subs	r7, #4
100035c6:	603e      	str	r6, [r7, #0]
100035c8:	f7ff feba 	bl	10003340 <Code_590>
100035cc:	6013      	str	r3, [r2, #0]
100035ce:	6006      	str	r6, [r0, #0]
100035d0:	cf40      	ldmia	r7!, {r6}
100035d2:	e012      	b.n	100035fa <create_ende>

100035d4 <create_ram>:
100035d4:	f000 f9f2 	bl	100039bc <Code_702>
100035d8:	487e      	ldr	r0, [pc, #504]	; (100037d4 <rambuffer_ram+0x50>)
100035da:	3f04      	subs	r7, #4
100035dc:	603e      	str	r6, [r7, #0]
100035de:	6806      	ldr	r6, [r0, #0]
100035e0:	f7ff feae 	bl	10003340 <Code_590>
100035e4:	3f04      	subs	r7, #4
100035e6:	603e      	str	r6, [r7, #0]
100035e8:	4e7c      	ldr	r6, [pc, #496]	; (100037dc <rambuffer_ram+0x58>)
100035ea:	f7ff fe8e 	bl	1000330a <Code_584>
100035ee:	4879      	ldr	r0, [pc, #484]	; (100037d4 <rambuffer_ram+0x50>)
100035f0:	0031      	movs	r1, r6
100035f2:	cf40      	ldmia	r7!, {r6}
100035f4:	6001      	str	r1, [r0, #0]
100035f6:	f7ff fec2 	bl	1000337e <Code_596>

100035fa <create_ende>:
100035fa:	4873      	ldr	r0, [pc, #460]	; (100037c8 <rambuffer_ram+0x44>)
100035fc:	6801      	ldr	r1, [r0, #0]
100035fe:	4878      	ldr	r0, [pc, #480]	; (100037e0 <rambuffer_ram+0x5c>)
10003600:	6001      	str	r1, [r0, #0]
10003602:	bd00      	pop	{pc}

10003604 <Dictionary_635>:
10003604:	1000361c 	andne	r3, r0, ip, lsl r6
10003608:	76080000 	strvc	r0, [r8], -r0
1000360c:	61697261 	cmnvs	r9, r1, ror #4
10003610:	00656c62 	rsbeq	r6, r5, r2, ror #24

10003614 <Code_635>:
10003614:	3f04      	subs	r7, #4
10003616:	603e      	str	r6, [r7, #0]
10003618:	2601      	movs	r6, #1
1000361a:	e013      	b.n	10003644 <Code_641>

1000361c <Dictionary_638>:
1000361c:	10003634 	andne	r3, r0, r4, lsr r6
10003620:	32090000 	andcc	r0, r9, #0
10003624:	69726176 	ldmdbvs	r2!, {r1, r2, r4, r5, r6, r8, sp, lr}^
10003628:	656c6261 	strbvs	r6, [ip, #-609]!	; 0x261

1000362c <Code_638>:
1000362c:	3f04      	subs	r7, #4
1000362e:	603e      	str	r6, [r7, #0]
10003630:	2602      	movs	r6, #2
10003632:	e007      	b.n	10003644 <Code_641>

10003634 <Dictionary_641>:
10003634:	1000370c 	andne	r3, r0, ip, lsl #14
10003638:	6e090000 	cdpvs	0, 0, cr0, cr9, cr0, {0}
1000363c:	69726176 	ldmdbvs	r2!, {r1, r2, r4, r5, r6, r8, sp, lr}^
10003640:	656c6261 	strbvs	r6, [ip, #-609]!	; 0x261

10003644 <Code_641>:
10003644:	b500      	push	{lr}
10003646:	f7ff ff67 	bl	10003518 <Code_615>
1000364a:	485f      	ldr	r0, [pc, #380]	; (100037c8 <rambuffer_ram+0x44>)
1000364c:	6801      	ldr	r1, [r0, #0]
1000364e:	4a5f      	ldr	r2, [pc, #380]	; (100037cc <rambuffer_ram+0x48>)
10003650:	4291      	cmp	r1, r2
10003652:	d233      	bcs.n	100036bc <variable_ram>
10003654:	200f      	movs	r0, #15
10003656:	4006      	ands	r6, r0
10003658:	00b2      	lsls	r2, r6, #2
1000365a:	4862      	ldr	r0, [pc, #392]	; (100037e4 <rambuffer_ram+0x60>)
1000365c:	6801      	ldr	r1, [r0, #0]
1000365e:	1a89      	subs	r1, r1, r2
10003660:	4a61      	ldr	r2, [pc, #388]	; (100037e8 <rambuffer_ram+0x64>)
10003662:	4291      	cmp	r1, r2
10003664:	d20b      	bcs.n	1000367e <Code_641+0x3a>
10003666:	f7ff f92b 	bl	100028c0 <dotgaensefuesschen>
1000366a:	746f4e0f 	strbtvc	r4, [pc], #-3599	; 10003672 <Code_641+0x2e>
1000366e:	6f6e6520 	svcvs	0x006e6520
10003672:	20686775 	rsbcs	r6, r8, r5, ror r7
10003676:	0a4d4152 	beq	11353bc6 <FlashDictionaryEnde+0x1342bc6>
1000367a:	f000 ffcf 	bl	1000461c <Code_962>
1000367e:	6001      	str	r1, [r0, #0]
10003680:	3f04      	subs	r7, #4
10003682:	603e      	str	r6, [r7, #0]
10003684:	000e      	movs	r6, r1
10003686:	f7ff fb45 	bl	10002d14 <Code_473>
1000368a:	3f04      	subs	r7, #4
1000368c:	603e      	str	r6, [r7, #0]
1000368e:	4e57      	ldr	r6, [pc, #348]	; (100037ec <rambuffer_ram+0x68>)
10003690:	f7ff fe3b 	bl	1000330a <Code_584>
10003694:	0030      	movs	r0, r6
10003696:	cf40      	ldmia	r7!, {r6}
10003698:	0002      	movs	r2, r0
1000369a:	2800      	cmp	r0, #0
1000369c:	d005      	beq.n	100036aa <Code_641+0x66>
1000369e:	600e      	str	r6, [r1, #0]
100036a0:	3104      	adds	r1, #4
100036a2:	f7ff fe4d 	bl	10003340 <Code_590>
100036a6:	3801      	subs	r0, #1
100036a8:	d1f9      	bne.n	1000369e <Code_641+0x5a>
100036aa:	3f04      	subs	r7, #4
100036ac:	603e      	str	r6, [r7, #0]
100036ae:	2680      	movs	r6, #128	; 0x80
100036b0:	4316      	orrs	r6, r2
100036b2:	f7ff fdb9 	bl	10003228 <Code_574>
100036b6:	f7ff fd84 	bl	100031c2 <Code_568>
100036ba:	bd00      	pop	{pc}

100036bc <variable_ram>:
100036bc:	f000 f97e 	bl	100039bc <Code_702>
100036c0:	2002      	movs	r0, #2
100036c2:	4006      	ands	r6, r0
100036c4:	cf40      	ldmia	r7!, {r6}
100036c6:	d104      	bne.n	100036d2 <variable_ram+0x16>
100036c8:	3f04      	subs	r7, #4
100036ca:	603e      	str	r6, [r7, #0]
100036cc:	2636      	movs	r6, #54	; 0x36
100036ce:	f7ff fe1c 	bl	1000330a <Code_584>
100036d2:	3f04      	subs	r7, #4
100036d4:	603e      	str	r6, [r7, #0]
100036d6:	4e46      	ldr	r6, [pc, #280]	; (100037f0 <rambuffer_ram+0x6c>)
100036d8:	f7ff fe41 	bl	1000335e <Code_593>
100036dc:	3f04      	subs	r7, #4
100036de:	603e      	str	r6, [r7, #0]
100036e0:	4e44      	ldr	r6, [pc, #272]	; (100037f4 <rambuffer_ram+0x70>)
100036e2:	f7ff fe3c 	bl	1000335e <Code_593>
100036e6:	3f04      	subs	r7, #4
100036e8:	603e      	str	r6, [r7, #0]
100036ea:	4e40      	ldr	r6, [pc, #256]	; (100037ec <rambuffer_ram+0x68>)
100036ec:	f7ff fe0d 	bl	1000330a <Code_584>
100036f0:	0030      	movs	r0, r6
100036f2:	cf40      	ldmia	r7!, {r6}
100036f4:	2800      	cmp	r0, #0
100036f6:	d003      	beq.n	10003700 <variable_ram+0x44>
100036f8:	f7ff fe22 	bl	10003340 <Code_590>
100036fc:	3801      	subs	r0, #1
100036fe:	d1fb      	bne.n	100036f8 <variable_ram+0x3c>
10003700:	f7ff fcc7 	bl	10003092 <Code_539>
10003704:	f7ff fd5d 	bl	100031c2 <Code_568>
10003708:	bd00      	pop	{pc}
1000370a:	46c0      	nop			; (mov r8, r8)

1000370c <Dictionary_658>:
1000370c:	100037fc 	strdne	r3, [r0], -ip
10003710:	62070000 	andvs	r0, r7, #0
10003714:	65666675 	strbvs	r6, [r6, #-1653]!	; 0x675
10003718:	b5003a72 	strlt	r3, [r0, #-2674]	; 0xa72

1000371a <Code_658>:
1000371a:	b500      	push	{lr}
1000371c:	f7ff fefc 	bl	10003518 <Code_615>
10003720:	2001      	movs	r0, #1
10003722:	4030      	ands	r0, r6
10003724:	1836      	adds	r6, r6, r0
10003726:	2002      	movs	r0, #2
10003728:	4030      	ands	r0, r6
1000372a:	1836      	adds	r6, r6, r0
1000372c:	4826      	ldr	r0, [pc, #152]	; (100037c8 <rambuffer_ram+0x44>)
1000372e:	6801      	ldr	r1, [r0, #0]
10003730:	4a26      	ldr	r2, [pc, #152]	; (100037cc <rambuffer_ram+0x48>)
10003732:	4291      	cmp	r1, r2
10003734:	d226      	bcs.n	10003784 <rambuffer_ram>
10003736:	482b      	ldr	r0, [pc, #172]	; (100037e4 <rambuffer_ram+0x60>)
10003738:	6801      	ldr	r1, [r0, #0]
1000373a:	1b89      	subs	r1, r1, r6
1000373c:	4a2a      	ldr	r2, [pc, #168]	; (100037e8 <rambuffer_ram+0x64>)
1000373e:	4291      	cmp	r1, r2
10003740:	d20b      	bcs.n	1000375a <Code_658+0x40>
10003742:	f7ff f8bd 	bl	100028c0 <dotgaensefuesschen>
10003746:	746f4e0f 	strbtvc	r4, [pc], #-3599	; 1000374e <Code_658+0x34>
1000374a:	6f6e6520 	svcvs	0x006e6520
1000374e:	20686775 	rsbcs	r6, r8, r5, ror r7
10003752:	0a4d4152 	beq	11353ca2 <FlashDictionaryEnde+0x1342ca2>
10003756:	f000 ff61 	bl	1000461c <Code_962>
1000375a:	6001      	str	r1, [r0, #0]
1000375c:	3f04      	subs	r7, #4
1000375e:	603e      	str	r6, [r7, #0]
10003760:	000e      	movs	r6, r1
10003762:	f7ff fad7 	bl	10002d14 <Code_473>
10003766:	3f04      	subs	r7, #4
10003768:	603e      	str	r6, [r7, #0]
1000376a:	4e20      	ldr	r6, [pc, #128]	; (100037ec <rambuffer_ram+0x68>)
1000376c:	f7ff fdcd 	bl	1000330a <Code_584>
10003770:	f7ff fde6 	bl	10003340 <Code_590>
10003774:	3f04      	subs	r7, #4
10003776:	603e      	str	r6, [r7, #0]
10003778:	4e1f      	ldr	r6, [pc, #124]	; (100037f8 <rambuffer_ram+0x74>)
1000377a:	f7ff fd55 	bl	10003228 <Code_574>
1000377e:	f7ff fd20 	bl	100031c2 <Code_568>
10003782:	bd00      	pop	{pc}

10003784 <rambuffer_ram>:
10003784:	f000 f91a 	bl	100039bc <Code_702>
10003788:	2002      	movs	r0, #2
1000378a:	4006      	ands	r6, r0
1000378c:	cf40      	ldmia	r7!, {r6}
1000378e:	d104      	bne.n	1000379a <rambuffer_ram+0x16>
10003790:	3f04      	subs	r7, #4
10003792:	603e      	str	r6, [r7, #0]
10003794:	2636      	movs	r6, #54	; 0x36
10003796:	f7ff fdb8 	bl	1000330a <Code_584>
1000379a:	3f04      	subs	r7, #4
1000379c:	603e      	str	r6, [r7, #0]
1000379e:	4e14      	ldr	r6, [pc, #80]	; (100037f0 <rambuffer_ram+0x6c>)
100037a0:	f7ff fddd 	bl	1000335e <Code_593>
100037a4:	3f04      	subs	r7, #4
100037a6:	603e      	str	r6, [r7, #0]
100037a8:	4e12      	ldr	r6, [pc, #72]	; (100037f4 <rambuffer_ram+0x70>)
100037aa:	f7ff fdd8 	bl	1000335e <Code_593>
100037ae:	3f04      	subs	r7, #4
100037b0:	603e      	str	r6, [r7, #0]
100037b2:	4e0e      	ldr	r6, [pc, #56]	; (100037ec <rambuffer_ram+0x68>)
100037b4:	f7ff fda9 	bl	1000330a <Code_584>
100037b8:	f7ff fe14 	bl	100033e4 <Code_604>
100037bc:	f7ff fc69 	bl	10003092 <Code_539>
100037c0:	f7ff fcff 	bl	100031c2 <Code_568>
100037c4:	bd00      	pop	{pc}
100037c6:	00f40000 	rscseq	r0, r4, r0
100037ca:	00f42000 	rscseq	r2, r4, r0
100037ce:	01142000 	tsteq	r4, r0
100037d2:	00f82000 	rscseq	r2, r8, r0
100037d6:	ffff2000 			; <UNDEFINED> instruction: 0xffff2000
100037da:	ffffffff 			; <UNDEFINED> instruction: 0xffffffff
100037de:	01080000 	mrseq	r0, (UNDEF: 8)
100037e2:	01182000 	tsteq	r8, r0
100037e6:	07c82000 	strbeq	r2, [r8, r0]
100037ea:	47702000 	ldrbmi	r2, [r0, -r0]!
100037ee:	603e0000 	eorsvs	r0, lr, r0
100037f2:	36023f04 	strcc	r3, [r2], -r4, lsl #30
100037f6:	0140467e 	hvceq	1134	; 0x46e
	...

100037fc <Dictionary_673>:
100037fc:	1000382c 	andne	r3, r0, ip, lsr #16
10003800:	640f0000 	strvs	r0, [pc], #0	; 10003808 <Dictionary_673+0xc>
10003804:	69746369 	ldmdbvs	r4!, {r0, r3, r5, r6, r8, r9, sp, lr}^
10003808:	72616e6f 	rsbvc	r6, r1, #1776	; 0x6f0
1000380c:	61747379 	cmnvs	r4, r9, ror r3
10003810:	48eb7472 	stmiami	fp!, {r1, r4, r5, r6, sl, ip, sp, lr}^

10003812 <Code_673>:
10003812:	48eb      	ldr	r0, [pc, #940]	; (10003bc0 <Code_749+0x10>)
10003814:	6800      	ldr	r0, [r0, #0]
10003816:	49eb      	ldr	r1, [pc, #940]	; (10003bc4 <Code_749+0x14>)
10003818:	3f04      	subs	r7, #4
1000381a:	603e      	str	r6, [r7, #0]
1000381c:	4288      	cmp	r0, r1
1000381e:	d201      	bcs.n	10003824 <Code_673+0x12>
10003820:	4ee9      	ldr	r6, [pc, #932]	; (10003bc8 <Code_749+0x18>)
10003822:	4770      	bx	lr
10003824:	4ee9      	ldr	r6, [pc, #932]	; (10003bcc <Code_749+0x1c>)
10003826:	6836      	ldr	r6, [r6, #0]
10003828:	4770      	bx	lr
1000382a:	46c0      	nop			; (mov r8, r8)

1000382c <Dictionary_675>:
1000382c:	10003868 	andne	r3, r0, r8, ror #16
10003830:	640e0000 	strvs	r0, [lr]
10003834:	69746369 	ldmdbvs	r4!, {r0, r3, r5, r6, r8, r9, sp, lr}^
10003838:	72616e6f 	rsbvc	r6, r1, #1776	; 0x6f0
1000383c:	78656e79 	stmdavc	r5!, {r0, r3, r4, r5, r6, r9, sl, fp, sp, lr}^
10003840:	b5030074 	strlt	r0, [r3, #-116]	; 0x74

10003842 <Code_675>:
10003842:	b503      	push	{r0, r1, lr}
10003844:	6831      	ldr	r1, [r6, #0]
10003846:	48e2      	ldr	r0, [pc, #904]	; (10003bd0 <Code_749+0x20>)
10003848:	4281      	cmp	r1, r0
1000384a:	d007      	beq.n	1000385c <Code_675+0x1a>
1000384c:	7988      	ldrb	r0, [r1, #6]
1000384e:	28ff      	cmp	r0, #255	; 0xff
10003850:	d004      	beq.n	1000385c <Code_675+0x1a>
10003852:	000e      	movs	r6, r1
10003854:	3f04      	subs	r7, #4
10003856:	603e      	str	r6, [r7, #0]
10003858:	2600      	movs	r6, #0
1000385a:	bd03      	pop	{r0, r1, pc}
1000385c:	3f04      	subs	r7, #4
1000385e:	603e      	str	r6, [r7, #0]
10003860:	2600      	movs	r6, #0
10003862:	43f6      	mvns	r6, r6
10003864:	bd03      	pop	{r0, r1, pc}
10003866:	46c0      	nop			; (mov r8, r8)

10003868 <Dictionary_679>:
10003868:	1000389c 	mulne	r0, ip, r8
1000386c:	730a0000 	movwvc	r0, #40960	; 0xa000
10003870:	7370696b 	cmnvc	r0, #1753088	; 0x1ac000
10003874:	6e697274 	mcrvs	2, 3, r7, cr9, cr4, {3}
10003878:	78310067 	ldmdavc	r1!, {r0, r1, r2, r5, r6}

1000387a <Code_679>:
1000387a:	7831      	ldrb	r1, [r6, #0]
1000387c:	3101      	adds	r1, #1
1000387e:	2201      	movs	r2, #1
10003880:	400a      	ands	r2, r1
10003882:	1889      	adds	r1, r1, r2
10003884:	1876      	adds	r6, r6, r1
10003886:	4770      	bx	lr

10003888 <skipstring>:
10003888:	b406      	push	{r1, r2}
1000388a:	7801      	ldrb	r1, [r0, #0]
1000388c:	3101      	adds	r1, #1
1000388e:	2201      	movs	r2, #1
10003890:	400a      	ands	r2, r1
10003892:	1889      	adds	r1, r1, r2
10003894:	1840      	adds	r0, r0, r1
10003896:	bc06      	pop	{r1, r2}
10003898:	4770      	bx	lr
1000389a:	46c0      	nop			; (mov r8, r8)

1000389c <Dictionary_680>:
1000389c:	1000391c 	andne	r3, r0, ip, lsl r9
100038a0:	66040000 	strvs	r0, [r4], -r0
100038a4:	00646e69 	rsbeq	r6, r4, r9, ror #28

100038a8 <Code_680>:
100038a8:	b53f      	push	{r0, r1, r2, r3, r4, r5, lr}
100038aa:	2200      	movs	r2, #0
100038ac:	2300      	movs	r3, #0
100038ae:	0035      	movs	r5, r6
100038b0:	cf40      	ldmia	r7!, {r6}
100038b2:	0034      	movs	r4, r6
100038b4:	cf40      	ldmia	r7!, {r6}
100038b6:	f7ff ffac 	bl	10003812 <Code_673>
100038ba:	48c6      	ldr	r0, [pc, #792]	; (10003bd4 <Code_749+0x24>)
100038bc:	88b1      	ldrh	r1, [r6, #4]
100038be:	4288      	cmp	r0, r1
100038c0:	d017      	beq.n	100038f2 <Code_680+0x4a>
100038c2:	3f04      	subs	r7, #4
100038c4:	603e      	str	r6, [r7, #0]
100038c6:	3606      	adds	r6, #6
100038c8:	f7ff f83a 	bl	10002940 <Code_390>
100038cc:	3f04      	subs	r7, #4
100038ce:	603e      	str	r6, [r7, #0]
100038d0:	0026      	movs	r6, r4
100038d2:	3f04      	subs	r7, #4
100038d4:	603e      	str	r6, [r7, #0]
100038d6:	002e      	movs	r6, r5
100038d8:	f7fe ff65 	bl	100027a6 <Code_352>
100038dc:	2e00      	cmp	r6, #0
100038de:	cf40      	ldmia	r7!, {r6}
100038e0:	d007      	beq.n	100038f2 <Code_680+0x4a>
100038e2:	1db0      	adds	r0, r6, #6
100038e4:	f7ff ffd0 	bl	10003888 <skipstring>
100038e8:	0002      	movs	r2, r0
100038ea:	000b      	movs	r3, r1
100038ec:	48b5      	ldr	r0, [pc, #724]	; (10003bc4 <Code_749+0x14>)
100038ee:	4282      	cmp	r2, r0
100038f0:	d204      	bcs.n	100038fc <Code_680+0x54>
100038f2:	f7ff ffa6 	bl	10003842 <Code_675>
100038f6:	0030      	movs	r0, r6
100038f8:	cf40      	ldmia	r7!, {r6}
100038fa:	d0de      	beq.n	100038ba <Code_680+0x12>
100038fc:	0016      	movs	r6, r2
100038fe:	3f04      	subs	r7, #4
10003900:	603e      	str	r6, [r7, #0]
10003902:	001e      	movs	r6, r3
10003904:	bd3f      	pop	{r0, r1, r2, r3, r4, r5, pc}

10003906 <find_not_found>:
10003906:	b500      	push	{lr}
10003908:	0031      	movs	r1, r6
1000390a:	6838      	ldr	r0, [r7, #0]
1000390c:	f7ff ffcc 	bl	100038a8 <Code_680>
10003910:	683a      	ldr	r2, [r7, #0]
10003912:	2a00      	cmp	r2, #0
10003914:	d101      	bne.n	1000391a <find_not_found+0x14>
10003916:	f000 fd79 	bl	1000440c <not_found_addr_r0_len_r1>
1000391a:	bd00      	pop	{pc}

1000391c <Dictionary_693>:
1000391c:	10003978 	andne	r3, r0, r8, ror r9
10003920:	63060000 	movwvs	r0, #24576	; 0x6000
10003924:	706d756a 	rsbvc	r7, sp, sl, ror #10
10003928:	0032002c 	eorseq	r0, r2, ip, lsr #32

1000392a <Code_693>:
1000392a:	0032      	movs	r2, r6
1000392c:	cf40      	ldmia	r7!, {r6}
1000392e:	0031      	movs	r1, r6
10003930:	cf40      	ldmia	r7!, {r6}
10003932:	1b8b      	subs	r3, r1, r6
10003934:	3b04      	subs	r3, #4
10003936:	49a8      	ldr	r1, [pc, #672]	; (10003bd8 <Code_749+0x28>)
10003938:	4019      	ands	r1, r3
1000393a:	2900      	cmp	r1, #0
1000393c:	d00d      	beq.n	1000395a <jump_too_far+0x16>
1000393e:	48a7      	ldr	r0, [pc, #668]	; (10003bdc <Code_749+0x2c>)
10003940:	4281      	cmp	r1, r0
10003942:	d00a      	beq.n	1000395a <jump_too_far+0x16>

10003944 <jump_too_far>:
10003944:	f7fe ffbc 	bl	100028c0 <dotgaensefuesschen>
10003948:	6d754a0d 	vldmdbvs	r5!, {s9-s21}
1000394c:	6f742070 	svcvs	0x00742070
10003950:	6166206f 	cmnvs	r6, pc, rrx
10003954:	f0000a72 			; <UNDEFINED> instruction: 0xf0000a72
10003958:	fe61 105b 	mcr2	0, 3, r1, cr1, cr11, {2}
1000395c:	21ff      	movs	r1, #255	; 0xff
1000395e:	400b      	ands	r3, r1
10003960:	4313      	orrs	r3, r2
10003962:	0030      	movs	r0, r6
10003964:	001e      	movs	r6, r3

10003966 <sprungbefehl_einfuegen>:
10003966:	b500      	push	{lr}
10003968:	4a95      	ldr	r2, [pc, #596]	; (10003bc0 <Code_749+0x10>)
1000396a:	6813      	ldr	r3, [r2, #0]
1000396c:	6010      	str	r0, [r2, #0]
1000396e:	f7ff fccc 	bl	1000330a <Code_584>
10003972:	6013      	str	r3, [r2, #0]
10003974:	bd00      	pop	{pc}
10003976:	46c0      	nop			; (mov r8, r8)

10003978 <Dictionary_697>:
10003978:	100039b0 			; <UNDEFINED> instruction: 0x100039b0
1000397c:	6a050000 	bvs	10143984 <FlashDictionaryEnde+0x132984>
10003980:	2c706d75 	ldclcs	13, cr6, [r0], #-468	; 0xfffffe2c

10003984 <Code_697>:
10003984:	0031      	movs	r1, r6
10003986:	cf40      	ldmia	r7!, {r6}
10003988:	0030      	movs	r0, r6
1000398a:	cf40      	ldmia	r7!, {r6}
1000398c:	1a0b      	subs	r3, r1, r0
1000398e:	3b04      	subs	r3, #4
10003990:	4993      	ldr	r1, [pc, #588]	; (10003be0 <Code_749+0x30>)
10003992:	4019      	ands	r1, r3
10003994:	2900      	cmp	r1, #0
10003996:	d002      	beq.n	1000399e <Code_697+0x1a>
10003998:	4a92      	ldr	r2, [pc, #584]	; (10003be4 <Code_749+0x34>)
1000399a:	4291      	cmp	r1, r2
1000399c:	d1d2      	bne.n	10003944 <jump_too_far>
1000399e:	105b      	asrs	r3, r3, #1
100039a0:	4a91      	ldr	r2, [pc, #580]	; (10003be8 <Code_749+0x38>)
100039a2:	4013      	ands	r3, r2
100039a4:	4a91      	ldr	r2, [pc, #580]	; (10003bec <Code_749+0x3c>)
100039a6:	4313      	orrs	r3, r2
100039a8:	3f04      	subs	r7, #4
100039aa:	603e      	str	r6, [r7, #0]
100039ac:	001e      	movs	r6, r3
100039ae:	e7da      	b.n	10003966 <sprungbefehl_einfuegen>

100039b0 <Dictionary_702>:
100039b0:	100039c8 	andne	r3, r0, r8, asr #19
100039b4:	68040000 	stmdavs	r4, {}	; <UNPREDICTABLE>
100039b8:	00657265 	rsbeq	r7, r5, r5, ror #4

100039bc <Code_702>:
100039bc:	3f04      	subs	r7, #4
100039be:	603e      	str	r6, [r7, #0]
100039c0:	4e7f      	ldr	r6, [pc, #508]	; (10003bc0 <Code_749+0x10>)
100039c2:	6836      	ldr	r6, [r6, #0]
100039c4:	4770      	bx	lr
100039c6:	46c0      	nop			; (mov r8, r8)

100039c8 <Dictionary_704>:
100039c8:	10003ab8 			; <UNDEFINED> instruction: 0x10003ab8
100039cc:	660d0000 	strvs	r0, [sp], -r0
100039d0:	6873616c 	ldmdavs	r3!, {r2, r3, r5, r6, r8, sp, lr}^
100039d4:	2d726176 	ldfcse	f6, [r2, #-472]!	; 0xfffffe28
100039d8:	65726568 	ldrbvs	r6, [r2, #-1384]!	; 0x568

100039dc <Code_704>:
100039dc:	3f04      	subs	r7, #4
100039de:	603e      	str	r6, [r7, #0]
100039e0:	4e83      	ldr	r6, [pc, #524]	; (10003bf0 <Code_749+0x40>)
100039e2:	6836      	ldr	r6, [r6, #0]
100039e4:	4770      	bx	lr

100039e6 <nullprobekomma>:
100039e6:	b500      	push	{lr}
100039e8:	3f04      	subs	r7, #4
100039ea:	603e      	str	r6, [r7, #0]
100039ec:	4e81      	ldr	r6, [pc, #516]	; (10003bf4 <Code_749+0x44>)
100039ee:	f7ff fc8c 	bl	1000330a <Code_584>
100039f2:	3f04      	subs	r7, #4
100039f4:	603e      	str	r6, [r7, #0]
100039f6:	4e80      	ldr	r6, [pc, #512]	; (10003bf8 <Code_749+0x48>)
100039f8:	f7ff fc87 	bl	1000330a <Code_584>
100039fc:	bd00      	pop	{pc}

100039fe <branch_r>:
100039fe:	e7dd      	b.n	100039bc <Code_702>

10003a00 <r_branch_jne>:
10003a00:	b500      	push	{lr}
10003a02:	f000 f837 	bl	10003a74 <branch_v>
10003a06:	6839      	ldr	r1, [r7, #0]
10003a08:	603e      	str	r6, [r7, #0]
10003a0a:	460e      	mov	r6, r1
10003a0c:	3f04      	subs	r7, #4
10003a0e:	603e      	str	r6, [r7, #0]
10003a10:	4e7a      	ldr	r6, [pc, #488]	; (10003bfc <Code_749+0x4c>)
10003a12:	f7ff ff8a 	bl	1000392a <Code_693>
10003a16:	bd00      	pop	{pc}

10003a18 <r_branch_jvc>:
10003a18:	b500      	push	{lr}
10003a1a:	f000 f82b 	bl	10003a74 <branch_v>
10003a1e:	6839      	ldr	r1, [r7, #0]
10003a20:	603e      	str	r6, [r7, #0]
10003a22:	460e      	mov	r6, r1
10003a24:	3f04      	subs	r7, #4
10003a26:	603e      	str	r6, [r7, #0]
10003a28:	4e75      	ldr	r6, [pc, #468]	; (10003c00 <Code_749+0x50>)
10003a2a:	f7ff ff7e 	bl	1000392a <Code_693>
10003a2e:	bd00      	pop	{pc}

10003a30 <r_nullbranch>:
10003a30:	b500      	push	{lr}
10003a32:	f7ff ffd8 	bl	100039e6 <nullprobekomma>
10003a36:	f000 f81d 	bl	10003a74 <branch_v>
10003a3a:	6839      	ldr	r1, [r7, #0]
10003a3c:	603e      	str	r6, [r7, #0]
10003a3e:	460e      	mov	r6, r1
10003a40:	3f04      	subs	r7, #4
10003a42:	603e      	str	r6, [r7, #0]
10003a44:	4e6f      	ldr	r6, [pc, #444]	; (10003c04 <Code_749+0x54>)
10003a46:	f7ff ff70 	bl	1000392a <Code_693>
10003a4a:	bd00      	pop	{pc}

10003a4c <r_branch>:
10003a4c:	b500      	push	{lr}
10003a4e:	f000 f811 	bl	10003a74 <branch_v>
10003a52:	6839      	ldr	r1, [r7, #0]
10003a54:	603e      	str	r6, [r7, #0]
10003a56:	460e      	mov	r6, r1
10003a58:	f7ff ff94 	bl	10003984 <Code_697>
10003a5c:	bd00      	pop	{pc}

10003a5e <nullbranch_v>:
10003a5e:	b500      	push	{lr}
10003a60:	f7ff ffc1 	bl	100039e6 <nullprobekomma>
10003a64:	f7ff ffaa 	bl	100039bc <Code_702>
10003a68:	3f04      	subs	r7, #4
10003a6a:	603e      	str	r6, [r7, #0]
10003a6c:	2602      	movs	r6, #2
10003a6e:	f7ff fcb9 	bl	100033e4 <Code_604>
10003a72:	bd00      	pop	{pc}

10003a74 <branch_v>:
10003a74:	b500      	push	{lr}
10003a76:	f7ff ffa1 	bl	100039bc <Code_702>
10003a7a:	3f04      	subs	r7, #4
10003a7c:	603e      	str	r6, [r7, #0]
10003a7e:	2602      	movs	r6, #2
10003a80:	f7ff fcb0 	bl	100033e4 <Code_604>
10003a84:	bd00      	pop	{pc}

10003a86 <v_branch>:
10003a86:	b500      	push	{lr}
10003a88:	f7ff ff98 	bl	100039bc <Code_702>
10003a8c:	f7ff ff7a 	bl	10003984 <Code_697>
10003a90:	bd00      	pop	{pc}

10003a92 <v_nullbranch>:
10003a92:	b500      	push	{lr}
10003a94:	f7ff ff92 	bl	100039bc <Code_702>
10003a98:	3f04      	subs	r7, #4
10003a9a:	603e      	str	r6, [r7, #0]
10003a9c:	4e59      	ldr	r6, [pc, #356]	; (10003c04 <Code_749+0x54>)
10003a9e:	f7ff ff44 	bl	1000392a <Code_693>
10003aa2:	bd00      	pop	{pc}

10003aa4 <v_casebranch>:
10003aa4:	b500      	push	{lr}
10003aa6:	f7ff ff89 	bl	100039bc <Code_702>
10003aaa:	3f04      	subs	r7, #4
10003aac:	603e      	str	r6, [r7, #0]
10003aae:	4e53      	ldr	r6, [pc, #332]	; (10003bfc <Code_749+0x4c>)
10003ab0:	f7ff ff3b 	bl	1000392a <Code_693>
10003ab4:	bd00      	pop	{pc}
10003ab6:	46c0      	nop			; (mov r8, r8)

10003ab8 <Dictionary_728>:
10003ab8:	10003af4 	strdne	r3, [r0], -r4
10003abc:	74040030 	strvc	r0, [r4], #-48	; 0x30
10003ac0:	006e6568 	rsbeq	r6, lr, r8, ror #10

10003ac4 <Code_728>:
10003ac4:	2e05      	cmp	r6, #5
10003ac6:	d101      	bne.n	10003acc <Code_728+0x8>
10003ac8:	cf40      	ldmia	r7!, {r6}
10003aca:	e7dc      	b.n	10003a86 <v_branch>
10003acc:	2e02      	cmp	r6, #2
10003ace:	d101      	bne.n	10003ad4 <strukturen_passen_nicht>
10003ad0:	cf40      	ldmia	r7!, {r6}
10003ad2:	e7de      	b.n	10003a92 <v_nullbranch>

10003ad4 <strukturen_passen_nicht>:
10003ad4:	f7fe fef4 	bl	100028c0 <dotgaensefuesschen>
10003ad8:	72745317 	rsbsvc	r5, r4, #1543503872	; 0x5c000000
10003adc:	75746375 	ldrbvc	r6, [r4, #-885]!	; 0x375
10003ae0:	20736572 	rsbscs	r6, r3, r2, ror r5
10003ae4:	276e6f64 	strbcs	r6, [lr, -r4, ror #30]!
10003ae8:	616d2074 	smcvs	53764	; 0xd204
10003aec:	0a686374 	beq	11a1c8c4 <FlashDictionaryEnde+0x1a0b8c4>
10003af0:	f000 fd94 	bl	1000461c <Code_962>

10003af4 <Dictionary_732>:
10003af4:	10003b20 	andne	r3, r0, r0, lsr #22
10003af8:	65040030 	strvs	r0, [r4, #-48]	; 0x30
10003afc:	0065736c 	rsbeq	r7, r5, ip, ror #6

10003b00 <Code_732>:
10003b00:	b500      	push	{lr}
10003b02:	2e02      	cmp	r6, #2
10003b04:	d1e6      	bne.n	10003ad4 <strukturen_passen_nicht>
10003b06:	cf40      	ldmia	r7!, {r6}
10003b08:	f7ff ffb4 	bl	10003a74 <branch_v>
10003b0c:	6839      	ldr	r1, [r7, #0]
10003b0e:	603e      	str	r6, [r7, #0]
10003b10:	460e      	mov	r6, r1
10003b12:	f7ff ffbe 	bl	10003a92 <v_nullbranch>
10003b16:	3f04      	subs	r7, #4
10003b18:	603e      	str	r6, [r7, #0]
10003b1a:	2605      	movs	r6, #5
10003b1c:	bd00      	pop	{pc}
10003b1e:	46c0      	nop			; (mov r8, r8)

10003b20 <Dictionary_737>:
10003b20:	10003b38 	andne	r3, r0, r8, lsr fp
10003b24:	69020030 	stmdbvs	r2, {r4, r5}
10003b28:	b5000066 	strlt	r0, [r0, #-102]	; 0x66

10003b2a <Code_737>:
10003b2a:	b500      	push	{lr}
10003b2c:	f7ff ff97 	bl	10003a5e <nullbranch_v>
10003b30:	3f04      	subs	r7, #4
10003b32:	603e      	str	r6, [r7, #0]
10003b34:	2602      	movs	r6, #2
10003b36:	bd00      	pop	{pc}

10003b38 <Dictionary_740>:
10003b38:	10003b60 	andne	r3, r0, r0, ror #22
10003b3c:	72060030 	andvc	r0, r6, #48	; 0x30
10003b40:	61657065 	cmnvs	r5, r5, rrx
10003b44:	2e040074 	mcrcs	0, 0, r0, cr4, cr4, {3}

10003b46 <Code_740>:
10003b46:	2e04      	cmp	r6, #4
10003b48:	d1c4      	bne.n	10003ad4 <strukturen_passen_nicht>
10003b4a:	cf40      	ldmia	r7!, {r6}
10003b4c:	6839      	ldr	r1, [r7, #0]
10003b4e:	603e      	str	r6, [r7, #0]
10003b50:	460e      	mov	r6, r1
10003b52:	b500      	push	{lr}
10003b54:	f7ff ff7a 	bl	10003a4c <r_branch>
10003b58:	f7ff ff9b 	bl	10003a92 <v_nullbranch>
10003b5c:	bd00      	pop	{pc}
10003b5e:	46c0      	nop			; (mov r8, r8)

10003b60 <Dictionary_743>:
10003b60:	10003b7c 	andne	r3, r0, ip, ror fp
10003b64:	77050030 	smladxvc	r5, r0, r0, r0
10003b68:	656c6968 	strbvs	r6, [ip, #-2408]!	; 0x968

10003b6c <Code_743>:
10003b6c:	2e01      	cmp	r6, #1
10003b6e:	d1b1      	bne.n	10003ad4 <strukturen_passen_nicht>
10003b70:	cf40      	ldmia	r7!, {r6}
10003b72:	b500      	push	{lr}
10003b74:	f7ff ffd9 	bl	10003b2a <Code_737>
10003b78:	3602      	adds	r6, #2
10003b7a:	bd00      	pop	{pc}

10003b7c <Dictionary_745>:
10003b7c:	10003b90 	mulne	r0, r0, fp
10003b80:	75050030 	strvc	r0, [r5, #-48]	; 0x30
10003b84:	6c69746e 	cfstrdvs	mvd7, [r9], #-440	; 0xfffffe48

10003b88 <Code_745>:
10003b88:	2e01      	cmp	r6, #1
10003b8a:	d1a3      	bne.n	10003ad4 <strukturen_passen_nicht>
10003b8c:	cf40      	ldmia	r7!, {r6}
10003b8e:	e74f      	b.n	10003a30 <r_nullbranch>

10003b90 <Dictionary_747>:
10003b90:	10003ba4 	andne	r3, r0, r4, lsr #23
10003b94:	61050030 	tstvs	r5, r0, lsr r0
10003b98:	6e696167 	powvsez	f6, f1, f7

10003b9c <Code_747>:
10003b9c:	2e01      	cmp	r6, #1
10003b9e:	d199      	bne.n	10003ad4 <strukturen_passen_nicht>
10003ba0:	cf40      	ldmia	r7!, {r6}
10003ba2:	e753      	b.n	10003a4c <r_branch>

10003ba4 <Dictionary_749>:
10003ba4:	10003c08 	andne	r3, r0, r8, lsl #24
10003ba8:	62050030 	andvs	r0, r5, #48	; 0x30
10003bac:	6e696765 	cdpvs	7, 6, cr6, cr9, cr5, {3}

10003bb0 <Code_749>:
10003bb0:	b500      	push	{lr}
10003bb2:	f7ff ff24 	bl	100039fe <branch_r>
10003bb6:	3f04      	subs	r7, #4
10003bb8:	603e      	str	r6, [r7, #0]
10003bba:	2601      	movs	r6, #1
10003bbc:	bd00      	pop	{pc}
10003bbe:	00f40000 	rscseq	r0, r4, r0
10003bc2:	00f42000 	rscseq	r2, r4, r0
10003bc6:	10182000 	andsne	r2, r8, r0
10003bca:	00f81000 	rscseq	r1, r8, r0
10003bce:	ffff2000 			; <UNDEFINED> instruction: 0xffff2000
10003bd2:	ffffffff 			; <UNDEFINED> instruction: 0xffffffff
10003bd6:	ff010000 			; <UNDEFINED> instruction: 0xff010000
10003bda:	ff00ffff 			; <UNDEFINED> instruction: 0xff00ffff
10003bde:	f801ffff 			; <UNDEFINED> instruction: 0xf801ffff
10003be2:	f800ffff 			; <UNDEFINED> instruction: 0xf800ffff
10003be6:	07ffffff 			; <UNDEFINED> instruction: 0x07ffffff
10003bea:	e0000000 	and	r0, r0, r0
10003bee:	01180000 	tsteq	r8, r0
10003bf2:	2e002000 	cdpcs	0, 0, cr2, cr0, cr0, {0}
10003bf6:	cf400000 	svcgt	0x00400000
10003bfa:	d1000000 	mrsle	r0, (UNDEF: 0)
10003bfe:	d7000000 	strle	r0, [r0, -r0]
10003c02:	d0000000 	andle	r0, r0, r0
	...

10003c08 <Dictionary_752>:
10003c08:	10003c18 	andne	r3, r0, r8, lsl ip
10003c0c:	6b010020 	blvs	10043c94 <FlashDictionaryEnde+0x32c94>

10003c10 <Code_752>:
10003c10:	3f04      	subs	r7, #4
10003c12:	603e      	str	r6, [r7, #0]
10003c14:	9e02      	ldr	r6, [sp, #8]
10003c16:	4770      	bx	lr

10003c18 <Dictionary_754>:
10003c18:	10003c28 	andne	r3, r0, r8, lsr #24
10003c1c:	6a010020 	bvs	10043ca4 <FlashDictionaryEnde+0x32ca4>

10003c20 <Code_754>:
10003c20:	3f04      	subs	r7, #4
10003c22:	603e      	str	r6, [r7, #0]
10003c24:	9e00      	ldr	r6, [sp, #0]
10003c26:	4770      	bx	lr

10003c28 <Dictionary_756>:
10003c28:	10003c38 	andne	r3, r0, r8, lsr ip
10003c2c:	69010020 	stmdbvs	r1, {r5}

10003c30 <Code_756>:
10003c30:	3f04      	subs	r7, #4
10003c32:	603e      	str	r6, [r7, #0]
10003c34:	0026      	movs	r6, r4
10003c36:	4770      	bx	lr

10003c38 <Dictionary_759>:
10003c38:	10003c78 	andne	r3, r0, r8, ror ip
10003c3c:	6c050030 	stcvs	0, cr0, [r5], {48}	; 0x30
10003c40:	65766165 	ldrbvs	r6, [r6, #-357]!	; 0x165

10003c44 <Code_759>:
10003c44:	b500      	push	{lr}
10003c46:	48d4      	ldr	r0, [pc, #848]	; (10003f98 <Code_841+0x4c>)
10003c48:	6801      	ldr	r1, [r0, #0]
10003c4a:	003b      	movs	r3, r7
10003c4c:	3f04      	subs	r7, #4
10003c4e:	681a      	ldr	r2, [r3, #0]
10003c50:	3b04      	subs	r3, #4
10003c52:	601a      	str	r2, [r3, #0]
10003c54:	3308      	adds	r3, #8
10003c56:	428b      	cmp	r3, r1
10003c58:	d1f9      	bne.n	10003c4e <Code_759+0xa>
10003c5a:	b403      	push	{r0, r1}
10003c5c:	f7ff ff0a 	bl	10003a74 <branch_v>
10003c60:	bc03      	pop	{r0, r1}
10003c62:	0033      	movs	r3, r6
10003c64:	cf40      	ldmia	r7!, {r6}
10003c66:	3904      	subs	r1, #4
10003c68:	600b      	str	r3, [r1, #0]
10003c6a:	6001      	str	r1, [r0, #0]
10003c6c:	3904      	subs	r1, #4
10003c6e:	680a      	ldr	r2, [r1, #0]
10003c70:	3201      	adds	r2, #1
10003c72:	600a      	str	r2, [r1, #0]
10003c74:	bd00      	pop	{pc}
10003c76:	46c0      	nop			; (mov r8, r8)

10003c78 <Dictionary_761>:
10003c78:	10003c8c 	andne	r3, r0, ip, lsl #25
10003c7c:	75060020 	strvc	r0, [r6, #-32]
10003c80:	6f6f6c6e 	svcvs	0x006f6c6e
10003c84:	bc300070 	ldclt	0, cr0, [r0], #-448	; 0xfffffe40

10003c86 <Code_761>:
10003c86:	bc30      	pop	{r4, r5}
10003c88:	4770      	bx	lr
10003c8a:	46c0      	nop			; (mov r8, r8)

10003c8c <Dictionary_762>:
10003c8c:	10003cc4 	andne	r3, r0, r4, asr #25
10003c90:	2b050030 	blcs	10143d58 <FlashDictionaryEnde+0x132d58>
10003c94:	706f6f6c 	rsbvc	r6, pc, ip, ror #30

10003c98 <Code_762>:
10003c98:	2e03      	cmp	r6, #3
10003c9a:	d000      	beq.n	10003c9e <Code_762+0x6>
10003c9c:	e71a      	b.n	10003ad4 <strukturen_passen_nicht>
10003c9e:	cf40      	ldmia	r7!, {r6}
10003ca0:	b500      	push	{lr}
10003ca2:	3f04      	subs	r7, #4
10003ca4:	603e      	str	r6, [r7, #0]
10003ca6:	4ebd      	ldr	r6, [pc, #756]	; (10003f9c <Code_841+0x50>)
10003ca8:	f7ff f927 	bl	10002efa <Code_506>
10003cac:	f7ff feb4 	bl	10003a18 <r_branch_jvc>
10003cb0:	e01a      	b.n	10003ce8 <loop_intern>

10003cb2 <struktur_plusloop>:
10003cb2:	2080      	movs	r0, #128	; 0x80
10003cb4:	0600      	lsls	r0, r0, #24
10003cb6:	1900      	adds	r0, r0, r4
10003cb8:	19a4      	adds	r4, r4, r6
10003cba:	1b40      	subs	r0, r0, r5
10003cbc:	1980      	adds	r0, r0, r6
10003cbe:	cf40      	ldmia	r7!, {r6}
10003cc0:	4770      	bx	lr
10003cc2:	46c0      	nop			; (mov r8, r8)

10003cc4 <Dictionary_766>:
10003cc4:	10003d08 	andne	r3, r0, r8, lsl #26
10003cc8:	6c040030 	stcvs	0, cr0, [r4], {48}	; 0x30
10003ccc:	00706f6f 	rsbseq	r6, r0, pc, ror #30

10003cd0 <Code_766>:
10003cd0:	2e03      	cmp	r6, #3
10003cd2:	d000      	beq.n	10003cd6 <Code_766+0x6>
10003cd4:	e6fe      	b.n	10003ad4 <strukturen_passen_nicht>
10003cd6:	cf40      	ldmia	r7!, {r6}
10003cd8:	b500      	push	{lr}
10003cda:	3f04      	subs	r7, #4
10003cdc:	603e      	str	r6, [r7, #0]
10003cde:	4eb0      	ldr	r6, [pc, #704]	; (10003fa0 <Code_841+0x54>)
10003ce0:	f7ff f90b 	bl	10002efa <Code_506>
10003ce4:	f7ff fe8c 	bl	10003a00 <r_branch_jne>

10003ce8 <loop_intern>:
10003ce8:	f000 f90c 	bl	10003f04 <spruenge_einpflegen>
10003cec:	48aa      	ldr	r0, [pc, #680]	; (10003f98 <Code_841+0x4c>)
10003cee:	0031      	movs	r1, r6
10003cf0:	cf40      	ldmia	r7!, {r6}
10003cf2:	6001      	str	r1, [r0, #0]
10003cf4:	3f04      	subs	r7, #4
10003cf6:	603e      	str	r6, [r7, #0]
10003cf8:	4eaa      	ldr	r6, [pc, #680]	; (10003fa4 <Code_841+0x58>)
10003cfa:	f7ff f8fe 	bl	10002efa <Code_506>
10003cfe:	bd00      	pop	{pc}

10003d00 <struktur_loop>:
10003d00:	3401      	adds	r4, #1
10003d02:	42ac      	cmp	r4, r5
10003d04:	4770      	bx	lr
10003d06:	46c0      	nop			; (mov r8, r8)

10003d08 <Dictionary_771>:
10003d08:	10003d50 	andne	r3, r0, r0, asr sp
10003d0c:	64020078 	strvs	r0, [r2], #-120	; 0x78
10003d10:	b500006f 	strlt	r0, [r0, #-111]	; 0x6f

10003d12 <Code_771>:
10003d12:	b500      	push	{lr}
10003d14:	3f04      	subs	r7, #4
10003d16:	603e      	str	r6, [r7, #0]
10003d18:	4ea3      	ldr	r6, [pc, #652]	; (10003fa8 <Code_841+0x5c>)
10003d1a:	f7ff f8ee 	bl	10002efa <Code_506>

10003d1e <do_rest_der_schleifenstruktur>:
10003d1e:	489e      	ldr	r0, [pc, #632]	; (10003f98 <Code_841+0x4c>)
10003d20:	6801      	ldr	r1, [r0, #0]
10003d22:	3f04      	subs	r7, #4
10003d24:	603e      	str	r6, [r7, #0]
10003d26:	000e      	movs	r6, r1
10003d28:	3f04      	subs	r7, #4
10003d2a:	603e      	str	r6, [r7, #0]
10003d2c:	2600      	movs	r6, #0
10003d2e:	6007      	str	r7, [r0, #0]
10003d30:	f7ff fe65 	bl	100039fe <branch_r>
10003d34:	3f04      	subs	r7, #4
10003d36:	603e      	str	r6, [r7, #0]
10003d38:	2603      	movs	r6, #3
10003d3a:	bd00      	pop	{pc}
10003d3c:	b500      	push	{lr}
10003d3e:	f000 f82e 	bl	10003d9e <gemeinsame_schleifenoptimierung>
10003d42:	e7ec      	b.n	10003d1e <do_rest_der_schleifenstruktur>

10003d44 <struktur_do>:
10003d44:	b430      	push	{r4, r5}
10003d46:	0034      	movs	r4, r6
10003d48:	cf40      	ldmia	r7!, {r6}
10003d4a:	0035      	movs	r5, r6
10003d4c:	cf40      	ldmia	r7!, {r6}
10003d4e:	4770      	bx	lr

10003d50 <Dictionary_781>:
10003d50:	10003de4 	andne	r3, r0, r4, ror #27
10003d54:	3f030078 	svccc	0x00030078
10003d58:	b5006f64 	strlt	r6, [r0, #-3940]	; 0xf64

10003d5a <Code_781>:
10003d5a:	b500      	push	{lr}
10003d5c:	3f04      	subs	r7, #4
10003d5e:	603e      	str	r6, [r7, #0]
10003d60:	4e91      	ldr	r6, [pc, #580]	; (10003fa8 <Code_841+0x5c>)
10003d62:	f7ff f8ca 	bl	10002efa <Code_506>

10003d66 <qdo_rest_der_schleifenstruktur>:
10003d66:	3f04      	subs	r7, #4
10003d68:	603e      	str	r6, [r7, #0]
10003d6a:	4e90      	ldr	r6, [pc, #576]	; (10003fac <Code_841+0x60>)
10003d6c:	f7ff facd 	bl	1000330a <Code_584>
10003d70:	4889      	ldr	r0, [pc, #548]	; (10003f98 <Code_841+0x4c>)
10003d72:	6801      	ldr	r1, [r0, #0]
10003d74:	3f04      	subs	r7, #4
10003d76:	603e      	str	r6, [r7, #0]
10003d78:	000e      	movs	r6, r1
10003d7a:	f7ff fe7b 	bl	10003a74 <branch_v>
10003d7e:	3601      	adds	r6, #1
10003d80:	3f04      	subs	r7, #4
10003d82:	603e      	str	r6, [r7, #0]
10003d84:	2601      	movs	r6, #1
10003d86:	4884      	ldr	r0, [pc, #528]	; (10003f98 <Code_841+0x4c>)
10003d88:	6007      	str	r7, [r0, #0]
10003d8a:	f7ff fe38 	bl	100039fe <branch_r>
10003d8e:	3f04      	subs	r7, #4
10003d90:	603e      	str	r6, [r7, #0]
10003d92:	2603      	movs	r6, #3
10003d94:	bd00      	pop	{pc}
10003d96:	b500      	push	{lr}
10003d98:	f000 f801 	bl	10003d9e <gemeinsame_schleifenoptimierung>
10003d9c:	e7e3      	b.n	10003d66 <qdo_rest_der_schleifenstruktur>

10003d9e <gemeinsame_schleifenoptimierung>:
10003d9e:	b500      	push	{lr}
10003da0:	3f04      	subs	r7, #4
10003da2:	603e      	str	r6, [r7, #0]
10003da4:	4e82      	ldr	r6, [pc, #520]	; (10003fb0 <Code_841+0x64>)
10003da6:	f7ff fab0 	bl	1000330a <Code_584>
10003daa:	3f04      	subs	r7, #4
10003dac:	603e      	str	r6, [r7, #0]
10003dae:	2604      	movs	r6, #4
10003db0:	f7fe fed4 	bl	10002b5c <Code_437>
10003db4:	3b01      	subs	r3, #1
10003db6:	d008      	beq.n	10003dca <gemeinsame_schleifenoptimierung+0x2c>
10003db8:	3f04      	subs	r7, #4
10003dba:	603e      	str	r6, [r7, #0]
10003dbc:	2605      	movs	r6, #5
10003dbe:	f7fe fecd 	bl	10002b5c <Code_437>
10003dc2:	3b01      	subs	r3, #1
10003dc4:	f000 fc03 	bl	100045ce <konstantenschreiben>
10003dc8:	bd00      	pop	{pc}
10003dca:	3f04      	subs	r7, #4
10003dcc:	603e      	str	r6, [r7, #0]
10003dce:	2635      	movs	r6, #53	; 0x35
10003dd0:	f7ff fa9b 	bl	1000330a <Code_584>
10003dd4:	3f04      	subs	r7, #4
10003dd6:	603e      	str	r6, [r7, #0]
10003dd8:	4e76      	ldr	r6, [pc, #472]	; (10003fb4 <Code_841+0x68>)
10003dda:	f7ff fa96 	bl	1000330a <Code_584>
10003dde:	f000 fbf6 	bl	100045ce <konstantenschreiben>
10003de2:	bd00      	pop	{pc}

10003de4 <Dictionary_801>:
10003de4:	10003e00 	andne	r3, r0, r0, lsl #28
10003de8:	63040030 	movwvs	r0, #16432	; 0x4030
10003dec:	00657361 	rsbeq	r7, r5, r1, ror #6

10003df0 <Code_801>:
10003df0:	3f04      	subs	r7, #4
10003df2:	603e      	str	r6, [r7, #0]
10003df4:	2600      	movs	r6, #0
10003df6:	3f04      	subs	r7, #4
10003df8:	603e      	str	r6, [r7, #0]
10003dfa:	2608      	movs	r6, #8
10003dfc:	4770      	bx	lr
10003dfe:	46c0      	nop			; (mov r8, r8)

10003e00 <Dictionary_806>:
10003e00:	10003e18 	andne	r3, r0, r8, lsl lr
10003e04:	3f030030 	svccc	0x00030030
10003e08:	486b666f 	stmdami	fp!, {r0, r1, r2, r3, r5, r6, r9, sl, sp, lr}^

10003e0a <Code_806>:
10003e0a:	486b      	ldr	r0, [pc, #428]	; (10003fb8 <Code_841+0x6c>)
10003e0c:	e00a      	b.n	10003e24 <of_inneneinsprung>

10003e0e <struktur_qof>:
10003e0e:	3e01      	subs	r6, #1
10003e10:	41b6      	sbcs	r6, r6
10003e12:	cf40      	ldmia	r7!, {r6}
10003e14:	4770      	bx	lr
10003e16:	46c0      	nop			; (mov r8, r8)

10003e18 <Dictionary_808>:
10003e18:	10003ea4 	andne	r3, r0, r4, lsr #29
10003e1c:	6f020078 	svcvs	0x00020078
10003e20:	48660066 	stmdami	r6!, {r1, r2, r5, r6}^

10003e22 <Code_808>:
10003e22:	4866      	ldr	r0, [pc, #408]	; (10003fbc <Code_841+0x70>)

10003e24 <of_inneneinsprung>:
10003e24:	2e08      	cmp	r6, #8
10003e26:	d000      	beq.n	10003e2a <of_inneneinsprung+0x6>
10003e28:	e654      	b.n	10003ad4 <strukturen_passen_nicht>
10003e2a:	cf40      	ldmia	r7!, {r6}
10003e2c:	b500      	push	{lr}
10003e2e:	3f04      	subs	r7, #4
10003e30:	603e      	str	r6, [r7, #0]
10003e32:	0006      	movs	r6, r0
10003e34:	f7ff f861 	bl	10002efa <Code_506>

10003e38 <of_opcodiereinsprung>:
10003e38:	f7ff fe1c 	bl	10003a74 <branch_v>
10003e3c:	6839      	ldr	r1, [r7, #0]
10003e3e:	603e      	str	r6, [r7, #0]
10003e40:	460e      	mov	r6, r1
10003e42:	3601      	adds	r6, #1
10003e44:	3f04      	subs	r7, #4
10003e46:	603e      	str	r6, [r7, #0]
10003e48:	2609      	movs	r6, #9
10003e4a:	3f04      	subs	r7, #4
10003e4c:	603e      	str	r6, [r7, #0]
10003e4e:	4e59      	ldr	r6, [pc, #356]	; (10003fb4 <Code_841+0x68>)
10003e50:	f7ff fa5b 	bl	1000330a <Code_584>
10003e54:	bd00      	pop	{pc}
10003e56:	b500      	push	{lr}
10003e58:	0030      	movs	r0, r6
10003e5a:	cf40      	ldmia	r7!, {r6}
10003e5c:	3b01      	subs	r3, #1
10003e5e:	b401      	push	{r0}
10003e60:	f000 fbb5 	bl	100045ce <konstantenschreiben>
10003e64:	bc01      	pop	{r0}
10003e66:	2e08      	cmp	r6, #8
10003e68:	d000      	beq.n	10003e6c <of_opcodiereinsprung+0x34>
10003e6a:	e633      	b.n	10003ad4 <strukturen_passen_nicht>
10003e6c:	cf40      	ldmia	r7!, {r6}
10003e6e:	3f04      	subs	r7, #4
10003e70:	603e      	str	r6, [r7, #0]
10003e72:	0006      	movs	r6, r0
10003e74:	21ff      	movs	r1, #255	; 0xff
10003e76:	4031      	ands	r1, r6
10003e78:	42b1      	cmp	r1, r6
10003e7a:	d104      	bne.n	10003e86 <of_opcodiereinsprung+0x4e>
10003e7c:	4950      	ldr	r1, [pc, #320]	; (10003fc0 <Code_841+0x74>)
10003e7e:	430e      	orrs	r6, r1
10003e80:	f7ff fa43 	bl	1000330a <Code_584>
10003e84:	e7d8      	b.n	10003e38 <of_opcodiereinsprung>
10003e86:	3f04      	subs	r7, #4
10003e88:	603e      	str	r6, [r7, #0]
10003e8a:	2600      	movs	r6, #0
10003e8c:	f7fe fe66 	bl	10002b5c <Code_437>
10003e90:	3f04      	subs	r7, #4
10003e92:	603e      	str	r6, [r7, #0]
10003e94:	4e4b      	ldr	r6, [pc, #300]	; (10003fc4 <Code_841+0x78>)
10003e96:	f7ff fa38 	bl	1000330a <Code_584>
10003e9a:	e7cd      	b.n	10003e38 <of_opcodiereinsprung>

10003e9c <struktur_of>:
10003e9c:	0030      	movs	r0, r6
10003e9e:	cf40      	ldmia	r7!, {r6}
10003ea0:	42b0      	cmp	r0, r6
10003ea2:	4770      	bx	lr

10003ea4 <Dictionary_826>:
10003ea4:	10003edc 	ldrdne	r3, [r0], -ip
10003ea8:	65050030 	strvs	r0, [r5, #-48]	; 0x30
10003eac:	666f646e 	strbtvs	r6, [pc], -lr, ror #8

10003eb0 <Code_826>:
10003eb0:	2e09      	cmp	r6, #9
10003eb2:	d000      	beq.n	10003eb6 <Code_826+0x6>
10003eb4:	e60e      	b.n	10003ad4 <strukturen_passen_nicht>
10003eb6:	cf40      	ldmia	r7!, {r6}
10003eb8:	b500      	push	{lr}
10003eba:	b440      	push	{r6}
10003ebc:	cf40      	ldmia	r7!, {r6}
10003ebe:	f7ff fdd9 	bl	10003a74 <branch_v>
10003ec2:	6839      	ldr	r1, [r7, #0]
10003ec4:	603e      	str	r6, [r7, #0]
10003ec6:	460e      	mov	r6, r1
10003ec8:	f7ff fdec 	bl	10003aa4 <v_casebranch>
10003ecc:	3f04      	subs	r7, #4
10003ece:	603e      	str	r6, [r7, #0]
10003ed0:	bc40      	pop	{r6}
10003ed2:	3f04      	subs	r7, #4
10003ed4:	603e      	str	r6, [r7, #0]
10003ed6:	2608      	movs	r6, #8
10003ed8:	bd00      	pop	{pc}
10003eda:	46c0      	nop			; (mov r8, r8)

10003edc <Dictionary_834>:
10003edc:	10003f2c 	andne	r3, r0, ip, lsr #30
10003ee0:	65070030 	strvs	r0, [r7, #-48]	; 0x30
10003ee4:	6163646e 	cmnvs	r3, lr, ror #8
10003ee8:	2e086573 	cfrshl64cs	mvdx8, mvdx3, r6

10003eea <Code_834>:
10003eea:	2e08      	cmp	r6, #8
10003eec:	d000      	beq.n	10003ef0 <Code_834+0x6>
10003eee:	e5f1      	b.n	10003ad4 <strukturen_passen_nicht>
10003ef0:	cf40      	ldmia	r7!, {r6}
10003ef2:	b500      	push	{lr}
10003ef4:	3f04      	subs	r7, #4
10003ef6:	603e      	str	r6, [r7, #0]
10003ef8:	4e2e      	ldr	r6, [pc, #184]	; (10003fb4 <Code_841+0x68>)
10003efa:	f7ff fa06 	bl	1000330a <Code_584>
10003efe:	f000 f801 	bl	10003f04 <spruenge_einpflegen>
10003f02:	bd00      	pop	{pc}

10003f04 <spruenge_einpflegen>:
10003f04:	b500      	push	{lr}
10003f06:	0030      	movs	r0, r6
10003f08:	cf40      	ldmia	r7!, {r6}
10003f0a:	2800      	cmp	r0, #0
10003f0c:	d00d      	beq.n	10003f2a <spruenge_einpflegen+0x26>
10003f0e:	b403      	push	{r0, r1}
10003f10:	2101      	movs	r1, #1
10003f12:	4031      	ands	r1, r6
10003f14:	2900      	cmp	r1, #0
10003f16:	d003      	beq.n	10003f20 <spruenge_einpflegen+0x1c>
10003f18:	3e01      	subs	r6, #1
10003f1a:	f7ff fdba 	bl	10003a92 <v_nullbranch>
10003f1e:	e001      	b.n	10003f24 <spruenge_einpflegen+0x20>
10003f20:	f7ff fdb1 	bl	10003a86 <v_branch>
10003f24:	bc03      	pop	{r0, r1}
10003f26:	3801      	subs	r0, #1
10003f28:	e7ef      	b.n	10003f0a <spruenge_einpflegen+0x6>
10003f2a:	bd00      	pop	{pc}

10003f2c <Dictionary_839>:
10003f2c:	10003f40 	andne	r3, r0, r0, asr #30
10003f30:	74050000 	strvc	r0, [r5]
10003f34:	6e656b6f 	vnmulvs.f64	d22, d5, d31

10003f38 <Code_839>:
10003f38:	3f04      	subs	r7, #4
10003f3a:	603e      	str	r6, [r7, #0]
10003f3c:	2620      	movs	r6, #32
10003f3e:	e005      	b.n	10003f4c <Code_841>

10003f40 <Dictionary_841>:
10003f40:	10003fcc 	andne	r3, r0, ip, asr #31
10003f44:	70050000 	andvc	r0, r5, r0
10003f48:	65737261 	ldrbvs	r7, [r3, #-609]!	; 0x261

10003f4c <Code_841>:
10003f4c:	b510      	push	{r4, lr}
10003f4e:	f7fe fbfe 	bl	1000274e <Code_345>
10003f52:	0031      	movs	r1, r6
10003f54:	cf40      	ldmia	r7!, {r6}
10003f56:	0030      	movs	r0, r6
10003f58:	cf40      	ldmia	r7!, {r6}
10003f5a:	4a1b      	ldr	r2, [pc, #108]	; (10003fc8 <Code_841+0x7c>)
10003f5c:	6812      	ldr	r2, [r2, #0]
10003f5e:	1884      	adds	r4, r0, r2
10003f60:	2e20      	cmp	r6, #32
10003f62:	d107      	bne.n	10003f74 <Code_841+0x28>
10003f64:	4291      	cmp	r1, r2
10003f66:	d00f      	beq.n	10003f88 <Code_841+0x3c>
10003f68:	5c83      	ldrb	r3, [r0, r2]
10003f6a:	42b3      	cmp	r3, r6
10003f6c:	d102      	bne.n	10003f74 <Code_841+0x28>
10003f6e:	3201      	adds	r2, #1
10003f70:	1884      	adds	r4, r0, r2
10003f72:	e7f7      	b.n	10003f64 <Code_841+0x18>
10003f74:	4291      	cmp	r1, r2
10003f76:	d007      	beq.n	10003f88 <Code_841+0x3c>
10003f78:	5c83      	ldrb	r3, [r0, r2]
10003f7a:	3201      	adds	r2, #1
10003f7c:	42b3      	cmp	r3, r6
10003f7e:	d1f9      	bne.n	10003f74 <Code_841+0x28>
10003f80:	1886      	adds	r6, r0, r2
10003f82:	1b36      	subs	r6, r6, r4
10003f84:	3e01      	subs	r6, #1
10003f86:	e001      	b.n	10003f8c <Code_841+0x40>
10003f88:	1886      	adds	r6, r0, r2
10003f8a:	1b36      	subs	r6, r6, r4
10003f8c:	3f04      	subs	r7, #4
10003f8e:	603c      	str	r4, [r7, #0]
10003f90:	480d      	ldr	r0, [pc, #52]	; (10003fc8 <Code_841+0x7c>)
10003f92:	6002      	str	r2, [r0, #0]
10003f94:	bd10      	pop	{r4, pc}
10003f96:	01000000 	mrseq	r0, (UNDEF: 0)
10003f9a:	3cb22000 	ldccc	0, cr2, [r2]
10003f9e:	3d001000 	stccc	0, cr1, [r0]
10003fa2:	3c861000 	stccc	0, cr1, [r6], {0}
10003fa6:	3d441000 	stclcc	0, cr1, [r4]
10003faa:	42ac1000 	adcmi	r1, ip, #0
10003fae:	b4300000 	ldrtlt	r0, [r0]
10003fb2:	cf400000 	svcgt	0x00400000
10003fb6:	3e0e0000 	cdpcc	0, 0, cr0, cr14, cr0, {0}
10003fba:	3e9c1000 	cdpcc	0, 9, cr1, cr12, cr0, {0}
10003fbe:	2e001000 	cdpcs	0, 0, cr1, cr0, cr0, {0}
10003fc2:	42b00000 	adcsmi	r0, r0, #0
10003fc6:	3fe40000 	svccc	0x00e40000
10003fca:	400c2000 	andmi	r2, ip, r0

10003fcc <Dictionary_844>:
10003fcc:	1000400c 	andne	r4, r0, ip
10003fd0:	64050000 	strvs	r0, [r5]
10003fd4:	74696769 	strbtvc	r6, [r9], #-1897	; 0x769

10003fd8 <Code_844>:
10003fd8:	4bd4      	ldr	r3, [pc, #848]	; (1000432c <Code_907+0x8>)
10003fda:	681b      	ldr	r3, [r3, #0]

10003fdc <digit_base_r3>:
10003fdc:	3e30      	subs	r6, #48	; 0x30
10003fde:	d30b      	bcc.n	10003ff8 <digit_base_r3+0x1c>
10003fe0:	2e0a      	cmp	r6, #10
10003fe2:	d30b      	bcc.n	10003ffc <digit_base_r3+0x20>
10003fe4:	3e07      	subs	r6, #7
10003fe6:	2e0a      	cmp	r6, #10
10003fe8:	d306      	bcc.n	10003ff8 <digit_base_r3+0x1c>
10003fea:	2e24      	cmp	r6, #36	; 0x24
10003fec:	d306      	bcc.n	10003ffc <digit_base_r3+0x20>
10003fee:	3e20      	subs	r6, #32
10003ff0:	2e0a      	cmp	r6, #10
10003ff2:	d301      	bcc.n	10003ff8 <digit_base_r3+0x1c>
10003ff4:	2e24      	cmp	r6, #36	; 0x24
10003ff6:	d301      	bcc.n	10003ffc <digit_base_r3+0x20>
10003ff8:	2600      	movs	r6, #0
10003ffa:	4770      	bx	lr
10003ffc:	429e      	cmp	r6, r3
10003ffe:	d2fb      	bcs.n	10003ff8 <digit_base_r3+0x1c>
10004000:	3f04      	subs	r7, #4
10004002:	603e      	str	r6, [r7, #0]
10004004:	2600      	movs	r6, #0
10004006:	43f6      	mvns	r6, r6
10004008:	4770      	bx	lr
1000400a:	46c0      	nop			; (mov r8, r8)

1000400c <Dictionary_846>:
1000400c:	10004118 	andne	r4, r0, r8, lsl r1
10004010:	6e060000 	cdpvs	0, 0, cr0, cr6, cr0, {0}
10004014:	65626d75 	strbvs	r6, [r2, #-3445]!	; 0xd75
10004018:	b53f0072 	ldrlt	r0, [pc, #-114]!	; 10003fae <Code_841+0x62>

1000401a <Code_846>:
1000401a:	b53f      	push	{r0, r1, r2, r3, r4, r5, lr}
1000401c:	0031      	movs	r1, r6
1000401e:	cf40      	ldmia	r7!, {r6}
10004020:	1e70      	subs	r0, r6, #1
10004022:	2601      	movs	r6, #1
10004024:	2201      	movs	r2, #1
10004026:	b404      	push	{r2}
10004028:	4bc0      	ldr	r3, [pc, #768]	; (1000432c <Code_907+0x8>)
1000402a:	681b      	ldr	r3, [r3, #0]
1000402c:	2400      	movs	r4, #0
1000402e:	2500      	movs	r5, #0
10004030:	2900      	cmp	r1, #0
10004032:	d03c      	beq.n	100040ae <Code_846+0x94>
10004034:	3001      	adds	r0, #1
10004036:	3901      	subs	r1, #1
10004038:	7802      	ldrb	r2, [r0, #0]
1000403a:	2a2d      	cmp	r2, #45	; 0x2d
1000403c:	d104      	bne.n	10004048 <Code_846+0x2e>
1000403e:	b001      	add	sp, #4
10004040:	2200      	movs	r2, #0
10004042:	43d2      	mvns	r2, r2
10004044:	b404      	push	{r2}
10004046:	e7f3      	b.n	10004030 <Code_846+0x16>
10004048:	2a23      	cmp	r2, #35	; 0x23
1000404a:	d101      	bne.n	10004050 <Code_846+0x36>
1000404c:	230a      	movs	r3, #10
1000404e:	e7ef      	b.n	10004030 <Code_846+0x16>
10004050:	2a24      	cmp	r2, #36	; 0x24
10004052:	d101      	bne.n	10004058 <Code_846+0x3e>
10004054:	2310      	movs	r3, #16
10004056:	e7eb      	b.n	10004030 <Code_846+0x16>
10004058:	2a25      	cmp	r2, #37	; 0x25
1000405a:	d101      	bne.n	10004060 <Code_846+0x46>
1000405c:	2302      	movs	r3, #2
1000405e:	e7e7      	b.n	10004030 <Code_846+0x16>
10004060:	2a2e      	cmp	r2, #46	; 0x2e
10004062:	d101      	bne.n	10004068 <Code_846+0x4e>
10004064:	2602      	movs	r6, #2
10004066:	e7e3      	b.n	10004030 <Code_846+0x16>
10004068:	2a2c      	cmp	r2, #44	; 0x2c
1000406a:	d036      	beq.n	100040da <number_nachkommastellen>
1000406c:	3f04      	subs	r7, #4
1000406e:	603e      	str	r6, [r7, #0]
10004070:	0016      	movs	r6, r2
10004072:	f7ff ffb3 	bl	10003fdc <digit_base_r3>
10004076:	2e00      	cmp	r6, #0
10004078:	cf40      	ldmia	r7!, {r6}
1000407a:	d02b      	beq.n	100040d4 <Code_846+0xba>
1000407c:	3f04      	subs	r7, #4
1000407e:	603e      	str	r6, [r7, #0]
10004080:	0026      	movs	r6, r4
10004082:	3f04      	subs	r7, #4
10004084:	603e      	str	r6, [r7, #0]
10004086:	002e      	movs	r6, r5
10004088:	3f04      	subs	r7, #4
1000408a:	603e      	str	r6, [r7, #0]
1000408c:	001e      	movs	r6, r3
1000408e:	3f04      	subs	r7, #4
10004090:	603e      	str	r6, [r7, #0]
10004092:	2600      	movs	r6, #0
10004094:	b40f      	push	{r0, r1, r2, r3}
10004096:	f7fd f912 	bl	100012be <Code_52>
1000409a:	bc0f      	pop	{r0, r1, r2, r3}
1000409c:	0035      	movs	r5, r6
1000409e:	cf40      	ldmia	r7!, {r6}
100040a0:	0034      	movs	r4, r6
100040a2:	cf40      	ldmia	r7!, {r6}
100040a4:	2200      	movs	r2, #0
100040a6:	19a4      	adds	r4, r4, r6
100040a8:	4155      	adcs	r5, r2
100040aa:	cf40      	ldmia	r7!, {r6}
100040ac:	e7c0      	b.n	10004030 <Code_846+0x16>
100040ae:	bc04      	pop	{r2}
100040b0:	2a00      	cmp	r2, #0
100040b2:	d504      	bpl.n	100040be <Code_846+0xa4>
100040b4:	2200      	movs	r2, #0
100040b6:	43e4      	mvns	r4, r4
100040b8:	43ed      	mvns	r5, r5
100040ba:	3401      	adds	r4, #1
100040bc:	4155      	adcs	r5, r2
100040be:	0033      	movs	r3, r6
100040c0:	0026      	movs	r6, r4
100040c2:	2b01      	cmp	r3, #1
100040c4:	d002      	beq.n	100040cc <Code_846+0xb2>
100040c6:	3f04      	subs	r7, #4
100040c8:	603e      	str	r6, [r7, #0]
100040ca:	002e      	movs	r6, r5
100040cc:	3f04      	subs	r7, #4
100040ce:	603e      	str	r6, [r7, #0]
100040d0:	001e      	movs	r6, r3
100040d2:	bd3f      	pop	{r0, r1, r2, r3, r4, r5, pc}
100040d4:	b001      	add	sp, #4
100040d6:	2600      	movs	r6, #0
100040d8:	bd3f      	pop	{r0, r1, r2, r3, r4, r5, pc}

100040da <number_nachkommastellen>:
100040da:	0025      	movs	r5, r4
100040dc:	2400      	movs	r4, #0
100040de:	2602      	movs	r6, #2
100040e0:	2900      	cmp	r1, #0
100040e2:	d0e4      	beq.n	100040ae <Code_846+0x94>
100040e4:	5c42      	ldrb	r2, [r0, r1]
100040e6:	3901      	subs	r1, #1
100040e8:	2a2e      	cmp	r2, #46	; 0x2e
100040ea:	d0f9      	beq.n	100040e0 <number_nachkommastellen+0x6>
100040ec:	3f04      	subs	r7, #4
100040ee:	603e      	str	r6, [r7, #0]
100040f0:	0016      	movs	r6, r2
100040f2:	f7ff ff73 	bl	10003fdc <digit_base_r3>
100040f6:	2e00      	cmp	r6, #0
100040f8:	cf40      	ldmia	r7!, {r6}
100040fa:	d0eb      	beq.n	100040d4 <Code_846+0xba>
100040fc:	3f04      	subs	r7, #4
100040fe:	603c      	str	r4, [r7, #0]
10004100:	3f04      	subs	r7, #4
10004102:	603e      	str	r6, [r7, #0]
10004104:	001e      	movs	r6, r3
10004106:	b40f      	push	{r0, r1, r2, r3}
10004108:	f7fd f98d 	bl	10001426 <Code_88>
1000410c:	bc0f      	pop	{r0, r1, r2, r3}
1000410e:	0034      	movs	r4, r6
10004110:	cf40      	ldmia	r7!, {r6}
10004112:	cf40      	ldmia	r7!, {r6}
10004114:	e7e4      	b.n	100040e0 <number_nachkommastellen+0x6>
10004116:	46c0      	nop			; (mov r8, r8)

10004118 <Dictionary_873>:
10004118:	1000413c 	andne	r4, r0, ip, lsr r1
1000411c:	2e060000 	cdpcs	0, 0, cr0, cr6, cr0, {0}
10004120:	69676964 	stmdbvs	r7!, {r2, r5, r6, r8, fp, sp, lr}^
10004124:	2e0a0074 	mcrcs	0, 0, r0, cr10, cr4, {3}

10004126 <Code_873>:
10004126:	2e0a      	cmp	r6, #10
10004128:	d201      	bcs.n	1000412e <Code_873+0x8>
1000412a:	3630      	adds	r6, #48	; 0x30
1000412c:	4770      	bx	lr
1000412e:	2e24      	cmp	r6, #36	; 0x24
10004130:	d201      	bcs.n	10004136 <Code_873+0x10>
10004132:	3637      	adds	r6, #55	; 0x37
10004134:	4770      	bx	lr
10004136:	2623      	movs	r6, #35	; 0x23
10004138:	4770      	bx	lr
1000413a:	46c0      	nop			; (mov r8, r8)

1000413c <Dictionary_874>:
1000413c:	10004174 	andne	r4, r0, r4, ror r1
10004140:	68040000 	stmdavs	r4, {}	; <UNPREDICTABLE>
10004144:	00646c6f 	rsbeq	r6, r4, pc, ror #24

10004148 <Code_874>:
10004148:	0033      	movs	r3, r6
1000414a:	cf40      	ldmia	r7!, {r6}
1000414c:	4878      	ldr	r0, [pc, #480]	; (10004330 <Code_907+0xc>)
1000414e:	7801      	ldrb	r1, [r0, #0]
10004150:	293f      	cmp	r1, #63	; 0x3f
10004152:	d20d      	bcs.n	10004170 <Code_874+0x28>
10004154:	3101      	adds	r1, #1
10004156:	7001      	strb	r1, [r0, #0]
10004158:	1840      	adds	r0, r0, r1
1000415a:	2901      	cmp	r1, #1
1000415c:	d007      	beq.n	1000416e <Code_874+0x26>
1000415e:	3801      	subs	r0, #1
10004160:	7802      	ldrb	r2, [r0, #0]
10004162:	3001      	adds	r0, #1
10004164:	7002      	strb	r2, [r0, #0]
10004166:	3801      	subs	r0, #1
10004168:	3901      	subs	r1, #1
1000416a:	2901      	cmp	r1, #1
1000416c:	d1f7      	bne.n	1000415e <Code_874+0x16>
1000416e:	7003      	strb	r3, [r0, #0]
10004170:	4770      	bx	lr
10004172:	46c0      	nop			; (mov r8, r8)

10004174 <Dictionary_876>:
10004174:	10004194 	mulne	r0, r4, r1
10004178:	68050000 	stmdavs	r5, {}	; <UNPREDICTABLE>
1000417c:	3c646c6f 	stclcc	12, cr6, [r4], #-444	; 0xfffffe44

10004180 <Code_876>:
10004180:	0033      	movs	r3, r6
10004182:	cf40      	ldmia	r7!, {r6}
10004184:	486a      	ldr	r0, [pc, #424]	; (10004330 <Code_907+0xc>)
10004186:	7801      	ldrb	r1, [r0, #0]
10004188:	293f      	cmp	r1, #63	; 0x3f
1000418a:	d202      	bcs.n	10004192 <Code_876+0x12>
1000418c:	3101      	adds	r1, #1
1000418e:	7001      	strb	r1, [r0, #0]
10004190:	5443      	strb	r3, [r0, r1]
10004192:	4770      	bx	lr

10004194 <Dictionary_878>:
10004194:	100041ac 	andne	r4, r0, ip, lsr #3
10004198:	73040000 	movwvc	r0, #16384	; 0x4000
1000419c:	006e6769 	rsbeq	r6, lr, r9, ror #14

100041a0 <Code_878>:
100041a0:	2e00      	cmp	r6, #0
100041a2:	d401      	bmi.n	100041a8 <Code_878+0x8>
100041a4:	cf40      	ldmia	r7!, {r6}
100041a6:	4770      	bx	lr
100041a8:	262d      	movs	r6, #45	; 0x2d
100041aa:	e7cd      	b.n	10004148 <Code_874>

100041ac <Dictionary_880>:
100041ac:	100041c0 	andne	r4, r0, r0, asr #3
100041b0:	23020000 	movwcs	r0, #8192	; 0x2000
100041b4:	485e003e 	ldmdami	lr, {r1, r2, r3, r4, r5}^

100041b6 <Code_880>:
100041b6:	485e      	ldr	r0, [pc, #376]	; (10004330 <Code_907+0xc>)
100041b8:	7806      	ldrb	r6, [r0, #0]
100041ba:	3001      	adds	r0, #1
100041bc:	6038      	str	r0, [r7, #0]
100041be:	4770      	bx	lr

100041c0 <Dictionary_881>:
100041c0:	100041d8 	ldrdne	r4, [r0], -r8
100041c4:	66030000 	strvs	r0, [r3], -r0
100041c8:	b5105323 	ldrlt	r5, [r0, #-803]	; 0x323

100041ca <Code_881>:
100041ca:	b510      	push	{r4, lr}
100041cc:	2420      	movs	r4, #32
100041ce:	f000 f808 	bl	100041e2 <Code_882>
100041d2:	3c01      	subs	r4, #1
100041d4:	d1fb      	bne.n	100041ce <Code_881+0x4>
100041d6:	bd10      	pop	{r4, pc}

100041d8 <Dictionary_882>:
100041d8:	100041fc 	strdne	r4, [r0], -ip
100041dc:	66020000 	strvs	r0, [r2], -r0
100041e0:	b5000023 	strlt	r0, [r0, #-35]	; 0x23

100041e2 <Code_882>:
100041e2:	b500      	push	{lr}
100041e4:	3f04      	subs	r7, #4
100041e6:	603e      	str	r6, [r7, #0]
100041e8:	4e50      	ldr	r6, [pc, #320]	; (1000432c <Code_907+0x8>)
100041ea:	6836      	ldr	r6, [r6, #0]
100041ec:	f7fd f839 	bl	10001262 <Code_50>
100041f0:	f7ff ff99 	bl	10004126 <Code_873>
100041f4:	f7ff ffc4 	bl	10004180 <Code_876>
100041f8:	bd00      	pop	{pc}
100041fa:	46c0      	nop			; (mov r8, r8)

100041fc <Dictionary_884>:
100041fc:	10004218 	andne	r4, r0, r8, lsl r2
10004200:	23020000 	movwcs	r0, #8192	; 0x2000
10004204:	b5000053 	strlt	r0, [r0, #-83]	; 0x53

10004206 <Code_884>:
10004206:	b500      	push	{lr}
10004208:	f000 f80a 	bl	10004220 <Code_885>
1000420c:	2e00      	cmp	r6, #0
1000420e:	d1fb      	bne.n	10004208 <Code_884+0x2>
10004210:	6838      	ldr	r0, [r7, #0]
10004212:	2800      	cmp	r0, #0
10004214:	d1f8      	bne.n	10004208 <Code_884+0x2>
10004216:	bd00      	pop	{pc}

10004218 <Dictionary_885>:
10004218:	10004244 	andne	r4, r0, r4, asr #4
1000421c:	23010000 	movwcs	r0, #4096	; 0x1000

10004220 <Code_885>:
10004220:	b500      	push	{lr}
10004222:	3f04      	subs	r7, #4
10004224:	603e      	str	r6, [r7, #0]
10004226:	4e41      	ldr	r6, [pc, #260]	; (1000432c <Code_907+0x8>)
10004228:	6836      	ldr	r6, [r6, #0]
1000422a:	3f04      	subs	r7, #4
1000422c:	603e      	str	r6, [r7, #0]
1000422e:	2600      	movs	r6, #0
10004230:	f7fd f919 	bl	10001466 <Code_97>
10004234:	f7fc ff20 	bl	10001078 <Code_24>
10004238:	cf40      	ldmia	r7!, {r6}
1000423a:	f7ff ff74 	bl	10004126 <Code_873>
1000423e:	f7ff ff83 	bl	10004148 <Code_874>
10004242:	bd00      	pop	{pc}

10004244 <Dictionary_890>:
10004244:	10004258 	andne	r4, r0, r8, asr r2
10004248:	3c020000 	stccc	0, cr0, [r2], {0}
1000424c:	48380023 	ldmdami	r8!, {r0, r1, r5}

1000424e <Code_890>:
1000424e:	4838      	ldr	r0, [pc, #224]	; (10004330 <Code_907+0xc>)
10004250:	2100      	movs	r1, #0
10004252:	7001      	strb	r1, [r0, #0]
10004254:	4770      	bx	lr
10004256:	46c0      	nop			; (mov r8, r8)

10004258 <Dictionary_891>:
10004258:	1000426c 	andne	r4, r0, ip, ror #4
1000425c:	66020000 	strvs	r0, [r2], -r0
10004260:	3f04002e 	svccc	0x0004002e

10004262 <Code_891>:
10004262:	3f04      	subs	r7, #4
10004264:	603e      	str	r6, [r7, #0]
10004266:	2620      	movs	r6, #32
10004268:	e005      	b.n	10004276 <Code_894>
1000426a:	46c0      	nop			; (mov r8, r8)

1000426c <Dictionary_894>:
1000426c:	100042bc 			; <UNDEFINED> instruction: 0x100042bc
10004270:	66030000 	strvs	r0, [r3], -r0
10004274:	b5006e2e 	strlt	r6, [r0, #-3630]	; 0xe2e

10004276 <Code_894>:
10004276:	b500      	push	{lr}
10004278:	b410      	push	{r4}
1000427a:	0034      	movs	r4, r6
1000427c:	cf40      	ldmia	r7!, {r6}
1000427e:	f7fd fa89 	bl	10001794 <Code_134>
10004282:	f7fc ffb3 	bl	100011ec <Code_44>
10004286:	3f04      	subs	r7, #4
10004288:	603e      	str	r6, [r7, #0]
1000428a:	2600      	movs	r6, #0
1000428c:	f7ff ffdf 	bl	1000424e <Code_890>
10004290:	f7ff ffb9 	bl	10004206 <Code_884>
10004294:	cf40      	ldmia	r7!, {r6}
10004296:	262c      	movs	r6, #44	; 0x2c
10004298:	f7ff ff72 	bl	10004180 <Code_876>
1000429c:	2c00      	cmp	r4, #0
1000429e:	d003      	beq.n	100042a8 <Code_894+0x32>
100042a0:	f7ff ff9f 	bl	100041e2 <Code_882>
100042a4:	3c01      	subs	r4, #1
100042a6:	d1fb      	bne.n	100042a0 <Code_894+0x2a>
100042a8:	bc10      	pop	{r4}
100042aa:	cf40      	ldmia	r7!, {r6}
100042ac:	f7ff ff78 	bl	100041a0 <Code_878>
100042b0:	3f04      	subs	r7, #4
100042b2:	603e      	str	r6, [r7, #0]
100042b4:	3f04      	subs	r7, #4
100042b6:	603e      	str	r6, [r7, #0]
100042b8:	e01e      	b.n	100042f8 <abschluss_zahlenausgabe>
100042ba:	46c0      	nop			; (mov r8, r8)

100042bc <Dictionary_902>:
100042bc:	100042d4 	ldrdne	r4, [r0], -r4	; <UNPREDICTABLE>
100042c0:	75030000 	strvc	r0, [r3]
100042c4:	b5002e64 	strlt	r2, [r0, #-3684]	; 0xe64

100042c6 <Code_902>:
100042c6:	b500      	push	{lr}
100042c8:	f7ff ffc1 	bl	1000424e <Code_890>
100042cc:	f7ff ff9b 	bl	10004206 <Code_884>
100042d0:	e012      	b.n	100042f8 <abschluss_zahlenausgabe>
100042d2:	46c0      	nop			; (mov r8, r8)

100042d4 <Dictionary_903>:
100042d4:	10004308 	andne	r4, r0, r8, lsl #6
100042d8:	64020000 	strvs	r0, [r2]
100042dc:	b500002e 	strlt	r0, [r0, #-46]	; 0x2e

100042de <Code_903>:
100042de:	b500      	push	{lr}
100042e0:	f7fd fa58 	bl	10001794 <Code_134>
100042e4:	f7fc ff82 	bl	100011ec <Code_44>
100042e8:	f7ff ffb1 	bl	1000424e <Code_890>
100042ec:	f7ff ff8b 	bl	10004206 <Code_884>
100042f0:	f7fd fa5b 	bl	100017aa <Code_135>
100042f4:	f7ff ff54 	bl	100041a0 <Code_878>

100042f8 <abschluss_zahlenausgabe>:
100042f8:	f7ff ff5d 	bl	100041b6 <Code_880>
100042fc:	f7fe fb40 	bl	10002980 <Code_397>
10004300:	f7fe fa8c 	bl	1000281c <Code_362>
10004304:	bd00      	pop	{pc}
10004306:	46c0      	nop			; (mov r8, r8)

10004308 <Dictionary_904>:
10004308:	1000431c 	andne	r4, r0, ip, lsl r3
1000430c:	75020000 	strvc	r0, [r2]
10004310:	3f04002e 	svccc	0x0004002e

10004312 <Code_904>:
10004312:	3f04      	subs	r7, #4
10004314:	603e      	str	r6, [r7, #0]
10004316:	2600      	movs	r6, #0
10004318:	e7d5      	b.n	100042c6 <Code_902>
1000431a:	46c0      	nop			; (mov r8, r8)

1000431c <Dictionary_907>:
1000431c:	10004334 	andne	r4, r0, r4, lsr r3
10004320:	2e010000 	cdpcs	0, 0, cr0, cr1, cr0, {0}

10004324 <Code_907>:
10004324:	3f04      	subs	r7, #4
10004326:	603e      	str	r6, [r7, #0]
10004328:	17f6      	asrs	r6, r6, #31
1000432a:	e7d8      	b.n	100042de <Code_903>
1000432c:	20003ffc 	strdcs	r3, [r0], -ip
10004330:	2000011c 	andcs	r0, r0, ip, lsl r1

10004334 <Dictionary_909>:
10004334:	1000437c 	andne	r4, r0, ip, ror r3
10004338:	65080000 	strvs	r0, [r8]
1000433c:	756c6176 	strbvc	r6, [ip, #-374]!	; 0x176
10004340:	00657461 	rsbeq	r7, r5, r1, ror #8

10004344 <Code_909>:
10004344:	b500      	push	{lr}
10004346:	f7fe fa02 	bl	1000274e <Code_345>
1000434a:	cf01      	ldmia	r7!, {r0}
1000434c:	b401      	push	{r0}
1000434e:	b440      	push	{r6}
10004350:	cf40      	ldmia	r7!, {r6}
10004352:	48c2      	ldr	r0, [pc, #776]	; (1000465c <quit_innenschleife+0x14>)
10004354:	6801      	ldr	r1, [r0, #0]
10004356:	b402      	push	{r1}
10004358:	2100      	movs	r1, #0
1000435a:	6001      	str	r1, [r0, #0]
1000435c:	f7fe f9ea 	bl	10002734 <Code_343>
10004360:	f000 f814 	bl	1000438c <Code_911>
10004364:	48bd      	ldr	r0, [pc, #756]	; (1000465c <quit_innenschleife+0x14>)
10004366:	bc02      	pop	{r1}
10004368:	6001      	str	r1, [r0, #0]
1000436a:	3f04      	subs	r7, #4
1000436c:	603e      	str	r6, [r7, #0]
1000436e:	bc40      	pop	{r6}
10004370:	bc01      	pop	{r0}
10004372:	3f04      	subs	r7, #4
10004374:	6038      	str	r0, [r7, #0]
10004376:	f7fe f9dd 	bl	10002734 <Code_343>
1000437a:	bd00      	pop	{pc}

1000437c <Dictionary_911>:
1000437c:	100045f4 	strdne	r4, [r0], -r4	; <UNPREDICTABLE>
10004380:	69090000 	stmdbvs	r9, {}	; <UNPREDICTABLE>
10004384:	7265746e 	rsbvc	r7, r5, #1845493760	; 0x6e000000
10004388:	74657270 	strbtvc	r7, [r5], #-624	; 0x270

1000438c <Code_911>:
1000438c:	b530      	push	{r4, r5, lr}
1000438e:	48b4      	ldr	r0, [pc, #720]	; (10004660 <quit_innenschleife+0x18>)
10004390:	4287      	cmp	r7, r0
10004392:	d90b      	bls.n	100043ac <Code_911+0x20>
10004394:	f7fe fa94 	bl	100028c0 <dotgaensefuesschen>
10004398:	61745310 	cmnvs	r4, r0, lsl r3
1000439c:	75206b63 	strvc	r6, [r0, #-2915]!	; 0xb63
100043a0:	7265646e 	rsbvc	r6, r5, #1845493760	; 0x6e000000
100043a4:	776f6c66 	strbvc	r6, [pc, -r6, ror #24]!
100043a8:	e137000a 	teq	r7, sl
100043ac:	48ad      	ldr	r0, [pc, #692]	; (10004664 <quit_innenschleife+0x1c>)
100043ae:	4287      	cmp	r7, r0
100043b0:	d20a      	bcs.n	100043c8 <Code_911+0x3c>
100043b2:	f7fe fa85 	bl	100028c0 <dotgaensefuesschen>
100043b6:	6174530f 	cmnvs	r4, pc, lsl #6
100043ba:	6f206b63 	svcvs	0x00206b63
100043be:	66726576 			; <UNDEFINED> instruction: 0x66726576
100043c2:	0a776f6c 	beq	11de017a <FlashDictionaryEnde+0x1dcf17a>
100043c6:	e129      	b.n	1000461c <Code_962>
100043c8:	4ca7      	ldr	r4, [pc, #668]	; (10004668 <quit_innenschleife+0x20>)
100043ca:	6825      	ldr	r5, [r4, #0]
100043cc:	2d00      	cmp	r5, #0
100043ce:	d101      	bne.n	100043d4 <Code_911+0x48>
100043d0:	003d      	movs	r5, r7
100043d2:	6025      	str	r5, [r4, #0]
100043d4:	f7ff fdb0 	bl	10003f38 <Code_839>
100043d8:	2e00      	cmp	r6, #0
100043da:	d102      	bne.n	100043e2 <Code_911+0x56>
100043dc:	3704      	adds	r7, #4
100043de:	cf40      	ldmia	r7!, {r6}
100043e0:	bd30      	pop	{r4, r5, pc}
100043e2:	6838      	ldr	r0, [r7, #0]
100043e4:	3f04      	subs	r7, #4
100043e6:	603e      	str	r6, [r7, #0]
100043e8:	3f04      	subs	r7, #4
100043ea:	6038      	str	r0, [r7, #0]
100043ec:	f7ff fa5c 	bl	100038a8 <Code_680>
100043f0:	0031      	movs	r1, r6
100043f2:	cf40      	ldmia	r7!, {r6}
100043f4:	0032      	movs	r2, r6
100043f6:	cf40      	ldmia	r7!, {r6}
100043f8:	2a00      	cmp	r2, #0
100043fa:	d113      	bne.n	10004424 <not_found_addr_r0_len_r1+0x18>
100043fc:	6838      	ldr	r0, [r7, #0]
100043fe:	0031      	movs	r1, r6
10004400:	f7ff fe0b 	bl	1000401a <Code_846>
10004404:	0032      	movs	r2, r6
10004406:	cf40      	ldmia	r7!, {r6}
10004408:	2a00      	cmp	r2, #0
1000440a:	d1c0      	bne.n	1000438e <Code_911+0x2>

1000440c <not_found_addr_r0_len_r1>:
1000440c:	f7fe fabc 	bl	10002988 <stype_addr_r0_len_r1>
10004410:	f7fe fa56 	bl	100028c0 <dotgaensefuesschen>
10004414:	6f6e200c 	svcvs	0x006e200c
10004418:	6f662074 	svcvs	0x00662074
1000441c:	2e646e75 	mcrcs	14, 3, r6, cr4, cr5, {3}
10004420:	e0fb000a 	rscs	r0, fp, sl
10004424:	4b91      	ldr	r3, [pc, #580]	; (1000466c <quit_innenschleife+0x24>)
10004426:	681b      	ldr	r3, [r3, #0]
10004428:	2b00      	cmp	r3, #0
1000442a:	d11d      	bne.n	10004468 <.ausfuehren+0x12>
1000442c:	2500      	movs	r5, #0
1000442e:	6025      	str	r5, [r4, #0]
10004430:	2330      	movs	r3, #48	; 0x30
10004432:	400b      	ands	r3, r1
10004434:	2b30      	cmp	r3, #48	; 0x30
10004436:	d10e      	bne.n	10004456 <.ausfuehren>
10004438:	f7fe faa2 	bl	10002980 <Code_397>
1000443c:	f7fe fa40 	bl	100028c0 <dotgaensefuesschen>
10004440:	73692012 	cmnvc	r9, #18
10004444:	6d6f6320 	stclvs	3, cr6, [pc, #-128]!	; 100043cc <Code_911+0x40>
10004448:	656c6970 	strbvs	r6, [ip, #-2416]!	; 0x970
1000444c:	6c6e6f2d 	stclvs	15, cr6, [lr], #-180	; 0xffffff4c
10004450:	000a2e79 	andeq	r2, sl, r9, ror lr
10004454:	e0e2      	b.n	1000461c <Code_962>

10004456 <.ausfuehren>:
10004456:	3704      	adds	r7, #4
10004458:	cf40      	ldmia	r7!, {r6}
1000445a:	3f04      	subs	r7, #4
1000445c:	603e      	str	r6, [r7, #0]
1000445e:	0016      	movs	r6, r2
10004460:	f7fe fde5 	bl	1000302e <Code_528>
10004464:	f7ff ff93 	bl	1000438e <Code_911+0x2>
10004468:	3704      	adds	r7, #4
1000446a:	cf40      	ldmia	r7!, {r6}
1000446c:	2080      	movs	r0, #128	; 0x80
1000446e:	4008      	ands	r0, r1
10004470:	d10e      	bne.n	10004490 <.interpret_faltoptimierung>
10004472:	1beb      	subs	r3, r5, r7
10004474:	089b      	lsrs	r3, r3, #2
10004476:	2040      	movs	r0, #64	; 0x40
10004478:	4008      	ands	r0, r1
1000447a:	d00f      	beq.n	1000449c <.konstantenschleife>
1000447c:	2008      	movs	r0, #8
1000447e:	4008      	ands	r0, r1
10004480:	d002      	beq.n	10004488 <.interpret_genugkonstanten>
10004482:	2b00      	cmp	r3, #0
10004484:	d000      	beq.n	10004488 <.interpret_genugkonstanten>
10004486:	e01d      	b.n	100044c4 <.interpret_opcodierbar>

10004488 <.interpret_genugkonstanten>:
10004488:	200f      	movs	r0, #15
1000448a:	4008      	ands	r0, r1
1000448c:	4283      	cmp	r3, r0
1000448e:	d305      	bcc.n	1000449c <.konstantenschleife>

10004490 <.interpret_faltoptimierung>:
10004490:	3f04      	subs	r7, #4
10004492:	603e      	str	r6, [r7, #0]
10004494:	0016      	movs	r6, r2
10004496:	f7fe fdca 	bl	1000302e <Code_528>
1000449a:	e778      	b.n	1000438e <Code_911+0x2>

1000449c <.konstantenschleife>:
1000449c:	f000 f897 	bl	100045ce <konstantenschreiben>
100044a0:	3f04      	subs	r7, #4
100044a2:	603e      	str	r6, [r7, #0]
100044a4:	0016      	movs	r6, r2
100044a6:	2210      	movs	r2, #16
100044a8:	400a      	ands	r2, r1
100044aa:	d002      	beq.n	100044b2 <.konstantenschleife+0x16>
100044ac:	f7fe fdbf 	bl	1000302e <Code_528>
100044b0:	e76d      	b.n	1000438e <Code_911+0x2>
100044b2:	2220      	movs	r2, #32
100044b4:	400a      	ands	r2, r1
100044b6:	d002      	beq.n	100044be <.konstantenschleife+0x22>
100044b8:	f7fe fd1f 	bl	10002efa <Code_506>
100044bc:	e767      	b.n	1000438e <Code_911+0x2>
100044be:	f7fe fbef 	bl	10002ca0 <Code_464>
100044c2:	e764      	b.n	1000438e <Code_911+0x2>

100044c4 <.interpret_opcodierbar>:
100044c4:	2007      	movs	r0, #7
100044c6:	4001      	ands	r1, r0
100044c8:	0010      	movs	r0, r2
100044ca:	f7fe fd2a 	bl	10002f22 <suchedefinitionsende>
100044ce:	2901      	cmp	r1, #1
100044d0:	d115      	bne.n	100044fe <.interpret_opcodierbar_rechenlogik>
100044d2:	2b01      	cmp	r3, #1
100044d4:	d1dc      	bne.n	10004490 <.interpret_faltoptimierung>
100044d6:	21ff      	movs	r1, #255	; 0xff
100044d8:	4031      	ands	r1, r6
100044da:	42b1      	cmp	r1, r6
100044dc:	d104      	bne.n	100044e8 <.interpret_opcodieren_ueber_r0>
100044de:	8840      	ldrh	r0, [r0, #2]
100044e0:	4306      	orrs	r6, r0
100044e2:	f7fe ff12 	bl	1000330a <Code_584>
100044e6:	e752      	b.n	1000438e <Code_911+0x2>

100044e8 <.interpret_opcodieren_ueber_r0>:
100044e8:	3f04      	subs	r7, #4
100044ea:	603e      	str	r6, [r7, #0]
100044ec:	2600      	movs	r6, #0
100044ee:	f7fe fb35 	bl	10002b5c <Code_437>
100044f2:	3f04      	subs	r7, #4
100044f4:	603e      	str	r6, [r7, #0]
100044f6:	8806      	ldrh	r6, [r0, #0]
100044f8:	f7fe ff07 	bl	1000330a <Code_584>
100044fc:	e747      	b.n	1000438e <Code_911+0x2>

100044fe <.interpret_opcodierbar_rechenlogik>:
100044fe:	2902      	cmp	r1, #2
10004500:	d102      	bne.n	10004508 <.interpret_opcodierbar_gleichungleich>
10004502:	2b01      	cmp	r3, #1
10004504:	d1c4      	bne.n	10004490 <.interpret_faltoptimierung>
10004506:	e7ef      	b.n	100044e8 <.interpret_opcodieren_ueber_r0>

10004508 <.interpret_opcodierbar_gleichungleich>:
10004508:	2903      	cmp	r1, #3
1000450a:	d11c      	bne.n	10004546 <.interpret_opcodierbar_schieben>
1000450c:	2b01      	cmp	r3, #1
1000450e:	d1bf      	bne.n	10004490 <.interpret_faltoptimierung>
10004510:	21ff      	movs	r1, #255	; 0xff
10004512:	4031      	ands	r1, r6
10004514:	42b1      	cmp	r1, r6
10004516:	d10a      	bne.n	1000452e <.interpret_opcodierbar_gleichungleich+0x26>
10004518:	4955      	ldr	r1, [pc, #340]	; (10004670 <quit_innenschleife+0x28>)
1000451a:	430e      	orrs	r6, r1
1000451c:	f7fe fef5 	bl	1000330a <Code_584>
10004520:	3204      	adds	r2, #4
10004522:	3f04      	subs	r7, #4
10004524:	603e      	str	r6, [r7, #0]
10004526:	0016      	movs	r6, r2
10004528:	f7fe fce7 	bl	10002efa <Code_506>
1000452c:	e72f      	b.n	1000438e <Code_911+0x2>
1000452e:	3f04      	subs	r7, #4
10004530:	603e      	str	r6, [r7, #0]
10004532:	2600      	movs	r6, #0
10004534:	f7fe fb12 	bl	10002b5c <Code_437>
10004538:	3202      	adds	r2, #2
1000453a:	3f04      	subs	r7, #4
1000453c:	603e      	str	r6, [r7, #0]
1000453e:	0016      	movs	r6, r2
10004540:	f7fe fcdb 	bl	10002efa <Code_506>
10004544:	e723      	b.n	1000438e <Code_911+0x2>

10004546 <.interpret_opcodierbar_schieben>:
10004546:	2904      	cmp	r1, #4
10004548:	d118      	bne.n	1000457c <.interpret_opcodierbar_speicherschreiben>
1000454a:	2b01      	cmp	r3, #1
1000454c:	d1a0      	bne.n	10004490 <.interpret_faltoptimierung>
1000454e:	0033      	movs	r3, r6
10004550:	cf40      	ldmia	r7!, {r6}
10004552:	2b00      	cmp	r3, #0
10004554:	d100      	bne.n	10004558 <.interpret_opcodierbar_schieben+0x12>
10004556:	e71a      	b.n	1000438e <Code_911+0x2>
10004558:	221f      	movs	r2, #31
1000455a:	401a      	ands	r2, r3
1000455c:	429a      	cmp	r2, r3
1000455e:	d005      	beq.n	1000456c <.interpret_opcodierbar_schieben+0x26>
10004560:	3f04      	subs	r7, #4
10004562:	603e      	str	r6, [r7, #0]
10004564:	8846      	ldrh	r6, [r0, #2]
10004566:	f7fe fed0 	bl	1000330a <Code_584>
1000456a:	e710      	b.n	1000438e <Code_911+0x2>
1000456c:	3f04      	subs	r7, #4
1000456e:	603e      	str	r6, [r7, #0]
10004570:	8806      	ldrh	r6, [r0, #0]
10004572:	019b      	lsls	r3, r3, #6
10004574:	431e      	orrs	r6, r3
10004576:	f7fe fec8 	bl	1000330a <Code_584>
1000457a:	e708      	b.n	1000438e <Code_911+0x2>

1000457c <.interpret_opcodierbar_speicherschreiben>:
1000457c:	2905      	cmp	r1, #5
1000457e:	d123      	bne.n	100045c8 <.interpret_opcodierbar_andere>
10004580:	2b01      	cmp	r3, #1
10004582:	d10f      	bne.n	100045a4 <.interpret_opcodierbar_speicherschreiben+0x28>
10004584:	3f04      	subs	r7, #4
10004586:	603e      	str	r6, [r7, #0]
10004588:	2600      	movs	r6, #0
1000458a:	f7fe fae7 	bl	10002b5c <Code_437>
1000458e:	3f04      	subs	r7, #4
10004590:	603e      	str	r6, [r7, #0]
10004592:	0006      	movs	r6, r0
10004594:	f7fe fcb1 	bl	10002efa <Code_506>
10004598:	3f04      	subs	r7, #4
1000459a:	603e      	str	r6, [r7, #0]
1000459c:	4e35      	ldr	r6, [pc, #212]	; (10004674 <quit_innenschleife+0x2c>)
1000459e:	f7fe feb4 	bl	1000330a <Code_584>
100045a2:	e6f4      	b.n	1000438e <Code_911+0x2>
100045a4:	3f04      	subs	r7, #4
100045a6:	603e      	str	r6, [r7, #0]
100045a8:	2600      	movs	r6, #0
100045aa:	f7fe fad7 	bl	10002b5c <Code_437>
100045ae:	3f04      	subs	r7, #4
100045b0:	603e      	str	r6, [r7, #0]
100045b2:	2601      	movs	r6, #1
100045b4:	f7fe fad2 	bl	10002b5c <Code_437>
100045b8:	f7fe fcb3 	bl	10002f22 <suchedefinitionsende>
100045bc:	3f04      	subs	r7, #4
100045be:	603e      	str	r6, [r7, #0]
100045c0:	0006      	movs	r6, r0
100045c2:	f7fe fc9a 	bl	10002efa <Code_506>
100045c6:	e6e2      	b.n	1000438e <Code_911+0x2>

100045c8 <.interpret_opcodierbar_andere>:
100045c8:	3001      	adds	r0, #1
100045ca:	4780      	blx	r0
100045cc:	e6df      	b.n	1000438e <Code_911+0x2>

100045ce <konstantenschreiben>:
100045ce:	b500      	push	{lr}
100045d0:	2b00      	cmp	r3, #0
100045d2:	d00b      	beq.n	100045ec <.konstanteninnenschleife+0x18>

100045d4 <.konstanteninnenschleife>:
100045d4:	3b01      	subs	r3, #1
100045d6:	3f04      	subs	r7, #4
100045d8:	603e      	str	r6, [r7, #0]
100045da:	009e      	lsls	r6, r3, #2
100045dc:	59be      	ldr	r6, [r7, r6]
100045de:	f7fe fb99 	bl	10002d14 <Code_473>
100045e2:	2b00      	cmp	r3, #0
100045e4:	d1f6      	bne.n	100045d4 <.konstanteninnenschleife>
100045e6:	3d04      	subs	r5, #4
100045e8:	002f      	movs	r7, r5
100045ea:	cf40      	ldmia	r7!, {r6}
100045ec:	2500      	movs	r5, #0
100045ee:	6025      	str	r5, [r4, #0]
100045f0:	bd00      	pop	{pc}
100045f2:	46c0      	nop			; (mov r8, r8)

100045f4 <Dictionary_959>:
100045f4:	10004610 	andne	r4, r0, r0, lsl r6
100045f8:	68090081 	stmdavs	r9, {r0, r7}
100045fc:	2d6b6f6f 	stclcs	15, cr6, [fp, #-444]!	; 0xfffffe44
10004600:	74697571 	strbtvc	r7, [r9], #-1393	; 0x571

10004604 <Code_959>:
10004604:	3f04      	subs	r7, #4
10004606:	603e      	str	r6, [r7, #0]
10004608:	4e1b      	ldr	r6, [pc, #108]	; (10004678 <quit_innenschleife+0x30>)
1000460a:	4770      	bx	lr
1000460c:	10004648 	andne	r4, r0, r8, asr #12

10004610 <Dictionary_962>:
10004610:	1000468c 	andne	r4, r0, ip, lsl #13
10004614:	71040000 	mrsvc	r0, (UNDEF: 4)
10004618:	00746975 	rsbseq	r6, r4, r5, ror r9

1000461c <Code_962>:
1000461c:	4817      	ldr	r0, [pc, #92]	; (1000467c <quit_innenschleife+0x34>)
1000461e:	4685      	mov	sp, r0
10004620:	4f0f      	ldr	r7, [pc, #60]	; (10004660 <quit_innenschleife+0x18>)
10004622:	f7fd fd13 	bl	1000204c <Code_241>
10004626:	4816      	ldr	r0, [pc, #88]	; (10004680 <quit_innenschleife+0x38>)
10004628:	210a      	movs	r1, #10
1000462a:	6001      	str	r1, [r0, #0]
1000462c:	480f      	ldr	r0, [pc, #60]	; (1000466c <quit_innenschleife+0x24>)
1000462e:	2100      	movs	r1, #0
10004630:	6001      	str	r1, [r0, #0]
10004632:	480d      	ldr	r0, [pc, #52]	; (10004668 <quit_innenschleife+0x20>)
10004634:	6001      	str	r1, [r0, #0]
10004636:	4809      	ldr	r0, [pc, #36]	; (1000465c <quit_innenschleife+0x14>)
10004638:	6001      	str	r1, [r0, #0]
1000463a:	4812      	ldr	r0, [pc, #72]	; (10004684 <quit_innenschleife+0x3c>)
1000463c:	6001      	str	r1, [r0, #0]
1000463e:	4912      	ldr	r1, [pc, #72]	; (10004688 <quit_innenschleife+0x40>)
10004640:	6041      	str	r1, [r0, #4]

10004642 <quit_intern>:
10004642:	480d      	ldr	r0, [pc, #52]	; (10004678 <quit_innenschleife+0x30>)
10004644:	6800      	ldr	r0, [r0, #0]
10004646:	4687      	mov	pc, r0

10004648 <quit_innenschleife>:
10004648:	f7fe f890 	bl	1000276c <Code_347>
1000464c:	f7ff fe9e 	bl	1000438c <Code_911>
10004650:	f7fe f936 	bl	100028c0 <dotgaensefuesschen>
10004654:	6b6f2005 	blvs	11bcc670 <FlashDictionaryEnde+0x1bbb670>
10004658:	e7f50a2e 	ldrb	r0, [r5, lr, lsr #20]!
1000465c:	20003fe4 	andcs	r3, r0, r4, ror #31
10004660:	20000424 	andcs	r0, r0, r4, lsr #8
10004664:	20000224 	andcs	r0, r0, r4, lsr #4
10004668:	200000fc 	strdcs	r0, [r0], -ip
1000466c:	20003fd8 	ldrdcs	r3, [r0], -r8
10004670:	00003e00 	andeq	r3, r0, r0, lsl #28
10004674:	0000cf40 	andeq	ip, r0, r0, asr #30
10004678:	20003fd4 	ldrdcs	r3, [r0], -r4
1000467c:	20000524 	andcs	r0, r0, r4, lsr #10
10004680:	20003ffc 	strdcs	r3, [r0], -ip
10004684:	20003fdc 	ldrdcs	r3, [r0], -ip
10004688:	2000015c 	andcs	r0, r0, ip, asr r1

1000468c <Dictionary_964>:
1000468c:	100046a8 	andne	r4, r0, r8, lsr #13
10004690:	65050000 	strvs	r0, [r5]
10004694:	3f746e69 	svccc	0x00746e69

10004698 <Code_964>:
10004698:	3f04      	subs	r7, #4
1000469a:	603e      	str	r6, [r7, #0]
1000469c:	f3ef 8610 	mrs	r6, PRIMASK
100046a0:	3e01      	subs	r6, #1
100046a2:	41b6      	sbcs	r6, r6
100046a4:	4770      	bx	lr
100046a6:	46c0      	nop			; (mov r8, r8)

100046a8 <Dictionary_966>:
100046a8:	100046b8 			; <UNDEFINED> instruction: 0x100046b8
100046ac:	65040020 	strvs	r0, [r4, #-32]
100046b0:	00746e69 	rsbseq	r6, r4, r9, ror #28

100046b4 <Code_966>:
100046b4:	b662      	cpsie	i
100046b6:	4770      	bx	lr

100046b8 <Dictionary_967>:
100046b8:	100046c8 	andne	r4, r0, r8, asr #13
100046bc:	64040020 	strvs	r0, [r4], #-32
100046c0:	00746e69 	rsbseq	r6, r4, r9, ror #28

100046c4 <Code_967>:
100046c4:	b672      	cpsid	i
100046c6:	4770      	bx	lr

100046c8 <Dictionary_968>:
100046c8:	100046e0 	andne	r4, r0, r0, ror #13
100046cc:	69040020 	stmdbvs	r4, {r5}
100046d0:	00727370 	rsbseq	r7, r2, r0, ror r3

100046d4 <Code_968>:
100046d4:	3f04      	subs	r7, #4
100046d6:	603e      	str	r6, [r7, #0]
100046d8:	f3ef 8605 	mrs	r6, IPSR
100046dc:	4770      	bx	lr
100046de:	46c0      	nop			; (mov r8, r8)

100046e0 <Dictionary_970>:
100046e0:	100046ec 	andne	r4, r0, ip, ror #13
100046e4:	6e030000 	cdpvs	0, 0, cr0, cr3, cr0, {0}
100046e8:	4770706f 	ldrbmi	r7, [r0, -pc, rrx]!

100046ea <Code_970>:
100046ea:	4770      	bx	lr

100046ec <Dictionary_971>:
100046ec:	10004730 	andne	r4, r0, r0, lsr r7
100046f0:	75090000 	strvc	r0, [r9]
100046f4:	6e61686e 	cdpvs	8, 6, cr6, cr1, cr14, {3}
100046f8:	64656c64 	strbtvs	r6, [r5], #-3172	; 0xc64

100046fc <Code_971>:
100046fc:	b500      	push	{lr}
100046fe:	f7fe f8df 	bl	100028c0 <dotgaensefuesschen>
10004702:	686e5514 	stmdavs	lr!, {r2, r4, r8, sl, ip, lr}^
10004706:	6c646e61 	stclvs	14, cr6, [r4], #-388	; 0xfffffe7c
1000470a:	49206465 	stmdbmi	r0!, {r0, r2, r5, r6, sl, sp, lr}
1000470e:	7265746e 	rsbvc	r7, r5, #1845493760	; 0x6e000000
10004712:	74707572 	ldrbtvc	r7, [r0], #-1394	; 0x572
10004716:	3f040020 	svccc	0x00040020
1000471a:	603e      	str	r6, [r7, #0]
1000471c:	f3ef 8605 	mrs	r6, IPSR
10004720:	f7fe f946 	bl	100029b0 <Code_401>
10004724:	f7fe f8cc 	bl	100028c0 <dotgaensefuesschen>
10004728:	000a2102 	andeq	r2, sl, r2, lsl #2
1000472c:	bd00      	pop	{pc}
1000472e:	46c0      	nop			; (mov r8, r8)

10004730 <Dictionary_975>:
10004730:	10004744 	andne	r4, r0, r4, asr #14
10004734:	72050000 	andvc	r0, r5, #0
10004738:	74657365 	strbtvc	r7, [r5], #-869	; 0x365

1000473c <Code_975>:
1000473c:	481d      	ldr	r0, [pc, #116]	; (100047b4 <nullhandler+0x6>)
1000473e:	491e      	ldr	r1, [pc, #120]	; (100047b8 <nullhandler+0xa>)
10004740:	6001      	str	r1, [r0, #0]
10004742:	46c0      	nop			; (mov r8, r8)

10004744 <Dictionary_977>:
10004744:	10004768 	andne	r4, r0, r8, ror #14
10004748:	690b0081 	stmdbvs	fp, {r0, r7}
1000474c:	732d7172 	teqvc	sp, #-2147483620	; 0x8000001c
10004750:	69747379 	ldmdbvs	r4!, {r0, r3, r4, r5, r6, r8, r9, ip, sp, lr}^
10004754:	3f046b63 	svccc	0x00046b63

10004756 <Code_977>:
10004756:	3f04      	subs	r7, #4
10004758:	603e      	str	r6, [r7, #0]
1000475a:	4e18      	ldr	r6, [pc, #96]	; (100047bc <nullhandler+0xe>)
1000475c:	4770      	bx	lr
1000475e:	100046fc 	strdne	r4, [r0], -ip

10004762 <irq_vektor_systick>:
10004762:	4816      	ldr	r0, [pc, #88]	; (100047bc <nullhandler+0xe>)
10004764:	6800      	ldr	r0, [r0, #0]
10004766:	4687      	mov	pc, r0

10004768 <Dictionary_981>:
10004768:	1000478c 	andne	r4, r0, ip, lsl #15
1000476c:	69090081 	stmdbvs	r9, {r0, r7}
10004770:	662d7172 			; <UNDEFINED> instruction: 0x662d7172
10004774:	746c7561 	strbtvc	r7, [ip], #-1377	; 0x561

10004778 <Code_981>:
10004778:	3f04      	subs	r7, #4
1000477a:	603e      	str	r6, [r7, #0]
1000477c:	4e10      	ldr	r6, [pc, #64]	; (100047c0 <nullhandler+0x12>)
1000477e:	4770      	bx	lr
10004780:	100046fc 	strdne	r4, [r0], -ip

10004784 <faulthandler>:
10004784:	480e      	ldr	r0, [pc, #56]	; (100047c0 <nullhandler+0x12>)
10004786:	6800      	ldr	r0, [r0, #0]
10004788:	4687      	mov	pc, r0
1000478a:	46c0      	nop			; (mov r8, r8)

1000478c <Dictionary_985>:
1000478c:	100048bc 			; <UNDEFINED> instruction: 0x100048bc
10004790:	690e0081 	stmdbvs	lr, {r0, r7}
10004794:	632d7172 	teqvs	sp, #-2147483620	; 0x8000001c
10004798:	656c6c6f 	strbvs	r6, [ip, #-3183]!	; 0xc6f
1000479c:	6f697463 	svcvs	0x00697463
100047a0:	3f04006e 	svccc	0x0004006e

100047a2 <Code_985>:
100047a2:	3f04      	subs	r7, #4
100047a4:	603e      	str	r6, [r7, #0]
100047a6:	4e07      	ldr	r6, [pc, #28]	; (100047c4 <nullhandler+0x16>)
100047a8:	4770      	bx	lr
100047aa:	100046fc 	strdne	r4, [r0], -ip

100047ae <nullhandler>:
100047ae:	4805      	ldr	r0, [pc, #20]	; (100047c4 <nullhandler+0x16>)
100047b0:	6800      	ldr	r0, [r0, #0]
100047b2:	4687      	mov	pc, r0
100047b4:	e000ed0c 	and	lr, r0, ip, lsl #26
100047b8:	05fa0004 	ldrbeq	r0, [sl, #4]!
100047bc:	20003fd0 	ldrdcs	r3, [r0], -r0
100047c0:	20003fcc 	andcs	r3, r0, ip, asr #31
100047c4:	20003fc8 	andcs	r3, r0, r8, asr #31

100047c8 <irq_entry>:
100047c8:	6800      	ldr	r0, [r0, #0]
100047ca:	4687      	mov	pc, r0
100047cc:	46c0      	nop			; (mov r8, r8)
100047ce:	46c0      	nop			; (mov r8, r8)
100047d0:	46c0      	nop			; (mov r8, r8)
100047d2:	46c0      	nop			; (mov r8, r8)
100047d4:	4800      	ldr	r0, [pc, #0]	; (100047d8 <irq_entry+0x10>)
100047d6:	e7f7      	b.n	100047c8 <irq_entry>
100047d8:	20003fcc 	andcs	r3, r0, ip, asr #31
100047dc:	46c0      	nop			; (mov r8, r8)
100047de:	46c0      	nop			; (mov r8, r8)
100047e0:	46c0      	nop			; (mov r8, r8)
100047e2:	46c0      	nop			; (mov r8, r8)
100047e4:	46c0      	nop			; (mov r8, r8)
100047e6:	46c0      	nop			; (mov r8, r8)
100047e8:	46c0      	nop			; (mov r8, r8)
100047ea:	46c0      	nop			; (mov r8, r8)
100047ec:	46c0      	nop			; (mov r8, r8)
100047ee:	46c0      	nop			; (mov r8, r8)
100047f0:	46c0      	nop			; (mov r8, r8)
100047f2:	46c0      	nop			; (mov r8, r8)
100047f4:	481d      	ldr	r0, [pc, #116]	; (1000486c <irq_entry+0xa4>)
100047f6:	e7e7      	b.n	100047c8 <irq_entry>
100047f8:	46c0      	nop			; (mov r8, r8)
100047fa:	46c0      	nop			; (mov r8, r8)
100047fc:	46c0      	nop			; (mov r8, r8)
100047fe:	46c0      	nop			; (mov r8, r8)
10004800:	481a      	ldr	r0, [pc, #104]	; (1000486c <irq_entry+0xa4>)
10004802:	e7e1      	b.n	100047c8 <irq_entry>
10004804:	481a      	ldr	r0, [pc, #104]	; (10004870 <irq_entry+0xa8>)
10004806:	e7df      	b.n	100047c8 <irq_entry>
10004808:	481a      	ldr	r0, [pc, #104]	; (10004874 <irq_entry+0xac>)
1000480a:	e7dd      	b.n	100047c8 <irq_entry>
1000480c:	481a      	ldr	r0, [pc, #104]	; (10004878 <irq_entry+0xb0>)
1000480e:	e7db      	b.n	100047c8 <irq_entry>
10004810:	46c0      	nop			; (mov r8, r8)
10004812:	46c0      	nop			; (mov r8, r8)
10004814:	4819      	ldr	r0, [pc, #100]	; (1000487c <irq_entry+0xb4>)
10004816:	e7d7      	b.n	100047c8 <irq_entry>
10004818:	4819      	ldr	r0, [pc, #100]	; (10004880 <irq_entry+0xb8>)
1000481a:	e7d5      	b.n	100047c8 <irq_entry>
1000481c:	4819      	ldr	r0, [pc, #100]	; (10004884 <irq_entry+0xbc>)
1000481e:	e7d3      	b.n	100047c8 <irq_entry>
10004820:	4819      	ldr	r0, [pc, #100]	; (10004888 <irq_entry+0xc0>)
10004822:	e7d1      	b.n	100047c8 <irq_entry>
10004824:	46c0      	nop			; (mov r8, r8)
10004826:	46c0      	nop			; (mov r8, r8)
10004828:	46c0      	nop			; (mov r8, r8)
1000482a:	46c0      	nop			; (mov r8, r8)
1000482c:	4817      	ldr	r0, [pc, #92]	; (1000488c <irq_entry+0xc4>)
1000482e:	e7cb      	b.n	100047c8 <irq_entry>
10004830:	4817      	ldr	r0, [pc, #92]	; (10004890 <irq_entry+0xc8>)
10004832:	e7c9      	b.n	100047c8 <irq_entry>
10004834:	4817      	ldr	r0, [pc, #92]	; (10004894 <irq_entry+0xcc>)
10004836:	e7c7      	b.n	100047c8 <irq_entry>
10004838:	4817      	ldr	r0, [pc, #92]	; (10004898 <irq_entry+0xd0>)
1000483a:	e7c5      	b.n	100047c8 <irq_entry>
1000483c:	4817      	ldr	r0, [pc, #92]	; (1000489c <irq_entry+0xd4>)
1000483e:	e7c3      	b.n	100047c8 <irq_entry>
10004840:	4817      	ldr	r0, [pc, #92]	; (100048a0 <irq_entry+0xd8>)
10004842:	e7c1      	b.n	100047c8 <irq_entry>
10004844:	4817      	ldr	r0, [pc, #92]	; (100048a4 <irq_entry+0xdc>)
10004846:	e7bf      	b.n	100047c8 <irq_entry>
10004848:	4817      	ldr	r0, [pc, #92]	; (100048a8 <irq_entry+0xe0>)
1000484a:	e7bd      	b.n	100047c8 <irq_entry>
1000484c:	46c0      	nop			; (mov r8, r8)
1000484e:	46c0      	nop			; (mov r8, r8)
10004850:	46c0      	nop			; (mov r8, r8)
10004852:	46c0      	nop			; (mov r8, r8)
10004854:	46c0      	nop			; (mov r8, r8)
10004856:	46c0      	nop			; (mov r8, r8)
10004858:	46c0      	nop			; (mov r8, r8)
1000485a:	46c0      	nop			; (mov r8, r8)
1000485c:	4813      	ldr	r0, [pc, #76]	; (100048ac <irq_entry+0xe4>)
1000485e:	e7b3      	b.n	100047c8 <irq_entry>
10004860:	4813      	ldr	r0, [pc, #76]	; (100048b0 <irq_entry+0xe8>)
10004862:	e7b1      	b.n	100047c8 <irq_entry>
10004864:	4813      	ldr	r0, [pc, #76]	; (100048b4 <irq_entry+0xec>)
10004866:	e7af      	b.n	100047c8 <irq_entry>
10004868:	4813      	ldr	r0, [pc, #76]	; (100048b8 <irq_entry+0xf0>)
1000486a:	e7ad      	b.n	100047c8 <irq_entry>
1000486c:	20003fc8 	andcs	r3, r0, r8, asr #31
10004870:	20003fd0 	ldrdcs	r3, [r0], -r0
10004874:	20003fc4 	andcs	r3, r0, r4, asr #31
10004878:	20003fc0 	andcs	r3, r0, r0, asr #31
1000487c:	20003fbc 			; <UNDEFINED> instruction: 0x20003fbc
10004880:	20003fb8 			; <UNDEFINED> instruction: 0x20003fb8
10004884:	20003fb4 			; <UNDEFINED> instruction: 0x20003fb4
10004888:	20003fb0 			; <UNDEFINED> instruction: 0x20003fb0
1000488c:	20003fac 	andcs	r3, r0, ip, lsr #31
10004890:	20003fa8 	andcs	r3, r0, r8, lsr #31
10004894:	20003fa4 	andcs	r3, r0, r4, lsr #31
10004898:	20003fa0 	andcs	r3, r0, r0, lsr #31
1000489c:	20003f9c 	mulcs	r0, ip, pc	; <UNPREDICTABLE>
100048a0:	20003f98 	mulcs	r0, r8, pc	; <UNPREDICTABLE>
100048a4:	20003f94 	mulcs	r0, r4, pc	; <UNPREDICTABLE>
100048a8:	20003f90 	mulcs	r0, r0, pc	; <UNPREDICTABLE>
100048ac:	20003f8c 	andcs	r3, r0, ip, lsl #31
100048b0:	20003f88 	andcs	r3, r0, r8, lsl #31
100048b4:	20003f84 	andcs	r3, r0, r4, lsl #31
100048b8:	20003f80 	andcs	r3, r0, r0, lsl #31

100048bc <Dictionary_989>:
100048bc:	100048e0 	andne	r4, r0, r0, ror #17
100048c0:	69080081 	stmdbvs	r8, {r0, r7}
100048c4:	732d7172 	teqvc	sp, #-2147483620	; 0x8000001c
100048c8:	00307563 	eorseq	r7, r0, r3, ror #10

100048cc <Code_989>:
100048cc:	3f04      	subs	r7, #4
100048ce:	603e      	str	r6, [r7, #0]
100048d0:	4eef      	ldr	r6, [pc, #956]	; (10004c90 <init_name+0x4>)
100048d2:	4770      	bx	lr
100048d4:	100046fc 	strdne	r4, [r0], -ip

100048d8 <irq_vektor_scu0>:
100048d8:	48ed      	ldr	r0, [pc, #948]	; (10004c90 <init_name+0x4>)
100048da:	6800      	ldr	r0, [r0, #0]
100048dc:	4687      	mov	pc, r0
100048de:	46c0      	nop			; (mov r8, r8)

100048e0 <Dictionary_993>:
100048e0:	10004904 	andne	r4, r0, r4, lsl #18
100048e4:	69080081 	stmdbvs	r8, {r0, r7}
100048e8:	732d7172 	teqvc	sp, #-2147483620	; 0x8000001c
100048ec:	00317563 	eorseq	r7, r1, r3, ror #10

100048f0 <Code_993>:
100048f0:	3f04      	subs	r7, #4
100048f2:	603e      	str	r6, [r7, #0]
100048f4:	4ee7      	ldr	r6, [pc, #924]	; (10004c94 <init_name+0x8>)
100048f6:	4770      	bx	lr
100048f8:	100046fc 	strdne	r4, [r0], -ip

100048fc <irq_vektor_scu1>:
100048fc:	48e5      	ldr	r0, [pc, #916]	; (10004c94 <init_name+0x8>)
100048fe:	6800      	ldr	r0, [r0, #0]
10004900:	4687      	mov	pc, r0
10004902:	46c0      	nop			; (mov r8, r8)

10004904 <Dictionary_997>:
10004904:	10004928 	andne	r4, r0, r8, lsr #18
10004908:	69080081 	stmdbvs	r8, {r0, r7}
1000490c:	652d7172 	strvs	r7, [sp, #-370]!	; 0x172
10004910:	00307572 	eorseq	r7, r0, r2, ror r5

10004914 <Code_997>:
10004914:	3f04      	subs	r7, #4
10004916:	603e      	str	r6, [r7, #0]
10004918:	4edf      	ldr	r6, [pc, #892]	; (10004c98 <init_name+0xc>)
1000491a:	4770      	bx	lr
1000491c:	100046fc 	strdne	r4, [r0], -ip

10004920 <irq_vektor_eru0>:
10004920:	48dd      	ldr	r0, [pc, #884]	; (10004c98 <init_name+0xc>)
10004922:	6800      	ldr	r0, [r0, #0]
10004924:	4687      	mov	pc, r0
10004926:	46c0      	nop			; (mov r8, r8)

10004928 <Dictionary_1001>:
10004928:	1000494c 	andne	r4, r0, ip, asr #18
1000492c:	69080081 	stmdbvs	r8, {r0, r7}
10004930:	652d7172 	strvs	r7, [sp, #-370]!	; 0x172
10004934:	00317572 	eorseq	r7, r1, r2, ror r5

10004938 <Code_1001>:
10004938:	3f04      	subs	r7, #4
1000493a:	603e      	str	r6, [r7, #0]
1000493c:	4ed7      	ldr	r6, [pc, #860]	; (10004c9c <init_name+0x10>)
1000493e:	4770      	bx	lr
10004940:	100046fc 	strdne	r4, [r0], -ip

10004944 <irq_vektor_eru1>:
10004944:	48d5      	ldr	r0, [pc, #852]	; (10004c9c <init_name+0x10>)
10004946:	6800      	ldr	r0, [r0, #0]
10004948:	4687      	mov	pc, r0
1000494a:	46c0      	nop			; (mov r8, r8)

1000494c <Dictionary_1005>:
1000494c:	10004970 	andne	r4, r0, r0, ror r9
10004950:	69080081 	stmdbvs	r8, {r0, r7}
10004954:	652d7172 	strvs	r7, [sp, #-370]!	; 0x172
10004958:	00327572 	eorseq	r7, r2, r2, ror r5

1000495c <Code_1005>:
1000495c:	3f04      	subs	r7, #4
1000495e:	603e      	str	r6, [r7, #0]
10004960:	4ecf      	ldr	r6, [pc, #828]	; (10004ca0 <init_name+0x14>)
10004962:	4770      	bx	lr
10004964:	100046fc 	strdne	r4, [r0], -ip

10004968 <irq_vektor_eru2>:
10004968:	48cd      	ldr	r0, [pc, #820]	; (10004ca0 <init_name+0x14>)
1000496a:	6800      	ldr	r0, [r0, #0]
1000496c:	4687      	mov	pc, r0
1000496e:	46c0      	nop			; (mov r8, r8)

10004970 <Dictionary_1009>:
10004970:	10004994 	mulne	r0, r4, r9
10004974:	69080081 	stmdbvs	r8, {r0, r7}
10004978:	652d7172 	strvs	r7, [sp, #-370]!	; 0x172
1000497c:	00337572 	eorseq	r7, r3, r2, ror r5

10004980 <Code_1009>:
10004980:	3f04      	subs	r7, #4
10004982:	603e      	str	r6, [r7, #0]
10004984:	4ec7      	ldr	r6, [pc, #796]	; (10004ca4 <init_name+0x18>)
10004986:	4770      	bx	lr
10004988:	100046fc 	strdne	r4, [r0], -ip

1000498c <irq_vektor_eru3>:
1000498c:	48c5      	ldr	r0, [pc, #788]	; (10004ca4 <init_name+0x18>)
1000498e:	6800      	ldr	r0, [r0, #0]
10004990:	4687      	mov	pc, r0
10004992:	46c0      	nop			; (mov r8, r8)

10004994 <Dictionary_1013>:
10004994:	100049b8 			; <UNDEFINED> instruction: 0x100049b8
10004998:	69080081 	stmdbvs	r8, {r0, r7}
1000499c:	752d7172 	strvc	r7, [sp, #-370]!	; 0x172
100049a0:	00306973 	eorseq	r6, r0, r3, ror r9

100049a4 <Code_1013>:
100049a4:	3f04      	subs	r7, #4
100049a6:	603e      	str	r6, [r7, #0]
100049a8:	4ebf      	ldr	r6, [pc, #764]	; (10004ca8 <init_name+0x1c>)
100049aa:	4770      	bx	lr
100049ac:	100046fc 	strdne	r4, [r0], -ip

100049b0 <irq_vektor_usi0>:
100049b0:	48bd      	ldr	r0, [pc, #756]	; (10004ca8 <init_name+0x1c>)
100049b2:	6800      	ldr	r0, [r0, #0]
100049b4:	4687      	mov	pc, r0
100049b6:	46c0      	nop			; (mov r8, r8)

100049b8 <Dictionary_1017>:
100049b8:	100049dc 	ldrdne	r4, [r0], -ip
100049bc:	69080081 	stmdbvs	r8, {r0, r7}
100049c0:	752d7172 	strvc	r7, [sp, #-370]!	; 0x172
100049c4:	00316973 	eorseq	r6, r1, r3, ror r9

100049c8 <Code_1017>:
100049c8:	3f04      	subs	r7, #4
100049ca:	603e      	str	r6, [r7, #0]
100049cc:	4eb7      	ldr	r6, [pc, #732]	; (10004cac <init_name+0x20>)
100049ce:	4770      	bx	lr
100049d0:	100046fc 	strdne	r4, [r0], -ip

100049d4 <irq_vektor_usi1>:
100049d4:	48b5      	ldr	r0, [pc, #724]	; (10004cac <init_name+0x20>)
100049d6:	6800      	ldr	r0, [r0, #0]
100049d8:	4687      	mov	pc, r0
100049da:	46c0      	nop			; (mov r8, r8)

100049dc <Dictionary_1021>:
100049dc:	10004a00 	andne	r4, r0, r0, lsl #20
100049e0:	69080081 	stmdbvs	r8, {r0, r7}
100049e4:	752d7172 	strvc	r7, [sp, #-370]!	; 0x172
100049e8:	00326973 	eorseq	r6, r2, r3, ror r9

100049ec <Code_1021>:
100049ec:	3f04      	subs	r7, #4
100049ee:	603e      	str	r6, [r7, #0]
100049f0:	4eaf      	ldr	r6, [pc, #700]	; (10004cb0 <init_name+0x24>)
100049f2:	4770      	bx	lr
100049f4:	100046fc 	strdne	r4, [r0], -ip

100049f8 <irq_vektor_usi2>:
100049f8:	48ad      	ldr	r0, [pc, #692]	; (10004cb0 <init_name+0x24>)
100049fa:	6800      	ldr	r0, [r0, #0]
100049fc:	4687      	mov	pc, r0
100049fe:	46c0      	nop			; (mov r8, r8)

10004a00 <Dictionary_1025>:
10004a00:	10004a24 	andne	r4, r0, r4, lsr #20
10004a04:	69080081 	stmdbvs	r8, {r0, r7}
10004a08:	752d7172 	strvc	r7, [sp, #-370]!	; 0x172
10004a0c:	00336973 	eorseq	r6, r3, r3, ror r9

10004a10 <Code_1025>:
10004a10:	3f04      	subs	r7, #4
10004a12:	603e      	str	r6, [r7, #0]
10004a14:	4ea7      	ldr	r6, [pc, #668]	; (10004cb4 <init_name+0x28>)
10004a16:	4770      	bx	lr
10004a18:	100046fc 	strdne	r4, [r0], -ip

10004a1c <irq_vektor_usi3>:
10004a1c:	48a5      	ldr	r0, [pc, #660]	; (10004cb4 <init_name+0x28>)
10004a1e:	6800      	ldr	r0, [r0, #0]
10004a20:	4687      	mov	pc, r0
10004a22:	46c0      	nop			; (mov r8, r8)

10004a24 <Dictionary_1029>:
10004a24:	10004a48 	andne	r4, r0, r8, asr #20
10004a28:	69080081 	stmdbvs	r8, {r0, r7}
10004a2c:	752d7172 	strvc	r7, [sp, #-370]!	; 0x172
10004a30:	00346973 	eorseq	r6, r4, r3, ror r9

10004a34 <Code_1029>:
10004a34:	3f04      	subs	r7, #4
10004a36:	603e      	str	r6, [r7, #0]
10004a38:	4e9f      	ldr	r6, [pc, #636]	; (10004cb8 <init_name+0x2c>)
10004a3a:	4770      	bx	lr
10004a3c:	100046fc 	strdne	r4, [r0], -ip

10004a40 <irq_vektor_usi4>:
10004a40:	489d      	ldr	r0, [pc, #628]	; (10004cb8 <init_name+0x2c>)
10004a42:	6800      	ldr	r0, [r0, #0]
10004a44:	4687      	mov	pc, r0
10004a46:	46c0      	nop			; (mov r8, r8)

10004a48 <Dictionary_1033>:
10004a48:	10004a6c 	andne	r4, r0, ip, ror #20
10004a4c:	69080081 	stmdbvs	r8, {r0, r7}
10004a50:	752d7172 	strvc	r7, [sp, #-370]!	; 0x172
10004a54:	00356973 	eorseq	r6, r5, r3, ror r9

10004a58 <Code_1033>:
10004a58:	3f04      	subs	r7, #4
10004a5a:	603e      	str	r6, [r7, #0]
10004a5c:	4e97      	ldr	r6, [pc, #604]	; (10004cbc <init_name+0x30>)
10004a5e:	4770      	bx	lr
10004a60:	100046fc 	strdne	r4, [r0], -ip

10004a64 <irq_vektor_usi5>:
10004a64:	4895      	ldr	r0, [pc, #596]	; (10004cbc <init_name+0x30>)
10004a66:	6800      	ldr	r0, [r0, #0]
10004a68:	4687      	mov	pc, r0
10004a6a:	46c0      	nop			; (mov r8, r8)

10004a6c <Dictionary_1037>:
10004a6c:	10004a90 	mulne	r0, r0, sl
10004a70:	69080081 	stmdbvs	r8, {r0, r7}
10004a74:	612d7172 	teqvs	sp, r2, ror r1
10004a78:	00306364 	eorseq	r6, r0, r4, ror #6

10004a7c <Code_1037>:
10004a7c:	3f04      	subs	r7, #4
10004a7e:	603e      	str	r6, [r7, #0]
10004a80:	4e8f      	ldr	r6, [pc, #572]	; (10004cc0 <init_name+0x34>)
10004a82:	4770      	bx	lr
10004a84:	100046fc 	strdne	r4, [r0], -ip

10004a88 <irq_vektor_adc0>:
10004a88:	488d      	ldr	r0, [pc, #564]	; (10004cc0 <init_name+0x34>)
10004a8a:	6800      	ldr	r0, [r0, #0]
10004a8c:	4687      	mov	pc, r0
10004a8e:	46c0      	nop			; (mov r8, r8)

10004a90 <Dictionary_1041>:
10004a90:	10004ab4 			; <UNDEFINED> instruction: 0x10004ab4
10004a94:	69080081 	stmdbvs	r8, {r0, r7}
10004a98:	612d7172 	teqvs	sp, r2, ror r1
10004a9c:	00316364 	eorseq	r6, r1, r4, ror #6

10004aa0 <Code_1041>:
10004aa0:	3f04      	subs	r7, #4
10004aa2:	603e      	str	r6, [r7, #0]
10004aa4:	4e87      	ldr	r6, [pc, #540]	; (10004cc4 <init_name+0x38>)
10004aa6:	4770      	bx	lr
10004aa8:	100046fc 	strdne	r4, [r0], -ip

10004aac <irq_vektor_adc1>:
10004aac:	4885      	ldr	r0, [pc, #532]	; (10004cc4 <init_name+0x38>)
10004aae:	6800      	ldr	r0, [r0, #0]
10004ab0:	4687      	mov	pc, r0
10004ab2:	46c0      	nop			; (mov r8, r8)

10004ab4 <Dictionary_1045>:
10004ab4:	10004ad8 	ldrdne	r4, [r0], -r8
10004ab8:	69080081 	stmdbvs	r8, {r0, r7}
10004abc:	632d7172 	teqvs	sp, #-2147483620	; 0x8000001c
10004ac0:	00307563 	eorseq	r7, r0, r3, ror #10

10004ac4 <Code_1045>:
10004ac4:	3f04      	subs	r7, #4
10004ac6:	603e      	str	r6, [r7, #0]
10004ac8:	4e7f      	ldr	r6, [pc, #508]	; (10004cc8 <init_name+0x3c>)
10004aca:	4770      	bx	lr
10004acc:	100046fc 	strdne	r4, [r0], -ip

10004ad0 <irq_vektor_ccu0>:
10004ad0:	487d      	ldr	r0, [pc, #500]	; (10004cc8 <init_name+0x3c>)
10004ad2:	6800      	ldr	r0, [r0, #0]
10004ad4:	4687      	mov	pc, r0
10004ad6:	46c0      	nop			; (mov r8, r8)

10004ad8 <Dictionary_1049>:
10004ad8:	10004afc 	strdne	r4, [r0], -ip
10004adc:	69080081 	stmdbvs	r8, {r0, r7}
10004ae0:	632d7172 	teqvs	sp, #-2147483620	; 0x8000001c
10004ae4:	00317563 	eorseq	r7, r1, r3, ror #10

10004ae8 <Code_1049>:
10004ae8:	3f04      	subs	r7, #4
10004aea:	603e      	str	r6, [r7, #0]
10004aec:	4e77      	ldr	r6, [pc, #476]	; (10004ccc <init_name+0x40>)
10004aee:	4770      	bx	lr
10004af0:	100046fc 	strdne	r4, [r0], -ip

10004af4 <irq_vektor_ccu1>:
10004af4:	4875      	ldr	r0, [pc, #468]	; (10004ccc <init_name+0x40>)
10004af6:	6800      	ldr	r0, [r0, #0]
10004af8:	4687      	mov	pc, r0
10004afa:	46c0      	nop			; (mov r8, r8)

10004afc <Dictionary_1053>:
10004afc:	10004b20 	andne	r4, r0, r0, lsr #22
10004b00:	69080081 	stmdbvs	r8, {r0, r7}
10004b04:	632d7172 	teqvs	sp, #-2147483620	; 0x8000001c
10004b08:	00327563 	eorseq	r7, r2, r3, ror #10

10004b0c <Code_1053>:
10004b0c:	3f04      	subs	r7, #4
10004b0e:	603e      	str	r6, [r7, #0]
10004b10:	4e6f      	ldr	r6, [pc, #444]	; (10004cd0 <init_name+0x44>)
10004b12:	4770      	bx	lr
10004b14:	100046fc 	strdne	r4, [r0], -ip

10004b18 <irq_vektor_ccu2>:
10004b18:	486d      	ldr	r0, [pc, #436]	; (10004cd0 <init_name+0x44>)
10004b1a:	6800      	ldr	r0, [r0, #0]
10004b1c:	4687      	mov	pc, r0
10004b1e:	46c0      	nop			; (mov r8, r8)

10004b20 <Dictionary_1057>:
10004b20:	10004b44 	andne	r4, r0, r4, asr #22
10004b24:	69080081 	stmdbvs	r8, {r0, r7}
10004b28:	632d7172 	teqvs	sp, #-2147483620	; 0x8000001c
10004b2c:	00337563 	eorseq	r7, r3, r3, ror #10

10004b30 <Code_1057>:
10004b30:	3f04      	subs	r7, #4
10004b32:	603e      	str	r6, [r7, #0]
10004b34:	4e67      	ldr	r6, [pc, #412]	; (10004cd4 <init_name+0x48>)
10004b36:	4770      	bx	lr
10004b38:	100046fc 	strdne	r4, [r0], -ip

10004b3c <irq_vektor_ccu3>:
10004b3c:	4865      	ldr	r0, [pc, #404]	; (10004cd4 <init_name+0x48>)
10004b3e:	6800      	ldr	r0, [r0, #0]
10004b40:	4687      	mov	pc, r0
10004b42:	46c0      	nop			; (mov r8, r8)

10004b44 <Dictionary_1060>:
10004b44:	1000500c 	andne	r5, r0, ip
10004b48:	2d18ffff 	ldccs	15, cr15, [r8, #-1020]	; 0xfffffc04
10004b4c:	46202d2d 	strtmi	r2, [r0], -sp, lsr #26
10004b50:	6873616c 	ldmdavs	r3!, {r2, r3, r5, r6, r8, sp, lr}^
10004b54:	63694420 	cmnvs	r9, #536870912	; 0x20000000
10004b58:	6e6f6974 	mcrvs	9, 3, r6, cr15, cr4, {3}
10004b5c:	20797261 	rsbscs	r7, r9, r1, ror #4
10004b60:	002d2d2d 	eoreq	r2, sp, sp, lsr #26

10004b64 <Code_1060>:
10004b64:	f7fd fc27 	bl	100023b6 <uart_init>
10004b68:	4f5b      	ldr	r7, [pc, #364]	; (10004cd8 <init_name+0x4c>)
10004b6a:	3f04      	subs	r7, #4
10004b6c:	603e      	str	r6, [r7, #0]
10004b6e:	4e5b      	ldr	r6, [pc, #364]	; (10004cdc <init_name+0x50>)
10004b70:	3f04      	subs	r7, #4
10004b72:	603e      	str	r6, [r7, #0]
10004b74:	4e5a      	ldr	r6, [pc, #360]	; (10004ce0 <init_name+0x54>)
10004b76:	3f04      	subs	r7, #4
10004b78:	603e      	str	r6, [r7, #0]
10004b7a:	26f4      	movs	r6, #244	; 0xf4
10004b7c:	f7fc ffd2 	bl	10001b24 <Code_183>
10004b80:	4858      	ldr	r0, [pc, #352]	; (10004ce4 <init_name+0x58>)
10004b82:	4685      	mov	sp, r0
10004b84:	4f54      	ldr	r7, [pc, #336]	; (10004cd8 <init_name+0x4c>)
10004b86:	262a      	movs	r6, #42	; 0x2a
10004b88:	4857      	ldr	r0, [pc, #348]	; (10004ce8 <init_name+0x5c>)
10004b8a:	4958      	ldr	r1, [pc, #352]	; (10004cec <init_name+0x60>)
10004b8c:	6001      	str	r1, [r0, #0]
10004b8e:	4858      	ldr	r0, [pc, #352]	; (10004cf0 <init_name+0x64>)
10004b90:	4958      	ldr	r1, [pc, #352]	; (10004cf4 <init_name+0x68>)
10004b92:	6001      	str	r1, [r0, #0]
10004b94:	3f04      	subs	r7, #4
10004b96:	603e      	str	r6, [r7, #0]
10004b98:	4e56      	ldr	r6, [pc, #344]	; (10004cf4 <init_name+0x68>)
10004b9a:	4d57      	ldr	r5, [pc, #348]	; (10004cf8 <init_name+0x6c>)

10004b9c <SucheFlashPointer_Hangelschleife>:
10004b9c:	88b1      	ldrh	r1, [r6, #4]
10004b9e:	4b57      	ldr	r3, [pc, #348]	; (10004cfc <init_name+0x70>)
10004ba0:	4299      	cmp	r1, r3
10004ba2:	d024      	beq.n	10004bee <Sucheflashpointer_Speicherbelegung_fertig>
10004ba4:	4b56      	ldr	r3, [pc, #344]	; (10004d00 <init_name+0x74>)
10004ba6:	400b      	ands	r3, r1
10004ba8:	d00a      	beq.n	10004bc0 <SucheFlashPointer_Hangelschleife+0x24>
10004baa:	1db0      	adds	r0, r6, #6
10004bac:	f7fe fe6c 	bl	10003888 <skipstring>
10004bb0:	f7fe f9b7 	bl	10002f22 <suchedefinitionsende>
10004bb4:	8803      	ldrh	r3, [r0, #0]
10004bb6:	8840      	ldrh	r0, [r0, #2]
10004bb8:	0400      	lsls	r0, r0, #16
10004bba:	4303      	orrs	r3, r0
10004bbc:	1aed      	subs	r5, r5, r3
10004bbe:	e016      	b.n	10004bee <Sucheflashpointer_Speicherbelegung_fertig>
10004bc0:	2380      	movs	r3, #128	; 0x80
10004bc2:	400b      	ands	r3, r1
10004bc4:	d013      	beq.n	10004bee <Sucheflashpointer_Speicherbelegung_fertig>
10004bc6:	230f      	movs	r3, #15
10004bc8:	4019      	ands	r1, r3
10004bca:	0089      	lsls	r1, r1, #2
10004bcc:	1a6d      	subs	r5, r5, r1
10004bce:	1db0      	adds	r0, r6, #6
10004bd0:	f7fe fe5a 	bl	10003888 <skipstring>
10004bd4:	f7fe f9a5 	bl	10002f22 <suchedefinitionsende>
10004bd8:	3f04      	subs	r7, #4
10004bda:	603e      	str	r6, [r7, #0]
10004bdc:	0006      	movs	r6, r0
10004bde:	3f04      	subs	r7, #4
10004be0:	603e      	str	r6, [r7, #0]
10004be2:	002e      	movs	r6, r5
10004be4:	3f04      	subs	r7, #4
10004be6:	603e      	str	r6, [r7, #0]
10004be8:	000e      	movs	r6, r1
10004bea:	f7fc ff9b 	bl	10001b24 <Code_183>

10004bee <Sucheflashpointer_Speicherbelegung_fertig>:
10004bee:	f7fe fe28 	bl	10003842 <Code_675>
10004bf2:	0030      	movs	r0, r6
10004bf4:	cf40      	ldmia	r7!, {r6}
10004bf6:	d0d1      	beq.n	10004b9c <SucheFlashPointer_Hangelschleife>
10004bf8:	4842      	ldr	r0, [pc, #264]	; (10004d04 <init_name+0x78>)
10004bfa:	6006      	str	r6, [r0, #0]
10004bfc:	cf40      	ldmia	r7!, {r6}
10004bfe:	4842      	ldr	r0, [pc, #264]	; (10004d08 <init_name+0x7c>)
10004c00:	6005      	str	r5, [r0, #0]
10004c02:	4842      	ldr	r0, [pc, #264]	; (10004d0c <init_name+0x80>)
10004c04:	4942      	ldr	r1, [pc, #264]	; (10004d10 <init_name+0x84>)
10004c06:	4a3d      	ldr	r2, [pc, #244]	; (10004cfc <init_name+0x70>)
10004c08:	4288      	cmp	r0, r1
10004c0a:	d004      	beq.n	10004c16 <Sucheflashpointer_Speicherbelegung_fertig+0x28>
10004c0c:	3802      	subs	r0, #2
10004c0e:	8803      	ldrh	r3, [r0, #0]
10004c10:	4293      	cmp	r3, r2
10004c12:	d0f9      	beq.n	10004c08 <Sucheflashpointer_Speicherbelegung_fertig+0x1a>
10004c14:	3002      	adds	r0, #2
10004c16:	493f      	ldr	r1, [pc, #252]	; (10004d14 <init_name+0x88>)
10004c18:	6008      	str	r0, [r1, #0]
10004c1a:	f7fd fa17 	bl	1000204c <Code_241>
10004c1e:	f7fd fe4f 	bl	100028c0 <dotgaensefuesschen>
10004c22:	63654d42 	cmnvs	r5, #4224	; 0x1080
10004c26:	70736972 	rsbsvc	r6, r3, r2, ror r9
10004c2a:	6574532d 	ldrbvs	r5, [r4, #-813]!	; 0x32d
10004c2e:	72616c6c 	rsbvc	r6, r1, #27648	; 0x6c00
10004c32:	32207369 	eorcc	r7, r0, #-1543503871	; 0xa4000001
10004c36:	312e322e 	teqcc	lr, lr, lsr #4
10004c3a:	74697720 	strbtvc	r7, [r9], #-1824	; 0x720
10004c3e:	304d2068 	subcc	r2, sp, r8, rrx
10004c42:	726f6320 	rsbvc	r6, pc, #-2147483648	; 0x80000000
10004c46:	6f662065 	svcvs	0x00662065
10004c4a:	4d582072 	ldclmi	0, cr2, [r8, #-456]	; 0xfffffe38
10004c4e:	30313143 	eorscc	r3, r1, r3, asr #2
10004c52:	79622030 	stmdbvc	r2!, {r4, r5, sp}^
10004c56:	74614d20 	strbtvc	r4, [r1], #-3360	; 0xd20
10004c5a:	61696874 	smcvs	38532	; 0x9684
10004c5e:	6f4b2073 	svcvs	0x004b2073
10004c62:	000a6863 	andeq	r6, sl, r3, ror #16
10004c66:	482c      	ldr	r0, [pc, #176]	; (10004d18 <init_name+0x8c>)
10004c68:	2100      	movs	r1, #0
10004c6a:	6001      	str	r1, [r0, #0]
10004c6c:	3f04      	subs	r7, #4
10004c6e:	603e      	str	r6, [r7, #0]
10004c70:	4e2a      	ldr	r6, [pc, #168]	; (10004d1c <init_name+0x90>)
10004c72:	3f04      	subs	r7, #4
10004c74:	603e      	str	r6, [r7, #0]
10004c76:	2604      	movs	r6, #4
10004c78:	f7fe fe16 	bl	100038a8 <Code_680>
10004c7c:	cf40      	ldmia	r7!, {r6}
10004c7e:	2e00      	cmp	r6, #0
10004c80:	d002      	beq.n	10004c88 <Sucheflashpointer_Speicherbelegung_fertig+0x9a>
10004c82:	f7fe f9d4 	bl	1000302e <Code_528>
10004c86:	e4dc      	b.n	10004642 <quit_intern>
10004c88:	cf40      	ldmia	r7!, {r6}
10004c8a:	e4c7      	b.n	1000461c <Code_962>

10004c8c <init_name>:
10004c8c:	74696e69 	strbtvc	r6, [r9], #-3689	; 0xe69
10004c90:	20003fc4 	andcs	r3, r0, r4, asr #31
10004c94:	20003fc0 	andcs	r3, r0, r0, asr #31
10004c98:	20003fbc 			; <UNDEFINED> instruction: 0x20003fbc
10004c9c:	20003fb8 			; <UNDEFINED> instruction: 0x20003fb8
10004ca0:	20003fb4 			; <UNDEFINED> instruction: 0x20003fb4
10004ca4:	20003fb0 			; <UNDEFINED> instruction: 0x20003fb0
10004ca8:	20003fac 	andcs	r3, r0, ip, lsr #31
10004cac:	20003fa8 	andcs	r3, r0, r8, lsr #31
10004cb0:	20003fa4 	andcs	r3, r0, r4, lsr #31
10004cb4:	20003fa0 	andcs	r3, r0, r0, lsr #31
10004cb8:	20003f9c 	mulcs	r0, ip, pc	; <UNPREDICTABLE>
10004cbc:	20003f98 	mulcs	r0, r8, pc	; <UNPREDICTABLE>
10004cc0:	20003f94 	mulcs	r0, r4, pc	; <UNPREDICTABLE>
10004cc4:	20003f90 	mulcs	r0, r0, pc	; <UNPREDICTABLE>
10004cc8:	20003f8c 	andcs	r3, r0, ip, lsl #31
10004ccc:	20003f88 	andcs	r3, r0, r8, lsl #31
10004cd0:	20003f84 	andcs	r3, r0, r4, lsl #31
10004cd4:	20003f80 	andcs	r3, r0, r0, lsl #31
10004cd8:	20000424 	andcs	r0, r0, r4, lsr #8
10004cdc:	100047c8 	andne	r4, r0, r8, asr #15
10004ce0:	20000000 	andcs	r0, r0, r0
10004ce4:	20000524 	andcs	r0, r0, r4, lsr #10
10004ce8:	200000f4 	strdcs	r0, [r0], -r4
10004cec:	200007c8 	andcs	r0, r0, r8, asr #15
10004cf0:	200000f8 	strdcs	r0, [r0], -r8
10004cf4:	10001018 	andne	r1, r0, r8, lsl r0
10004cf8:	20004000 	andcs	r4, r0, r0
10004cfc:	0000ffff 	strdeq	pc, [r0], -pc	; <UNPREDICTABLE>
10004d00:	00000100 	andeq	r0, r0, r0, lsl #2
10004d04:	20000110 	andcs	r0, r0, r0, lsl r1
10004d08:	20000118 	andcs	r0, r0, r8, lsl r1
10004d0c:	10011000 	andne	r1, r1, r0
10004d10:	10005000 	andne	r5, r0, r0
10004d14:	2000010c 	andcs	r0, r0, ip, lsl #2
10004d18:	200000fc 	strdcs	r0, [r0], -ip
10004d1c:	10004c8c 	andne	r4, r0, ip, lsl #25

Disassembly of section .ARM.attributes:

00000000 <.ARM.attributes>:
   0:	00002241 	andeq	r2, r0, r1, asr #4
   4:	61656100 	cmnvs	r5, r0, lsl #2
   8:	01006962 	tsteq	r0, r2, ror #18
   c:	00000018 	andeq	r0, r0, r8, lsl r0
  10:	726f4305 	rsbvc	r4, pc, #335544320	; 0x14000000
  14:	2d786574 	cfldr64cs	mvdx6, [r8, #-464]!	; 0xfffffe30
  18:	0600304d 	streq	r3, [r0], -sp, asr #32
  1c:	094d070c 	stmdbeq	sp, {r2, r3, r8, r9, sl}^
  20:	Address 0x00000020 is out of bounds.

