
mecrisp-stellaris-lpc1114fn28.elf:     file format elf32-littlearm


Disassembly of section .text:

00000000 <addresszero>:
       0:	1000048c 	andne	r0, r0, ip, lsl #9
       4:	00004bf5 	strdeq	r4, [r0], -r5
       8:	00004b41 	andeq	r4, r0, r1, asr #22
       c:	00004b41 	andeq	r4, r0, r1, asr #22
	...
      2c:	00004b6b 	andeq	r4, r0, fp, ror #22
	...
      38:	00004b6b 	andeq	r4, r0, fp, ror #22
      3c:	00004b1f 	andeq	r4, r0, pc, lsl fp
      40:	00004b6b 	andeq	r4, r0, fp, ror #22
      44:	00004b6b 	andeq	r4, r0, fp, ror #22
      48:	00004b6b 	andeq	r4, r0, fp, ror #22
      4c:	00004b6b 	andeq	r4, r0, fp, ror #22
      50:	00004b6b 	andeq	r4, r0, fp, ror #22
      54:	00004b6b 	andeq	r4, r0, fp, ror #22
      58:	00004b6b 	andeq	r4, r0, fp, ror #22
      5c:	00004b6b 	andeq	r4, r0, fp, ror #22
      60:	00004b6b 	andeq	r4, r0, fp, ror #22
      64:	00004b6b 	andeq	r4, r0, fp, ror #22
      68:	00004b6b 	andeq	r4, r0, fp, ror #22
      6c:	00004b6b 	andeq	r4, r0, fp, ror #22
      70:	00004b6b 	andeq	r4, r0, fp, ror #22
      74:	00004b6b 	andeq	r4, r0, fp, ror #22
      78:	00004b6b 	andeq	r4, r0, fp, ror #22
      7c:	00004bab 	andeq	r4, r0, fp, lsr #23
      80:	00004b6b 	andeq	r4, r0, fp, ror #22
      84:	00004b6b 	andeq	r4, r0, fp, ror #22
      88:	00004b6b 	andeq	r4, r0, fp, ror #22
      8c:	00004b6b 	andeq	r4, r0, fp, ror #22
      90:	00004b6b 	andeq	r4, r0, fp, ror #22
      94:	00004bcd 	andeq	r4, r0, sp, asr #23
      98:	00004b6b 	andeq	r4, r0, fp, ror #22
      9c:	00004b6b 	andeq	r4, r0, fp, ror #22
      a0:	00004b8b 	andeq	r4, r0, fp, lsl #23
      a4:	00004b6b 	andeq	r4, r0, fp, ror #22
      a8:	00004b6b 	andeq	r4, r0, fp, ror #22
      ac:	00004b6b 	andeq	r4, r0, fp, ror #22
      b0:	00004b6b 	andeq	r4, r0, fp, ror #22
      b4:	00004b6b 	andeq	r4, r0, fp, ror #22
      b8:	00004b6b 	andeq	r4, r0, fp, ror #22
      bc:	00004b6b 	andeq	r4, r0, fp, ror #22
      c0:	ffffffff 			; <UNDEFINED> instruction: 0xffffffff
      c4:	ffffffff 			; <UNDEFINED> instruction: 0xffffffff
      c8:	ffffffff 			; <UNDEFINED> instruction: 0xffffffff
      cc:	ffffffff 			; <UNDEFINED> instruction: 0xffffffff
      d0:	ffffffff 			; <UNDEFINED> instruction: 0xffffffff
      d4:	ffffffff 			; <UNDEFINED> instruction: 0xffffffff
      d8:	ffffffff 			; <UNDEFINED> instruction: 0xffffffff
      dc:	ffffffff 			; <UNDEFINED> instruction: 0xffffffff
      e0:	ffffffff 			; <UNDEFINED> instruction: 0xffffffff
      e4:	ffffffff 			; <UNDEFINED> instruction: 0xffffffff
      e8:	ffffffff 			; <UNDEFINED> instruction: 0xffffffff
      ec:	ffffffff 			; <UNDEFINED> instruction: 0xffffffff
      f0:	ffffffff 			; <UNDEFINED> instruction: 0xffffffff
      f4:	ffffffff 			; <UNDEFINED> instruction: 0xffffffff
      f8:	ffffffff 			; <UNDEFINED> instruction: 0xffffffff
      fc:	ffffffff 			; <UNDEFINED> instruction: 0xffffffff
     100:	ffffffff 			; <UNDEFINED> instruction: 0xffffffff
     104:	ffffffff 			; <UNDEFINED> instruction: 0xffffffff
     108:	ffffffff 			; <UNDEFINED> instruction: 0xffffffff
     10c:	ffffffff 			; <UNDEFINED> instruction: 0xffffffff
     110:	ffffffff 			; <UNDEFINED> instruction: 0xffffffff
     114:	ffffffff 			; <UNDEFINED> instruction: 0xffffffff
     118:	ffffffff 			; <UNDEFINED> instruction: 0xffffffff
     11c:	ffffffff 			; <UNDEFINED> instruction: 0xffffffff
     120:	ffffffff 			; <UNDEFINED> instruction: 0xffffffff
     124:	ffffffff 			; <UNDEFINED> instruction: 0xffffffff
     128:	ffffffff 			; <UNDEFINED> instruction: 0xffffffff
     12c:	ffffffff 			; <UNDEFINED> instruction: 0xffffffff
     130:	ffffffff 			; <UNDEFINED> instruction: 0xffffffff
     134:	ffffffff 			; <UNDEFINED> instruction: 0xffffffff
     138:	ffffffff 			; <UNDEFINED> instruction: 0xffffffff
     13c:	ffffffff 			; <UNDEFINED> instruction: 0xffffffff
     140:	ffffffff 			; <UNDEFINED> instruction: 0xffffffff
     144:	ffffffff 			; <UNDEFINED> instruction: 0xffffffff
     148:	ffffffff 			; <UNDEFINED> instruction: 0xffffffff
     14c:	ffffffff 			; <UNDEFINED> instruction: 0xffffffff
     150:	ffffffff 			; <UNDEFINED> instruction: 0xffffffff
     154:	ffffffff 			; <UNDEFINED> instruction: 0xffffffff
     158:	ffffffff 			; <UNDEFINED> instruction: 0xffffffff
     15c:	ffffffff 			; <UNDEFINED> instruction: 0xffffffff
     160:	ffffffff 			; <UNDEFINED> instruction: 0xffffffff
     164:	ffffffff 			; <UNDEFINED> instruction: 0xffffffff
     168:	ffffffff 			; <UNDEFINED> instruction: 0xffffffff
     16c:	ffffffff 			; <UNDEFINED> instruction: 0xffffffff
     170:	ffffffff 			; <UNDEFINED> instruction: 0xffffffff
     174:	ffffffff 			; <UNDEFINED> instruction: 0xffffffff
     178:	ffffffff 			; <UNDEFINED> instruction: 0xffffffff
     17c:	ffffffff 			; <UNDEFINED> instruction: 0xffffffff
     180:	ffffffff 			; <UNDEFINED> instruction: 0xffffffff
     184:	ffffffff 			; <UNDEFINED> instruction: 0xffffffff
     188:	ffffffff 			; <UNDEFINED> instruction: 0xffffffff
     18c:	ffffffff 			; <UNDEFINED> instruction: 0xffffffff
     190:	ffffffff 			; <UNDEFINED> instruction: 0xffffffff
     194:	ffffffff 			; <UNDEFINED> instruction: 0xffffffff
     198:	ffffffff 			; <UNDEFINED> instruction: 0xffffffff
     19c:	ffffffff 			; <UNDEFINED> instruction: 0xffffffff
     1a0:	ffffffff 			; <UNDEFINED> instruction: 0xffffffff
     1a4:	ffffffff 			; <UNDEFINED> instruction: 0xffffffff
     1a8:	ffffffff 			; <UNDEFINED> instruction: 0xffffffff
     1ac:	ffffffff 			; <UNDEFINED> instruction: 0xffffffff
     1b0:	ffffffff 			; <UNDEFINED> instruction: 0xffffffff
     1b4:	ffffffff 			; <UNDEFINED> instruction: 0xffffffff
     1b8:	ffffffff 			; <UNDEFINED> instruction: 0xffffffff
     1bc:	ffffffff 			; <UNDEFINED> instruction: 0xffffffff
     1c0:	ffffffff 			; <UNDEFINED> instruction: 0xffffffff
     1c4:	ffffffff 			; <UNDEFINED> instruction: 0xffffffff
     1c8:	ffffffff 			; <UNDEFINED> instruction: 0xffffffff
     1cc:	ffffffff 			; <UNDEFINED> instruction: 0xffffffff
     1d0:	ffffffff 			; <UNDEFINED> instruction: 0xffffffff
     1d4:	ffffffff 			; <UNDEFINED> instruction: 0xffffffff
     1d8:	ffffffff 			; <UNDEFINED> instruction: 0xffffffff
     1dc:	ffffffff 			; <UNDEFINED> instruction: 0xffffffff
     1e0:	ffffffff 			; <UNDEFINED> instruction: 0xffffffff
     1e4:	ffffffff 			; <UNDEFINED> instruction: 0xffffffff
     1e8:	ffffffff 			; <UNDEFINED> instruction: 0xffffffff
     1ec:	ffffffff 			; <UNDEFINED> instruction: 0xffffffff
     1f0:	ffffffff 			; <UNDEFINED> instruction: 0xffffffff
     1f4:	ffffffff 			; <UNDEFINED> instruction: 0xffffffff
     1f8:	ffffffff 			; <UNDEFINED> instruction: 0xffffffff
     1fc:	ffffffff 			; <UNDEFINED> instruction: 0xffffffff
     200:	ffffffff 			; <UNDEFINED> instruction: 0xffffffff
     204:	ffffffff 			; <UNDEFINED> instruction: 0xffffffff
     208:	ffffffff 			; <UNDEFINED> instruction: 0xffffffff
     20c:	ffffffff 			; <UNDEFINED> instruction: 0xffffffff
     210:	ffffffff 			; <UNDEFINED> instruction: 0xffffffff
     214:	ffffffff 			; <UNDEFINED> instruction: 0xffffffff
     218:	ffffffff 			; <UNDEFINED> instruction: 0xffffffff
     21c:	ffffffff 			; <UNDEFINED> instruction: 0xffffffff
     220:	ffffffff 			; <UNDEFINED> instruction: 0xffffffff
     224:	ffffffff 			; <UNDEFINED> instruction: 0xffffffff
     228:	ffffffff 			; <UNDEFINED> instruction: 0xffffffff
     22c:	ffffffff 			; <UNDEFINED> instruction: 0xffffffff
     230:	ffffffff 			; <UNDEFINED> instruction: 0xffffffff
     234:	ffffffff 			; <UNDEFINED> instruction: 0xffffffff
     238:	ffffffff 			; <UNDEFINED> instruction: 0xffffffff
     23c:	ffffffff 			; <UNDEFINED> instruction: 0xffffffff
     240:	ffffffff 			; <UNDEFINED> instruction: 0xffffffff
     244:	ffffffff 			; <UNDEFINED> instruction: 0xffffffff
     248:	ffffffff 			; <UNDEFINED> instruction: 0xffffffff
     24c:	ffffffff 			; <UNDEFINED> instruction: 0xffffffff
     250:	ffffffff 			; <UNDEFINED> instruction: 0xffffffff
     254:	ffffffff 			; <UNDEFINED> instruction: 0xffffffff
     258:	ffffffff 			; <UNDEFINED> instruction: 0xffffffff
     25c:	ffffffff 			; <UNDEFINED> instruction: 0xffffffff
     260:	ffffffff 			; <UNDEFINED> instruction: 0xffffffff
     264:	ffffffff 			; <UNDEFINED> instruction: 0xffffffff
     268:	ffffffff 			; <UNDEFINED> instruction: 0xffffffff
     26c:	ffffffff 			; <UNDEFINED> instruction: 0xffffffff
     270:	ffffffff 			; <UNDEFINED> instruction: 0xffffffff
     274:	ffffffff 			; <UNDEFINED> instruction: 0xffffffff
     278:	ffffffff 			; <UNDEFINED> instruction: 0xffffffff
     27c:	ffffffff 			; <UNDEFINED> instruction: 0xffffffff
     280:	ffffffff 			; <UNDEFINED> instruction: 0xffffffff
     284:	ffffffff 			; <UNDEFINED> instruction: 0xffffffff
     288:	ffffffff 			; <UNDEFINED> instruction: 0xffffffff
     28c:	ffffffff 			; <UNDEFINED> instruction: 0xffffffff
     290:	ffffffff 			; <UNDEFINED> instruction: 0xffffffff
     294:	ffffffff 			; <UNDEFINED> instruction: 0xffffffff
     298:	ffffffff 			; <UNDEFINED> instruction: 0xffffffff
     29c:	ffffffff 			; <UNDEFINED> instruction: 0xffffffff
     2a0:	ffffffff 			; <UNDEFINED> instruction: 0xffffffff
     2a4:	ffffffff 			; <UNDEFINED> instruction: 0xffffffff
     2a8:	ffffffff 			; <UNDEFINED> instruction: 0xffffffff
     2ac:	ffffffff 			; <UNDEFINED> instruction: 0xffffffff
     2b0:	ffffffff 			; <UNDEFINED> instruction: 0xffffffff
     2b4:	ffffffff 			; <UNDEFINED> instruction: 0xffffffff
     2b8:	ffffffff 			; <UNDEFINED> instruction: 0xffffffff
     2bc:	ffffffff 			; <UNDEFINED> instruction: 0xffffffff
     2c0:	ffffffff 			; <UNDEFINED> instruction: 0xffffffff
     2c4:	ffffffff 			; <UNDEFINED> instruction: 0xffffffff
     2c8:	ffffffff 			; <UNDEFINED> instruction: 0xffffffff
     2cc:	ffffffff 			; <UNDEFINED> instruction: 0xffffffff
     2d0:	ffffffff 			; <UNDEFINED> instruction: 0xffffffff
     2d4:	ffffffff 			; <UNDEFINED> instruction: 0xffffffff
     2d8:	ffffffff 			; <UNDEFINED> instruction: 0xffffffff
     2dc:	ffffffff 			; <UNDEFINED> instruction: 0xffffffff
     2e0:	ffffffff 			; <UNDEFINED> instruction: 0xffffffff
     2e4:	ffffffff 			; <UNDEFINED> instruction: 0xffffffff
     2e8:	ffffffff 			; <UNDEFINED> instruction: 0xffffffff
     2ec:	ffffffff 			; <UNDEFINED> instruction: 0xffffffff
     2f0:	ffffffff 			; <UNDEFINED> instruction: 0xffffffff
     2f4:	ffffffff 			; <UNDEFINED> instruction: 0xffffffff
     2f8:	ffffffff 			; <UNDEFINED> instruction: 0xffffffff
     2fc:	ffffffff 			; <UNDEFINED> instruction: 0xffffffff

00000300 <CoreDictionaryAnfang>:
     300:	00000754 	andeq	r0, r0, r4, asr r7
     304:	2d1effff 	ldccs	15, cr15, [lr, #-1020]	; 0xfffffc04
     308:	4d202d2d 	stcmi	13, cr2, [r0, #-180]!	; 0xffffff4c
     30c:	69726365 	ldmdbvs	r2!, {r0, r2, r5, r6, r8, r9, sp, lr}^
     310:	532d7073 	teqpl	sp, #115	; 0x73
     314:	6c6c6574 	cfstr64vs	mvdx6, [ip], #-464	; 0xfffffe30
     318:	73697261 	cmnvc	r9, #268435462	; 0x10000006
     31c:	726f4320 	rsbvc	r4, pc, #-2147483648	; 0x80000000
     320:	2d2d2065 	stccs	0, cr2, [sp, #-404]!	; 0xfffffe6c
     324:	b507002d 	strlt	r0, [r7, #-45]	; 0x2d

00000326 <Code_34>:
     326:	b507      	push	{r0, r1, r2, lr}
     328:	4890      	ldr	r0, [pc, #576]	; (56c <r0_unfrei+0x18>)
     32a:	2b00      	cmp	r3, #0
     32c:	d009      	beq.n	342 <Code_34+0x1c>
     32e:	f000 f83b 	bl	3a8 <free_5os_element>
     332:	f000 f841 	bl	3b8 <elemente_einen_weiterrutschen_lassen>
     336:	f000 f827 	bl	388 <nget_faltkonstante>
     33a:	6042      	str	r2, [r0, #4]
     33c:	2128      	movs	r1, #40	; 0x28
     33e:	6001      	str	r1, [r0, #0]
     340:	e7f3      	b.n	32a <Code_34+0x4>
     342:	bd07      	pop	{r0, r1, r2, pc}

00000344 <nfaltkonstanten_aufschwimmen>:
     344:	b500      	push	{lr}
     346:	4889      	ldr	r0, [pc, #548]	; (56c <r0_unfrei+0x18>)
     348:	2300      	movs	r3, #0
     34a:	6801      	ldr	r1, [r0, #0]
     34c:	2928      	cmp	r1, #40	; 0x28
     34e:	d105      	bne.n	35c <nfaltkonstanten_aufschwimmen+0x18>
     350:	6842      	ldr	r2, [r0, #4]
     352:	f000 f804 	bl	35e <npush_faltkonstante>
     356:	f000 f84c 	bl	3f2 <eliminiere_tos>
     35a:	e7f6      	b.n	34a <nfaltkonstanten_aufschwimmen+0x6>
     35c:	bd00      	pop	{pc}

0000035e <npush_faltkonstante>:
     35e:	b503      	push	{r0, r1, lr}
     360:	3f04      	subs	r7, #4
     362:	603e      	str	r6, [r7, #0]
     364:	0016      	movs	r6, r2
     366:	3f04      	subs	r7, #4
     368:	603e      	str	r6, [r7, #0]
     36a:	001e      	movs	r6, r3
     36c:	b408      	push	{r3}
     36e:	f000 ffcf 	bl	1310 <Code_235>
     372:	bc08      	pop	{r3}
     374:	3301      	adds	r3, #1
     376:	3f04      	subs	r7, #4
     378:	603e      	str	r6, [r7, #0]
     37a:	4e7d      	ldr	r6, [pc, #500]	; (570 <r0_unfrei+0x1c>)
     37c:	3f04      	subs	r7, #4
     37e:	603e      	str	r6, [r7, #0]
     380:	4e7c      	ldr	r6, [pc, #496]	; (574 <r0_unfrei+0x20>)
     382:	f004 fa0c 	bl	479e <add_to_inline_cache>
     386:	bd03      	pop	{r0, r1, pc}

00000388 <nget_faltkonstante>:
     388:	b503      	push	{r0, r1, lr}
     38a:	3b01      	subs	r3, #1
     38c:	3f04      	subs	r7, #4
     38e:	603e      	str	r6, [r7, #0]
     390:	001e      	movs	r6, r3
     392:	b408      	push	{r3}
     394:	f000 ffa6 	bl	12e4 <Code_233>
     398:	bc08      	pop	{r3}
     39a:	0032      	movs	r2, r6
     39c:	3f04      	subs	r7, #4
     39e:	603e      	str	r6, [r7, #0]
     3a0:	4e75      	ldr	r6, [pc, #468]	; (578 <r0_unfrei+0x24>)
     3a2:	f004 f9fc 	bl	479e <add_to_inline_cache>
     3a6:	bd03      	pop	{r0, r1, pc}

000003a8 <free_5os_element>:
     3a8:	b503      	push	{r0, r1, lr}
     3aa:	4874      	ldr	r0, [pc, #464]	; (57c <r0_unfrei+0x28>)
     3ac:	6801      	ldr	r1, [r0, #0]
     3ae:	291e      	cmp	r1, #30
     3b0:	d001      	beq.n	3b6 <free_5os_element+0xe>
     3b2:	f000 f834 	bl	41e <element_to_stack>
     3b6:	bd03      	pop	{r0, r1, pc}

000003b8 <elemente_einen_weiterrutschen_lassen>:
     3b8:	6981      	ldr	r1, [r0, #24]
     3ba:	6201      	str	r1, [r0, #32]
     3bc:	6901      	ldr	r1, [r0, #16]
     3be:	6181      	str	r1, [r0, #24]
     3c0:	6881      	ldr	r1, [r0, #8]
     3c2:	6101      	str	r1, [r0, #16]
     3c4:	6801      	ldr	r1, [r0, #0]
     3c6:	6081      	str	r1, [r0, #8]
     3c8:	69c1      	ldr	r1, [r0, #28]
     3ca:	6241      	str	r1, [r0, #36]	; 0x24
     3cc:	6941      	ldr	r1, [r0, #20]
     3ce:	61c1      	str	r1, [r0, #28]
     3d0:	68c1      	ldr	r1, [r0, #12]
     3d2:	6141      	str	r1, [r0, #20]
     3d4:	6841      	ldr	r1, [r0, #4]
     3d6:	60c1      	str	r1, [r0, #12]
     3d8:	211e      	movs	r1, #30
     3da:	6001      	str	r1, [r0, #0]
     3dc:	4770      	bx	lr

000003de <befreie_tos>:
     3de:	b50f      	push	{r0, r1, r2, r3, lr}
     3e0:	4862      	ldr	r0, [pc, #392]	; (56c <r0_unfrei+0x18>)
     3e2:	6801      	ldr	r1, [r0, #0]
     3e4:	291e      	cmp	r1, #30
     3e6:	d003      	beq.n	3f0 <befreie_tos+0x12>
     3e8:	f7ff ffde 	bl	3a8 <free_5os_element>
     3ec:	f7ff ffe4 	bl	3b8 <elemente_einen_weiterrutschen_lassen>
     3f0:	bd0f      	pop	{r0, r1, r2, r3, pc}

000003f2 <eliminiere_tos>:
     3f2:	b502      	push	{r1, lr}
     3f4:	6881      	ldr	r1, [r0, #8]
     3f6:	6001      	str	r1, [r0, #0]
     3f8:	68c1      	ldr	r1, [r0, #12]
     3fa:	6041      	str	r1, [r0, #4]
     3fc:	e000      	b.n	400 <BIT10>

000003fe <eliminiere_nos>:
     3fe:	b502      	push	{r1, lr}
     400:	6901      	ldr	r1, [r0, #16]
     402:	6081      	str	r1, [r0, #8]
     404:	6941      	ldr	r1, [r0, #20]
     406:	60c1      	str	r1, [r0, #12]
     408:	6981      	ldr	r1, [r0, #24]
     40a:	6101      	str	r1, [r0, #16]
     40c:	69c1      	ldr	r1, [r0, #28]
     40e:	6141      	str	r1, [r0, #20]
     410:	6a01      	ldr	r1, [r0, #32]
     412:	6181      	str	r1, [r0, #24]
     414:	6a41      	ldr	r1, [r0, #36]	; 0x24
     416:	61c1      	str	r1, [r0, #28]
     418:	211e      	movs	r1, #30
     41a:	6201      	str	r1, [r0, #32]
     41c:	bd02      	pop	{r1, pc}

0000041e <element_to_stack>:
     41e:	b508      	push	{r3, lr}
     420:	6801      	ldr	r1, [r0, #0]
     422:	221e      	movs	r2, #30
     424:	6002      	str	r2, [r0, #0]
     426:	2908      	cmp	r1, #8
     428:	d201      	bcs.n	42e <element_to_stack+0x10>
     42a:	000b      	movs	r3, r1
     42c:	e004      	b.n	438 <element_to_stack+0x1a>
     42e:	2928      	cmp	r1, #40	; 0x28
     430:	d10d      	bne.n	44e <element_to_stack+0x30>
     432:	6843      	ldr	r3, [r0, #4]
     434:	f000 f85d 	bl	4f2 <generiere_konstante>
     438:	3f04      	subs	r7, #4
     43a:	603e      	str	r6, [r7, #0]
     43c:	4e50      	ldr	r6, [pc, #320]	; (580 <r0_unfrei+0x2c>)
     43e:	f003 f83e 	bl	34be <Code_829>
     442:	3f04      	subs	r7, #4
     444:	603e      	str	r6, [r7, #0]
     446:	4e4f      	ldr	r6, [pc, #316]	; (584 <r0_unfrei+0x30>)
     448:	431e      	orrs	r6, r3
     44a:	f003 f838 	bl	34be <Code_829>
     44e:	bd08      	pop	{r3, pc}

00000450 <tidyup_register_allocator>:
     450:	b500      	push	{lr}
     452:	f000 f809 	bl	468 <tidyup_register_allocator_5os>
     456:	f000 f80c 	bl	472 <tidyup_register_allocator_4os>
     45a:	f000 f80f 	bl	47c <tidyup_register_allocator_3os>
     45e:	f000 f812 	bl	486 <tidyup_register_allocator_nos>
     462:	f000 f815 	bl	490 <tidyup_register_allocator_tos>
     466:	bd00      	pop	{pc}

00000468 <tidyup_register_allocator_5os>:
     468:	b50f      	push	{r0, r1, r2, r3, lr}
     46a:	4844      	ldr	r0, [pc, #272]	; (57c <r0_unfrei+0x28>)
     46c:	f7ff ffd7 	bl	41e <element_to_stack>
     470:	bd0f      	pop	{r0, r1, r2, r3, pc}

00000472 <tidyup_register_allocator_4os>:
     472:	b50f      	push	{r0, r1, r2, r3, lr}
     474:	4844      	ldr	r0, [pc, #272]	; (588 <r0_unfrei+0x34>)
     476:	f7ff ffd2 	bl	41e <element_to_stack>
     47a:	bd0f      	pop	{r0, r1, r2, r3, pc}

0000047c <tidyup_register_allocator_3os>:
     47c:	b50f      	push	{r0, r1, r2, r3, lr}
     47e:	4843      	ldr	r0, [pc, #268]	; (58c <r0_unfrei+0x38>)
     480:	f7ff ffcd 	bl	41e <element_to_stack>
     484:	bd0f      	pop	{r0, r1, r2, r3, pc}

00000486 <tidyup_register_allocator_nos>:
     486:	b50f      	push	{r0, r1, r2, r3, lr}
     488:	4841      	ldr	r0, [pc, #260]	; (590 <r0_unfrei+0x3c>)
     48a:	f7ff ffc8 	bl	41e <element_to_stack>
     48e:	bd0f      	pop	{r0, r1, r2, r3, pc}

00000490 <tidyup_register_allocator_tos>:
     490:	b50f      	push	{r0, r1, r2, r3, lr}
     492:	4836      	ldr	r0, [pc, #216]	; (56c <r0_unfrei+0x18>)
     494:	6801      	ldr	r1, [r0, #0]
     496:	2206      	movs	r2, #6
     498:	6002      	str	r2, [r0, #0]
     49a:	291e      	cmp	r1, #30
     49c:	d105      	bne.n	4aa <tidyup_register_allocator_tos+0x1a>
     49e:	3f04      	subs	r7, #4
     4a0:	603e      	str	r6, [r7, #0]
     4a2:	4e3c      	ldr	r6, [pc, #240]	; (594 <r0_unfrei+0x40>)
     4a4:	f003 f80b 	bl	34be <Code_829>
     4a8:	e014      	b.n	4d4 <tidyup_finish>
     4aa:	2928      	cmp	r1, #40	; 0x28
     4ac:	d109      	bne.n	4c2 <tidyup_register_allocator_tos+0x32>
     4ae:	6843      	ldr	r3, [r0, #4]
     4b0:	3f04      	subs	r7, #4
     4b2:	603e      	str	r6, [r7, #0]
     4b4:	001e      	movs	r6, r3
     4b6:	3f04      	subs	r7, #4
     4b8:	603e      	str	r6, [r7, #0]
     4ba:	2606      	movs	r6, #6
     4bc:	f002 fc28 	bl	2d10 <Code_678>
     4c0:	e008      	b.n	4d4 <tidyup_finish>
     4c2:	2906      	cmp	r1, #6
     4c4:	d006      	beq.n	4d4 <tidyup_finish>
     4c6:	3f04      	subs	r7, #4
     4c8:	603e      	str	r6, [r7, #0]
     4ca:	4e33      	ldr	r6, [pc, #204]	; (598 <r0_unfrei+0x44>)
     4cc:	00c9      	lsls	r1, r1, #3
     4ce:	430e      	orrs	r6, r1
     4d0:	f002 fff5 	bl	34be <Code_829>

000004d4 <tidyup_finish>:
     4d4:	f000 f801 	bl	4da <init_register_allocator>
     4d8:	bd0f      	pop	{r0, r1, r2, r3, pc}

000004da <init_register_allocator>:
     4da:	4824      	ldr	r0, [pc, #144]	; (56c <r0_unfrei+0x18>)
     4dc:	211e      	movs	r1, #30
     4de:	6201      	str	r1, [r0, #32]
     4e0:	6181      	str	r1, [r0, #24]
     4e2:	6101      	str	r1, [r0, #16]
     4e4:	6081      	str	r1, [r0, #8]
     4e6:	62c1      	str	r1, [r0, #44]	; 0x2c
     4e8:	2106      	movs	r1, #6
     4ea:	6001      	str	r1, [r0, #0]
     4ec:	2100      	movs	r1, #0
     4ee:	6281      	str	r1, [r0, #40]	; 0x28
     4f0:	4770      	bx	lr

000004f2 <generiere_konstante>:
     4f2:	b507      	push	{r0, r1, r2, lr}
     4f4:	3f04      	subs	r7, #4
     4f6:	603e      	str	r6, [r7, #0]
     4f8:	001e      	movs	r6, r3
     4fa:	f000 f84f 	bl	59c <get_free_register>
     4fe:	3f04      	subs	r7, #4
     500:	603e      	str	r6, [r7, #0]
     502:	001e      	movs	r6, r3
     504:	f002 fc04 	bl	2d10 <Code_678>
     508:	bd07      	pop	{r0, r1, r2, pc}

0000050a <generiere_adresskonstante>:
     50a:	b507      	push	{r0, r1, r2, lr}
     50c:	6ac1      	ldr	r1, [r0, #44]	; 0x2c
     50e:	2928      	cmp	r1, #40	; 0x28
     510:	d104      	bne.n	51c <generiere_adresskonstante+0x12>
     512:	6b01      	ldr	r1, [r0, #48]	; 0x30
     514:	4299      	cmp	r1, r3
     516:	d101      	bne.n	51c <generiere_adresskonstante+0x12>
     518:	2300      	movs	r3, #0
     51a:	bd07      	pop	{r0, r1, r2, pc}
     51c:	6801      	ldr	r1, [r0, #0]
     51e:	2900      	cmp	r1, #0
     520:	d018      	beq.n	554 <r0_unfrei>
     522:	6881      	ldr	r1, [r0, #8]
     524:	2900      	cmp	r1, #0
     526:	d015      	beq.n	554 <r0_unfrei>
     528:	6901      	ldr	r1, [r0, #16]
     52a:	2900      	cmp	r1, #0
     52c:	d012      	beq.n	554 <r0_unfrei>
     52e:	6981      	ldr	r1, [r0, #24]
     530:	2900      	cmp	r1, #0
     532:	d00f      	beq.n	554 <r0_unfrei>
     534:	6a01      	ldr	r1, [r0, #32]
     536:	2900      	cmp	r1, #0
     538:	d00c      	beq.n	554 <r0_unfrei>
     53a:	6303      	str	r3, [r0, #48]	; 0x30
     53c:	3f04      	subs	r7, #4
     53e:	603e      	str	r6, [r7, #0]
     540:	001e      	movs	r6, r3
     542:	3f04      	subs	r7, #4
     544:	603e      	str	r6, [r7, #0]
     546:	2600      	movs	r6, #0
     548:	f002 fbe2 	bl	2d10 <Code_678>
     54c:	2128      	movs	r1, #40	; 0x28
     54e:	62c1      	str	r1, [r0, #44]	; 0x2c
     550:	2300      	movs	r3, #0
     552:	bd07      	pop	{r0, r1, r2, pc}

00000554 <r0_unfrei>:
     554:	3f04      	subs	r7, #4
     556:	603e      	str	r6, [r7, #0]
     558:	001e      	movs	r6, r3
     55a:	f000 f81f 	bl	59c <get_free_register>
     55e:	3f04      	subs	r7, #4
     560:	603e      	str	r6, [r7, #0]
     562:	001e      	movs	r6, r3
     564:	f002 fbd4 	bl	2d10 <Code_678>
     568:	bd07      	pop	{r0, r1, r2, pc}
     56a:	00280000 	eoreq	r0, r8, r0
     56e:	10941000 	addsne	r1, r4, r0
     572:	02610000 	rsbeq	r0, r1, #0
     576:	20000000 	andcs	r0, r0, r0
     57a:	00480000 	subeq	r0, r8, r0
     57e:	3f041000 	svccc	0x00041000
     582:	60380000 	eorsvs	r0, r8, r0
     586:	00400000 	subeq	r0, r0, r0
     58a:	00381000 	eorseq	r1, r8, r0
     58e:	00301000 	eorseq	r1, r0, r0
     592:	cf401000 	svcgt	0x00401000
     596:	46060000 	strmi	r0, [r6], -r0
	...

0000059c <get_free_register>:
     59c:	b537      	push	{r0, r1, r2, r4, r5, lr}
     59e:	4836      	ldr	r0, [pc, #216]	; (678 <expect_four_elements+0x28>)
     5a0:	6801      	ldr	r1, [r0, #0]
     5a2:	6882      	ldr	r2, [r0, #8]
     5a4:	6903      	ldr	r3, [r0, #16]
     5a6:	6984      	ldr	r4, [r0, #24]
     5a8:	6a05      	ldr	r5, [r0, #32]
     5aa:	2006      	movs	r0, #6
     5ac:	f000 f80e 	bl	5cc <get_free_register_intern>
     5b0:	2003      	movs	r0, #3
     5b2:	f000 f80b 	bl	5cc <get_free_register_intern>
     5b6:	2002      	movs	r0, #2
     5b8:	f000 f808 	bl	5cc <get_free_register_intern>
     5bc:	2001      	movs	r0, #1
     5be:	f000 f805 	bl	5cc <get_free_register_intern>
     5c2:	2300      	movs	r3, #0
     5c4:	482c      	ldr	r0, [pc, #176]	; (678 <expect_four_elements+0x28>)
     5c6:	211e      	movs	r1, #30
     5c8:	62c1      	str	r1, [r0, #44]	; 0x2c
     5ca:	bd37      	pop	{r0, r1, r2, r4, r5, pc}

000005cc <get_free_register_intern>:
     5cc:	4281      	cmp	r1, r0
     5ce:	d009      	beq.n	5e4 <get_free_register_intern+0x18>
     5d0:	4282      	cmp	r2, r0
     5d2:	d007      	beq.n	5e4 <get_free_register_intern+0x18>
     5d4:	4283      	cmp	r3, r0
     5d6:	d005      	beq.n	5e4 <get_free_register_intern+0x18>
     5d8:	4284      	cmp	r4, r0
     5da:	d003      	beq.n	5e4 <get_free_register_intern+0x18>
     5dc:	4285      	cmp	r5, r0
     5de:	d001      	beq.n	5e4 <get_free_register_intern+0x18>
     5e0:	0003      	movs	r3, r0
     5e2:	bd37      	pop	{r0, r1, r2, r4, r5, pc}
     5e4:	4770      	bx	lr

000005e6 <erstes_element_belegen>:
     5e6:	3f04      	subs	r7, #4
     5e8:	603e      	str	r6, [r7, #0]
     5ea:	4e24      	ldr	r6, [pc, #144]	; (67c <expect_four_elements+0x2c>)

000005ec <element_belegen>:
     5ec:	b500      	push	{lr}
     5ee:	5881      	ldr	r1, [r0, r2]
     5f0:	291e      	cmp	r1, #30
     5f2:	d105      	bne.n	600 <element_belegen+0x14>
     5f4:	f7ff ffd2 	bl	59c <get_free_register>
     5f8:	5083      	str	r3, [r0, r2]
     5fa:	2101      	movs	r1, #1
     5fc:	4099      	lsls	r1, r3
     5fe:	430e      	orrs	r6, r1
     600:	bd00      	pop	{pc}

00000602 <expect_one_element>:
     602:	b500      	push	{lr}
     604:	6801      	ldr	r1, [r0, #0]
     606:	291e      	cmp	r1, #30
     608:	d104      	bne.n	614 <expect_one_element+0x12>
     60a:	2200      	movs	r2, #0
     60c:	f7ff ffeb 	bl	5e6 <erstes_element_belegen>
     610:	f002 ff55 	bl	34be <Code_829>
     614:	bd00      	pop	{pc}

00000616 <expect_two_elements>:
     616:	b500      	push	{lr}
     618:	6881      	ldr	r1, [r0, #8]
     61a:	291e      	cmp	r1, #30
     61c:	d107      	bne.n	62e <expect_two_elements+0x18>
     61e:	2208      	movs	r2, #8
     620:	f7ff ffe1 	bl	5e6 <erstes_element_belegen>
     624:	2200      	movs	r2, #0
     626:	f7ff ffe1 	bl	5ec <element_belegen>
     62a:	f002 ff48 	bl	34be <Code_829>
     62e:	bd00      	pop	{pc}

00000630 <expect_three_elements>:
     630:	b500      	push	{lr}
     632:	6901      	ldr	r1, [r0, #16]
     634:	291e      	cmp	r1, #30
     636:	d10a      	bne.n	64e <expect_three_elements+0x1e>
     638:	2210      	movs	r2, #16
     63a:	f7ff ffd4 	bl	5e6 <erstes_element_belegen>
     63e:	2208      	movs	r2, #8
     640:	f7ff ffd4 	bl	5ec <element_belegen>
     644:	2200      	movs	r2, #0
     646:	f7ff ffd1 	bl	5ec <element_belegen>
     64a:	f002 ff38 	bl	34be <Code_829>
     64e:	bd00      	pop	{pc}

00000650 <expect_four_elements>:
     650:	b500      	push	{lr}
     652:	6981      	ldr	r1, [r0, #24]
     654:	291e      	cmp	r1, #30
     656:	d10d      	bne.n	674 <expect_four_elements+0x24>
     658:	2218      	movs	r2, #24
     65a:	f7ff ffc4 	bl	5e6 <erstes_element_belegen>
     65e:	2210      	movs	r2, #16
     660:	f7ff ffc4 	bl	5ec <element_belegen>
     664:	2208      	movs	r2, #8
     666:	f7ff ffc1 	bl	5ec <element_belegen>
     66a:	2200      	movs	r2, #0
     66c:	f7ff ffbe 	bl	5ec <element_belegen>
     670:	f002 ff25 	bl	34be <Code_829>
     674:	bd00      	pop	{pc}
     676:	00280000 	eoreq	r0, r8, r0
     67a:	cf001000 	svcgt	0x00001000
	...

00000680 <expect_tos_in_register>:
     680:	b500      	push	{lr}
     682:	6801      	ldr	r1, [r0, #0]
     684:	2928      	cmp	r1, #40	; 0x28
     686:	d104      	bne.n	692 <expect_tos_in_register+0x12>
     688:	6843      	ldr	r3, [r0, #4]
     68a:	f7ff ff32 	bl	4f2 <generiere_konstante>
     68e:	6003      	str	r3, [r0, #0]
     690:	0019      	movs	r1, r3
     692:	bd00      	pop	{pc}

00000694 <expect_nos_in_register>:
     694:	b500      	push	{lr}
     696:	6881      	ldr	r1, [r0, #8]
     698:	2928      	cmp	r1, #40	; 0x28
     69a:	d104      	bne.n	6a6 <expect_nos_in_register+0x12>
     69c:	68c3      	ldr	r3, [r0, #12]
     69e:	f7ff ff28 	bl	4f2 <generiere_konstante>
     6a2:	6083      	str	r3, [r0, #8]
     6a4:	0019      	movs	r1, r3
     6a6:	bd00      	pop	{pc}

000006a8 <expect_3os_in_register>:
     6a8:	b500      	push	{lr}
     6aa:	6901      	ldr	r1, [r0, #16]
     6ac:	2928      	cmp	r1, #40	; 0x28
     6ae:	d104      	bne.n	6ba <expect_3os_in_register+0x12>
     6b0:	6943      	ldr	r3, [r0, #20]
     6b2:	f7ff ff1e 	bl	4f2 <generiere_konstante>
     6b6:	6103      	str	r3, [r0, #16]
     6b8:	0019      	movs	r1, r3
     6ba:	bd00      	pop	{pc}

000006bc <nos_change_tos_away_later>:
     6bc:	b53e      	push	{r1, r2, r3, r4, r5, lr}
     6be:	6882      	ldr	r2, [r0, #8]
     6c0:	6903      	ldr	r3, [r0, #16]
     6c2:	6984      	ldr	r4, [r0, #24]
     6c4:	6a05      	ldr	r5, [r0, #32]
     6c6:	429a      	cmp	r2, r3
     6c8:	d003      	beq.n	6d2 <nos_change_tos_away_later+0x16>
     6ca:	42a2      	cmp	r2, r4
     6cc:	d001      	beq.n	6d2 <nos_change_tos_away_later+0x16>
     6ce:	42aa      	cmp	r2, r5
     6d0:	d10a      	bne.n	6e8 <nos_change_tos_away_later+0x2c>
     6d2:	2a07      	cmp	r2, #7
     6d4:	d808      	bhi.n	6e8 <nos_change_tos_away_later+0x2c>
     6d6:	3f04      	subs	r7, #4
     6d8:	603e      	str	r6, [r7, #0]
     6da:	00d6      	lsls	r6, r2, #3
     6dc:	f7ff ff5e 	bl	59c <get_free_register>
     6e0:	431e      	orrs	r6, r3
     6e2:	6083      	str	r3, [r0, #8]
     6e4:	f002 feeb 	bl	34be <Code_829>
     6e8:	bd3e      	pop	{r1, r2, r3, r4, r5, pc}

000006ea <make_tos_changeable>:
     6ea:	b53e      	push	{r1, r2, r3, r4, r5, lr}
     6ec:	6801      	ldr	r1, [r0, #0]
     6ee:	6882      	ldr	r2, [r0, #8]
     6f0:	6903      	ldr	r3, [r0, #16]
     6f2:	6984      	ldr	r4, [r0, #24]
     6f4:	6a05      	ldr	r5, [r0, #32]
     6f6:	4291      	cmp	r1, r2
     6f8:	d006      	beq.n	708 <make_tos_changeable+0x1e>
     6fa:	4299      	cmp	r1, r3
     6fc:	d004      	beq.n	708 <make_tos_changeable+0x1e>
     6fe:	42a1      	cmp	r1, r4
     700:	d002      	beq.n	708 <make_tos_changeable+0x1e>
     702:	42a9      	cmp	r1, r5
     704:	d000      	beq.n	708 <make_tos_changeable+0x1e>
     706:	bd3e      	pop	{r1, r2, r3, r4, r5, pc}
     708:	3f04      	subs	r7, #4
     70a:	603e      	str	r6, [r7, #0]
     70c:	00ce      	lsls	r6, r1, #3
     70e:	f7ff ff45 	bl	59c <get_free_register>
     712:	431e      	orrs	r6, r3
     714:	6003      	str	r3, [r0, #0]
     716:	f002 fed2 	bl	34be <Code_829>
     71a:	bd3e      	pop	{r1, r2, r3, r4, r5, pc}

0000071c <tos_registerwechsel>:
     71c:	b500      	push	{lr}
     71e:	f7ff fe68 	bl	3f2 <eliminiere_tos>
     722:	f7ff fe5c 	bl	3de <befreie_tos>
     726:	f7ff ff39 	bl	59c <get_free_register>
     72a:	6003      	str	r3, [r0, #0]
     72c:	bd00      	pop	{pc}

0000072e <push_lr_nachholen>:
     72e:	b501      	push	{r0, lr}
     730:	4806      	ldr	r0, [pc, #24]	; (74c <push_lr_nachholen+0x1e>)
     732:	6803      	ldr	r3, [r0, #0]
     734:	3301      	adds	r3, #1
     736:	d007      	beq.n	748 <push_lr_nachholen+0x1a>
     738:	2300      	movs	r3, #0
     73a:	43db      	mvns	r3, r3
     73c:	6003      	str	r3, [r0, #0]
     73e:	3f04      	subs	r7, #4
     740:	603e      	str	r6, [r7, #0]
     742:	4e03      	ldr	r6, [pc, #12]	; (750 <push_lr_nachholen+0x22>)
     744:	f002 febb 	bl	34be <Code_829>
     748:	bd01      	pop	{r0, pc}
     74a:	0fb40000 	svceq	0x00b40000
     74e:	b5001000 	strlt	r1, [r0]
	...

00000754 <Dictionary_74>:
     754:	00000778 	andeq	r0, r0, r8, ror r7
     758:	32040242 	andcc	r0, r4, #536870916	; 0x20000004
     75c:	00707564 	rsbseq	r7, r0, r4, ror #10

00000760 <Code_74>:
     760:	6838      	ldr	r0, [r7, #0]
     762:	3f04      	subs	r7, #4
     764:	603e      	str	r6, [r7, #0]
     766:	3f04      	subs	r7, #4
     768:	6038      	str	r0, [r7, #0]
     76a:	4770      	bx	lr
     76c:	b500      	push	{lr}
     76e:	f000 fce3 	bl	1138 <over_allocator>
     772:	f000 fce1 	bl	1138 <over_allocator>
     776:	bd00      	pop	{pc}

00000778 <Dictionary_76>:
     778:	00000798 	muleq	r0, r8, r7
     77c:	32050262 	andcc	r0, r5, #536870918	; 0x20000006
     780:	706f7264 	rsbvc	r7, pc, r4, ror #4

00000784 <Code_76>:
     784:	3704      	adds	r7, #4
     786:	cf40      	ldmia	r7!, {r6}
     788:	4770      	bx	lr
     78a:	b500      	push	{lr}
     78c:	f000 fc84 	bl	1098 <drop_allocator>
     790:	f000 fc82 	bl	1098 <drop_allocator>
     794:	bd00      	pop	{pc}
     796:	46c0      	nop			; (mov r8, r8)

00000798 <Dictionary_78>:
     798:	000007e0 	andeq	r0, r0, r0, ror #15
     79c:	32050244 	andcc	r0, r5, #1073741828	; 0x40000004
     7a0:	70617773 	rsbvc	r7, r1, r3, ror r7

000007a4 <Code_78>:
     7a4:	cf07      	ldmia	r7!, {r0, r1, r2}
     7a6:	3f04      	subs	r7, #4
     7a8:	6038      	str	r0, [r7, #0]
     7aa:	3f04      	subs	r7, #4
     7ac:	603e      	str	r6, [r7, #0]
     7ae:	3f04      	subs	r7, #4
     7b0:	603a      	str	r2, [r7, #0]
     7b2:	000e      	movs	r6, r1
     7b4:	4770      	bx	lr

000007b6 <dswap_allocator>:
     7b6:	b500      	push	{lr}
     7b8:	f7ff ff4a 	bl	650 <expect_four_elements>
     7bc:	6802      	ldr	r2, [r0, #0]
     7be:	6903      	ldr	r3, [r0, #16]
     7c0:	6003      	str	r3, [r0, #0]
     7c2:	6102      	str	r2, [r0, #16]
     7c4:	6842      	ldr	r2, [r0, #4]
     7c6:	6943      	ldr	r3, [r0, #20]
     7c8:	6043      	str	r3, [r0, #4]
     7ca:	6142      	str	r2, [r0, #20]
     7cc:	6882      	ldr	r2, [r0, #8]
     7ce:	6983      	ldr	r3, [r0, #24]
     7d0:	6083      	str	r3, [r0, #8]
     7d2:	6182      	str	r2, [r0, #24]
     7d4:	68c2      	ldr	r2, [r0, #12]
     7d6:	69c3      	ldr	r3, [r0, #28]
     7d8:	60c3      	str	r3, [r0, #12]
     7da:	61c2      	str	r2, [r0, #28]
     7dc:	bd00      	pop	{pc}
     7de:	46c0      	nop			; (mov r8, r8)

000007e0 <Dictionary_80>:
     7e0:	00000808 	andeq	r0, r0, r8, lsl #16
     7e4:	32040262 	andcc	r0, r4, #536870918	; 0x20000006
     7e8:	0070696e 	rsbseq	r6, r0, lr, ror #18

000007ec <Code_80>:
     7ec:	cf07      	ldmia	r7!, {r0, r1, r2}
     7ee:	3f04      	subs	r7, #4
     7f0:	6038      	str	r0, [r7, #0]
     7f2:	4770      	bx	lr
     7f4:	b500      	push	{lr}
     7f6:	f7ff ff2b 	bl	650 <expect_four_elements>
     7fa:	f7ff ffdc 	bl	7b6 <dswap_allocator>
     7fe:	f7ff fdf8 	bl	3f2 <eliminiere_tos>
     802:	f7ff fdf6 	bl	3f2 <eliminiere_tos>
     806:	bd00      	pop	{pc}

00000808 <Dictionary_81>:
     808:	00000824 	andeq	r0, r0, r4, lsr #16
     80c:	32050044 	andcc	r0, r5, #68	; 0x44
     810:	7265766f 	rsbvc	r7, r5, #116391936	; 0x6f00000

00000814 <Code_81>:
     814:	68b8      	ldr	r0, [r7, #8]
     816:	3f04      	subs	r7, #4
     818:	603e      	str	r6, [r7, #0]
     81a:	3f04      	subs	r7, #4
     81c:	6038      	str	r0, [r7, #0]
     81e:	68fe      	ldr	r6, [r7, #12]
     820:	4770      	bx	lr
     822:	46c0      	nop			; (mov r8, r8)

00000824 <Dictionary_83>:
     824:	00000848 	andeq	r0, r0, r8, asr #16
     828:	32050044 	andcc	r0, r5, #68	; 0x44
     82c:	6b637574 	blvs	18dde04 <BIT24+0x8dde04>

00000830 <Code_83>:
     830:	cf07      	ldmia	r7!, {r0, r1, r2}
     832:	3f04      	subs	r7, #4
     834:	6038      	str	r0, [r7, #0]
     836:	3f04      	subs	r7, #4
     838:	603e      	str	r6, [r7, #0]
     83a:	3f04      	subs	r7, #4
     83c:	603a      	str	r2, [r7, #0]
     83e:	3f04      	subs	r7, #4
     840:	6039      	str	r1, [r7, #0]
     842:	3f04      	subs	r7, #4
     844:	6038      	str	r0, [r7, #0]
     846:	4770      	bx	lr

00000848 <Dictionary_85>:
     848:	0000086c 	andeq	r0, r0, ip, ror #16
     84c:	32040046 	andcc	r0, r4, #70	; 0x46
     850:	00746f72 	rsbseq	r6, r4, r2, ror pc

00000854 <Code_85>:
     854:	6838      	ldr	r0, [r7, #0]
     856:	68b9      	ldr	r1, [r7, #8]
     858:	693a      	ldr	r2, [r7, #16]
     85a:	60b8      	str	r0, [r7, #8]
     85c:	6139      	str	r1, [r7, #16]
     85e:	603a      	str	r2, [r7, #0]
     860:	6879      	ldr	r1, [r7, #4]
     862:	607e      	str	r6, [r7, #4]
     864:	68fe      	ldr	r6, [r7, #12]
     866:	60f9      	str	r1, [r7, #12]
     868:	4770      	bx	lr
     86a:	46c0      	nop			; (mov r8, r8)

0000086c <Dictionary_86>:
     86c:	00000890 	muleq	r0, r0, r8
     870:	32050046 	andcc	r0, r5, #70	; 0x46
     874:	746f722d 	strbtvc	r7, [pc], #-557	; 87c <Code_86+0x4>

00000878 <Code_86>:
     878:	6838      	ldr	r0, [r7, #0]
     87a:	68b9      	ldr	r1, [r7, #8]
     87c:	693a      	ldr	r2, [r7, #16]
     87e:	6138      	str	r0, [r7, #16]
     880:	6039      	str	r1, [r7, #0]
     882:	60ba      	str	r2, [r7, #8]
     884:	68f9      	ldr	r1, [r7, #12]
     886:	60fe      	str	r6, [r7, #12]
     888:	687e      	ldr	r6, [r7, #4]
     88a:	6079      	str	r1, [r7, #4]
     88c:	4770      	bx	lr
     88e:	46c0      	nop			; (mov r8, r8)

00000890 <Dictionary_87>:
     890:	000008b8 			; <UNDEFINED> instruction: 0x000008b8
     894:	32030220 	andcc	r0, r3, #2
     898:	cf01723e 	svcgt	0x0001723e

0000089a <Code_87>:
     89a:	cf01      	ldmia	r7!, {r0}
     89c:	b401      	push	{r0}
     89e:	b440      	push	{r6}
     8a0:	cf40      	ldmia	r7!, {r6}
     8a2:	4770      	bx	lr
     8a4:	b500      	push	{lr}
     8a6:	f7ff ff42 	bl	72e <push_lr_nachholen>
     8aa:	f000 fc19 	bl	10e0 <swap_allocator>
     8ae:	f000 fcbb 	bl	1228 <allocator_to_r>
     8b2:	f000 fcb9 	bl	1228 <allocator_to_r>
     8b6:	bd00      	pop	{pc}

000008b8 <Dictionary_88>:
     8b8:	000008e4 	andeq	r0, r0, r4, ror #17
     8bc:	32030220 	andcc	r0, r3, #2
     8c0:	3f043e72 	svccc	0x00043e72

000008c2 <Code_88>:
     8c2:	3f04      	subs	r7, #4
     8c4:	603e      	str	r6, [r7, #0]
     8c6:	bc40      	pop	{r6}
     8c8:	bc01      	pop	{r0}
     8ca:	3f04      	subs	r7, #4
     8cc:	6038      	str	r0, [r7, #0]
     8ce:	4770      	bx	lr
     8d0:	b500      	push	{lr}
     8d2:	f7ff ff2c 	bl	72e <push_lr_nachholen>
     8d6:	f000 fcc2 	bl	125e <allocator_r_from>
     8da:	f000 fcc0 	bl	125e <allocator_r_from>
     8de:	f000 fbff 	bl	10e0 <swap_allocator>
     8e2:	bd00      	pop	{pc}

000008e4 <Dictionary_90>:
     8e4:	00000914 	andeq	r0, r0, r4, lsl r9
     8e8:	32030220 	andcc	r0, r3, #2
     8ec:	3f044072 	svccc	0x00044072

000008ee <Code_90>:
     8ee:	3f04      	subs	r7, #4
     8f0:	603e      	str	r6, [r7, #0]
     8f2:	9e01      	ldr	r6, [sp, #4]
     8f4:	3f04      	subs	r7, #4
     8f6:	603e      	str	r6, [r7, #0]
     8f8:	9e00      	ldr	r6, [sp, #0]
     8fa:	4770      	bx	lr
     8fc:	b500      	push	{lr}
     8fe:	f7ff ff16 	bl	72e <push_lr_nachholen>
     902:	3f04      	subs	r7, #4
     904:	603e      	str	r6, [r7, #0]
     906:	4e0c      	ldr	r6, [pc, #48]	; (938 <Code_95+0x16>)
     908:	f003 fafb 	bl	3f02 <loop_j_allocator>
     90c:	f003 faf6 	bl	3efc <rfetch_allocator>
     910:	bd00      	pop	{pc}
     912:	46c0      	nop			; (mov r8, r8)

00000914 <Dictionary_95>:
     914:	00000940 	andeq	r0, r0, r0, asr #18
     918:	32060220 	andcc	r0, r6, #2
     91c:	6f726472 	svcvs	0x00726472
     920:	b0020070 	andlt	r0, r2, r0, ror r0

00000922 <Code_95>:
     922:	b002      	add	sp, #8
     924:	4770      	bx	lr
     926:	b500      	push	{lr}
     928:	f7ff ff01 	bl	72e <push_lr_nachholen>
     92c:	3f04      	subs	r7, #4
     92e:	603e      	str	r6, [r7, #0]
     930:	4e02      	ldr	r6, [pc, #8]	; (93c <Code_95+0x1a>)
     932:	f002 fdc4 	bl	34be <Code_829>
     936:	bd00      	pop	{pc}
     938:	00009801 	andeq	r9, r0, r1, lsl #16
     93c:	0000b002 	andeq	fp, r0, r2

00000940 <Dictionary_98>:
     940:	00000958 	andeq	r0, r0, r8, asr r9
     944:	64030042 	strvs	r0, [r3], #-66	; 0x42
     948:	68382f32 	ldmdavs	r8!, {r1, r4, r5, r8, r9, sl, fp, sp}

0000094a <Code_98>:
     94a:	6838      	ldr	r0, [r7, #0]
     94c:	07f1      	lsls	r1, r6, #31
     94e:	1076      	asrs	r6, r6, #1
     950:	0840      	lsrs	r0, r0, #1
     952:	4308      	orrs	r0, r1
     954:	6038      	str	r0, [r7, #0]
     956:	4770      	bx	lr

00000958 <Dictionary_99>:
     958:	00000970 	andeq	r0, r0, r0, ror r9
     95c:	64030262 	strvs	r0, [r3], #-610	; 0x262
     960:	68382a32 	ldmdavs	r8!, {r1, r4, r5, r9, fp, sp}

00000962 <Code_99>:
     962:	6838      	ldr	r0, [r7, #0]
     964:	1800      	adds	r0, r0, r0
     966:	4176      	adcs	r6, r6
     968:	6038      	str	r0, [r7, #0]
     96a:	4770      	bx	lr
     96c:	e019      	b.n	9a2 <Code_101+0xa>
     96e:	46c0      	nop			; (mov r8, r8)

00000970 <Dictionary_100>:
     970:	0000098c 	andeq	r0, r0, ip, lsl #19
     974:	64040042 	strvs	r0, [r4], #-66	; 0x42
     978:	00726873 	rsbseq	r6, r2, r3, ror r8

0000097c <Code_100>:
     97c:	6838      	ldr	r0, [r7, #0]
     97e:	07f1      	lsls	r1, r6, #31
     980:	0876      	lsrs	r6, r6, #1
     982:	0840      	lsrs	r0, r0, #1
     984:	4308      	orrs	r0, r1
     986:	6038      	str	r0, [r7, #0]
     988:	4770      	bx	lr
     98a:	46c0      	nop			; (mov r8, r8)

0000098c <Dictionary_101>:
     98c:	000009d8 	ldrdeq	r0, [r0], -r8
     990:	64040262 	strvs	r0, [r4], #-610	; 0x262
     994:	006c6873 	rsbeq	r6, ip, r3, ror r8

00000998 <Code_101>:
     998:	6838      	ldr	r0, [r7, #0]
     99a:	1800      	adds	r0, r0, r0
     99c:	4176      	adcs	r6, r6
     99e:	6038      	str	r0, [r7, #0]
     9a0:	4770      	bx	lr
     9a2:	b500      	push	{lr}
     9a4:	f7ff fe37 	bl	616 <expect_two_elements>
     9a8:	f7ff fe6a 	bl	680 <expect_tos_in_register>
     9ac:	f7ff fe9d 	bl	6ea <make_tos_changeable>
     9b0:	f000 fb96 	bl	10e0 <swap_allocator>
     9b4:	f7ff fe64 	bl	680 <expect_tos_in_register>
     9b8:	f7ff fe97 	bl	6ea <make_tos_changeable>
     9bc:	3f04      	subs	r7, #4
     9be:	603e      	str	r6, [r7, #0]
     9c0:	2640      	movs	r6, #64	; 0x40
     9c2:	f001 fcbd 	bl	2340 <smalltworegisters>
     9c6:	f000 fb8b 	bl	10e0 <swap_allocator>
     9ca:	3f04      	subs	r7, #4
     9cc:	603e      	str	r6, [r7, #0]
     9ce:	4e40      	ldr	r6, [pc, #256]	; (ad0 <Code_114+0x1e>)
     9d0:	f001 fcb6 	bl	2340 <smalltworegisters>
     9d4:	bd00      	pop	{pc}
     9d6:	46c0      	nop			; (mov r8, r8)

000009d8 <Dictionary_106>:
     9d8:	000009ec 	andeq	r0, r0, ip, ror #19
     9dc:	64040042 	strvs	r0, [r4], #-66	; 0x42
     9e0:	00736261 	rsbseq	r6, r3, r1, ror #4

000009e4 <Code_106>:
     9e4:	2e00      	cmp	r6, #0
     9e6:	d408      	bmi.n	9fa <Code_107>
     9e8:	4770      	bx	lr
     9ea:	46c0      	nop			; (mov r8, r8)

000009ec <Dictionary_107>:
     9ec:	00000a0c 	andeq	r0, r0, ip, lsl #20
     9f0:	64070042 	strvs	r0, [r7], #-66	; 0x42
     9f4:	6167656e 	cmnvs	r7, lr, ror #10
     9f8:	68386574 	ldmdavs	r8!, {r2, r4, r5, r6, r8, sl, sp, lr}

000009fa <Code_107>:
     9fa:	6838      	ldr	r0, [r7, #0]
     9fc:	2100      	movs	r1, #0
     9fe:	43c0      	mvns	r0, r0
     a00:	43f6      	mvns	r6, r6
     a02:	3001      	adds	r0, #1
     a04:	414e      	adcs	r6, r1
     a06:	6038      	str	r0, [r7, #0]
     a08:	4770      	bx	lr
     a0a:	46c0      	nop			; (mov r8, r8)

00000a0c <Dictionary_108>:
     a0c:	00000a5c 	andeq	r0, r0, ip, asr sl
     a10:	64020264 	strvs	r0, [r2], #-612	; 0x264
     a14:	cf07002d 	svcgt	0x0007002d

00000a16 <Code_108>:
     a16:	cf07      	ldmia	r7!, {r0, r1, r2}
     a18:	1a12      	subs	r2, r2, r0
     a1a:	41b1      	sbcs	r1, r6
     a1c:	000e      	movs	r6, r1
     a1e:	3f04      	subs	r7, #4
     a20:	603a      	str	r2, [r7, #0]
     a22:	4770      	bx	lr
     a24:	b500      	push	{lr}
     a26:	f7ff fe13 	bl	650 <expect_four_elements>
     a2a:	f000 fbae 	bl	118a <rot_allocator>
     a2e:	f7ff fe27 	bl	680 <expect_tos_in_register>
     a32:	f7ff fe5a 	bl	6ea <make_tos_changeable>
     a36:	f000 fb53 	bl	10e0 <swap_allocator>
     a3a:	f7ff fe21 	bl	680 <expect_tos_in_register>
     a3e:	f7ff fe54 	bl	6ea <make_tos_changeable>
     a42:	f7ff feb8 	bl	7b6 <dswap_allocator>
     a46:	f001 fc06 	bl	2256 <minus_allocator>
     a4a:	f000 fbbb 	bl	11c4 <minusrot_allocator>
     a4e:	3f04      	subs	r7, #4
     a50:	603e      	str	r6, [r7, #0]
     a52:	4e20      	ldr	r6, [pc, #128]	; (ad4 <Code_114+0x22>)
     a54:	f000 fd3f 	bl	14d6 <alloc_unkommutativ>
     a58:	bd00      	pop	{pc}
     a5a:	46c0      	nop			; (mov r8, r8)

00000a5c <Dictionary_111>:
     a5c:	00000aa8 	andeq	r0, r0, r8, lsr #21
     a60:	64020264 	strvs	r0, [r2], #-612	; 0x264
     a64:	cf07002b 	svcgt	0x0007002b

00000a66 <Code_111>:
     a66:	cf07      	ldmia	r7!, {r0, r1, r2}
     a68:	1812      	adds	r2, r2, r0
     a6a:	414e      	adcs	r6, r1
     a6c:	3f04      	subs	r7, #4
     a6e:	603a      	str	r2, [r7, #0]
     a70:	4770      	bx	lr
     a72:	b500      	push	{lr}
     a74:	f7ff fdec 	bl	650 <expect_four_elements>
     a78:	f000 fb87 	bl	118a <rot_allocator>
     a7c:	f7ff fe00 	bl	680 <expect_tos_in_register>
     a80:	f7ff fe33 	bl	6ea <make_tos_changeable>
     a84:	f000 fb2c 	bl	10e0 <swap_allocator>
     a88:	f7ff fdfa 	bl	680 <expect_tos_in_register>
     a8c:	f7ff fe2d 	bl	6ea <make_tos_changeable>
     a90:	f7ff fe91 	bl	7b6 <dswap_allocator>
     a94:	f001 fbc9 	bl	222a <plus_allocator>
     a98:	f000 fb94 	bl	11c4 <minusrot_allocator>
     a9c:	3f04      	subs	r7, #4
     a9e:	603e      	str	r6, [r7, #0]
     aa0:	4e0b      	ldr	r6, [pc, #44]	; (ad0 <Code_114+0x1e>)
     aa2:	f000 fd1c 	bl	14de <alloc_kommutativ>
     aa6:	bd00      	pop	{pc}

00000aa8 <Dictionary_114>:
     aa8:	00000adc 	ldrdeq	r0, [r0], -ip
     aac:	73030261 	movwvc	r0, #12897	; 0x3261
     ab0:	3f04643e 	svccc	0x0004643e

00000ab2 <Code_114>:
     ab2:	3f04      	subs	r7, #4
     ab4:	603e      	str	r6, [r7, #0]
     ab6:	17f6      	asrs	r6, r6, #31
     ab8:	4770      	bx	lr
     aba:	b500      	push	{lr}
     abc:	f000 fada 	bl	1074 <dup_allocator>
     ac0:	f7ff fe13 	bl	6ea <make_tos_changeable>
     ac4:	3f04      	subs	r7, #4
     ac6:	603e      	str	r6, [r7, #0]
     ac8:	4e03      	ldr	r6, [pc, #12]	; (ad8 <Code_114+0x26>)
     aca:	f001 fc39 	bl	2340 <smalltworegisters>
     ace:	bd00      	pop	{pc}
     ad0:	00004140 	andeq	r4, r0, r0, asr #2
     ad4:	00004180 	andeq	r4, r0, r0, lsl #3
     ad8:	000017c0 	andeq	r1, r0, r0, asr #15

00000adc <Dictionary_118>:
     adc:	00000b08 	andeq	r0, r0, r8, lsl #22
     ae0:	75030042 	strvc	r0, [r3, #-66]	; 0x42
     ae4:	68382a6d 	ldmdavs	r8!, {r0, r2, r3, r5, r6, r9, fp, sp}

00000ae6 <Code_118>:
     ae6:	6838      	ldr	r0, [r7, #0]
     ae8:	0003      	movs	r3, r0
     aea:	4373      	muls	r3, r6
     aec:	603b      	str	r3, [r7, #0]
     aee:	0c01      	lsrs	r1, r0, #16
     af0:	0c32      	lsrs	r2, r6, #16
     af2:	000b      	movs	r3, r1
     af4:	4353      	muls	r3, r2
     af6:	b2b6      	uxth	r6, r6
     af8:	b280      	uxth	r0, r0
     afa:	434e      	muls	r6, r1
     afc:	4350      	muls	r0, r2
     afe:	1836      	adds	r6, r6, r0
     b00:	0c36      	lsrs	r6, r6, #16
     b02:	18f6      	adds	r6, r6, r3
     b04:	4770      	bx	lr
     b06:	46c0      	nop			; (mov r8, r8)

00000b08 <Dictionary_119>:
     b08:	00000b38 	andeq	r0, r0, r8, lsr fp
     b0c:	6d020042 	stcvs	0, cr0, [r2, #-264]	; 0xfffffef8
     b10:	6838002a 	ldmdavs	r8!, {r1, r3, r5}

00000b12 <Code_119>:
     b12:	6838      	ldr	r0, [r7, #0]
     b14:	17c1      	asrs	r1, r0, #31
     b16:	d005      	beq.n	b24 <Code_119+0x12>
     b18:	4240      	negs	r0, r0
     b1a:	6038      	str	r0, [r7, #0]
     b1c:	17f0      	asrs	r0, r6, #31
     b1e:	d004      	beq.n	b2a <Code_119+0x18>
     b20:	4276      	negs	r6, r6
     b22:	e7e0      	b.n	ae6 <Code_118>
     b24:	17f0      	asrs	r0, r6, #31
     b26:	d0de      	beq.n	ae6 <Code_118>
     b28:	4276      	negs	r6, r6
     b2a:	b500      	push	{lr}
     b2c:	f7ff ffdb 	bl	ae6 <Code_118>
     b30:	f7ff ff63 	bl	9fa <Code_107>
     b34:	bd00      	pop	{pc}
     b36:	46c0      	nop			; (mov r8, r8)

00000b38 <Dictionary_120>:
     b38:	00000b78 	andeq	r0, r0, r8, ror fp
     b3c:	75030044 	strvc	r0, [r3, #-68]	; 0x44
     b40:	cf072a64 	svcgt	0x00072a64

00000b42 <Code_120>:
     b42:	cf07      	ldmia	r7!, {r0, r1, r2}
     b44:	4356      	muls	r6, r2
     b46:	4341      	muls	r1, r0
     b48:	1876      	adds	r6, r6, r1
     b4a:	0c01      	lsrs	r1, r0, #16
     b4c:	0c13      	lsrs	r3, r2, #16
     b4e:	4359      	muls	r1, r3
     b50:	1876      	adds	r6, r6, r1
     b52:	0c01      	lsrs	r1, r0, #16
     b54:	b280      	uxth	r0, r0
     b56:	b292      	uxth	r2, r2
     b58:	4351      	muls	r1, r2
     b5a:	4343      	muls	r3, r0
     b5c:	4350      	muls	r0, r2
     b5e:	2200      	movs	r2, #0
     b60:	18c9      	adds	r1, r1, r3
     b62:	4152      	adcs	r2, r2
     b64:	0412      	lsls	r2, r2, #16
     b66:	18b6      	adds	r6, r6, r2
     b68:	040a      	lsls	r2, r1, #16
     b6a:	0c09      	lsrs	r1, r1, #16
     b6c:	1880      	adds	r0, r0, r2
     b6e:	414e      	adcs	r6, r1
     b70:	3f04      	subs	r7, #4
     b72:	6038      	str	r0, [r7, #0]
     b74:	4770      	bx	lr
     b76:	46c0      	nop			; (mov r8, r8)

00000b78 <Dictionary_121>:
     b78:	00000c0c 	andeq	r0, r0, ip, lsl #24
     b7c:	75040044 	strvc	r0, [r4, #-68]	; 0x44
     b80:	002a6d64 	eoreq	r6, sl, r4, ror #26

00000b84 <Code_121>:
     b84:	b510      	push	{r4, lr}
     b86:	2400      	movs	r4, #0
     b88:	3f04      	subs	r7, #4
     b8a:	603e      	str	r6, [r7, #0]
     b8c:	687e      	ldr	r6, [r7, #4]
     b8e:	3f04      	subs	r7, #4
     b90:	603e      	str	r6, [r7, #0]
     b92:	693e      	ldr	r6, [r7, #16]
     b94:	f7ff ffa7 	bl	ae6 <Code_118>
     b98:	0031      	movs	r1, r6
     b9a:	cf40      	ldmia	r7!, {r6}
     b9c:	0030      	movs	r0, r6
     b9e:	cf40      	ldmia	r7!, {r6}
     ba0:	3f04      	subs	r7, #4
     ba2:	603e      	str	r6, [r7, #0]
     ba4:	683e      	ldr	r6, [r7, #0]
     ba6:	3f04      	subs	r7, #4
     ba8:	603e      	str	r6, [r7, #0]
     baa:	68fe      	ldr	r6, [r7, #12]
     bac:	b403      	push	{r0, r1}
     bae:	f7ff ff9a 	bl	ae6 <Code_118>
     bb2:	bc03      	pop	{r0, r1}
     bb4:	0033      	movs	r3, r6
     bb6:	cf40      	ldmia	r7!, {r6}
     bb8:	0032      	movs	r2, r6
     bba:	cf40      	ldmia	r7!, {r6}
     bbc:	3f04      	subs	r7, #4
     bbe:	603e      	str	r6, [r7, #0]
     bc0:	683e      	ldr	r6, [r7, #0]
     bc2:	3f04      	subs	r7, #4
     bc4:	603e      	str	r6, [r7, #0]
     bc6:	693e      	ldr	r6, [r7, #16]
     bc8:	b40f      	push	{r0, r1, r2, r3}
     bca:	f7ff ff8c 	bl	ae6 <Code_118>
     bce:	bc0f      	pop	{r0, r1, r2, r3}
     bd0:	1992      	adds	r2, r2, r6
     bd2:	4163      	adcs	r3, r4
     bd4:	cf40      	ldmia	r7!, {r6}
     bd6:	1989      	adds	r1, r1, r6
     bd8:	4162      	adcs	r2, r4
     bda:	4163      	adcs	r3, r4
     bdc:	cf40      	ldmia	r7!, {r6}
     bde:	3f04      	subs	r7, #4
     be0:	603e      	str	r6, [r7, #0]
     be2:	687e      	ldr	r6, [r7, #4]
     be4:	3f04      	subs	r7, #4
     be6:	603e      	str	r6, [r7, #0]
     be8:	68fe      	ldr	r6, [r7, #12]
     bea:	b40f      	push	{r0, r1, r2, r3}
     bec:	f7ff ff7b 	bl	ae6 <Code_118>
     bf0:	bc0f      	pop	{r0, r1, r2, r3}
     bf2:	1992      	adds	r2, r2, r6
     bf4:	4163      	adcs	r3, r4
     bf6:	cf40      	ldmia	r7!, {r6}
     bf8:	1989      	adds	r1, r1, r6
     bfa:	4162      	adcs	r2, r4
     bfc:	4163      	adcs	r3, r4
     bfe:	cf40      	ldmia	r7!, {r6}
     c00:	001e      	movs	r6, r3
     c02:	603a      	str	r2, [r7, #0]
     c04:	6079      	str	r1, [r7, #4]
     c06:	60b8      	str	r0, [r7, #8]
     c08:	bd10      	pop	{r4, pc}
     c0a:	46c0      	nop			; (mov r8, r8)

00000c0c <Dictionary_138>:
     c0c:	00000c30 	andeq	r0, r0, r0, lsr ip
     c10:	2a020043 	bcs	80d24 <BIT19+0xd24>
     c14:	b500002f 	strlt	r0, [r0, #-47]	; 0x2f

00000c16 <Code_138>:
     c16:	b500      	push	{lr}
     c18:	b440      	push	{r6}
     c1a:	cf40      	ldmia	r7!, {r6}
     c1c:	f7ff ff79 	bl	b12 <Code_119>
     c20:	3f04      	subs	r7, #4
     c22:	603e      	str	r6, [r7, #0]
     c24:	bc40      	pop	{r6}
     c26:	f000 f84f 	bl	cc8 <Code_161>
     c2a:	3704      	adds	r7, #4
     c2c:	bd00      	pop	{pc}
     c2e:	46c0      	nop			; (mov r8, r8)

00000c30 <Dictionary_143>:
     c30:	00000c54 	andeq	r0, r0, r4, asr ip
     c34:	2a050043 	bcs	140d48 <BIT20+0x40d48>
     c38:	646f6d2f 	strbtvs	r6, [pc], #-3375	; c40 <Code_143+0x4>

00000c3c <Code_143>:
     c3c:	b500      	push	{lr}
     c3e:	b440      	push	{r6}
     c40:	cf40      	ldmia	r7!, {r6}
     c42:	f7ff ff66 	bl	b12 <Code_119>
     c46:	3f04      	subs	r7, #4
     c48:	603e      	str	r6, [r7, #0]
     c4a:	bc40      	pop	{r6}
     c4c:	f000 f83c 	bl	cc8 <Code_161>
     c50:	bd00      	pop	{pc}
     c52:	46c0      	nop			; (mov r8, r8)

00000c54 <Dictionary_147>:
     c54:	00000c78 	andeq	r0, r0, r8, ror ip
     c58:	75030043 	strvc	r0, [r3, #-67]	; 0x43
     c5c:	b5002f2a 	strlt	r2, [r0, #-3882]	; 0xf2a

00000c5e <Code_147>:
     c5e:	b500      	push	{lr}
     c60:	b440      	push	{r6}
     c62:	cf40      	ldmia	r7!, {r6}
     c64:	f7ff ff3f 	bl	ae6 <Code_118>
     c68:	3f04      	subs	r7, #4
     c6a:	603e      	str	r6, [r7, #0]
     c6c:	bc40      	pop	{r6}
     c6e:	f000 f81c 	bl	caa <Code_156>
     c72:	3704      	adds	r7, #4
     c74:	bd00      	pop	{pc}
     c76:	46c0      	nop			; (mov r8, r8)

00000c78 <Dictionary_152>:
     c78:	00000c9c 	muleq	r0, ip, ip
     c7c:	75060043 	strvc	r0, [r6, #-67]	; 0x43
     c80:	6f6d2f2a 	svcvs	0x006d2f2a
     c84:	b5000064 	strlt	r0, [r0, #-100]	; 0x64

00000c86 <Code_152>:
     c86:	b500      	push	{lr}
     c88:	b440      	push	{r6}
     c8a:	cf40      	ldmia	r7!, {r6}
     c8c:	f7ff ff2b 	bl	ae6 <Code_118>
     c90:	3f04      	subs	r7, #4
     c92:	603e      	str	r6, [r7, #0]
     c94:	bc40      	pop	{r6}
     c96:	f000 f808 	bl	caa <Code_156>
     c9a:	bd00      	pop	{pc}

00000c9c <Dictionary_156>:
     c9c:	00000cbc 			; <UNDEFINED> instruction: 0x00000cbc
     ca0:	75060043 	strvc	r0, [r6, #-67]	; 0x43
     ca4:	6f6d2f6d 	svcvs	0x006d2f6d
     ca8:	b5000064 	strlt	r0, [r0, #-100]	; 0x64

00000caa <Code_156>:
     caa:	b500      	push	{lr}
     cac:	3f04      	subs	r7, #4
     cae:	603e      	str	r6, [r7, #0]
     cb0:	2600      	movs	r6, #0
     cb2:	f000 f81a 	bl	cea <Code_165>
     cb6:	cf40      	ldmia	r7!, {r6}
     cb8:	3704      	adds	r7, #4
     cba:	bd00      	pop	{pc}

00000cbc <Dictionary_161>:
     cbc:	00000cdc 	ldrdeq	r0, [r0], -ip
     cc0:	6d050043 	stcvs	0, cr0, [r5, #-268]	; 0xfffffef4
     cc4:	646f6d2f 	strbtvs	r6, [pc], #-3375	; ccc <Code_161+0x4>

00000cc8 <Code_161>:
     cc8:	b500      	push	{lr}
     cca:	3f04      	subs	r7, #4
     ccc:	603e      	str	r6, [r7, #0]
     cce:	17f6      	asrs	r6, r6, #31
     cd0:	f000 f834 	bl	d3c <Code_167>
     cd4:	cf40      	ldmia	r7!, {r6}
     cd6:	3704      	adds	r7, #4
     cd8:	bd00      	pop	{pc}
     cda:	46c0      	nop			; (mov r8, r8)

00000cdc <Dictionary_165>:
     cdc:	00000d30 	andeq	r0, r0, r0, lsr sp
     ce0:	75060044 	strvc	r0, [r6, #-68]	; 0x44
     ce4:	6f6d2f64 	svcvs	0x006d2f64
     ce8:	b4300064 	ldrtlt	r0, [r0], #-100	; 0x64

00000cea <Code_165>:
     cea:	b430      	push	{r4, r5}
     cec:	2300      	movs	r3, #0
     cee:	2200      	movs	r2, #0
     cf0:	6879      	ldr	r1, [r7, #4]
     cf2:	68b8      	ldr	r0, [r7, #8]

00000cf4 <ud_slash_mod_internal>:
     cf4:	0035      	movs	r5, r6
     cf6:	683c      	ldr	r4, [r7, #0]
     cf8:	2640      	movs	r6, #64	; 0x40
     cfa:	0040      	lsls	r0, r0, #1
     cfc:	4149      	adcs	r1, r1
     cfe:	4152      	adcs	r2, r2
     d00:	415b      	adcs	r3, r3
     d02:	42ab      	cmp	r3, r5
     d04:	d802      	bhi.n	d0c <ud_slash_mod_internal+0x18>
     d06:	d304      	bcc.n	d12 <ud_slash_mod_internal+0x1e>
     d08:	42a2      	cmp	r2, r4
     d0a:	d302      	bcc.n	d12 <ud_slash_mod_internal+0x1e>
     d0c:	1b12      	subs	r2, r2, r4
     d0e:	41ab      	sbcs	r3, r5
     d10:	3001      	adds	r0, #1
     d12:	3e01      	subs	r6, #1
     d14:	d1f1      	bne.n	cfa <ud_slash_mod_internal+0x6>
     d16:	000e      	movs	r6, r1
     d18:	6038      	str	r0, [r7, #0]
     d1a:	607b      	str	r3, [r7, #4]
     d1c:	60ba      	str	r2, [r7, #8]
     d1e:	bc30      	pop	{r4, r5}
     d20:	4770      	bx	lr

00000d22 <uf_slash_mod>:
     d22:	b430      	push	{r4, r5}
     d24:	2300      	movs	r3, #0
     d26:	687a      	ldr	r2, [r7, #4]
     d28:	68b9      	ldr	r1, [r7, #8]
     d2a:	2000      	movs	r0, #0
     d2c:	e7e2      	b.n	cf4 <ud_slash_mod_internal>
     d2e:	46c0      	nop			; (mov r8, r8)

00000d30 <Dictionary_167>:
     d30:	00000da8 	andeq	r0, r0, r8, lsr #27
     d34:	64050044 	strvs	r0, [r5], #-68	; 0x44
     d38:	646f6d2f 	strbtvs	r6, [pc], #-3375	; d40 <Code_167+0x4>

00000d3c <Code_167>:
     d3c:	b500      	push	{lr}
     d3e:	17f0      	asrs	r0, r6, #31
     d40:	d019      	beq.n	d76 <Code_167+0x3a>
     d42:	f7ff fe5a 	bl	9fa <Code_107>
     d46:	f7ff fd2d 	bl	7a4 <Code_78>
     d4a:	17f0      	asrs	r0, r6, #31
     d4c:	d00c      	beq.n	d68 <Code_167+0x2c>
     d4e:	f7ff fe54 	bl	9fa <Code_107>
     d52:	f7ff fd27 	bl	7a4 <Code_78>
     d56:	f7ff ffc8 	bl	cea <Code_165>
     d5a:	f7ff fd23 	bl	7a4 <Code_78>
     d5e:	f7ff fe4c 	bl	9fa <Code_107>
     d62:	f7ff fd1f 	bl	7a4 <Code_78>
     d66:	bd00      	pop	{pc}
     d68:	f7ff fd1c 	bl	7a4 <Code_78>
     d6c:	f7ff ffbd 	bl	cea <Code_165>
     d70:	f7ff fe43 	bl	9fa <Code_107>
     d74:	bd00      	pop	{pc}
     d76:	f7ff fd15 	bl	7a4 <Code_78>
     d7a:	17f0      	asrs	r0, r6, #31
     d7c:	d00e      	beq.n	d9c <Code_167+0x60>
     d7e:	f7ff fe3c 	bl	9fa <Code_107>
     d82:	f7ff fd0f 	bl	7a4 <Code_78>
     d86:	f7ff ffb0 	bl	cea <Code_165>
     d8a:	f7ff fe36 	bl	9fa <Code_107>
     d8e:	f7ff fd09 	bl	7a4 <Code_78>
     d92:	f7ff fe32 	bl	9fa <Code_107>
     d96:	f7ff fd05 	bl	7a4 <Code_78>
     d9a:	bd00      	pop	{pc}
     d9c:	f7ff fd02 	bl	7a4 <Code_78>
     da0:	f7ff ffa3 	bl	cea <Code_165>
     da4:	bd00      	pop	{pc}
     da6:	46c0      	nop			; (mov r8, r8)

00000da8 <Dictionary_168>:
     da8:	00000dc0 	andeq	r0, r0, r0, asr #27
     dac:	64020044 	strvs	r0, [r2], #-68	; 0x44
     db0:	b500002f 	strlt	r0, [r0, #-47]	; 0x2f

00000db2 <Code_168>:
     db2:	b500      	push	{lr}
     db4:	f7ff ffc2 	bl	d3c <Code_167>
     db8:	f7ff fd18 	bl	7ec <Code_80>
     dbc:	bd00      	pop	{pc}
     dbe:	46c0      	nop			; (mov r8, r8)

00000dc0 <Dictionary_169>:
     dc0:	00000e08 	andeq	r0, r0, r8, lsl #28
     dc4:	66020044 	strvs	r0, [r2], -r4, asr #32
     dc8:	b500002a 	strlt	r0, [r0, #-42]	; 0x2a

00000dca <Code_169>:
     dca:	b500      	push	{lr}
     dcc:	17f0      	asrs	r0, r6, #31
     dce:	d00d      	beq.n	dec <Code_169+0x22>
     dd0:	f7ff fe13 	bl	9fa <Code_107>
     dd4:	f7ff fce6 	bl	7a4 <Code_78>
     dd8:	17f0      	asrs	r0, r6, #31
     dda:	d00d      	beq.n	df8 <Code_169+0x2e>
     ddc:	f7ff fe0d 	bl	9fa <Code_107>
     de0:	f7ff fed0 	bl	b84 <Code_121>
     de4:	cf40      	ldmia	r7!, {r6}
     de6:	cf01      	ldmia	r7!, {r0}
     de8:	6038      	str	r0, [r7, #0]
     dea:	bd00      	pop	{pc}
     dec:	f7ff fcda 	bl	7a4 <Code_78>
     df0:	17f0      	asrs	r0, r6, #31
     df2:	d0f5      	beq.n	de0 <Code_169+0x16>
     df4:	f7ff fe01 	bl	9fa <Code_107>
     df8:	f7ff fec4 	bl	b84 <Code_121>
     dfc:	cf40      	ldmia	r7!, {r6}
     dfe:	cf01      	ldmia	r7!, {r0}
     e00:	6038      	str	r0, [r7, #0]
     e02:	f7ff fdfa 	bl	9fa <Code_107>
     e06:	bd00      	pop	{pc}

00000e08 <Dictionary_172>:
     e08:	00000e54 	andeq	r0, r0, r4, asr lr
     e0c:	66020044 	strvs	r0, [r2], -r4, asr #32
     e10:	b500002f 	strlt	r0, [r0, #-47]	; 0x2f

00000e12 <Code_172>:
     e12:	b500      	push	{lr}
     e14:	17f0      	asrs	r0, r6, #31
     e16:	d00e      	beq.n	e36 <Code_172+0x24>
     e18:	f7ff fdef 	bl	9fa <Code_107>
     e1c:	f7ff fcc2 	bl	7a4 <Code_78>
     e20:	17f0      	asrs	r0, r6, #31
     e22:	d00e      	beq.n	e42 <Code_172+0x30>
     e24:	f7ff fde9 	bl	9fa <Code_107>
     e28:	f7ff fcbc 	bl	7a4 <Code_78>
     e2c:	f7ff ff79 	bl	d22 <uf_slash_mod>
     e30:	f7ff fcdc 	bl	7ec <Code_80>
     e34:	bd00      	pop	{pc}
     e36:	f7ff fcb5 	bl	7a4 <Code_78>
     e3a:	17f0      	asrs	r0, r6, #31
     e3c:	d0f4      	beq.n	e28 <Code_172+0x16>
     e3e:	f7ff fddc 	bl	9fa <Code_107>
     e42:	f7ff fcaf 	bl	7a4 <Code_78>
     e46:	f7ff ff6c 	bl	d22 <uf_slash_mod>
     e4a:	f7ff fdd6 	bl	9fa <Code_107>
     e4e:	f7ff fccd 	bl	7ec <Code_80>
     e52:	bd00      	pop	{pc}

00000e54 <Dictionary_173>:
     e54:	00000e9c 	muleq	r0, ip, lr
     e58:	32020220 	andcc	r0, r2, #2
     e5c:	cf060021 	svcgt	0x00060021

00000e5e <Code_173>:
     e5e:	cf06      	ldmia	r7!, {r1, r2}
     e60:	6031      	str	r1, [r6, #0]
     e62:	6072      	str	r2, [r6, #4]
     e64:	cf40      	ldmia	r7!, {r6}
     e66:	4770      	bx	lr
     e68:	b500      	push	{lr}
     e6a:	f7ff fbe1 	bl	630 <expect_three_elements>
     e6e:	6801      	ldr	r1, [r0, #0]
     e70:	6842      	ldr	r2, [r0, #4]
     e72:	b406      	push	{r1, r2}
     e74:	f000 fdd2 	bl	1a1c <allocator_4store>
     e78:	f7ff fab1 	bl	3de <befreie_tos>
     e7c:	bc06      	pop	{r1, r2}
     e7e:	6001      	str	r1, [r0, #0]
     e80:	2928      	cmp	r1, #40	; 0x28
     e82:	d005      	beq.n	e90 <Code_173+0x32>
     e84:	3f04      	subs	r7, #4
     e86:	603e      	str	r6, [r7, #0]
     e88:	4e61      	ldr	r6, [pc, #388]	; (1010 <BIT12+0x10>)
     e8a:	f000 fdca 	bl	1a22 <allocator_4store_anderer_opcode>
     e8e:	bd00      	pop	{pc}
     e90:	3204      	adds	r2, #4
     e92:	6042      	str	r2, [r0, #4]
     e94:	f000 fdc2 	bl	1a1c <allocator_4store>
     e98:	bd00      	pop	{pc}
     e9a:	46c0      	nop			; (mov r8, r8)

00000e9c <Dictionary_177>:
     e9c:	00000ee4 	andeq	r0, r0, r4, ror #29
     ea0:	32020220 	andcc	r0, r2, #2
     ea4:	3f040040 	svccc	0x00040040

00000ea6 <Code_177>:
     ea6:	3f04      	subs	r7, #4
     ea8:	6870      	ldr	r0, [r6, #4]
     eaa:	6038      	str	r0, [r7, #0]
     eac:	6836      	ldr	r6, [r6, #0]
     eae:	4770      	bx	lr
     eb0:	b500      	push	{lr}
     eb2:	f000 f8df 	bl	1074 <dup_allocator>
     eb6:	6801      	ldr	r1, [r0, #0]
     eb8:	2928      	cmp	r1, #40	; 0x28
     eba:	d009      	beq.n	ed0 <Code_177+0x2a>
     ebc:	3f04      	subs	r7, #4
     ebe:	603e      	str	r6, [r7, #0]
     ec0:	4e54      	ldr	r6, [pc, #336]	; (1014 <BIT12+0x14>)
     ec2:	f000 fd8c 	bl	19de <allocator_4fetch_anderer_opcode>
     ec6:	f000 f90b 	bl	10e0 <swap_allocator>
     eca:	f000 fd85 	bl	19d8 <allocator_4fetch>
     ece:	bd00      	pop	{pc}
     ed0:	6841      	ldr	r1, [r0, #4]
     ed2:	3104      	adds	r1, #4
     ed4:	6041      	str	r1, [r0, #4]
     ed6:	f000 fd7f 	bl	19d8 <allocator_4fetch>
     eda:	f000 f901 	bl	10e0 <swap_allocator>
     ede:	f000 fd7b 	bl	19d8 <allocator_4fetch>
     ee2:	bd00      	pop	{pc}

00000ee4 <Dictionary_180>:
     ee4:	00000f04 	andeq	r0, r0, r4, lsl #30
     ee8:	64030044 	strvs	r0, [r3], #-68	; 0x44
     eec:	cf073c75 	svcgt	0x00073c75

00000eee <Code_180>:
     eee:	cf07      	ldmia	r7!, {r0, r1, r2}
     ef0:	428e      	cmp	r6, r1
     ef2:	d804      	bhi.n	efe <Code_180+0x10>
     ef4:	d101      	bne.n	efa <Code_180+0xc>
     ef6:	4290      	cmp	r0, r2
     ef8:	d801      	bhi.n	efe <Code_180+0x10>
     efa:	2600      	movs	r6, #0
     efc:	4770      	bx	lr
     efe:	2600      	movs	r6, #0
     f00:	43f6      	mvns	r6, r6
     f02:	4770      	bx	lr

00000f04 <Dictionary_181>:
     f04:	00000f24 	andeq	r0, r0, r4, lsr #30
     f08:	64030044 	strvs	r0, [r3], #-68	; 0x44
     f0c:	cf073e75 	svcgt	0x00073e75

00000f0e <Code_181>:
     f0e:	cf07      	ldmia	r7!, {r0, r1, r2}
     f10:	42b1      	cmp	r1, r6
     f12:	d804      	bhi.n	f1e <Code_181+0x10>
     f14:	d101      	bne.n	f1a <Code_181+0xc>
     f16:	4282      	cmp	r2, r0
     f18:	d801      	bhi.n	f1e <Code_181+0x10>
     f1a:	2600      	movs	r6, #0
     f1c:	4770      	bx	lr
     f1e:	2600      	movs	r6, #0
     f20:	43f6      	mvns	r6, r6
     f22:	4770      	bx	lr

00000f24 <Dictionary_182>:
     f24:	00000f44 	andeq	r0, r0, r4, asr #30
     f28:	64020044 	strvs	r0, [r2], #-68	; 0x44
     f2c:	cf07003c 	svcgt	0x0007003c

00000f2e <Code_182>:
     f2e:	cf07      	ldmia	r7!, {r0, r1, r2}
     f30:	428e      	cmp	r6, r1
     f32:	dc04      	bgt.n	f3e <Code_182+0x10>
     f34:	d101      	bne.n	f3a <Code_182+0xc>
     f36:	4290      	cmp	r0, r2
     f38:	dc01      	bgt.n	f3e <Code_182+0x10>
     f3a:	2600      	movs	r6, #0
     f3c:	4770      	bx	lr
     f3e:	2600      	movs	r6, #0
     f40:	43f6      	mvns	r6, r6
     f42:	4770      	bx	lr

00000f44 <Dictionary_183>:
     f44:	00000f64 	andeq	r0, r0, r4, ror #30
     f48:	64020044 	strvs	r0, [r2], #-68	; 0x44
     f4c:	cf07003e 	svcgt	0x0007003e

00000f4e <Code_183>:
     f4e:	cf07      	ldmia	r7!, {r0, r1, r2}
     f50:	42b1      	cmp	r1, r6
     f52:	dc04      	bgt.n	f5e <Code_183+0x10>
     f54:	d101      	bne.n	f5a <Code_183+0xc>
     f56:	4282      	cmp	r2, r0
     f58:	dc01      	bgt.n	f5e <Code_183+0x10>
     f5a:	2600      	movs	r6, #0
     f5c:	4770      	bx	lr
     f5e:	2600      	movs	r6, #0
     f60:	43f6      	mvns	r6, r6
     f62:	4770      	bx	lr

00000f64 <Dictionary_184>:
     f64:	00000f80 	andeq	r0, r0, r0, lsl #31
     f68:	64030262 	strvs	r0, [r3], #-610	; 0x262
     f6c:	37043c30 	smladxcc	r4, r0, ip, r3

00000f6e <Code_184>:
     f6e:	3704      	adds	r7, #4
     f70:	17f6      	asrs	r6, r6, #31
     f72:	4770      	bx	lr
     f74:	b500      	push	{lr}
     f76:	f000 f8c6 	bl	1106 <nip_allocator>
     f7a:	f000 fb10 	bl	159e <alloc_nullkleiner>
     f7e:	bd00      	pop	{pc}

00000f80 <Dictionary_185>:
     f80:	00000fa8 	andeq	r0, r0, r8, lsr #31
     f84:	64030262 	strvs	r0, [r3], #-610	; 0x262
     f88:	cf013d30 	svcgt	0x00013d30

00000f8a <Code_185>:
     f8a:	cf01      	ldmia	r7!, {r0}
     f8c:	4306      	orrs	r6, r0
     f8e:	3e01      	subs	r6, #1
     f90:	41b6      	sbcs	r6, r6
     f92:	4770      	bx	lr
     f94:	b500      	push	{lr}
     f96:	3f04      	subs	r7, #4
     f98:	603e      	str	r6, [r7, #0]
     f9a:	4e1f      	ldr	r6, [pc, #124]	; (1018 <BIT12+0x18>)
     f9c:	f000 fa9f 	bl	14de <alloc_kommutativ>
     fa0:	f000 fad8 	bl	1554 <allocator_equal_zero>
     fa4:	bd00      	pop	{pc}
     fa6:	46c0      	nop			; (mov r8, r8)

00000fa8 <Dictionary_188>:
     fa8:	00000fd0 	ldrdeq	r0, [r0], -r0	; <UNPREDICTABLE>
     fac:	64030244 	strvs	r0, [r3], #-580	; 0x244
     fb0:	cf073e3c 	svcgt	0x00073e3c

00000fb2 <Code_188>:
     fb2:	cf07      	ldmia	r7!, {r0, r1, r2}
     fb4:	4050      	eors	r0, r2
     fb6:	404e      	eors	r6, r1
     fb8:	4306      	orrs	r6, r0
     fba:	3e01      	subs	r6, #1
     fbc:	41b6      	sbcs	r6, r6
     fbe:	43f6      	mvns	r6, r6
     fc0:	4770      	bx	lr
     fc2:	b500      	push	{lr}
     fc4:	f000 f816 	bl	ff4 <dgleichungleich_common>
     fc8:	f000 fad7 	bl	157a <allocator_unequal_zero>
     fcc:	bd00      	pop	{pc}
     fce:	46c0      	nop			; (mov r8, r8)

00000fd0 <Dictionary_189>:
     fd0:	0000101c 	andeq	r1, r0, ip, lsl r0
     fd4:	64020244 	strvs	r0, [r2], #-580	; 0x244
     fd8:	cf07003d 	svcgt	0x0007003d

00000fda <Code_189>:
     fda:	cf07      	ldmia	r7!, {r0, r1, r2}
     fdc:	4050      	eors	r0, r2
     fde:	404e      	eors	r6, r1
     fe0:	4306      	orrs	r6, r0
     fe2:	3e01      	subs	r6, #1
     fe4:	41b6      	sbcs	r6, r6
     fe6:	4770      	bx	lr
     fe8:	b500      	push	{lr}
     fea:	f000 f803 	bl	ff4 <dgleichungleich_common>
     fee:	f000 fab1 	bl	1554 <allocator_equal_zero>
     ff2:	bd00      	pop	{pc}

00000ff4 <dgleichungleich_common>:
     ff4:	b500      	push	{lr}
     ff6:	f7ff fb2b 	bl	650 <expect_four_elements>
     ffa:	f000 f8c6 	bl	118a <rot_allocator>
     ffe:	f000 f9cf 	bl	13a0 <xor_allocator>
    1002:	f000 f8df 	bl	11c4 <minusrot_allocator>
    1006:	f000 f9cb 	bl	13a0 <xor_allocator>
    100a:	f000 f9bd 	bl	1388 <or_allocator>
    100e:	bd00      	pop	{pc}
    1010:	00006040 	andeq	r6, r0, r0, asr #32
    1014:	00006840 	andeq	r6, r0, r0, asr #16
    1018:	00004300 	andeq	r4, r0, r0, lsl #6

0000101c <Dictionary_190>:
    101c:	00001030 	andeq	r1, r0, r0, lsr r0
    1020:	73030020 	movwvc	r0, #12320	; 0x3020
    1024:	3f044070 	svccc	0x00044070

00001026 <Code_190>:
    1026:	3f04      	subs	r7, #4
    1028:	603e      	str	r6, [r7, #0]
    102a:	003e      	movs	r6, r7
    102c:	4770      	bx	lr
    102e:	46c0      	nop			; (mov r8, r8)

00001030 <Dictionary_192>:
    1030:	00001040 	andeq	r1, r0, r0, asr #32
    1034:	73030020 	movwvc	r0, #12320	; 0x3020
    1038:	00372170 	eorseq	r2, r7, r0, ror r1

0000103a <Code_192>:
    103a:	0037      	movs	r7, r6
    103c:	cf40      	ldmia	r7!, {r6}
    103e:	4770      	bx	lr

00001040 <Dictionary_193>:
    1040:	00001054 	andeq	r1, r0, r4, asr r0
    1044:	72030020 	andvc	r0, r3, #32
    1048:	3f044070 	svccc	0x00044070

0000104a <Code_193>:
    104a:	3f04      	subs	r7, #4
    104c:	603e      	str	r6, [r7, #0]
    104e:	466e      	mov	r6, sp
    1050:	4770      	bx	lr
    1052:	46c0      	nop			; (mov r8, r8)

00001054 <Dictionary_195>:
    1054:	00001064 	andeq	r1, r0, r4, rrx
    1058:	72030020 	andvc	r0, r3, #32
    105c:	46b52170 			; <UNDEFINED> instruction: 0x46b52170

0000105e <Code_195>:
    105e:	46b5      	mov	sp, r6
    1060:	cf40      	ldmia	r7!, {r6}
    1062:	4770      	bx	lr

00001064 <Dictionary_196>:
    1064:	00001088 	andeq	r1, r0, r8, lsl #1
    1068:	64030261 	strvs	r0, [r3], #-609	; 0x261
    106c:	3f047075 	svccc	0x00047075

0000106e <Code_196>:
    106e:	3f04      	subs	r7, #4
    1070:	603e      	str	r6, [r7, #0]
    1072:	4770      	bx	lr

00001074 <dup_allocator>:
    1074:	b506      	push	{r1, r2, lr}
    1076:	f7ff fac4 	bl	602 <expect_one_element>
    107a:	6801      	ldr	r1, [r0, #0]
    107c:	6842      	ldr	r2, [r0, #4]
    107e:	f7ff f9ae 	bl	3de <befreie_tos>
    1082:	6001      	str	r1, [r0, #0]
    1084:	6042      	str	r2, [r0, #4]
    1086:	bd06      	pop	{r1, r2, pc}

00001088 <Dictionary_199>:
    1088:	000010b4 	strheq	r1, [r0], -r4
    108c:	64040261 	strvs	r0, [r4], #-609	; 0x261
    1090:	00706f72 	rsbseq	r6, r0, r2, ror pc

00001094 <Code_199>:
    1094:	cf40      	ldmia	r7!, {r6}
    1096:	4770      	bx	lr

00001098 <drop_allocator>:
    1098:	b500      	push	{lr}
    109a:	6801      	ldr	r1, [r0, #0]
    109c:	291e      	cmp	r1, #30
    109e:	d105      	bne.n	10ac <drop_allocator+0x14>
    10a0:	3f04      	subs	r7, #4
    10a2:	603e      	str	r6, [r7, #0]
    10a4:	4ea1      	ldr	r6, [pc, #644]	; (132c <Code_235+0x1c>)
    10a6:	f002 fa0a 	bl	34be <Code_829>
    10aa:	bd00      	pop	{pc}
    10ac:	f7ff f9a1 	bl	3f2 <eliminiere_tos>
    10b0:	bd00      	pop	{pc}
    10b2:	46c0      	nop			; (mov r8, r8)

000010b4 <Dictionary_203>:
    10b4:	000010cc 	andeq	r1, r0, ip, asr #1
    10b8:	3f040061 	svccc	0x00040061
    10bc:	00707564 	rsbseq	r7, r0, r4, ror #10

000010c0 <Code_203>:
    10c0:	2e00      	cmp	r6, #0
    10c2:	d001      	beq.n	10c8 <Code_203+0x8>
    10c4:	3f04      	subs	r7, #4
    10c6:	603e      	str	r6, [r7, #0]
    10c8:	4770      	bx	lr
    10ca:	46c0      	nop			; (mov r8, r8)

000010cc <Dictionary_205>:
    10cc:	000010f8 	strdeq	r1, [r0], -r8
    10d0:	73040262 	movwvc	r0, #16994	; 0x4262
    10d4:	00706177 	rsbseq	r6, r0, r7, ror r1

000010d8 <Code_205>:
    10d8:	6839      	ldr	r1, [r7, #0]
    10da:	603e      	str	r6, [r7, #0]
    10dc:	000e      	movs	r6, r1
    10de:	4770      	bx	lr

000010e0 <swap_allocator>:
    10e0:	b50c      	push	{r2, r3, lr}
    10e2:	f7ff fa98 	bl	616 <expect_two_elements>
    10e6:	6802      	ldr	r2, [r0, #0]
    10e8:	6883      	ldr	r3, [r0, #8]
    10ea:	6003      	str	r3, [r0, #0]
    10ec:	6082      	str	r2, [r0, #8]
    10ee:	6842      	ldr	r2, [r0, #4]
    10f0:	68c3      	ldr	r3, [r0, #12]
    10f2:	6043      	str	r3, [r0, #4]
    10f4:	60c2      	str	r2, [r0, #12]
    10f6:	bd0c      	pop	{r2, r3, pc}

000010f8 <Dictionary_206>:
    10f8:	00001124 	andeq	r1, r0, r4, lsr #2
    10fc:	6e030262 	cdpvs	2, 0, cr0, cr3, cr2, {3}
    1100:	37047069 	strcc	r7, [r4, -r9, rrx]

00001102 <Code_206>:
    1102:	3704      	adds	r7, #4
    1104:	4770      	bx	lr

00001106 <nip_allocator>:
    1106:	b500      	push	{lr}
    1108:	f7ff fa7b 	bl	602 <expect_one_element>
    110c:	6881      	ldr	r1, [r0, #8]
    110e:	291e      	cmp	r1, #30
    1110:	d002      	beq.n	1118 <nip_allocator+0x12>
    1112:	f7ff f974 	bl	3fe <eliminiere_nos>
    1116:	bd00      	pop	{pc}
    1118:	3f04      	subs	r7, #4
    111a:	603e      	str	r6, [r7, #0]
    111c:	4e83      	ldr	r6, [pc, #524]	; (132c <Code_235+0x1c>)
    111e:	f002 f9ce 	bl	34be <Code_829>
    1122:	bd00      	pop	{pc}

00001124 <Dictionary_210>:
    1124:	0000114c 	andeq	r1, r0, ip, asr #2
    1128:	6f040262 	svcvs	0x00040262
    112c:	00726576 	rsbseq	r6, r2, r6, ror r5

00001130 <Code_210>:
    1130:	3f04      	subs	r7, #4
    1132:	603e      	str	r6, [r7, #0]
    1134:	687e      	ldr	r6, [r7, #4]
    1136:	4770      	bx	lr

00001138 <over_allocator>:
    1138:	b500      	push	{lr}
    113a:	f7ff fa6c 	bl	616 <expect_two_elements>
    113e:	6881      	ldr	r1, [r0, #8]
    1140:	68c2      	ldr	r2, [r0, #12]
    1142:	f7ff f94c 	bl	3de <befreie_tos>
    1146:	6001      	str	r1, [r0, #0]
    1148:	6042      	str	r2, [r0, #4]
    114a:	bd00      	pop	{pc}

0000114c <Dictionary_212>:
    114c:	00001174 	andeq	r1, r0, r4, ror r1
    1150:	74040262 	strvc	r0, [r4], #-610	; 0x262
    1154:	006b6375 	rsbeq	r6, fp, r5, ror r3

00001158 <Code_212>:
    1158:	cf01      	ldmia	r7!, {r0}
    115a:	3f08      	subs	r7, #8
    115c:	607e      	str	r6, [r7, #4]
    115e:	6038      	str	r0, [r7, #0]
    1160:	4770      	bx	lr
    1162:	b500      	push	{lr}
    1164:	f7ff fa57 	bl	616 <expect_two_elements>
    1168:	f7ff ff84 	bl	1074 <dup_allocator>
    116c:	f000 f82a 	bl	11c4 <minusrot_allocator>
    1170:	bd00      	pop	{pc}
    1172:	46c0      	nop			; (mov r8, r8)

00001174 <Dictionary_213>:
    1174:	000011ac 	andeq	r1, r0, ip, lsr #3
    1178:	72030263 	andvc	r0, r3, #805306374	; 0x30000006
    117c:	cf03746f 	svcgt	0x0003746f

0000117e <Code_213>:
    117e:	cf03      	ldmia	r7!, {r0, r1}
    1180:	3f08      	subs	r7, #8
    1182:	6078      	str	r0, [r7, #4]
    1184:	603e      	str	r6, [r7, #0]
    1186:	000e      	movs	r6, r1
    1188:	4770      	bx	lr

0000118a <rot_allocator>:
    118a:	b50e      	push	{r1, r2, r3, lr}
    118c:	f7ff fa50 	bl	630 <expect_three_elements>
    1190:	6801      	ldr	r1, [r0, #0]
    1192:	6882      	ldr	r2, [r0, #8]
    1194:	6903      	ldr	r3, [r0, #16]
    1196:	6081      	str	r1, [r0, #8]
    1198:	6102      	str	r2, [r0, #16]
    119a:	6003      	str	r3, [r0, #0]
    119c:	6841      	ldr	r1, [r0, #4]
    119e:	68c2      	ldr	r2, [r0, #12]
    11a0:	6943      	ldr	r3, [r0, #20]
    11a2:	60c1      	str	r1, [r0, #12]
    11a4:	6142      	str	r2, [r0, #20]
    11a6:	6043      	str	r3, [r0, #4]
    11a8:	bd0e      	pop	{r1, r2, r3, pc}
    11aa:	46c0      	nop			; (mov r8, r8)

000011ac <Dictionary_214>:
    11ac:	000011d0 	ldrdeq	r1, [r0], -r0
    11b0:	2d040263 	sfmcs	f0, 4, [r4, #-396]	; 0xfffffe74
    11b4:	00746f72 	rsbseq	r6, r4, r2, ror pc

000011b8 <Code_214>:
    11b8:	cf03      	ldmia	r7!, {r0, r1}
    11ba:	3f08      	subs	r7, #8
    11bc:	607e      	str	r6, [r7, #4]
    11be:	6039      	str	r1, [r7, #0]
    11c0:	0006      	movs	r6, r0
    11c2:	4770      	bx	lr

000011c4 <minusrot_allocator>:
    11c4:	b500      	push	{lr}
    11c6:	f7ff ffe0 	bl	118a <rot_allocator>
    11ca:	f7ff ffde 	bl	118a <rot_allocator>
    11ce:	bd00      	pop	{pc}

000011d0 <Dictionary_215>:
    11d0:	000011e4 	andeq	r1, r0, r4, ror #3
    11d4:	70040020 	andvc	r0, r4, r0, lsr #32
    11d8:	006b6369 	rsbeq	r6, fp, r9, ror #6

000011dc <Code_215>:
    11dc:	00b0      	lsls	r0, r6, #2
    11de:	583e      	ldr	r6, [r7, r0]
    11e0:	4770      	bx	lr
    11e2:	46c0      	nop			; (mov r8, r8)

000011e4 <Dictionary_216>:
    11e4:	000011fc 	strdeq	r1, [r0], -ip
    11e8:	64050000 	strvs	r0, [r5]
    11ec:	68747065 	ldmdavs	r4!, {r0, r2, r5, r6, ip, sp, lr}^

000011f0 <Code_216>:
    11f0:	494f      	ldr	r1, [pc, #316]	; (1330 <Code_235+0x20>)
    11f2:	1bc9      	subs	r1, r1, r7
    11f4:	3f04      	subs	r7, #4
    11f6:	603e      	str	r6, [r7, #0]
    11f8:	088e      	lsrs	r6, r1, #2
    11fa:	4770      	bx	lr

000011fc <Dictionary_218>:
    11fc:	00001218 	andeq	r1, r0, r8, lsl r2
    1200:	72060000 	andvc	r0, r6, #0
    1204:	74706564 	ldrbtvc	r6, [r0], #-1380	; 0x564
    1208:	3f040068 	svccc	0x00040068

0000120a <Code_218>:
    120a:	3f04      	subs	r7, #4
    120c:	603e      	str	r6, [r7, #0]
    120e:	466e      	mov	r6, sp
    1210:	4948      	ldr	r1, [pc, #288]	; (1334 <Code_235+0x24>)
    1212:	1b89      	subs	r1, r1, r6
    1214:	088e      	lsrs	r6, r1, #2
    1216:	4770      	bx	lr

00001218 <Dictionary_220>:
    1218:	0000124c 	andeq	r1, r0, ip, asr #4
    121c:	3e020220 	cdpcc	2, 0, cr0, cr2, cr0, {1}
    1220:	b4400072 	strblt	r0, [r0], #-114	; 0x72

00001222 <Code_220>:
    1222:	b440      	push	{r6}
    1224:	cf40      	ldmia	r7!, {r6}
    1226:	4770      	bx	lr

00001228 <allocator_to_r>:
    1228:	b500      	push	{lr}
    122a:	f7ff fa80 	bl	72e <push_lr_nachholen>
    122e:	f7ff f9e8 	bl	602 <expect_one_element>
    1232:	f7ff fa25 	bl	680 <expect_tos_in_register>
    1236:	3f04      	subs	r7, #4
    1238:	603e      	str	r6, [r7, #0]
    123a:	4e3f      	ldr	r6, [pc, #252]	; (1338 <Code_235+0x28>)
    123c:	2201      	movs	r2, #1
    123e:	408a      	lsls	r2, r1
    1240:	4316      	orrs	r6, r2
    1242:	f002 f93c 	bl	34be <Code_829>
    1246:	f7ff f8d4 	bl	3f2 <eliminiere_tos>
    124a:	bd00      	pop	{pc}

0000124c <Dictionary_223>:
    124c:	00001280 	andeq	r1, r0, r0, lsl #5
    1250:	72020220 	andvc	r0, r2, #2
    1254:	3f04003e 	svccc	0x0004003e

00001256 <Code_223>:
    1256:	3f04      	subs	r7, #4
    1258:	603e      	str	r6, [r7, #0]
    125a:	bc40      	pop	{r6}
    125c:	4770      	bx	lr

0000125e <allocator_r_from>:
    125e:	b500      	push	{lr}
    1260:	f7ff fa65 	bl	72e <push_lr_nachholen>
    1264:	f7ff f8bb 	bl	3de <befreie_tos>
    1268:	f7ff f998 	bl	59c <get_free_register>
    126c:	6003      	str	r3, [r0, #0]
    126e:	3f04      	subs	r7, #4
    1270:	603e      	str	r6, [r7, #0]
    1272:	4e32      	ldr	r6, [pc, #200]	; (133c <Code_235+0x2c>)
    1274:	2201      	movs	r2, #1
    1276:	409a      	lsls	r2, r3
    1278:	4316      	orrs	r6, r2
    127a:	f002 f920 	bl	34be <Code_829>
    127e:	bd00      	pop	{pc}

00001280 <Dictionary_227>:
    1280:	000012a0 	andeq	r1, r0, r0, lsr #5
    1284:	72020220 	andvc	r0, r2, #2
    1288:	3f040040 	svccc	0x00040040

0000128a <Code_227>:
    128a:	3f04      	subs	r7, #4
    128c:	603e      	str	r6, [r7, #0]
    128e:	9e00      	ldr	r6, [sp, #0]
    1290:	4770      	bx	lr
    1292:	b500      	push	{lr}
    1294:	f7ff fa4b 	bl	72e <push_lr_nachholen>
    1298:	f002 fe30 	bl	3efc <rfetch_allocator>
    129c:	bd00      	pop	{pc}
    129e:	46c0      	nop			; (mov r8, r8)

000012a0 <Dictionary_229>:
    12a0:	000012c4 	andeq	r1, r0, r4, asr #5
    12a4:	72050220 	andvc	r0, r5, #2
    12a8:	706f7264 	rsbvc	r7, pc, r4, ror #4

000012ac <Code_229>:
    12ac:	b001      	add	sp, #4
    12ae:	4770      	bx	lr
    12b0:	b500      	push	{lr}
    12b2:	f7ff fa3c 	bl	72e <push_lr_nachholen>
    12b6:	3f04      	subs	r7, #4
    12b8:	603e      	str	r6, [r7, #0]
    12ba:	4e21      	ldr	r6, [pc, #132]	; (1340 <Code_235+0x30>)
    12bc:	f002 f8ff 	bl	34be <Code_829>
    12c0:	bd00      	pop	{pc}
    12c2:	46c0      	nop			; (mov r8, r8)

000012c4 <Dictionary_232>:
    12c4:	000012d8 	ldrdeq	r1, [r0], -r8
    12c8:	72050020 	andvc	r0, r5, #32
    12cc:	6b636970 	blvs	18db894 <BIT24+0x8db894>

000012d0 <Code_232>:
    12d0:	00b6      	lsls	r6, r6, #2
    12d2:	446e      	add	r6, sp
    12d4:	6836      	ldr	r6, [r6, #0]
    12d6:	4770      	bx	lr

000012d8 <Dictionary_233>:
    12d8:	00001304 	andeq	r1, r0, r4, lsl #6
    12dc:	72040000 	andvc	r0, r4, #0
    12e0:	006c6c6f 	rsbeq	r6, ip, pc, ror #24

000012e4 <Code_233>:
    12e4:	2e00      	cmp	r6, #0
    12e6:	d101      	bne.n	12ec <Code_233+0x8>
    12e8:	cf40      	ldmia	r7!, {r6}
    12ea:	4770      	bx	lr
    12ec:	00b0      	lsls	r0, r6, #2
    12ee:	5839      	ldr	r1, [r7, r0]
    12f0:	19c0      	adds	r0, r0, r7
    12f2:	1f03      	subs	r3, r0, #4
    12f4:	681a      	ldr	r2, [r3, #0]
    12f6:	6002      	str	r2, [r0, #0]
    12f8:	3804      	subs	r0, #4
    12fa:	3e01      	subs	r6, #1
    12fc:	d1f9      	bne.n	12f2 <Code_233+0xe>
    12fe:	3704      	adds	r7, #4
    1300:	000e      	movs	r6, r1
    1302:	4770      	bx	lr

00001304 <Dictionary_235>:
    1304:	00001344 	andeq	r1, r0, r4, asr #6
    1308:	2d050000 	stccs	0, cr0, [r5]
    130c:	6c6c6f72 	stclvs	15, cr6, [ip], #-456	; 0xfffffe38

00001310 <Code_235>:
    1310:	2e00      	cmp	r6, #0
    1312:	d101      	bne.n	1318 <Code_235+0x8>
    1314:	cf40      	ldmia	r7!, {r6}
    1316:	4770      	bx	lr
    1318:	6838      	ldr	r0, [r7, #0]
    131a:	4639      	mov	r1, r7
    131c:	684a      	ldr	r2, [r1, #4]
    131e:	600a      	str	r2, [r1, #0]
    1320:	3104      	adds	r1, #4
    1322:	3e01      	subs	r6, #1
    1324:	d1fa      	bne.n	131c <Code_235+0xc>
    1326:	6008      	str	r0, [r1, #0]
    1328:	cf40      	ldmia	r7!, {r6}
    132a:	4770      	bx	lr
    132c:	00003704 	andeq	r3, r0, r4, lsl #14
    1330:	1000038c 	andne	r0, r0, ip, lsl #7
    1334:	1000048c 	andne	r0, r0, ip, lsl #9
    1338:	0000b400 	andeq	fp, r0, r0, lsl #8
    133c:	0000bc00 	andeq	fp, r0, r0, lsl #24
    1340:	0000b001 	andeq	fp, r0, r1

00001344 <Dictionary_238>:
    1344:	0000135c 	andeq	r1, r0, ip, asr r3
    1348:	61030262 	tstvs	r3, r2, ror #4
    134c:	cf01646e 	svcgt	0x0001646e

0000134e <Code_238>:
    134e:	cf01      	ldmia	r7!, {r0}
    1350:	4006      	ands	r6, r0
    1352:	4770      	bx	lr
    1354:	3f04      	subs	r7, #4
    1356:	603e      	str	r6, [r7, #0]
    1358:	4e6f      	ldr	r6, [pc, #444]	; (1518 <alloc_logic_gemeinsam+0x20>)
    135a:	e0c0      	b.n	14de <alloc_kommutativ>

0000135c <Dictionary_241>:
    135c:	00001378 	andeq	r1, r0, r8, ror r3
    1360:	62030262 	andvs	r0, r3, #536870918	; 0x20000006
    1364:	cf016369 	svcgt	0x00016369

00001366 <Code_241>:
    1366:	cf01      	ldmia	r7!, {r0}
    1368:	43b0      	bics	r0, r6
    136a:	0006      	movs	r6, r0
    136c:	4770      	bx	lr
    136e:	3f04      	subs	r7, #4
    1370:	603e      	str	r6, [r7, #0]
    1372:	4e6a      	ldr	r6, [pc, #424]	; (151c <alloc_logic_gemeinsam+0x24>)
    1374:	e0af      	b.n	14d6 <alloc_unkommutativ>
    1376:	46c0      	nop			; (mov r8, r8)

00001378 <Dictionary_244>:
    1378:	00001390 	muleq	r0, r0, r3
    137c:	6f020262 	svcvs	0x00020262
    1380:	cf010072 	svcgt	0x00010072

00001382 <Code_244>:
    1382:	cf01      	ldmia	r7!, {r0}
    1384:	4306      	orrs	r6, r0
    1386:	4770      	bx	lr

00001388 <or_allocator>:
    1388:	3f04      	subs	r7, #4
    138a:	603e      	str	r6, [r7, #0]
    138c:	4e64      	ldr	r6, [pc, #400]	; (1520 <alloc_logic_gemeinsam+0x28>)
    138e:	e0a6      	b.n	14de <alloc_kommutativ>

00001390 <Dictionary_247>:
    1390:	000013a8 	andeq	r1, r0, r8, lsr #7
    1394:	78030262 	stmdavc	r3, {r1, r5, r6, r9}
    1398:	cf01726f 	svcgt	0x0001726f

0000139a <Code_247>:
    139a:	cf01      	ldmia	r7!, {r0}
    139c:	4046      	eors	r6, r0
    139e:	4770      	bx	lr

000013a0 <xor_allocator>:
    13a0:	3f04      	subs	r7, #4
    13a2:	603e      	str	r6, [r7, #0]
    13a4:	4e5f      	ldr	r6, [pc, #380]	; (1524 <alloc_logic_gemeinsam+0x2c>)
    13a6:	e09a      	b.n	14de <alloc_kommutativ>

000013a8 <Dictionary_250>:
    13a8:	000013c0 	andeq	r1, r0, r0, asr #7
    13ac:	2a010262 	bcs	41d3c <BIT18+0x1d3c>

000013b0 <Code_250>:
    13b0:	cf01      	ldmia	r7!, {r0}
    13b2:	4346      	muls	r6, r0
    13b4:	4770      	bx	lr
    13b6:	3f04      	subs	r7, #4
    13b8:	603e      	str	r6, [r7, #0]
    13ba:	4e5b      	ldr	r6, [pc, #364]	; (1528 <alloc_logic_gemeinsam+0x30>)
    13bc:	e08f      	b.n	14de <alloc_kommutativ>
    13be:	46c0      	nop			; (mov r8, r8)

000013c0 <Dictionary_253>:
    13c0:	000013e0 	andeq	r1, r0, r0, ror #7
    13c4:	63030041 	movwvs	r0, #12353	; 0x3041
    13c8:	00307a6c 	eorseq	r7, r0, ip, ror #20

000013ca <Code_253>:
    13ca:	0030      	movs	r0, r6
    13cc:	d006      	beq.n	13dc <Code_253+0x12>
    13ce:	2600      	movs	r6, #0
    13d0:	0040      	lsls	r0, r0, #1
    13d2:	d002      	beq.n	13da <Code_253+0x10>
    13d4:	d201      	bcs.n	13da <Code_253+0x10>
    13d6:	3601      	adds	r6, #1
    13d8:	e7fa      	b.n	13d0 <Code_253+0x6>
    13da:	4770      	bx	lr
    13dc:	2620      	movs	r6, #32
    13de:	4770      	bx	lr

000013e0 <Dictionary_254>:
    13e0:	000013f0 	strdeq	r1, [r0], -r0
    13e4:	72030061 	andvc	r0, r3, #97	; 0x61
    13e8:	2001726f 	andcs	r7, r1, pc, ror #4

000013ea <Code_254>:
    13ea:	2001      	movs	r0, #1
    13ec:	41c6      	rors	r6, r0
    13ee:	4770      	bx	lr

000013f0 <Dictionary_255>:
    13f0:	00001404 	andeq	r1, r0, r4, lsl #8
    13f4:	72030061 	andvc	r0, r3, #97	; 0x61
    13f8:	20006c6f 	andcs	r6, r0, pc, ror #24

000013fa <Code_255>:
    13fa:	2000      	movs	r0, #0
    13fc:	19b6      	adds	r6, r6, r6
    13fe:	4146      	adcs	r6, r0
    1400:	4770      	bx	lr
    1402:	46c0      	nop			; (mov r8, r8)

00001404 <Dictionary_256>:
    1404:	00001438 	andeq	r1, r0, r8, lsr r4
    1408:	61070262 	tstvs	r7, r2, ror #4
    140c:	69687372 	stmdbvs	r8!, {r1, r4, r5, r6, r8, r9, ip, sp, lr}^
    1410:	cf017466 	svcgt	0x00017466

00001412 <Code_256>:
    1412:	cf01      	ldmia	r7!, {r0}
    1414:	4130      	asrs	r0, r6
    1416:	0006      	movs	r6, r0
    1418:	4770      	bx	lr
    141a:	b500      	push	{lr}
    141c:	3f04      	subs	r7, #4
    141e:	603e      	str	r6, [r7, #0]
    1420:	4e42      	ldr	r6, [pc, #264]	; (152c <alloc_logic_gemeinsam+0x34>)
    1422:	3f04      	subs	r7, #4
    1424:	603e      	str	r6, [r7, #0]
    1426:	4e42      	ldr	r6, [pc, #264]	; (1530 <alloc_logic_gemeinsam+0x38>)
    1428:	f7ff f8f5 	bl	616 <expect_two_elements>
    142c:	6841      	ldr	r1, [r0, #4]
    142e:	291f      	cmp	r1, #31
    1430:	d928      	bls.n	1484 <Code_266+0x16>
    1432:	211f      	movs	r1, #31
    1434:	6041      	str	r1, [r0, #4]
    1436:	e025      	b.n	1484 <Code_266+0x16>

00001438 <Dictionary_261>:
    1438:	00001460 	andeq	r1, r0, r0, ror #8
    143c:	72060262 	andvc	r0, r6, #536870918	; 0x20000006
    1440:	66696873 			; <UNDEFINED> instruction: 0x66696873
    1444:	cf010074 	svcgt	0x00010074

00001446 <Code_261>:
    1446:	cf01      	ldmia	r7!, {r0}
    1448:	40f0      	lsrs	r0, r6
    144a:	0006      	movs	r6, r0
    144c:	4770      	bx	lr
    144e:	b500      	push	{lr}
    1450:	3f04      	subs	r7, #4
    1452:	603e      	str	r6, [r7, #0]
    1454:	4e37      	ldr	r6, [pc, #220]	; (1534 <alloc_logic_gemeinsam+0x3c>)
    1456:	3f04      	subs	r7, #4
    1458:	603e      	str	r6, [r7, #0]
    145a:	4e37      	ldr	r6, [pc, #220]	; (1538 <alloc_logic_gemeinsam+0x40>)
    145c:	e012      	b.n	1484 <Code_266+0x16>
    145e:	46c0      	nop			; (mov r8, r8)

00001460 <Dictionary_266>:
    1460:	00001544 	andeq	r1, r0, r4, asr #10
    1464:	6c060262 	sfmvs	f0, 4, [r6], {98}	; 0x62
    1468:	66696873 			; <UNDEFINED> instruction: 0x66696873
    146c:	cf010074 	svcgt	0x00010074

0000146e <Code_266>:
    146e:	cf01      	ldmia	r7!, {r0}
    1470:	40b0      	lsls	r0, r6
    1472:	0006      	movs	r6, r0
    1474:	4770      	bx	lr
    1476:	b500      	push	{lr}
    1478:	3f04      	subs	r7, #4
    147a:	603e      	str	r6, [r7, #0]
    147c:	4e2f      	ldr	r6, [pc, #188]	; (153c <alloc_logic_gemeinsam+0x44>)
    147e:	3f04      	subs	r7, #4
    1480:	603e      	str	r6, [r7, #0]
    1482:	2600      	movs	r6, #0
    1484:	f7ff f8c7 	bl	616 <expect_two_elements>
    1488:	6801      	ldr	r1, [r0, #0]
    148a:	2928      	cmp	r1, #40	; 0x28
    148c:	d003      	beq.n	1496 <Code_266+0x28>
    148e:	cf40      	ldmia	r7!, {r6}
    1490:	f000 f821 	bl	14d6 <alloc_unkommutativ>
    1494:	bd00      	pop	{pc}
    1496:	3704      	adds	r7, #4
    1498:	6841      	ldr	r1, [r0, #4]
    149a:	f7fe ffaa 	bl	3f2 <eliminiere_tos>
    149e:	2900      	cmp	r1, #0
    14a0:	d101      	bne.n	14a6 <Code_266+0x38>
    14a2:	cf40      	ldmia	r7!, {r6}
    14a4:	bd00      	pop	{pc}
    14a6:	291f      	cmp	r1, #31
    14a8:	d80a      	bhi.n	14c0 <Code_266+0x52>
    14aa:	0189      	lsls	r1, r1, #6
    14ac:	430e      	orrs	r6, r1
    14ae:	6802      	ldr	r2, [r0, #0]
    14b0:	00d2      	lsls	r2, r2, #3
    14b2:	4316      	orrs	r6, r2
    14b4:	f7ff f932 	bl	71c <tos_registerwechsel>
    14b8:	431e      	orrs	r6, r3
    14ba:	f002 f800 	bl	34be <Code_829>
    14be:	bd00      	pop	{pc}
    14c0:	cf40      	ldmia	r7!, {r6}
    14c2:	f7ff f92b 	bl	71c <tos_registerwechsel>
    14c6:	3f04      	subs	r7, #4
    14c8:	603e      	str	r6, [r7, #0]
    14ca:	4e1d      	ldr	r6, [pc, #116]	; (1540 <alloc_logic_gemeinsam+0x48>)
    14cc:	021b      	lsls	r3, r3, #8
    14ce:	431e      	orrs	r6, r3
    14d0:	f001 fff5 	bl	34be <Code_829>
    14d4:	bd00      	pop	{pc}

000014d6 <alloc_unkommutativ>:
    14d6:	b50f      	push	{r0, r1, r2, r3, lr}

000014d8 <alloc_unkommutativ_ohneregister>:
    14d8:	f7ff f89d 	bl	616 <expect_two_elements>
    14dc:	e00c      	b.n	14f8 <alloc_logic_gemeinsam>

000014de <alloc_kommutativ>:
    14de:	b50f      	push	{r0, r1, r2, r3, lr}

000014e0 <alloc_kommutativ_ohneregister>:
    14e0:	f7ff f899 	bl	616 <expect_two_elements>
    14e4:	6801      	ldr	r1, [r0, #0]
    14e6:	2906      	cmp	r1, #6
    14e8:	d101      	bne.n	14ee <alloc_kommutativ_ohneregister+0xe>
    14ea:	f7ff fdf9 	bl	10e0 <swap_allocator>
    14ee:	6882      	ldr	r2, [r0, #8]
    14f0:	2a28      	cmp	r2, #40	; 0x28
    14f2:	d101      	bne.n	14f8 <alloc_logic_gemeinsam>
    14f4:	f7ff fdf4 	bl	10e0 <swap_allocator>

000014f8 <alloc_logic_gemeinsam>:
    14f8:	f7ff f8cc 	bl	694 <expect_nos_in_register>
    14fc:	f7ff f8de 	bl	6bc <nos_change_tos_away_later>
    1500:	f7ff f8be 	bl	680 <expect_tos_in_register>
    1504:	00c9      	lsls	r1, r1, #3
    1506:	6882      	ldr	r2, [r0, #8]
    1508:	430e      	orrs	r6, r1
    150a:	4316      	orrs	r6, r2
    150c:	f001 ffd7 	bl	34be <Code_829>
    1510:	f7fe ff6f 	bl	3f2 <eliminiere_tos>
    1514:	bd0f      	pop	{r0, r1, r2, r3, pc}
    1516:	40000000 	andmi	r0, r0, r0
    151a:	43800000 	orrmi	r0, r0, #0
    151e:	43000000 	movwmi	r0, #0
    1522:	40400000 	submi	r0, r0, r0
    1526:	43400000 	movtmi	r0, #0
    152a:	41000000 	mrsmi	r0, (UNDEF: 0)
    152e:	10000000 	andne	r0, r0, r0
    1532:	40c00000 	sbcmi	r0, r0, r0
    1536:	08000000 	stmdaeq	r0, {}	; <UNPREDICTABLE>
    153a:	40800000 	addmi	r0, r0, r0
    153e:	20000000 	andcs	r0, r0, r0
	...

00001544 <Dictionary_277>:
    1544:	00001568 	andeq	r1, r0, r8, ror #10
    1548:	30020261 	andcc	r0, r2, r1, ror #4
    154c:	3e01003d 	mcrcc	0, 0, r0, cr1, cr13, {1}

0000154e <Code_277>:
    154e:	3e01      	subs	r6, #1
    1550:	41b6      	sbcs	r6, r6
    1552:	4770      	bx	lr

00001554 <allocator_equal_zero>:
    1554:	b500      	push	{lr}
    1556:	f000 f903 	bl	1760 <prepare_single_compare>
    155a:	f000 feb0 	bl	22be <allocator_one_minus>
    155e:	f7fe ff48 	bl	3f2 <eliminiere_tos>
    1562:	4973      	ldr	r1, [pc, #460]	; (1730 <Code_331+0x18>)
    1564:	6281      	str	r1, [r0, #40]	; 0x28
    1566:	bd00      	pop	{pc}

00001568 <Dictionary_278>:
    1568:	00001590 	muleq	r0, r0, r5
    156c:	30030261 	andcc	r0, r3, r1, ror #4
    1570:	3e013e3c 	mcrcc	14, 0, r3, cr1, cr12, {1}

00001572 <Code_278>:
    1572:	3e01      	subs	r6, #1
    1574:	41b6      	sbcs	r6, r6
    1576:	43f6      	mvns	r6, r6
    1578:	4770      	bx	lr

0000157a <allocator_unequal_zero>:
    157a:	b500      	push	{lr}
    157c:	f000 f8f0 	bl	1760 <prepare_single_compare>
    1580:	f000 fe9d 	bl	22be <allocator_one_minus>
    1584:	f7fe ff35 	bl	3f2 <eliminiere_tos>
    1588:	496a      	ldr	r1, [pc, #424]	; (1734 <Code_331+0x1c>)
    158a:	6281      	str	r1, [r0, #40]	; 0x28
    158c:	bd00      	pop	{pc}
    158e:	46c0      	nop			; (mov r8, r8)

00001590 <Dictionary_279>:
    1590:	000015b4 			; <UNDEFINED> instruction: 0x000015b4
    1594:	30020261 	andcc	r0, r2, r1, ror #4
    1598:	17f6003c 			; <UNDEFINED> instruction: 0x17f6003c

0000159a <Code_279>:
    159a:	17f6      	asrs	r6, r6, #31
    159c:	4770      	bx	lr

0000159e <alloc_nullkleiner>:
    159e:	b500      	push	{lr}
    15a0:	f000 f8de 	bl	1760 <prepare_single_compare>
    15a4:	3f04      	subs	r7, #4
    15a6:	603e      	str	r6, [r7, #0]
    15a8:	4e63      	ldr	r6, [pc, #396]	; (1738 <Code_331+0x20>)
    15aa:	f000 fec9 	bl	2340 <smalltworegisters>
    15ae:	4963      	ldr	r1, [pc, #396]	; (173c <Code_331+0x24>)
    15b0:	6281      	str	r1, [r0, #40]	; 0x28
    15b2:	bd00      	pop	{pc}

000015b4 <Dictionary_282>:
    15b4:	000015cc 	andeq	r1, r0, ip, asr #11
    15b8:	74040060 	strvc	r0, [r4], #-96	; 0x60
    15bc:	00657572 	rsbeq	r7, r5, r2, ror r5

000015c0 <Code_282>:
    15c0:	3f04      	subs	r7, #4
    15c2:	603e      	str	r6, [r7, #0]

000015c4 <generate_true>:
    15c4:	2600      	movs	r6, #0
    15c6:	43f6      	mvns	r6, r6
    15c8:	4770      	bx	lr
    15ca:	46c0      	nop			; (mov r8, r8)

000015cc <Dictionary_284>:
    15cc:	000015e0 	andeq	r1, r0, r0, ror #11
    15d0:	66050060 	strvs	r0, [r5], -r0, rrx
    15d4:	65736c61 	ldrbvs	r6, [r3, #-3169]!	; 0xc61

000015d8 <Code_284>:
    15d8:	3f04      	subs	r7, #4
    15da:	603e      	str	r6, [r7, #0]
    15dc:	2600      	movs	r6, #0
    15de:	4770      	bx	lr

000015e0 <Dictionary_286>:
    15e0:	00001604 	andeq	r1, r0, r4, lsl #12
    15e4:	3e020242 	cdpcc	2, 0, cr0, cr2, cr2, {2}
    15e8:	cf01003d 	svcgt	0x0001003d

000015ea <Code_286>:
    15ea:	cf01      	ldmia	r7!, {r0}
    15ec:	42b0      	cmp	r0, r6
    15ee:	dae9      	bge.n	15c4 <generate_true>
    15f0:	2600      	movs	r6, #0
    15f2:	4770      	bx	lr
    15f4:	3f04      	subs	r7, #4
    15f6:	603e      	str	r6, [r7, #0]
    15f8:	4e51      	ldr	r6, [pc, #324]	; (1740 <Code_331+0x28>)
    15fa:	3f04      	subs	r7, #4
    15fc:	603e      	str	r6, [r7, #0]
    15fe:	4e51      	ldr	r6, [pc, #324]	; (1744 <Code_331+0x2c>)
    1600:	e0ba      	b.n	1778 <prepare_compare>
    1602:	46c0      	nop			; (mov r8, r8)

00001604 <Dictionary_291>:
    1604:	00001628 	andeq	r1, r0, r8, lsr #12
    1608:	3c020242 	sfmcc	f0, 4, [r2], {66}	; 0x42
    160c:	cf01003d 	svcgt	0x0001003d

0000160e <Code_291>:
    160e:	cf01      	ldmia	r7!, {r0}
    1610:	42b0      	cmp	r0, r6
    1612:	ddd7      	ble.n	15c4 <generate_true>
    1614:	2600      	movs	r6, #0
    1616:	4770      	bx	lr
    1618:	3f04      	subs	r7, #4
    161a:	603e      	str	r6, [r7, #0]
    161c:	4e4a      	ldr	r6, [pc, #296]	; (1748 <Code_331+0x30>)
    161e:	3f04      	subs	r7, #4
    1620:	603e      	str	r6, [r7, #0]
    1622:	4e4a      	ldr	r6, [pc, #296]	; (174c <Code_331+0x34>)
    1624:	e0a8      	b.n	1778 <prepare_compare>
    1626:	46c0      	nop			; (mov r8, r8)

00001628 <Dictionary_296>:
    1628:	00001648 	andeq	r1, r0, r8, asr #12
    162c:	3c010242 	sfmcc	f0, 4, [r1], {66}	; 0x42

00001630 <Code_296>:
    1630:	cf01      	ldmia	r7!, {r0}
    1632:	42b0      	cmp	r0, r6
    1634:	dbc6      	blt.n	15c4 <generate_true>
    1636:	2600      	movs	r6, #0
    1638:	4770      	bx	lr
    163a:	3f04      	subs	r7, #4
    163c:	603e      	str	r6, [r7, #0]
    163e:	4e41      	ldr	r6, [pc, #260]	; (1744 <Code_331+0x2c>)
    1640:	3f04      	subs	r7, #4
    1642:	603e      	str	r6, [r7, #0]
    1644:	4e3e      	ldr	r6, [pc, #248]	; (1740 <Code_331+0x28>)
    1646:	e097      	b.n	1778 <prepare_compare>

00001648 <Dictionary_301>:
    1648:	00001668 	andeq	r1, r0, r8, ror #12
    164c:	3e010242 	cdpcc	2, 0, cr0, cr1, cr2, {2}

00001650 <Code_301>:
    1650:	cf01      	ldmia	r7!, {r0}
    1652:	42b0      	cmp	r0, r6
    1654:	dcb6      	bgt.n	15c4 <generate_true>
    1656:	2600      	movs	r6, #0
    1658:	4770      	bx	lr
    165a:	3f04      	subs	r7, #4
    165c:	603e      	str	r6, [r7, #0]
    165e:	4e3b      	ldr	r6, [pc, #236]	; (174c <Code_331+0x34>)
    1660:	3f04      	subs	r7, #4
    1662:	603e      	str	r6, [r7, #0]
    1664:	4e38      	ldr	r6, [pc, #224]	; (1748 <Code_331+0x30>)
    1666:	e087      	b.n	1778 <prepare_compare>

00001668 <Dictionary_306>:
    1668:	0000168c 	andeq	r1, r0, ip, lsl #13
    166c:	75030262 	strvc	r0, [r3, #-610]	; 0x262
    1670:	cf013d3e 	svcgt	0x00013d3e

00001672 <Code_306>:
    1672:	cf01      	ldmia	r7!, {r0}
    1674:	1b86      	subs	r6, r0, r6
    1676:	41b6      	sbcs	r6, r6
    1678:	43f6      	mvns	r6, r6
    167a:	4770      	bx	lr
    167c:	3f04      	subs	r7, #4
    167e:	603e      	str	r6, [r7, #0]
    1680:	4e2c      	ldr	r6, [pc, #176]	; (1734 <Code_331+0x1c>)
    1682:	3f04      	subs	r7, #4
    1684:	603e      	str	r6, [r7, #0]
    1686:	4e2a      	ldr	r6, [pc, #168]	; (1730 <Code_331+0x18>)
    1688:	e076      	b.n	1778 <prepare_compare>
    168a:	46c0      	nop			; (mov r8, r8)

0000168c <Dictionary_311>:
    168c:	000016b0 			; <UNDEFINED> instruction: 0x000016b0
    1690:	75030262 	strvc	r0, [r3, #-610]	; 0x262
    1694:	cf013d3c 	svcgt	0x00013d3c

00001696 <Code_311>:
    1696:	cf01      	ldmia	r7!, {r0}
    1698:	1a36      	subs	r6, r6, r0
    169a:	41b6      	sbcs	r6, r6
    169c:	43f6      	mvns	r6, r6
    169e:	4770      	bx	lr
    16a0:	3f04      	subs	r7, #4
    16a2:	603e      	str	r6, [r7, #0]
    16a4:	4e2a      	ldr	r6, [pc, #168]	; (1750 <Code_331+0x38>)
    16a6:	3f04      	subs	r7, #4
    16a8:	603e      	str	r6, [r7, #0]
    16aa:	4e2a      	ldr	r6, [pc, #168]	; (1754 <Code_331+0x3c>)
    16ac:	e064      	b.n	1778 <prepare_compare>
    16ae:	46c0      	nop			; (mov r8, r8)

000016b0 <Dictionary_316>:
    16b0:	000016d0 	ldrdeq	r1, [r0], -r0
    16b4:	75020262 	strvc	r0, [r2, #-610]	; 0x262
    16b8:	cf01003c 	svcgt	0x0001003c

000016ba <Code_316>:
    16ba:	cf01      	ldmia	r7!, {r0}
    16bc:	1b86      	subs	r6, r0, r6
    16be:	41b6      	sbcs	r6, r6
    16c0:	4770      	bx	lr
    16c2:	3f04      	subs	r7, #4
    16c4:	603e      	str	r6, [r7, #0]
    16c6:	4e1a      	ldr	r6, [pc, #104]	; (1730 <Code_331+0x18>)
    16c8:	3f04      	subs	r7, #4
    16ca:	603e      	str	r6, [r7, #0]
    16cc:	4e19      	ldr	r6, [pc, #100]	; (1734 <Code_331+0x1c>)
    16ce:	e053      	b.n	1778 <prepare_compare>

000016d0 <Dictionary_321>:
    16d0:	000016f0 	strdeq	r1, [r0], -r0
    16d4:	75020262 	strvc	r0, [r2, #-610]	; 0x262
    16d8:	cf01003e 	svcgt	0x0001003e

000016da <Code_321>:
    16da:	cf01      	ldmia	r7!, {r0}
    16dc:	1a36      	subs	r6, r6, r0
    16de:	41b6      	sbcs	r6, r6
    16e0:	4770      	bx	lr
    16e2:	3f04      	subs	r7, #4
    16e4:	603e      	str	r6, [r7, #0]
    16e6:	4e1b      	ldr	r6, [pc, #108]	; (1754 <Code_331+0x3c>)
    16e8:	3f04      	subs	r7, #4
    16ea:	603e      	str	r6, [r7, #0]
    16ec:	4e18      	ldr	r6, [pc, #96]	; (1750 <Code_331+0x38>)
    16ee:	e043      	b.n	1778 <prepare_compare>

000016f0 <Dictionary_326>:
    16f0:	00001710 	andeq	r1, r0, r0, lsl r7
    16f4:	3c020262 	sfmcc	f0, 4, [r2], {98}	; 0x62
    16f8:	cf01003e 	svcgt	0x0001003e

000016fa <Code_326>:
    16fa:	cf01      	ldmia	r7!, {r0}
    16fc:	1b81      	subs	r1, r0, r6
    16fe:	1a36      	subs	r6, r6, r0
    1700:	430e      	orrs	r6, r1
    1702:	4770      	bx	lr
    1704:	3f04      	subs	r7, #4
    1706:	603e      	str	r6, [r7, #0]
    1708:	4e13      	ldr	r6, [pc, #76]	; (1758 <Code_331+0x40>)
    170a:	3f04      	subs	r7, #4
    170c:	603e      	str	r6, [r7, #0]
    170e:	e033      	b.n	1778 <prepare_compare>

00001710 <Dictionary_331>:
    1710:	0000186c 	andeq	r1, r0, ip, ror #16
    1714:	3d010262 	sfmcc	f0, 4, [r1, #-392]	; 0xfffffe78

00001718 <Code_331>:
    1718:	cf01      	ldmia	r7!, {r0}
    171a:	1a36      	subs	r6, r6, r0
    171c:	3e01      	subs	r6, #1
    171e:	41b6      	sbcs	r6, r6
    1720:	4770      	bx	lr
    1722:	3f04      	subs	r7, #4
    1724:	603e      	str	r6, [r7, #0]
    1726:	4e0d      	ldr	r6, [pc, #52]	; (175c <Code_331+0x44>)
    1728:	3f04      	subs	r7, #4
    172a:	603e      	str	r6, [r7, #0]
    172c:	e024      	b.n	1778 <prepare_compare>
    172e:	d2000000 	andle	r0, r0, #0
    1732:	d3000000 	movwle	r0, #0
    1736:	17c00000 	strbne	r0, [r0, r0]
    173a:	d5000000 	strle	r0, [r0]
    173e:	db000000 	blle	1746 <Code_331+0x2e>
    1742:	da000000 	ble	174a <Code_331+0x32>
    1746:	dc000000 	stcle	0, cr0, [r0], {0}
    174a:	dd000000 	stcle	0, cr0, [r0]
    174e:	d8000000 	stmdale	r0, {}	; <UNPREDICTABLE>
    1752:	d9000000 	stmdble	r0, {}	; <UNPREDICTABLE>
    1756:	d0000000 	andle	r0, r0, r0
    175a:	d1000000 	mrsle	r0, (UNDEF: 0)
	...

00001760 <prepare_single_compare>:
    1760:	b500      	push	{lr}
    1762:	f7fe ff4e 	bl	602 <expect_one_element>
    1766:	f7fe fe7f 	bl	468 <tidyup_register_allocator_5os>
    176a:	f7fe fe82 	bl	472 <tidyup_register_allocator_4os>
    176e:	f7fe fe85 	bl	47c <tidyup_register_allocator_3os>
    1772:	f7fe ff8f 	bl	694 <expect_nos_in_register>
    1776:	bd00      	pop	{pc}

00001778 <prepare_compare>:
    1778:	b500      	push	{lr}
    177a:	f7fe ff4c 	bl	616 <expect_two_elements>
    177e:	f7fe fe73 	bl	468 <tidyup_register_allocator_5os>
    1782:	f7fe fe76 	bl	472 <tidyup_register_allocator_4os>
    1786:	f7fe ff8f 	bl	6a8 <expect_3os_in_register>
    178a:	6882      	ldr	r2, [r0, #8]
    178c:	2a28      	cmp	r2, #40	; 0x28
    178e:	d104      	bne.n	179a <prepare_compare+0x22>
    1790:	f7ff fca6 	bl	10e0 <swap_allocator>
    1794:	6839      	ldr	r1, [r7, #0]
    1796:	603e      	str	r6, [r7, #0]
    1798:	460e      	mov	r6, r1
    179a:	cf40      	ldmia	r7!, {r6}
    179c:	6801      	ldr	r1, [r0, #0]
    179e:	2928      	cmp	r1, #40	; 0x28
    17a0:	d109      	bne.n	17b6 <prepare_compare+0x3e>
    17a2:	6841      	ldr	r1, [r0, #4]
    17a4:	29ff      	cmp	r1, #255	; 0xff
    17a6:	d806      	bhi.n	17b6 <prepare_compare+0x3e>
    17a8:	3f04      	subs	r7, #4
    17aa:	603e      	str	r6, [r7, #0]
    17ac:	4e63      	ldr	r6, [pc, #396]	; (193c <alloc_minmax+0x5c>)
    17ae:	430e      	orrs	r6, r1
    17b0:	6881      	ldr	r1, [r0, #8]
    17b2:	0209      	lsls	r1, r1, #8
    17b4:	e006      	b.n	17c4 <prepare_compare+0x4c>
    17b6:	f7fe ff63 	bl	680 <expect_tos_in_register>
    17ba:	3f04      	subs	r7, #4
    17bc:	603e      	str	r6, [r7, #0]
    17be:	4e60      	ldr	r6, [pc, #384]	; (1940 <alloc_minmax+0x60>)
    17c0:	00c9      	lsls	r1, r1, #3
    17c2:	4316      	orrs	r6, r2
    17c4:	430e      	orrs	r6, r1
    17c6:	f001 fe7a 	bl	34be <Code_829>
    17ca:	f7fe fe12 	bl	3f2 <eliminiere_tos>
    17ce:	f7fe fe10 	bl	3f2 <eliminiere_tos>
    17d2:	6286      	str	r6, [r0, #40]	; 0x28
    17d4:	cf40      	ldmia	r7!, {r6}
    17d6:	bd00      	pop	{pc}

000017d8 <sprungschreiber_flaggenerator>:
    17d8:	b50f      	push	{r0, r1, r2, r3, lr}
    17da:	485a      	ldr	r0, [pc, #360]	; (1944 <alloc_minmax+0x64>)
    17dc:	6a81      	ldr	r1, [r0, #40]	; 0x28
    17de:	2900      	cmp	r1, #0
    17e0:	d030      	beq.n	1844 <sprungschreiber_flaggenerator+0x6c>
    17e2:	3f04      	subs	r7, #4
    17e4:	603e      	str	r6, [r7, #0]
    17e6:	6a86      	ldr	r6, [r0, #40]	; 0x28
    17e8:	2100      	movs	r1, #0
    17ea:	6281      	str	r1, [r0, #40]	; 0x28
    17ec:	0a31      	lsrs	r1, r6, #8
    17ee:	29d5      	cmp	r1, #213	; 0xd5
    17f0:	d101      	bne.n	17f6 <sprungschreiber_flaggenerator+0x1e>
    17f2:	cf40      	ldmia	r7!, {r6}
    17f4:	bd0f      	pop	{r0, r1, r2, r3, pc}
    17f6:	f7fe fdf2 	bl	3de <befreie_tos>
    17fa:	f7fe fecf 	bl	59c <get_free_register>
    17fe:	6003      	str	r3, [r0, #0]
    1800:	29d2      	cmp	r1, #210	; 0xd2
    1802:	d103      	bne.n	180c <sprungschreiber_flaggenerator+0x34>
    1804:	4e50      	ldr	r6, [pc, #320]	; (1948 <alloc_minmax+0x68>)
    1806:	f000 fd9b 	bl	2340 <smalltworegisters>
    180a:	bd0f      	pop	{r0, r1, r2, r3, pc}
    180c:	29d3      	cmp	r1, #211	; 0xd3
    180e:	d105      	bne.n	181c <sprungschreiber_flaggenerator+0x44>
    1810:	4e4d      	ldr	r6, [pc, #308]	; (1948 <alloc_minmax+0x68>)
    1812:	f000 fd95 	bl	2340 <smalltworegisters>
    1816:	f000 fda6 	bl	2366 <allocator_not>
    181a:	bd0f      	pop	{r0, r1, r2, r3, pc}
    181c:	3602      	adds	r6, #2
    181e:	f001 fe4e 	bl	34be <Code_829>
    1822:	3f04      	subs	r7, #4
    1824:	603e      	str	r6, [r7, #0]
    1826:	4e49      	ldr	r6, [pc, #292]	; (194c <alloc_minmax+0x6c>)
    1828:	f000 f80d 	bl	1846 <smallplusminus>
    182c:	f000 fd9b 	bl	2366 <allocator_not>
    1830:	3f04      	subs	r7, #4
    1832:	603e      	str	r6, [r7, #0]
    1834:	4e46      	ldr	r6, [pc, #280]	; (1950 <alloc_minmax+0x70>)
    1836:	f001 fe42 	bl	34be <Code_829>
    183a:	3f04      	subs	r7, #4
    183c:	603e      	str	r6, [r7, #0]
    183e:	4e43      	ldr	r6, [pc, #268]	; (194c <alloc_minmax+0x6c>)
    1840:	f000 f801 	bl	1846 <smallplusminus>
    1844:	bd0f      	pop	{r0, r1, r2, r3, pc}

00001846 <smallplusminus>:
    1846:	b500      	push	{lr}
    1848:	f7fe fedb 	bl	602 <expect_one_element>
    184c:	f7fe ff4d 	bl	6ea <make_tos_changeable>
    1850:	6801      	ldr	r1, [r0, #0]
    1852:	0209      	lsls	r1, r1, #8
    1854:	430e      	orrs	r6, r1
    1856:	f001 fe32 	bl	34be <Code_829>
    185a:	bd00      	pop	{pc}

0000185c <eliminiere_tos_wenn_bmi>:
    185c:	b500      	push	{lr}
    185e:	6a81      	ldr	r1, [r0, #40]	; 0x28
    1860:	0a09      	lsrs	r1, r1, #8
    1862:	29d5      	cmp	r1, #213	; 0xd5
    1864:	d101      	bne.n	186a <eliminiere_tos_wenn_bmi+0xe>
    1866:	f7fe fdc4 	bl	3f2 <eliminiere_tos>
    186a:	bd00      	pop	{pc}

0000186c <Dictionary_351>:
    186c:	00001888 	andeq	r1, r0, r8, lsl #17
    1870:	6d030262 	sfmvs	f0, 4, [r3, #-392]	; 0xfffffe78
    1874:	cf016e69 	svcgt	0x00016e69

00001876 <Code_351>:
    1876:	cf01      	ldmia	r7!, {r0}
    1878:	42b0      	cmp	r0, r6
    187a:	dc00      	bgt.n	187e <Code_351+0x8>
    187c:	0006      	movs	r6, r0
    187e:	4770      	bx	lr
    1880:	3f04      	subs	r7, #4
    1882:	603e      	str	r6, [r7, #0]
    1884:	4e33      	ldr	r6, [pc, #204]	; (1954 <alloc_minmax+0x74>)
    1886:	e02b      	b.n	18e0 <alloc_minmax>

00001888 <Dictionary_354>:
    1888:	000018a4 	andeq	r1, r0, r4, lsr #17
    188c:	6d030262 	sfmvs	f0, 4, [r3, #-392]	; 0xfffffe78
    1890:	cf017861 	svcgt	0x00017861

00001892 <Code_354>:
    1892:	cf01      	ldmia	r7!, {r0}
    1894:	42b0      	cmp	r0, r6
    1896:	db00      	blt.n	189a <Code_354+0x8>
    1898:	0006      	movs	r6, r0
    189a:	4770      	bx	lr
    189c:	3f04      	subs	r7, #4
    189e:	603e      	str	r6, [r7, #0]
    18a0:	4e2d      	ldr	r6, [pc, #180]	; (1958 <alloc_minmax+0x78>)
    18a2:	e01d      	b.n	18e0 <alloc_minmax>

000018a4 <Dictionary_357>:
    18a4:	000018c4 	andeq	r1, r0, r4, asr #17
    18a8:	75040262 	strvc	r0, [r4, #-610]	; 0x262
    18ac:	0078616d 	rsbseq	r6, r8, sp, ror #2

000018b0 <Code_357>:
    18b0:	cf01      	ldmia	r7!, {r0}
    18b2:	42b0      	cmp	r0, r6
    18b4:	d300      	bcc.n	18b8 <Code_357+0x8>
    18b6:	0006      	movs	r6, r0
    18b8:	4770      	bx	lr
    18ba:	3f04      	subs	r7, #4
    18bc:	603e      	str	r6, [r7, #0]
    18be:	4e27      	ldr	r6, [pc, #156]	; (195c <alloc_minmax+0x7c>)
    18c0:	e00e      	b.n	18e0 <alloc_minmax>
    18c2:	46c0      	nop			; (mov r8, r8)

000018c4 <Dictionary_360>:
    18c4:	00001968 	andeq	r1, r0, r8, ror #18
    18c8:	75040262 	strvc	r0, [r4, #-610]	; 0x262
    18cc:	006e696d 	rsbeq	r6, lr, sp, ror #18

000018d0 <Code_360>:
    18d0:	cf01      	ldmia	r7!, {r0}
    18d2:	42b0      	cmp	r0, r6
    18d4:	d800      	bhi.n	18d8 <Code_360+0x8>
    18d6:	0006      	movs	r6, r0
    18d8:	4770      	bx	lr
    18da:	3f04      	subs	r7, #4
    18dc:	603e      	str	r6, [r7, #0]
    18de:	4e20      	ldr	r6, [pc, #128]	; (1960 <alloc_minmax+0x80>)

000018e0 <alloc_minmax>:
    18e0:	b500      	push	{lr}
    18e2:	f7fe fe98 	bl	616 <expect_two_elements>
    18e6:	6801      	ldr	r1, [r0, #0]
    18e8:	6882      	ldr	r2, [r0, #8]
    18ea:	4291      	cmp	r1, r2
    18ec:	d103      	bne.n	18f6 <alloc_minmax+0x16>
    18ee:	cf40      	ldmia	r7!, {r6}
    18f0:	f7fe fd85 	bl	3fe <eliminiere_nos>
    18f4:	bd00      	pop	{pc}
    18f6:	2a06      	cmp	r2, #6
    18f8:	d101      	bne.n	18fe <alloc_minmax+0x1e>
    18fa:	f7ff fbf1 	bl	10e0 <swap_allocator>
    18fe:	6801      	ldr	r1, [r0, #0]
    1900:	2928      	cmp	r1, #40	; 0x28
    1902:	d101      	bne.n	1908 <alloc_minmax+0x28>
    1904:	f7ff fbec 	bl	10e0 <swap_allocator>
    1908:	f7fe feef 	bl	6ea <make_tos_changeable>
    190c:	f7fe fec2 	bl	694 <expect_nos_in_register>
    1910:	00c9      	lsls	r1, r1, #3
    1912:	6802      	ldr	r2, [r0, #0]
    1914:	3f04      	subs	r7, #4
    1916:	603e      	str	r6, [r7, #0]
    1918:	4e09      	ldr	r6, [pc, #36]	; (1940 <alloc_minmax+0x60>)
    191a:	430e      	orrs	r6, r1
    191c:	4316      	orrs	r6, r2
    191e:	f001 fdce 	bl	34be <Code_829>
    1922:	f001 fdcc 	bl	34be <Code_829>
    1926:	3f04      	subs	r7, #4
    1928:	603e      	str	r6, [r7, #0]
    192a:	4e0e      	ldr	r6, [pc, #56]	; (1964 <alloc_minmax+0x84>)
    192c:	430e      	orrs	r6, r1
    192e:	4316      	orrs	r6, r2
    1930:	f001 fdc5 	bl	34be <Code_829>
    1934:	f7fe fd63 	bl	3fe <eliminiere_nos>
    1938:	bd00      	pop	{pc}
    193a:	28000000 	stmdacs	r0, {}	; <UNPREDICTABLE>
    193e:	42800000 	addmi	r0, r0, #0
    1942:	00280000 	eoreq	r0, r8, r0
    1946:	41801000 	orrmi	r1, r0, r0
    194a:	20000000 	andcs	r0, r0, r0
    194e:	e0000000 	and	r0, r0, r0
    1952:	db000000 	blle	195a <alloc_minmax+0x7a>
    1956:	dc000000 	stcle	0, cr0, [r0], {0}
    195a:	d8000000 	stmdale	r0, {}	; <UNPREDICTABLE>
    195e:	d3000000 	movwle	r0, #0
    1962:	46000000 	strmi	r0, [r0], -r0
	...

00001968 <Dictionary_368>:
    1968:	000019a8 	andeq	r1, r0, r8, lsr #19
    196c:	6d040000 	stcvs	0, cr0, [r4]
    1970:	0065766f 	rsbeq	r7, r5, pc, ror #12

00001974 <Code_368>:
    1974:	b507      	push	{r0, r1, r2, lr}
    1976:	0031      	movs	r1, r6
    1978:	cf40      	ldmia	r7!, {r6}
    197a:	0032      	movs	r2, r6
    197c:	cf40      	ldmia	r7!, {r6}
    197e:	2900      	cmp	r1, #0
    1980:	d00f      	beq.n	19a2 <Code_368+0x2e>
    1982:	42b2      	cmp	r2, r6
    1984:	d00d      	beq.n	19a2 <Code_368+0x2e>
    1986:	d306      	bcc.n	1996 <Code_368+0x22>
    1988:	3e01      	subs	r6, #1
    198a:	3a01      	subs	r2, #1
    198c:	5c70      	ldrb	r0, [r6, r1]
    198e:	5450      	strb	r0, [r2, r1]
    1990:	3901      	subs	r1, #1
    1992:	d1fb      	bne.n	198c <Code_368+0x18>
    1994:	e005      	b.n	19a2 <Code_368+0x2e>
    1996:	7830      	ldrb	r0, [r6, #0]
    1998:	7010      	strb	r0, [r2, #0]
    199a:	3601      	adds	r6, #1
    199c:	3201      	adds	r2, #1
    199e:	3901      	subs	r1, #1
    19a0:	d1f9      	bne.n	1996 <Code_368+0x22>
    19a2:	cf40      	ldmia	r7!, {r6}
    19a4:	bd07      	pop	{r0, r1, r2, pc}
    19a6:	46c0      	nop			; (mov r8, r8)

000019a8 <Dictionary_372>:
    19a8:	000019cc 	andeq	r1, r0, ip, asr #19
    19ac:	66040000 	strvs	r0, [r4], -r0
    19b0:	006c6c69 	rsbeq	r6, ip, r9, ror #24

000019b4 <Code_372>:
    19b4:	0030      	movs	r0, r6
    19b6:	cf40      	ldmia	r7!, {r6}
    19b8:	0031      	movs	r1, r6
    19ba:	cf40      	ldmia	r7!, {r6}
    19bc:	2900      	cmp	r1, #0
    19be:	d002      	beq.n	19c6 <Code_372+0x12>
    19c0:	3901      	subs	r1, #1
    19c2:	5470      	strb	r0, [r6, r1]
    19c4:	d1fc      	bne.n	19c0 <Code_372+0xc>
    19c6:	cf40      	ldmia	r7!, {r6}
    19c8:	4770      	bx	lr
    19ca:	46c0      	nop			; (mov r8, r8)

000019cc <Dictionary_376>:
    19cc:	00001a0c 	andeq	r1, r0, ip, lsl #20
    19d0:	40010220 	andmi	r0, r1, r0, lsr #4

000019d4 <Code_376>:
    19d4:	6836      	ldr	r6, [r6, #0]
    19d6:	4770      	bx	lr

000019d8 <allocator_4fetch>:
    19d8:	3f04      	subs	r7, #4
    19da:	603e      	str	r6, [r7, #0]
    19dc:	4e99      	ldr	r6, [pc, #612]	; (1c44 <Code_396+0x2e>)

000019de <allocator_4fetch_anderer_opcode>:
    19de:	b500      	push	{lr}
    19e0:	f7fe fe0f 	bl	602 <expect_one_element>
    19e4:	6803      	ldr	r3, [r0, #0]
    19e6:	2b28      	cmp	r3, #40	; 0x28
    19e8:	d108      	bne.n	19fc <allocator_4fetch_anderer_opcode+0x1e>
    19ea:	6843      	ldr	r3, [r0, #4]
    19ec:	217c      	movs	r1, #124	; 0x7c
    19ee:	4019      	ands	r1, r3
    19f0:	0109      	lsls	r1, r1, #4
    19f2:	430e      	orrs	r6, r1
    19f4:	217c      	movs	r1, #124	; 0x7c
    19f6:	438b      	bics	r3, r1
    19f8:	f7fe fd87 	bl	50a <generiere_adresskonstante>
    19fc:	00db      	lsls	r3, r3, #3
    19fe:	431e      	orrs	r6, r3
    1a00:	f7fe fe8c 	bl	71c <tos_registerwechsel>
    1a04:	431e      	orrs	r6, r3
    1a06:	f001 fd5a 	bl	34be <Code_829>
    1a0a:	bd00      	pop	{pc}

00001a0c <Dictionary_379>:
    1a0c:	00001a64 	andeq	r1, r0, r4, ror #20
    1a10:	21010220 	tstcs	r1, r0, lsr #4

00001a14 <Code_379>:
    1a14:	cf03      	ldmia	r7!, {r0, r1}
    1a16:	6030      	str	r0, [r6, #0]
    1a18:	000e      	movs	r6, r1
    1a1a:	4770      	bx	lr

00001a1c <allocator_4store>:
    1a1c:	3f04      	subs	r7, #4
    1a1e:	603e      	str	r6, [r7, #0]
    1a20:	4e89      	ldr	r6, [pc, #548]	; (1c48 <Code_396+0x32>)

00001a22 <allocator_4store_anderer_opcode>:
    1a22:	b500      	push	{lr}
    1a24:	f7fe fdf7 	bl	616 <expect_two_elements>
    1a28:	6803      	ldr	r3, [r0, #0]
    1a2a:	2b28      	cmp	r3, #40	; 0x28
    1a2c:	d109      	bne.n	1a42 <allocator_4store_anderer_opcode+0x20>
    1a2e:	6843      	ldr	r3, [r0, #4]
    1a30:	217c      	movs	r1, #124	; 0x7c
    1a32:	4019      	ands	r1, r3
    1a34:	0109      	lsls	r1, r1, #4
    1a36:	430e      	orrs	r6, r1
    1a38:	217c      	movs	r1, #124	; 0x7c
    1a3a:	438b      	bics	r3, r1
    1a3c:	f7fe fd65 	bl	50a <generiere_adresskonstante>
    1a40:	6003      	str	r3, [r0, #0]
    1a42:	00db      	lsls	r3, r3, #3
    1a44:	431e      	orrs	r6, r3
    1a46:	6883      	ldr	r3, [r0, #8]
    1a48:	2b28      	cmp	r3, #40	; 0x28
    1a4a:	d102      	bne.n	1a52 <allocator_4store_anderer_opcode+0x30>
    1a4c:	68c3      	ldr	r3, [r0, #12]
    1a4e:	f7fe fd50 	bl	4f2 <generiere_konstante>
    1a52:	431e      	orrs	r6, r3
    1a54:	f001 fd33 	bl	34be <Code_829>
    1a58:	f7fe fccb 	bl	3f2 <eliminiere_tos>
    1a5c:	f7fe fcc9 	bl	3f2 <eliminiere_tos>
    1a60:	bd00      	pop	{pc}
    1a62:	46c0      	nop			; (mov r8, r8)

00001a64 <Dictionary_382>:
    1a64:	00001a9c 	muleq	r0, ip, sl
    1a68:	2b020220 	blcs	822f0 <BIT19+0x22f0>
    1a6c:	cf030021 	svcgt	0x00030021

00001a6e <Code_382>:
    1a6e:	cf03      	ldmia	r7!, {r0, r1}
    1a70:	6832      	ldr	r2, [r6, #0]
    1a72:	1812      	adds	r2, r2, r0
    1a74:	6032      	str	r2, [r6, #0]
    1a76:	000e      	movs	r6, r1
    1a78:	4770      	bx	lr
    1a7a:	b500      	push	{lr}
    1a7c:	f7fe fdcb 	bl	616 <expect_two_elements>
    1a80:	f7ff faf8 	bl	1074 <dup_allocator>
    1a84:	f7ff ffa8 	bl	19d8 <allocator_4fetch>
    1a88:	f7ff fb7f 	bl	118a <rot_allocator>
    1a8c:	f000 fbcd 	bl	222a <plus_allocator>
    1a90:	f7ff fb26 	bl	10e0 <swap_allocator>
    1a94:	f7ff ffc2 	bl	1a1c <allocator_4store>
    1a98:	bd00      	pop	{pc}
    1a9a:	46c0      	nop			; (mov r8, r8)

00001a9c <Dictionary_383>:
    1a9c:	00001ae0 	andeq	r1, r0, r0, ror #21
    1aa0:	68020220 	stmdavs	r2, {r5, r9}
    1aa4:	88360040 	ldmdahi	r6!, {r6}

00001aa6 <Code_383>:
    1aa6:	8836      	ldrh	r6, [r6, #0]
    1aa8:	4770      	bx	lr

00001aaa <allocator_2fetch>:
    1aaa:	b500      	push	{lr}
    1aac:	f7fe fda9 	bl	602 <expect_one_element>
    1ab0:	3f04      	subs	r7, #4
    1ab2:	603e      	str	r6, [r7, #0]
    1ab4:	4e65      	ldr	r6, [pc, #404]	; (1c4c <Code_396+0x36>)
    1ab6:	6803      	ldr	r3, [r0, #0]
    1ab8:	2b28      	cmp	r3, #40	; 0x28
    1aba:	d108      	bne.n	1ace <allocator_2fetch+0x24>
    1abc:	6843      	ldr	r3, [r0, #4]
    1abe:	213e      	movs	r1, #62	; 0x3e
    1ac0:	4019      	ands	r1, r3
    1ac2:	0149      	lsls	r1, r1, #5
    1ac4:	430e      	orrs	r6, r1
    1ac6:	213e      	movs	r1, #62	; 0x3e
    1ac8:	438b      	bics	r3, r1
    1aca:	f7fe fd1e 	bl	50a <generiere_adresskonstante>
    1ace:	00db      	lsls	r3, r3, #3
    1ad0:	431e      	orrs	r6, r3
    1ad2:	f7fe fe23 	bl	71c <tos_registerwechsel>
    1ad6:	431e      	orrs	r6, r3
    1ad8:	f001 fcf1 	bl	34be <Code_829>
    1adc:	bd00      	pop	{pc}
    1ade:	46c0      	nop			; (mov r8, r8)

00001ae0 <Dictionary_386>:
    1ae0:	00001b38 	andeq	r1, r0, r8, lsr fp
    1ae4:	68020220 	stmdavs	r2, {r5, r9}
    1ae8:	cf030021 	svcgt	0x00030021

00001aea <Code_386>:
    1aea:	cf03      	ldmia	r7!, {r0, r1}
    1aec:	8030      	strh	r0, [r6, #0]
    1aee:	000e      	movs	r6, r1
    1af0:	4770      	bx	lr

00001af2 <allocator_2store>:
    1af2:	b500      	push	{lr}
    1af4:	f7fe fd8f 	bl	616 <expect_two_elements>
    1af8:	3f04      	subs	r7, #4
    1afa:	603e      	str	r6, [r7, #0]
    1afc:	4e54      	ldr	r6, [pc, #336]	; (1c50 <Code_396+0x3a>)
    1afe:	6803      	ldr	r3, [r0, #0]
    1b00:	2b28      	cmp	r3, #40	; 0x28
    1b02:	d109      	bne.n	1b18 <allocator_2store+0x26>
    1b04:	6843      	ldr	r3, [r0, #4]
    1b06:	213e      	movs	r1, #62	; 0x3e
    1b08:	4019      	ands	r1, r3
    1b0a:	0149      	lsls	r1, r1, #5
    1b0c:	430e      	orrs	r6, r1
    1b0e:	213e      	movs	r1, #62	; 0x3e
    1b10:	438b      	bics	r3, r1
    1b12:	f7fe fcfa 	bl	50a <generiere_adresskonstante>
    1b16:	6003      	str	r3, [r0, #0]
    1b18:	00db      	lsls	r3, r3, #3
    1b1a:	431e      	orrs	r6, r3
    1b1c:	6883      	ldr	r3, [r0, #8]
    1b1e:	2b28      	cmp	r3, #40	; 0x28
    1b20:	d102      	bne.n	1b28 <allocator_2store+0x36>
    1b22:	68c3      	ldr	r3, [r0, #12]
    1b24:	f7fe fce5 	bl	4f2 <generiere_konstante>
    1b28:	431e      	orrs	r6, r3
    1b2a:	f001 fcc8 	bl	34be <Code_829>
    1b2e:	f7fe fc60 	bl	3f2 <eliminiere_tos>
    1b32:	f7fe fc5e 	bl	3f2 <eliminiere_tos>
    1b36:	bd00      	pop	{pc}

00001b38 <Dictionary_389>:
    1b38:	00001b70 	andeq	r1, r0, r0, ror fp
    1b3c:	68030220 	stmdavs	r3, {r5, r9}
    1b40:	cf03212b 	svcgt	0x0003212b

00001b42 <Code_389>:
    1b42:	cf03      	ldmia	r7!, {r0, r1}
    1b44:	8832      	ldrh	r2, [r6, #0]
    1b46:	1812      	adds	r2, r2, r0
    1b48:	8032      	strh	r2, [r6, #0]
    1b4a:	000e      	movs	r6, r1
    1b4c:	4770      	bx	lr
    1b4e:	b500      	push	{lr}
    1b50:	f7fe fd61 	bl	616 <expect_two_elements>
    1b54:	f7ff fa8e 	bl	1074 <dup_allocator>
    1b58:	f7ff ffa7 	bl	1aaa <allocator_2fetch>
    1b5c:	f7ff fb15 	bl	118a <rot_allocator>
    1b60:	f000 fb63 	bl	222a <plus_allocator>
    1b64:	f7ff fabc 	bl	10e0 <swap_allocator>
    1b68:	f7ff ffc3 	bl	1af2 <allocator_2store>
    1b6c:	bd00      	pop	{pc}
    1b6e:	46c0      	nop			; (mov r8, r8)

00001b70 <Dictionary_390>:
    1b70:	00001bb4 			; <UNDEFINED> instruction: 0x00001bb4
    1b74:	63020220 	movwvs	r0, #8736	; 0x2220
    1b78:	78360040 	ldmdavc	r6!, {r6}

00001b7a <Code_390>:
    1b7a:	7836      	ldrb	r6, [r6, #0]
    1b7c:	4770      	bx	lr

00001b7e <allocator_1fetch>:
    1b7e:	b500      	push	{lr}
    1b80:	f7fe fd3f 	bl	602 <expect_one_element>
    1b84:	3f04      	subs	r7, #4
    1b86:	603e      	str	r6, [r7, #0]
    1b88:	4e32      	ldr	r6, [pc, #200]	; (1c54 <Code_396+0x3e>)
    1b8a:	6803      	ldr	r3, [r0, #0]
    1b8c:	2b28      	cmp	r3, #40	; 0x28
    1b8e:	d108      	bne.n	1ba2 <allocator_1fetch+0x24>
    1b90:	6843      	ldr	r3, [r0, #4]
    1b92:	211f      	movs	r1, #31
    1b94:	4019      	ands	r1, r3
    1b96:	0189      	lsls	r1, r1, #6
    1b98:	430e      	orrs	r6, r1
    1b9a:	211f      	movs	r1, #31
    1b9c:	438b      	bics	r3, r1
    1b9e:	f7fe fcb4 	bl	50a <generiere_adresskonstante>
    1ba2:	00db      	lsls	r3, r3, #3
    1ba4:	431e      	orrs	r6, r3
    1ba6:	f7fe fdb9 	bl	71c <tos_registerwechsel>
    1baa:	431e      	orrs	r6, r3
    1bac:	f001 fc87 	bl	34be <Code_829>
    1bb0:	bd00      	pop	{pc}
    1bb2:	46c0      	nop			; (mov r8, r8)

00001bb4 <Dictionary_393>:
    1bb4:	00001c0c 	andeq	r1, r0, ip, lsl #24
    1bb8:	63020220 	movwvs	r0, #8736	; 0x2220
    1bbc:	cf030021 	svcgt	0x00030021

00001bbe <Code_393>:
    1bbe:	cf03      	ldmia	r7!, {r0, r1}
    1bc0:	7030      	strb	r0, [r6, #0]
    1bc2:	000e      	movs	r6, r1
    1bc4:	4770      	bx	lr

00001bc6 <allocator_1store>:
    1bc6:	b500      	push	{lr}
    1bc8:	f7fe fd25 	bl	616 <expect_two_elements>
    1bcc:	3f04      	subs	r7, #4
    1bce:	603e      	str	r6, [r7, #0]
    1bd0:	4e21      	ldr	r6, [pc, #132]	; (1c58 <Code_396+0x42>)
    1bd2:	6803      	ldr	r3, [r0, #0]
    1bd4:	2b28      	cmp	r3, #40	; 0x28
    1bd6:	d109      	bne.n	1bec <allocator_1store+0x26>
    1bd8:	6843      	ldr	r3, [r0, #4]
    1bda:	211f      	movs	r1, #31
    1bdc:	4019      	ands	r1, r3
    1bde:	0189      	lsls	r1, r1, #6
    1be0:	430e      	orrs	r6, r1
    1be2:	211f      	movs	r1, #31
    1be4:	438b      	bics	r3, r1
    1be6:	f7fe fc90 	bl	50a <generiere_adresskonstante>
    1bea:	6003      	str	r3, [r0, #0]
    1bec:	00db      	lsls	r3, r3, #3
    1bee:	431e      	orrs	r6, r3
    1bf0:	6883      	ldr	r3, [r0, #8]
    1bf2:	2b28      	cmp	r3, #40	; 0x28
    1bf4:	d102      	bne.n	1bfc <allocator_1store+0x36>
    1bf6:	68c3      	ldr	r3, [r0, #12]
    1bf8:	f7fe fc7b 	bl	4f2 <generiere_konstante>
    1bfc:	431e      	orrs	r6, r3
    1bfe:	f001 fc5e 	bl	34be <Code_829>
    1c02:	f7fe fbf6 	bl	3f2 <eliminiere_tos>
    1c06:	f7fe fbf4 	bl	3f2 <eliminiere_tos>
    1c0a:	bd00      	pop	{pc}

00001c0c <Dictionary_396>:
    1c0c:	00001c5c 	andeq	r1, r0, ip, asr ip
    1c10:	63030220 	movwvs	r0, #12832	; 0x3220
    1c14:	cf03212b 	svcgt	0x0003212b

00001c16 <Code_396>:
    1c16:	cf03      	ldmia	r7!, {r0, r1}
    1c18:	7832      	ldrb	r2, [r6, #0]
    1c1a:	1812      	adds	r2, r2, r0
    1c1c:	7032      	strb	r2, [r6, #0]
    1c1e:	000e      	movs	r6, r1
    1c20:	4770      	bx	lr
    1c22:	b500      	push	{lr}
    1c24:	f7fe fcf7 	bl	616 <expect_two_elements>
    1c28:	f7ff fa24 	bl	1074 <dup_allocator>
    1c2c:	f7ff ffa7 	bl	1b7e <allocator_1fetch>
    1c30:	f7ff faab 	bl	118a <rot_allocator>
    1c34:	f000 faf9 	bl	222a <plus_allocator>
    1c38:	f7ff fa52 	bl	10e0 <swap_allocator>
    1c3c:	f7ff ffc3 	bl	1bc6 <allocator_1store>
    1c40:	bd00      	pop	{pc}
    1c42:	68000000 	stmdavs	r0, {}	; <UNPREDICTABLE>
    1c46:	60000000 	andvs	r0, r0, r0
    1c4a:	88000000 	stmdahi	r0, {}	; <UNPREDICTABLE>
    1c4e:	80000000 	andhi	r0, r0, r0
    1c52:	78000000 	stmdavc	r0, {}	; <UNPREDICTABLE>
    1c56:	70000000 	andvc	r0, r0, r0
	...

00001c5c <Dictionary_397>:
    1c5c:	00001c9c 	muleq	r0, ip, ip
    1c60:	62040220 	andvs	r0, r4, #2
    1c64:	00217369 	eoreq	r7, r1, r9, ror #6

00001c68 <Code_397>:
    1c68:	cf03      	ldmia	r7!, {r0, r1}
    1c6a:	6832      	ldr	r2, [r6, #0]
    1c6c:	4302      	orrs	r2, r0
    1c6e:	6032      	str	r2, [r6, #0]
    1c70:	000e      	movs	r6, r1
    1c72:	4770      	bx	lr
    1c74:	b500      	push	{lr}
    1c76:	f7fe fcce 	bl	616 <expect_two_elements>
    1c7a:	f7ff f9fb 	bl	1074 <dup_allocator>
    1c7e:	f7ff feab 	bl	19d8 <allocator_4fetch>
    1c82:	f7ff fa82 	bl	118a <rot_allocator>
    1c86:	3f04      	subs	r7, #4
    1c88:	603e      	str	r6, [r7, #0]
    1c8a:	4eab      	ldr	r6, [pc, #684]	; (1f38 <Code_430+0x28>)
    1c8c:	f7ff fc27 	bl	14de <alloc_kommutativ>
    1c90:	f7ff fa26 	bl	10e0 <swap_allocator>
    1c94:	f7ff fec2 	bl	1a1c <allocator_4store>
    1c98:	bd00      	pop	{pc}
    1c9a:	46c0      	nop			; (mov r8, r8)

00001c9c <Dictionary_400>:
    1c9c:	00001cdc 	ldrdeq	r1, [r0], -ip
    1ca0:	62040220 	andvs	r0, r4, #2
    1ca4:	00216369 	eoreq	r6, r1, r9, ror #6

00001ca8 <Code_400>:
    1ca8:	cf03      	ldmia	r7!, {r0, r1}
    1caa:	6832      	ldr	r2, [r6, #0]
    1cac:	4382      	bics	r2, r0
    1cae:	6032      	str	r2, [r6, #0]
    1cb0:	000e      	movs	r6, r1
    1cb2:	4770      	bx	lr
    1cb4:	b500      	push	{lr}
    1cb6:	f7fe fcae 	bl	616 <expect_two_elements>
    1cba:	f7ff f9db 	bl	1074 <dup_allocator>
    1cbe:	f7ff fe8b 	bl	19d8 <allocator_4fetch>
    1cc2:	f7ff fa62 	bl	118a <rot_allocator>
    1cc6:	3f04      	subs	r7, #4
    1cc8:	603e      	str	r6, [r7, #0]
    1cca:	4e9c      	ldr	r6, [pc, #624]	; (1f3c <Code_430+0x2c>)
    1ccc:	f7ff fc03 	bl	14d6 <alloc_unkommutativ>
    1cd0:	f7ff fa06 	bl	10e0 <swap_allocator>
    1cd4:	f7ff fea2 	bl	1a1c <allocator_4store>
    1cd8:	bd00      	pop	{pc}
    1cda:	46c0      	nop			; (mov r8, r8)

00001cdc <Dictionary_403>:
    1cdc:	00001d1c 	andeq	r1, r0, ip, lsl sp
    1ce0:	78040220 	stmdavc	r4, {r5, r9}
    1ce4:	0021726f 	eoreq	r7, r1, pc, ror #4

00001ce8 <Code_403>:
    1ce8:	cf03      	ldmia	r7!, {r0, r1}
    1cea:	6832      	ldr	r2, [r6, #0]
    1cec:	4042      	eors	r2, r0
    1cee:	6032      	str	r2, [r6, #0]
    1cf0:	000e      	movs	r6, r1
    1cf2:	4770      	bx	lr
    1cf4:	b500      	push	{lr}
    1cf6:	f7fe fc8e 	bl	616 <expect_two_elements>
    1cfa:	f7ff f9bb 	bl	1074 <dup_allocator>
    1cfe:	f7ff fe6b 	bl	19d8 <allocator_4fetch>
    1d02:	f7ff fa42 	bl	118a <rot_allocator>
    1d06:	3f04      	subs	r7, #4
    1d08:	603e      	str	r6, [r7, #0]
    1d0a:	4e8d      	ldr	r6, [pc, #564]	; (1f40 <Code_430+0x30>)
    1d0c:	f7ff fbe7 	bl	14de <alloc_kommutativ>
    1d10:	f7ff f9e6 	bl	10e0 <swap_allocator>
    1d14:	f7ff fe82 	bl	1a1c <allocator_4store>
    1d18:	bd00      	pop	{pc}
    1d1a:	46c0      	nop			; (mov r8, r8)

00001d1c <Dictionary_406>:
    1d1c:	00001d50 	andeq	r1, r0, r0, asr sp
    1d20:	62040220 	andvs	r0, r4, #2
    1d24:	00407469 	subeq	r7, r0, r9, ror #8

00001d28 <Code_406>:
    1d28:	cf01      	ldmia	r7!, {r0}
    1d2a:	6836      	ldr	r6, [r6, #0]
    1d2c:	4006      	ands	r6, r0
    1d2e:	3e01      	subs	r6, #1
    1d30:	41b6      	sbcs	r6, r6
    1d32:	43f6      	mvns	r6, r6
    1d34:	4770      	bx	lr
    1d36:	b500      	push	{lr}
    1d38:	f7fe fc6d 	bl	616 <expect_two_elements>
    1d3c:	f7ff fe4c 	bl	19d8 <allocator_4fetch>
    1d40:	3f04      	subs	r7, #4
    1d42:	603e      	str	r6, [r7, #0]
    1d44:	4e7f      	ldr	r6, [pc, #508]	; (1f44 <Code_430+0x34>)
    1d46:	f7ff fbca 	bl	14de <alloc_kommutativ>
    1d4a:	f7ff fc16 	bl	157a <allocator_unequal_zero>
    1d4e:	bd00      	pop	{pc}

00001d50 <Dictionary_409>:
    1d50:	00001d90 	muleq	r0, r0, sp
    1d54:	68050220 	stmdavs	r5, {r5, r9}
    1d58:	21736962 	cmncs	r3, r2, ror #18

00001d5c <Code_409>:
    1d5c:	cf03      	ldmia	r7!, {r0, r1}
    1d5e:	8832      	ldrh	r2, [r6, #0]
    1d60:	4302      	orrs	r2, r0
    1d62:	8032      	strh	r2, [r6, #0]
    1d64:	000e      	movs	r6, r1
    1d66:	4770      	bx	lr
    1d68:	b500      	push	{lr}
    1d6a:	f7fe fc54 	bl	616 <expect_two_elements>
    1d6e:	f7ff f981 	bl	1074 <dup_allocator>
    1d72:	f7ff fe9a 	bl	1aaa <allocator_2fetch>
    1d76:	f7ff fa08 	bl	118a <rot_allocator>
    1d7a:	3f04      	subs	r7, #4
    1d7c:	603e      	str	r6, [r7, #0]
    1d7e:	4e6e      	ldr	r6, [pc, #440]	; (1f38 <Code_430+0x28>)
    1d80:	f7ff fbad 	bl	14de <alloc_kommutativ>
    1d84:	f7ff f9ac 	bl	10e0 <swap_allocator>
    1d88:	f7ff feb3 	bl	1af2 <allocator_2store>
    1d8c:	bd00      	pop	{pc}
    1d8e:	46c0      	nop			; (mov r8, r8)

00001d90 <Dictionary_412>:
    1d90:	00001dd0 	ldrdeq	r1, [r0], -r0
    1d94:	68050220 	stmdavs	r5, {r5, r9}
    1d98:	21636962 	cmncs	r3, r2, ror #18

00001d9c <Code_412>:
    1d9c:	cf03      	ldmia	r7!, {r0, r1}
    1d9e:	8832      	ldrh	r2, [r6, #0]
    1da0:	4382      	bics	r2, r0
    1da2:	8032      	strh	r2, [r6, #0]
    1da4:	000e      	movs	r6, r1
    1da6:	4770      	bx	lr
    1da8:	b500      	push	{lr}
    1daa:	f7fe fc34 	bl	616 <expect_two_elements>
    1dae:	f7ff f961 	bl	1074 <dup_allocator>
    1db2:	f7ff fe7a 	bl	1aaa <allocator_2fetch>
    1db6:	f7ff f9e8 	bl	118a <rot_allocator>
    1dba:	3f04      	subs	r7, #4
    1dbc:	603e      	str	r6, [r7, #0]
    1dbe:	4e5f      	ldr	r6, [pc, #380]	; (1f3c <Code_430+0x2c>)
    1dc0:	f7ff fb89 	bl	14d6 <alloc_unkommutativ>
    1dc4:	f7ff f98c 	bl	10e0 <swap_allocator>
    1dc8:	f7ff fe93 	bl	1af2 <allocator_2store>
    1dcc:	bd00      	pop	{pc}
    1dce:	46c0      	nop			; (mov r8, r8)

00001dd0 <Dictionary_415>:
    1dd0:	00001e10 	andeq	r1, r0, r0, lsl lr
    1dd4:	68050220 	stmdavs	r5, {r5, r9}
    1dd8:	21726f78 	cmncs	r2, r8, ror pc

00001ddc <Code_415>:
    1ddc:	cf03      	ldmia	r7!, {r0, r1}
    1dde:	8832      	ldrh	r2, [r6, #0]
    1de0:	4042      	eors	r2, r0
    1de2:	8032      	strh	r2, [r6, #0]
    1de4:	000e      	movs	r6, r1
    1de6:	4770      	bx	lr
    1de8:	b500      	push	{lr}
    1dea:	f7fe fc14 	bl	616 <expect_two_elements>
    1dee:	f7ff f941 	bl	1074 <dup_allocator>
    1df2:	f7ff fe5a 	bl	1aaa <allocator_2fetch>
    1df6:	f7ff f9c8 	bl	118a <rot_allocator>
    1dfa:	3f04      	subs	r7, #4
    1dfc:	603e      	str	r6, [r7, #0]
    1dfe:	4e50      	ldr	r6, [pc, #320]	; (1f40 <Code_430+0x30>)
    1e00:	f7ff fb6d 	bl	14de <alloc_kommutativ>
    1e04:	f7ff f96c 	bl	10e0 <swap_allocator>
    1e08:	f7ff fe73 	bl	1af2 <allocator_2store>
    1e0c:	bd00      	pop	{pc}
    1e0e:	46c0      	nop			; (mov r8, r8)

00001e10 <Dictionary_418>:
    1e10:	00001e44 	andeq	r1, r0, r4, asr #28
    1e14:	68050220 	stmdavs	r5, {r5, r9}
    1e18:	40746962 	rsbsmi	r6, r4, r2, ror #18

00001e1c <Code_418>:
    1e1c:	cf01      	ldmia	r7!, {r0}
    1e1e:	8836      	ldrh	r6, [r6, #0]
    1e20:	4006      	ands	r6, r0
    1e22:	3e01      	subs	r6, #1
    1e24:	41b6      	sbcs	r6, r6
    1e26:	43f6      	mvns	r6, r6
    1e28:	4770      	bx	lr
    1e2a:	b500      	push	{lr}
    1e2c:	f7fe fbf3 	bl	616 <expect_two_elements>
    1e30:	f7ff fe3b 	bl	1aaa <allocator_2fetch>
    1e34:	3f04      	subs	r7, #4
    1e36:	603e      	str	r6, [r7, #0]
    1e38:	4e42      	ldr	r6, [pc, #264]	; (1f44 <Code_430+0x34>)
    1e3a:	f7ff fb50 	bl	14de <alloc_kommutativ>
    1e3e:	f7ff fb9c 	bl	157a <allocator_unequal_zero>
    1e42:	bd00      	pop	{pc}

00001e44 <Dictionary_421>:
    1e44:	00001e84 	andeq	r1, r0, r4, lsl #29
    1e48:	63050220 	movwvs	r0, #21024	; 0x5220
    1e4c:	21736962 	cmncs	r3, r2, ror #18

00001e50 <Code_421>:
    1e50:	cf03      	ldmia	r7!, {r0, r1}
    1e52:	7832      	ldrb	r2, [r6, #0]
    1e54:	4302      	orrs	r2, r0
    1e56:	7032      	strb	r2, [r6, #0]
    1e58:	000e      	movs	r6, r1
    1e5a:	4770      	bx	lr
    1e5c:	b500      	push	{lr}
    1e5e:	f7fe fbda 	bl	616 <expect_two_elements>
    1e62:	f7ff f907 	bl	1074 <dup_allocator>
    1e66:	f7ff fe8a 	bl	1b7e <allocator_1fetch>
    1e6a:	f7ff f98e 	bl	118a <rot_allocator>
    1e6e:	3f04      	subs	r7, #4
    1e70:	603e      	str	r6, [r7, #0]
    1e72:	4e31      	ldr	r6, [pc, #196]	; (1f38 <Code_430+0x28>)
    1e74:	f7ff fb33 	bl	14de <alloc_kommutativ>
    1e78:	f7ff f932 	bl	10e0 <swap_allocator>
    1e7c:	f7ff fea3 	bl	1bc6 <allocator_1store>
    1e80:	bd00      	pop	{pc}
    1e82:	46c0      	nop			; (mov r8, r8)

00001e84 <Dictionary_424>:
    1e84:	00001ec4 	andeq	r1, r0, r4, asr #29
    1e88:	63050220 	movwvs	r0, #21024	; 0x5220
    1e8c:	21636962 	cmncs	r3, r2, ror #18

00001e90 <Code_424>:
    1e90:	cf03      	ldmia	r7!, {r0, r1}
    1e92:	7832      	ldrb	r2, [r6, #0]
    1e94:	4382      	bics	r2, r0
    1e96:	7032      	strb	r2, [r6, #0]
    1e98:	000e      	movs	r6, r1
    1e9a:	4770      	bx	lr
    1e9c:	b500      	push	{lr}
    1e9e:	f7fe fbba 	bl	616 <expect_two_elements>
    1ea2:	f7ff f8e7 	bl	1074 <dup_allocator>
    1ea6:	f7ff fe6a 	bl	1b7e <allocator_1fetch>
    1eaa:	f7ff f96e 	bl	118a <rot_allocator>
    1eae:	3f04      	subs	r7, #4
    1eb0:	603e      	str	r6, [r7, #0]
    1eb2:	4e22      	ldr	r6, [pc, #136]	; (1f3c <Code_430+0x2c>)
    1eb4:	f7ff fb0f 	bl	14d6 <alloc_unkommutativ>
    1eb8:	f7ff f912 	bl	10e0 <swap_allocator>
    1ebc:	f7ff fe83 	bl	1bc6 <allocator_1store>
    1ec0:	bd00      	pop	{pc}
    1ec2:	46c0      	nop			; (mov r8, r8)

00001ec4 <Dictionary_427>:
    1ec4:	00001f04 	andeq	r1, r0, r4, lsl #30
    1ec8:	63050220 	movwvs	r0, #21024	; 0x5220
    1ecc:	21726f78 	cmncs	r2, r8, ror pc

00001ed0 <Code_427>:
    1ed0:	cf03      	ldmia	r7!, {r0, r1}
    1ed2:	7832      	ldrb	r2, [r6, #0]
    1ed4:	4042      	eors	r2, r0
    1ed6:	7032      	strb	r2, [r6, #0]
    1ed8:	000e      	movs	r6, r1
    1eda:	4770      	bx	lr
    1edc:	b500      	push	{lr}
    1ede:	f7fe fb9a 	bl	616 <expect_two_elements>
    1ee2:	f7ff f8c7 	bl	1074 <dup_allocator>
    1ee6:	f7ff fe4a 	bl	1b7e <allocator_1fetch>
    1eea:	f7ff f94e 	bl	118a <rot_allocator>
    1eee:	3f04      	subs	r7, #4
    1ef0:	603e      	str	r6, [r7, #0]
    1ef2:	4e13      	ldr	r6, [pc, #76]	; (1f40 <Code_430+0x30>)
    1ef4:	f7ff faf3 	bl	14de <alloc_kommutativ>
    1ef8:	f7ff f8f2 	bl	10e0 <swap_allocator>
    1efc:	f7ff fe63 	bl	1bc6 <allocator_1store>
    1f00:	bd00      	pop	{pc}
    1f02:	46c0      	nop			; (mov r8, r8)

00001f04 <Dictionary_430>:
    1f04:	00001f48 	andeq	r1, r0, r8, asr #30
    1f08:	63050220 	movwvs	r0, #21024	; 0x5220
    1f0c:	40746962 	rsbsmi	r6, r4, r2, ror #18

00001f10 <Code_430>:
    1f10:	cf01      	ldmia	r7!, {r0}
    1f12:	7836      	ldrb	r6, [r6, #0]
    1f14:	4006      	ands	r6, r0
    1f16:	3e01      	subs	r6, #1
    1f18:	41b6      	sbcs	r6, r6
    1f1a:	43f6      	mvns	r6, r6
    1f1c:	4770      	bx	lr
    1f1e:	b500      	push	{lr}
    1f20:	f7fe fb79 	bl	616 <expect_two_elements>
    1f24:	f7ff fe2b 	bl	1b7e <allocator_1fetch>
    1f28:	3f04      	subs	r7, #4
    1f2a:	603e      	str	r6, [r7, #0]
    1f2c:	4e05      	ldr	r6, [pc, #20]	; (1f44 <Code_430+0x34>)
    1f2e:	f7ff fad6 	bl	14de <alloc_kommutativ>
    1f32:	f7ff fb22 	bl	157a <allocator_unequal_zero>
    1f36:	bd00      	pop	{pc}
    1f38:	00004300 	andeq	r4, r0, r0, lsl #6
    1f3c:	00004380 	andeq	r4, r0, r0, lsl #7
    1f40:	00004040 	andeq	r4, r0, r0, asr #32
    1f44:	00004000 	andeq	r4, r0, r0

00001f48 <Dictionary_433>:
    1f48:	00001f8c 	andeq	r1, r0, ip, lsl #31
    1f4c:	66090081 	strvs	r0, [r9], -r1, lsl #1
    1f50:	6873616c 	ldmdavs	r3!, {r2, r3, r5, r6, r8, sp, lr}^
    1f54:	7a686b2d 	bvc	1a1cc10 <BIT24+0xa1cc10>

00001f58 <Code_433>:
    1f58:	3f04      	subs	r7, #4
    1f5a:	603e      	str	r6, [r7, #0]
    1f5c:	4e4f      	ldr	r6, [pc, #316]	; (209c <erasesectors+0x1e>)
    1f5e:	4770      	bx	lr
    1f60:	00002ee0 	andeq	r2, r0, r0, ror #29

00001f64 <hexflashstore_fehler>:
    1f64:	f000 fd86 	bl	2a74 <dotgaensefuesschen>
    1f68:	616c461e 	cmnvs	ip, lr, lsl r6
    1f6c:	63206873 	teqvs	r0, #7536640	; 0x730000
    1f70:	6f6e6e61 	svcvs	0x006e6e61
    1f74:	65622074 	strbvs	r2, [r2, #-116]!	; 0x74
    1f78:	69727720 	ldmdbvs	r2!, {r5, r8, r9, sl, ip, sp, lr}^
    1f7c:	6e657474 	mcrvs	4, 3, r7, cr5, cr4, {3}
    1f80:	69777420 	ldmdbvs	r7!, {r5, sl, ip, sp, lr}^
    1f84:	000a6563 	andeq	r6, sl, r3, ror #10
    1f88:	f002 fd18 	bl	49bc <Code_1240>

00001f8c <Dictionary_437>:
    1f8c:	00002038 	andeq	r2, r0, r8, lsr r0
    1f90:	31080000 	mrscc	r0, (UNDEF: 8)
    1f94:	616c6636 	cmnvs	ip, r6, lsr r6
    1f98:	00216873 	eoreq	r6, r1, r3, ror r8

00001f9c <Code_437>:
    1f9c:	b53f      	push	{r0, r1, r2, r3, r4, r5, lr}
    1f9e:	200f      	movs	r0, #15
    1fa0:	4030      	ands	r0, r6
    1fa2:	d015      	beq.n	1fd0 <Code_437+0x34>
    1fa4:	f000 fd66 	bl	2a74 <dotgaensefuesschen>
    1fa8:	66363122 	ldrtvs	r3, [r6], -r2, lsr #2
    1fac:	6873616c 	ldmdavs	r3!, {r2, r3, r5, r6, r8, sp, lr}^
    1fb0:	656e2021 	strbvs	r2, [lr, #-33]!	; 0x21
    1fb4:	20736465 	rsbscs	r6, r3, r5, ror #8
    1fb8:	612d3631 	teqvs	sp, r1, lsr r6
    1fbc:	6e67696c 	cdpvs	9, 6, cr6, cr7, cr12, {3}
    1fc0:	61206465 	teqvs	r0, r5, ror #8
    1fc4:	65726464 	ldrbvs	r6, [r2, #-1124]!	; 0x464
    1fc8:	000a7373 	andeq	r7, sl, r3, ror r3
    1fcc:	f002 fcf6 	bl	49bc <Code_1240>
    1fd0:	6830      	ldr	r0, [r6, #0]
    1fd2:	3001      	adds	r0, #1
    1fd4:	d1c6      	bne.n	1f64 <hexflashstore_fehler>
    1fd6:	6870      	ldr	r0, [r6, #4]
    1fd8:	3001      	adds	r0, #1
    1fda:	d1c3      	bne.n	1f64 <hexflashstore_fehler>
    1fdc:	68b0      	ldr	r0, [r6, #8]
    1fde:	3001      	adds	r0, #1
    1fe0:	d1c0      	bne.n	1f64 <hexflashstore_fehler>
    1fe2:	68f0      	ldr	r0, [r6, #12]
    1fe4:	3001      	adds	r0, #1
    1fe6:	d1bd      	bne.n	1f64 <hexflashstore_fehler>
    1fe8:	f000 f846 	bl	2078 <preparesectors>
    1fec:	cf08      	ldmia	r7!, {r3}
    1fee:	cf04      	ldmia	r7!, {r2}
    1ff0:	cf02      	ldmia	r7!, {r1}
    1ff2:	cf01      	ldmia	r7!, {r0}
    1ff4:	3f80      	subs	r7, #128	; 0x80
    1ff6:	3f80      	subs	r7, #128	; 0x80
    1ff8:	b401      	push	{r0}
    1ffa:	0038      	movs	r0, r7
    1ffc:	2440      	movs	r4, #64	; 0x40
    1ffe:	4d28      	ldr	r5, [pc, #160]	; (20a0 <erasesectors+0x22>)
    2000:	c020      	stmia	r0!, {r5}
    2002:	3c01      	subs	r4, #1
    2004:	d1fc      	bne.n	2000 <BIT13>
    2006:	bc01      	pop	{r0}
    2008:	24ff      	movs	r4, #255	; 0xff
    200a:	4034      	ands	r4, r6
    200c:	19e4      	adds	r4, r4, r7
    200e:	c40f      	stmia	r4!, {r0, r1, r2, r3}
    2010:	25ff      	movs	r5, #255	; 0xff
    2012:	43ae      	bics	r6, r5
    2014:	4823      	ldr	r0, [pc, #140]	; (20a4 <erasesectors+0x26>)
    2016:	2133      	movs	r1, #51	; 0x33
    2018:	6001      	str	r1, [r0, #0]
    201a:	6046      	str	r6, [r0, #4]
    201c:	6087      	str	r7, [r0, #8]
    201e:	2180      	movs	r1, #128	; 0x80
    2020:	3180      	adds	r1, #128	; 0x80
    2022:	60c1      	str	r1, [r0, #12]
    2024:	491d      	ldr	r1, [pc, #116]	; (209c <erasesectors+0x1e>)
    2026:	6809      	ldr	r1, [r1, #0]
    2028:	6101      	str	r1, [r0, #16]
    202a:	491f      	ldr	r1, [pc, #124]	; (20a8 <erasesectors+0x2a>)
    202c:	4a1f      	ldr	r2, [pc, #124]	; (20ac <erasesectors+0x2e>)
    202e:	4790      	blx	r2
    2030:	3780      	adds	r7, #128	; 0x80
    2032:	3780      	adds	r7, #128	; 0x80
    2034:	cf40      	ldmia	r7!, {r6}
    2036:	bd3f      	pop	{r0, r1, r2, r3, r4, r5, pc}

00002038 <Dictionary_440>:
    2038:	000020b0 	strheq	r2, [r0], -r0
    203c:	650a0000 	strvs	r0, [sl]
    2040:	65736172 	ldrbvs	r6, [r3, #-370]!	; 0x172
    2044:	73616c66 	cmnvc	r1, #26112	; 0x6600
    2048:	b6720068 	ldrbtlt	r0, [r2], -r8, rrx

0000204a <Code_440>:
    204a:	b672      	cpsid	i
    204c:	f000 f814 	bl	2078 <preparesectors>
    2050:	f000 f815 	bl	207e <erasesectors>
    2054:	f000 fd0e 	bl	2a74 <dotgaensefuesschen>
    2058:	6e69461a 	mcrvs	6, 3, r4, cr9, cr10, {0}
    205c:	65687369 	strbvs	r7, [r8, #-873]!	; 0x369
    2060:	72652064 	rsbvc	r2, r5, #100	; 0x64
    2064:	6e697361 	cdpvs	3, 6, cr7, cr9, cr1, {3}
    2068:	52202e67 	eorpl	r2, r0, #1648	; 0x670
    206c:	74657365 	strbtvc	r7, [r5], #-869	; 0x365
    2070:	000a2120 	andeq	r2, sl, r0, lsr #2
    2074:	f002 fd40 	bl	4af8 <Code_1253>

00002078 <preparesectors>:
    2078:	b500      	push	{lr}
    207a:	2132      	movs	r1, #50	; 0x32
    207c:	e001      	b.n	2082 <erasesectors+0x4>

0000207e <erasesectors>:
    207e:	b500      	push	{lr}
    2080:	2134      	movs	r1, #52	; 0x34
    2082:	4808      	ldr	r0, [pc, #32]	; (20a4 <erasesectors+0x26>)
    2084:	6001      	str	r1, [r0, #0]
    2086:	2105      	movs	r1, #5
    2088:	6041      	str	r1, [r0, #4]
    208a:	2107      	movs	r1, #7
    208c:	6081      	str	r1, [r0, #8]
    208e:	4903      	ldr	r1, [pc, #12]	; (209c <erasesectors+0x1e>)
    2090:	6809      	ldr	r1, [r1, #0]
    2092:	60c1      	str	r1, [r0, #12]
    2094:	4904      	ldr	r1, [pc, #16]	; (20a8 <erasesectors+0x2a>)
    2096:	4a05      	ldr	r2, [pc, #20]	; (20ac <erasesectors+0x2e>)
    2098:	4790      	blx	r2
    209a:	bd00      	pop	{pc}
    209c:	10000fdc 	ldrdne	r0, [r0], -ip
    20a0:	ffffffff 			; <UNDEFINED> instruction: 0xffffffff
    20a4:	1000070c 	andne	r0, r0, ip, lsl #14
    20a8:	10000720 	andne	r0, r0, r0, lsr #14
    20ac:	1fff1ff1 	svcne	0x00ff1ff1

000020b0 <Dictionary_442>:
    20b0:	000020d0 	ldrdeq	r2, [r0], -r0
    20b4:	69090000 	stmdbvs	r9, {}	; <UNPREDICTABLE>
    20b8:	6674696e 	ldrbtvs	r6, [r4], -lr, ror #18
    20bc:	6873616c 	ldmdavs	r3!, {r2, r3, r5, r6, r8, sp, lr}^

000020c0 <Code_442>:
    20c0:	4853      	ldr	r0, [pc, #332]	; (2210 <flushblock+0x2a>)
    20c2:	4954      	ldr	r1, [pc, #336]	; (2214 <flushblock+0x2e>)
    20c4:	2200      	movs	r2, #0
    20c6:	7002      	strb	r2, [r0, #0]
    20c8:	3001      	adds	r0, #1
    20ca:	3901      	subs	r1, #1
    20cc:	d1fb      	bne.n	20c6 <Code_442+0x6>
    20ce:	4770      	bx	lr

000020d0 <Dictionary_443>:
    20d0:	000021b8 			; <UNDEFINED> instruction: 0x000021b8
    20d4:	68070000 	stmdavs	r7, {}	; <UNPREDICTABLE>
    20d8:	73616c66 	cmnvc	r1, #26112	; 0x6600
    20dc:	b5302168 	ldrlt	r2, [r0, #-360]!	; 0x168

000020de <Code_443>:
    20de:	b530      	push	{r4, r5, lr}
    20e0:	0032      	movs	r2, r6
    20e2:	cf40      	ldmia	r7!, {r6}
    20e4:	0850      	lsrs	r0, r2, #1
    20e6:	d313      	bcc.n	2110 <Code_443+0x32>
    20e8:	f000 fcc4 	bl	2a74 <dotgaensefuesschen>
    20ec:	6c66681e 	stclvs	8, cr6, [r6], #-120	; 0xffffff88
    20f0:	21687361 	cmncs	r8, r1, ror #6
    20f4:	65656e20 	strbvs	r6, [r5, #-3616]!	; 0xe20
    20f8:	65207364 	strvs	r7, [r0, #-868]!	; 0x364
    20fc:	206e6576 	rsbcs	r6, lr, r6, ror r5
    2100:	72646461 	rsbvc	r6, r4, #1627389952	; 0x61000000
    2104:	65737365 	ldrbvs	r7, [r3, #-869]!	; 0x365
    2108:	000a2e73 	andeq	r2, sl, r3, ror lr
    210c:	f002 fc56 	bl	49bc <Code_1240>
    2110:	4b41      	ldr	r3, [pc, #260]	; (2218 <flushblock+0x32>)
    2112:	429a      	cmp	r2, r3
    2114:	d210      	bcs.n	2138 <Code_443+0x5a>
    2116:	f000 fcad 	bl	2a74 <dotgaensefuesschen>
    211a:	6e614319 	mcrvs	3, 3, r4, cr1, cr9, {0}
    211e:	20746f6e 	rsbscs	r6, r4, lr, ror #30
    2122:	74697277 	strbtvc	r7, [r9], #-631	; 0x277
    2126:	6e692065 	cdpvs	0, 6, cr2, cr9, cr5, {3}
    212a:	63206f74 	teqvs	r0, #464	; 0x1d0
    212e:	2065726f 	rsbcs	r7, r5, pc, ror #4
    2132:	f0020a21 			; <UNDEFINED> instruction: 0xf0020a21
    2136:	fc42 0913 	mcrr2	9, 1, r0, r2, cr3
    213a:	4835      	ldr	r0, [pc, #212]	; (2210 <flushblock+0x2a>)
    213c:	2120      	movs	r1, #32
    213e:	6804      	ldr	r4, [r0, #0]
    2140:	0924      	lsrs	r4, r4, #4
    2142:	429c      	cmp	r4, r3
    2144:	d026      	beq.n	2194 <hflashstoreemulation_gefunden>
    2146:	3014      	adds	r0, #20
    2148:	3901      	subs	r1, #1
    214a:	d1f8      	bne.n	213e <Code_443+0x60>
    214c:	4830      	ldr	r0, [pc, #192]	; (2210 <flushblock+0x2a>)
    214e:	2120      	movs	r1, #32
    2150:	6804      	ldr	r4, [r0, #0]
    2152:	2c00      	cmp	r4, #0
    2154:	d017      	beq.n	2186 <hflashstoreemulation_leerestelle>
    2156:	3014      	adds	r0, #20
    2158:	3901      	subs	r1, #1
    215a:	d1f9      	bne.n	2150 <Code_443+0x72>
    215c:	f000 fc8a 	bl	2a74 <dotgaensefuesschen>
    2160:	6f6f5421 	svcvs	0x006f5421
    2164:	6e616d20 	cdpvs	13, 6, cr6, cr1, cr0, {1}
    2168:	63732079 	cmnvs	r3, #121	; 0x79
    216c:	65747461 	ldrbvs	r7, [r4, #-1121]!	; 0x461
    2170:	20646572 	rsbcs	r6, r4, r2, ror r5
    2174:	73616c46 	cmnvc	r1, #17920	; 0x4600
    2178:	72772068 	rsbsvc	r2, r7, #104	; 0x68
    217c:	73657469 	cmnvc	r5, #1761607680	; 0x69000000
    2180:	f0020a2e 			; <UNDEFINED> instruction: 0xf0020a2e
    2184:	fc1b 011b 	ldc2	1, cr0, [fp], {27}

00002186 <hflashstoreemulation_leerestelle>:
    2186:	011b      	lsls	r3, r3, #4
    2188:	6003      	str	r3, [r0, #0]
    218a:	3901      	subs	r1, #1
    218c:	6041      	str	r1, [r0, #4]
    218e:	6081      	str	r1, [r0, #8]
    2190:	60c1      	str	r1, [r0, #12]
    2192:	6101      	str	r1, [r0, #16]

00002194 <hflashstoreemulation_gefunden>:
    2194:	210f      	movs	r1, #15
    2196:	4011      	ands	r1, r2
    2198:	3104      	adds	r1, #4
    219a:	5246      	strh	r6, [r0, r1]
    219c:	cf40      	ldmia	r7!, {r6}
    219e:	6801      	ldr	r1, [r0, #0]
    21a0:	3101      	adds	r1, #1
    21a2:	6001      	str	r1, [r0, #0]
    21a4:	220f      	movs	r2, #15
    21a6:	4011      	ands	r1, r2
    21a8:	2908      	cmp	r1, #8
    21aa:	d103      	bne.n	21b4 <hflashstoreemulation_fertig>
    21ac:	f000 f81b 	bl	21e6 <flushblock>
    21b0:	f7ff fef4 	bl	1f9c <Code_437>

000021b4 <hflashstoreemulation_fertig>:
    21b4:	bd30      	pop	{r4, r5, pc}
    21b6:	46c0      	nop			; (mov r8, r8)

000021b8 <Dictionary_449>:
    21b8:	0000221c 	andeq	r2, r0, ip, lsl r2
    21bc:	660a0000 	strvs	r0, [sl], -r0
    21c0:	6873756c 	ldmdavs	r3!, {r2, r3, r5, r6, r8, sl, ip, sp, lr}^
    21c4:	73616c66 	cmnvc	r1, #26112	; 0x6600
    21c8:	b5000068 	strlt	r0, [r0, #-104]	; 0x68

000021ca <Code_449>:
    21ca:	b500      	push	{lr}
    21cc:	4810      	ldr	r0, [pc, #64]	; (2210 <flushblock+0x2a>)
    21ce:	2120      	movs	r1, #32
    21d0:	6802      	ldr	r2, [r0, #0]
    21d2:	2a00      	cmp	r2, #0
    21d4:	d003      	beq.n	21de <Code_449+0x14>
    21d6:	f000 f806 	bl	21e6 <flushblock>
    21da:	f7ff fedf 	bl	1f9c <Code_437>
    21de:	3014      	adds	r0, #20
    21e0:	3901      	subs	r1, #1
    21e2:	d1f5      	bne.n	21d0 <Code_449+0x6>
    21e4:	bd00      	pop	{pc}

000021e6 <flushblock>:
    21e6:	3f04      	subs	r7, #4
    21e8:	603e      	str	r6, [r7, #0]
    21ea:	6846      	ldr	r6, [r0, #4]
    21ec:	3f04      	subs	r7, #4
    21ee:	603e      	str	r6, [r7, #0]
    21f0:	6886      	ldr	r6, [r0, #8]
    21f2:	3f04      	subs	r7, #4
    21f4:	603e      	str	r6, [r7, #0]
    21f6:	68c6      	ldr	r6, [r0, #12]
    21f8:	3f04      	subs	r7, #4
    21fa:	603e      	str	r6, [r7, #0]
    21fc:	6906      	ldr	r6, [r0, #16]
    21fe:	3f04      	subs	r7, #4
    2200:	603e      	str	r6, [r7, #0]
    2202:	260f      	movs	r6, #15
    2204:	43f6      	mvns	r6, r6
    2206:	6802      	ldr	r2, [r0, #0]
    2208:	4016      	ands	r6, r2
    220a:	2200      	movs	r2, #0
    220c:	6002      	str	r2, [r0, #0]
    220e:	4770      	bx	lr
    2210:	1000048c 	andne	r0, r0, ip, lsl #9
    2214:	00000280 	andeq	r0, r0, r0, lsl #5
    2218:	00005000 	andeq	r5, r0, r0

0000221c <Dictionary_455>:
    221c:	00002248 	andeq	r2, r0, r8, asr #4
    2220:	2b010262 	blcs	42bb0 <BIT18+0x2bb0>

00002224 <Code_455>:
    2224:	cf01      	ldmia	r7!, {r0}
    2226:	1836      	adds	r6, r6, r0
    2228:	4770      	bx	lr

0000222a <plus_allocator>:
    222a:	b500      	push	{lr}
    222c:	f7fe f9f3 	bl	616 <expect_two_elements>
    2230:	3f04      	subs	r7, #4
    2232:	603e      	str	r6, [r7, #0]
    2234:	4ecc      	ldr	r6, [pc, #816]	; (2568 <Code_537+0xa>)
    2236:	3f04      	subs	r7, #4
    2238:	603e      	str	r6, [r7, #0]
    223a:	4ecc      	ldr	r6, [pc, #816]	; (256c <Code_537+0xe>)
    223c:	6881      	ldr	r1, [r0, #8]
    223e:	2928      	cmp	r1, #40	; 0x28
    2240:	d112      	bne.n	2268 <minus_allocator+0x12>
    2242:	f7fe ff4d 	bl	10e0 <swap_allocator>
    2246:	e00f      	b.n	2268 <minus_allocator+0x12>

00002248 <Dictionary_460>:
    2248:	000022b0 			; <UNDEFINED> instruction: 0x000022b0
    224c:	2d010262 	sfmcs	f0, 4, [r1, #-392]	; 0xfffffe78

00002250 <Code_460>:
    2250:	cf01      	ldmia	r7!, {r0}
    2252:	1b86      	subs	r6, r0, r6
    2254:	4770      	bx	lr

00002256 <minus_allocator>:
    2256:	b500      	push	{lr}
    2258:	f7fe f9dd 	bl	616 <expect_two_elements>
    225c:	3f04      	subs	r7, #4
    225e:	603e      	str	r6, [r7, #0]
    2260:	4ec3      	ldr	r6, [pc, #780]	; (2570 <Code_537+0x12>)
    2262:	3f04      	subs	r7, #4
    2264:	603e      	str	r6, [r7, #0]
    2266:	4ec3      	ldr	r6, [pc, #780]	; (2574 <Code_537+0x16>)
    2268:	f7fe fa14 	bl	694 <expect_nos_in_register>
    226c:	6801      	ldr	r1, [r0, #0]
    226e:	2928      	cmp	r1, #40	; 0x28
    2270:	d10e      	bne.n	2290 <minus_allocator+0x3a>
    2272:	6841      	ldr	r1, [r0, #4]
    2274:	29ff      	cmp	r1, #255	; 0xff
    2276:	d80b      	bhi.n	2290 <minus_allocator+0x3a>
    2278:	cf40      	ldmia	r7!, {r6}
    227a:	f7fe fa1f 	bl	6bc <nos_change_tos_away_later>
    227e:	430e      	orrs	r6, r1
    2280:	6881      	ldr	r1, [r0, #8]
    2282:	0209      	lsls	r1, r1, #8
    2284:	430e      	orrs	r6, r1
    2286:	f001 f91a 	bl	34be <Code_829>
    228a:	f7fe f8b2 	bl	3f2 <eliminiere_tos>
    228e:	bd00      	pop	{pc}
    2290:	3704      	adds	r7, #4
    2292:	f7fe f9f5 	bl	680 <expect_tos_in_register>
    2296:	0189      	lsls	r1, r1, #6
    2298:	6882      	ldr	r2, [r0, #8]
    229a:	00d2      	lsls	r2, r2, #3
    229c:	430e      	orrs	r6, r1
    229e:	4316      	orrs	r6, r2
    22a0:	f7fe f8a7 	bl	3f2 <eliminiere_tos>
    22a4:	f7fe fa3a 	bl	71c <tos_registerwechsel>
    22a8:	431e      	orrs	r6, r3
    22aa:	f001 f908 	bl	34be <Code_829>
    22ae:	bd00      	pop	{pc}

000022b0 <Dictionary_467>:
    22b0:	000022c8 	andeq	r2, r0, r8, asr #5
    22b4:	31020261 	tstcc	r2, r1, ror #4
    22b8:	3e01002d 	cdpcc	0, 0, cr0, cr1, cr13, {1}

000022ba <Code_467>:
    22ba:	3e01      	subs	r6, #1
    22bc:	4770      	bx	lr

000022be <allocator_one_minus>:
    22be:	3f04      	subs	r7, #4
    22c0:	603e      	str	r6, [r7, #0]
    22c2:	4ead      	ldr	r6, [pc, #692]	; (2578 <Code_537+0x1a>)
    22c4:	e03c      	b.n	2340 <smalltworegisters>
    22c6:	46c0      	nop			; (mov r8, r8)

000022c8 <Dictionary_470>:
    22c8:	000022e0 	andeq	r2, r0, r0, ror #5
    22cc:	31020261 	tstcc	r2, r1, ror #4
    22d0:	3601002b 	strcc	r0, [r1], -fp, lsr #32

000022d2 <Code_470>:
    22d2:	3601      	adds	r6, #1
    22d4:	4770      	bx	lr
    22d6:	3f04      	subs	r7, #4
    22d8:	603e      	str	r6, [r7, #0]
    22da:	4ea8      	ldr	r6, [pc, #672]	; (257c <Code_537+0x1e>)
    22dc:	e030      	b.n	2340 <smalltworegisters>
    22de:	46c0      	nop			; (mov r8, r8)

000022e0 <Dictionary_473>:
    22e0:	000022f8 	strdeq	r2, [r0], -r8
    22e4:	32020261 	andcc	r0, r2, #268435462	; 0x10000006
    22e8:	3e02002d 	cdpcc	0, 0, cr0, cr2, cr13, {1}

000022ea <Code_473>:
    22ea:	3e02      	subs	r6, #2
    22ec:	4770      	bx	lr
    22ee:	3f04      	subs	r7, #4
    22f0:	603e      	str	r6, [r7, #0]
    22f2:	4ea3      	ldr	r6, [pc, #652]	; (2580 <Code_537+0x22>)
    22f4:	e024      	b.n	2340 <smalltworegisters>
    22f6:	46c0      	nop			; (mov r8, r8)

000022f8 <Dictionary_476>:
    22f8:	00002310 	andeq	r2, r0, r0, lsl r3
    22fc:	32020261 	andcc	r0, r2, #268435462	; 0x10000006
    2300:	3602002b 	strcc	r0, [r2], -fp, lsr #32

00002302 <Code_476>:
    2302:	3602      	adds	r6, #2
    2304:	4770      	bx	lr
    2306:	3f04      	subs	r7, #4
    2308:	603e      	str	r6, [r7, #0]
    230a:	4e9e      	ldr	r6, [pc, #632]	; (2584 <Code_537+0x26>)
    230c:	e018      	b.n	2340 <smalltworegisters>
    230e:	46c0      	nop			; (mov r8, r8)

00002310 <Dictionary_479>:
    2310:	00002328 	andeq	r2, r0, r8, lsr #6
    2314:	63050261 	movwvs	r0, #21089	; 0x5261
    2318:	2b6c6c65 	blcs	1b1d4b4 <BIT24+0xb1d4b4>

0000231c <Code_479>:
    231c:	3604      	adds	r6, #4
    231e:	4770      	bx	lr
    2320:	3f04      	subs	r7, #4
    2322:	603e      	str	r6, [r7, #0]
    2324:	4e98      	ldr	r6, [pc, #608]	; (2588 <Code_537+0x2a>)
    2326:	e00b      	b.n	2340 <smalltworegisters>

00002328 <Dictionary_482>:
    2328:	00002358 	andeq	r2, r0, r8, asr r3
    232c:	6e060261 	cdpvs	2, 0, cr0, cr6, cr1, {3}
    2330:	74616765 	strbtvc	r6, [r1], #-1893	; 0x765
    2334:	42760065 	rsbsmi	r0, r6, #101	; 0x65

00002336 <Code_482>:
    2336:	4276      	negs	r6, r6
    2338:	4770      	bx	lr

0000233a <allocator_negate>:
    233a:	3f04      	subs	r7, #4
    233c:	603e      	str	r6, [r7, #0]
    233e:	4e93      	ldr	r6, [pc, #588]	; (258c <Code_537+0x2e>)

00002340 <smalltworegisters>:
    2340:	b500      	push	{lr}
    2342:	f7fe f95e 	bl	602 <expect_one_element>
    2346:	6801      	ldr	r1, [r0, #0]
    2348:	00c9      	lsls	r1, r1, #3
    234a:	430e      	orrs	r6, r1
    234c:	f7fe f9e6 	bl	71c <tos_registerwechsel>
    2350:	431e      	orrs	r6, r3
    2352:	f001 f8b4 	bl	34be <Code_829>
    2356:	bd00      	pop	{pc}

00002358 <Dictionary_485>:
    2358:	00002370 	andeq	r2, r0, r0, ror r3
    235c:	6e030261 	cdpvs	2, 0, cr0, cr3, cr1, {3}
    2360:	43f6746f 	mvnsmi	r7, #1862270976	; 0x6f000000

00002362 <Code_485>:
    2362:	43f6      	mvns	r6, r6
    2364:	4770      	bx	lr

00002366 <allocator_not>:
    2366:	3f04      	subs	r7, #4
    2368:	603e      	str	r6, [r7, #0]
    236a:	4e89      	ldr	r6, [pc, #548]	; (2590 <Code_537+0x32>)
    236c:	e7e8      	b.n	2340 <smalltworegisters>
    236e:	46c0      	nop			; (mov r8, r8)

00002370 <Dictionary_488>:
    2370:	00002388 	andeq	r2, r0, r8, lsl #7
    2374:	73030261 	movwvc	r0, #12897	; 0x3261
    2378:	08767268 	ldmdaeq	r6!, {r3, r5, r6, r9, ip, sp, lr}^

0000237a <Code_488>:
    237a:	0876      	lsrs	r6, r6, #1
    237c:	4770      	bx	lr
    237e:	3f04      	subs	r7, #4
    2380:	603e      	str	r6, [r7, #0]
    2382:	4e84      	ldr	r6, [pc, #528]	; (2594 <Code_537+0x36>)
    2384:	e7dc      	b.n	2340 <smalltworegisters>
    2386:	46c0      	nop			; (mov r8, r8)

00002388 <Dictionary_491>:
    2388:	00002398 	muleq	r0, r8, r3
    238c:	73030261 	movwvc	r0, #12897	; 0x3261
    2390:	00766c68 	rsbseq	r6, r6, r8, ror #24

00002392 <Code_491>:
    2392:	0076      	lsls	r6, r6, #1
    2394:	4770      	bx	lr
    2396:	e006      	b.n	23a6 <Code_492+0x4>

00002398 <Dictionary_492>:
    2398:	000023b0 			; <UNDEFINED> instruction: 0x000023b0
    239c:	32020261 	andcc	r0, r2, #268435462	; 0x10000006
    23a0:	0076002a 	rsbseq	r0, r6, sl, lsr #32

000023a2 <Code_492>:
    23a2:	0076      	lsls	r6, r6, #1
    23a4:	4770      	bx	lr
    23a6:	3f04      	subs	r7, #4
    23a8:	603e      	str	r6, [r7, #0]
    23aa:	2640      	movs	r6, #64	; 0x40
    23ac:	e7c8      	b.n	2340 <smalltworegisters>
    23ae:	46c0      	nop			; (mov r8, r8)

000023b0 <Dictionary_495>:
    23b0:	000023c8 	andeq	r2, r0, r8, asr #7
    23b4:	63050261 	movwvs	r0, #21089	; 0x5261
    23b8:	736c6c65 	cmnvc	ip, #25856	; 0x6500

000023bc <Code_495>:
    23bc:	00b6      	lsls	r6, r6, #2
    23be:	4770      	bx	lr
    23c0:	3f04      	subs	r7, #4
    23c2:	603e      	str	r6, [r7, #0]
    23c4:	2680      	movs	r6, #128	; 0x80
    23c6:	e7bb      	b.n	2340 <smalltworegisters>

000023c8 <Dictionary_498>:
    23c8:	000023e0 	andeq	r2, r0, r0, ror #7
    23cc:	32020261 	andcc	r0, r2, #268435462	; 0x10000006
    23d0:	1076002f 	rsbsne	r0, r6, pc, lsr #32

000023d2 <Code_498>:
    23d2:	1076      	asrs	r6, r6, #1
    23d4:	4770      	bx	lr
    23d6:	3f04      	subs	r7, #4
    23d8:	603e      	str	r6, [r7, #0]
    23da:	4e6f      	ldr	r6, [pc, #444]	; (2598 <Code_537+0x3a>)
    23dc:	e7b0      	b.n	2340 <smalltworegisters>
    23de:	46c0      	nop			; (mov r8, r8)

000023e0 <Dictionary_501>:
    23e0:	00002418 	andeq	r2, r0, r8, lsl r4
    23e4:	61030261 	tstvs	r3, r1, ror #4
    23e8:	17f07362 	ldrbne	r7, [r0, r2, ror #6]!

000023ea <Code_501>:
    23ea:	17f0      	asrs	r0, r6, #31
    23ec:	1836      	adds	r6, r6, r0
    23ee:	4046      	eors	r6, r0
    23f0:	4770      	bx	lr
    23f2:	b500      	push	{lr}
    23f4:	f7fe f905 	bl	602 <expect_one_element>
    23f8:	3f04      	subs	r7, #4
    23fa:	603e      	str	r6, [r7, #0]
    23fc:	4e67      	ldr	r6, [pc, #412]	; (259c <Code_537+0x3e>)
    23fe:	6801      	ldr	r1, [r0, #0]
    2400:	0209      	lsls	r1, r1, #8
    2402:	430e      	orrs	r6, r1
    2404:	f001 f85b 	bl	34be <Code_829>
    2408:	3f04      	subs	r7, #4
    240a:	603e      	str	r6, [r7, #0]
    240c:	4e64      	ldr	r6, [pc, #400]	; (25a0 <Code_537+0x42>)
    240e:	f001 f856 	bl	34be <Code_829>
    2412:	f7ff ff92 	bl	233a <allocator_negate>
    2416:	bd00      	pop	{pc}

00002418 <Dictionary_506>:
    2418:	00002460 	andeq	r2, r0, r0, ror #8
    241c:	75050042 	strvc	r0, [r5, #-66]	; 0x42
    2420:	646f6d2f 	strbtvs	r6, [pc], #-3375	; 2428 <Code_506+0x4>

00002424 <Code_506>:
    2424:	0031      	movs	r1, r6
    2426:	cf40      	ldmia	r7!, {r6}
    2428:	2900      	cmp	r1, #0
    242a:	d103      	bne.n	2434 <Code_506+0x10>
    242c:	3f04      	subs	r7, #4
    242e:	603e      	str	r6, [r7, #0]
    2430:	2600      	movs	r6, #0
    2432:	4770      	bx	lr
    2434:	2201      	movs	r2, #1
    2436:	2300      	movs	r3, #0
    2438:	428e      	cmp	r6, r1
    243a:	d906      	bls.n	244a <Code_506+0x26>
    243c:	3100      	adds	r1, #0
    243e:	d404      	bmi.n	244a <Code_506+0x26>
    2440:	0052      	lsls	r2, r2, #1
    2442:	0049      	lsls	r1, r1, #1
    2444:	d401      	bmi.n	244a <Code_506+0x26>
    2446:	428e      	cmp	r6, r1
    2448:	d8fa      	bhi.n	2440 <Code_506+0x1c>
    244a:	428e      	cmp	r6, r1
    244c:	d301      	bcc.n	2452 <Code_506+0x2e>
    244e:	1a76      	subs	r6, r6, r1
    2450:	4313      	orrs	r3, r2
    2452:	0849      	lsrs	r1, r1, #1
    2454:	0852      	lsrs	r2, r2, #1
    2456:	d1f8      	bne.n	244a <Code_506+0x26>
    2458:	3f04      	subs	r7, #4
    245a:	603e      	str	r6, [r7, #0]
    245c:	001e      	movs	r6, r3
    245e:	4770      	bx	lr

00002460 <Dictionary_512>:
    2460:	000024d0 	ldrdeq	r2, [r0], -r0
    2464:	2f040042 	svccs	0x00040042
    2468:	00646f6d 	rsbeq	r6, r4, sp, ror #30

0000246c <Code_512>:
    246c:	b500      	push	{lr}
    246e:	0030      	movs	r0, r6
    2470:	cf40      	ldmia	r7!, {r6}
    2472:	2e00      	cmp	r6, #0
    2474:	da1c      	bge.n	24b0 <divmod_plus>
    2476:	4276      	negs	r6, r6

00002478 <divmod_minus>:
    2478:	2800      	cmp	r0, #0
    247a:	da0c      	bge.n	2496 <divmod_minus_plus>

0000247c <divmod_minus_minus>:
    247c:	4240      	negs	r0, r0
    247e:	3f04      	subs	r7, #4
    2480:	603e      	str	r6, [r7, #0]
    2482:	0006      	movs	r6, r0
    2484:	f7ff ffce 	bl	2424 <Code_506>
    2488:	0030      	movs	r0, r6
    248a:	cf40      	ldmia	r7!, {r6}
    248c:	4276      	negs	r6, r6
    248e:	3f04      	subs	r7, #4
    2490:	603e      	str	r6, [r7, #0]
    2492:	0006      	movs	r6, r0
    2494:	bd00      	pop	{pc}

00002496 <divmod_minus_plus>:
    2496:	3f04      	subs	r7, #4
    2498:	603e      	str	r6, [r7, #0]
    249a:	0006      	movs	r6, r0
    249c:	f7ff ffc2 	bl	2424 <Code_506>
    24a0:	0030      	movs	r0, r6
    24a2:	cf40      	ldmia	r7!, {r6}
    24a4:	4240      	negs	r0, r0
    24a6:	4276      	negs	r6, r6
    24a8:	3f04      	subs	r7, #4
    24aa:	603e      	str	r6, [r7, #0]
    24ac:	0006      	movs	r6, r0
    24ae:	bd00      	pop	{pc}

000024b0 <divmod_plus>:
    24b0:	2800      	cmp	r0, #0
    24b2:	da07      	bge.n	24c4 <divmod_plus_plus>

000024b4 <divmod_plus_minus>:
    24b4:	4240      	negs	r0, r0
    24b6:	3f04      	subs	r7, #4
    24b8:	603e      	str	r6, [r7, #0]
    24ba:	0006      	movs	r6, r0
    24bc:	f7ff ffb2 	bl	2424 <Code_506>
    24c0:	4276      	negs	r6, r6
    24c2:	bd00      	pop	{pc}

000024c4 <divmod_plus_plus>:
    24c4:	3f04      	subs	r7, #4
    24c6:	603e      	str	r6, [r7, #0]
    24c8:	0006      	movs	r6, r0
    24ca:	f7ff ffab 	bl	2424 <Code_506>
    24ce:	bd00      	pop	{pc}

000024d0 <Dictionary_528>:
    24d0:	000024e4 	andeq	r2, r0, r4, ror #9
    24d4:	6d030042 	stcvs	0, cr0, [r3, #-264]	; 0xfffffef8
    24d8:	b500646f 	strlt	r6, [r0, #-1135]	; 0x46f

000024da <Code_528>:
    24da:	b500      	push	{lr}
    24dc:	f7ff ffc6 	bl	246c <Code_512>
    24e0:	cf40      	ldmia	r7!, {r6}
    24e2:	bd00      	pop	{pc}

000024e4 <Dictionary_530>:
    24e4:	000024f8 	strdeq	r2, [r0], -r8
    24e8:	2f010042 	svccs	0x00010042

000024ec <Code_530>:
    24ec:	b500      	push	{lr}
    24ee:	f7ff ffbd 	bl	246c <Code_512>
    24f2:	3704      	adds	r7, #4
    24f4:	bd00      	pop	{pc}
    24f6:	46c0      	nop			; (mov r8, r8)

000024f8 <Dictionary_531>:
    24f8:	0000250c 	andeq	r2, r0, ip, lsl #10
    24fc:	65040061 	strvs	r0, [r4, #-97]	; 0x61
    2500:	006e6576 	rsbeq	r6, lr, r6, ror r5

00002504 <Code_531>:
    2504:	2001      	movs	r0, #1
    2506:	4030      	ands	r0, r6
    2508:	1836      	adds	r6, r6, r0
    250a:	4770      	bx	lr

0000250c <Dictionary_532>:
    250c:	00002524 	andeq	r2, r0, r4, lsr #10
    2510:	62040081 	andvs	r0, r4, #129	; 0x81
    2514:	00657361 	rsbeq	r7, r5, r1, ror #6

00002518 <Code_532>:
    2518:	3f04      	subs	r7, #4
    251a:	603e      	str	r6, [r7, #0]
    251c:	4e21      	ldr	r6, [pc, #132]	; (25a4 <Code_537+0x46>)
    251e:	4770      	bx	lr
    2520:	0000000a 	andeq	r0, r0, sl

00002524 <Dictionary_535>:
    2524:	0000253c 	andeq	r2, r0, ip, lsr r5
    2528:	62060000 	andvs	r0, r6, #0
    252c:	72616e69 	rsbvc	r6, r1, #1680	; 0x690
    2530:	481c0079 	ldmdami	ip, {r0, r3, r4, r5, r6}

00002532 <Code_535>:
    2532:	481c      	ldr	r0, [pc, #112]	; (25a4 <Code_537+0x46>)
    2534:	2102      	movs	r1, #2
    2536:	6001      	str	r1, [r0, #0]
    2538:	4770      	bx	lr
    253a:	46c0      	nop			; (mov r8, r8)

0000253c <Dictionary_536>:
    253c:	00002554 	andeq	r2, r0, r4, asr r5
    2540:	64070000 	strvs	r0, [r7]
    2544:	6d696365 	stclvs	3, cr6, [r9, #-404]!	; 0xfffffe6c
    2548:	48166c61 	ldmdami	r6, {r0, r5, r6, sl, fp, sp, lr}

0000254a <Code_536>:
    254a:	4816      	ldr	r0, [pc, #88]	; (25a4 <Code_537+0x46>)
    254c:	210a      	movs	r1, #10
    254e:	6001      	str	r1, [r0, #0]
    2550:	4770      	bx	lr
    2552:	46c0      	nop			; (mov r8, r8)

00002554 <Dictionary_537>:
    2554:	000025f4 	strdeq	r2, [r0], -r4
    2558:	68030000 	stmdavs	r3, {}	; <UNPREDICTABLE>
    255c:	48117865 	ldmdami	r1, {r0, r2, r5, r6, fp, ip, sp, lr}

0000255e <Code_537>:
    255e:	4811      	ldr	r0, [pc, #68]	; (25a4 <Code_537+0x46>)
    2560:	2110      	movs	r1, #16
    2562:	6001      	str	r1, [r0, #0]
    2564:	4770      	bx	lr
    2566:	30000000 	andcc	r0, r0, r0
    256a:	18000000 	stmdane	r0, {}	; <UNPREDICTABLE>
    256e:	38000000 	stmdacc	r0, {}	; <UNPREDICTABLE>
    2572:	1a000000 	bne	257a <Code_537+0x1c>
    2576:	1e400000 	cdpne	0, 4, cr0, cr0, cr0, {0}
    257a:	1c400000 	marne	acc0, r0, r0
    257e:	1e800000 	cdpne	0, 8, cr0, cr0, cr0, {0}
    2582:	1c800000 	stcne	0, cr0, [r0], {0}
    2586:	1d000000 	stcne	0, cr0, [r0]
    258a:	42400000 	submi	r0, r0, #0
    258e:	43c00000 	bicmi	r0, r0, #0
    2592:	08400000 	stmdaeq	r0, {}^	; <UNPREDICTABLE>
    2596:	10400000 	subne	r0, r0, r0
    259a:	28000000 	stmdacs	r0, {}	; <UNPREDICTABLE>
    259e:	d5000000 	strle	r0, [r0]
    25a2:	0fd80000 	svceq	0x00d80000
    25a6:	487e1000 	ldmdami	lr!, {ip}^

000025a8 <uart_init>:
    25a8:	487e      	ldr	r0, [pc, #504]	; (27a4 <Code_567+0x1a>)
    25aa:	4a7f      	ldr	r2, [pc, #508]	; (27a8 <Code_567+0x1e>)
    25ac:	6801      	ldr	r1, [r0, #0]
    25ae:	4311      	orrs	r1, r2
    25b0:	6001      	str	r1, [r0, #0]
    25b2:	487e      	ldr	r0, [pc, #504]	; (27ac <Code_567+0x22>)
    25b4:	21c1      	movs	r1, #193	; 0xc1
    25b6:	6001      	str	r1, [r0, #0]
    25b8:	487d      	ldr	r0, [pc, #500]	; (27b0 <Code_567+0x26>)
    25ba:	6001      	str	r1, [r0, #0]
    25bc:	4879      	ldr	r0, [pc, #484]	; (27a4 <Code_567+0x1a>)
    25be:	4a7d      	ldr	r2, [pc, #500]	; (27b4 <Code_567+0x2a>)
    25c0:	6801      	ldr	r1, [r0, #0]
    25c2:	4311      	orrs	r1, r2
    25c4:	6001      	str	r1, [r0, #0]
    25c6:	487c      	ldr	r0, [pc, #496]	; (27b8 <Code_567+0x2e>)
    25c8:	2101      	movs	r1, #1
    25ca:	6001      	str	r1, [r0, #0]
    25cc:	487b      	ldr	r0, [pc, #492]	; (27bc <Code_567+0x32>)
    25ce:	2180      	movs	r1, #128	; 0x80
    25d0:	6001      	str	r1, [r0, #0]
    25d2:	487b      	ldr	r0, [pc, #492]	; (27c0 <Code_567+0x36>)
    25d4:	2185      	movs	r1, #133	; 0x85
    25d6:	6001      	str	r1, [r0, #0]
    25d8:	487a      	ldr	r0, [pc, #488]	; (27c4 <Code_567+0x3a>)
    25da:	2104      	movs	r1, #4
    25dc:	6001      	str	r1, [r0, #0]
    25de:	487a      	ldr	r0, [pc, #488]	; (27c8 <Code_567+0x3e>)
    25e0:	2100      	movs	r1, #0
    25e2:	6001      	str	r1, [r0, #0]
    25e4:	4875      	ldr	r0, [pc, #468]	; (27bc <Code_567+0x32>)
    25e6:	2103      	movs	r1, #3
    25e8:	6001      	str	r1, [r0, #0]
    25ea:	4878      	ldr	r0, [pc, #480]	; (27cc <Code_567+0x42>)
    25ec:	2107      	movs	r1, #7
    25ee:	6001      	str	r1, [r0, #0]
    25f0:	4770      	bx	lr
    25f2:	46c0      	nop			; (mov r8, r8)

000025f4 <Dictionary_538>:
    25f4:	00002610 	andeq	r2, r0, r0, lsl r6
    25f8:	68090081 	stmdavs	r9, {r0, r7}
    25fc:	2d6b6f6f 	stclcs	15, cr6, [fp, #-444]!	; 0xfffffe44
    2600:	74696d65 	strbtvc	r6, [r9], #-3429	; 0xd65

00002604 <Code_538>:
    2604:	3f04      	subs	r7, #4
    2606:	603e      	str	r6, [r7, #0]
    2608:	4e71      	ldr	r6, [pc, #452]	; (27d0 <Code_567+0x46>)
    260a:	4770      	bx	lr
    260c:	00002706 	andeq	r2, r0, r6, lsl #14

00002610 <Dictionary_541>:
    2610:	0000262c 	andeq	r2, r0, ip, lsr #12
    2614:	68080081 	stmdavs	r8, {r0, r7}
    2618:	2d6b6f6f 	stclcs	15, cr6, [fp, #-444]!	; 0xfffffe44
    261c:	0079656b 	rsbseq	r6, r9, fp, ror #10

00002620 <Code_541>:
    2620:	3f04      	subs	r7, #4
    2622:	603e      	str	r6, [r7, #0]
    2624:	4e6b      	ldr	r6, [pc, #428]	; (27d4 <Code_567+0x4a>)
    2626:	4770      	bx	lr
    2628:	0000272e 	andeq	r2, r0, lr, lsr #14

0000262c <Dictionary_544>:
    262c:	0000264c 	andeq	r2, r0, ip, asr #12
    2630:	680a0081 	stmdavs	sl, {r0, r7}
    2634:	2d6b6f6f 	stclcs	15, cr6, [fp, #-444]!	; 0xfffffe44
    2638:	74696d65 	strbtvc	r6, [r9], #-3429	; 0xd65
    263c:	3f04003f 	svccc	0x0004003f

0000263e <Code_544>:
    263e:	3f04      	subs	r7, #4
    2640:	603e      	str	r6, [r7, #0]
    2642:	4e65      	ldr	r6, [pc, #404]	; (27d8 <Code_567+0x4e>)
    2644:	4770      	bx	lr
    2646:	0000275c 	andeq	r2, r0, ip, asr r7
    264a:	266846c0 	strbtcs	r4, [r8], -r0, asr #13

0000264c <Dictionary_547>:
    264c:	00002668 	andeq	r2, r0, r8, ror #12
    2650:	68090081 	stmdavs	r9, {r0, r7}
    2654:	2d6b6f6f 	stclcs	15, cr6, [fp, #-444]!	; 0xfffffe44
    2658:	3f79656b 	svccc	0x0079656b

0000265c <Code_547>:
    265c:	3f04      	subs	r7, #4
    265e:	603e      	str	r6, [r7, #0]
    2660:	4e5e      	ldr	r6, [pc, #376]	; (27dc <Code_567+0x52>)
    2662:	4770      	bx	lr
    2664:	0000278a 	andeq	r2, r0, sl, lsl #15

00002668 <Dictionary_550>:
    2668:	00002688 	andeq	r2, r0, r8, lsl #13
    266c:	680a0081 	stmdavs	sl, {r0, r7}
    2670:	2d6b6f6f 	stclcs	15, cr6, [fp, #-444]!	; 0xfffffe44
    2674:	73756170 	cmnvc	r5, #28
    2678:	3f040065 	svccc	0x00040065

0000267a <Code_550>:
    267a:	3f04      	subs	r7, #4
    267c:	603e      	str	r6, [r7, #0]
    267e:	4e58      	ldr	r6, [pc, #352]	; (27e0 <Code_567+0x56>)
    2680:	4770      	bx	lr
    2682:	00004aa6 	andeq	r4, r0, r6, lsr #21
    2686:	26a046c0 	strtcs	r4, [r0], r0, asr #13

00002688 <Dictionary_553>:
    2688:	000026a0 	andeq	r2, r0, r0, lsr #13
    268c:	65040000 	strvs	r0, [r4]
    2690:	0074696d 	rsbseq	r6, r4, sp, ror #18

00002694 <Code_553>:
    2694:	b50f      	push	{r0, r1, r2, r3, lr}
    2696:	484e      	ldr	r0, [pc, #312]	; (27d0 <Code_567+0x46>)
    2698:	f000 f829 	bl	26ee <hook_intern>
    269c:	bd0f      	pop	{r0, r1, r2, r3, pc}
    269e:	46c0      	nop			; (mov r8, r8)

000026a0 <Dictionary_554>:
    26a0:	000026b4 			; <UNDEFINED> instruction: 0x000026b4
    26a4:	6b030000 	blvs	c26ac <BIT19+0x426ac>
    26a8:	b50f7965 	strlt	r7, [pc, #-2405]	; 1d4b <Code_406+0x23>

000026aa <Code_554>:
    26aa:	b50f      	push	{r0, r1, r2, r3, lr}
    26ac:	4849      	ldr	r0, [pc, #292]	; (27d4 <Code_567+0x4a>)
    26ae:	f000 f81e 	bl	26ee <hook_intern>
    26b2:	bd0f      	pop	{r0, r1, r2, r3, pc}

000026b4 <Dictionary_555>:
    26b4:	000026c8 	andeq	r2, r0, r8, asr #13
    26b8:	65050000 	strvs	r0, [r5]
    26bc:	3f74696d 	svccc	0x0074696d

000026c0 <Code_555>:
    26c0:	4845      	ldr	r0, [pc, #276]	; (27d8 <Code_567+0x4e>)
    26c2:	6800      	ldr	r0, [r0, #0]
    26c4:	4687      	mov	pc, r0
    26c6:	46c0      	nop			; (mov r8, r8)

000026c8 <Dictionary_556>:
    26c8:	000026dc 	ldrdeq	r2, [r0], -ip
    26cc:	6b040000 	blvs	1026d4 <BIT20+0x26d4>
    26d0:	003f7965 	eorseq	r7, pc, r5, ror #18

000026d4 <Code_556>:
    26d4:	4841      	ldr	r0, [pc, #260]	; (27dc <Code_567+0x52>)
    26d6:	6800      	ldr	r0, [r0, #0]
    26d8:	4687      	mov	pc, r0
    26da:	46c0      	nop			; (mov r8, r8)

000026dc <Dictionary_557>:
    26dc:	000026f4 	strdeq	r2, [r0], -r4
    26e0:	70050000 	andvc	r0, r5, r0
    26e4:	65737561 	ldrbvs	r7, [r3, #-1377]!	; 0x561

000026e8 <Code_557>:
    26e8:	483d      	ldr	r0, [pc, #244]	; (27e0 <Code_567+0x56>)
    26ea:	6800      	ldr	r0, [r0, #0]
    26ec:	4687      	mov	pc, r0

000026ee <hook_intern>:
    26ee:	6800      	ldr	r0, [r0, #0]
    26f0:	4687      	mov	pc, r0
    26f2:	46c0      	nop			; (mov r8, r8)

000026f4 <Dictionary_558>:
    26f4:	0000271c 	andeq	r2, r0, ip, lsl r7
    26f8:	730b0000 	movwvc	r0, #45056	; 0xb000
    26fc:	61697265 	cmnvs	r9, r5, ror #4
    2700:	6d652d6c 	stclvs	13, cr2, [r5, #-432]!	; 0xfffffe50
    2704:	b5007469 	strlt	r7, [r0, #-1129]	; 0x469

00002706 <Code_558>:
    2706:	b500      	push	{lr}
    2708:	f000 f828 	bl	275c <Code_564>
    270c:	2e00      	cmp	r6, #0
    270e:	cf40      	ldmia	r7!, {r6}
    2710:	d0fa      	beq.n	2708 <Code_558+0x2>
    2712:	b2f6      	uxtb	r6, r6
    2714:	482b      	ldr	r0, [pc, #172]	; (27c4 <Code_567+0x3a>)
    2716:	6006      	str	r6, [r0, #0]
    2718:	cf40      	ldmia	r7!, {r6}
    271a:	bd00      	pop	{pc}

0000271c <Dictionary_561>:
    271c:	00002748 	andeq	r2, r0, r8, asr #14
    2720:	730a0000 	movwvc	r0, #40960	; 0xa000
    2724:	61697265 	cmnvs	r9, r5, ror #4
    2728:	656b2d6c 	strbvs	r2, [fp, #-3436]!	; 0xd6c
    272c:	b5000079 	strlt	r0, [r0, #-121]	; 0x79

0000272e <Code_561>:
    272e:	b500      	push	{lr}
    2730:	f000 f82b 	bl	278a <Code_567>
    2734:	2e00      	cmp	r6, #0
    2736:	cf40      	ldmia	r7!, {r6}
    2738:	d0fa      	beq.n	2730 <Code_561+0x2>
    273a:	3f04      	subs	r7, #4
    273c:	603e      	str	r6, [r7, #0]
    273e:	4e21      	ldr	r6, [pc, #132]	; (27c4 <Code_567+0x3a>)
    2740:	6836      	ldr	r6, [r6, #0]
    2742:	b2f6      	uxtb	r6, r6
    2744:	bd00      	pop	{pc}
    2746:	46c0      	nop			; (mov r8, r8)

00002748 <Dictionary_564>:
    2748:	00002778 	andeq	r2, r0, r8, ror r7
    274c:	730c0000 	movwvc	r0, #49152	; 0xc000
    2750:	61697265 	cmnvs	r9, r5, ror #4
    2754:	6d652d6c 	stclvs	13, cr2, [r5, #-432]!	; 0xfffffe50
    2758:	003f7469 	eorseq	r7, pc, r9, ror #8

0000275c <Code_564>:
    275c:	b500      	push	{lr}
    275e:	f7ff ffc3 	bl	26e8 <Code_557>
    2762:	3f04      	subs	r7, #4
    2764:	603e      	str	r6, [r7, #0]
    2766:	2600      	movs	r6, #0
    2768:	481e      	ldr	r0, [pc, #120]	; (27e4 <Code_567+0x5a>)
    276a:	2220      	movs	r2, #32
    276c:	6801      	ldr	r1, [r0, #0]
    276e:	4011      	ands	r1, r2
    2770:	d000      	beq.n	2774 <Code_564+0x18>
    2772:	43f6      	mvns	r6, r6
    2774:	bd00      	pop	{pc}
    2776:	46c0      	nop			; (mov r8, r8)

00002778 <Dictionary_567>:
    2778:	000027e8 	andeq	r2, r0, r8, ror #15
    277c:	730b0000 	movwvc	r0, #45056	; 0xb000
    2780:	61697265 	cmnvs	r9, r5, ror #4
    2784:	656b2d6c 	strbvs	r2, [fp, #-3436]!	; 0xd6c
    2788:	b5003f79 	strlt	r3, [r0, #-3961]	; 0xf79

0000278a <Code_567>:
    278a:	b500      	push	{lr}
    278c:	f7ff ffac 	bl	26e8 <Code_557>
    2790:	3f04      	subs	r7, #4
    2792:	603e      	str	r6, [r7, #0]
    2794:	2600      	movs	r6, #0
    2796:	4813      	ldr	r0, [pc, #76]	; (27e4 <Code_567+0x5a>)
    2798:	2201      	movs	r2, #1
    279a:	6801      	ldr	r1, [r0, #0]
    279c:	4011      	ands	r1, r2
    279e:	d000      	beq.n	27a2 <Code_567+0x18>
    27a0:	43f6      	mvns	r6, r6
    27a2:	bd00      	pop	{pc}
    27a4:	40048080 	andmi	r8, r4, r0, lsl #1
    27a8:	00010040 	andeq	r0, r1, r0, asr #32
    27ac:	400440a4 	andmi	r4, r4, r4, lsr #1
    27b0:	400440a8 	andmi	r4, r4, r8, lsr #1
    27b4:	00001000 	andeq	r1, r0, r0
    27b8:	40048098 	mulmi	r4, r8, r0
    27bc:	4000800c 	andmi	r8, r0, ip
    27c0:	40008028 	andmi	r8, r0, r8, lsr #32
    27c4:	40008000 	andmi	r8, r0, r0
    27c8:	40008004 	andmi	r8, r0, r4
    27cc:	40008008 	andmi	r8, r0, r8
    27d0:	10000fd4 	ldrdne	r0, [r0], -r4
    27d4:	10000fd0 	ldrdne	r0, [r0], -r0	; <UNPREDICTABLE>
    27d8:	10000fcc 	andne	r0, r0, ip, asr #31
    27dc:	10000fc8 	andne	r0, r0, r8, asr #31
    27e0:	10000fc4 	andne	r0, r0, r4, asr #31
    27e4:	40008014 	andmi	r8, r0, r4, lsl r0

000027e8 <Dictionary_570>:
    27e8:	0000280c 	andeq	r2, r0, ip, lsl #16
    27ec:	63070000 	movwvs	r0, #28672	; 0x7000
    27f0:	65707865 	ldrbvs	r7, [r0, #-2149]!	; 0x865
    27f4:	b5007463 	strlt	r7, [r0, #-1123]	; 0x463

000027f6 <Code_570>:
    27f6:	b500      	push	{lr}
    27f8:	6838      	ldr	r0, [r7, #0]
    27fa:	b401      	push	{r0}
    27fc:	3001      	adds	r0, #1
    27fe:	6038      	str	r0, [r7, #0]
    2800:	f000 f80b 	bl	281a <Code_572>
    2804:	bc01      	pop	{r0}
    2806:	7006      	strb	r6, [r0, #0]
    2808:	cf40      	ldmia	r7!, {r6}
    280a:	bd00      	pop	{pc}

0000280c <Dictionary_572>:
    280c:	00002884 	andeq	r2, r0, r4, lsl #17
    2810:	61060000 	mrsvs	r0, (UNDEF: 6)
    2814:	70656363 	rsbvc	r6, r5, r3, ror #6
    2818:	b5000074 	strlt	r0, [r0, #-116]	; 0x74

0000281a <Code_572>:
    281a:	b500      	push	{lr}
    281c:	cf02      	ldmia	r7!, {r1}
    281e:	3901      	subs	r1, #1
    2820:	2200      	movs	r2, #0
    2822:	f7ff ff42 	bl	26aa <Code_554>
    2826:	0030      	movs	r0, r6
    2828:	cf40      	ldmia	r7!, {r6}
    282a:	287f      	cmp	r0, #127	; 0x7f
    282c:	d009      	beq.n	2842 <Code_572+0x28>
    282e:	2820      	cmp	r0, #32
    2830:	d219      	bcs.n	2866 <Code_572+0x4c>
    2832:	2809      	cmp	r0, #9
    2834:	d016      	beq.n	2864 <Code_572+0x4a>
    2836:	280a      	cmp	r0, #10
    2838:	d01f      	beq.n	287a <Code_572+0x60>
    283a:	280d      	cmp	r0, #13
    283c:	d01d      	beq.n	287a <Code_572+0x60>
    283e:	2808      	cmp	r0, #8
    2840:	d1ef      	bne.n	2822 <Code_572+0x8>
    2842:	2a00      	cmp	r2, #0
    2844:	d0ed      	beq.n	2822 <Code_572+0x8>
    2846:	f000 f915 	bl	2a74 <dotgaensefuesschen>
    284a:	08200803 	stmdaeq	r0!, {r0, r1, fp}
    284e:	2a00      	cmp	r2, #0
    2850:	d0e7      	beq.n	2822 <Code_572+0x8>
    2852:	5c88      	ldrb	r0, [r1, r2]
    2854:	3a01      	subs	r2, #1
    2856:	2380      	movs	r3, #128	; 0x80
    2858:	4003      	ands	r3, r0
    285a:	d0e2      	beq.n	2822 <Code_572+0x8>
    285c:	2340      	movs	r3, #64	; 0x40
    285e:	4003      	ands	r3, r0
    2860:	d0f5      	beq.n	284e <Code_572+0x34>
    2862:	e7de      	b.n	2822 <Code_572+0x8>
    2864:	2020      	movs	r0, #32
    2866:	42b2      	cmp	r2, r6
    2868:	d2db      	bcs.n	2822 <Code_572+0x8>
    286a:	3f04      	subs	r7, #4
    286c:	603e      	str	r6, [r7, #0]
    286e:	0006      	movs	r6, r0
    2870:	f7ff ff10 	bl	2694 <Code_553>
    2874:	3201      	adds	r2, #1
    2876:	5488      	strb	r0, [r1, r2]
    2878:	e7d3      	b.n	2822 <Code_572+0x8>
    287a:	0016      	movs	r6, r2
    287c:	f000 f8a8 	bl	29d0 <Code_603>
    2880:	bd00      	pop	{pc}
    2882:	46c0      	nop			; (mov r8, r8)

00002884 <Dictionary_576>:
    2884:	00002898 	muleq	r0, r8, r8
    2888:	74030040 	strvc	r0, [r3], #-64	; 0x40
    288c:	3f046269 	svccc	0x00046269

0000288e <Code_576>:
    288e:	3f04      	subs	r7, #4
    2890:	603e      	str	r6, [r7, #0]
    2892:	4e2b      	ldr	r6, [pc, #172]	; (2940 <Code_588+0x20>)
    2894:	4770      	bx	lr
    2896:	46c0      	nop			; (mov r8, r8)

00002898 <Dictionary_578>:
    2898:	000028b0 			; <UNDEFINED> instruction: 0x000028b0
    289c:	3e030081 	cdpcc	0, 0, cr0, cr3, cr1, {4}
    28a0:	3f046e69 	svccc	0x00046e69

000028a2 <Code_578>:
    28a2:	3f04      	subs	r7, #4
    28a4:	603e      	str	r6, [r7, #0]
    28a6:	4e27      	ldr	r6, [pc, #156]	; (2944 <Code_588+0x24>)
    28a8:	4770      	bx	lr
    28aa:	00000000 	andeq	r0, r0, r0
    28ae:	28d846c0 	ldmcs	r8, {r6, r7, r9, sl, lr}^

000028b0 <Dictionary_581>:
    28b0:	000028d8 	ldrdeq	r2, [r0], -r8
    28b4:	630e0082 	movwvs	r0, #57474	; 0xe082
    28b8:	65727275 	ldrbvs	r7, [r2, #-629]!	; 0x275
    28bc:	732d746e 	teqvc	sp, #1845493760	; 0x6e000000
    28c0:	6372756f 	cmnvs	r2, #465567744	; 0x1bc00000
    28c4:	3f040065 	svccc	0x00040065

000028c6 <Code_581>:
    28c6:	3f04      	subs	r7, #4
    28c8:	603e      	str	r6, [r7, #0]
    28ca:	4e1f      	ldr	r6, [pc, #124]	; (2948 <Code_588+0x28>)
    28cc:	4770      	bx	lr
    28ce:	00000000 	andeq	r0, r0, r0
    28d2:	100000c4 	andne	r0, r0, r4, asr #1
    28d6:	28f446c0 	ldmcs	r4!, {r6, r7, r9, sl, lr}^

000028d8 <Dictionary_584>:
    28d8:	000028f4 	strdeq	r2, [r0], -r4
    28dc:	73090000 	movwvc	r0, #36864	; 0x9000
    28e0:	6f737465 	svcvs	0x00737465
    28e4:	65637275 	strbvs	r7, [r3, #-629]!	; 0x275

000028e8 <Code_584>:
    28e8:	4817      	ldr	r0, [pc, #92]	; (2948 <Code_588+0x28>)
    28ea:	cf02      	ldmia	r7!, {r1}
    28ec:	6006      	str	r6, [r0, #0]
    28ee:	6041      	str	r1, [r0, #4]
    28f0:	cf40      	ldmia	r7!, {r6}
    28f2:	4770      	bx	lr

000028f4 <Dictionary_586>:
    28f4:	00002914 	andeq	r2, r0, r4, lsl r9
    28f8:	73060000 	movwvc	r0, #24576	; 0x6000
    28fc:	6372756f 	cmnvs	r2, #465567744	; 0x1bc00000
    2900:	3f040065 	svccc	0x00040065

00002902 <Code_586>:
    2902:	3f04      	subs	r7, #4
    2904:	603e      	str	r6, [r7, #0]
    2906:	4e10      	ldr	r6, [pc, #64]	; (2948 <Code_588+0x28>)
    2908:	3f04      	subs	r7, #4
    290a:	6870      	ldr	r0, [r6, #4]
    290c:	6038      	str	r0, [r7, #0]
    290e:	6836      	ldr	r6, [r6, #0]
    2910:	4770      	bx	lr
    2912:	46c0      	nop			; (mov r8, r8)

00002914 <Dictionary_588>:
    2914:	0000294c 	andeq	r2, r0, ip, asr #18
    2918:	71050000 	mrsvc	r0, (UNDEF: 5)
    291c:	79726575 	ldmdbvc	r2!, {r0, r2, r4, r5, r6, r8, sl, sp, lr}^

00002920 <Code_588>:
    2920:	b50f      	push	{r0, r1, r2, r3, lr}
    2922:	4808      	ldr	r0, [pc, #32]	; (2944 <Code_588+0x24>)
    2924:	2100      	movs	r1, #0
    2926:	6001      	str	r1, [r0, #0]
    2928:	f7ff ffb1 	bl	288e <Code_576>
    292c:	3f04      	subs	r7, #4
    292e:	603e      	str	r6, [r7, #0]
    2930:	3f04      	subs	r7, #4
    2932:	603e      	str	r6, [r7, #0]
    2934:	26c8      	movs	r6, #200	; 0xc8
    2936:	f7ff ff70 	bl	281a <Code_572>
    293a:	f7ff ffd5 	bl	28e8 <Code_584>
    293e:	bd0f      	pop	{r0, r1, r2, r3, pc}
    2940:	100000c4 	andne	r0, r0, r4, asr #1
    2944:	10000fc0 	andne	r0, r0, r0, asr #31
    2948:	10000fb8 			; <UNDEFINED> instruction: 0x10000fb8

0000294c <Dictionary_593>:
    294c:	0000299c 	muleq	r0, ip, r9
    2950:	63070000 	movwvs	r0, #28672	; 0x7000
    2954:	61706d6f 	cmnvs	r0, pc, ror #26
    2958:	b50f6572 	strlt	r6, [pc, #-1394]	; 23ee <Code_501+0x4>

0000295a <Code_593>:
    295a:	b50f      	push	{r0, r1, r2, r3, lr}
    295c:	0031      	movs	r1, r6
    295e:	cf40      	ldmia	r7!, {r6}
    2960:	cf01      	ldmia	r7!, {r0}
    2962:	4288      	cmp	r0, r1
    2964:	d002      	beq.n	296c <Code_593+0x12>
    2966:	cf40      	ldmia	r7!, {r6}
    2968:	2600      	movs	r6, #0
    296a:	bd0f      	pop	{r0, r1, r2, r3, pc}
    296c:	cf02      	ldmia	r7!, {r1}
    296e:	2800      	cmp	r0, #0
    2970:	d010      	beq.n	2994 <Code_593+0x3a>
    2972:	3801      	subs	r0, #1
    2974:	5c0a      	ldrb	r2, [r1, r0]
    2976:	5c33      	ldrb	r3, [r6, r0]
    2978:	2a41      	cmp	r2, #65	; 0x41
    297a:	d302      	bcc.n	2982 <Code_593+0x28>
    297c:	2a5b      	cmp	r2, #91	; 0x5b
    297e:	d200      	bcs.n	2982 <Code_593+0x28>
    2980:	3220      	adds	r2, #32
    2982:	2b41      	cmp	r3, #65	; 0x41
    2984:	d302      	bcc.n	298c <Code_593+0x32>
    2986:	2b5b      	cmp	r3, #91	; 0x5b
    2988:	d200      	bcs.n	298c <Code_593+0x32>
    298a:	3320      	adds	r3, #32
    298c:	429a      	cmp	r2, r3
    298e:	d0ee      	beq.n	296e <Code_593+0x14>
    2990:	2600      	movs	r6, #0
    2992:	bd0f      	pop	{r0, r1, r2, r3, pc}
    2994:	2600      	movs	r6, #0
    2996:	43f6      	mvns	r6, r6
    2998:	bd0f      	pop	{r0, r1, r2, r3, pc}
    299a:	46c0      	nop			; (mov r8, r8)

0000299c <Dictionary_598>:
    299c:	000029b0 			; <UNDEFINED> instruction: 0x000029b0
    29a0:	63020000 	movwvs	r0, #8192	; 0x2000
    29a4:	b5000072 	strlt	r0, [r0, #-114]	; 0x72

000029a6 <Code_598>:
    29a6:	b500      	push	{lr}
    29a8:	f000 f864 	bl	2a74 <dotgaensefuesschen>
    29ac:	bd000a01 	vstrlt	s0, [r0, #-4]

000029b0 <Dictionary_600>:
    29b0:	000029c4 	andeq	r2, r0, r4, asr #19
    29b4:	62020000 	andvs	r0, r2, #0
    29b8:	3f04006c 	svccc	0x0004006c

000029ba <Code_600>:
    29ba:	3f04      	subs	r7, #4
    29bc:	603e      	str	r6, [r7, #0]
    29be:	2620      	movs	r6, #32
    29c0:	4770      	bx	lr
    29c2:	46c0      	nop			; (mov r8, r8)

000029c4 <Dictionary_603>:
    29c4:	000029d8 	ldrdeq	r2, [r0], -r8
    29c8:	73050000 	movwvc	r0, #20480	; 0x5000
    29cc:	65636170 	strbvs	r6, [r3, #-368]!	; 0x170

000029d0 <Code_603>:
    29d0:	3f04      	subs	r7, #4
    29d2:	603e      	str	r6, [r7, #0]
    29d4:	2620      	movs	r6, #32
    29d6:	e65d      	b.n	2694 <Code_553>

000029d8 <Dictionary_606>:
    29d8:	000029f8 	strdeq	r2, [r0], -r8
    29dc:	73060000 	movwvc	r0, #24576	; 0x6000
    29e0:	65636170 	strbvs	r6, [r3, #-368]!	; 0x170
    29e4:	b5000073 	strlt	r0, [r0, #-115]	; 0x73

000029e6 <Code_606>:
    29e6:	b500      	push	{lr}
    29e8:	2e00      	cmp	r6, #0
    29ea:	dd03      	ble.n	29f4 <Code_606+0xe>
    29ec:	f7ff fff0 	bl	29d0 <Code_603>
    29f0:	3e01      	subs	r6, #1
    29f2:	d1fb      	bne.n	29ec <Code_606+0x6>
    29f4:	cf40      	ldmia	r7!, {r6}
    29f6:	bd00      	pop	{pc}

000029f8 <Dictionary_608>:
    29f8:	00002a08 	andeq	r2, r0, r8, lsl #20
    29fc:	5b060050 	blpl	182b44 <BIT20+0x82b44>
    2a00:	72616863 	rsbvc	r6, r1, #6488064	; 0x630000
    2a04:	e005005d 	and	r0, r5, sp, asr r0

00002a06 <Code_608>:
    2a06:	e005      	b.n	2a14 <Code_609>

00002a08 <Dictionary_609>:
    2a08:	00002a20 	andeq	r2, r0, r0, lsr #20
    2a0c:	63040000 	movwvs	r0, #16384	; 0x4000
    2a10:	00726168 	rsbseq	r6, r2, r8, ror #2

00002a14 <Code_609>:
    2a14:	b500      	push	{lr}
    2a16:	f001 fc53 	bl	42c0 <Code_1113>
    2a1a:	cf40      	ldmia	r7!, {r6}
    2a1c:	7836      	ldrb	r6, [r6, #0]
    2a1e:	bd00      	pop	{pc}

00002a20 <Dictionary_611>:
    2a20:	00002a30 	andeq	r2, r0, r0, lsr sl
    2a24:	28010450 	stmdacs	r1, {r4, r6, sl}

00002a28 <Code_611>:
    2a28:	3f04      	subs	r7, #4
    2a2a:	603e      	str	r6, [r7, #0]
    2a2c:	2629      	movs	r6, #41	; 0x29
    2a2e:	e006      	b.n	2a3e <Code_614+0x6>

00002a30 <Dictionary_614>:
    2a30:	00002a4c 	andeq	r2, r0, ip, asr #20
    2a34:	5c010450 	cfstrspl	mvf0, [r1], {80}	; 0x50

00002a38 <Code_614>:
    2a38:	3f04      	subs	r7, #4
    2a3a:	603e      	str	r6, [r7, #0]
    2a3c:	2600      	movs	r6, #0
    2a3e:	b500      	push	{lr}
    2a40:	f001 fc48 	bl	42d4 <Code_1115>
    2a44:	3704      	adds	r7, #4
    2a46:	cf40      	ldmia	r7!, {r6}
    2a48:	bd00      	pop	{pc}
    2a4a:	46c0      	nop			; (mov r8, r8)

00002a4c <Dictionary_619>:
    2a4c:	00002a94 	muleq	r0, r4, sl
    2a50:	2e020010 	mcrcs	0, 0, r0, cr2, cr0, {0}
    2a54:	489f0022 	ldmmi	pc, {r1, r5}	; <UNPREDICTABLE>

00002a56 <Code_619>:
    2a56:	489f      	ldr	r0, [pc, #636]	; (2cd4 <Code_658+0x94>)
    2a58:	b500      	push	{lr}
    2a5a:	3f04      	subs	r7, #4
    2a5c:	603e      	str	r6, [r7, #0]
    2a5e:	0006      	movs	r6, r0
    2a60:	f000 f9f8 	bl	2e54 <Code_705>
    2a64:	3f04      	subs	r7, #4
    2a66:	603e      	str	r6, [r7, #0]
    2a68:	2622      	movs	r6, #34	; 0x22
    2a6a:	f001 fc33 	bl	42d4 <Code_1115>
    2a6e:	f000 fd66 	bl	353e <Code_841>
    2a72:	bd00      	pop	{pc}

00002a74 <dotgaensefuesschen>:
    2a74:	b40a      	push	{r1, r3}
    2a76:	3f04      	subs	r7, #4
    2a78:	603e      	str	r6, [r7, #0]
    2a7a:	4676      	mov	r6, lr
    2a7c:	3e01      	subs	r6, #1
    2a7e:	7833      	ldrb	r3, [r6, #0]
    2a80:	2101      	movs	r1, #1
    2a82:	3301      	adds	r3, #1
    2a84:	4019      	ands	r1, r3
    2a86:	185b      	adds	r3, r3, r1
    2a88:	4671      	mov	r1, lr
    2a8a:	18c9      	adds	r1, r1, r3
    2a8c:	468e      	mov	lr, r1
    2a8e:	bc0a      	pop	{r1, r3}
    2a90:	e03c      	b.n	2b0c <Code_634>
    2a92:	46c0      	nop			; (mov r8, r8)

00002a94 <Dictionary_625>:
    2a94:	00002abc 			; <UNDEFINED> instruction: 0x00002abc
    2a98:	63020010 	movwvs	r0, #8208	; 0x2010
    2a9c:	488e0022 	stmmi	lr, {r1, r5}

00002a9e <Code_625>:
    2a9e:	488e      	ldr	r0, [pc, #568]	; (2cd8 <Code_658+0x98>)
    2aa0:	e7da      	b.n	2a58 <Code_619+0x2>

00002aa2 <dotcfuesschen>:
    2aa2:	3f04      	subs	r7, #4
    2aa4:	603e      	str	r6, [r7, #0]
    2aa6:	4676      	mov	r6, lr
    2aa8:	3e01      	subs	r6, #1
    2aaa:	7833      	ldrb	r3, [r6, #0]
    2aac:	2101      	movs	r1, #1
    2aae:	3301      	adds	r3, #1
    2ab0:	4019      	ands	r1, r3
    2ab2:	185b      	adds	r3, r3, r1
    2ab4:	4671      	mov	r1, lr
    2ab6:	18c9      	adds	r1, r1, r3
    2ab8:	468e      	mov	lr, r1
    2aba:	4770      	bx	lr

00002abc <Dictionary_627>:
    2abc:	00002ae8 	andeq	r2, r0, r8, ror #21
    2ac0:	73020010 	movwvc	r0, #8208	; 0x2010
    2ac4:	48850022 	stmmi	r5, {r1, r5}

00002ac6 <Code_627>:
    2ac6:	4885      	ldr	r0, [pc, #532]	; (2cdc <Code_658+0x9c>)
    2ac8:	e7c6      	b.n	2a58 <Code_619+0x2>

00002aca <dotsfuesschen>:
    2aca:	3f04      	subs	r7, #4
    2acc:	603e      	str	r6, [r7, #0]
    2ace:	4676      	mov	r6, lr
    2ad0:	3f04      	subs	r7, #4
    2ad2:	603e      	str	r6, [r7, #0]
    2ad4:	3e01      	subs	r6, #1
    2ad6:	7836      	ldrb	r6, [r6, #0]
    2ad8:	2101      	movs	r1, #1
    2ada:	1c73      	adds	r3, r6, #1
    2adc:	4019      	ands	r1, r3
    2ade:	185b      	adds	r3, r3, r1
    2ae0:	4671      	mov	r1, lr
    2ae2:	18c9      	adds	r1, r1, r3
    2ae4:	468e      	mov	lr, r1
    2ae6:	4770      	bx	lr

00002ae8 <Dictionary_631>:
    2ae8:	00002b00 	andeq	r2, r0, r0, lsl #22
    2aec:	63050000 	movwvs	r0, #20480	; 0x5000
    2af0:	746e756f 	strbtvc	r7, [lr], #-1391	; 0x56f

00002af4 <Code_631>:
    2af4:	3601      	adds	r6, #1
    2af6:	3f04      	subs	r7, #4
    2af8:	603e      	str	r6, [r7, #0]
    2afa:	3e01      	subs	r6, #1
    2afc:	7836      	ldrb	r6, [r6, #0]
    2afe:	4770      	bx	lr

00002b00 <Dictionary_634>:
    2b00:	00002b28 	andeq	r2, r0, r8, lsr #22
    2b04:	63050000 	movwvs	r0, #20480	; 0x5000
    2b08:	65707974 	ldrbvs	r7, [r0, #-2420]!	; 0x974

00002b0c <Code_634>:
    2b0c:	b501      	push	{r0, lr}
    2b0e:	7830      	ldrb	r0, [r6, #0]
    2b10:	2800      	cmp	r0, #0
    2b12:	d007      	beq.n	2b24 <Code_634+0x18>
    2b14:	3601      	adds	r6, #1
    2b16:	3f04      	subs	r7, #4
    2b18:	603e      	str	r6, [r7, #0]
    2b1a:	7836      	ldrb	r6, [r6, #0]
    2b1c:	f7ff fdba 	bl	2694 <Code_553>
    2b20:	3801      	subs	r0, #1
    2b22:	d1f7      	bne.n	2b14 <Code_634+0x8>
    2b24:	cf40      	ldmia	r7!, {r6}
    2b26:	bd01      	pop	{r0, pc}

00002b28 <Dictionary_638>:
    2b28:	00002b58 	andeq	r2, r0, r8, asr fp
    2b2c:	74040000 	strvc	r0, [r4]
    2b30:	00657079 	rsbeq	r7, r5, r9, ror r0

00002b34 <Code_638>:
    2b34:	0031      	movs	r1, r6
    2b36:	cf40      	ldmia	r7!, {r6}
    2b38:	0030      	movs	r0, r6
    2b3a:	cf40      	ldmia	r7!, {r6}

00002b3c <stype_addr_r0_len_r1>:
    2b3c:	b500      	push	{lr}
    2b3e:	2900      	cmp	r1, #0
    2b40:	d008      	beq.n	2b54 <stype_addr_r0_len_r1+0x18>
    2b42:	2200      	movs	r2, #0
    2b44:	3f04      	subs	r7, #4
    2b46:	603e      	str	r6, [r7, #0]
    2b48:	5c86      	ldrb	r6, [r0, r2]
    2b4a:	f7ff fda3 	bl	2694 <Code_553>
    2b4e:	3201      	adds	r2, #1
    2b50:	4291      	cmp	r1, r2
    2b52:	d1f7      	bne.n	2b44 <stype_addr_r0_len_r1+0x8>
    2b54:	bd00      	pop	{pc}
    2b56:	46c0      	nop			; (mov r8, r8)

00002b58 <Dictionary_642>:
    2b58:	00002b94 	muleq	r0, r4, fp
    2b5c:	68040000 	stmdavs	r4, {}	; <UNPREDICTABLE>
    2b60:	002e7865 	eoreq	r7, lr, r5, ror #16

00002b64 <Code_642>:
    2b64:	b507      	push	{r0, r1, r2, lr}
    2b66:	0031      	movs	r1, r6
    2b68:	cf40      	ldmia	r7!, {r6}
    2b6a:	2020      	movs	r0, #32
    2b6c:	220f      	movs	r2, #15
    2b6e:	3804      	subs	r0, #4
    2b70:	3f04      	subs	r7, #4
    2b72:	603e      	str	r6, [r7, #0]
    2b74:	000e      	movs	r6, r1
    2b76:	40c6      	lsrs	r6, r0
    2b78:	4016      	ands	r6, r2
    2b7a:	2e09      	cmp	r6, #9
    2b7c:	d901      	bls.n	2b82 <Code_642+0x1e>
    2b7e:	3637      	adds	r6, #55	; 0x37
    2b80:	e000      	b.n	2b84 <Code_642+0x20>
    2b82:	3630      	adds	r6, #48	; 0x30
    2b84:	f7ff fd86 	bl	2694 <Code_553>
    2b88:	2800      	cmp	r0, #0
    2b8a:	d1f0      	bne.n	2b6e <Code_642+0xa>
    2b8c:	f7ff ff20 	bl	29d0 <Code_603>
    2b90:	bd07      	pop	{r0, r1, r2, pc}
    2b92:	46c0      	nop			; (mov r8, r8)

00002b94 <Dictionary_645>:
    2b94:	00002ba4 	andeq	r2, r0, r4, lsr #23
    2b98:	68030000 	stmdavs	r3, {}	; <UNPREDICTABLE>
    2b9c:	b51f732e 	ldrlt	r7, [pc, #-814]	; 2876 <Code_572+0x5c>

00002b9e <Code_645>:
    2b9e:	b51f      	push	{r0, r1, r2, r3, r4, lr}
    2ba0:	4c4f      	ldr	r4, [pc, #316]	; (2ce0 <Code_658+0xa0>)
    2ba2:	e00e      	b.n	2bc2 <Code_647+0x4>

00002ba4 <Dictionary_646>:
    2ba4:	00002bb4 			; <UNDEFINED> instruction: 0x00002bb4
    2ba8:	75030000 	strvc	r0, [r3]
    2bac:	b51f732e 	ldrlt	r7, [pc, #-814]	; 2886 <Dictionary_576+0x2>

00002bae <Code_646>:
    2bae:	b51f      	push	{r0, r1, r2, r3, r4, lr}
    2bb0:	4c4c      	ldr	r4, [pc, #304]	; (2ce4 <Code_658+0xa4>)
    2bb2:	e006      	b.n	2bc2 <Code_647+0x4>

00002bb4 <Dictionary_647>:
    2bb4:	00002c34 	andeq	r2, r0, r4, lsr ip
    2bb8:	2e020000 	cdpcs	0, 0, cr0, cr2, cr0, {0}
    2bbc:	b51f0073 	ldrlt	r0, [pc, #-115]	; 2b51 <stype_addr_r0_len_r1+0x15>

00002bbe <Code_647>:
    2bbe:	b51f      	push	{r0, r1, r2, r3, r4, lr}
    2bc0:	4c49      	ldr	r4, [pc, #292]	; (2ce8 <Code_658+0xa8>)
    2bc2:	494a      	ldr	r1, [pc, #296]	; (2cec <Code_658+0xac>)
    2bc4:	1bc9      	subs	r1, r1, r7
    2bc6:	0889      	lsrs	r1, r1, #2
    2bc8:	4a49      	ldr	r2, [pc, #292]	; (2cf0 <Code_658+0xb0>)
    2bca:	6810      	ldr	r0, [r2, #0]
    2bcc:	b403      	push	{r0, r1}
    2bce:	200a      	movs	r0, #10
    2bd0:	6010      	str	r0, [r2, #0]
    2bd2:	f7ff ff4f 	bl	2a74 <dotgaensefuesschen>
    2bd6:	61745308 	cmnvs	r4, r8, lsl #6
    2bda:	203a6b63 	eorscs	r6, sl, r3, ror #22
    2bde:	3f04005b 	svccc	0x0004005b
    2be2:	603e      	str	r6, [r7, #0]
    2be4:	000e      	movs	r6, r1
    2be6:	f001 fd53 	bl	4690 <Code_1181>
    2bea:	f7ff ff43 	bl	2a74 <dotgaensefuesschen>
    2bee:	00205d02 	eoreq	r5, r0, r2, lsl #26
    2bf2:	bc03      	pop	{r0, r1}
    2bf4:	4a3e      	ldr	r2, [pc, #248]	; (2cf0 <Code_658+0xb0>)
    2bf6:	6010      	str	r0, [r2, #0]
    2bf8:	2900      	cmp	r1, #0
    2bfa:	d00a      	beq.n	2c12 <Code_647+0x54>
    2bfc:	4a3d      	ldr	r2, [pc, #244]	; (2cf4 <Code_658+0xb4>)
    2bfe:	6810      	ldr	r0, [r2, #0]
    2c00:	b406      	push	{r1, r2}
    2c02:	3f04      	subs	r7, #4
    2c04:	603e      	str	r6, [r7, #0]
    2c06:	0006      	movs	r6, r0
    2c08:	47a0      	blx	r4
    2c0a:	bc06      	pop	{r1, r2}
    2c0c:	3a04      	subs	r2, #4
    2c0e:	3901      	subs	r1, #1
    2c10:	d1f5      	bne.n	2bfe <Code_647+0x40>
    2c12:	f7ff ff2f 	bl	2a74 <dotgaensefuesschen>
    2c16:	4f542006 	svcmi	0x00542006
    2c1a:	00203a53 	eoreq	r3, r0, r3, asr sl
    2c1e:	3f04      	subs	r7, #4
    2c20:	603e      	str	r6, [r7, #0]
    2c22:	0036      	movs	r6, r6
    2c24:	47a0      	blx	r4
    2c26:	f7ff ff25 	bl	2a74 <dotgaensefuesschen>
    2c2a:	3e2a2004 	cdpcc	0, 2, cr2, cr10, cr4, {0}
    2c2e:	bd1f000a 	ldclt	0, cr0, [pc, #-40]	; 2c0c <Code_647+0x4e>
    2c32:	46c0      	nop			; (mov r8, r8)

00002c34 <Dictionary_658>:
    2c34:	00002cf8 	strdeq	r2, [r0], -r8
    2c38:	77050000 	strvc	r0, [r5, -r0]
    2c3c:	7364726f 	cmnvc	r4, #-268435450	; 0xf0000006

00002c40 <Code_658>:
    2c40:	b500      	push	{lr}
    2c42:	f7ff ff17 	bl	2a74 <dotgaensefuesschen>
    2c46:	f0000a01 			; <UNDEFINED> instruction: 0xf0000a01
    2c4a:	fec1 f7ff 	mcr2	7, 6, pc, cr1, cr15, {7}	; <UNPREDICTABLE>
    2c4e:	ff12 4109 	vrhadd.u16	d4, d2, d9
    2c52:	65726464 	ldrbvs	r6, [r2, #-1124]!	; 0x464
    2c56:	203a7373 	eorscs	r7, sl, r3, ror r3
    2c5a:	3f04      	subs	r7, #4
    2c5c:	603e      	str	r6, [r7, #0]
    2c5e:	f7ff ff81 	bl	2b64 <Code_642>
    2c62:	f7ff ff07 	bl	2a74 <dotgaensefuesschen>
    2c66:	6e694c06 	cdpvs	12, 6, cr4, cr9, cr6, {0}
    2c6a:	00203a6b 	eoreq	r3, r0, fp, ror #20
    2c6e:	3f04      	subs	r7, #4
    2c70:	603e      	str	r6, [r7, #0]
    2c72:	6836      	ldr	r6, [r6, #0]
    2c74:	f7ff ff76 	bl	2b64 <Code_642>
    2c78:	f7ff fefc 	bl	2a74 <dotgaensefuesschen>
    2c7c:	616c4607 	cmnvs	ip, r7, lsl #12
    2c80:	203a7367 	eorscs	r7, sl, r7, ror #6
    2c84:	3f04      	subs	r7, #4
    2c86:	603e      	str	r6, [r7, #0]
    2c88:	88b6      	ldrh	r6, [r6, #4]
    2c8a:	f7ff ff6b 	bl	2b64 <Code_642>
    2c8e:	f7ff fef1 	bl	2a74 <dotgaensefuesschen>
    2c92:	646f4306 	strbtvs	r4, [pc], #-774	; 2c9a <Code_658+0x5a>
    2c96:	00203a65 	eoreq	r3, r0, r5, ror #20
    2c9a:	1db0      	adds	r0, r6, #6
    2c9c:	f000 fed2 	bl	3a44 <skipstring>
    2ca0:	3f04      	subs	r7, #4
    2ca2:	603e      	str	r6, [r7, #0]
    2ca4:	0006      	movs	r6, r0
    2ca6:	f7ff ff5d 	bl	2b64 <Code_642>
    2caa:	f7ff fee3 	bl	2a74 <dotgaensefuesschen>
    2cae:	6d614e06 	stclvs	14, cr4, [r1, #-24]!	; 0xffffffe8
    2cb2:	00203a65 	eoreq	r3, r0, r5, ror #20
    2cb6:	3f04      	subs	r7, #4
    2cb8:	603e      	str	r6, [r7, #0]
    2cba:	3606      	adds	r6, #6
    2cbc:	f7ff ff26 	bl	2b0c <Code_634>
    2cc0:	f7ff fed8 	bl	2a74 <dotgaensefuesschen>
    2cc4:	f0000a01 			; <UNDEFINED> instruction: 0xf0000a01
    2cc8:	fe9a 0030 	mrc2	0, 4, r0, cr10, cr0, {1}
    2ccc:	cf40      	ldmia	r7!, {r6}
    2cce:	d0bd      	beq.n	2c4c <Code_658+0xc>
    2cd0:	cf40      	ldmia	r7!, {r6}
    2cd2:	bd00      	pop	{pc}
    2cd4:	00002a74 	andeq	r2, r0, r4, ror sl
    2cd8:	00002aa2 	andeq	r2, r0, r2, lsr #21
    2cdc:	00002aca 	andeq	r2, r0, sl, asr #21
    2ce0:	00002b65 	andeq	r2, r0, r5, ror #22
    2ce4:	0000467f 	andeq	r4, r0, pc, ror r6
    2ce8:	00004691 	muleq	r0, r1, r6
    2cec:	1000038c 	andne	r0, r0, ip, lsl #7
    2cf0:	10000fd8 	ldrdne	r0, [r0], -r8
    2cf4:	10000388 	andne	r0, r0, r8, lsl #7

00002cf8 <Dictionary_678>:
    2cf8:	00002e48 	andeq	r2, r0, r8, asr #28
    2cfc:	72100000 	andsvc	r0, r0, #0
    2d00:	73696765 	cmnvc	r9, #26476544	; 0x1940000
    2d04:	6c726574 	cfldr64vs	mvdx6, [r2], #-464	; 0xfffffe30
    2d08:	72657469 	rsbvc	r7, r5, #1761607680	; 0x69000000
    2d0c:	002c6c61 	eoreq	r6, ip, r1, ror #24

00002d10 <Code_678>:
    2d10:	b53f      	push	{r0, r1, r2, r3, r4, r5, lr}
    2d12:	4bb4      	ldr	r3, [pc, #720]	; (2fe4 <builds_ram+0x2c>)
    2d14:	6838      	ldr	r0, [r7, #0]
    2d16:	4018      	ands	r0, r3
    2d18:	4298      	cmp	r0, r3
    2d1a:	d10f      	bne.n	2d3c <Code_678+0x2c>
    2d1c:	6838      	ldr	r0, [r7, #0]
    2d1e:	43c0      	mvns	r0, r0
    2d20:	6038      	str	r0, [r7, #0]
    2d22:	b440      	push	{r6}
    2d24:	f000 f80d 	bl	2d42 <registerliteralkomma_intern>
    2d28:	3f04      	subs	r7, #4
    2d2a:	603e      	str	r6, [r7, #0]
    2d2c:	4eae      	ldr	r6, [pc, #696]	; (2fe8 <builds_ram+0x30>)
    2d2e:	bc01      	pop	{r0}
    2d30:	4306      	orrs	r6, r0
    2d32:	00c0      	lsls	r0, r0, #3
    2d34:	4306      	orrs	r6, r0
    2d36:	f000 fbc2 	bl	34be <Code_829>
    2d3a:	bd3f      	pop	{r0, r1, r2, r3, r4, r5, pc}
    2d3c:	f000 f801 	bl	2d42 <registerliteralkomma_intern>
    2d40:	bd3f      	pop	{r0, r1, r2, r3, r4, r5, pc}

00002d42 <registerliteralkomma_intern>:
    2d42:	b500      	push	{lr}
    2d44:	0035      	movs	r5, r6
    2d46:	cf40      	ldmia	r7!, {r6}
    2d48:	0029      	movs	r1, r5
    2d4a:	00c9      	lsls	r1, r1, #3
    2d4c:	4329      	orrs	r1, r5
    2d4e:	022d      	lsls	r5, r5, #8
    2d50:	48a6      	ldr	r0, [pc, #664]	; (2fec <builds_ram+0x34>)
    2d52:	4305      	orrs	r5, r0
    2d54:	23ff      	movs	r3, #255	; 0xff
    2d56:	2200      	movs	r2, #0
    2d58:	0030      	movs	r0, r6
    2d5a:	40d0      	lsrs	r0, r2
    2d5c:	4398      	bics	r0, r3
    2d5e:	d001      	beq.n	2d64 <registerliteralkomma_intern+0x22>
    2d60:	3201      	adds	r2, #1
    2d62:	e7f9      	b.n	2d58 <registerliteralkomma_intern+0x16>
    2d64:	0030      	movs	r0, r6
    2d66:	40d0      	lsrs	r0, r2
    2d68:	4018      	ands	r0, r3
    2d6a:	4328      	orrs	r0, r5
    2d6c:	3f04      	subs	r7, #4
    2d6e:	603e      	str	r6, [r7, #0]
    2d70:	0006      	movs	r6, r0
    2d72:	f000 fba4 	bl	34be <Code_829>
    2d76:	489e      	ldr	r0, [pc, #632]	; (2ff0 <builds_ram+0x38>)
    2d78:	4305      	orrs	r5, r0
    2d7a:	0018      	movs	r0, r3
    2d7c:	4090      	lsls	r0, r2
    2d7e:	4386      	bics	r6, r0
    2d80:	d010      	beq.n	2da4 <registerliteralkomma_intern+0x62>
    2d82:	2400      	movs	r4, #0
    2d84:	0030      	movs	r0, r6
    2d86:	40e0      	lsrs	r0, r4
    2d88:	4398      	bics	r0, r3
    2d8a:	d001      	beq.n	2d90 <registerliteralkomma_intern+0x4e>
    2d8c:	3401      	adds	r4, #1
    2d8e:	e7f9      	b.n	2d84 <registerliteralkomma_intern+0x42>
    2d90:	1b10      	subs	r0, r2, r4
    2d92:	3f04      	subs	r7, #4
    2d94:	603e      	str	r6, [r7, #0]
    2d96:	000e      	movs	r6, r1
    2d98:	0180      	lsls	r0, r0, #6
    2d9a:	4306      	orrs	r6, r0
    2d9c:	f000 fb8f 	bl	34be <Code_829>
    2da0:	0022      	movs	r2, r4
    2da2:	e7df      	b.n	2d64 <registerliteralkomma_intern+0x22>
    2da4:	2a00      	cmp	r2, #0
    2da6:	d006      	beq.n	2db6 <registerliteralkomma_intern+0x74>
    2da8:	3f04      	subs	r7, #4
    2daa:	603e      	str	r6, [r7, #0]
    2dac:	000e      	movs	r6, r1
    2dae:	0192      	lsls	r2, r2, #6
    2db0:	4316      	orrs	r6, r2
    2db2:	f000 fb84 	bl	34be <Code_829>
    2db6:	cf40      	ldmia	r7!, {r6}
    2db8:	bd00      	pop	{pc}

00002dba <registerliteralkommalang>:
    2dba:	b51f      	push	{r0, r1, r2, r3, r4, lr}
    2dbc:	0031      	movs	r1, r6
    2dbe:	cf40      	ldmia	r7!, {r6}
    2dc0:	4c8c      	ldr	r4, [pc, #560]	; (2ff4 <builds_ram+0x3c>)
    2dc2:	430c      	orrs	r4, r1
    2dc4:	00c9      	lsls	r1, r1, #3
    2dc6:	430c      	orrs	r4, r1
    2dc8:	0149      	lsls	r1, r1, #5
    2dca:	0030      	movs	r0, r6
    2dcc:	cf40      	ldmia	r7!, {r6}
    2dce:	0e02      	lsrs	r2, r0, #24
    2dd0:	23ff      	movs	r3, #255	; 0xff
    2dd2:	401a      	ands	r2, r3
    2dd4:	4b85      	ldr	r3, [pc, #532]	; (2fec <builds_ram+0x34>)
    2dd6:	430b      	orrs	r3, r1
    2dd8:	4313      	orrs	r3, r2
    2dda:	3f04      	subs	r7, #4
    2ddc:	603e      	str	r6, [r7, #0]
    2dde:	001e      	movs	r6, r3
    2de0:	f000 fb6d 	bl	34be <Code_829>
    2de4:	3f04      	subs	r7, #4
    2de6:	603e      	str	r6, [r7, #0]
    2de8:	0026      	movs	r6, r4
    2dea:	f000 fb68 	bl	34be <Code_829>
    2dee:	0c02      	lsrs	r2, r0, #16
    2df0:	23ff      	movs	r3, #255	; 0xff
    2df2:	401a      	ands	r2, r3
    2df4:	4b80      	ldr	r3, [pc, #512]	; (2ff8 <builds_ram+0x40>)
    2df6:	430b      	orrs	r3, r1
    2df8:	4313      	orrs	r3, r2
    2dfa:	3f04      	subs	r7, #4
    2dfc:	603e      	str	r6, [r7, #0]
    2dfe:	001e      	movs	r6, r3
    2e00:	f000 fb5d 	bl	34be <Code_829>
    2e04:	3f04      	subs	r7, #4
    2e06:	603e      	str	r6, [r7, #0]
    2e08:	0026      	movs	r6, r4
    2e0a:	f000 fb58 	bl	34be <Code_829>
    2e0e:	0a02      	lsrs	r2, r0, #8
    2e10:	23ff      	movs	r3, #255	; 0xff
    2e12:	401a      	ands	r2, r3
    2e14:	4b78      	ldr	r3, [pc, #480]	; (2ff8 <builds_ram+0x40>)
    2e16:	430b      	orrs	r3, r1
    2e18:	4313      	orrs	r3, r2
    2e1a:	3f04      	subs	r7, #4
    2e1c:	603e      	str	r6, [r7, #0]
    2e1e:	001e      	movs	r6, r3
    2e20:	f000 fb4d 	bl	34be <Code_829>
    2e24:	3f04      	subs	r7, #4
    2e26:	603e      	str	r6, [r7, #0]
    2e28:	0026      	movs	r6, r4
    2e2a:	f000 fb48 	bl	34be <Code_829>
    2e2e:	0002      	movs	r2, r0
    2e30:	23ff      	movs	r3, #255	; 0xff
    2e32:	401a      	ands	r2, r3
    2e34:	4b70      	ldr	r3, [pc, #448]	; (2ff8 <builds_ram+0x40>)
    2e36:	430b      	orrs	r3, r1
    2e38:	4313      	orrs	r3, r2
    2e3a:	3f04      	subs	r7, #4
    2e3c:	603e      	str	r6, [r7, #0]
    2e3e:	001e      	movs	r6, r3
    2e40:	f000 fb3d 	bl	34be <Code_829>
    2e44:	bd1f      	pop	{r0, r1, r2, r3, r4, pc}
    2e46:	46c0      	nop			; (mov r8, r8)

00002e48 <Dictionary_705>:
    2e48:	00002eb8 			; <UNDEFINED> instruction: 0x00002eb8
    2e4c:	63050000 	movwvs	r0, #20480	; 0x5000
    2e50:	2c6c6c61 	stclcs	12, cr6, [ip], #-388	; 0xfffffe7c

00002e54 <Code_705>:
    2e54:	b50f      	push	{r0, r1, r2, r3, lr}
    2e56:	0033      	movs	r3, r6
    2e58:	f000 fe98 	bl	3b8c <Code_947>
    2e5c:	0030      	movs	r0, r6
    2e5e:	cf40      	ldmia	r7!, {r6}
    2e60:	1a1b      	subs	r3, r3, r0
    2e62:	3b04      	subs	r3, #4
    2e64:	4965      	ldr	r1, [pc, #404]	; (2ffc <builds_ram+0x44>)
    2e66:	4019      	ands	r1, r3
    2e68:	2900      	cmp	r1, #0
    2e6a:	d00e      	beq.n	2e8a <Code_705+0x36>
    2e6c:	4a64      	ldr	r2, [pc, #400]	; (3000 <builds_ram+0x48>)
    2e6e:	4291      	cmp	r1, r2
    2e70:	d00b      	beq.n	2e8a <Code_705+0x36>
    2e72:	3601      	adds	r6, #1
    2e74:	3f04      	subs	r7, #4
    2e76:	603e      	str	r6, [r7, #0]
    2e78:	2600      	movs	r6, #0
    2e7a:	f7ff ff49 	bl	2d10 <Code_678>
    2e7e:	3f04      	subs	r7, #4
    2e80:	603e      	str	r6, [r7, #0]
    2e82:	4e60      	ldr	r6, [pc, #384]	; (3004 <builds_ram+0x4c>)
    2e84:	f000 fb1b 	bl	34be <Code_829>
    2e88:	bd0f      	pop	{r0, r1, r2, r3, pc}
    2e8a:	cf40      	ldmia	r7!, {r6}
    2e8c:	085b      	lsrs	r3, r3, #1
    2e8e:	485e      	ldr	r0, [pc, #376]	; (3008 <builds_ram+0x50>)
    2e90:	495e      	ldr	r1, [pc, #376]	; (300c <builds_ram+0x54>)
    2e92:	4019      	ands	r1, r3
    2e94:	4308      	orrs	r0, r1
    2e96:	0adb      	lsrs	r3, r3, #11
    2e98:	495d      	ldr	r1, [pc, #372]	; (3010 <builds_ram+0x58>)
    2e9a:	4019      	ands	r1, r3
    2e9c:	0409      	lsls	r1, r1, #16
    2e9e:	4308      	orrs	r0, r1
    2ea0:	0a9b      	lsrs	r3, r3, #10
    2ea2:	2101      	movs	r1, #1
    2ea4:	4019      	ands	r1, r3
    2ea6:	0689      	lsls	r1, r1, #26
    2ea8:	4308      	orrs	r0, r1
    2eaa:	3f04      	subs	r7, #4
    2eac:	603e      	str	r6, [r7, #0]
    2eae:	0006      	movs	r6, r0
    2eb0:	f000 fb35 	bl	351e <Code_838>
    2eb4:	bd0f      	pop	{r0, r1, r2, r3, pc}
    2eb6:	46c0      	nop			; (mov r8, r8)

00002eb8 <Dictionary_714>:
    2eb8:	00002eec 	andeq	r2, r0, ip, ror #29
    2ebc:	6c080000 	stcvs	0, cr0, [r8], {0}
    2ec0:	72657469 	rsbvc	r7, r5, #1761607680	; 0x69000000
    2ec4:	002c6c61 	eoreq	r6, ip, r1, ror #24

00002ec8 <Code_714>:
    2ec8:	b500      	push	{lr}
    2eca:	3f04      	subs	r7, #4
    2ecc:	603e      	str	r6, [r7, #0]
    2ece:	4e51      	ldr	r6, [pc, #324]	; (3014 <builds_ram+0x5c>)
    2ed0:	f000 faf5 	bl	34be <Code_829>
    2ed4:	3f04      	subs	r7, #4
    2ed6:	603e      	str	r6, [r7, #0]
    2ed8:	4e4f      	ldr	r6, [pc, #316]	; (3018 <builds_ram+0x60>)
    2eda:	f000 faf0 	bl	34be <Code_829>
    2ede:	3f04      	subs	r7, #4
    2ee0:	603e      	str	r6, [r7, #0]
    2ee2:	2606      	movs	r6, #6
    2ee4:	f7ff ff14 	bl	2d10 <Code_678>
    2ee8:	bd00      	pop	{pc}
    2eea:	46c0      	nop			; (mov r8, r8)

00002eec <Dictionary_721>:
    2eec:	00002f14 	andeq	r2, r0, r4, lsl pc
    2ef0:	63060000 	movwvs	r0, #24576	; 0x6000
    2ef4:	74616572 	strbtvc	r6, [r1], #-1394	; 0x572
    2ef8:	b5000065 	strlt	r0, [r0, #-101]	; 0x65

00002efa <Code_721>:
    2efa:	b500      	push	{lr}
    2efc:	f000 f847 	bl	2f8e <Code_730>
    2f00:	202f      	movs	r0, #47	; 0x2f
    2f02:	0200      	lsls	r0, r0, #8
    2f04:	3033      	adds	r0, #51	; 0x33
    2f06:	4780      	blx	r0
    2f08:	3f04      	subs	r7, #4
    2f0a:	603e      	str	r6, [r7, #0]
    2f0c:	4676      	mov	r6, lr
    2f0e:	3e01      	subs	r6, #1
    2f10:	bd00      	pop	{pc}
    2f12:	46c0      	nop			; (mov r8, r8)

00002f14 <Dictionary_723>:
    2f14:	00002f80 	andeq	r2, r0, r0, lsl #31
    2f18:	64050020 	strvs	r0, [r5], #-32
    2f1c:	3e73656f 	cdpcc	5, 7, cr6, cr3, cr15, {3}

00002f20 <Code_723>:
    2f20:	202f      	movs	r0, #47	; 0x2f
    2f22:	0200      	lsls	r0, r0, #8
    2f24:	3033      	adds	r0, #51	; 0x33
    2f26:	4780      	blx	r0
    2f28:	3f04      	subs	r7, #4
    2f2a:	603e      	str	r6, [r7, #0]
    2f2c:	4676      	mov	r6, lr
    2f2e:	3e01      	subs	r6, #1
    2f30:	4770      	bx	lr

00002f32 <dodoes>:
    2f32:	3f04      	subs	r7, #4
    2f34:	603e      	str	r6, [r7, #0]
    2f36:	4676      	mov	r6, lr
    2f38:	3e01      	subs	r6, #1
    2f3a:	4a38      	ldr	r2, [pc, #224]	; (301c <builds_ram+0x64>)
    2f3c:	6813      	ldr	r3, [r2, #0]
    2f3e:	4938      	ldr	r1, [pc, #224]	; (3020 <builds_ram+0x68>)
    2f40:	6809      	ldr	r1, [r1, #0]
    2f42:	4836      	ldr	r0, [pc, #216]	; (301c <builds_ram+0x64>)
    2f44:	4283      	cmp	r3, r0
    2f46:	d205      	bcs.n	2f54 <dodoes_ram>
    2f48:	200f      	movs	r0, #15
    2f4a:	4008      	ands	r0, r1
    2f4c:	280e      	cmp	r0, #14
    2f4e:	d005      	beq.n	2f5c <dodoes_ram+0x8>
    2f50:	3102      	adds	r1, #2
    2f52:	e7f9      	b.n	2f48 <dodoes+0x16>

00002f54 <dodoes_ram>:
    2f54:	2002      	movs	r0, #2
    2f56:	4008      	ands	r0, r1
    2f58:	d100      	bne.n	2f5c <dodoes_ram+0x8>
    2f5a:	3102      	adds	r1, #2
    2f5c:	3102      	adds	r1, #2
    2f5e:	6011      	str	r1, [r2, #0]
    2f60:	3601      	adds	r6, #1
    2f62:	3f04      	subs	r7, #4
    2f64:	603e      	str	r6, [r7, #0]
    2f66:	2600      	movs	r6, #0
    2f68:	f7ff ff27 	bl	2dba <registerliteralkommalang>
    2f6c:	3f04      	subs	r7, #4
    2f6e:	603e      	str	r6, [r7, #0]
    2f70:	4e24      	ldr	r6, [pc, #144]	; (3004 <builds_ram+0x4c>)
    2f72:	f000 faa4 	bl	34be <Code_829>
    2f76:	6013      	str	r3, [r2, #0]
    2f78:	f000 f9fd 	bl	3376 <Code_813>
    2f7c:	bd00      	pop	{pc}
    2f7e:	46c0      	nop			; (mov r8, r8)

00002f80 <Dictionary_730>:
    2f80:	00003028 	andeq	r3, r0, r8, lsr #32
    2f84:	3c070000 	stccc	0, cr0, [r7], {0}
    2f88:	6c697562 	cfstr64vs	mvdx7, [r9], #-392	; 0xfffffe78
    2f8c:	b5007364 	strlt	r7, [r0, #-868]	; 0x364

00002f8e <Code_730>:
    2f8e:	b500      	push	{lr}
    2f90:	f000 fba2 	bl	36d8 <Code_860>
    2f94:	4821      	ldr	r0, [pc, #132]	; (301c <builds_ram+0x64>)
    2f96:	6801      	ldr	r1, [r0, #0]
    2f98:	4a20      	ldr	r2, [pc, #128]	; (301c <builds_ram+0x64>)
    2f9a:	4291      	cmp	r1, r2
    2f9c:	d20c      	bcs.n	2fb8 <builds_ram>
    2f9e:	f000 fdf5 	bl	3b8c <Code_947>
    2fa2:	200f      	movs	r0, #15
    2fa4:	4006      	ands	r6, r0
    2fa6:	2e0e      	cmp	r6, #14
    2fa8:	cf40      	ldmia	r7!, {r6}
    2faa:	d010      	beq.n	2fce <builds_ram+0x16>
    2fac:	3f04      	subs	r7, #4
    2fae:	603e      	str	r6, [r7, #0]
    2fb0:	2636      	movs	r6, #54	; 0x36
    2fb2:	f000 fa84 	bl	34be <Code_829>
    2fb6:	e7f2      	b.n	2f9e <Code_730+0x10>

00002fb8 <builds_ram>:
    2fb8:	f000 fde8 	bl	3b8c <Code_947>
    2fbc:	2002      	movs	r0, #2
    2fbe:	4006      	ands	r6, r0
    2fc0:	cf40      	ldmia	r7!, {r6}
    2fc2:	d104      	bne.n	2fce <builds_ram+0x16>
    2fc4:	3f04      	subs	r7, #4
    2fc6:	603e      	str	r6, [r7, #0]
    2fc8:	2636      	movs	r6, #54	; 0x36
    2fca:	f000 fa78 	bl	34be <Code_829>
    2fce:	3f04      	subs	r7, #4
    2fd0:	603e      	str	r6, [r7, #0]
    2fd2:	4e14      	ldr	r6, [pc, #80]	; (3024 <builds_ram+0x6c>)
    2fd4:	f000 fa73 	bl	34be <Code_829>
    2fd8:	3f04      	subs	r7, #4
    2fda:	603e      	str	r6, [r7, #0]
    2fdc:	2610      	movs	r6, #16
    2fde:	f000 fae1 	bl	35a4 <Code_849>
    2fe2:	bd00      	pop	{pc}
    2fe4:	ffff0000 			; <UNDEFINED> instruction: 0xffff0000
    2fe8:	000043c0 	andeq	r4, r0, r0, asr #7
    2fec:	00002000 	andeq	r2, r0, r0
    2ff0:	00001000 	andeq	r1, r0, r0
    2ff4:	00000200 	andeq	r0, r0, r0, lsl #4
    2ff8:	00003000 	andeq	r3, r0, r0
    2ffc:	ffc00001 			; <UNDEFINED> instruction: 0xffc00001
    3000:	ffc00000 			; <UNDEFINED> instruction: 0xffc00000
    3004:	00004780 	andeq	r4, r0, r0, lsl #15
    3008:	f000f800 			; <UNDEFINED> instruction: 0xf000f800
    300c:	000007ff 	strdeq	r0, [r0], -pc	; <UNPREDICTABLE>
    3010:	000003ff 	strdeq	r0, [r0], -pc	; <UNPREDICTABLE>
    3014:	00003f04 	andeq	r3, r0, r4, lsl #30
    3018:	0000603e 	andeq	r6, r0, lr, lsr r0
    301c:	10000000 	andne	r0, r0, r0
    3020:	10000014 	andne	r0, r0, r4, lsl r0
    3024:	0000b500 	andeq	fp, r0, r0, lsl #10

00003028 <Dictionary_741>:
    3028:	00003034 	andeq	r3, r0, r4, lsr r0
    302c:	5b030050 	blpl	c3174 <BIT19+0x43174>
    3030:	e0035d27 	and	r5, r3, r7, lsr #26

00003032 <Code_741>:
    3032:	e003      	b.n	303c <Code_742>

00003034 <Dictionary_742>:
    3034:	0000304c 	andeq	r3, r0, ip, asr #32
    3038:	27010000 	strcs	r0, [r1, -r0]

0000303c <Code_742>:
    303c:	b500      	push	{lr}
    303e:	f001 f93f 	bl	42c0 <Code_1113>
    3042:	f000 fd3e 	bl	3ac2 <find_not_found>
    3046:	0030      	movs	r0, r6
    3048:	cf40      	ldmia	r7!, {r6}
    304a:	bd00      	pop	{pc}

0000304c <Dictionary_744>:
    304c:	00003084 	andeq	r3, r0, r4, lsl #1
    3050:	70080030 	andvc	r0, r8, r0, lsr r0
    3054:	7074736f 	rsbsvc	r7, r4, pc, ror #6
    3058:	00656e6f 	rsbeq	r6, r5, pc, ror #28

0000305c <Code_744>:
    305c:	b500      	push	{lr}
    305e:	f7ff ffed 	bl	303c <Code_742>
    3062:	3f04      	subs	r7, #4
    3064:	603e      	str	r6, [r7, #0]
    3066:	0006      	movs	r6, r0
    3068:	6839      	ldr	r1, [r7, #0]
    306a:	603e      	str	r6, [r7, #0]
    306c:	460e      	mov	r6, r1
    306e:	f7ff ff2b 	bl	2ec8 <Code_714>
    3072:	f7ff ff29 	bl	2ec8 <Code_714>
    3076:	3f04      	subs	r7, #4
    3078:	603e      	str	r6, [r7, #0]
    307a:	4ee5      	ldr	r6, [pc, #916]	; (3410 <setflags_ram+0x1c>)
    307c:	f7ff feea 	bl	2e54 <Code_705>
    3080:	bd00      	pop	{pc}
    3082:	46c0      	nop			; (mov r8, r8)

00003084 <Dictionary_749>:
    3084:	000030d0 	ldrdeq	r3, [r0], -r0
    3088:	69070000 	stmdbvs	r7, {}	; <UNPREDICTABLE>
    308c:	6e696c6e 	cdpvs	12, 6, cr6, cr9, cr14, {3}
    3090:	b5002c65 	strlt	r2, [r0, #-3173]	; 0xc65

00003092 <Code_749>:
    3092:	b500      	push	{lr}
    3094:	49df      	ldr	r1, [pc, #892]	; (3414 <setflags_ram+0x20>)
    3096:	4ae0      	ldr	r2, [pc, #896]	; (3418 <setflags_ram+0x24>)
    3098:	4be0      	ldr	r3, [pc, #896]	; (341c <setflags_ram+0x28>)
    309a:	8830      	ldrh	r0, [r6, #0]
    309c:	4288      	cmp	r0, r1
    309e:	d008      	beq.n	30b2 <Code_749+0x20>
    30a0:	4290      	cmp	r0, r2
    30a2:	d008      	beq.n	30b6 <Code_749+0x24>
    30a4:	4298      	cmp	r0, r3
    30a6:	d006      	beq.n	30b6 <Code_749+0x24>
    30a8:	3f04      	subs	r7, #4
    30aa:	603e      	str	r6, [r7, #0]
    30ac:	0006      	movs	r6, r0
    30ae:	f000 fa06 	bl	34be <Code_829>
    30b2:	3602      	adds	r6, #2
    30b4:	e7f1      	b.n	309a <Code_749+0x8>
    30b6:	cf40      	ldmia	r7!, {r6}
    30b8:	bd00      	pop	{pc}

000030ba <suchedefinitionsende>:
    30ba:	b40e      	push	{r1, r2, r3}
    30bc:	4ad6      	ldr	r2, [pc, #856]	; (3418 <setflags_ram+0x24>)
    30be:	4bd7      	ldr	r3, [pc, #860]	; (341c <setflags_ram+0x28>)
    30c0:	8801      	ldrh	r1, [r0, #0]
    30c2:	3002      	adds	r0, #2
    30c4:	4291      	cmp	r1, r2
    30c6:	d001      	beq.n	30cc <suchedefinitionsende+0x12>
    30c8:	4299      	cmp	r1, r3
    30ca:	d1f9      	bne.n	30c0 <suchedefinitionsende+0x6>
    30cc:	bc0e      	pop	{r1, r2, r3}
    30ce:	4770      	bx	lr

000030d0 <Dictionary_753>:
    30d0:	000030e4 	andeq	r3, r0, r4, ror #1
    30d4:	72040000 	andvc	r0, r4, #0
    30d8:	002c7465 	eoreq	r7, ip, r5, ror #8

000030dc <Code_753>:
    30dc:	3f04      	subs	r7, #4
    30de:	603e      	str	r6, [r7, #0]
    30e0:	4ecd      	ldr	r6, [pc, #820]	; (3418 <setflags_ram+0x24>)
    30e2:	e1ec      	b.n	34be <Code_829>

000030e4 <Dictionary_756>:
    30e4:	000030f4 	strdeq	r3, [r0], -r4
    30e8:	65040030 	strvs	r0, [r4, #-48]	; 0x30
    30ec:	00746978 	rsbseq	r6, r4, r8, ror r9

000030f0 <Code_756>:
    30f0:	e7f4      	b.n	30dc <Code_753>
    30f2:	46c0      	nop			; (mov r8, r8)

000030f4 <Dictionary_757>:
    30f4:	0000310c 	andeq	r3, r0, ip, lsl #2
    30f8:	72070030 	andvc	r0, r7, #48	; 0x30
    30fc:	72756365 	rsbsvc	r6, r5, #-1811939327	; 0x94000001
    3100:	3f046573 	svccc	0x00046573

00003102 <Code_757>:
    3102:	3f04      	subs	r7, #4
    3104:	603e      	str	r6, [r7, #0]
    3106:	4ec6      	ldr	r6, [pc, #792]	; (3420 <setflags_ram+0x2c>)
    3108:	6836      	ldr	r6, [r6, #0]
    310a:	e6a3      	b.n	2e54 <Code_705>

0000310c <Dictionary_759>:
    310c:	00003124 	andeq	r3, r0, r4, lsr #2
    3110:	73050081 	movwvc	r0, #20609	; 0x5081
    3114:	65746174 	ldrbvs	r6, [r4, #-372]!	; 0x174

00003118 <Code_759>:
    3118:	3f04      	subs	r7, #4
    311a:	603e      	str	r6, [r7, #0]
    311c:	4ec1      	ldr	r6, [pc, #772]	; (3424 <setflags_ram+0x30>)
    311e:	4770      	bx	lr
    3120:	00000000 	andeq	r0, r0, r0

00003124 <Dictionary_762>:
    3124:	00003138 	andeq	r3, r0, r8, lsr r1
    3128:	5d010000 	stcpl	0, cr0, [r1]

0000312c <Code_762>:
    312c:	48bd      	ldr	r0, [pc, #756]	; (3424 <setflags_ram+0x30>)
    312e:	2100      	movs	r1, #0
    3130:	43c9      	mvns	r1, r1
    3132:	6001      	str	r1, [r0, #0]
    3134:	4770      	bx	lr
    3136:	46c0      	nop			; (mov r8, r8)

00003138 <Dictionary_763>:
    3138:	00003148 	andeq	r3, r0, r8, asr #2
    313c:	5b010010 	blpl	43184 <BIT18+0x3184>

00003140 <Code_763>:
    3140:	48b8      	ldr	r0, [pc, #736]	; (3424 <setflags_ram+0x30>)
    3142:	2100      	movs	r1, #0
    3144:	6001      	str	r1, [r0, #0]
    3146:	4770      	bx	lr

00003148 <Dictionary_764>:
    3148:	00003168 	andeq	r3, r0, r8, ror #2
    314c:	3a010000 	bcc	43154 <BIT18+0x3154>

00003150 <Code_764>:
    3150:	b500      	push	{lr}
    3152:	48b5      	ldr	r0, [pc, #724]	; (3428 <setflags_ram+0x34>)
    3154:	6007      	str	r7, [r0, #0]
    3156:	f000 fabf 	bl	36d8 <Code_860>
    315a:	48b2      	ldr	r0, [pc, #712]	; (3424 <setflags_ram+0x30>)
    315c:	2101      	movs	r1, #1
    315e:	6001      	str	r1, [r0, #0]
    3160:	48b2      	ldr	r0, [pc, #712]	; (342c <setflags_ram+0x38>)
    3162:	2100      	movs	r1, #0
    3164:	6001      	str	r1, [r0, #0]
    3166:	bd00      	pop	{pc}

00003168 <Dictionary_765>:
    3168:	000031d4 	ldrdeq	r3, [r0], -r4
    316c:	3b010830 	blcc	45234 <BIT18+0x5234>

00003170 <Code_765>:
    3170:	b500      	push	{lr}
    3172:	48ad      	ldr	r0, [pc, #692]	; (3428 <setflags_ram+0x34>)
    3174:	6801      	ldr	r1, [r0, #0]
    3176:	42b9      	cmp	r1, r7
    3178:	d00e      	beq.n	3198 <Code_765+0x28>
    317a:	f7ff fc7b 	bl	2a74 <dotgaensefuesschen>
    317e:	74532015 	ldrbvc	r2, [r3], #-21
    3182:	206b6361 	rsbcs	r6, fp, r1, ror #6
    3186:	20746f6e 	rsbscs	r6, r4, lr, ror #30
    318a:	616c6162 	cmnvs	ip, r2, ror #2
    318e:	6465636e 	strbtvs	r6, [r5], #-878	; 0x36e
    3192:	f0010a2e 			; <UNDEFINED> instruction: 0xf0010a2e
    3196:	fc12 48a2 	ldc2	8, cr4, [r2], {162}	; 0xa2
    319a:	6800      	ldr	r0, [r0, #0]
    319c:	1c41      	adds	r1, r0, #1
    319e:	d00e      	beq.n	31be <Code_765+0x4e>
    31a0:	280b      	cmp	r0, #11
    31a2:	d804      	bhi.n	31ae <Code_765+0x3e>
    31a4:	3f04      	subs	r7, #4
    31a6:	603e      	str	r6, [r7, #0]
    31a8:	4ea1      	ldr	r6, [pc, #644]	; (3430 <setflags_ram+0x3c>)
    31aa:	f000 f917 	bl	33dc <Code_819>
    31ae:	3f04      	subs	r7, #4
    31b0:	603e      	str	r6, [r7, #0]
    31b2:	4e9a      	ldr	r6, [pc, #616]	; (341c <setflags_ram+0x28>)
    31b4:	f000 f983 	bl	34be <Code_829>
    31b8:	f001 fb07 	bl	47ca <inline_cache_schreiben>
    31bc:	e004      	b.n	31c8 <Code_765+0x58>
    31be:	3f04      	subs	r7, #4
    31c0:	603e      	str	r6, [r7, #0]
    31c2:	4e95      	ldr	r6, [pc, #596]	; (3418 <setflags_ram+0x24>)
    31c4:	f000 f97b 	bl	34be <Code_829>
    31c8:	f000 f8d5 	bl	3376 <Code_813>
    31cc:	4895      	ldr	r0, [pc, #596]	; (3424 <setflags_ram+0x30>)
    31ce:	2100      	movs	r1, #0
    31d0:	6001      	str	r1, [r0, #0]
    31d2:	bd00      	pop	{pc}

000031d4 <Dictionary_773>:
    31d4:	000031e8 	andeq	r3, r0, r8, ror #3
    31d8:	65070000 	strvs	r0, [r7]
    31dc:	75636578 	strbvc	r6, [r3, #-1400]!	; 0x578
    31e0:	00306574 	eorseq	r6, r0, r4, ror r5

000031e2 <Code_773>:
    31e2:	0030      	movs	r0, r6
    31e4:	cf40      	ldmia	r7!, {r6}
    31e6:	4687      	mov	pc, r0

000031e8 <Dictionary_775>:
    31e8:	00003200 	andeq	r3, r0, r0, lsl #4
    31ec:	69090010 	stmdbvs	r9, {r4}
    31f0:	64656d6d 	strbtvs	r6, [r5], #-3437	; 0xd6d
    31f4:	65746169 	ldrbvs	r6, [r4, #-361]!	; 0x169

000031f8 <Code_775>:
    31f8:	3f04      	subs	r7, #4
    31fa:	603e      	str	r6, [r7, #0]
    31fc:	2610      	movs	r6, #16
    31fe:	e0ed      	b.n	33dc <Code_819>

00003200 <Dictionary_778>:
    3200:	00003218 	andeq	r3, r0, r8, lsl r2
    3204:	69060050 	stmdbvs	r6, {r4, r6}
    3208:	6e696c6e 	cdpvs	12, 6, cr6, cr9, cr14, {3}
    320c:	3f040065 	svccc	0x00040065

0000320e <Code_778>:
    320e:	3f04      	subs	r7, #4
    3210:	603e      	str	r6, [r7, #0]
    3212:	2620      	movs	r6, #32
    3214:	e0e2      	b.n	33dc <Code_819>
    3216:	46c0      	nop			; (mov r8, r8)

00003218 <Dictionary_781>:
    3218:	00003234 	andeq	r3, r0, r4, lsr r2
    321c:	630b0010 	movwvs	r0, #45072	; 0xb010
    3220:	69706d6f 	ldmdbvs	r0!, {r0, r1, r2, r3, r5, r6, r8, sl, fp, sp, lr}^
    3224:	6e6f656c 	cdpvs	5, 6, cr6, cr15, cr12, {3}
    3228:	3f04796c 	svccc	0x0004796c

0000322a <Code_781>:
    322a:	3f04      	subs	r7, #4
    322c:	603e      	str	r6, [r7, #0]
    322e:	2630      	movs	r6, #48	; 0x30
    3230:	e0d4      	b.n	33dc <Code_819>
    3232:	46c0      	nop			; (mov r8, r8)

00003234 <Dictionary_784>:
    3234:	00003250 	andeq	r3, r0, r0, asr r2
    3238:	300a0050 	andcc	r0, sl, r0, asr r0
    323c:	6c6f662d 	stclvs	6, cr6, [pc], #-180	; 3190 <Code_765+0x20>
    3240:	6c626164 	stfvse	f6, [r2], #-400	; 0xfffffe70
    3244:	3f040065 	svccc	0x00040065

00003246 <Code_784>:
    3246:	3f04      	subs	r7, #4
    3248:	603e      	str	r6, [r7, #0]
    324a:	2640      	movs	r6, #64	; 0x40
    324c:	e0c6      	b.n	33dc <Code_819>
    324e:	46c0      	nop			; (mov r8, r8)

00003250 <Dictionary_787>:
    3250:	0000326c 	andeq	r3, r0, ip, ror #4
    3254:	310a0050 	qaddcc	r0, r0, sl
    3258:	6c6f662d 	stclvs	6, cr6, [pc], #-180	; 31ac <Code_765+0x3c>
    325c:	6c626164 	stfvse	f6, [r2], #-400	; 0xfffffe70
    3260:	3f040065 	svccc	0x00040065

00003262 <Code_787>:
    3262:	3f04      	subs	r7, #4
    3264:	603e      	str	r6, [r7, #0]
    3266:	2641      	movs	r6, #65	; 0x41
    3268:	e0b8      	b.n	33dc <Code_819>
    326a:	46c0      	nop			; (mov r8, r8)

0000326c <Dictionary_790>:
    326c:	00003288 	andeq	r3, r0, r8, lsl #5
    3270:	320a0050 	andcc	r0, sl, #80	; 0x50
    3274:	6c6f662d 	stclvs	6, cr6, [pc], #-180	; 31c8 <Code_765+0x58>
    3278:	6c626164 	stfvse	f6, [r2], #-400	; 0xfffffe70
    327c:	3f040065 	svccc	0x00040065

0000327e <Code_790>:
    327e:	3f04      	subs	r7, #4
    3280:	603e      	str	r6, [r7, #0]
    3282:	2642      	movs	r6, #66	; 0x42
    3284:	e0aa      	b.n	33dc <Code_819>
    3286:	46c0      	nop			; (mov r8, r8)

00003288 <Dictionary_793>:
    3288:	000032a4 	andeq	r3, r0, r4, lsr #5
    328c:	330a0050 	movwcc	r0, #41040	; 0xa050
    3290:	6c6f662d 	stclvs	6, cr6, [pc], #-180	; 31e4 <Code_773+0x2>
    3294:	6c626164 	stfvse	f6, [r2], #-400	; 0xfffffe70
    3298:	3f040065 	svccc	0x00040065

0000329a <Code_793>:
    329a:	3f04      	subs	r7, #4
    329c:	603e      	str	r6, [r7, #0]
    329e:	2643      	movs	r6, #67	; 0x43
    32a0:	e09c      	b.n	33dc <Code_819>
    32a2:	46c0      	nop			; (mov r8, r8)

000032a4 <Dictionary_796>:
    32a4:	000032c0 	andeq	r3, r0, r0, asr #5
    32a8:	340a0050 	strcc	r0, [sl], #-80	; 0x50
    32ac:	6c6f662d 	stclvs	6, cr6, [pc], #-180	; 3200 <Dictionary_778>
    32b0:	6c626164 	stfvse	f6, [r2], #-400	; 0xfffffe70
    32b4:	3f040065 	svccc	0x00040065

000032b6 <Code_796>:
    32b6:	3f04      	subs	r7, #4
    32b8:	603e      	str	r6, [r7, #0]
    32ba:	2644      	movs	r6, #68	; 0x44
    32bc:	e08e      	b.n	33dc <Code_819>
    32be:	46c0      	nop			; (mov r8, r8)

000032c0 <Dictionary_799>:
    32c0:	000032dc 	ldrdeq	r3, [r0], -ip
    32c4:	350a0050 	strcc	r0, [sl, #-80]	; 0x50
    32c8:	6c6f662d 	stclvs	6, cr6, [pc], #-180	; 321c <Dictionary_781+0x4>
    32cc:	6c626164 	stfvse	f6, [r2], #-400	; 0xfffffe70
    32d0:	3f040065 	svccc	0x00040065

000032d2 <Code_799>:
    32d2:	3f04      	subs	r7, #4
    32d4:	603e      	str	r6, [r7, #0]
    32d6:	2645      	movs	r6, #69	; 0x45
    32d8:	e080      	b.n	33dc <Code_819>
    32da:	46c0      	nop			; (mov r8, r8)

000032dc <Dictionary_802>:
    32dc:	000032f8 	strdeq	r3, [r0], -r8
    32e0:	360a0050 			; <UNDEFINED> instruction: 0x360a0050
    32e4:	6c6f662d 	stclvs	6, cr6, [pc], #-180	; 3238 <Dictionary_784+0x4>
    32e8:	6c626164 	stfvse	f6, [r2], #-400	; 0xfffffe70
    32ec:	3f040065 	svccc	0x00040065

000032ee <Code_802>:
    32ee:	3f04      	subs	r7, #4
    32f0:	603e      	str	r6, [r7, #0]
    32f2:	2646      	movs	r6, #70	; 0x46
    32f4:	e072      	b.n	33dc <Code_819>
    32f6:	46c0      	nop			; (mov r8, r8)

000032f8 <Dictionary_805>:
    32f8:	00003314 	andeq	r3, r0, r4, lsl r3
    32fc:	370a0050 	smlsdcc	sl, r0, r0, r0
    3300:	6c6f662d 	stclvs	6, cr6, [pc], #-180	; 3254 <Dictionary_787+0x4>
    3304:	6c626164 	stfvse	f6, [r2], #-400	; 0xfffffe70
    3308:	3f040065 	svccc	0x00040065

0000330a <Code_805>:
    330a:	3f04      	subs	r7, #4
    330c:	603e      	str	r6, [r7, #0]
    330e:	2647      	movs	r6, #71	; 0x47
    3310:	e064      	b.n	33dc <Code_819>
    3312:	46c0      	nop			; (mov r8, r8)

00003314 <Dictionary_808>:
    3314:	00003344 	andeq	r3, r0, r4, asr #6
    3318:	63080000 	movwvs	r0, #32768	; 0x8000
    331c:	74736e6f 	ldrbtvc	r6, [r3], #-3695	; 0xe6f
    3320:	00746e61 	rsbseq	r6, r4, r1, ror #28

00003324 <Code_808>:
    3324:	b500      	push	{lr}
    3326:	f000 f9d7 	bl	36d8 <Code_860>
    332a:	f7ff fdcd 	bl	2ec8 <Code_714>
    332e:	3f04      	subs	r7, #4
    3330:	603e      	str	r6, [r7, #0]
    3332:	4e3a      	ldr	r6, [pc, #232]	; (341c <setflags_ram+0x28>)
    3334:	f000 f8c3 	bl	34be <Code_829>
    3338:	f7ff ff85 	bl	3246 <Code_784>
    333c:	f000 f81b 	bl	3376 <Code_813>
    3340:	bd00      	pop	{pc}
    3342:	46c0      	nop			; (mov r8, r8)

00003344 <Dictionary_811>:
    3344:	00003368 	andeq	r3, r0, r8, ror #6
    3348:	32090000 	andcc	r0, r9, #0
    334c:	736e6f63 	cmnvc	lr, #396	; 0x18c
    3350:	746e6174 	strbtvc	r6, [lr], #-372	; 0x174

00003354 <Code_811>:
    3354:	b500      	push	{lr}
    3356:	f000 f9bf 	bl	36d8 <Code_860>
    335a:	6839      	ldr	r1, [r7, #0]
    335c:	603e      	str	r6, [r7, #0]
    335e:	460e      	mov	r6, r1
    3360:	f7ff fdb2 	bl	2ec8 <Code_714>
    3364:	e7e1      	b.n	332a <Code_808+0x6>
    3366:	46c0      	nop			; (mov r8, r8)

00003368 <Dictionary_813>:
    3368:	000033cc 	andeq	r3, r0, ip, asr #7
    336c:	73060000 	movwvc	r0, #24576	; 0x6000
    3370:	6764756d 	strbvs	r7, [r4, -sp, ror #10]!
    3374:	b5000065 	strlt	r0, [r0, #-101]	; 0x65

00003376 <Code_813>:
    3376:	b500      	push	{lr}
    3378:	482e      	ldr	r0, [pc, #184]	; (3434 <setflags_ram+0x40>)
    337a:	6801      	ldr	r1, [r0, #0]
    337c:	4a2d      	ldr	r2, [pc, #180]	; (3434 <setflags_ram+0x40>)
    337e:	4291      	cmp	r1, r2
    3380:	d21e      	bcs.n	33c0 <smudge_ram>
    3382:	3902      	subs	r1, #2
    3384:	880a      	ldrh	r2, [r1, #0]
    3386:	4b2c      	ldr	r3, [pc, #176]	; (3438 <setflags_ram+0x44>)
    3388:	429a      	cmp	r2, r3
    338a:	d104      	bne.n	3396 <Code_813+0x20>
    338c:	3f04      	subs	r7, #4
    338e:	603e      	str	r6, [r7, #0]
    3390:	4e2a      	ldr	r6, [pc, #168]	; (343c <setflags_ram+0x48>)
    3392:	f000 f894 	bl	34be <Code_829>
    3396:	f000 f86b 	bl	3470 <Code_823>
    339a:	f000 f87d 	bl	3498 <Code_826>
    339e:	4828      	ldr	r0, [pc, #160]	; (3440 <setflags_ram+0x4c>)
    33a0:	6800      	ldr	r0, [r0, #0]
    33a2:	3f04      	subs	r7, #4
    33a4:	603e      	str	r6, [r7, #0]
    33a6:	0006      	movs	r6, r0
    33a8:	4926      	ldr	r1, [pc, #152]	; (3444 <setflags_ram+0x50>)
    33aa:	6809      	ldr	r1, [r1, #0]
    33ac:	3104      	adds	r1, #4
    33ae:	4a21      	ldr	r2, [pc, #132]	; (3434 <setflags_ram+0x40>)
    33b0:	6813      	ldr	r3, [r2, #0]
    33b2:	6011      	str	r1, [r2, #0]
    33b4:	f000 f883 	bl	34be <Code_829>
    33b8:	6013      	str	r3, [r2, #0]
    33ba:	f7fe ff06 	bl	21ca <Code_449>
    33be:	bd00      	pop	{pc}

000033c0 <smudge_ram>:
    33c0:	f000 f856 	bl	3470 <Code_823>
    33c4:	3f04      	subs	r7, #4
    33c6:	603e      	str	r6, [r7, #0]
    33c8:	2600      	movs	r6, #0
    33ca:	e008      	b.n	33de <setflags_intern>

000033cc <Dictionary_819>:
    33cc:	00003448 	andeq	r3, r0, r8, asr #8
    33d0:	73080000 	movwvc	r0, #32768	; 0x8000
    33d4:	6c667465 	cfstrdvs	mvd7, [r6], #-404	; 0xfffffe6c
    33d8:	00736761 	rsbseq	r6, r3, r1, ror #14

000033dc <Code_819>:
    33dc:	b500      	push	{lr}

000033de <setflags_intern>:
    33de:	4815      	ldr	r0, [pc, #84]	; (3434 <setflags_ram+0x40>)
    33e0:	6801      	ldr	r1, [r0, #0]
    33e2:	4a14      	ldr	r2, [pc, #80]	; (3434 <setflags_ram+0x40>)
    33e4:	4291      	cmp	r1, r2
    33e6:	d205      	bcs.n	33f4 <setflags_ram>
    33e8:	4815      	ldr	r0, [pc, #84]	; (3440 <setflags_ram+0x4c>)
    33ea:	6801      	ldr	r1, [r0, #0]
    33ec:	4331      	orrs	r1, r6
    33ee:	6001      	str	r1, [r0, #0]
    33f0:	cf40      	ldmia	r7!, {r6}
    33f2:	bd00      	pop	{pc}

000033f4 <setflags_ram>:
    33f4:	0032      	movs	r2, r6
    33f6:	cf40      	ldmia	r7!, {r6}
    33f8:	4812      	ldr	r0, [pc, #72]	; (3444 <setflags_ram+0x50>)
    33fa:	6800      	ldr	r0, [r0, #0]
    33fc:	3004      	adds	r0, #4
    33fe:	8801      	ldrh	r1, [r0, #0]
    3400:	4b0d      	ldr	r3, [pc, #52]	; (3438 <setflags_ram+0x44>)
    3402:	4299      	cmp	r1, r3
    3404:	d101      	bne.n	340a <setflags_ram+0x16>
    3406:	0011      	movs	r1, r2
    3408:	e000      	b.n	340c <setflags_ram+0x18>
    340a:	4311      	orrs	r1, r2
    340c:	8001      	strh	r1, [r0, #0]
    340e:	bd00      	pop	{pc}
    3410:	000046ce 	andeq	r4, r0, lr, asr #13
    3414:	0000b500 	andeq	fp, r0, r0, lsl #10
    3418:	0000bd00 	andeq	fp, r0, r0, lsl #26
    341c:	00004770 	andeq	r4, r0, r0, ror r7
    3420:	10000014 	andne	r0, r0, r4, lsl r0
    3424:	10000fb4 			; <UNDEFINED> instruction: 0x10000fb4
    3428:	10000010 	andne	r0, r0, r0, lsl r0
    342c:	1000005c 	andne	r0, r0, ip, asr r0
    3430:	00000820 	andeq	r0, r0, r0, lsr #16
    3434:	10000000 	andne	r0, r0, r0
    3438:	0000ffff 	strdeq	pc, [r0], -pc	; <UNPREDICTABLE>
    343c:	00000000 	andeq	r0, r0, r0
    3440:	10000020 	andne	r0, r0, r0, lsr #32
    3444:	10000004 	andne	r0, r0, r4

00003448 <Dictionary_822>:
    3448:	00003464 	andeq	r3, r0, r4, ror #8
    344c:	61070041 	tstvs	r7, r1, asr #32
    3450:	6e67696c 	cdpvs	9, 6, cr6, cr7, cr12, {3}
    3454:	20016465 	andcs	r6, r1, r5, ror #8

00003456 <Code_822>:
    3456:	2001      	movs	r0, #1
    3458:	4030      	ands	r0, r6
    345a:	1836      	adds	r6, r6, r0
    345c:	2002      	movs	r0, #2
    345e:	4030      	ands	r0, r6
    3460:	1836      	adds	r6, r6, r0
    3462:	4770      	bx	lr

00003464 <Dictionary_823>:
    3464:	00003488 	andeq	r3, r0, r8, lsl #9
    3468:	61050000 	mrsvs	r0, (UNDEF: 5)
    346c:	6e67696c 	cdpvs	9, 6, cr6, cr7, cr12, {3}

00003470 <Code_823>:
    3470:	b500      	push	{lr}
    3472:	488e      	ldr	r0, [pc, #568]	; (36ac <Zweitpointertausch+0x4e>)
    3474:	6801      	ldr	r1, [r0, #0]
    3476:	2002      	movs	r0, #2
    3478:	4001      	ands	r1, r0
    347a:	d004      	beq.n	3486 <Code_823+0x16>
    347c:	3f04      	subs	r7, #4
    347e:	603e      	str	r6, [r7, #0]
    3480:	2600      	movs	r6, #0
    3482:	f000 f81c 	bl	34be <Code_829>
    3486:	bd00      	pop	{pc}

00003488 <Dictionary_826>:
    3488:	000034b4 			; <UNDEFINED> instruction: 0x000034b4
    348c:	61080000 	mrsvs	r0, (UNDEF: 8)
    3490:	6e67696c 	cdpvs	9, 6, cr6, cr7, cr12, {3}
    3494:	002c3631 	eoreq	r3, ip, r1, lsr r6

00003498 <Code_826>:
    3498:	b500      	push	{lr}
    349a:	4884      	ldr	r0, [pc, #528]	; (36ac <Zweitpointertausch+0x4e>)
    349c:	6801      	ldr	r1, [r0, #0]
    349e:	200f      	movs	r0, #15
    34a0:	4001      	ands	r1, r0
    34a2:	d005      	beq.n	34b0 <Code_826+0x18>
    34a4:	3f04      	subs	r7, #4
    34a6:	603e      	str	r6, [r7, #0]
    34a8:	2600      	movs	r6, #0
    34aa:	f000 f808 	bl	34be <Code_829>
    34ae:	e7f4      	b.n	349a <Code_826+0x2>
    34b0:	bd00      	pop	{pc}
    34b2:	46c0      	nop			; (mov r8, r8)

000034b4 <Dictionary_829>:
    34b4:	000034f8 	strdeq	r3, [r0], -r8
    34b8:	68020000 	stmdavs	r2, {}	; <UNPREDICTABLE>
    34bc:	b50f002c 	strlt	r0, [pc, #-44]	; 3498 <Code_826>

000034be <Code_829>:
    34be:	b50f      	push	{r0, r1, r2, r3, lr}
    34c0:	b2b6      	uxth	r6, r6
    34c2:	487b      	ldr	r0, [pc, #492]	; (36b0 <Zweitpointertausch+0x52>)
    34c4:	6801      	ldr	r1, [r0, #0]
    34c6:	2900      	cmp	r1, #0
    34c8:	d002      	beq.n	34d0 <Code_829+0x12>
    34ca:	3101      	adds	r1, #1
    34cc:	d000      	beq.n	34d0 <Code_829+0x12>
    34ce:	6001      	str	r1, [r0, #0]
    34d0:	4876      	ldr	r0, [pc, #472]	; (36ac <Zweitpointertausch+0x4e>)
    34d2:	6801      	ldr	r1, [r0, #0]
    34d4:	4a75      	ldr	r2, [pc, #468]	; (36ac <Zweitpointertausch+0x4e>)
    34d6:	4291      	cmp	r1, r2
    34d8:	d205      	bcs.n	34e6 <hkomma_ram>
    34da:	3f04      	subs	r7, #4
    34dc:	603e      	str	r6, [r7, #0]
    34de:	000e      	movs	r6, r1
    34e0:	f7fe fdfd 	bl	20de <Code_443>
    34e4:	e002      	b.n	34ec <hkomma_fertig>

000034e6 <hkomma_ram>:
    34e6:	0032      	movs	r2, r6
    34e8:	cf40      	ldmia	r7!, {r6}
    34ea:	800a      	strh	r2, [r1, #0]

000034ec <hkomma_fertig>:
    34ec:	3f04      	subs	r7, #4
    34ee:	603e      	str	r6, [r7, #0]
    34f0:	2602      	movs	r6, #2
    34f2:	f000 f857 	bl	35a4 <Code_849>
    34f6:	bd0f      	pop	{r0, r1, r2, r3, pc}

000034f8 <Dictionary_835>:
    34f8:	00003514 	andeq	r3, r0, r4, lsl r5
    34fc:	2c010000 	stccs	0, cr0, [r1], {0}

00003500 <Code_835>:
    3500:	b500      	push	{lr}
    3502:	3f04      	subs	r7, #4
    3504:	603e      	str	r6, [r7, #0]
    3506:	f7ff ffda 	bl	34be <Code_829>
    350a:	0c36      	lsrs	r6, r6, #16
    350c:	f7ff ffd7 	bl	34be <Code_829>
    3510:	bd00      	pop	{pc}
    3512:	46c0      	nop			; (mov r8, r8)

00003514 <Dictionary_838>:
    3514:	00003530 	andeq	r3, r0, r0, lsr r5
    3518:	3e030000 	cdpcc	0, 0, cr0, cr3, cr0, {0}
    351c:	b5002c3c 	strlt	r2, [r0, #-3132]	; 0xc3c

0000351e <Code_838>:
    351e:	b500      	push	{lr}
    3520:	3f04      	subs	r7, #4
    3522:	603e      	str	r6, [r7, #0]
    3524:	0c36      	lsrs	r6, r6, #16
    3526:	f7ff ffca 	bl	34be <Code_829>
    352a:	f7ff ffc8 	bl	34be <Code_829>
    352e:	bd00      	pop	{pc}

00003530 <Dictionary_841>:
    3530:	00003598 	muleq	r0, r8, r5
    3534:	73070000 	movwvc	r0, #28672	; 0x7000
    3538:	6e697274 	mcrvs	2, 3, r7, cr9, cr4, {3}
    353c:	b5072c67 	strlt	r2, [r7, #-3175]	; 0xc67

0000353e <Code_841>:
    353e:	b507      	push	{r0, r1, r2, lr}
    3540:	21ff      	movs	r1, #255	; 0xff
    3542:	4031      	ands	r1, r6
    3544:	cf40      	ldmia	r7!, {r6}
    3546:	0030      	movs	r0, r6
    3548:	cf40      	ldmia	r7!, {r6}
    354a:	2900      	cmp	r1, #0
    354c:	d105      	bne.n	355a <Code_841+0x1c>
    354e:	3f04      	subs	r7, #4
    3550:	603e      	str	r6, [r7, #0]
    3552:	2600      	movs	r6, #0
    3554:	f7ff ffb3 	bl	34be <Code_829>
    3558:	bd07      	pop	{r0, r1, r2, pc}
    355a:	3f04      	subs	r7, #4
    355c:	603e      	str	r6, [r7, #0]
    355e:	7806      	ldrb	r6, [r0, #0]
    3560:	0236      	lsls	r6, r6, #8
    3562:	430e      	orrs	r6, r1
    3564:	f7ff ffab 	bl	34be <Code_829>
    3568:	3001      	adds	r0, #1
    356a:	3901      	subs	r1, #1
    356c:	2902      	cmp	r1, #2
    356e:	d30a      	bcc.n	3586 <Code_841+0x48>
    3570:	3f04      	subs	r7, #4
    3572:	603e      	str	r6, [r7, #0]
    3574:	7846      	ldrb	r6, [r0, #1]
    3576:	0236      	lsls	r6, r6, #8
    3578:	7802      	ldrb	r2, [r0, #0]
    357a:	4316      	orrs	r6, r2
    357c:	f7ff ff9f 	bl	34be <Code_829>
    3580:	3002      	adds	r0, #2
    3582:	3902      	subs	r1, #2
    3584:	e7f2      	b.n	356c <Code_841+0x2e>
    3586:	2900      	cmp	r1, #0
    3588:	d100      	bne.n	358c <Code_841+0x4e>
    358a:	bd07      	pop	{r0, r1, r2, pc}
    358c:	3f04      	subs	r7, #4
    358e:	603e      	str	r6, [r7, #0]
    3590:	7806      	ldrb	r6, [r0, #0]
    3592:	f7ff ff94 	bl	34be <Code_829>
    3596:	bd07      	pop	{r0, r1, r2, pc}

00003598 <Dictionary_849>:
    3598:	000035f4 	strdeq	r3, [r0], -r4
    359c:	61050000 	mrsvs	r0, (UNDEF: 5)
    35a0:	746f6c6c 	strbtvc	r6, [pc], #-3180	; 35a8 <Code_849+0x4>

000035a4 <Code_849>:
    35a4:	4841      	ldr	r0, [pc, #260]	; (36ac <Zweitpointertausch+0x4e>)
    35a6:	6801      	ldr	r1, [r0, #0]
    35a8:	4a40      	ldr	r2, [pc, #256]	; (36ac <Zweitpointertausch+0x4e>)
    35aa:	4291      	cmp	r1, r2
    35ac:	d20f      	bcs.n	35ce <allot_ram>
    35ae:	0032      	movs	r2, r6
    35b0:	cf40      	ldmia	r7!, {r6}
    35b2:	1889      	adds	r1, r1, r2
    35b4:	4a3f      	ldr	r2, [pc, #252]	; (36b4 <Zweitpointertausch+0x56>)
    35b6:	4291      	cmp	r1, r2
    35b8:	d319      	bcc.n	35ee <allot_ok>
    35ba:	f7ff fa5b 	bl	2a74 <dotgaensefuesschen>
    35be:	616c460b 	cmnvs	ip, fp, lsl #12
    35c2:	66206873 			; <UNDEFINED> instruction: 0x66206873
    35c6:	0a6c6c75 	beq	1b1e7a2 <BIT24+0xb1e7a2>
    35ca:	f001 f9f7 	bl	49bc <Code_1240>

000035ce <allot_ram>:
    35ce:	0032      	movs	r2, r6
    35d0:	cf40      	ldmia	r7!, {r6}
    35d2:	1889      	adds	r1, r1, r2
    35d4:	4a38      	ldr	r2, [pc, #224]	; (36b8 <Zweitpointertausch+0x5a>)
    35d6:	6812      	ldr	r2, [r2, #0]
    35d8:	4291      	cmp	r1, r2
    35da:	d308      	bcc.n	35ee <allot_ok>
    35dc:	f7ff fa4a 	bl	2a74 <dotgaensefuesschen>
    35e0:	6d615209 	sfmvs	f5, 2, [r1, #-36]!	; 0xffffffdc
    35e4:	6c756620 	ldclvs	6, cr6, [r5], #-128	; 0xffffff80
    35e8:	f0010a6c 			; <UNDEFINED> instruction: 0xf0010a6c
    35ec:	f9e7 6001 	vld1.8	{d22[0]}, [r7], r1

000035ee <allot_ok>:
    35ee:	6001      	str	r1, [r0, #0]
    35f0:	4770      	bx	lr
    35f2:	46c0      	nop			; (mov r8, r8)

000035f4 <Dictionary_854>:
    35f4:	0000361c 	andeq	r3, r0, ip, lsl r6
    35f8:	630d0000 	movwvs	r0, #53248	; 0xd000
    35fc:	69706d6f 	ldmdbvs	r0!, {r0, r1, r2, r3, r5, r6, r8, sl, fp, sp, lr}^
    3600:	6f74656c 	svcvs	0x0074656c
    3604:	3f6d6172 	svccc	0x006d6172

00003608 <Code_854>:
    3608:	3f04      	subs	r7, #4
    360a:	603e      	str	r6, [r7, #0]
    360c:	2600      	movs	r6, #0
    360e:	4827      	ldr	r0, [pc, #156]	; (36ac <Zweitpointertausch+0x4e>)
    3610:	6800      	ldr	r0, [r0, #0]
    3612:	4926      	ldr	r1, [pc, #152]	; (36ac <Zweitpointertausch+0x4e>)
    3614:	4288      	cmp	r0, r1
    3616:	d348      	bcc.n	36aa <Zweitpointertausch+0x4c>
    3618:	43f6      	mvns	r6, r6
    361a:	4770      	bx	lr

0000361c <Dictionary_857>:
    361c:	0000363c 	andeq	r3, r0, ip, lsr r6
    3620:	630c0000 	movwvs	r0, #49152	; 0xc000
    3624:	69706d6f 	ldmdbvs	r0!, {r0, r1, r2, r3, r5, r6, r8, sl, fp, sp, lr}^
    3628:	6f74656c 	svcvs	0x0074656c
    362c:	006d6172 	rsbeq	r6, sp, r2, ror r1

00003630 <Code_857>:
    3630:	481e      	ldr	r0, [pc, #120]	; (36ac <Zweitpointertausch+0x4e>)
    3632:	6800      	ldr	r0, [r0, #0]
    3634:	491d      	ldr	r1, [pc, #116]	; (36ac <Zweitpointertausch+0x4e>)
    3636:	4288      	cmp	r0, r1
    3638:	d311      	bcc.n	365e <Zweitpointertausch>
    363a:	4770      	bx	lr

0000363c <Dictionary_858>:
    363c:	000036c8 	andeq	r3, r0, r8, asr #13
    3640:	630e0000 	movwvs	r0, #57344	; 0xe000
    3644:	69706d6f 	ldmdbvs	r0!, {r0, r1, r2, r3, r5, r6, r8, sl, fp, sp, lr}^
    3648:	6f74656c 	svcvs	0x0074656c
    364c:	73616c66 	cmnvc	r1, #26112	; 0x6600
    3650:	48160068 	ldmdami	r6, {r3, r5, r6}

00003652 <Code_858>:
    3652:	4816      	ldr	r0, [pc, #88]	; (36ac <Zweitpointertausch+0x4e>)
    3654:	6800      	ldr	r0, [r0, #0]
    3656:	4915      	ldr	r1, [pc, #84]	; (36ac <Zweitpointertausch+0x4e>)
    3658:	4288      	cmp	r0, r1
    365a:	d200      	bcs.n	365e <Zweitpointertausch>
    365c:	4770      	bx	lr

0000365e <Zweitpointertausch>:
    365e:	4817      	ldr	r0, [pc, #92]	; (36bc <Zweitpointertausch+0x5e>)
    3660:	4917      	ldr	r1, [pc, #92]	; (36c0 <Zweitpointertausch+0x62>)
    3662:	6802      	ldr	r2, [r0, #0]
    3664:	680b      	ldr	r3, [r1, #0]
    3666:	600a      	str	r2, [r1, #0]
    3668:	6003      	str	r3, [r0, #0]
    366a:	4810      	ldr	r0, [pc, #64]	; (36ac <Zweitpointertausch+0x4e>)
    366c:	4915      	ldr	r1, [pc, #84]	; (36c4 <Zweitpointertausch+0x66>)
    366e:	6802      	ldr	r2, [r0, #0]
    3670:	680b      	ldr	r3, [r1, #0]
    3672:	600a      	str	r2, [r1, #0]
    3674:	6003      	str	r3, [r0, #0]
    3676:	4810      	ldr	r0, [pc, #64]	; (36b8 <Zweitpointertausch+0x5a>)
    3678:	6800      	ldr	r0, [r0, #0]
    367a:	4283      	cmp	r3, r0
    367c:	d315      	bcc.n	36aa <Zweitpointertausch+0x4c>
    367e:	b500      	push	{lr}
    3680:	f7ff f9f8 	bl	2a74 <dotgaensefuesschen>
    3684:	61562023 	cmpvs	r6, r3, lsr #32
    3688:	62616972 	rsbvs	r6, r1, #1867776	; 0x1c8000
    368c:	2073656c 	rsbscs	r6, r3, ip, ror #10
    3690:	6c6c6f63 	stclvs	15, cr6, [ip], #-396	; 0xfffffe74
    3694:	20656469 	rsbcs	r6, r5, r9, ror #8
    3698:	68746977 	ldmdavs	r4!, {r0, r1, r2, r4, r5, r6, r8, fp, sp, lr}^
    369c:	63696420 	cmnvs	r9, #536870912	; 0x20000000
    36a0:	6e6f6974 	mcrvs	9, 3, r6, cr15, cr4, {3}
    36a4:	0a797261 	beq	1e60030 <BIT24+0xe60030>
    36a8:	bd00      	pop	{pc}
    36aa:	4770      	bx	lr
    36ac:	10000000 	andne	r0, r0, r0
    36b0:	10000fb4 			; <UNDEFINED> instruction: 0x10000fb4
    36b4:	00008000 	andeq	r8, r0, r0
    36b8:	10000024 	andne	r0, r0, r4, lsr #32
    36bc:	10000004 	andne	r0, r0, r4
    36c0:	1000001c 	andne	r0, r0, ip, lsl r0
    36c4:	10000018 	andne	r0, r0, r8, lsl r0

000036c8 <Dictionary_860>:
    36c8:	000037c4 	andeq	r3, r0, r4, asr #15
    36cc:	28080000 	stmdacs	r8, {}	; <UNPREDICTABLE>
    36d0:	61657263 	cmnvs	r5, r3, ror #4
    36d4:	00296574 	eoreq	r6, r9, r4, ror r5

000036d8 <Code_860>:
    36d8:	b500      	push	{lr}
    36da:	f000 fdf1 	bl	42c0 <Code_1113>
    36de:	2e00      	cmp	r6, #0
    36e0:	d10e      	bne.n	3700 <Code_860+0x28>
    36e2:	f7ff f9c7 	bl	2a74 <dotgaensefuesschen>
    36e6:	72432015 	subvc	r2, r3, #21
    36ea:	65746165 	ldrbvs	r6, [r4, #-357]!	; 0x165
    36ee:	65656e20 	strbvs	r6, [r5, #-3616]!	; 0xe20
    36f2:	6e207364 	cdpvs	3, 2, cr7, cr0, cr4, {3}
    36f6:	20656d61 	rsbcs	r6, r5, r1, ror #26
    36fa:	f0010a21 			; <UNDEFINED> instruction: 0xf0010a21
    36fe:	f95e 6838 	ldr??.w	r6, [lr, <undefined>]
    3702:	3f04      	subs	r7, #4
    3704:	603e      	str	r6, [r7, #0]
    3706:	3f04      	subs	r7, #4
    3708:	6038      	str	r0, [r7, #0]
    370a:	f000 f9ab 	bl	3a64 <Code_925>
    370e:	cf40      	ldmia	r7!, {r6}
    3710:	2e00      	cmp	r6, #0
    3712:	cf40      	ldmia	r7!, {r6}
    3714:	d011      	beq.n	373a <Code_860+0x62>
    3716:	6838      	ldr	r0, [r7, #0]
    3718:	3f04      	subs	r7, #4
    371a:	603e      	str	r6, [r7, #0]
    371c:	3f04      	subs	r7, #4
    371e:	6038      	str	r0, [r7, #0]
    3720:	f7ff f9a8 	bl	2a74 <dotgaensefuesschen>
    3724:	64655209 	strbtvs	r5, [r5], #-521	; 0x209
    3728:	6e696665 	cdpvs	6, 6, cr6, cr9, cr5, {3}
    372c:	f7ff2065 			; <UNDEFINED> instruction: 0xf7ff2065
    3730:	fa01 f7ff 			; <UNDEFINED> instruction: 0xfa01f7ff
    3734:	f99f 2e02 	ldrsb.w	r2, [pc, #3586]	; 453a <Code_1155+0x4>
    3738:	f7ff000a 			; <UNDEFINED> instruction: 0xf7ff000a
    373c:	fe99 4892 	mrc2	8, 4, r4, cr9, cr2, {4}
    3740:	6800      	ldr	r0, [r0, #0]
    3742:	4991      	ldr	r1, [pc, #580]	; (3988 <rambuffer_ram+0x44>)
    3744:	4288      	cmp	r0, r1
    3746:	d225      	bcs.n	3794 <create_ram>
    3748:	4890      	ldr	r0, [pc, #576]	; (398c <rambuffer_ram+0x48>)
    374a:	2100      	movs	r1, #0
    374c:	6001      	str	r1, [r0, #0]
    374e:	f7ff fea3 	bl	3498 <Code_826>
    3752:	3f04      	subs	r7, #4
    3754:	603e      	str	r6, [r7, #0]
    3756:	260c      	movs	r6, #12
    3758:	f7ff ff24 	bl	35a4 <Code_849>
    375c:	f000 fa16 	bl	3b8c <Code_947>
    3760:	3f04      	subs	r7, #4
    3762:	603e      	str	r6, [r7, #0]
    3764:	2606      	movs	r6, #6
    3766:	f7ff ff1d 	bl	35a4 <Code_849>
    376a:	f7fd fd25 	bl	11b8 <Code_214>
    376e:	f7ff fee6 	bl	353e <Code_841>
    3772:	4887      	ldr	r0, [pc, #540]	; (3990 <rambuffer_ram+0x4c>)
    3774:	6801      	ldr	r1, [r0, #0]
    3776:	680a      	ldr	r2, [r1, #0]
    3778:	4b86      	ldr	r3, [pc, #536]	; (3994 <rambuffer_ram+0x50>)
    377a:	429a      	cmp	r2, r3
    377c:	d107      	bne.n	378e <Code_860+0xb6>
    377e:	4a82      	ldr	r2, [pc, #520]	; (3988 <rambuffer_ram+0x44>)
    3780:	6813      	ldr	r3, [r2, #0]
    3782:	6011      	str	r1, [r2, #0]
    3784:	3f04      	subs	r7, #4
    3786:	603e      	str	r6, [r7, #0]
    3788:	f7ff feba 	bl	3500 <Code_835>
    378c:	6013      	str	r3, [r2, #0]
    378e:	6006      	str	r6, [r0, #0]
    3790:	cf40      	ldmia	r7!, {r6}
    3792:	e012      	b.n	37ba <create_ende>

00003794 <create_ram>:
    3794:	f000 f9fa 	bl	3b8c <Code_947>
    3798:	487d      	ldr	r0, [pc, #500]	; (3990 <rambuffer_ram+0x4c>)
    379a:	3f04      	subs	r7, #4
    379c:	603e      	str	r6, [r7, #0]
    379e:	6806      	ldr	r6, [r0, #0]
    37a0:	f7ff feae 	bl	3500 <Code_835>
    37a4:	3f04      	subs	r7, #4
    37a6:	603e      	str	r6, [r7, #0]
    37a8:	4e7b      	ldr	r6, [pc, #492]	; (3998 <rambuffer_ram+0x54>)
    37aa:	f7ff fe88 	bl	34be <Code_829>
    37ae:	4878      	ldr	r0, [pc, #480]	; (3990 <rambuffer_ram+0x4c>)
    37b0:	0031      	movs	r1, r6
    37b2:	cf40      	ldmia	r7!, {r6}
    37b4:	6001      	str	r1, [r0, #0]
    37b6:	f7ff fec2 	bl	353e <Code_841>

000037ba <create_ende>:
    37ba:	4873      	ldr	r0, [pc, #460]	; (3988 <rambuffer_ram+0x44>)
    37bc:	6801      	ldr	r1, [r0, #0]
    37be:	4877      	ldr	r0, [pc, #476]	; (399c <rambuffer_ram+0x58>)
    37c0:	6001      	str	r1, [r0, #0]
    37c2:	bd00      	pop	{pc}

000037c4 <Dictionary_880>:
    37c4:	000037dc 	ldrdeq	r3, [r0], -ip
    37c8:	76080000 	strvc	r0, [r8], -r0
    37cc:	61697261 	cmnvs	r9, r1, ror #4
    37d0:	00656c62 	rsbeq	r6, r5, r2, ror #24

000037d4 <Code_880>:
    37d4:	3f04      	subs	r7, #4
    37d6:	603e      	str	r6, [r7, #0]
    37d8:	2601      	movs	r6, #1
    37da:	e013      	b.n	3804 <Code_886>

000037dc <Dictionary_883>:
    37dc:	000037f4 	strdeq	r3, [r0], -r4
    37e0:	32090000 	andcc	r0, r9, #0
    37e4:	69726176 	ldmdbvs	r2!, {r1, r2, r4, r5, r6, r8, sp, lr}^
    37e8:	656c6261 	strbvs	r6, [ip, #-609]!	; 0x261

000037ec <Code_883>:
    37ec:	3f04      	subs	r7, #4
    37ee:	603e      	str	r6, [r7, #0]
    37f0:	2602      	movs	r6, #2
    37f2:	e007      	b.n	3804 <Code_886>

000037f4 <Dictionary_886>:
    37f4:	000038cc 	andeq	r3, r0, ip, asr #17
    37f8:	6e090000 	cdpvs	0, 0, cr0, cr9, cr0, {0}
    37fc:	69726176 	ldmdbvs	r2!, {r1, r2, r4, r5, r6, r8, sp, lr}^
    3800:	656c6261 	strbvs	r6, [ip, #-609]!	; 0x261

00003804 <Code_886>:
    3804:	b500      	push	{lr}
    3806:	f7ff ff67 	bl	36d8 <Code_860>
    380a:	485f      	ldr	r0, [pc, #380]	; (3988 <rambuffer_ram+0x44>)
    380c:	6801      	ldr	r1, [r0, #0]
    380e:	4a5e      	ldr	r2, [pc, #376]	; (3988 <rambuffer_ram+0x44>)
    3810:	4291      	cmp	r1, r2
    3812:	d233      	bcs.n	387c <variable_ram>
    3814:	200f      	movs	r0, #15
    3816:	4006      	ands	r6, r0
    3818:	00b2      	lsls	r2, r6, #2
    381a:	4861      	ldr	r0, [pc, #388]	; (39a0 <rambuffer_ram+0x5c>)
    381c:	6801      	ldr	r1, [r0, #0]
    381e:	1a89      	subs	r1, r1, r2
    3820:	4a60      	ldr	r2, [pc, #384]	; (39a4 <rambuffer_ram+0x60>)
    3822:	4291      	cmp	r1, r2
    3824:	d20b      	bcs.n	383e <Code_886+0x3a>
    3826:	f7ff f925 	bl	2a74 <dotgaensefuesschen>
    382a:	746f4e0f 	strbtvc	r4, [pc], #-3599	; 3832 <Code_886+0x2e>
    382e:	6f6e6520 	svcvs	0x006e6520
    3832:	20686775 	rsbcs	r6, r8, r5, ror r7
    3836:	0a4d4152 	beq	1353d86 <BIT24+0x353d86>
    383a:	f001 f8bf 	bl	49bc <Code_1240>
    383e:	6001      	str	r1, [r0, #0]
    3840:	3f04      	subs	r7, #4
    3842:	603e      	str	r6, [r7, #0]
    3844:	000e      	movs	r6, r1
    3846:	f7ff fb3f 	bl	2ec8 <Code_714>
    384a:	3f04      	subs	r7, #4
    384c:	603e      	str	r6, [r7, #0]
    384e:	4e56      	ldr	r6, [pc, #344]	; (39a8 <rambuffer_ram+0x64>)
    3850:	f7ff fe35 	bl	34be <Code_829>
    3854:	0030      	movs	r0, r6
    3856:	cf40      	ldmia	r7!, {r6}
    3858:	0002      	movs	r2, r0
    385a:	2800      	cmp	r0, #0
    385c:	d005      	beq.n	386a <Code_886+0x66>
    385e:	600e      	str	r6, [r1, #0]
    3860:	3104      	adds	r1, #4
    3862:	f7ff fe4d 	bl	3500 <Code_835>
    3866:	3801      	subs	r0, #1
    3868:	d1f9      	bne.n	385e <Code_886+0x5a>
    386a:	3f04      	subs	r7, #4
    386c:	603e      	str	r6, [r7, #0]
    386e:	2680      	movs	r6, #128	; 0x80
    3870:	4316      	orrs	r6, r2
    3872:	f7ff fdb3 	bl	33dc <Code_819>
    3876:	f7ff fd7e 	bl	3376 <Code_813>
    387a:	bd00      	pop	{pc}

0000387c <variable_ram>:
    387c:	f000 f986 	bl	3b8c <Code_947>
    3880:	2002      	movs	r0, #2
    3882:	4006      	ands	r6, r0
    3884:	cf40      	ldmia	r7!, {r6}
    3886:	d104      	bne.n	3892 <variable_ram+0x16>
    3888:	3f04      	subs	r7, #4
    388a:	603e      	str	r6, [r7, #0]
    388c:	2636      	movs	r6, #54	; 0x36
    388e:	f7ff fe16 	bl	34be <Code_829>
    3892:	3f04      	subs	r7, #4
    3894:	603e      	str	r6, [r7, #0]
    3896:	4e45      	ldr	r6, [pc, #276]	; (39ac <rambuffer_ram+0x68>)
    3898:	f7ff fe41 	bl	351e <Code_838>
    389c:	3f04      	subs	r7, #4
    389e:	603e      	str	r6, [r7, #0]
    38a0:	4e43      	ldr	r6, [pc, #268]	; (39b0 <rambuffer_ram+0x6c>)
    38a2:	f7ff fe3c 	bl	351e <Code_838>
    38a6:	3f04      	subs	r7, #4
    38a8:	603e      	str	r6, [r7, #0]
    38aa:	4e3f      	ldr	r6, [pc, #252]	; (39a8 <rambuffer_ram+0x64>)
    38ac:	f7ff fe07 	bl	34be <Code_829>
    38b0:	0030      	movs	r0, r6
    38b2:	cf40      	ldmia	r7!, {r6}
    38b4:	2800      	cmp	r0, #0
    38b6:	d003      	beq.n	38c0 <variable_ram+0x44>
    38b8:	f7ff fe22 	bl	3500 <Code_835>
    38bc:	3801      	subs	r0, #1
    38be:	d1fb      	bne.n	38b8 <variable_ram+0x3c>
    38c0:	f7ff fcc1 	bl	3246 <Code_784>
    38c4:	f7ff fd57 	bl	3376 <Code_813>
    38c8:	bd00      	pop	{pc}
    38ca:	46c0      	nop			; (mov r8, r8)

000038cc <Dictionary_903>:
    38cc:	000039b8 			; <UNDEFINED> instruction: 0x000039b8
    38d0:	62070000 	andvs	r0, r7, #0
    38d4:	65666675 	strbvs	r6, [r6, #-1653]!	; 0x675
    38d8:	b5003a72 	strlt	r3, [r0, #-2674]	; 0xa72

000038da <Code_903>:
    38da:	b500      	push	{lr}
    38dc:	f7ff fefc 	bl	36d8 <Code_860>
    38e0:	2001      	movs	r0, #1
    38e2:	4030      	ands	r0, r6
    38e4:	1836      	adds	r6, r6, r0
    38e6:	2002      	movs	r0, #2
    38e8:	4030      	ands	r0, r6
    38ea:	1836      	adds	r6, r6, r0
    38ec:	4826      	ldr	r0, [pc, #152]	; (3988 <rambuffer_ram+0x44>)
    38ee:	6801      	ldr	r1, [r0, #0]
    38f0:	4a25      	ldr	r2, [pc, #148]	; (3988 <rambuffer_ram+0x44>)
    38f2:	4291      	cmp	r1, r2
    38f4:	d226      	bcs.n	3944 <rambuffer_ram>
    38f6:	482a      	ldr	r0, [pc, #168]	; (39a0 <rambuffer_ram+0x5c>)
    38f8:	6801      	ldr	r1, [r0, #0]
    38fa:	1b89      	subs	r1, r1, r6
    38fc:	4a29      	ldr	r2, [pc, #164]	; (39a4 <rambuffer_ram+0x60>)
    38fe:	4291      	cmp	r1, r2
    3900:	d20b      	bcs.n	391a <Code_903+0x40>
    3902:	f7ff f8b7 	bl	2a74 <dotgaensefuesschen>
    3906:	746f4e0f 	strbtvc	r4, [pc], #-3599	; 390e <Code_903+0x34>
    390a:	6f6e6520 	svcvs	0x006e6520
    390e:	20686775 	rsbcs	r6, r8, r5, ror r7
    3912:	0a4d4152 	beq	1353e62 <BIT24+0x353e62>
    3916:	f001 f851 	bl	49bc <Code_1240>
    391a:	6001      	str	r1, [r0, #0]
    391c:	3f04      	subs	r7, #4
    391e:	603e      	str	r6, [r7, #0]
    3920:	000e      	movs	r6, r1
    3922:	f7ff fad1 	bl	2ec8 <Code_714>
    3926:	3f04      	subs	r7, #4
    3928:	603e      	str	r6, [r7, #0]
    392a:	4e1f      	ldr	r6, [pc, #124]	; (39a8 <rambuffer_ram+0x64>)
    392c:	f7ff fdc7 	bl	34be <Code_829>
    3930:	f7ff fde6 	bl	3500 <Code_835>
    3934:	3f04      	subs	r7, #4
    3936:	603e      	str	r6, [r7, #0]
    3938:	4e1e      	ldr	r6, [pc, #120]	; (39b4 <rambuffer_ram+0x70>)
    393a:	f7ff fd4f 	bl	33dc <Code_819>
    393e:	f7ff fd1a 	bl	3376 <Code_813>
    3942:	bd00      	pop	{pc}

00003944 <rambuffer_ram>:
    3944:	f000 f922 	bl	3b8c <Code_947>
    3948:	2002      	movs	r0, #2
    394a:	4006      	ands	r6, r0
    394c:	cf40      	ldmia	r7!, {r6}
    394e:	d104      	bne.n	395a <rambuffer_ram+0x16>
    3950:	3f04      	subs	r7, #4
    3952:	603e      	str	r6, [r7, #0]
    3954:	2636      	movs	r6, #54	; 0x36
    3956:	f7ff fdb2 	bl	34be <Code_829>
    395a:	3f04      	subs	r7, #4
    395c:	603e      	str	r6, [r7, #0]
    395e:	4e13      	ldr	r6, [pc, #76]	; (39ac <rambuffer_ram+0x68>)
    3960:	f7ff fddd 	bl	351e <Code_838>
    3964:	3f04      	subs	r7, #4
    3966:	603e      	str	r6, [r7, #0]
    3968:	4e11      	ldr	r6, [pc, #68]	; (39b0 <rambuffer_ram+0x6c>)
    396a:	f7ff fdd8 	bl	351e <Code_838>
    396e:	3f04      	subs	r7, #4
    3970:	603e      	str	r6, [r7, #0]
    3972:	4e0d      	ldr	r6, [pc, #52]	; (39a8 <rambuffer_ram+0x64>)
    3974:	f7ff fda3 	bl	34be <Code_829>
    3978:	f7ff fe14 	bl	35a4 <Code_849>
    397c:	f7ff fc63 	bl	3246 <Code_784>
    3980:	f7ff fcf9 	bl	3376 <Code_813>
    3984:	bd00      	pop	{pc}
    3986:	00000000 	andeq	r0, r0, r0
    398a:	00201000 	eoreq	r1, r0, r0
    398e:	00041000 	andeq	r1, r4, r0
    3992:	ffff1000 			; <UNDEFINED> instruction: 0xffff1000
    3996:	ffffffff 			; <UNDEFINED> instruction: 0xffffffff
    399a:	00140000 	andseq	r0, r4, r0
    399e:	00241000 	eoreq	r1, r4, r0
    39a2:	07301000 	ldreq	r1, [r0, -r0]!
    39a6:	47701000 	ldrbmi	r1, [r0, -r0]!
    39aa:	603e0000 	eorsvs	r0, lr, r0
    39ae:	36023f04 	strcc	r3, [r2], -r4, lsl #30
    39b2:	0140467e 	hvceq	1134	; 0x46e
	...

000039b8 <Dictionary_918>:
    39b8:	000039e8 	andeq	r3, r0, r8, ror #19
    39bc:	640f0000 	strvs	r0, [pc], #0	; 39c4 <Dictionary_918+0xc>
    39c0:	69746369 	ldmdbvs	r4!, {r0, r3, r5, r6, r8, r9, sp, lr}^
    39c4:	72616e6f 	rsbvc	r6, r1, #1776	; 0x6f0
    39c8:	61747379 	cmnvs	r4, r9, ror r3
    39cc:	48427472 	stmdami	r2, {r1, r4, r5, r6, sl, ip, sp, lr}^

000039ce <Code_918>:
    39ce:	4842      	ldr	r0, [pc, #264]	; (3ad8 <find_not_found+0x16>)
    39d0:	6800      	ldr	r0, [r0, #0]
    39d2:	4941      	ldr	r1, [pc, #260]	; (3ad8 <find_not_found+0x16>)
    39d4:	3f04      	subs	r7, #4
    39d6:	603e      	str	r6, [r7, #0]
    39d8:	4288      	cmp	r0, r1
    39da:	d201      	bcs.n	39e0 <Code_918+0x12>
    39dc:	4e3f      	ldr	r6, [pc, #252]	; (3adc <find_not_found+0x1a>)
    39de:	4770      	bx	lr
    39e0:	4e3f      	ldr	r6, [pc, #252]	; (3ae0 <find_not_found+0x1e>)
    39e2:	6836      	ldr	r6, [r6, #0]
    39e4:	4770      	bx	lr
    39e6:	46c0      	nop			; (mov r8, r8)

000039e8 <Dictionary_920>:
    39e8:	00003a24 	andeq	r3, r0, r4, lsr #20
    39ec:	640e0000 	strvs	r0, [lr]
    39f0:	69746369 	ldmdbvs	r4!, {r0, r3, r5, r6, r8, r9, sp, lr}^
    39f4:	72616e6f 	rsbvc	r6, r1, #1776	; 0x6f0
    39f8:	78656e79 	stmdavc	r5!, {r0, r3, r4, r5, r6, r9, sl, fp, sp, lr}^
    39fc:	b5030074 	strlt	r0, [r3, #-116]	; 0x74

000039fe <Code_920>:
    39fe:	b503      	push	{r0, r1, lr}
    3a00:	6831      	ldr	r1, [r6, #0]
    3a02:	4838      	ldr	r0, [pc, #224]	; (3ae4 <find_not_found+0x22>)
    3a04:	4281      	cmp	r1, r0
    3a06:	d007      	beq.n	3a18 <Code_920+0x1a>
    3a08:	7988      	ldrb	r0, [r1, #6]
    3a0a:	28ff      	cmp	r0, #255	; 0xff
    3a0c:	d004      	beq.n	3a18 <Code_920+0x1a>
    3a0e:	000e      	movs	r6, r1
    3a10:	3f04      	subs	r7, #4
    3a12:	603e      	str	r6, [r7, #0]
    3a14:	2600      	movs	r6, #0
    3a16:	bd03      	pop	{r0, r1, pc}
    3a18:	3f04      	subs	r7, #4
    3a1a:	603e      	str	r6, [r7, #0]
    3a1c:	2600      	movs	r6, #0
    3a1e:	43f6      	mvns	r6, r6
    3a20:	bd03      	pop	{r0, r1, pc}
    3a22:	46c0      	nop			; (mov r8, r8)

00003a24 <Dictionary_924>:
    3a24:	00003a58 	andeq	r3, r0, r8, asr sl
    3a28:	730a0000 	movwvc	r0, #40960	; 0xa000
    3a2c:	7370696b 	cmnvc	r0, #1753088	; 0x1ac000
    3a30:	6e697274 	mcrvs	2, 3, r7, cr9, cr4, {3}
    3a34:	78310067 	ldmdavc	r1!, {r0, r1, r2, r5, r6}

00003a36 <Code_924>:
    3a36:	7831      	ldrb	r1, [r6, #0]
    3a38:	3101      	adds	r1, #1
    3a3a:	2201      	movs	r2, #1
    3a3c:	400a      	ands	r2, r1
    3a3e:	1889      	adds	r1, r1, r2
    3a40:	1876      	adds	r6, r6, r1
    3a42:	4770      	bx	lr

00003a44 <skipstring>:
    3a44:	b406      	push	{r1, r2}
    3a46:	7801      	ldrb	r1, [r0, #0]
    3a48:	3101      	adds	r1, #1
    3a4a:	2201      	movs	r2, #1
    3a4c:	400a      	ands	r2, r1
    3a4e:	1889      	adds	r1, r1, r2
    3a50:	1840      	adds	r0, r0, r1
    3a52:	bc06      	pop	{r1, r2}
    3a54:	4770      	bx	lr
    3a56:	46c0      	nop			; (mov r8, r8)

00003a58 <Dictionary_925>:
    3a58:	00003aec 	andeq	r3, r0, ip, ror #21
    3a5c:	66040000 	strvs	r0, [r4], -r0
    3a60:	00646e69 	rsbeq	r6, r4, r9, ror #28

00003a64 <Code_925>:
    3a64:	b53f      	push	{r0, r1, r2, r3, r4, r5, lr}
    3a66:	2200      	movs	r2, #0
    3a68:	2300      	movs	r3, #0
    3a6a:	0035      	movs	r5, r6
    3a6c:	cf40      	ldmia	r7!, {r6}
    3a6e:	0034      	movs	r4, r6
    3a70:	cf40      	ldmia	r7!, {r6}
    3a72:	f7ff ffac 	bl	39ce <Code_918>
    3a76:	481c      	ldr	r0, [pc, #112]	; (3ae8 <find_not_found+0x26>)
    3a78:	88b1      	ldrh	r1, [r6, #4]
    3a7a:	4288      	cmp	r0, r1
    3a7c:	d017      	beq.n	3aae <Code_925+0x4a>
    3a7e:	3f04      	subs	r7, #4
    3a80:	603e      	str	r6, [r7, #0]
    3a82:	3606      	adds	r6, #6
    3a84:	f7ff f836 	bl	2af4 <Code_631>
    3a88:	3f04      	subs	r7, #4
    3a8a:	603e      	str	r6, [r7, #0]
    3a8c:	0026      	movs	r6, r4
    3a8e:	3f04      	subs	r7, #4
    3a90:	603e      	str	r6, [r7, #0]
    3a92:	002e      	movs	r6, r5
    3a94:	f7fe ff61 	bl	295a <Code_593>
    3a98:	2e00      	cmp	r6, #0
    3a9a:	cf40      	ldmia	r7!, {r6}
    3a9c:	d007      	beq.n	3aae <Code_925+0x4a>
    3a9e:	1db0      	adds	r0, r6, #6
    3aa0:	f7ff ffd0 	bl	3a44 <skipstring>
    3aa4:	0002      	movs	r2, r0
    3aa6:	000b      	movs	r3, r1
    3aa8:	480b      	ldr	r0, [pc, #44]	; (3ad8 <find_not_found+0x16>)
    3aaa:	4282      	cmp	r2, r0
    3aac:	d204      	bcs.n	3ab8 <Code_925+0x54>
    3aae:	f7ff ffa6 	bl	39fe <Code_920>
    3ab2:	0030      	movs	r0, r6
    3ab4:	cf40      	ldmia	r7!, {r6}
    3ab6:	d0de      	beq.n	3a76 <Code_925+0x12>
    3ab8:	0016      	movs	r6, r2
    3aba:	3f04      	subs	r7, #4
    3abc:	603e      	str	r6, [r7, #0]
    3abe:	001e      	movs	r6, r3
    3ac0:	bd3f      	pop	{r0, r1, r2, r3, r4, r5, pc}

00003ac2 <find_not_found>:
    3ac2:	b500      	push	{lr}
    3ac4:	0031      	movs	r1, r6
    3ac6:	6838      	ldr	r0, [r7, #0]
    3ac8:	f7ff ffcc 	bl	3a64 <Code_925>
    3acc:	683a      	ldr	r2, [r7, #0]
    3ace:	2a00      	cmp	r2, #0
    3ad0:	d101      	bne.n	3ad6 <find_not_found+0x14>
    3ad2:	f000 ff27 	bl	4924 <not_found_addr_r0_len_r1>
    3ad6:	bd00      	pop	{pc}
    3ad8:	10000000 	andne	r0, r0, r0
    3adc:	00000300 	andeq	r0, r0, r0, lsl #6
    3ae0:	10000004 	andne	r0, r0, r4
    3ae4:	ffffffff 			; <UNDEFINED> instruction: 0xffffffff
    3ae8:	0000ffff 	strdeq	pc, [r0], -pc	; <UNPREDICTABLE>

00003aec <Dictionary_938>:
    3aec:	00003b48 	andeq	r3, r0, r8, asr #22
    3af0:	63060000 	movwvs	r0, #24576	; 0x6000
    3af4:	706d756a 	rsbvc	r7, sp, sl, ror #10
    3af8:	0032002c 	eorseq	r0, r2, ip, lsr #32

00003afa <Code_938>:
    3afa:	0032      	movs	r2, r6
    3afc:	cf40      	ldmia	r7!, {r6}
    3afe:	0031      	movs	r1, r6
    3b00:	cf40      	ldmia	r7!, {r6}
    3b02:	1b8b      	subs	r3, r1, r6
    3b04:	3b04      	subs	r3, #4
    3b06:	49e5      	ldr	r1, [pc, #916]	; (3e9c <Code_1017+0x10>)
    3b08:	4019      	ands	r1, r3
    3b0a:	2900      	cmp	r1, #0
    3b0c:	d00d      	beq.n	3b2a <jump_too_far+0x16>
    3b0e:	48e4      	ldr	r0, [pc, #912]	; (3ea0 <Code_1017+0x14>)
    3b10:	4281      	cmp	r1, r0
    3b12:	d00a      	beq.n	3b2a <jump_too_far+0x16>

00003b14 <jump_too_far>:
    3b14:	f7fe ffae 	bl	2a74 <dotgaensefuesschen>
    3b18:	6d754a0d 	vldmdbvs	r5!, {s9-s21}
    3b1c:	6f742070 	svcvs	0x00742070
    3b20:	6166206f 	cmnvs	r6, pc, rrx
    3b24:	f0000a72 			; <UNDEFINED> instruction: 0xf0000a72
    3b28:	ff49 105b 	vqadd.u8	<illegal reg q8.5>, <illegal reg q4.5>, <illegal reg q5.5>
    3b2c:	21ff      	movs	r1, #255	; 0xff
    3b2e:	400b      	ands	r3, r1
    3b30:	4313      	orrs	r3, r2
    3b32:	0030      	movs	r0, r6
    3b34:	001e      	movs	r6, r3

00003b36 <sprungbefehl_einfuegen>:
    3b36:	b500      	push	{lr}
    3b38:	4ada      	ldr	r2, [pc, #872]	; (3ea4 <Code_1017+0x18>)
    3b3a:	6813      	ldr	r3, [r2, #0]
    3b3c:	6010      	str	r0, [r2, #0]
    3b3e:	f7ff fcbe 	bl	34be <Code_829>
    3b42:	6013      	str	r3, [r2, #0]
    3b44:	bd00      	pop	{pc}
    3b46:	46c0      	nop			; (mov r8, r8)

00003b48 <Dictionary_942>:
    3b48:	00003b80 	andeq	r3, r0, r0, lsl #23
    3b4c:	6a050000 	bvs	143b54 <BIT20+0x43b54>
    3b50:	2c706d75 	ldclcs	13, cr6, [r0], #-468	; 0xfffffe2c

00003b54 <Code_942>:
    3b54:	0031      	movs	r1, r6
    3b56:	cf40      	ldmia	r7!, {r6}
    3b58:	0030      	movs	r0, r6
    3b5a:	cf40      	ldmia	r7!, {r6}
    3b5c:	1a0b      	subs	r3, r1, r0
    3b5e:	3b04      	subs	r3, #4
    3b60:	49d1      	ldr	r1, [pc, #836]	; (3ea8 <Code_1017+0x1c>)
    3b62:	4019      	ands	r1, r3
    3b64:	2900      	cmp	r1, #0
    3b66:	d002      	beq.n	3b6e <Code_942+0x1a>
    3b68:	4ad0      	ldr	r2, [pc, #832]	; (3eac <Code_1017+0x20>)
    3b6a:	4291      	cmp	r1, r2
    3b6c:	d1d2      	bne.n	3b14 <jump_too_far>
    3b6e:	105b      	asrs	r3, r3, #1
    3b70:	4acf      	ldr	r2, [pc, #828]	; (3eb0 <Code_1017+0x24>)
    3b72:	4013      	ands	r3, r2
    3b74:	4acf      	ldr	r2, [pc, #828]	; (3eb4 <Code_1017+0x28>)
    3b76:	4313      	orrs	r3, r2
    3b78:	3f04      	subs	r7, #4
    3b7a:	603e      	str	r6, [r7, #0]
    3b7c:	001e      	movs	r6, r3
    3b7e:	e7da      	b.n	3b36 <sprungbefehl_einfuegen>

00003b80 <Dictionary_947>:
    3b80:	00003b98 	muleq	r0, r8, fp
    3b84:	68040000 	stmdavs	r4, {}	; <UNPREDICTABLE>
    3b88:	00657265 	rsbeq	r7, r5, r5, ror #4

00003b8c <Code_947>:
    3b8c:	3f04      	subs	r7, #4
    3b8e:	603e      	str	r6, [r7, #0]
    3b90:	4ec4      	ldr	r6, [pc, #784]	; (3ea4 <Code_1017+0x18>)
    3b92:	6836      	ldr	r6, [r6, #0]
    3b94:	4770      	bx	lr
    3b96:	46c0      	nop			; (mov r8, r8)

00003b98 <Dictionary_949>:
    3b98:	00003cc0 	andeq	r3, r0, r0, asr #25
    3b9c:	660d0000 	strvs	r0, [sp], -r0
    3ba0:	6873616c 	ldmdavs	r3!, {r2, r3, r5, r6, r8, sp, lr}^
    3ba4:	2d726176 	ldfcse	f6, [r2, #-472]!	; 0xfffffe28
    3ba8:	65726568 	ldrbvs	r6, [r2, #-1384]!	; 0x568

00003bac <Code_949>:
    3bac:	3f04      	subs	r7, #4
    3bae:	603e      	str	r6, [r7, #0]
    3bb0:	4ec1      	ldr	r6, [pc, #772]	; (3eb8 <Code_1017+0x2c>)
    3bb2:	6836      	ldr	r6, [r6, #0]
    3bb4:	4770      	bx	lr

00003bb6 <nullprobekomma>:
    3bb6:	b500      	push	{lr}
    3bb8:	3f04      	subs	r7, #4
    3bba:	603e      	str	r6, [r7, #0]
    3bbc:	4ebf      	ldr	r6, [pc, #764]	; (3ebc <Code_1017+0x30>)
    3bbe:	f7ff fc7e 	bl	34be <Code_829>
    3bc2:	3f04      	subs	r7, #4
    3bc4:	603e      	str	r6, [r7, #0]
    3bc6:	4ebe      	ldr	r6, [pc, #760]	; (3ec0 <Code_1017+0x34>)
    3bc8:	f7ff fc79 	bl	34be <Code_829>
    3bcc:	bd00      	pop	{pc}

00003bce <branch_r>:
    3bce:	e7dd      	b.n	3b8c <Code_947>

00003bd0 <r_branch_jne>:
    3bd0:	b500      	push	{lr}
    3bd2:	f000 f837 	bl	3c44 <branch_v>
    3bd6:	6839      	ldr	r1, [r7, #0]
    3bd8:	603e      	str	r6, [r7, #0]
    3bda:	460e      	mov	r6, r1
    3bdc:	3f04      	subs	r7, #4
    3bde:	603e      	str	r6, [r7, #0]
    3be0:	4eb8      	ldr	r6, [pc, #736]	; (3ec4 <Code_1017+0x38>)
    3be2:	f7ff ff8a 	bl	3afa <Code_938>
    3be6:	bd00      	pop	{pc}

00003be8 <r_branch_jvc>:
    3be8:	b500      	push	{lr}
    3bea:	f000 f82b 	bl	3c44 <branch_v>
    3bee:	6839      	ldr	r1, [r7, #0]
    3bf0:	603e      	str	r6, [r7, #0]
    3bf2:	460e      	mov	r6, r1
    3bf4:	3f04      	subs	r7, #4
    3bf6:	603e      	str	r6, [r7, #0]
    3bf8:	4eb3      	ldr	r6, [pc, #716]	; (3ec8 <Code_1017+0x3c>)
    3bfa:	f7ff ff7e 	bl	3afa <Code_938>
    3bfe:	bd00      	pop	{pc}

00003c00 <r_nullbranch>:
    3c00:	b500      	push	{lr}
    3c02:	f7ff ffd8 	bl	3bb6 <nullprobekomma>
    3c06:	f000 f81d 	bl	3c44 <branch_v>
    3c0a:	6839      	ldr	r1, [r7, #0]
    3c0c:	603e      	str	r6, [r7, #0]
    3c0e:	460e      	mov	r6, r1
    3c10:	3f04      	subs	r7, #4
    3c12:	603e      	str	r6, [r7, #0]
    3c14:	4ead      	ldr	r6, [pc, #692]	; (3ecc <Code_1017+0x40>)
    3c16:	f7ff ff70 	bl	3afa <Code_938>
    3c1a:	bd00      	pop	{pc}

00003c1c <r_branch>:
    3c1c:	b500      	push	{lr}
    3c1e:	f000 f811 	bl	3c44 <branch_v>
    3c22:	6839      	ldr	r1, [r7, #0]
    3c24:	603e      	str	r6, [r7, #0]
    3c26:	460e      	mov	r6, r1
    3c28:	f7ff ff94 	bl	3b54 <Code_942>
    3c2c:	bd00      	pop	{pc}

00003c2e <nullbranch_v>:
    3c2e:	b500      	push	{lr}
    3c30:	f7ff ffc1 	bl	3bb6 <nullprobekomma>
    3c34:	f7ff ffaa 	bl	3b8c <Code_947>
    3c38:	3f04      	subs	r7, #4
    3c3a:	603e      	str	r6, [r7, #0]
    3c3c:	2602      	movs	r6, #2
    3c3e:	f7ff fcb1 	bl	35a4 <Code_849>
    3c42:	bd00      	pop	{pc}

00003c44 <branch_v>:
    3c44:	b500      	push	{lr}
    3c46:	f7ff ffa1 	bl	3b8c <Code_947>
    3c4a:	3f04      	subs	r7, #4
    3c4c:	603e      	str	r6, [r7, #0]
    3c4e:	2602      	movs	r6, #2
    3c50:	f7ff fca8 	bl	35a4 <Code_849>
    3c54:	bd00      	pop	{pc}

00003c56 <v_branch>:
    3c56:	b500      	push	{lr}
    3c58:	f7ff ff98 	bl	3b8c <Code_947>
    3c5c:	f7ff ff7a 	bl	3b54 <Code_942>
    3c60:	bd00      	pop	{pc}

00003c62 <v_nullbranch>:
    3c62:	b500      	push	{lr}
    3c64:	f7ff ff92 	bl	3b8c <Code_947>
    3c68:	3f04      	subs	r7, #4
    3c6a:	603e      	str	r6, [r7, #0]
    3c6c:	4e97      	ldr	r6, [pc, #604]	; (3ecc <Code_1017+0x40>)
    3c6e:	f7ff ff44 	bl	3afa <Code_938>
    3c72:	bd00      	pop	{pc}

00003c74 <v_casebranch>:
    3c74:	b500      	push	{lr}
    3c76:	f7ff ff89 	bl	3b8c <Code_947>
    3c7a:	3f04      	subs	r7, #4
    3c7c:	603e      	str	r6, [r7, #0]
    3c7e:	4e91      	ldr	r6, [pc, #580]	; (3ec4 <Code_1017+0x38>)
    3c80:	f7ff ff3b 	bl	3afa <Code_938>
    3c84:	bd00      	pop	{pc}

00003c86 <allocator_nullsprungprobe>:
    3c86:	b500      	push	{lr}
    3c88:	f7fc fcbb 	bl	602 <expect_one_element>
    3c8c:	f7fc fbec 	bl	468 <tidyup_register_allocator_5os>
    3c90:	f7fc fbef 	bl	472 <tidyup_register_allocator_4os>
    3c94:	f7fc fbf2 	bl	47c <tidyup_register_allocator_3os>
    3c98:	6881      	ldr	r1, [r0, #8]
    3c9a:	2928      	cmp	r1, #40	; 0x28
    3c9c:	d101      	bne.n	3ca2 <allocator_nullsprungprobe+0x1c>
    3c9e:	f7fc fcf9 	bl	694 <expect_nos_in_register>
    3ca2:	f7fc fced 	bl	680 <expect_tos_in_register>
    3ca6:	3f04      	subs	r7, #4
    3ca8:	603e      	str	r6, [r7, #0]
    3caa:	4e89      	ldr	r6, [pc, #548]	; (3ed0 <Code_1017+0x44>)
    3cac:	0209      	lsls	r1, r1, #8
    3cae:	430e      	orrs	r6, r1
    3cb0:	f7ff fc05 	bl	34be <Code_829>
    3cb4:	f7fc fb9d 	bl	3f2 <eliminiere_tos>
    3cb8:	f7fc fbca 	bl	450 <tidyup_register_allocator>
    3cbc:	bd00      	pop	{pc}
    3cbe:	46c0      	nop			; (mov r8, r8)

00003cc0 <Dictionary_975>:
    3cc0:	00003d30 	andeq	r3, r0, r0, lsr sp
    3cc4:	69020630 	stmdbvs	r2, {r4, r5, r9, sl}
    3cc8:	b5000066 	strlt	r0, [r0, #-102]	; 0x66

00003cca <Code_975>:
    3cca:	b500      	push	{lr}
    3ccc:	f7ff ffaf 	bl	3c2e <nullbranch_v>
    3cd0:	3f04      	subs	r7, #4
    3cd2:	603e      	str	r6, [r7, #0]
    3cd4:	4e7d      	ldr	r6, [pc, #500]	; (3ecc <Code_1017+0x40>)
    3cd6:	3f04      	subs	r7, #4
    3cd8:	603e      	str	r6, [r7, #0]
    3cda:	2602      	movs	r6, #2
    3cdc:	bd00      	pop	{pc}

00003cde <struktur_if_allokator>:
    3cde:	b500      	push	{lr}
    3ce0:	f7fc fd25 	bl	72e <push_lr_nachholen>
    3ce4:	f7fd fdba 	bl	185c <eliminiere_tos_wenn_bmi>
    3ce8:	6a81      	ldr	r1, [r0, #40]	; 0x28
    3cea:	2900      	cmp	r1, #0
    3cec:	d010      	beq.n	3d10 <struktur_if_allokator+0x32>
    3cee:	b402      	push	{r1}
    3cf0:	f7fc fbae 	bl	450 <tidyup_register_allocator>
    3cf4:	f7ff ff4a 	bl	3b8c <Code_947>
    3cf8:	3f04      	subs	r7, #4
    3cfa:	603e      	str	r6, [r7, #0]
    3cfc:	2602      	movs	r6, #2
    3cfe:	f7ff fc51 	bl	35a4 <Code_849>
    3d02:	3f04      	subs	r7, #4
    3d04:	603e      	str	r6, [r7, #0]
    3d06:	bc40      	pop	{r6}
    3d08:	3f04      	subs	r7, #4
    3d0a:	603e      	str	r6, [r7, #0]
    3d0c:	2602      	movs	r6, #2
    3d0e:	bd00      	pop	{pc}
    3d10:	f7ff ffb9 	bl	3c86 <allocator_nullsprungprobe>
    3d14:	f7ff ff3a 	bl	3b8c <Code_947>
    3d18:	3f04      	subs	r7, #4
    3d1a:	603e      	str	r6, [r7, #0]
    3d1c:	2602      	movs	r6, #2
    3d1e:	f7ff fc41 	bl	35a4 <Code_849>
    3d22:	3f04      	subs	r7, #4
    3d24:	603e      	str	r6, [r7, #0]
    3d26:	4e69      	ldr	r6, [pc, #420]	; (3ecc <Code_1017+0x40>)
    3d28:	3f04      	subs	r7, #4
    3d2a:	603e      	str	r6, [r7, #0]
    3d2c:	2602      	movs	r6, #2
    3d2e:	bd00      	pop	{pc}

00003d30 <Dictionary_991>:
    3d30:	00003d64 	andeq	r3, r0, r4, ror #26
    3d34:	65040030 	strvs	r0, [r4, #-48]	; 0x30
    3d38:	0065736c 	rsbeq	r7, r5, ip, ror #6

00003d3c <Code_991>:
    3d3c:	b500      	push	{lr}
    3d3e:	2e02      	cmp	r6, #2
    3d40:	d126      	bne.n	3d90 <strukturen_passen_nicht>
    3d42:	cf40      	ldmia	r7!, {r6}
    3d44:	f7ff ff7e 	bl	3c44 <branch_v>
    3d48:	f7fd fa36 	bl	11b8 <Code_214>
    3d4c:	f7ff ff1e 	bl	3b8c <Code_947>
    3d50:	6839      	ldr	r1, [r7, #0]
    3d52:	603e      	str	r6, [r7, #0]
    3d54:	460e      	mov	r6, r1
    3d56:	f7ff fed0 	bl	3afa <Code_938>
    3d5a:	3f04      	subs	r7, #4
    3d5c:	603e      	str	r6, [r7, #0]
    3d5e:	2605      	movs	r6, #5
    3d60:	bd00      	pop	{pc}
    3d62:	46c0      	nop			; (mov r8, r8)

00003d64 <Dictionary_996>:
    3d64:	00003db0 			; <UNDEFINED> instruction: 0x00003db0
    3d68:	74040030 	strvc	r0, [r4], #-48	; 0x30
    3d6c:	006e6568 	rsbeq	r6, lr, r8, ror #10

00003d70 <Code_996>:
    3d70:	2e05      	cmp	r6, #5
    3d72:	d101      	bne.n	3d78 <Code_996+0x8>
    3d74:	cf40      	ldmia	r7!, {r6}
    3d76:	e76e      	b.n	3c56 <v_branch>
    3d78:	2e02      	cmp	r6, #2
    3d7a:	d109      	bne.n	3d90 <strukturen_passen_nicht>
    3d7c:	cf40      	ldmia	r7!, {r6}
    3d7e:	b500      	push	{lr}
    3d80:	f7ff ff04 	bl	3b8c <Code_947>
    3d84:	6839      	ldr	r1, [r7, #0]
    3d86:	603e      	str	r6, [r7, #0]
    3d88:	460e      	mov	r6, r1
    3d8a:	f7ff feb6 	bl	3afa <Code_938>
    3d8e:	bd00      	pop	{pc}

00003d90 <strukturen_passen_nicht>:
    3d90:	f7fe fe70 	bl	2a74 <dotgaensefuesschen>
    3d94:	72745317 	rsbsvc	r5, r4, #1543503872	; 0x5c000000
    3d98:	75746375 	ldrbvc	r6, [r4, #-885]!	; 0x375
    3d9c:	20736572 	rsbscs	r6, r3, r2, ror r5
    3da0:	276e6f64 	strbcs	r6, [lr, -r4, ror #30]!
    3da4:	616d2074 	smcvs	53764	; 0xd204
    3da8:	0a686374 	beq	1a1cb80 <BIT24+0xa1cb80>
    3dac:	f000 fe06 	bl	49bc <Code_1240>

00003db0 <Dictionary_1001>:
    3db0:	00003de0 	andeq	r3, r0, r0, ror #27
    3db4:	72060030 	andvc	r0, r6, #48	; 0x30
    3db8:	61657065 	cmnvs	r5, r5, rrx
    3dbc:	2e040074 	mcrcs	0, 0, r0, cr4, cr4, {3}

00003dbe <Code_1001>:
    3dbe:	2e04      	cmp	r6, #4
    3dc0:	d1e6      	bne.n	3d90 <strukturen_passen_nicht>
    3dc2:	cf40      	ldmia	r7!, {r6}
    3dc4:	b500      	push	{lr}
    3dc6:	f7fd f9da 	bl	117e <Code_213>
    3dca:	f7ff ff27 	bl	3c1c <r_branch>
    3dce:	f7ff fedd 	bl	3b8c <Code_947>
    3dd2:	6839      	ldr	r1, [r7, #0]
    3dd4:	603e      	str	r6, [r7, #0]
    3dd6:	460e      	mov	r6, r1
    3dd8:	f7ff fe8f 	bl	3afa <Code_938>
    3ddc:	bd00      	pop	{pc}
    3dde:	46c0      	nop			; (mov r8, r8)

00003de0 <Dictionary_1004>:
    3de0:	00003e0c 	andeq	r3, r0, ip, lsl #28
    3de4:	77050630 	smladxvc	r5, r0, r6, r0
    3de8:	656c6968 	strbvs	r6, [ip, #-2408]!	; 0x968

00003dec <Code_1004>:
    3dec:	2e01      	cmp	r6, #1
    3dee:	d1cf      	bne.n	3d90 <strukturen_passen_nicht>
    3df0:	cf40      	ldmia	r7!, {r6}
    3df2:	b500      	push	{lr}
    3df4:	f7ff ff69 	bl	3cca <Code_975>
    3df8:	3602      	adds	r6, #2
    3dfa:	bd00      	pop	{pc}
    3dfc:	2e01      	cmp	r6, #1
    3dfe:	d1c7      	bne.n	3d90 <strukturen_passen_nicht>
    3e00:	cf40      	ldmia	r7!, {r6}
    3e02:	b500      	push	{lr}
    3e04:	f7ff ff6b 	bl	3cde <struktur_if_allokator>
    3e08:	3602      	adds	r6, #2
    3e0a:	bd00      	pop	{pc}

00003e0c <Dictionary_1007>:
    3e0c:	00003e6c 	andeq	r3, r0, ip, ror #28
    3e10:	75050630 	strvc	r0, [r5, #-1584]	; 0x630
    3e14:	6c69746e 	cfstrdvs	mvd7, [r9], #-440	; 0xfffffe48

00003e18 <Code_1007>:
    3e18:	2e01      	cmp	r6, #1
    3e1a:	d1b9      	bne.n	3d90 <strukturen_passen_nicht>
    3e1c:	cf40      	ldmia	r7!, {r6}
    3e1e:	e6ef      	b.n	3c00 <r_nullbranch>
    3e20:	4770      	bx	lr
    3e22:	2e01      	cmp	r6, #1
    3e24:	d1b4      	bne.n	3d90 <strukturen_passen_nicht>
    3e26:	cf40      	ldmia	r7!, {r6}
    3e28:	b500      	push	{lr}
    3e2a:	f7fd fd17 	bl	185c <eliminiere_tos_wenn_bmi>
    3e2e:	6a81      	ldr	r1, [r0, #40]	; 0x28
    3e30:	2900      	cmp	r1, #0
    3e32:	d00d      	beq.n	3e50 <Code_1007+0x38>
    3e34:	b402      	push	{r1}
    3e36:	f7fc fb0b 	bl	450 <tidyup_register_allocator>
    3e3a:	f7ff ff03 	bl	3c44 <branch_v>
    3e3e:	6839      	ldr	r1, [r7, #0]
    3e40:	603e      	str	r6, [r7, #0]
    3e42:	460e      	mov	r6, r1
    3e44:	3f04      	subs	r7, #4
    3e46:	603e      	str	r6, [r7, #0]
    3e48:	bc40      	pop	{r6}
    3e4a:	f7ff fe56 	bl	3afa <Code_938>
    3e4e:	bd00      	pop	{pc}
    3e50:	f7ff ff19 	bl	3c86 <allocator_nullsprungprobe>
    3e54:	f7ff fef6 	bl	3c44 <branch_v>
    3e58:	6839      	ldr	r1, [r7, #0]
    3e5a:	603e      	str	r6, [r7, #0]
    3e5c:	460e      	mov	r6, r1
    3e5e:	3f04      	subs	r7, #4
    3e60:	603e      	str	r6, [r7, #0]
    3e62:	4e1a      	ldr	r6, [pc, #104]	; (3ecc <Code_1017+0x40>)
    3e64:	f7ff fe49 	bl	3afa <Code_938>
    3e68:	bd00      	pop	{pc}
    3e6a:	46c0      	nop			; (mov r8, r8)

00003e6c <Dictionary_1015>:
    3e6c:	00003e80 	andeq	r3, r0, r0, lsl #29
    3e70:	61050030 	tstvs	r5, r0, lsr r0
    3e74:	6e696167 	powvsez	f6, f1, f7

00003e78 <Code_1015>:
    3e78:	2e01      	cmp	r6, #1
    3e7a:	d189      	bne.n	3d90 <strukturen_passen_nicht>
    3e7c:	cf40      	ldmia	r7!, {r6}
    3e7e:	e6cd      	b.n	3c1c <r_branch>

00003e80 <Dictionary_1017>:
    3e80:	00003ed4 	ldrdeq	r3, [r0], -r4
    3e84:	62050030 	andvs	r0, r5, #48	; 0x30
    3e88:	6e696765 	cdpvs	7, 6, cr6, cr9, cr5, {3}

00003e8c <Code_1017>:
    3e8c:	b500      	push	{lr}
    3e8e:	f7ff fe9e 	bl	3bce <branch_r>
    3e92:	3f04      	subs	r7, #4
    3e94:	603e      	str	r6, [r7, #0]
    3e96:	2601      	movs	r6, #1
    3e98:	bd00      	pop	{pc}
    3e9a:	ff010000 			; <UNDEFINED> instruction: 0xff010000
    3e9e:	ff00ffff 			; <UNDEFINED> instruction: 0xff00ffff
    3ea2:	0000ffff 	strdeq	pc, [r0], -pc	; <UNPREDICTABLE>
    3ea6:	f8011000 			; <UNDEFINED> instruction: 0xf8011000
    3eaa:	f800ffff 			; <UNDEFINED> instruction: 0xf800ffff
    3eae:	07ffffff 			; <UNDEFINED> instruction: 0x07ffffff
    3eb2:	e0000000 	and	r0, r0, r0
    3eb6:	00240000 	eoreq	r0, r4, r0
    3eba:	2e001000 	cdpcs	0, 0, cr1, cr0, cr0, {0}
    3ebe:	cf400000 	svcgt	0x00400000
    3ec2:	d1000000 	mrsle	r0, (UNDEF: 0)
    3ec6:	d7000000 	strle	r0, [r0, -r0]
    3eca:	d0000000 	andle	r0, r0, r0
    3ece:	28000000 	stmdacs	r0, {}	; <UNPREDICTABLE>
	...

00003ed4 <Dictionary_1020>:
    3ed4:	00003eec 	andeq	r3, r0, ip, ror #29
    3ed8:	6b010220 	blvs	44760 <BIT18+0x4760>

00003edc <Code_1020>:
    3edc:	3f04      	subs	r7, #4
    3ede:	603e      	str	r6, [r7, #0]
    3ee0:	9e02      	ldr	r6, [sp, #8]
    3ee2:	4770      	bx	lr
    3ee4:	3f04      	subs	r7, #4
    3ee6:	603e      	str	r6, [r7, #0]
    3ee8:	4e8e      	ldr	r6, [pc, #568]	; (4124 <gemeinsame_schleifenoptimierung+0x7a>)
    3eea:	e00a      	b.n	3f02 <loop_j_allocator>

00003eec <Dictionary_1024>:
    3eec:	00003f18 	andeq	r3, r0, r8, lsl pc
    3ef0:	6a010220 	bvs	44778 <BIT18+0x4778>

00003ef4 <Code_1024>:
    3ef4:	3f04      	subs	r7, #4
    3ef6:	603e      	str	r6, [r7, #0]
    3ef8:	9e00      	ldr	r6, [sp, #0]
    3efa:	4770      	bx	lr

00003efc <rfetch_allocator>:
    3efc:	3f04      	subs	r7, #4
    3efe:	603e      	str	r6, [r7, #0]
    3f00:	4e89      	ldr	r6, [pc, #548]	; (4128 <gemeinsame_schleifenoptimierung+0x7e>)

00003f02 <loop_j_allocator>:
    3f02:	b500      	push	{lr}
    3f04:	f7fc fa6b 	bl	3de <befreie_tos>
    3f08:	f7fc fb48 	bl	59c <get_free_register>
    3f0c:	6003      	str	r3, [r0, #0]
    3f0e:	021b      	lsls	r3, r3, #8
    3f10:	431e      	orrs	r6, r3
    3f12:	f7ff fad4 	bl	34be <Code_829>
    3f16:	bd00      	pop	{pc}

00003f18 <Dictionary_1028>:
    3f18:	00003f44 	andeq	r3, r0, r4, asr #30
    3f1c:	69010220 	stmdbvs	r1, {r5, r9}

00003f20 <Code_1028>:
    3f20:	3f04      	subs	r7, #4
    3f22:	603e      	str	r6, [r7, #0]
    3f24:	0026      	movs	r6, r4
    3f26:	4770      	bx	lr
    3f28:	b500      	push	{lr}
    3f2a:	3f04      	subs	r7, #4
    3f2c:	603e      	str	r6, [r7, #0]
    3f2e:	4e7f      	ldr	r6, [pc, #508]	; (412c <gemeinsame_schleifenoptimierung+0x82>)
    3f30:	f7fc fa55 	bl	3de <befreie_tos>
    3f34:	f7fc fb32 	bl	59c <get_free_register>
    3f38:	6003      	str	r3, [r0, #0]
    3f3a:	431e      	orrs	r6, r3
    3f3c:	f7ff fabf 	bl	34be <Code_829>
    3f40:	bd00      	pop	{pc}
    3f42:	46c0      	nop			; (mov r8, r8)

00003f44 <Dictionary_1033>:
    3f44:	00003f84 	andeq	r3, r0, r4, lsl #31
    3f48:	6c050030 	stcvs	0, cr0, [r5], {48}	; 0x30
    3f4c:	65766165 	ldrbvs	r6, [r6, #-357]!	; 0x165

00003f50 <Code_1033>:
    3f50:	b500      	push	{lr}
    3f52:	4877      	ldr	r0, [pc, #476]	; (4130 <gemeinsame_schleifenoptimierung+0x86>)
    3f54:	6801      	ldr	r1, [r0, #0]
    3f56:	003b      	movs	r3, r7
    3f58:	3f04      	subs	r7, #4
    3f5a:	681a      	ldr	r2, [r3, #0]
    3f5c:	3b04      	subs	r3, #4
    3f5e:	601a      	str	r2, [r3, #0]
    3f60:	3308      	adds	r3, #8
    3f62:	428b      	cmp	r3, r1
    3f64:	d1f9      	bne.n	3f5a <Code_1033+0xa>
    3f66:	b403      	push	{r0, r1}
    3f68:	f7ff fe6c 	bl	3c44 <branch_v>
    3f6c:	bc03      	pop	{r0, r1}
    3f6e:	0033      	movs	r3, r6
    3f70:	cf40      	ldmia	r7!, {r6}
    3f72:	3904      	subs	r1, #4
    3f74:	600b      	str	r3, [r1, #0]
    3f76:	6001      	str	r1, [r0, #0]
    3f78:	3904      	subs	r1, #4
    3f7a:	680a      	ldr	r2, [r1, #0]
    3f7c:	3201      	adds	r2, #1
    3f7e:	600a      	str	r2, [r1, #0]
    3f80:	bd00      	pop	{pc}
    3f82:	46c0      	nop			; (mov r8, r8)

00003f84 <Dictionary_1035>:
    3f84:	00003f98 	muleq	r0, r8, pc	; <UNPREDICTABLE>
    3f88:	75060020 	strvc	r0, [r6, #-32]
    3f8c:	6f6f6c6e 	svcvs	0x006f6c6e
    3f90:	bc300070 	ldclt	0, cr0, [r0], #-448	; 0xfffffe40

00003f92 <Code_1035>:
    3f92:	bc30      	pop	{r4, r5}
    3f94:	4770      	bx	lr
    3f96:	46c0      	nop			; (mov r8, r8)

00003f98 <Dictionary_1036>:
    3f98:	00003fd0 	ldrdeq	r3, [r0], -r0
    3f9c:	2b050030 	blcs	144064 <BIT20+0x44064>
    3fa0:	706f6f6c 	rsbvc	r6, pc, ip, ror #30

00003fa4 <Code_1036>:
    3fa4:	2e03      	cmp	r6, #3
    3fa6:	d000      	beq.n	3faa <Code_1036+0x6>
    3fa8:	e6f2      	b.n	3d90 <strukturen_passen_nicht>
    3faa:	cf40      	ldmia	r7!, {r6}
    3fac:	b500      	push	{lr}
    3fae:	3f04      	subs	r7, #4
    3fb0:	603e      	str	r6, [r7, #0]
    3fb2:	4e60      	ldr	r6, [pc, #384]	; (4134 <gemeinsame_schleifenoptimierung+0x8a>)
    3fb4:	f7ff f86d 	bl	3092 <Code_749>
    3fb8:	f7ff fe16 	bl	3be8 <r_branch_jvc>
    3fbc:	e01a      	b.n	3ff4 <loop_intern>

00003fbe <struktur_plusloop>:
    3fbe:	2080      	movs	r0, #128	; 0x80
    3fc0:	0600      	lsls	r0, r0, #24
    3fc2:	1900      	adds	r0, r0, r4
    3fc4:	19a4      	adds	r4, r4, r6
    3fc6:	1b40      	subs	r0, r0, r5
    3fc8:	1980      	adds	r0, r0, r6
    3fca:	cf40      	ldmia	r7!, {r6}
    3fcc:	4770      	bx	lr
    3fce:	46c0      	nop			; (mov r8, r8)

00003fd0 <Dictionary_1040>:
    3fd0:	00004014 	andeq	r4, r0, r4, lsl r0
    3fd4:	6c040030 	stcvs	0, cr0, [r4], {48}	; 0x30
    3fd8:	00706f6f 	rsbseq	r6, r0, pc, ror #30

00003fdc <Code_1040>:
    3fdc:	2e03      	cmp	r6, #3
    3fde:	d000      	beq.n	3fe2 <Code_1040+0x6>
    3fe0:	e6d6      	b.n	3d90 <strukturen_passen_nicht>
    3fe2:	cf40      	ldmia	r7!, {r6}
    3fe4:	b500      	push	{lr}
    3fe6:	3f04      	subs	r7, #4
    3fe8:	603e      	str	r6, [r7, #0]
    3fea:	4e53      	ldr	r6, [pc, #332]	; (4138 <gemeinsame_schleifenoptimierung+0x8e>)
    3fec:	f7ff f851 	bl	3092 <Code_749>
    3ff0:	f7ff fdee 	bl	3bd0 <r_branch_jne>

00003ff4 <loop_intern>:
    3ff4:	f000 f94a 	bl	428c <spruenge_einpflegen>
    3ff8:	484d      	ldr	r0, [pc, #308]	; (4130 <gemeinsame_schleifenoptimierung+0x86>)
    3ffa:	0031      	movs	r1, r6
    3ffc:	cf40      	ldmia	r7!, {r6}
    3ffe:	6001      	str	r1, [r0, #0]
    4000:	3f04      	subs	r7, #4
    4002:	603e      	str	r6, [r7, #0]
    4004:	4e4d      	ldr	r6, [pc, #308]	; (413c <gemeinsame_schleifenoptimierung+0x92>)
    4006:	f7ff f844 	bl	3092 <Code_749>
    400a:	bd00      	pop	{pc}

0000400c <struktur_loop>:
    400c:	3401      	adds	r4, #1
    400e:	42ac      	cmp	r4, r5
    4010:	4770      	bx	lr
    4012:	46c0      	nop			; (mov r8, r8)

00004014 <Dictionary_1045>:
    4014:	0000405c 	andeq	r4, r0, ip, asr r0
    4018:	64020230 	strvs	r0, [r2], #-560	; 0x230
    401c:	b500006f 	strlt	r0, [r0, #-111]	; 0x6f

0000401e <Code_1045>:
    401e:	b500      	push	{lr}
    4020:	3f04      	subs	r7, #4
    4022:	603e      	str	r6, [r7, #0]
    4024:	4e46      	ldr	r6, [pc, #280]	; (4140 <gemeinsame_schleifenoptimierung+0x96>)
    4026:	f7ff f834 	bl	3092 <Code_749>

0000402a <do_rest_der_schleifenstruktur>:
    402a:	4841      	ldr	r0, [pc, #260]	; (4130 <gemeinsame_schleifenoptimierung+0x86>)
    402c:	6801      	ldr	r1, [r0, #0]
    402e:	3f04      	subs	r7, #4
    4030:	603e      	str	r6, [r7, #0]
    4032:	000e      	movs	r6, r1
    4034:	3f04      	subs	r7, #4
    4036:	603e      	str	r6, [r7, #0]
    4038:	2600      	movs	r6, #0
    403a:	6007      	str	r7, [r0, #0]
    403c:	f7ff fdc7 	bl	3bce <branch_r>
    4040:	3f04      	subs	r7, #4
    4042:	603e      	str	r6, [r7, #0]
    4044:	2603      	movs	r6, #3
    4046:	bd00      	pop	{pc}
    4048:	b500      	push	{lr}
    404a:	f000 f82e 	bl	40aa <gemeinsame_schleifenoptimierung>
    404e:	e7ec      	b.n	402a <do_rest_der_schleifenstruktur>

00004050 <struktur_do>:
    4050:	b430      	push	{r4, r5}
    4052:	0034      	movs	r4, r6
    4054:	cf40      	ldmia	r7!, {r6}
    4056:	0035      	movs	r5, r6
    4058:	cf40      	ldmia	r7!, {r6}
    405a:	4770      	bx	lr

0000405c <Dictionary_1055>:
    405c:	00004154 	andeq	r4, r0, r4, asr r1
    4060:	3f030230 	svccc	0x00030230
    4064:	b5006f64 	strlt	r6, [r0, #-3940]	; 0xf64

00004066 <Code_1055>:
    4066:	b500      	push	{lr}
    4068:	3f04      	subs	r7, #4
    406a:	603e      	str	r6, [r7, #0]
    406c:	4e34      	ldr	r6, [pc, #208]	; (4140 <gemeinsame_schleifenoptimierung+0x96>)
    406e:	f7ff f810 	bl	3092 <Code_749>

00004072 <qdo_rest_der_schleifenstruktur>:
    4072:	3f04      	subs	r7, #4
    4074:	603e      	str	r6, [r7, #0]
    4076:	4e33      	ldr	r6, [pc, #204]	; (4144 <gemeinsame_schleifenoptimierung+0x9a>)
    4078:	f7ff fa21 	bl	34be <Code_829>
    407c:	482c      	ldr	r0, [pc, #176]	; (4130 <gemeinsame_schleifenoptimierung+0x86>)
    407e:	6801      	ldr	r1, [r0, #0]
    4080:	3f04      	subs	r7, #4
    4082:	603e      	str	r6, [r7, #0]
    4084:	000e      	movs	r6, r1
    4086:	f7ff fddd 	bl	3c44 <branch_v>
    408a:	3601      	adds	r6, #1
    408c:	3f04      	subs	r7, #4
    408e:	603e      	str	r6, [r7, #0]
    4090:	2601      	movs	r6, #1
    4092:	4827      	ldr	r0, [pc, #156]	; (4130 <gemeinsame_schleifenoptimierung+0x86>)
    4094:	6007      	str	r7, [r0, #0]
    4096:	f7ff fd9a 	bl	3bce <branch_r>
    409a:	3f04      	subs	r7, #4
    409c:	603e      	str	r6, [r7, #0]
    409e:	2603      	movs	r6, #3
    40a0:	bd00      	pop	{pc}
    40a2:	b500      	push	{lr}
    40a4:	f000 f801 	bl	40aa <gemeinsame_schleifenoptimierung>
    40a8:	e7e3      	b.n	4072 <qdo_rest_der_schleifenstruktur>

000040aa <gemeinsame_schleifenoptimierung>:
    40aa:	b500      	push	{lr}
    40ac:	f7fc fb3f 	bl	72e <push_lr_nachholen>
    40b0:	f7fc fab1 	bl	616 <expect_two_elements>
    40b4:	f7fc f9d8 	bl	468 <tidyup_register_allocator_5os>
    40b8:	f7fc f9db 	bl	472 <tidyup_register_allocator_4os>
    40bc:	f7fc f9de 	bl	47c <tidyup_register_allocator_3os>
    40c0:	3f04      	subs	r7, #4
    40c2:	603e      	str	r6, [r7, #0]
    40c4:	4e20      	ldr	r6, [pc, #128]	; (4148 <gemeinsame_schleifenoptimierung+0x9e>)
    40c6:	f7ff f9fa 	bl	34be <Code_829>
    40ca:	6801      	ldr	r1, [r0, #0]
    40cc:	2928      	cmp	r1, #40	; 0x28
    40ce:	d007      	beq.n	40e0 <gemeinsame_schleifenoptimierung+0x36>
    40d0:	3f04      	subs	r7, #4
    40d2:	603e      	str	r6, [r7, #0]
    40d4:	4e1d      	ldr	r6, [pc, #116]	; (414c <gemeinsame_schleifenoptimierung+0xa2>)
    40d6:	00c9      	lsls	r1, r1, #3
    40d8:	430e      	orrs	r6, r1
    40da:	f7ff f9f0 	bl	34be <Code_829>
    40de:	e007      	b.n	40f0 <gemeinsame_schleifenoptimierung+0x46>
    40e0:	3f04      	subs	r7, #4
    40e2:	603e      	str	r6, [r7, #0]
    40e4:	6846      	ldr	r6, [r0, #4]
    40e6:	3f04      	subs	r7, #4
    40e8:	603e      	str	r6, [r7, #0]
    40ea:	2604      	movs	r6, #4
    40ec:	f7fe fe10 	bl	2d10 <Code_678>
    40f0:	6881      	ldr	r1, [r0, #8]
    40f2:	2928      	cmp	r1, #40	; 0x28
    40f4:	d007      	beq.n	4106 <gemeinsame_schleifenoptimierung+0x5c>
    40f6:	3f04      	subs	r7, #4
    40f8:	603e      	str	r6, [r7, #0]
    40fa:	4e15      	ldr	r6, [pc, #84]	; (4150 <gemeinsame_schleifenoptimierung+0xa6>)
    40fc:	00c9      	lsls	r1, r1, #3
    40fe:	430e      	orrs	r6, r1
    4100:	f7ff f9dd 	bl	34be <Code_829>
    4104:	e007      	b.n	4116 <gemeinsame_schleifenoptimierung+0x6c>
    4106:	3f04      	subs	r7, #4
    4108:	603e      	str	r6, [r7, #0]
    410a:	68c6      	ldr	r6, [r0, #12]
    410c:	3f04      	subs	r7, #4
    410e:	603e      	str	r6, [r7, #0]
    4110:	2605      	movs	r6, #5
    4112:	f7fe fdfd 	bl	2d10 <Code_678>
    4116:	f7fc f96c 	bl	3f2 <eliminiere_tos>
    411a:	f7fc f96a 	bl	3f2 <eliminiere_tos>
    411e:	f7fc f9b7 	bl	490 <tidyup_register_allocator_tos>
    4122:	bd00      	pop	{pc}
    4124:	00009802 	andeq	r9, r0, r2, lsl #16
    4128:	00009800 	andeq	r9, r0, r0, lsl #16
    412c:	00000020 	andeq	r0, r0, r0, lsr #32
    4130:	1000000c 	andne	r0, r0, ip
    4134:	00003fbe 			; <UNDEFINED> instruction: 0x00003fbe
    4138:	0000400c 	andeq	r4, r0, ip
    413c:	00003f92 	muleq	r0, r2, pc	; <UNPREDICTABLE>
    4140:	00004050 	andeq	r4, r0, r0, asr r0
    4144:	000042ac 	andeq	r4, r0, ip, lsr #5
    4148:	0000b430 	andeq	fp, r0, r0, lsr r4
    414c:	00000004 	andeq	r0, r0, r4
    4150:	00000005 	andeq	r0, r0, r5

00004154 <Dictionary_1077>:
    4154:	00004174 	andeq	r4, r0, r4, ror r1
    4158:	63040030 	movwvs	r0, #16432	; 0x4030
    415c:	00657361 	rsbeq	r7, r5, r1, ror #6

00004160 <Code_1077>:
    4160:	b500      	push	{lr}
    4162:	f7fc fae4 	bl	72e <push_lr_nachholen>
    4166:	3f04      	subs	r7, #4
    4168:	603e      	str	r6, [r7, #0]
    416a:	2600      	movs	r6, #0
    416c:	3f04      	subs	r7, #4
    416e:	603e      	str	r6, [r7, #0]
    4170:	2608      	movs	r6, #8
    4172:	bd00      	pop	{pc}

00004174 <Dictionary_1082>:
    4174:	0000418c 	andeq	r4, r0, ip, lsl #3
    4178:	3f030030 	svccc	0x00030030
    417c:	4868666f 	stmdami	r8!, {r0, r1, r2, r3, r5, r6, r9, sl, sp, lr}^

0000417e <Code_1082>:
    417e:	4868      	ldr	r0, [pc, #416]	; (4320 <Code_1115+0x4c>)
    4180:	e00a      	b.n	4198 <of_inneneinsprung>

00004182 <struktur_qof>:
    4182:	3e01      	subs	r6, #1
    4184:	41b6      	sbcs	r6, r6
    4186:	cf40      	ldmia	r7!, {r6}
    4188:	4770      	bx	lr
    418a:	46c0      	nop			; (mov r8, r8)

0000418c <Dictionary_1084>:
    418c:	0000422c 	andeq	r4, r0, ip, lsr #4
    4190:	6f020230 	svcvs	0x00020230
    4194:	48630066 	stmdami	r3!, {r1, r2, r5, r6}^

00004196 <Code_1084>:
    4196:	4863      	ldr	r0, [pc, #396]	; (4324 <Code_1115+0x50>)

00004198 <of_inneneinsprung>:
    4198:	2e08      	cmp	r6, #8
    419a:	d000      	beq.n	419e <of_inneneinsprung+0x6>
    419c:	e5f8      	b.n	3d90 <strukturen_passen_nicht>
    419e:	cf40      	ldmia	r7!, {r6}
    41a0:	b500      	push	{lr}
    41a2:	3f04      	subs	r7, #4
    41a4:	603e      	str	r6, [r7, #0]
    41a6:	0006      	movs	r6, r0
    41a8:	f7fe ff73 	bl	3092 <Code_749>

000041ac <of_opcodiereinsprung>:
    41ac:	f7ff fd4a 	bl	3c44 <branch_v>
    41b0:	6839      	ldr	r1, [r7, #0]
    41b2:	603e      	str	r6, [r7, #0]
    41b4:	460e      	mov	r6, r1
    41b6:	3601      	adds	r6, #1
    41b8:	3f04      	subs	r7, #4
    41ba:	603e      	str	r6, [r7, #0]
    41bc:	2609      	movs	r6, #9
    41be:	3f04      	subs	r7, #4
    41c0:	603e      	str	r6, [r7, #0]
    41c2:	4e59      	ldr	r6, [pc, #356]	; (4328 <Code_1115+0x54>)
    41c4:	f7ff f97b 	bl	34be <Code_829>
    41c8:	bd00      	pop	{pc}
    41ca:	2e08      	cmp	r6, #8
    41cc:	d000      	beq.n	41d0 <of_opcodiereinsprung+0x24>
    41ce:	e5df      	b.n	3d90 <strukturen_passen_nicht>
    41d0:	cf40      	ldmia	r7!, {r6}
    41d2:	b500      	push	{lr}
    41d4:	f7fc fa1f 	bl	616 <expect_two_elements>
    41d8:	f7fc f946 	bl	468 <tidyup_register_allocator_5os>
    41dc:	f7fc f949 	bl	472 <tidyup_register_allocator_4os>
    41e0:	f7fc f94c 	bl	47c <tidyup_register_allocator_3os>
    41e4:	3f04      	subs	r7, #4
    41e6:	603e      	str	r6, [r7, #0]
    41e8:	4e50      	ldr	r6, [pc, #320]	; (432c <Code_1115+0x58>)
    41ea:	f7fc fa53 	bl	694 <expect_nos_in_register>
    41ee:	430e      	orrs	r6, r1
    41f0:	6802      	ldr	r2, [r0, #0]
    41f2:	2a28      	cmp	r2, #40	; 0x28
    41f4:	d10d      	bne.n	4212 <of_opcodiereinsprung+0x66>
    41f6:	6842      	ldr	r2, [r0, #4]
    41f8:	2aff      	cmp	r2, #255	; 0xff
    41fa:	d807      	bhi.n	420c <of_opcodiereinsprung+0x60>
    41fc:	cf40      	ldmia	r7!, {r6}
    41fe:	3f04      	subs	r7, #4
    4200:	603e      	str	r6, [r7, #0]
    4202:	4e4b      	ldr	r6, [pc, #300]	; (4330 <Code_1115+0x5c>)
    4204:	4316      	orrs	r6, r2
    4206:	0209      	lsls	r1, r1, #8
    4208:	430e      	orrs	r6, r1
    420a:	e004      	b.n	4216 <of_opcodiereinsprung+0x6a>
    420c:	f7fc fa38 	bl	680 <expect_tos_in_register>
    4210:	000a      	movs	r2, r1
    4212:	00d2      	lsls	r2, r2, #3
    4214:	4316      	orrs	r6, r2
    4216:	f7ff f952 	bl	34be <Code_829>
    421a:	f7fc f8ea 	bl	3f2 <eliminiere_tos>
    421e:	f7fc f937 	bl	490 <tidyup_register_allocator_tos>
    4222:	e7c3      	b.n	41ac <of_opcodiereinsprung>

00004224 <struktur_of>:
    4224:	0030      	movs	r0, r6
    4226:	cf40      	ldmia	r7!, {r6}
    4228:	42b0      	cmp	r0, r6
    422a:	4770      	bx	lr

0000422c <Dictionary_1100>:
    422c:	00004264 	andeq	r4, r0, r4, ror #4
    4230:	65050030 	strvs	r0, [r5, #-48]	; 0x30
    4234:	666f646e 	strbtvs	r6, [pc], -lr, ror #8

00004238 <Code_1100>:
    4238:	2e09      	cmp	r6, #9
    423a:	d000      	beq.n	423e <Code_1100+0x6>
    423c:	e5a8      	b.n	3d90 <strukturen_passen_nicht>
    423e:	cf40      	ldmia	r7!, {r6}
    4240:	b500      	push	{lr}
    4242:	b440      	push	{r6}
    4244:	cf40      	ldmia	r7!, {r6}
    4246:	f7ff fcfd 	bl	3c44 <branch_v>
    424a:	6839      	ldr	r1, [r7, #0]
    424c:	603e      	str	r6, [r7, #0]
    424e:	460e      	mov	r6, r1
    4250:	f7ff fd10 	bl	3c74 <v_casebranch>
    4254:	3f04      	subs	r7, #4
    4256:	603e      	str	r6, [r7, #0]
    4258:	bc40      	pop	{r6}
    425a:	3f04      	subs	r7, #4
    425c:	603e      	str	r6, [r7, #0]
    425e:	2608      	movs	r6, #8
    4260:	bd00      	pop	{pc}
    4262:	46c0      	nop			; (mov r8, r8)

00004264 <Dictionary_1108>:
    4264:	000042b4 			; <UNDEFINED> instruction: 0x000042b4
    4268:	65070030 	strvs	r0, [r7, #-48]	; 0x30
    426c:	6163646e 	cmnvs	r3, lr, ror #8
    4270:	2e086573 	cfrshl64cs	mvdx8, mvdx3, r6

00004272 <Code_1108>:
    4272:	2e08      	cmp	r6, #8
    4274:	d000      	beq.n	4278 <Code_1108+0x6>
    4276:	e58b      	b.n	3d90 <strukturen_passen_nicht>
    4278:	cf40      	ldmia	r7!, {r6}
    427a:	b500      	push	{lr}
    427c:	3f04      	subs	r7, #4
    427e:	603e      	str	r6, [r7, #0]
    4280:	4e29      	ldr	r6, [pc, #164]	; (4328 <Code_1115+0x54>)
    4282:	f7ff f91c 	bl	34be <Code_829>
    4286:	f000 f801 	bl	428c <spruenge_einpflegen>
    428a:	bd00      	pop	{pc}

0000428c <spruenge_einpflegen>:
    428c:	b500      	push	{lr}
    428e:	0030      	movs	r0, r6
    4290:	cf40      	ldmia	r7!, {r6}
    4292:	2800      	cmp	r0, #0
    4294:	d00d      	beq.n	42b2 <spruenge_einpflegen+0x26>
    4296:	b403      	push	{r0, r1}
    4298:	2101      	movs	r1, #1
    429a:	4031      	ands	r1, r6
    429c:	2900      	cmp	r1, #0
    429e:	d003      	beq.n	42a8 <spruenge_einpflegen+0x1c>
    42a0:	3e01      	subs	r6, #1
    42a2:	f7ff fcde 	bl	3c62 <v_nullbranch>
    42a6:	e001      	b.n	42ac <spruenge_einpflegen+0x20>
    42a8:	f7ff fcd5 	bl	3c56 <v_branch>
    42ac:	bc03      	pop	{r0, r1}
    42ae:	3801      	subs	r0, #1
    42b0:	e7ef      	b.n	4292 <spruenge_einpflegen+0x6>
    42b2:	bd00      	pop	{pc}

000042b4 <Dictionary_1113>:
    42b4:	000042c8 	andeq	r4, r0, r8, asr #5
    42b8:	74050000 	strvc	r0, [r5]
    42bc:	6e656b6f 	vnmulvs.f64	d22, d5, d31

000042c0 <Code_1113>:
    42c0:	3f04      	subs	r7, #4
    42c2:	603e      	str	r6, [r7, #0]
    42c4:	2620      	movs	r6, #32
    42c6:	e005      	b.n	42d4 <Code_1115>

000042c8 <Dictionary_1115>:
    42c8:	00004338 	andeq	r4, r0, r8, lsr r3
    42cc:	70050000 	andvc	r0, r5, r0
    42d0:	65737261 	ldrbvs	r7, [r3, #-609]!	; 0x261

000042d4 <Code_1115>:
    42d4:	b510      	push	{r4, lr}
    42d6:	f7fe fb14 	bl	2902 <Code_586>
    42da:	0031      	movs	r1, r6
    42dc:	cf40      	ldmia	r7!, {r6}
    42de:	0030      	movs	r0, r6
    42e0:	cf40      	ldmia	r7!, {r6}
    42e2:	4a14      	ldr	r2, [pc, #80]	; (4334 <Code_1115+0x60>)
    42e4:	6812      	ldr	r2, [r2, #0]
    42e6:	1884      	adds	r4, r0, r2
    42e8:	2e20      	cmp	r6, #32
    42ea:	d107      	bne.n	42fc <Code_1115+0x28>
    42ec:	4291      	cmp	r1, r2
    42ee:	d00f      	beq.n	4310 <Code_1115+0x3c>
    42f0:	5c83      	ldrb	r3, [r0, r2]
    42f2:	42b3      	cmp	r3, r6
    42f4:	d102      	bne.n	42fc <Code_1115+0x28>
    42f6:	3201      	adds	r2, #1
    42f8:	1884      	adds	r4, r0, r2
    42fa:	e7f7      	b.n	42ec <Code_1115+0x18>
    42fc:	4291      	cmp	r1, r2
    42fe:	d007      	beq.n	4310 <Code_1115+0x3c>
    4300:	5c83      	ldrb	r3, [r0, r2]
    4302:	3201      	adds	r2, #1
    4304:	42b3      	cmp	r3, r6
    4306:	d1f9      	bne.n	42fc <Code_1115+0x28>
    4308:	1886      	adds	r6, r0, r2
    430a:	1b36      	subs	r6, r6, r4
    430c:	3e01      	subs	r6, #1
    430e:	e001      	b.n	4314 <Code_1115+0x40>
    4310:	1886      	adds	r6, r0, r2
    4312:	1b36      	subs	r6, r6, r4
    4314:	3f04      	subs	r7, #4
    4316:	603c      	str	r4, [r7, #0]
    4318:	4806      	ldr	r0, [pc, #24]	; (4334 <Code_1115+0x60>)
    431a:	6002      	str	r2, [r0, #0]
    431c:	bd10      	pop	{r4, pc}
    431e:	41820000 	orrmi	r0, r2, r0
    4322:	42240000 	eormi	r0, r4, #0
    4326:	cf400000 	svcgt	0x00400000
    432a:	42800000 	addmi	r0, r0, #0
    432e:	28000000 	stmdacs	r0, {}	; <UNPREDICTABLE>
    4332:	0fc00000 	svceq	0x00c00000
    4336:	43781000 	cmnmi	r8, #0

00004338 <Dictionary_1118>:
    4338:	00004378 	andeq	r4, r0, r8, ror r3
    433c:	64050000 	strvs	r0, [r5]
    4340:	74696769 	strbtvc	r6, [r9], #-1897	; 0x769

00004344 <Code_1118>:
    4344:	4bd4      	ldr	r3, [pc, #848]	; (4698 <Code_1181+0x8>)
    4346:	681b      	ldr	r3, [r3, #0]

00004348 <digit_base_r3>:
    4348:	3e30      	subs	r6, #48	; 0x30
    434a:	d30b      	bcc.n	4364 <digit_base_r3+0x1c>
    434c:	2e0a      	cmp	r6, #10
    434e:	d30b      	bcc.n	4368 <digit_base_r3+0x20>
    4350:	3e07      	subs	r6, #7
    4352:	2e0a      	cmp	r6, #10
    4354:	d306      	bcc.n	4364 <digit_base_r3+0x1c>
    4356:	2e24      	cmp	r6, #36	; 0x24
    4358:	d306      	bcc.n	4368 <digit_base_r3+0x20>
    435a:	3e20      	subs	r6, #32
    435c:	2e0a      	cmp	r6, #10
    435e:	d301      	bcc.n	4364 <digit_base_r3+0x1c>
    4360:	2e24      	cmp	r6, #36	; 0x24
    4362:	d301      	bcc.n	4368 <digit_base_r3+0x20>
    4364:	2600      	movs	r6, #0
    4366:	4770      	bx	lr
    4368:	429e      	cmp	r6, r3
    436a:	d2fb      	bcs.n	4364 <digit_base_r3+0x1c>
    436c:	3f04      	subs	r7, #4
    436e:	603e      	str	r6, [r7, #0]
    4370:	2600      	movs	r6, #0
    4372:	43f6      	mvns	r6, r6
    4374:	4770      	bx	lr
    4376:	46c0      	nop			; (mov r8, r8)

00004378 <Dictionary_1120>:
    4378:	00004484 	andeq	r4, r0, r4, lsl #9
    437c:	6e060000 	cdpvs	0, 0, cr0, cr6, cr0, {0}
    4380:	65626d75 	strbvs	r6, [r2, #-3445]!	; 0xd75
    4384:	b53f0072 	ldrlt	r0, [pc, #-114]!	; 431a <Code_1115+0x46>

00004386 <Code_1120>:
    4386:	b53f      	push	{r0, r1, r2, r3, r4, r5, lr}
    4388:	0031      	movs	r1, r6
    438a:	cf40      	ldmia	r7!, {r6}
    438c:	1e70      	subs	r0, r6, #1
    438e:	2601      	movs	r6, #1
    4390:	2201      	movs	r2, #1
    4392:	b404      	push	{r2}
    4394:	4bc0      	ldr	r3, [pc, #768]	; (4698 <Code_1181+0x8>)
    4396:	681b      	ldr	r3, [r3, #0]
    4398:	2400      	movs	r4, #0
    439a:	2500      	movs	r5, #0
    439c:	2900      	cmp	r1, #0
    439e:	d03c      	beq.n	441a <Code_1120+0x94>
    43a0:	3001      	adds	r0, #1
    43a2:	3901      	subs	r1, #1
    43a4:	7802      	ldrb	r2, [r0, #0]
    43a6:	2a2d      	cmp	r2, #45	; 0x2d
    43a8:	d104      	bne.n	43b4 <Code_1120+0x2e>
    43aa:	b001      	add	sp, #4
    43ac:	2200      	movs	r2, #0
    43ae:	43d2      	mvns	r2, r2
    43b0:	b404      	push	{r2}
    43b2:	e7f3      	b.n	439c <Code_1120+0x16>
    43b4:	2a23      	cmp	r2, #35	; 0x23
    43b6:	d101      	bne.n	43bc <Code_1120+0x36>
    43b8:	230a      	movs	r3, #10
    43ba:	e7ef      	b.n	439c <Code_1120+0x16>
    43bc:	2a24      	cmp	r2, #36	; 0x24
    43be:	d101      	bne.n	43c4 <Code_1120+0x3e>
    43c0:	2310      	movs	r3, #16
    43c2:	e7eb      	b.n	439c <Code_1120+0x16>
    43c4:	2a25      	cmp	r2, #37	; 0x25
    43c6:	d101      	bne.n	43cc <Code_1120+0x46>
    43c8:	2302      	movs	r3, #2
    43ca:	e7e7      	b.n	439c <Code_1120+0x16>
    43cc:	2a2e      	cmp	r2, #46	; 0x2e
    43ce:	d101      	bne.n	43d4 <Code_1120+0x4e>
    43d0:	2602      	movs	r6, #2
    43d2:	e7e3      	b.n	439c <Code_1120+0x16>
    43d4:	2a2c      	cmp	r2, #44	; 0x2c
    43d6:	d036      	beq.n	4446 <number_nachkommastellen>
    43d8:	3f04      	subs	r7, #4
    43da:	603e      	str	r6, [r7, #0]
    43dc:	0016      	movs	r6, r2
    43de:	f7ff ffb3 	bl	4348 <digit_base_r3>
    43e2:	2e00      	cmp	r6, #0
    43e4:	cf40      	ldmia	r7!, {r6}
    43e6:	d02b      	beq.n	4440 <Code_1120+0xba>
    43e8:	3f04      	subs	r7, #4
    43ea:	603e      	str	r6, [r7, #0]
    43ec:	0026      	movs	r6, r4
    43ee:	3f04      	subs	r7, #4
    43f0:	603e      	str	r6, [r7, #0]
    43f2:	002e      	movs	r6, r5
    43f4:	3f04      	subs	r7, #4
    43f6:	603e      	str	r6, [r7, #0]
    43f8:	001e      	movs	r6, r3
    43fa:	3f04      	subs	r7, #4
    43fc:	603e      	str	r6, [r7, #0]
    43fe:	2600      	movs	r6, #0
    4400:	b40f      	push	{r0, r1, r2, r3}
    4402:	f7fc fb9e 	bl	b42 <Code_120>
    4406:	bc0f      	pop	{r0, r1, r2, r3}
    4408:	0035      	movs	r5, r6
    440a:	cf40      	ldmia	r7!, {r6}
    440c:	0034      	movs	r4, r6
    440e:	cf40      	ldmia	r7!, {r6}
    4410:	2200      	movs	r2, #0
    4412:	19a4      	adds	r4, r4, r6
    4414:	4155      	adcs	r5, r2
    4416:	cf40      	ldmia	r7!, {r6}
    4418:	e7c0      	b.n	439c <Code_1120+0x16>
    441a:	bc04      	pop	{r2}
    441c:	2a00      	cmp	r2, #0
    441e:	d504      	bpl.n	442a <Code_1120+0xa4>
    4420:	2200      	movs	r2, #0
    4422:	43e4      	mvns	r4, r4
    4424:	43ed      	mvns	r5, r5
    4426:	3401      	adds	r4, #1
    4428:	4155      	adcs	r5, r2
    442a:	0033      	movs	r3, r6
    442c:	0026      	movs	r6, r4
    442e:	2b01      	cmp	r3, #1
    4430:	d002      	beq.n	4438 <Code_1120+0xb2>
    4432:	3f04      	subs	r7, #4
    4434:	603e      	str	r6, [r7, #0]
    4436:	002e      	movs	r6, r5
    4438:	3f04      	subs	r7, #4
    443a:	603e      	str	r6, [r7, #0]
    443c:	001e      	movs	r6, r3
    443e:	bd3f      	pop	{r0, r1, r2, r3, r4, r5, pc}
    4440:	b001      	add	sp, #4
    4442:	2600      	movs	r6, #0
    4444:	bd3f      	pop	{r0, r1, r2, r3, r4, r5, pc}

00004446 <number_nachkommastellen>:
    4446:	0025      	movs	r5, r4
    4448:	2400      	movs	r4, #0
    444a:	2602      	movs	r6, #2
    444c:	2900      	cmp	r1, #0
    444e:	d0e4      	beq.n	441a <Code_1120+0x94>
    4450:	5c42      	ldrb	r2, [r0, r1]
    4452:	3901      	subs	r1, #1
    4454:	2a2e      	cmp	r2, #46	; 0x2e
    4456:	d0f9      	beq.n	444c <number_nachkommastellen+0x6>
    4458:	3f04      	subs	r7, #4
    445a:	603e      	str	r6, [r7, #0]
    445c:	0016      	movs	r6, r2
    445e:	f7ff ff73 	bl	4348 <digit_base_r3>
    4462:	2e00      	cmp	r6, #0
    4464:	cf40      	ldmia	r7!, {r6}
    4466:	d0eb      	beq.n	4440 <Code_1120+0xba>
    4468:	3f04      	subs	r7, #4
    446a:	603c      	str	r4, [r7, #0]
    446c:	3f04      	subs	r7, #4
    446e:	603e      	str	r6, [r7, #0]
    4470:	001e      	movs	r6, r3
    4472:	b40f      	push	{r0, r1, r2, r3}
    4474:	f7fc fc19 	bl	caa <Code_156>
    4478:	bc0f      	pop	{r0, r1, r2, r3}
    447a:	0034      	movs	r4, r6
    447c:	cf40      	ldmia	r7!, {r6}
    447e:	cf40      	ldmia	r7!, {r6}
    4480:	e7e4      	b.n	444c <number_nachkommastellen+0x6>
    4482:	46c0      	nop			; (mov r8, r8)

00004484 <Dictionary_1147>:
    4484:	000044a8 	andeq	r4, r0, r8, lsr #9
    4488:	2e060000 	cdpcs	0, 0, cr0, cr6, cr0, {0}
    448c:	69676964 	stmdbvs	r7!, {r2, r5, r6, r8, fp, sp, lr}^
    4490:	2e0a0074 	mcrcs	0, 0, r0, cr10, cr4, {3}

00004492 <Code_1147>:
    4492:	2e0a      	cmp	r6, #10
    4494:	d201      	bcs.n	449a <Code_1147+0x8>
    4496:	3630      	adds	r6, #48	; 0x30
    4498:	4770      	bx	lr
    449a:	2e24      	cmp	r6, #36	; 0x24
    449c:	d201      	bcs.n	44a2 <Code_1147+0x10>
    449e:	3637      	adds	r6, #55	; 0x37
    44a0:	4770      	bx	lr
    44a2:	2623      	movs	r6, #35	; 0x23
    44a4:	4770      	bx	lr
    44a6:	46c0      	nop			; (mov r8, r8)

000044a8 <Dictionary_1148>:
    44a8:	000044e0 	andeq	r4, r0, r0, ror #9
    44ac:	68040000 	stmdavs	r4, {}	; <UNPREDICTABLE>
    44b0:	00646c6f 	rsbeq	r6, r4, pc, ror #24

000044b4 <Code_1148>:
    44b4:	0033      	movs	r3, r6
    44b6:	cf40      	ldmia	r7!, {r6}
    44b8:	4878      	ldr	r0, [pc, #480]	; (469c <Code_1181+0xc>)
    44ba:	7801      	ldrb	r1, [r0, #0]
    44bc:	293f      	cmp	r1, #63	; 0x3f
    44be:	d20d      	bcs.n	44dc <Code_1148+0x28>
    44c0:	3101      	adds	r1, #1
    44c2:	7001      	strb	r1, [r0, #0]
    44c4:	1840      	adds	r0, r0, r1
    44c6:	2901      	cmp	r1, #1
    44c8:	d007      	beq.n	44da <Code_1148+0x26>
    44ca:	3801      	subs	r0, #1
    44cc:	7802      	ldrb	r2, [r0, #0]
    44ce:	3001      	adds	r0, #1
    44d0:	7002      	strb	r2, [r0, #0]
    44d2:	3801      	subs	r0, #1
    44d4:	3901      	subs	r1, #1
    44d6:	2901      	cmp	r1, #1
    44d8:	d1f7      	bne.n	44ca <Code_1148+0x16>
    44da:	7003      	strb	r3, [r0, #0]
    44dc:	4770      	bx	lr
    44de:	46c0      	nop			; (mov r8, r8)

000044e0 <Dictionary_1150>:
    44e0:	00004500 	andeq	r4, r0, r0, lsl #10
    44e4:	68050000 	stmdavs	r5, {}	; <UNPREDICTABLE>
    44e8:	3c646c6f 	stclcc	12, cr6, [r4], #-444	; 0xfffffe44

000044ec <Code_1150>:
    44ec:	0033      	movs	r3, r6
    44ee:	cf40      	ldmia	r7!, {r6}
    44f0:	486a      	ldr	r0, [pc, #424]	; (469c <Code_1181+0xc>)
    44f2:	7801      	ldrb	r1, [r0, #0]
    44f4:	293f      	cmp	r1, #63	; 0x3f
    44f6:	d202      	bcs.n	44fe <Code_1150+0x12>
    44f8:	3101      	adds	r1, #1
    44fa:	7001      	strb	r1, [r0, #0]
    44fc:	5443      	strb	r3, [r0, r1]
    44fe:	4770      	bx	lr

00004500 <Dictionary_1152>:
    4500:	00004518 	andeq	r4, r0, r8, lsl r5
    4504:	73040000 	movwvc	r0, #16384	; 0x4000
    4508:	006e6769 	rsbeq	r6, lr, r9, ror #14

0000450c <Code_1152>:
    450c:	2e00      	cmp	r6, #0
    450e:	d401      	bmi.n	4514 <Code_1152+0x8>
    4510:	cf40      	ldmia	r7!, {r6}
    4512:	4770      	bx	lr
    4514:	262d      	movs	r6, #45	; 0x2d
    4516:	e7cd      	b.n	44b4 <Code_1148>

00004518 <Dictionary_1154>:
    4518:	0000452c 	andeq	r4, r0, ip, lsr #10
    451c:	23020000 	movwcs	r0, #8192	; 0x2000
    4520:	485e003e 	ldmdami	lr, {r1, r2, r3, r4, r5}^

00004522 <Code_1154>:
    4522:	485e      	ldr	r0, [pc, #376]	; (469c <Code_1181+0xc>)
    4524:	7806      	ldrb	r6, [r0, #0]
    4526:	3001      	adds	r0, #1
    4528:	6038      	str	r0, [r7, #0]
    452a:	4770      	bx	lr

0000452c <Dictionary_1155>:
    452c:	00004544 	andeq	r4, r0, r4, asr #10
    4530:	66030000 	strvs	r0, [r3], -r0
    4534:	b5105323 	ldrlt	r5, [r0, #-803]	; 0x323

00004536 <Code_1155>:
    4536:	b510      	push	{r4, lr}
    4538:	2420      	movs	r4, #32
    453a:	f000 f808 	bl	454e <Code_1156>
    453e:	3c01      	subs	r4, #1
    4540:	d1fb      	bne.n	453a <Code_1155+0x4>
    4542:	bd10      	pop	{r4, pc}

00004544 <Dictionary_1156>:
    4544:	00004568 	andeq	r4, r0, r8, ror #10
    4548:	66020000 	strvs	r0, [r2], -r0
    454c:	b5000023 	strlt	r0, [r0, #-35]	; 0x23

0000454e <Code_1156>:
    454e:	b500      	push	{lr}
    4550:	3f04      	subs	r7, #4
    4552:	603e      	str	r6, [r7, #0]
    4554:	4e50      	ldr	r6, [pc, #320]	; (4698 <Code_1181+0x8>)
    4556:	6836      	ldr	r6, [r6, #0]
    4558:	f7fc fac5 	bl	ae6 <Code_118>
    455c:	f7ff ff99 	bl	4492 <Code_1147>
    4560:	f7ff ffc4 	bl	44ec <Code_1150>
    4564:	bd00      	pop	{pc}
    4566:	46c0      	nop			; (mov r8, r8)

00004568 <Dictionary_1158>:
    4568:	00004584 	andeq	r4, r0, r4, lsl #11
    456c:	23020000 	movwcs	r0, #8192	; 0x2000
    4570:	b5000053 	strlt	r0, [r0, #-83]	; 0x53

00004572 <Code_1158>:
    4572:	b500      	push	{lr}
    4574:	f000 f80a 	bl	458c <Code_1159>
    4578:	2e00      	cmp	r6, #0
    457a:	d1fb      	bne.n	4574 <Code_1158+0x2>
    457c:	6838      	ldr	r0, [r7, #0]
    457e:	2800      	cmp	r0, #0
    4580:	d1f8      	bne.n	4574 <Code_1158+0x2>
    4582:	bd00      	pop	{pc}

00004584 <Dictionary_1159>:
    4584:	000045b0 			; <UNDEFINED> instruction: 0x000045b0
    4588:	23010000 	movwcs	r0, #4096	; 0x1000

0000458c <Code_1159>:
    458c:	b500      	push	{lr}
    458e:	3f04      	subs	r7, #4
    4590:	603e      	str	r6, [r7, #0]
    4592:	4e41      	ldr	r6, [pc, #260]	; (4698 <Code_1181+0x8>)
    4594:	6836      	ldr	r6, [r6, #0]
    4596:	3f04      	subs	r7, #4
    4598:	603e      	str	r6, [r7, #0]
    459a:	2600      	movs	r6, #0
    459c:	f7fc fba5 	bl	cea <Code_165>
    45a0:	f7fc f900 	bl	7a4 <Code_78>
    45a4:	cf40      	ldmia	r7!, {r6}
    45a6:	f7ff ff74 	bl	4492 <Code_1147>
    45aa:	f7ff ff83 	bl	44b4 <Code_1148>
    45ae:	bd00      	pop	{pc}

000045b0 <Dictionary_1164>:
    45b0:	000045c4 	andeq	r4, r0, r4, asr #11
    45b4:	3c020000 	stccc	0, cr0, [r2], {0}
    45b8:	48380023 	ldmdami	r8!, {r0, r1, r5}

000045ba <Code_1164>:
    45ba:	4838      	ldr	r0, [pc, #224]	; (469c <Code_1181+0xc>)
    45bc:	2100      	movs	r1, #0
    45be:	7001      	strb	r1, [r0, #0]
    45c0:	4770      	bx	lr
    45c2:	46c0      	nop			; (mov r8, r8)

000045c4 <Dictionary_1165>:
    45c4:	000045d8 	ldrdeq	r4, [r0], -r8
    45c8:	66020000 	strvs	r0, [r2], -r0
    45cc:	3f04002e 	svccc	0x0004002e

000045ce <Code_1165>:
    45ce:	3f04      	subs	r7, #4
    45d0:	603e      	str	r6, [r7, #0]
    45d2:	2620      	movs	r6, #32
    45d4:	e005      	b.n	45e2 <Code_1168>
    45d6:	46c0      	nop			; (mov r8, r8)

000045d8 <Dictionary_1168>:
    45d8:	00004628 	andeq	r4, r0, r8, lsr #12
    45dc:	66030000 	strvs	r0, [r3], -r0
    45e0:	b5006e2e 	strlt	r6, [r0, #-3630]	; 0xe2e

000045e2 <Code_1168>:
    45e2:	b500      	push	{lr}
    45e4:	b410      	push	{r4}
    45e6:	0034      	movs	r4, r6
    45e8:	cf40      	ldmia	r7!, {r6}
    45ea:	f7fc fdb5 	bl	1158 <Code_212>
    45ee:	f7fc f9f9 	bl	9e4 <Code_106>
    45f2:	3f04      	subs	r7, #4
    45f4:	603e      	str	r6, [r7, #0]
    45f6:	2600      	movs	r6, #0
    45f8:	f7ff ffdf 	bl	45ba <Code_1164>
    45fc:	f7ff ffb9 	bl	4572 <Code_1158>
    4600:	cf40      	ldmia	r7!, {r6}
    4602:	262c      	movs	r6, #44	; 0x2c
    4604:	f7ff ff72 	bl	44ec <Code_1150>
    4608:	2c00      	cmp	r4, #0
    460a:	d003      	beq.n	4614 <Code_1168+0x32>
    460c:	f7ff ff9f 	bl	454e <Code_1156>
    4610:	3c01      	subs	r4, #1
    4612:	d1fb      	bne.n	460c <Code_1168+0x2a>
    4614:	bc10      	pop	{r4}
    4616:	cf40      	ldmia	r7!, {r6}
    4618:	f7ff ff78 	bl	450c <Code_1152>
    461c:	3f04      	subs	r7, #4
    461e:	603e      	str	r6, [r7, #0]
    4620:	3f04      	subs	r7, #4
    4622:	603e      	str	r6, [r7, #0]
    4624:	e01e      	b.n	4664 <abschluss_zahlenausgabe>
    4626:	46c0      	nop			; (mov r8, r8)

00004628 <Dictionary_1176>:
    4628:	00004640 	andeq	r4, r0, r0, asr #12
    462c:	75030000 	strvc	r0, [r3]
    4630:	b5002e64 	strlt	r2, [r0, #-3684]	; 0xe64

00004632 <Code_1176>:
    4632:	b500      	push	{lr}
    4634:	f7ff ffc1 	bl	45ba <Code_1164>
    4638:	f7ff ff9b 	bl	4572 <Code_1158>
    463c:	e012      	b.n	4664 <abschluss_zahlenausgabe>
    463e:	46c0      	nop			; (mov r8, r8)

00004640 <Dictionary_1177>:
    4640:	00004674 	andeq	r4, r0, r4, ror r6
    4644:	64020000 	strvs	r0, [r2]
    4648:	b500002e 	strlt	r0, [r0, #-46]	; 0x2e

0000464a <Code_1177>:
    464a:	b500      	push	{lr}
    464c:	f7fc fd84 	bl	1158 <Code_212>
    4650:	f7fc f9c8 	bl	9e4 <Code_106>
    4654:	f7ff ffb1 	bl	45ba <Code_1164>
    4658:	f7ff ff8b 	bl	4572 <Code_1158>
    465c:	f7fc fd8f 	bl	117e <Code_213>
    4660:	f7ff ff54 	bl	450c <Code_1152>

00004664 <abschluss_zahlenausgabe>:
    4664:	f7ff ff5d 	bl	4522 <Code_1154>
    4668:	f7fe fa64 	bl	2b34 <Code_638>
    466c:	f7fe f9b0 	bl	29d0 <Code_603>
    4670:	bd00      	pop	{pc}
    4672:	46c0      	nop			; (mov r8, r8)

00004674 <Dictionary_1178>:
    4674:	00004688 	andeq	r4, r0, r8, lsl #13
    4678:	75020000 	strvc	r0, [r2]
    467c:	3f04002e 	svccc	0x0004002e

0000467e <Code_1178>:
    467e:	3f04      	subs	r7, #4
    4680:	603e      	str	r6, [r7, #0]
    4682:	2600      	movs	r6, #0
    4684:	e7d5      	b.n	4632 <Code_1176>
    4686:	46c0      	nop			; (mov r8, r8)

00004688 <Dictionary_1181>:
    4688:	00004850 	andeq	r4, r0, r0, asr r8
    468c:	2e010000 	cdpcs	0, 0, cr0, cr1, cr0, {0}

00004690 <Code_1181>:
    4690:	3f04      	subs	r7, #4
    4692:	603e      	str	r6, [r7, #0]
    4694:	17f6      	asrs	r6, r6, #31
    4696:	e7d8      	b.n	464a <Code_1177>
    4698:	10000fd8 	ldrdne	r0, [r0], -r8
    469c:	10000084 	andne	r0, r0, r4, lsl #1

000046a0 <konstantenfaltungszeiger_setzen>:
    46a0:	b530      	push	{r4, r5, lr}
    46a2:	4cd7      	ldr	r4, [pc, #860]	; (4a00 <quit_innenschleife+0x14>)
    46a4:	6825      	ldr	r5, [r4, #0]
    46a6:	2d00      	cmp	r5, #0
    46a8:	d101      	bne.n	46ae <konstantenfaltungszeiger_setzen+0xe>
    46aa:	003d      	movs	r5, r7
    46ac:	6025      	str	r5, [r4, #0]
    46ae:	bd30      	pop	{r4, r5, pc}

000046b0 <konstantenfaltungszeiger_neusetzen>:
    46b0:	b530      	push	{r4, r5, lr}
    46b2:	4cd3      	ldr	r4, [pc, #844]	; (4a00 <quit_innenschleife+0x14>)
    46b4:	003d      	movs	r5, r7
    46b6:	6025      	str	r5, [r4, #0]
    46b8:	bd30      	pop	{r4, r5, pc}

000046ba <konstantenfaltungszeiger_loeschen>:
    46ba:	b530      	push	{r4, r5, lr}
    46bc:	4cd0      	ldr	r4, [pc, #832]	; (4a00 <quit_innenschleife+0x14>)
    46be:	2500      	movs	r5, #0
    46c0:	6025      	str	r5, [r4, #0]
    46c2:	bd30      	pop	{r4, r5, pc}

000046c4 <wievielefaltkonstanten>:
    46c4:	4bce      	ldr	r3, [pc, #824]	; (4a00 <quit_innenschleife+0x14>)
    46c6:	681b      	ldr	r3, [r3, #0]
    46c8:	1bdb      	subs	r3, r3, r7
    46ca:	089b      	lsrs	r3, r3, #2
    46cc:	4770      	bx	lr

000046ce <kompilator>:
    46ce:	b500      	push	{lr}
    46d0:	0031      	movs	r1, r6
    46d2:	cf40      	ldmia	r7!, {r6}
    46d4:	48cb      	ldr	r0, [pc, #812]	; (4a04 <quit_innenschleife+0x18>)
    46d6:	4008      	ands	r0, r1
    46d8:	d002      	beq.n	46e0 <kompilator+0x12>
    46da:	f000 f8a1 	bl	4820 <inline_cache_parser>
    46de:	bd00      	pop	{pc}
    46e0:	48c9      	ldr	r0, [pc, #804]	; (4a08 <quit_innenschleife+0x1c>)
    46e2:	4008      	ands	r0, r1
    46e4:	d101      	bne.n	46ea <kompilator+0x1c>
    46e6:	f7fd f877 	bl	17d8 <sprungschreiber_flaggenerator>
    46ea:	0032      	movs	r2, r6
    46ec:	cf40      	ldmia	r7!, {r6}
    46ee:	f7ff ffd7 	bl	46a0 <konstantenfaltungszeiger_setzen>
    46f2:	48c6      	ldr	r0, [pc, #792]	; (4a0c <quit_innenschleife+0x20>)
    46f4:	4008      	ands	r0, r1
    46f6:	d003      	beq.n	4700 <kompilator+0x32>
    46f8:	3f04      	subs	r7, #4
    46fa:	603e      	str	r6, [r7, #0]
    46fc:	0016      	movs	r6, r2
    46fe:	bd00      	pop	{pc}
    4700:	f7ff ffe0 	bl	46c4 <wievielefaltkonstanten>
    4704:	2080      	movs	r0, #128	; 0x80
    4706:	4008      	ands	r0, r1
    4708:	d106      	bne.n	4718 <.interpret_faltoptimierung>
    470a:	2040      	movs	r0, #64	; 0x40
    470c:	4008      	ands	r0, r1
    470e:	d009      	beq.n	4724 <.interpret_allocator>

00004710 <.interpret_genugkonstanten>:
    4710:	200f      	movs	r0, #15
    4712:	4008      	ands	r0, r1
    4714:	4283      	cmp	r3, r0
    4716:	d305      	bcc.n	4724 <.interpret_allocator>

00004718 <.interpret_faltoptimierung>:
    4718:	3f04      	subs	r7, #4
    471a:	603e      	str	r6, [r7, #0]
    471c:	0016      	movs	r6, r2
    471e:	f7fe fd60 	bl	31e2 <Code_773>
    4722:	bd00      	pop	{pc}

00004724 <.interpret_allocator>:
    4724:	48ba      	ldr	r0, [pc, #744]	; (4a10 <quit_innenschleife+0x24>)
    4726:	4008      	ands	r0, r1
    4728:	d014      	beq.n	4754 <.interpret_allocator_finished>
    472a:	f7fb fdfc 	bl	326 <Code_34>
    472e:	3f04      	subs	r7, #4
    4730:	603e      	str	r6, [r7, #0]
    4732:	0016      	movs	r6, r2
    4734:	3f04      	subs	r7, #4
    4736:	603e      	str	r6, [r7, #0]
    4738:	000e      	movs	r6, r1
    473a:	f000 f830 	bl	479e <add_to_inline_cache>
    473e:	0010      	movs	r0, r2
    4740:	f7fe fcbb 	bl	30ba <suchedefinitionsende>
    4744:	1c42      	adds	r2, r0, #1
    4746:	48b3      	ldr	r0, [pc, #716]	; (4a14 <quit_innenschleife+0x28>)
    4748:	4790      	blx	r2
    474a:	f7ff ffb1 	bl	46b0 <konstantenfaltungszeiger_neusetzen>
    474e:	f7fb fdf9 	bl	344 <nfaltkonstanten_aufschwimmen>
    4752:	bd00      	pop	{pc}

00004754 <.interpret_allocator_finished>:
    4754:	f7fb fde7 	bl	326 <Code_34>
    4758:	3f04      	subs	r7, #4
    475a:	603e      	str	r6, [r7, #0]
    475c:	0016      	movs	r6, r2
    475e:	3f04      	subs	r7, #4
    4760:	603e      	str	r6, [r7, #0]
    4762:	000e      	movs	r6, r1
    4764:	f000 f81b 	bl	479e <add_to_inline_cache>
    4768:	f7fb fe72 	bl	450 <tidyup_register_allocator>
    476c:	f7ff ffa5 	bl	46ba <konstantenfaltungszeiger_loeschen>
    4770:	48a9      	ldr	r0, [pc, #676]	; (4a18 <quit_innenschleife+0x2c>)
    4772:	4008      	ands	r0, r1
    4774:	d101      	bne.n	477a <.prepared_for_classic>
    4776:	f7fb ffda 	bl	72e <push_lr_nachholen>

0000477a <.prepared_for_classic>:
    477a:	3f04      	subs	r7, #4
    477c:	603e      	str	r6, [r7, #0]
    477e:	0016      	movs	r6, r2
    4780:	2210      	movs	r2, #16
    4782:	400a      	ands	r2, r1
    4784:	d002      	beq.n	478c <.prepared_for_classic+0x12>
    4786:	f7fe fd2c 	bl	31e2 <Code_773>
    478a:	bd00      	pop	{pc}
    478c:	2220      	movs	r2, #32
    478e:	400a      	ands	r2, r1
    4790:	d002      	beq.n	4798 <.prepared_for_classic+0x1e>
    4792:	f7fe fc7e 	bl	3092 <Code_749>
    4796:	bd00      	pop	{pc}
    4798:	f7fe fb5c 	bl	2e54 <Code_705>
    479c:	bd00      	pop	{pc}

0000479e <add_to_inline_cache>:
    479e:	b50f      	push	{r0, r1, r2, r3, lr}
    47a0:	0032      	movs	r2, r6
    47a2:	cf40      	ldmia	r7!, {r6}
    47a4:	0033      	movs	r3, r6
    47a6:	cf40      	ldmia	r7!, {r6}
    47a8:	489c      	ldr	r0, [pc, #624]	; (4a1c <quit_innenschleife+0x30>)
    47aa:	6801      	ldr	r1, [r0, #0]
    47ac:	2906      	cmp	r1, #6
    47ae:	d207      	bcs.n	47c0 <add_to_inline_cache+0x22>
    47b0:	2006      	movs	r0, #6
    47b2:	4341      	muls	r1, r0
    47b4:	489a      	ldr	r0, [pc, #616]	; (4a20 <quit_innenschleife+0x34>)
    47b6:	1840      	adds	r0, r0, r1
    47b8:	8003      	strh	r3, [r0, #0]
    47ba:	0c1b      	lsrs	r3, r3, #16
    47bc:	8043      	strh	r3, [r0, #2]
    47be:	8082      	strh	r2, [r0, #4]
    47c0:	4896      	ldr	r0, [pc, #600]	; (4a1c <quit_innenschleife+0x30>)
    47c2:	6801      	ldr	r1, [r0, #0]
    47c4:	3101      	adds	r1, #1
    47c6:	6001      	str	r1, [r0, #0]
    47c8:	bd0f      	pop	{r0, r1, r2, r3, pc}

000047ca <inline_cache_schreiben>:
    47ca:	b50f      	push	{r0, r1, r2, r3, lr}
    47cc:	4893      	ldr	r0, [pc, #588]	; (4a1c <quit_innenschleife+0x30>)
    47ce:	6801      	ldr	r1, [r0, #0]
    47d0:	2906      	cmp	r1, #6
    47d2:	d81e      	bhi.n	4812 <inline_cache_schreiben+0x48>
    47d4:	4892      	ldr	r0, [pc, #584]	; (4a20 <quit_innenschleife+0x34>)
    47d6:	3901      	subs	r1, #1
    47d8:	d01c      	beq.n	4814 <inline_cache_schreiben+0x4a>
    47da:	3f04      	subs	r7, #4
    47dc:	603e      	str	r6, [r7, #0]
    47de:	000e      	movs	r6, r1
    47e0:	f7fe fe6d 	bl	34be <Code_829>
    47e4:	3f04      	subs	r7, #4
    47e6:	603e      	str	r6, [r7, #0]
    47e8:	8806      	ldrh	r6, [r0, #0]
    47ea:	f7fe fe68 	bl	34be <Code_829>
    47ee:	3f04      	subs	r7, #4
    47f0:	603e      	str	r6, [r7, #0]
    47f2:	8846      	ldrh	r6, [r0, #2]
    47f4:	f7fe fe63 	bl	34be <Code_829>
    47f8:	3f04      	subs	r7, #4
    47fa:	603e      	str	r6, [r7, #0]
    47fc:	8886      	ldrh	r6, [r0, #4]
    47fe:	f7fe fe5e 	bl	34be <Code_829>
    4802:	3006      	adds	r0, #6
    4804:	3901      	subs	r1, #1
    4806:	d1ed      	bne.n	47e4 <inline_cache_schreiben+0x1a>
    4808:	3f04      	subs	r7, #4
    480a:	603e      	str	r6, [r7, #0]
    480c:	4e7d      	ldr	r6, [pc, #500]	; (4a04 <quit_innenschleife+0x18>)
    480e:	f7fe fde5 	bl	33dc <Code_819>
    4812:	bd0f      	pop	{r0, r1, r2, r3, pc}
    4814:	3f04      	subs	r7, #4
    4816:	603e      	str	r6, [r7, #0]
    4818:	2640      	movs	r6, #64	; 0x40
    481a:	f7fe fddf 	bl	33dc <Code_819>
    481e:	bd0f      	pop	{r0, r1, r2, r3, pc}

00004820 <inline_cache_parser>:
    4820:	b500      	push	{lr}
    4822:	0030      	movs	r0, r6
    4824:	cf40      	ldmia	r7!, {r6}
    4826:	f7fe fc48 	bl	30ba <suchedefinitionsende>
    482a:	8801      	ldrh	r1, [r0, #0]
    482c:	3002      	adds	r0, #2
    482e:	3f04      	subs	r7, #4
    4830:	603e      	str	r6, [r7, #0]
    4832:	8806      	ldrh	r6, [r0, #0]
    4834:	8842      	ldrh	r2, [r0, #2]
    4836:	0412      	lsls	r2, r2, #16
    4838:	4316      	orrs	r6, r2
    483a:	3f04      	subs	r7, #4
    483c:	603e      	str	r6, [r7, #0]
    483e:	8886      	ldrh	r6, [r0, #4]
    4840:	b403      	push	{r0, r1}
    4842:	f7ff ff44 	bl	46ce <kompilator>
    4846:	bc03      	pop	{r0, r1}
    4848:	3006      	adds	r0, #6
    484a:	3901      	subs	r1, #1
    484c:	d1ef      	bne.n	482e <inline_cache_parser+0xe>
    484e:	bd00      	pop	{pc}

00004850 <Dictionary_1213>:
    4850:	00004898 	muleq	r0, r8, r8
    4854:	65080000 	strvs	r0, [r8]
    4858:	756c6176 	strbvc	r6, [ip, #-374]!	; 0x176
    485c:	00657461 	rsbeq	r7, r5, r1, ror #8

00004860 <Code_1213>:
    4860:	b500      	push	{lr}
    4862:	f7fe f84e 	bl	2902 <Code_586>
    4866:	cf01      	ldmia	r7!, {r0}
    4868:	b401      	push	{r0}
    486a:	b440      	push	{r6}
    486c:	cf40      	ldmia	r7!, {r6}
    486e:	486d      	ldr	r0, [pc, #436]	; (4a24 <quit_innenschleife+0x38>)
    4870:	6801      	ldr	r1, [r0, #0]
    4872:	b402      	push	{r1}
    4874:	2100      	movs	r1, #0
    4876:	6001      	str	r1, [r0, #0]
    4878:	f7fe f836 	bl	28e8 <Code_584>
    487c:	f000 f814 	bl	48a8 <Code_1215>
    4880:	4868      	ldr	r0, [pc, #416]	; (4a24 <quit_innenschleife+0x38>)
    4882:	bc02      	pop	{r1}
    4884:	6001      	str	r1, [r0, #0]
    4886:	3f04      	subs	r7, #4
    4888:	603e      	str	r6, [r7, #0]
    488a:	bc40      	pop	{r6}
    488c:	bc01      	pop	{r0}
    488e:	3f04      	subs	r7, #4
    4890:	6038      	str	r0, [r7, #0]
    4892:	f7fe f829 	bl	28e8 <Code_584>
    4896:	bd00      	pop	{pc}

00004898 <Dictionary_1215>:
    4898:	00004994 	muleq	r0, r4, r9
    489c:	69090000 	stmdbvs	r9, {}	; <UNPREDICTABLE>
    48a0:	7265746e 	rsbvc	r7, r5, #1845493760	; 0x6e000000
    48a4:	74657270 	strbtvc	r7, [r5], #-624	; 0x270

000048a8 <Code_1215>:
    48a8:	b500      	push	{lr}
    48aa:	485f      	ldr	r0, [pc, #380]	; (4a28 <quit_innenschleife+0x3c>)
    48ac:	4287      	cmp	r7, r0
    48ae:	d90b      	bls.n	48c8 <Code_1215+0x20>
    48b0:	f7fe f8e0 	bl	2a74 <dotgaensefuesschen>
    48b4:	61745310 	cmnvs	r4, r0, lsl r3
    48b8:	75206b63 	strvc	r6, [r0, #-2915]!	; 0xb63
    48bc:	7265646e 	rsbvc	r6, r5, #1845493760	; 0x6e000000
    48c0:	776f6c66 	strbvc	r6, [pc, -r6, ror #24]!
    48c4:	e079000a 	rsbs	r0, r9, sl
    48c8:	4858      	ldr	r0, [pc, #352]	; (4a2c <quit_innenschleife+0x40>)
    48ca:	4287      	cmp	r7, r0
    48cc:	d20a      	bcs.n	48e4 <Code_1215+0x3c>
    48ce:	f7fe f8d1 	bl	2a74 <dotgaensefuesschen>
    48d2:	6174530f 	cmnvs	r4, pc, lsl #6
    48d6:	6f206b63 	svcvs	0x00206b63
    48da:	66726576 			; <UNDEFINED> instruction: 0x66726576
    48de:	0a776f6c 	beq	1de0696 <BIT24+0xde0696>
    48e2:	e06b      	b.n	49bc <Code_1240>
    48e4:	f7ff fedc 	bl	46a0 <konstantenfaltungszeiger_setzen>
    48e8:	f7ff fcea 	bl	42c0 <Code_1113>
    48ec:	2e00      	cmp	r6, #0
    48ee:	d102      	bne.n	48f6 <Code_1215+0x4e>
    48f0:	3704      	adds	r7, #4
    48f2:	cf40      	ldmia	r7!, {r6}
    48f4:	bd00      	pop	{pc}
    48f6:	6838      	ldr	r0, [r7, #0]
    48f8:	3f04      	subs	r7, #4
    48fa:	603e      	str	r6, [r7, #0]
    48fc:	3f04      	subs	r7, #4
    48fe:	6038      	str	r0, [r7, #0]
    4900:	f7ff f8b0 	bl	3a64 <Code_925>
    4904:	0031      	movs	r1, r6
    4906:	cf40      	ldmia	r7!, {r6}
    4908:	0032      	movs	r2, r6
    490a:	cf40      	ldmia	r7!, {r6}
    490c:	2a00      	cmp	r2, #0
    490e:	d115      	bne.n	493c <.interpret_token_found>
    4910:	6838      	ldr	r0, [r7, #0]
    4912:	0031      	movs	r1, r6
    4914:	f7fc ff60 	bl	17d8 <sprungschreiber_flaggenerator>
    4918:	f7ff fd35 	bl	4386 <Code_1120>
    491c:	0032      	movs	r2, r6
    491e:	cf40      	ldmia	r7!, {r6}
    4920:	2a00      	cmp	r2, #0
    4922:	d1c2      	bne.n	48aa <Code_1215+0x2>

00004924 <not_found_addr_r0_len_r1>:
    4924:	f7fe f90a 	bl	2b3c <stype_addr_r0_len_r1>
    4928:	f7fe f8a4 	bl	2a74 <dotgaensefuesschen>
    492c:	6f6e200c 	svcvs	0x006e200c
    4930:	6f662074 	svcvs	0x00662074
    4934:	2e646e75 	mcrcs	14, 3, r6, cr4, cr5, {3}
    4938:	e03f000a 	eors	r0, pc, sl

0000493c <.interpret_token_found>:
    493c:	4b3c      	ldr	r3, [pc, #240]	; (4a30 <quit_innenschleife+0x44>)
    493e:	681b      	ldr	r3, [r3, #0]
    4940:	2b00      	cmp	r3, #0
    4942:	d11c      	bne.n	497e <.ausfuehren+0x10>
    4944:	f7ff feb9 	bl	46ba <konstantenfaltungszeiger_loeschen>
    4948:	2330      	movs	r3, #48	; 0x30
    494a:	400b      	ands	r3, r1
    494c:	2b30      	cmp	r3, #48	; 0x30
    494e:	d10e      	bne.n	496e <.ausfuehren>
    4950:	f7fe f8f0 	bl	2b34 <Code_638>
    4954:	f7fe f88e 	bl	2a74 <dotgaensefuesschen>
    4958:	73692012 	cmnvc	r9, #18
    495c:	6d6f6320 	stclvs	3, cr6, [pc, #-128]!	; 48e4 <Code_1215+0x3c>
    4960:	656c6970 	strbvs	r6, [ip, #-2416]!	; 0x970
    4964:	6c6e6f2d 	stclvs	15, cr6, [lr], #-180	; 0xffffff4c
    4968:	000a2e79 	andeq	r2, sl, r9, ror lr
    496c:	e026      	b.n	49bc <Code_1240>

0000496e <.ausfuehren>:
    496e:	3704      	adds	r7, #4
    4970:	cf40      	ldmia	r7!, {r6}
    4972:	3f04      	subs	r7, #4
    4974:	603e      	str	r6, [r7, #0]
    4976:	0016      	movs	r6, r2
    4978:	f7fe fc33 	bl	31e2 <Code_773>
    497c:	e795      	b.n	48aa <Code_1215+0x2>
    497e:	3704      	adds	r7, #4
    4980:	cf40      	ldmia	r7!, {r6}
    4982:	3f04      	subs	r7, #4
    4984:	603e      	str	r6, [r7, #0]
    4986:	0016      	movs	r6, r2
    4988:	3f04      	subs	r7, #4
    498a:	603e      	str	r6, [r7, #0]
    498c:	000e      	movs	r6, r1
    498e:	f7ff fe9e 	bl	46ce <kompilator>
    4992:	e78a      	b.n	48aa <Code_1215+0x2>

00004994 <Dictionary_1237>:
    4994:	000049b0 			; <UNDEFINED> instruction: 0x000049b0
    4998:	68090081 	stmdavs	r9, {r0, r7}
    499c:	2d6b6f6f 	stclcs	15, cr6, [fp, #-444]!	; 0xfffffe44
    49a0:	74697571 	strbtvc	r7, [r9], #-1393	; 0x571

000049a4 <Code_1237>:
    49a4:	3f04      	subs	r7, #4
    49a6:	603e      	str	r6, [r7, #0]
    49a8:	4e22      	ldr	r6, [pc, #136]	; (4a34 <quit_innenschleife+0x48>)
    49aa:	4770      	bx	lr
    49ac:	000049ec 	andeq	r4, r0, ip, ror #19

000049b0 <Dictionary_1240>:
    49b0:	00004a48 	andeq	r4, r0, r8, asr #20
    49b4:	71040000 	mrsvc	r0, (UNDEF: 4)
    49b8:	00746975 	rsbseq	r6, r4, r5, ror r9

000049bc <Code_1240>:
    49bc:	481e      	ldr	r0, [pc, #120]	; (4a38 <quit_innenschleife+0x4c>)
    49be:	4685      	mov	sp, r0
    49c0:	4f19      	ldr	r7, [pc, #100]	; (4a28 <quit_innenschleife+0x3c>)
    49c2:	f7fd fb7d 	bl	20c0 <Code_442>
    49c6:	481d      	ldr	r0, [pc, #116]	; (4a3c <quit_innenschleife+0x50>)
    49c8:	210a      	movs	r1, #10
    49ca:	6001      	str	r1, [r0, #0]
    49cc:	4818      	ldr	r0, [pc, #96]	; (4a30 <quit_innenschleife+0x44>)
    49ce:	2100      	movs	r1, #0
    49d0:	6001      	str	r1, [r0, #0]
    49d2:	480b      	ldr	r0, [pc, #44]	; (4a00 <quit_innenschleife+0x14>)
    49d4:	6001      	str	r1, [r0, #0]
    49d6:	f7fb fd80 	bl	4da <init_register_allocator>
    49da:	4812      	ldr	r0, [pc, #72]	; (4a24 <quit_innenschleife+0x38>)
    49dc:	6001      	str	r1, [r0, #0]
    49de:	4818      	ldr	r0, [pc, #96]	; (4a40 <quit_innenschleife+0x54>)
    49e0:	6001      	str	r1, [r0, #0]
    49e2:	4918      	ldr	r1, [pc, #96]	; (4a44 <quit_innenschleife+0x58>)
    49e4:	6041      	str	r1, [r0, #4]

000049e6 <quit_intern>:
    49e6:	4813      	ldr	r0, [pc, #76]	; (4a34 <quit_innenschleife+0x48>)
    49e8:	6800      	ldr	r0, [r0, #0]
    49ea:	4687      	mov	pc, r0

000049ec <quit_innenschleife>:
    49ec:	f7fd ff98 	bl	2920 <Code_588>
    49f0:	f7ff ff5a 	bl	48a8 <Code_1215>
    49f4:	f7fe f83e 	bl	2a74 <dotgaensefuesschen>
    49f8:	6b6f2005 	blvs	1bcca14 <BIT24+0xbcca14>
    49fc:	e7f50a2e 	ldrb	r0, [r5, lr, lsr #20]!
    4a00:	10000008 	andne	r0, r0, r8
    4a04:	00001000 	andeq	r1, r0, r0
    4a08:	00000400 	andeq	r0, r0, r0, lsl #8
    4a0c:	00002000 	andeq	r2, r0, r0
    4a10:	00000200 	andeq	r0, r0, r0, lsl #4
    4a14:	10000028 	andne	r0, r0, r8, lsr #32
    4a18:	00000800 	andeq	r0, r0, r0, lsl #16
    4a1c:	1000005c 	andne	r0, r0, ip, asr r0
    4a20:	10000060 	andne	r0, r0, r0, rrx
    4a24:	10000fc0 	andne	r0, r0, r0, asr #31
    4a28:	1000038c 	andne	r0, r0, ip, lsl #7
    4a2c:	1000018c 	andne	r0, r0, ip, lsl #3
    4a30:	10000fb4 			; <UNDEFINED> instruction: 0x10000fb4
    4a34:	10000fb0 			; <UNDEFINED> instruction: 0x10000fb0
    4a38:	1000048c 	andne	r0, r0, ip, lsl #9
    4a3c:	10000fd8 	ldrdne	r0, [r0], -r8
    4a40:	10000fb8 			; <UNDEFINED> instruction: 0x10000fb8
    4a44:	100000c4 	andne	r0, r0, r4, asr #1

00004a48 <Dictionary_1242>:
    4a48:	00004a64 	andeq	r4, r0, r4, ror #20
    4a4c:	65050000 	strvs	r0, [r5]
    4a50:	3f746e69 	svccc	0x00746e69

00004a54 <Code_1242>:
    4a54:	3f04      	subs	r7, #4
    4a56:	603e      	str	r6, [r7, #0]
    4a58:	f3ef 8610 	mrs	r6, PRIMASK
    4a5c:	3e01      	subs	r6, #1
    4a5e:	41b6      	sbcs	r6, r6
    4a60:	4770      	bx	lr
    4a62:	46c0      	nop			; (mov r8, r8)

00004a64 <Dictionary_1244>:
    4a64:	00004a74 	andeq	r4, r0, r4, ror sl
    4a68:	65040020 	strvs	r0, [r4, #-32]
    4a6c:	00746e69 	rsbseq	r6, r4, r9, ror #28

00004a70 <Code_1244>:
    4a70:	b662      	cpsie	i
    4a72:	4770      	bx	lr

00004a74 <Dictionary_1245>:
    4a74:	00004a84 	andeq	r4, r0, r4, lsl #21
    4a78:	64040020 	strvs	r0, [r4], #-32
    4a7c:	00746e69 	rsbseq	r6, r4, r9, ror #28

00004a80 <Code_1245>:
    4a80:	b672      	cpsid	i
    4a82:	4770      	bx	lr

00004a84 <Dictionary_1246>:
    4a84:	00004a9c 	muleq	r0, ip, sl
    4a88:	69040020 	stmdbvs	r4, {r5}
    4a8c:	00727370 	rsbseq	r7, r2, r0, ror r3

00004a90 <Code_1246>:
    4a90:	3f04      	subs	r7, #4
    4a92:	603e      	str	r6, [r7, #0]
    4a94:	f3ef 8605 	mrs	r6, IPSR
    4a98:	4770      	bx	lr
    4a9a:	46c0      	nop			; (mov r8, r8)

00004a9c <Dictionary_1248>:
    4a9c:	00004aa8 	andeq	r4, r0, r8, lsr #21
    4aa0:	6e030000 	cdpvs	0, 0, cr0, cr3, cr0, {0}
    4aa4:	4770706f 	ldrbmi	r7, [r0, -pc, rrx]!

00004aa6 <Code_1248>:
    4aa6:	4770      	bx	lr

00004aa8 <Dictionary_1249>:
    4aa8:	00004aec 	andeq	r4, r0, ip, ror #21
    4aac:	75090000 	strvc	r0, [r9]
    4ab0:	6e61686e 	cdpvs	8, 6, cr6, cr1, cr14, {3}
    4ab4:	64656c64 	strbtvs	r6, [r5], #-3172	; 0xc64

00004ab8 <Code_1249>:
    4ab8:	b500      	push	{lr}
    4aba:	f7fd ffdb 	bl	2a74 <dotgaensefuesschen>
    4abe:	686e5514 	stmdavs	lr!, {r2, r4, r8, sl, ip, lr}^
    4ac2:	6c646e61 	stclvs	14, cr6, [r4], #-388	; 0xfffffe7c
    4ac6:	49206465 	stmdbmi	r0!, {r0, r2, r5, r6, sl, sp, lr}
    4aca:	7265746e 	rsbvc	r7, r5, #1845493760	; 0x6e000000
    4ace:	74707572 	ldrbtvc	r7, [r0], #-1394	; 0x572
    4ad2:	3f040020 	svccc	0x00040020
    4ad6:	603e      	str	r6, [r7, #0]
    4ad8:	f3ef 8605 	mrs	r6, IPSR
    4adc:	f7fe f842 	bl	2b64 <Code_642>
    4ae0:	f7fd ffc8 	bl	2a74 <dotgaensefuesschen>
    4ae4:	000a2102 	andeq	r2, sl, r2, lsl #2
    4ae8:	bd00      	pop	{pc}
    4aea:	46c0      	nop			; (mov r8, r8)

00004aec <Dictionary_1253>:
    4aec:	00004b00 	andeq	r4, r0, r0, lsl #22
    4af0:	72050000 	andvc	r0, r5, #0
    4af4:	74657365 	strbtvc	r7, [r5], #-869	; 0x365

00004af8 <Code_1253>:
    4af8:	4885      	ldr	r0, [pc, #532]	; (4d10 <init_name+0x6>)
    4afa:	4986      	ldr	r1, [pc, #536]	; (4d14 <init_name+0xa>)
    4afc:	6001      	str	r1, [r0, #0]
    4afe:	46c0      	nop			; (mov r8, r8)

00004b00 <Dictionary_1255>:
    4b00:	00004b24 	andeq	r4, r0, r4, lsr #22
    4b04:	690b0081 	stmdbvs	fp, {r0, r7}
    4b08:	732d7172 	teqvc	sp, #-2147483620	; 0x8000001c
    4b0c:	69747379 	ldmdbvs	r4!, {r0, r3, r4, r5, r6, r8, r9, ip, sp, lr}^
    4b10:	3f046b63 	svccc	0x00046b63

00004b12 <Code_1255>:
    4b12:	3f04      	subs	r7, #4
    4b14:	603e      	str	r6, [r7, #0]
    4b16:	4e80      	ldr	r6, [pc, #512]	; (4d18 <init_name+0xe>)
    4b18:	4770      	bx	lr
    4b1a:	00004ab8 			; <UNDEFINED> instruction: 0x00004ab8

00004b1e <irq_vektor_systick>:
    4b1e:	487e      	ldr	r0, [pc, #504]	; (4d18 <init_name+0xe>)
    4b20:	6800      	ldr	r0, [r0, #0]
    4b22:	4687      	mov	pc, r0

00004b24 <Dictionary_1259>:
    4b24:	00004b48 	andeq	r4, r0, r8, asr #22
    4b28:	69090081 	stmdbvs	r9, {r0, r7}
    4b2c:	662d7172 			; <UNDEFINED> instruction: 0x662d7172
    4b30:	746c7561 	strbtvc	r7, [ip], #-1377	; 0x561

00004b34 <Code_1259>:
    4b34:	3f04      	subs	r7, #4
    4b36:	603e      	str	r6, [r7, #0]
    4b38:	4e78      	ldr	r6, [pc, #480]	; (4d1c <init_name+0x12>)
    4b3a:	4770      	bx	lr
    4b3c:	00004ab8 			; <UNDEFINED> instruction: 0x00004ab8

00004b40 <faulthandler>:
    4b40:	4876      	ldr	r0, [pc, #472]	; (4d1c <init_name+0x12>)
    4b42:	6800      	ldr	r0, [r0, #0]
    4b44:	4687      	mov	pc, r0
    4b46:	46c0      	nop			; (mov r8, r8)

00004b48 <Dictionary_1263>:
    4b48:	00004b70 	andeq	r4, r0, r0, ror fp
    4b4c:	690e0081 	stmdbvs	lr, {r0, r7}
    4b50:	632d7172 	teqvs	sp, #-2147483620	; 0x8000001c
    4b54:	656c6c6f 	strbvs	r6, [ip, #-3183]!	; 0xc6f
    4b58:	6f697463 	svcvs	0x00697463
    4b5c:	3f04006e 	svccc	0x0004006e

00004b5e <Code_1263>:
    4b5e:	3f04      	subs	r7, #4
    4b60:	603e      	str	r6, [r7, #0]
    4b62:	4e6f      	ldr	r6, [pc, #444]	; (4d20 <init_name+0x16>)
    4b64:	4770      	bx	lr
    4b66:	00004ab8 			; <UNDEFINED> instruction: 0x00004ab8

00004b6a <nullhandler>:
    4b6a:	486d      	ldr	r0, [pc, #436]	; (4d20 <init_name+0x16>)
    4b6c:	6800      	ldr	r0, [r0, #0]
    4b6e:	4687      	mov	pc, r0

00004b70 <Dictionary_1267>:
    4b70:	00004b90 	muleq	r0, r0, fp
    4b74:	69070081 	stmdbvs	r7, {r0, r7}
    4b78:	612d7172 	teqvs	sp, r2, ror r1
    4b7c:	3f046364 	svccc	0x00046364

00004b7e <Code_1267>:
    4b7e:	3f04      	subs	r7, #4
    4b80:	603e      	str	r6, [r7, #0]
    4b82:	4e68      	ldr	r6, [pc, #416]	; (4d24 <init_name+0x1a>)
    4b84:	4770      	bx	lr
    4b86:	00004ab8 			; <UNDEFINED> instruction: 0x00004ab8

00004b8a <irq_vektor_adc>:
    4b8a:	4866      	ldr	r0, [pc, #408]	; (4d24 <init_name+0x1a>)
    4b8c:	6800      	ldr	r0, [r0, #0]
    4b8e:	4687      	mov	pc, r0

00004b90 <Dictionary_1271>:
    4b90:	00004bb0 			; <UNDEFINED> instruction: 0x00004bb0
    4b94:	69070081 	stmdbvs	r7, {r0, r7}
    4b98:	692d7172 	pushvs	{r1, r4, r5, r6, r8, ip, sp, lr}
    4b9c:	3f046332 	svccc	0x00046332

00004b9e <Code_1271>:
    4b9e:	3f04      	subs	r7, #4
    4ba0:	603e      	str	r6, [r7, #0]
    4ba2:	4e61      	ldr	r6, [pc, #388]	; (4d28 <init_name+0x1e>)
    4ba4:	4770      	bx	lr
    4ba6:	00004ab8 			; <UNDEFINED> instruction: 0x00004ab8

00004baa <irq_vektor_i2c>:
    4baa:	485f      	ldr	r0, [pc, #380]	; (4d28 <init_name+0x1e>)
    4bac:	6800      	ldr	r0, [r0, #0]
    4bae:	4687      	mov	pc, r0

00004bb0 <Dictionary_1275>:
    4bb0:	00004bd4 	ldrdeq	r4, [r0], -r4	; <UNPREDICTABLE>
    4bb4:	69080081 	stmdbvs	r8, {r0, r7}
    4bb8:	752d7172 	strvc	r7, [sp, #-370]!	; 0x172
    4bbc:	00747261 	rsbseq	r7, r4, r1, ror #4

00004bc0 <Code_1275>:
    4bc0:	3f04      	subs	r7, #4
    4bc2:	603e      	str	r6, [r7, #0]
    4bc4:	4e59      	ldr	r6, [pc, #356]	; (4d2c <init_name+0x22>)
    4bc6:	4770      	bx	lr
    4bc8:	00004ab8 			; <UNDEFINED> instruction: 0x00004ab8

00004bcc <irq_vektor_uart>:
    4bcc:	4857      	ldr	r0, [pc, #348]	; (4d2c <init_name+0x22>)
    4bce:	6800      	ldr	r0, [r0, #0]
    4bd0:	4687      	mov	pc, r0
    4bd2:	46c0      	nop			; (mov r8, r8)

00004bd4 <Dictionary_1278>:
    4bd4:	0000500c 	andeq	r5, r0, ip
    4bd8:	2d18ffff 	ldccs	15, cr15, [r8, #-1020]	; 0xfffffc04
    4bdc:	46202d2d 	strtmi	r2, [r0], -sp, lsr #26
    4be0:	6873616c 	ldmdavs	r3!, {r2, r3, r5, r6, r8, sp, lr}^
    4be4:	63694420 	cmnvs	r9, #536870912	; 0x20000000
    4be8:	6e6f6974 	mcrvs	9, 3, r6, cr15, cr4, {3}
    4bec:	20797261 	rsbscs	r7, r9, r1, ror #4
    4bf0:	002d2d2d 	eoreq	r2, sp, sp, lsr #26

00004bf4 <Code_1278>:
    4bf4:	f7fd fcd8 	bl	25a8 <uart_init>
    4bf8:	484d      	ldr	r0, [pc, #308]	; (4d30 <init_name+0x26>)
    4bfa:	4685      	mov	sp, r0
    4bfc:	4f4d      	ldr	r7, [pc, #308]	; (4d34 <init_name+0x2a>)
    4bfe:	262a      	movs	r6, #42	; 0x2a
    4c00:	484d      	ldr	r0, [pc, #308]	; (4d38 <init_name+0x2e>)
    4c02:	494e      	ldr	r1, [pc, #312]	; (4d3c <init_name+0x32>)
    4c04:	6001      	str	r1, [r0, #0]
    4c06:	484e      	ldr	r0, [pc, #312]	; (4d40 <init_name+0x36>)
    4c08:	494e      	ldr	r1, [pc, #312]	; (4d44 <init_name+0x3a>)
    4c0a:	6001      	str	r1, [r0, #0]
    4c0c:	3f04      	subs	r7, #4
    4c0e:	603e      	str	r6, [r7, #0]
    4c10:	4e4c      	ldr	r6, [pc, #304]	; (4d44 <init_name+0x3a>)
    4c12:	4d4d      	ldr	r5, [pc, #308]	; (4d48 <init_name+0x3e>)

00004c14 <SucheFlashPointer_Hangelschleife>:
    4c14:	88b1      	ldrh	r1, [r6, #4]
    4c16:	4b4d      	ldr	r3, [pc, #308]	; (4d4c <init_name+0x42>)
    4c18:	4299      	cmp	r1, r3
    4c1a:	d024      	beq.n	4c66 <Sucheflashpointer_Speicherbelegung_fertig>
    4c1c:	4b4c      	ldr	r3, [pc, #304]	; (4d50 <init_name+0x46>)
    4c1e:	400b      	ands	r3, r1
    4c20:	d00a      	beq.n	4c38 <SucheFlashPointer_Hangelschleife+0x24>
    4c22:	1db0      	adds	r0, r6, #6
    4c24:	f7fe ff0e 	bl	3a44 <skipstring>
    4c28:	f7fe fa47 	bl	30ba <suchedefinitionsende>
    4c2c:	8803      	ldrh	r3, [r0, #0]
    4c2e:	8840      	ldrh	r0, [r0, #2]
    4c30:	0400      	lsls	r0, r0, #16
    4c32:	4303      	orrs	r3, r0
    4c34:	1aed      	subs	r5, r5, r3
    4c36:	e016      	b.n	4c66 <Sucheflashpointer_Speicherbelegung_fertig>
    4c38:	2380      	movs	r3, #128	; 0x80
    4c3a:	400b      	ands	r3, r1
    4c3c:	d013      	beq.n	4c66 <Sucheflashpointer_Speicherbelegung_fertig>
    4c3e:	230f      	movs	r3, #15
    4c40:	4019      	ands	r1, r3
    4c42:	0089      	lsls	r1, r1, #2
    4c44:	1a6d      	subs	r5, r5, r1
    4c46:	1db0      	adds	r0, r6, #6
    4c48:	f7fe fefc 	bl	3a44 <skipstring>
    4c4c:	f7fe fa35 	bl	30ba <suchedefinitionsende>
    4c50:	3f04      	subs	r7, #4
    4c52:	603e      	str	r6, [r7, #0]
    4c54:	0006      	movs	r6, r0
    4c56:	3f04      	subs	r7, #4
    4c58:	603e      	str	r6, [r7, #0]
    4c5a:	002e      	movs	r6, r5
    4c5c:	3f04      	subs	r7, #4
    4c5e:	603e      	str	r6, [r7, #0]
    4c60:	000e      	movs	r6, r1
    4c62:	f7fc fe87 	bl	1974 <Code_368>

00004c66 <Sucheflashpointer_Speicherbelegung_fertig>:
    4c66:	f7fe feca 	bl	39fe <Code_920>
    4c6a:	0030      	movs	r0, r6
    4c6c:	cf40      	ldmia	r7!, {r6}
    4c6e:	d0d1      	beq.n	4c14 <SucheFlashPointer_Hangelschleife>
    4c70:	4838      	ldr	r0, [pc, #224]	; (4d54 <init_name+0x4a>)
    4c72:	6006      	str	r6, [r0, #0]
    4c74:	cf40      	ldmia	r7!, {r6}
    4c76:	4838      	ldr	r0, [pc, #224]	; (4d58 <init_name+0x4e>)
    4c78:	6005      	str	r5, [r0, #0]
    4c7a:	4838      	ldr	r0, [pc, #224]	; (4d5c <init_name+0x52>)
    4c7c:	4938      	ldr	r1, [pc, #224]	; (4d60 <init_name+0x56>)
    4c7e:	4a33      	ldr	r2, [pc, #204]	; (4d4c <init_name+0x42>)
    4c80:	4288      	cmp	r0, r1
    4c82:	d004      	beq.n	4c8e <Sucheflashpointer_Speicherbelegung_fertig+0x28>
    4c84:	3802      	subs	r0, #2
    4c86:	8803      	ldrh	r3, [r0, #0]
    4c88:	4293      	cmp	r3, r2
    4c8a:	d0f9      	beq.n	4c80 <Sucheflashpointer_Speicherbelegung_fertig+0x1a>
    4c8c:	3002      	adds	r0, #2
    4c8e:	4935      	ldr	r1, [pc, #212]	; (4d64 <init_name+0x5a>)
    4c90:	6008      	str	r0, [r1, #0]
    4c92:	f7fd fa15 	bl	20c0 <Code_442>
    4c96:	f7fd feed 	bl	2a74 <dotgaensefuesschen>
    4c9a:	63654d49 	cmnvs	r5, #4672	; 0x1240
    4c9e:	70736972 	rsbsvc	r6, r3, r2, ror r9
    4ca2:	6574532d 	ldrbvs	r5, [r4, #-813]!	; 0x32d
    4ca6:	72616c6c 	rsbvc	r6, r1, #27648	; 0x6c00
    4caa:	52207369 	eorpl	r7, r0, #-1543503871	; 0xa4000001
    4cae:	2e322041 	cdpcs	0, 3, cr2, cr2, cr1, {2}
    4cb2:	20312e32 	eorscs	r2, r1, r2, lsr lr
    4cb6:	68746977 	ldmdavs	r4!, {r0, r1, r2, r4, r5, r6, r8, fp, sp, lr}^
    4cba:	20304d20 	eorscs	r4, r0, r0, lsr #26
    4cbe:	65726f63 	ldrbvs	r6, [r2, #-3939]!	; 0xf63
    4cc2:	726f6620 	rsbvc	r6, pc, #33554432	; 0x2000000
    4cc6:	43504c20 	cmpmi	r0, #8192	; 0x2000
    4cca:	34313131 	ldrtcc	r3, [r1], #-305	; 0x131
    4cce:	38324e46 	ldmdacc	r2!, {r1, r2, r6, r9, sl, fp, lr}
    4cd2:	20796220 	rsbscs	r6, r9, r0, lsr #4
    4cd6:	7474614d 	ldrbtvc	r6, [r4], #-333	; 0x14d
    4cda:	73616968 	cmnvc	r1, #1703936	; 0x1a0000
    4cde:	636f4b20 	cmnvs	pc, #32768	; 0x8000
    4ce2:	48200a68 	stmdami	r0!, {r3, r5, r6, r9, fp}
    4ce6:	2100      	movs	r1, #0
    4ce8:	6001      	str	r1, [r0, #0]
    4cea:	3f04      	subs	r7, #4
    4cec:	603e      	str	r6, [r7, #0]
    4cee:	4e1f      	ldr	r6, [pc, #124]	; (4d6c <init_name+0x62>)
    4cf0:	3f04      	subs	r7, #4
    4cf2:	603e      	str	r6, [r7, #0]
    4cf4:	2604      	movs	r6, #4
    4cf6:	f7fe feb5 	bl	3a64 <Code_925>
    4cfa:	cf40      	ldmia	r7!, {r6}
    4cfc:	2e00      	cmp	r6, #0
    4cfe:	d002      	beq.n	4d06 <Sucheflashpointer_Speicherbelegung_fertig+0xa0>
    4d00:	f7fe fa6f 	bl	31e2 <Code_773>
    4d04:	e66f      	b.n	49e6 <quit_intern>
    4d06:	cf40      	ldmia	r7!, {r6}
    4d08:	e658      	b.n	49bc <Code_1240>

00004d0a <init_name>:
    4d0a:	74696e69 	strbtvc	r6, [r9], #-3689	; 0xe69
    4d0e:	ed0c0000 	stc	0, cr0, [ip]
    4d12:	0004e000 	andeq	lr, r4, r0
    4d16:	0fac05fa 	svceq	0x00ac05fa
    4d1a:	0fa81000 	svceq	0x00a81000
    4d1e:	0fa41000 	svceq	0x00a41000
    4d22:	0fa01000 	svceq	0x00a01000
    4d26:	0f9c1000 	svceq	0x009c1000
    4d2a:	0f981000 	svceq	0x00981000
    4d2e:	048c1000 	streq	r1, [ip]
    4d32:	038c1000 	orreq	r1, ip, #0
    4d36:	00001000 	andeq	r1, r0, r0
    4d3a:	07301000 	ldreq	r1, [r0, -r0]!
    4d3e:	00041000 	andeq	r1, r4, r0
    4d42:	03001000 	movweq	r1, #0
    4d46:	0fe00000 	svceq	0x00e00000
    4d4a:	ffff1000 			; <UNDEFINED> instruction: 0xffff1000
    4d4e:	01000000 	mrseq	r0, (UNDEF: 0)
    4d52:	001c0000 	andseq	r0, ip, r0
    4d56:	00241000 	eoreq	r1, r4, r0
    4d5a:	80001000 	andhi	r1, r0, r0
    4d5e:	50000000 	andpl	r0, r0, r0
    4d62:	00180000 	andseq	r0, r8, r0
    4d66:	00081000 	andeq	r1, r8, r0
    4d6a:	4d0a1000 	stcmi	0, cr1, [sl]
	...

Disassembly of section .ARM.attributes:

00000000 <.ARM.attributes>:
   0:	00002241 	andeq	r2, r0, r1, asr #4
   4:	61656100 	cmnvs	r5, r0, lsl #2
   8:	01006962 	tsteq	r0, r2, ror #18
   c:	00000018 	andeq	r0, r0, r8, lsl r0
  10:	726f4305 	rsbvc	r4, pc, #335544320	; 0x14000000
  14:	2d786574 	cfldr64cs	mvdx6, [r8, #-464]!	; 0xfffffe30
  18:	0600304d 	streq	r3, [r0], -sp, asr #32
  1c:	094d070c 	stmdbeq	sp, {r2, r3, r8, r9, sl}^
  20:	Address 0x00000020 is out of bounds.

