
mecrisp-stellaris-stm32l152rb.elf:     file format elf32-littlearm


Disassembly of section .text:

00000000 <CoreDictionaryAnfang-0xf4>:
       0:	20000330 	andcs	r0, r0, r0, lsr r3
       4:	00003ae7 	andeq	r3, r0, r7, ror #21
       8:	00003703 	andeq	r3, r0, r3, lsl #14
       c:	00003703 	andeq	r3, r0, r3, lsl #14
      10:	00003703 	andeq	r3, r0, r3, lsl #14
      14:	00003703 	andeq	r3, r0, r3, lsl #14
      18:	00003703 	andeq	r3, r0, r3, lsl #14
	...
      2c:	00003733 	andeq	r3, r0, r3, lsr r7
      30:	00003733 	andeq	r3, r0, r3, lsr r7
      34:	00000000 	andeq	r0, r0, r0
      38:	00003733 	andeq	r3, r0, r3, lsr r7
      3c:	000036d9 	ldrdeq	r3, [r0], -r9
      40:	00003733 	andeq	r3, r0, r3, lsr r7
      44:	00003733 	andeq	r3, r0, r3, lsr r7
      48:	00003733 	andeq	r3, r0, r3, lsr r7
      4c:	00003733 	andeq	r3, r0, r3, lsr r7
      50:	00003733 	andeq	r3, r0, r3, lsr r7
      54:	00003733 	andeq	r3, r0, r3, lsr r7
      58:	0000375d 	andeq	r3, r0, sp, asr r7
      5c:	00003787 	andeq	r3, r0, r7, lsl #15
      60:	000037b1 			; <UNDEFINED> instruction: 0x000037b1
      64:	000037db 	ldrdeq	r3, [r0], -fp
      68:	00003805 	andeq	r3, r0, r5, lsl #16
      6c:	00003733 	andeq	r3, r0, r3, lsr r7
      70:	00003733 	andeq	r3, r0, r3, lsr r7
      74:	00003733 	andeq	r3, r0, r3, lsr r7
      78:	00003733 	andeq	r3, r0, r3, lsr r7
      7c:	00003733 	andeq	r3, r0, r3, lsr r7
      80:	00003733 	andeq	r3, r0, r3, lsr r7
      84:	00003733 	andeq	r3, r0, r3, lsr r7
      88:	0000382b 	andeq	r3, r0, fp, lsr #16
      8c:	00003733 	andeq	r3, r0, r3, lsr r7
      90:	00003733 	andeq	r3, r0, r3, lsr r7
      94:	00003851 	andeq	r3, r0, r1, asr r8
      98:	00003733 	andeq	r3, r0, r3, lsr r7
      9c:	00003733 	andeq	r3, r0, r3, lsr r7
      a0:	00003733 	andeq	r3, r0, r3, lsr r7
      a4:	00003733 	andeq	r3, r0, r3, lsr r7
      a8:	00003733 	andeq	r3, r0, r3, lsr r7
      ac:	00003733 	andeq	r3, r0, r3, lsr r7
      b0:	00003879 	andeq	r3, r0, r9, ror r8
      b4:	000038a1 	andeq	r3, r0, r1, lsr #17
      b8:	000038c9 	andeq	r3, r0, r9, asr #17
      bc:	00003943 	andeq	r3, r0, r3, asr #18
      c0:	0000396d 	andeq	r3, r0, sp, ror #18
      c4:	00003997 	muleq	r0, r7, r9
      c8:	000039c1 	andeq	r3, r0, r1, asr #19
      cc:	000039e9 	andeq	r3, r0, r9, ror #19
      d0:	00003a11 	andeq	r3, r0, r1, lsl sl
      d4:	00003a3b 	andeq	r3, r0, fp, lsr sl
      d8:	00003a65 	andeq	r3, r0, r5, ror #20
      dc:	00003a8f 	andeq	r3, r0, pc, lsl #21
      e0:	00003733 	andeq	r3, r0, r3, lsr r7
      e4:	00003abb 			; <UNDEFINED> instruction: 0x00003abb
      e8:	00003733 	andeq	r3, r0, r3, lsr r7
      ec:	000038f1 	strdeq	r3, [r0], -r1
      f0:	00003919 	andeq	r3, r0, r9, lsl r9

000000f4 <CoreDictionaryAnfang>:
      f4:	0000011a 	andeq	r0, r0, sl, lsl r1
      f8:	2d1e0000 	ldccs	0, cr0, [lr]
      fc:	4d202d2d 	stcmi	13, cr2, [r0, #-180]!	; 0xffffff4c
     100:	69726365 	ldmdbvs	r2!, {r0, r2, r5, r6, r8, r9, sp, lr}^
     104:	532d7073 	teqpl	sp, #115	; 0x73
     108:	6c6c6574 	cfstr64vs	mvdx6, [ip], #-464	; 0xfffffe30
     10c:	73697261 	cmnvc	r9, #268435462	; 0x10000006
     110:	726f4320 	rsbvc	r4, pc, #-2147483648	; 0x80000000
     114:	2d2d2065 	stccs	0, cr2, [sp, #-404]!	; 0xfffffe6c
     118:	0132002d 	teqeq	r2, sp, lsr #32

0000011a <Code_17>:
     11a:	00000132 	andeq	r0, r0, r2, lsr r1
     11e:	32048042 	andcc	r8, r4, #66	; 0x42
     122:	00707564 	rsbseq	r7, r0, r4, ror #10

00000126 <Code_18>:
     126:	6838      	ldr	r0, [r7, #0]
     128:	f847 6d04 	str.w	r6, [r7, #-4]!
     12c:	3f04      	subs	r7, #4
     12e:	6038      	str	r0, [r7, #0]
     130:	4770      	bx	lr

00000132 <Dictionary_20>:
     132:	00000144 	andeq	r0, r0, r4, asr #2
     136:	32058062 	andcc	r8, r5, #98	; 0x62
     13a:	706f7264 	rsbvc	r7, pc, r4, ror #4

0000013e <Code_20>:
     13e:	3704      	adds	r7, #4
     140:	cf40      	ldmia	r7!, {r6}
     142:	4770      	bx	lr

00000144 <Dictionary_22>:
     144:	00000162 	andeq	r0, r0, r2, ror #2
     148:	32058044 	andcc	r8, r5, #68	; 0x44
     14c:	70617773 	rsbvc	r7, r1, r3, ror r7

00000150 <Code_22>:
     150:	cf07      	ldmia	r7!, {r0, r1, r2}
     152:	3f04      	subs	r7, #4
     154:	6038      	str	r0, [r7, #0]
     156:	f847 6d04 	str.w	r6, [r7, #-4]!
     15a:	3f04      	subs	r7, #4
     15c:	603a      	str	r2, [r7, #0]
     15e:	000e      	movs	r6, r1
     160:	4770      	bx	lr

00000162 <Dictionary_24>:
     162:	00000176 	andeq	r0, r0, r6, ror r1
     166:	32048062 	andcc	r8, r4, #98	; 0x62
     16a:	0070696e 	rsbseq	r6, r0, lr, ror #18

0000016e <Code_24>:
     16e:	cf07      	ldmia	r7!, {r0, r1, r2}
     170:	3f04      	subs	r7, #4
     172:	6038      	str	r0, [r7, #0]
     174:	4770      	bx	lr

00000176 <Dictionary_25>:
     176:	00000190 	muleq	r0, r0, r1
     17a:	32058044 	andcc	r8, r5, #68	; 0x44
     17e:	7265766f 	rsbvc	r7, r5, #116391936	; 0x6f00000

00000182 <Code_25>:
     182:	68b8      	ldr	r0, [r7, #8]
     184:	f847 6d04 	str.w	r6, [r7, #-4]!
     188:	3f04      	subs	r7, #4
     18a:	6038      	str	r0, [r7, #0]
     18c:	68fe      	ldr	r6, [r7, #12]
     18e:	4770      	bx	lr

00000190 <Dictionary_27>:
     190:	000001b4 			; <UNDEFINED> instruction: 0x000001b4
     194:	32058044 	andcc	r8, r5, #68	; 0x44
     198:	6b637574 	blvs	18dd770 <BIT24+0x8dd770>

0000019c <Code_27>:
     19c:	cf07      	ldmia	r7!, {r0, r1, r2}
     19e:	3f04      	subs	r7, #4
     1a0:	6038      	str	r0, [r7, #0]
     1a2:	f847 6d04 	str.w	r6, [r7, #-4]!
     1a6:	3f04      	subs	r7, #4
     1a8:	603a      	str	r2, [r7, #0]
     1aa:	3f04      	subs	r7, #4
     1ac:	6039      	str	r1, [r7, #0]
     1ae:	3f04      	subs	r7, #4
     1b0:	6038      	str	r0, [r7, #0]
     1b2:	4770      	bx	lr

000001b4 <Dictionary_29>:
     1b4:	000001d6 	ldrdeq	r0, [r0], -r6
     1b8:	32048046 	andcc	r8, r4, #70	; 0x46
     1bc:	00746f72 	rsbseq	r6, r4, r2, ror pc

000001c0 <Code_29>:
     1c0:	6838      	ldr	r0, [r7, #0]
     1c2:	68b9      	ldr	r1, [r7, #8]
     1c4:	693a      	ldr	r2, [r7, #16]
     1c6:	60b8      	str	r0, [r7, #8]
     1c8:	6139      	str	r1, [r7, #16]
     1ca:	603a      	str	r2, [r7, #0]
     1cc:	6879      	ldr	r1, [r7, #4]
     1ce:	607e      	str	r6, [r7, #4]
     1d0:	68fe      	ldr	r6, [r7, #12]
     1d2:	60f9      	str	r1, [r7, #12]
     1d4:	4770      	bx	lr

000001d6 <Dictionary_30>:
     1d6:	000001f8 	strdeq	r0, [r0], -r8
     1da:	32058046 	andcc	r8, r5, #70	; 0x46
     1de:	746f722d 	strbtvc	r7, [pc], #-557	; 1e6 <Code_30+0x4>

000001e2 <Code_30>:
     1e2:	6838      	ldr	r0, [r7, #0]
     1e4:	68b9      	ldr	r1, [r7, #8]
     1e6:	693a      	ldr	r2, [r7, #16]
     1e8:	6138      	str	r0, [r7, #16]
     1ea:	6039      	str	r1, [r7, #0]
     1ec:	60ba      	str	r2, [r7, #8]
     1ee:	68f9      	ldr	r1, [r7, #12]
     1f0:	60fe      	str	r6, [r7, #12]
     1f2:	687e      	ldr	r6, [r7, #4]
     1f4:	6079      	str	r1, [r7, #4]
     1f6:	4770      	bx	lr

000001f8 <Dictionary_31>:
     1f8:	0000020c 	andeq	r0, r0, ip, lsl #4
     1fc:	32038020 	andcc	r8, r3, #32
     200:	cf01723e 	svcgt	0x0001723e

00000202 <Code_31>:
     202:	cf01      	ldmia	r7!, {r0}
     204:	b401      	push	{r0}
     206:	b440      	push	{r6}
     208:	cf40      	ldmia	r7!, {r6}
     20a:	4770      	bx	lr

0000020c <Dictionary_32>:
     20c:	00000224 	andeq	r0, r0, r4, lsr #4
     210:	32038020 	andcc	r8, r3, #32
     214:	f8473e72 			; <UNDEFINED> instruction: 0xf8473e72

00000216 <Code_32>:
     216:	f847 6d04 	str.w	r6, [r7, #-4]!
     21a:	bc40      	pop	{r6}
     21c:	bc01      	pop	{r0}
     21e:	3f04      	subs	r7, #4
     220:	6038      	str	r0, [r7, #0]
     222:	4770      	bx	lr

00000224 <Dictionary_34>:
     224:	0000023c 	andeq	r0, r0, ip, lsr r2
     228:	32038020 	andcc	r8, r3, #32
     22c:	f8474072 			; <UNDEFINED> instruction: 0xf8474072

0000022e <Code_34>:
     22e:	f847 6d04 	str.w	r6, [r7, #-4]!
     232:	9e01      	ldr	r6, [sp, #4]
     234:	f847 6d04 	str.w	r6, [r7, #-4]!
     238:	9e00      	ldr	r6, [sp, #0]
     23a:	4770      	bx	lr

0000023c <Dictionary_37>:
     23c:	0000024e 	andeq	r0, r0, lr, asr #4
     240:	32068020 	andcc	r8, r6, #32
     244:	6f726472 	svcvs	0x00726472
     248:	b0020070 	andlt	r0, r2, r0, ror r0

0000024a <Code_37>:
     24a:	b002      	add	sp, #8
     24c:	4770      	bx	lr

0000024e <Dictionary_38>:
     24e:	00000266 	andeq	r0, r0, r6, ror #4
     252:	64038042 	strvs	r8, [r3], #-66	; 0x42
     256:	68382f32 	ldmdavs	r8!, {r1, r4, r5, r8, r9, sl, fp, sp}

00000258 <Code_38>:
     258:	6838      	ldr	r0, [r7, #0]
     25a:	07f1      	lsls	r1, r6, #31
     25c:	1076      	asrs	r6, r6, #1
     25e:	0840      	lsrs	r0, r0, #1
     260:	4308      	orrs	r0, r1
     262:	6038      	str	r0, [r7, #0]
     264:	4770      	bx	lr

00000266 <Dictionary_39>:
     266:	0000027a 	andeq	r0, r0, sl, ror r2
     26a:	64038062 	strvs	r8, [r3], #-98	; 0x62
     26e:	68382a32 	ldmdavs	r8!, {r1, r4, r5, r9, fp, sp}

00000270 <Code_39>:
     270:	6838      	ldr	r0, [r7, #0]
     272:	1800      	adds	r0, r0, r0
     274:	4176      	adcs	r6, r6
     276:	6038      	str	r0, [r7, #0]
     278:	4770      	bx	lr

0000027a <Dictionary_40>:
     27a:	00000294 	muleq	r0, r4, r2
     27e:	64048042 	strvs	r8, [r4], #-66	; 0x42
     282:	00726873 	rsbseq	r6, r2, r3, ror r8

00000286 <Code_40>:
     286:	6838      	ldr	r0, [r7, #0]
     288:	07f1      	lsls	r1, r6, #31
     28a:	0876      	lsrs	r6, r6, #1
     28c:	0840      	lsrs	r0, r0, #1
     28e:	4308      	orrs	r0, r1
     290:	6038      	str	r0, [r7, #0]
     292:	4770      	bx	lr

00000294 <Dictionary_41>:
     294:	000002aa 	andeq	r0, r0, sl, lsr #5
     298:	64048062 	strvs	r8, [r4], #-98	; 0x62
     29c:	006c6873 	rsbeq	r6, ip, r3, ror r8

000002a0 <Code_41>:
     2a0:	6838      	ldr	r0, [r7, #0]
     2a2:	1800      	adds	r0, r0, r0
     2a4:	4176      	adcs	r6, r6
     2a6:	6038      	str	r0, [r7, #0]
     2a8:	4770      	bx	lr

000002aa <Dictionary_42>:
     2aa:	000002bc 			; <UNDEFINED> instruction: 0x000002bc
     2ae:	64048042 	strvs	r8, [r4], #-66	; 0x42
     2b2:	00736261 	rsbseq	r6, r3, r1, ror #4

000002b6 <Code_42>:
     2b6:	2e00      	cmp	r6, #0
     2b8:	d407      	bmi.n	2ca <Code_43>
     2ba:	4770      	bx	lr

000002bc <Dictionary_43>:
     2bc:	000002da 	ldrdeq	r0, [r0], -sl
     2c0:	64078042 	strvs	r8, [r7], #-66	; 0x42
     2c4:	6167656e 	cmnvs	r7, lr, ror #10
     2c8:	68386574 	ldmdavs	r8!, {r2, r4, r5, r6, r8, sl, sp, lr}

000002ca <Code_43>:
     2ca:	6838      	ldr	r0, [r7, #0]
     2cc:	2100      	movs	r1, #0
     2ce:	43c0      	mvns	r0, r0
     2d0:	43f6      	mvns	r6, r6
     2d2:	3001      	adds	r0, #1
     2d4:	414e      	adcs	r6, r1
     2d6:	6038      	str	r0, [r7, #0]
     2d8:	4770      	bx	lr

000002da <Dictionary_44>:
     2da:	000002f2 	strdeq	r0, [r0], -r2
     2de:	64028064 	strvs	r8, [r2], #-100	; 0x64
     2e2:	cf07002d 	svcgt	0x0007002d

000002e4 <Code_44>:
     2e4:	cf07      	ldmia	r7!, {r0, r1, r2}
     2e6:	1a12      	subs	r2, r2, r0
     2e8:	41b1      	sbcs	r1, r6
     2ea:	000e      	movs	r6, r1
     2ec:	3f04      	subs	r7, #4
     2ee:	603a      	str	r2, [r7, #0]
     2f0:	4770      	bx	lr

000002f2 <Dictionary_45>:
     2f2:	00000308 	andeq	r0, r0, r8, lsl #6
     2f6:	64028064 	strvs	r8, [r2], #-100	; 0x64
     2fa:	cf07002b 	svcgt	0x0007002b

000002fc <Code_45>:
     2fc:	cf07      	ldmia	r7!, {r0, r1, r2}
     2fe:	1812      	adds	r2, r2, r0
     300:	414e      	adcs	r6, r1
     302:	3f04      	subs	r7, #4
     304:	603a      	str	r2, [r7, #0]
     306:	4770      	bx	lr

00000308 <Dictionary_46>:
     308:	0000031a 	andeq	r0, r0, sl, lsl r3
     30c:	73038061 	movwvc	r8, #12385	; 0x3061
     310:	f847643e 			; <UNDEFINED> instruction: 0xf847643e

00000312 <Code_46>:
     312:	f847 6d04 	str.w	r6, [r7, #-4]!
     316:	17f6      	asrs	r6, r6, #31
     318:	4770      	bx	lr

0000031a <Dictionary_48>:
     31a:	0000032e 	andeq	r0, r0, lr, lsr #6
     31e:	75038062 	strvc	r8, [r3, #-98]	; 0x62
     322:	68382a6d 	ldmdavs	r8!, {r0, r2, r3, r5, r6, r9, fp, sp}

00000324 <Code_48>:
     324:	6838      	ldr	r0, [r7, #0]
     326:	fba0 0606 	umull	r0, r6, r0, r6
     32a:	6038      	str	r0, [r7, #0]
     32c:	4770      	bx	lr

0000032e <Dictionary_49>:
     32e:	00000342 	andeq	r0, r0, r2, asr #6
     332:	6d028062 	stcvs	0, cr8, [r2, #-392]	; 0xfffffe78
     336:	6838002a 	ldmdavs	r8!, {r1, r3, r5}

00000338 <Code_49>:
     338:	6838      	ldr	r0, [r7, #0]
     33a:	fb80 0606 	smull	r0, r6, r0, r6
     33e:	6038      	str	r0, [r7, #0]
     340:	4770      	bx	lr

00000342 <Dictionary_50>:
     342:	00000380 	andeq	r0, r0, r0, lsl #7
     346:	75038044 	strvc	r8, [r3, #-68]	; 0x44
     34a:	cf072a64 	svcgt	0x00072a64

0000034c <Code_50>:
     34c:	cf07      	ldmia	r7!, {r0, r1, r2}
     34e:	4356      	muls	r6, r2
     350:	4341      	muls	r1, r0
     352:	1876      	adds	r6, r6, r1
     354:	0c01      	lsrs	r1, r0, #16
     356:	0c13      	lsrs	r3, r2, #16
     358:	4359      	muls	r1, r3
     35a:	1876      	adds	r6, r6, r1
     35c:	0c01      	lsrs	r1, r0, #16
     35e:	b280      	uxth	r0, r0
     360:	b292      	uxth	r2, r2
     362:	4351      	muls	r1, r2
     364:	4343      	muls	r3, r0
     366:	4350      	muls	r0, r2
     368:	2200      	movs	r2, #0
     36a:	18c9      	adds	r1, r1, r3
     36c:	4152      	adcs	r2, r2
     36e:	0412      	lsls	r2, r2, #16
     370:	18b6      	adds	r6, r6, r2
     372:	040a      	lsls	r2, r1, #16
     374:	0c09      	lsrs	r1, r1, #16
     376:	1880      	adds	r0, r0, r2
     378:	414e      	adcs	r6, r1
     37a:	3f04      	subs	r7, #4
     37c:	6038      	str	r0, [r7, #0]
     37e:	4770      	bx	lr

00000380 <Dictionary_51>:
     380:	00000412 	andeq	r0, r0, r2, lsl r4
     384:	75048044 	strvc	r8, [r4, #-68]	; 0x44
     388:	002a6d64 	eoreq	r6, sl, r4, ror #26

0000038c <Code_51>:
     38c:	b510      	push	{r4, lr}
     38e:	2400      	movs	r4, #0
     390:	f847 6d04 	str.w	r6, [r7, #-4]!
     394:	687e      	ldr	r6, [r7, #4]
     396:	f847 6d04 	str.w	r6, [r7, #-4]!
     39a:	693e      	ldr	r6, [r7, #16]
     39c:	f7ff ffc2 	bl	324 <Code_48>
     3a0:	0031      	movs	r1, r6
     3a2:	cf40      	ldmia	r7!, {r6}
     3a4:	0030      	movs	r0, r6
     3a6:	cf40      	ldmia	r7!, {r6}
     3a8:	f847 6d04 	str.w	r6, [r7, #-4]!
     3ac:	683e      	ldr	r6, [r7, #0]
     3ae:	f847 6d04 	str.w	r6, [r7, #-4]!
     3b2:	68fe      	ldr	r6, [r7, #12]
     3b4:	b403      	push	{r0, r1}
     3b6:	f7ff ffb5 	bl	324 <Code_48>
     3ba:	bc03      	pop	{r0, r1}
     3bc:	0033      	movs	r3, r6
     3be:	cf40      	ldmia	r7!, {r6}
     3c0:	0032      	movs	r2, r6
     3c2:	cf40      	ldmia	r7!, {r6}
     3c4:	f847 6d04 	str.w	r6, [r7, #-4]!
     3c8:	683e      	ldr	r6, [r7, #0]
     3ca:	f847 6d04 	str.w	r6, [r7, #-4]!
     3ce:	693e      	ldr	r6, [r7, #16]
     3d0:	b40f      	push	{r0, r1, r2, r3}
     3d2:	f7ff ffa7 	bl	324 <Code_48>
     3d6:	bc0f      	pop	{r0, r1, r2, r3}
     3d8:	1992      	adds	r2, r2, r6
     3da:	4163      	adcs	r3, r4
     3dc:	cf40      	ldmia	r7!, {r6}
     3de:	1989      	adds	r1, r1, r6
     3e0:	4162      	adcs	r2, r4
     3e2:	4163      	adcs	r3, r4
     3e4:	cf40      	ldmia	r7!, {r6}
     3e6:	f847 6d04 	str.w	r6, [r7, #-4]!
     3ea:	687e      	ldr	r6, [r7, #4]
     3ec:	f847 6d04 	str.w	r6, [r7, #-4]!
     3f0:	68fe      	ldr	r6, [r7, #12]
     3f2:	b40f      	push	{r0, r1, r2, r3}
     3f4:	f7ff ff96 	bl	324 <Code_48>
     3f8:	bc0f      	pop	{r0, r1, r2, r3}
     3fa:	1992      	adds	r2, r2, r6
     3fc:	4163      	adcs	r3, r4
     3fe:	cf40      	ldmia	r7!, {r6}
     400:	1989      	adds	r1, r1, r6
     402:	4162      	adcs	r2, r4
     404:	4163      	adcs	r3, r4
     406:	cf40      	ldmia	r7!, {r6}
     408:	001e      	movs	r6, r3
     40a:	603a      	str	r2, [r7, #0]
     40c:	6079      	str	r1, [r7, #4]
     40e:	60b8      	str	r0, [r7, #8]
     410:	bd10      	pop	{r4, pc}

00000412 <Dictionary_68>:
     412:	00000434 	andeq	r0, r0, r4, lsr r4
     416:	2a028043 	bcs	a052a <BIT19+0x2052a>
     41a:	b500002f 	strlt	r0, [r0, #-47]	; 0x2f

0000041c <Code_68>:
     41c:	b500      	push	{lr}
     41e:	b440      	push	{r6}
     420:	cf40      	ldmia	r7!, {r6}
     422:	f7ff ff89 	bl	338 <Code_49>
     426:	f847 6d04 	str.w	r6, [r7, #-4]!
     42a:	bc40      	pop	{r6}
     42c:	f000 f84c 	bl	4c8 <Code_91>
     430:	3704      	adds	r7, #4
     432:	bd00      	pop	{pc}

00000434 <Dictionary_73>:
     434:	00000456 	andeq	r0, r0, r6, asr r4
     438:	2a058043 	bcs	16054c <BIT20+0x6054c>
     43c:	646f6d2f 	strbtvs	r6, [pc], #-3375	; 444 <Code_73+0x4>

00000440 <Code_73>:
     440:	b500      	push	{lr}
     442:	b440      	push	{r6}
     444:	cf40      	ldmia	r7!, {r6}
     446:	f7ff ff77 	bl	338 <Code_49>
     44a:	f847 6d04 	str.w	r6, [r7, #-4]!
     44e:	bc40      	pop	{r6}
     450:	f000 f83a 	bl	4c8 <Code_91>
     454:	bd00      	pop	{pc}

00000456 <Dictionary_77>:
     456:	00000478 	andeq	r0, r0, r8, ror r4
     45a:	75038043 	strvc	r8, [r3, #-67]	; 0x43
     45e:	b5002f2a 	strlt	r2, [r0, #-3882]	; 0xf2a

00000460 <Code_77>:
     460:	b500      	push	{lr}
     462:	b440      	push	{r6}
     464:	cf40      	ldmia	r7!, {r6}
     466:	f7ff ff5d 	bl	324 <Code_48>
     46a:	f847 6d04 	str.w	r6, [r7, #-4]!
     46e:	bc40      	pop	{r6}
     470:	f000 f81b 	bl	4aa <Code_86>
     474:	3704      	adds	r7, #4
     476:	bd00      	pop	{pc}

00000478 <Dictionary_82>:
     478:	0000049c 	muleq	r0, ip, r4
     47c:	75068043 	strvc	r8, [r6, #-67]	; 0x43
     480:	6f6d2f2a 	svcvs	0x006d2f2a
     484:	b5000064 	strlt	r0, [r0, #-100]	; 0x64

00000486 <Code_82>:
     486:	b500      	push	{lr}
     488:	b440      	push	{r6}
     48a:	cf40      	ldmia	r7!, {r6}
     48c:	f7ff ff4a 	bl	324 <Code_48>
     490:	f847 6d04 	str.w	r6, [r7, #-4]!
     494:	bc40      	pop	{r6}
     496:	f000 f808 	bl	4aa <Code_86>
     49a:	bd00      	pop	{pc}

0000049c <Dictionary_86>:
     49c:	000004bc 			; <UNDEFINED> instruction: 0x000004bc
     4a0:	75068043 	strvc	r8, [r6, #-67]	; 0x43
     4a4:	6f6d2f6d 	svcvs	0x006d2f6d
     4a8:	b5000064 	strlt	r0, [r0, #-100]	; 0x64

000004aa <Code_86>:
     4aa:	b500      	push	{lr}
     4ac:	f847 6d04 	str.w	r6, [r7, #-4]!
     4b0:	2600      	movs	r6, #0
     4b2:	f000 f819 	bl	4e8 <Code_95>
     4b6:	cf40      	ldmia	r7!, {r6}
     4b8:	3704      	adds	r7, #4
     4ba:	bd00      	pop	{pc}

000004bc <Dictionary_91>:
     4bc:	000004da 	ldrdeq	r0, [r0], -sl
     4c0:	6d058043 	stcvs	0, cr8, [r5, #-268]	; 0xfffffef4
     4c4:	646f6d2f 	strbtvs	r6, [pc], #-3375	; 4cc <Code_91+0x4>

000004c8 <Code_91>:
     4c8:	b500      	push	{lr}
     4ca:	f847 6d04 	str.w	r6, [r7, #-4]!
     4ce:	17f6      	asrs	r6, r6, #31
     4d0:	f000 f832 	bl	538 <Code_97>
     4d4:	cf40      	ldmia	r7!, {r6}
     4d6:	3704      	adds	r7, #4
     4d8:	bd00      	pop	{pc}

000004da <Dictionary_95>:
     4da:	0000052c 	andeq	r0, r0, ip, lsr #10
     4de:	75068044 	strvc	r8, [r6, #-68]	; 0x44
     4e2:	6f6d2f64 	svcvs	0x006d2f64
     4e6:	b4300064 	ldrtlt	r0, [r0], #-100	; 0x64

000004e8 <Code_95>:
     4e8:	b430      	push	{r4, r5}
     4ea:	2300      	movs	r3, #0
     4ec:	2200      	movs	r2, #0
     4ee:	6879      	ldr	r1, [r7, #4]
     4f0:	68b8      	ldr	r0, [r7, #8]

000004f2 <ud_slash_mod_internal>:
     4f2:	0035      	movs	r5, r6
     4f4:	683c      	ldr	r4, [r7, #0]
     4f6:	2640      	movs	r6, #64	; 0x40
     4f8:	0040      	lsls	r0, r0, #1
     4fa:	4149      	adcs	r1, r1
     4fc:	4152      	adcs	r2, r2
     4fe:	415b      	adcs	r3, r3
     500:	42ab      	cmp	r3, r5
     502:	d802      	bhi.n	50a <ud_slash_mod_internal+0x18>
     504:	d304      	bcc.n	510 <ud_slash_mod_internal+0x1e>
     506:	42a2      	cmp	r2, r4
     508:	d302      	bcc.n	510 <ud_slash_mod_internal+0x1e>
     50a:	1b12      	subs	r2, r2, r4
     50c:	41ab      	sbcs	r3, r5
     50e:	3001      	adds	r0, #1
     510:	3e01      	subs	r6, #1
     512:	d1f1      	bne.n	4f8 <ud_slash_mod_internal+0x6>
     514:	000e      	movs	r6, r1
     516:	6038      	str	r0, [r7, #0]
     518:	607b      	str	r3, [r7, #4]
     51a:	60ba      	str	r2, [r7, #8]
     51c:	bc30      	pop	{r4, r5}
     51e:	4770      	bx	lr

00000520 <uf_slash_mod>:
     520:	b430      	push	{r4, r5}
     522:	2300      	movs	r3, #0
     524:	687a      	ldr	r2, [r7, #4]
     526:	68b9      	ldr	r1, [r7, #8]
     528:	2000      	movs	r0, #0
     52a:	e7e2      	b.n	4f2 <ud_slash_mod_internal>

0000052c <Dictionary_97>:
     52c:	000005a2 	andeq	r0, r0, r2, lsr #11
     530:	64058044 	strvs	r8, [r5], #-68	; 0x44
     534:	646f6d2f 	strbtvs	r6, [pc], #-3375	; 53c <Code_97+0x4>

00000538 <Code_97>:
     538:	b500      	push	{lr}
     53a:	17f0      	asrs	r0, r6, #31
     53c:	d019      	beq.n	572 <Code_97+0x3a>
     53e:	f7ff fec4 	bl	2ca <Code_43>
     542:	f7ff fe05 	bl	150 <Code_22>
     546:	17f0      	asrs	r0, r6, #31
     548:	d00c      	beq.n	564 <Code_97+0x2c>
     54a:	f7ff febe 	bl	2ca <Code_43>
     54e:	f7ff fdff 	bl	150 <Code_22>
     552:	f7ff ffc9 	bl	4e8 <Code_95>
     556:	f7ff fdfb 	bl	150 <Code_22>
     55a:	f7ff feb6 	bl	2ca <Code_43>
     55e:	f7ff fdf7 	bl	150 <Code_22>
     562:	bd00      	pop	{pc}
     564:	f7ff fdf4 	bl	150 <Code_22>
     568:	f7ff ffbe 	bl	4e8 <Code_95>
     56c:	f7ff fead 	bl	2ca <Code_43>
     570:	bd00      	pop	{pc}
     572:	f7ff fded 	bl	150 <Code_22>
     576:	17f0      	asrs	r0, r6, #31
     578:	d00e      	beq.n	598 <Code_97+0x60>
     57a:	f7ff fea6 	bl	2ca <Code_43>
     57e:	f7ff fde7 	bl	150 <Code_22>
     582:	f7ff ffb1 	bl	4e8 <Code_95>
     586:	f7ff fea0 	bl	2ca <Code_43>
     58a:	f7ff fde1 	bl	150 <Code_22>
     58e:	f7ff fe9c 	bl	2ca <Code_43>
     592:	f7ff fddd 	bl	150 <Code_22>
     596:	bd00      	pop	{pc}
     598:	f7ff fdda 	bl	150 <Code_22>
     59c:	f7ff ffa4 	bl	4e8 <Code_95>
     5a0:	bd00      	pop	{pc}

000005a2 <Dictionary_98>:
     5a2:	000005b8 			; <UNDEFINED> instruction: 0x000005b8
     5a6:	64028044 	strvs	r8, [r2], #-68	; 0x44
     5aa:	b500002f 	strlt	r0, [r0, #-47]	; 0x2f

000005ac <Code_98>:
     5ac:	b500      	push	{lr}
     5ae:	f7ff ffc3 	bl	538 <Code_97>
     5b2:	f7ff fddc 	bl	16e <Code_24>
     5b6:	bd00      	pop	{pc}

000005b8 <Dictionary_99>:
     5b8:	00000600 	andeq	r0, r0, r0, lsl #12
     5bc:	66028044 	strvs	r8, [r2], -r4, asr #32
     5c0:	b500002a 	strlt	r0, [r0, #-42]	; 0x2a

000005c2 <Code_99>:
     5c2:	b500      	push	{lr}
     5c4:	17f0      	asrs	r0, r6, #31
     5c6:	d00d      	beq.n	5e4 <Code_99+0x22>
     5c8:	f7ff fe7f 	bl	2ca <Code_43>
     5cc:	f7ff fdc0 	bl	150 <Code_22>
     5d0:	17f0      	asrs	r0, r6, #31
     5d2:	d00d      	beq.n	5f0 <Code_99+0x2e>
     5d4:	f7ff fe79 	bl	2ca <Code_43>
     5d8:	f7ff fed8 	bl	38c <Code_51>
     5dc:	cf40      	ldmia	r7!, {r6}
     5de:	cf01      	ldmia	r7!, {r0}
     5e0:	6038      	str	r0, [r7, #0]
     5e2:	bd00      	pop	{pc}
     5e4:	f7ff fdb4 	bl	150 <Code_22>
     5e8:	17f0      	asrs	r0, r6, #31
     5ea:	d0f5      	beq.n	5d8 <Code_99+0x16>
     5ec:	f7ff fe6d 	bl	2ca <Code_43>
     5f0:	f7ff fecc 	bl	38c <Code_51>
     5f4:	cf40      	ldmia	r7!, {r6}
     5f6:	cf01      	ldmia	r7!, {r0}
     5f8:	6038      	str	r0, [r7, #0]
     5fa:	f7ff fe66 	bl	2ca <Code_43>
     5fe:	bd00      	pop	{pc}

00000600 <Dictionary_102>:
     600:	0000064c 	andeq	r0, r0, ip, asr #12
     604:	66028044 	strvs	r8, [r2], -r4, asr #32
     608:	b500002f 	strlt	r0, [r0, #-47]	; 0x2f

0000060a <Code_102>:
     60a:	b500      	push	{lr}
     60c:	17f0      	asrs	r0, r6, #31
     60e:	d00e      	beq.n	62e <Code_102+0x24>
     610:	f7ff fe5b 	bl	2ca <Code_43>
     614:	f7ff fd9c 	bl	150 <Code_22>
     618:	17f0      	asrs	r0, r6, #31
     61a:	d00e      	beq.n	63a <Code_102+0x30>
     61c:	f7ff fe55 	bl	2ca <Code_43>
     620:	f7ff fd96 	bl	150 <Code_22>
     624:	f7ff ff7c 	bl	520 <uf_slash_mod>
     628:	f7ff fda1 	bl	16e <Code_24>
     62c:	bd00      	pop	{pc}
     62e:	f7ff fd8f 	bl	150 <Code_22>
     632:	17f0      	asrs	r0, r6, #31
     634:	d0f4      	beq.n	620 <Code_102+0x16>
     636:	f7ff fe48 	bl	2ca <Code_43>
     63a:	f7ff fd89 	bl	150 <Code_22>
     63e:	f7ff ff6f 	bl	520 <uf_slash_mod>
     642:	f7ff fe42 	bl	2ca <Code_43>
     646:	f7ff fd92 	bl	16e <Code_24>
     64a:	bd00      	pop	{pc}

0000064c <Dictionary_103>:
     64c:	00000660 	andeq	r0, r0, r0, ror #12
     650:	32028020 	andcc	r8, r2, #32
     654:	cf060021 	svcgt	0x00060021

00000656 <Code_103>:
     656:	cf06      	ldmia	r7!, {r1, r2}
     658:	6031      	str	r1, [r6, #0]
     65a:	6072      	str	r2, [r6, #4]
     65c:	cf40      	ldmia	r7!, {r6}
     65e:	4770      	bx	lr

00000660 <Dictionary_105>:
     660:	00000674 	andeq	r0, r0, r4, ror r6
     664:	32028020 	andcc	r8, r2, #32
     668:	3f040040 	svccc	0x00040040

0000066a <Code_105>:
     66a:	3f04      	subs	r7, #4
     66c:	6870      	ldr	r0, [r6, #4]
     66e:	6038      	str	r0, [r7, #0]
     670:	6836      	ldr	r6, [r6, #0]
     672:	4770      	bx	lr

00000674 <Dictionary_106>:
     674:	00000694 	muleq	r0, r4, r6
     678:	64038044 	strvs	r8, [r3], #-68	; 0x44
     67c:	cf073c75 	svcgt	0x00073c75

0000067e <Code_106>:
     67e:	cf07      	ldmia	r7!, {r0, r1, r2}
     680:	428e      	cmp	r6, r1
     682:	d804      	bhi.n	68e <Code_106+0x10>
     684:	d101      	bne.n	68a <Code_106+0xc>
     686:	4290      	cmp	r0, r2
     688:	d801      	bhi.n	68e <Code_106+0x10>
     68a:	2600      	movs	r6, #0
     68c:	4770      	bx	lr
     68e:	2600      	movs	r6, #0
     690:	43f6      	mvns	r6, r6
     692:	4770      	bx	lr

00000694 <Dictionary_107>:
     694:	000006b4 			; <UNDEFINED> instruction: 0x000006b4
     698:	64038044 	strvs	r8, [r3], #-68	; 0x44
     69c:	cf073e75 	svcgt	0x00073e75

0000069e <Code_107>:
     69e:	cf07      	ldmia	r7!, {r0, r1, r2}
     6a0:	42b1      	cmp	r1, r6
     6a2:	d804      	bhi.n	6ae <Code_107+0x10>
     6a4:	d101      	bne.n	6aa <Code_107+0xc>
     6a6:	4282      	cmp	r2, r0
     6a8:	d801      	bhi.n	6ae <Code_107+0x10>
     6aa:	2600      	movs	r6, #0
     6ac:	4770      	bx	lr
     6ae:	2600      	movs	r6, #0
     6b0:	43f6      	mvns	r6, r6
     6b2:	4770      	bx	lr

000006b4 <Dictionary_108>:
     6b4:	000006d4 	ldrdeq	r0, [r0], -r4
     6b8:	64028044 	strvs	r8, [r2], #-68	; 0x44
     6bc:	cf07003c 	svcgt	0x0007003c

000006be <Code_108>:
     6be:	cf07      	ldmia	r7!, {r0, r1, r2}
     6c0:	428e      	cmp	r6, r1
     6c2:	dc04      	bgt.n	6ce <Code_108+0x10>
     6c4:	d101      	bne.n	6ca <Code_108+0xc>
     6c6:	4290      	cmp	r0, r2
     6c8:	dc01      	bgt.n	6ce <Code_108+0x10>
     6ca:	2600      	movs	r6, #0
     6cc:	4770      	bx	lr
     6ce:	2600      	movs	r6, #0
     6d0:	43f6      	mvns	r6, r6
     6d2:	4770      	bx	lr

000006d4 <Dictionary_109>:
     6d4:	000006f4 	strdeq	r0, [r0], -r4
     6d8:	64028044 	strvs	r8, [r2], #-68	; 0x44
     6dc:	cf07003e 	svcgt	0x0007003e

000006de <Code_109>:
     6de:	cf07      	ldmia	r7!, {r0, r1, r2}
     6e0:	42b1      	cmp	r1, r6
     6e2:	dc04      	bgt.n	6ee <Code_109+0x10>
     6e4:	d101      	bne.n	6ea <Code_109+0xc>
     6e6:	4282      	cmp	r2, r0
     6e8:	dc01      	bgt.n	6ee <Code_109+0x10>
     6ea:	2600      	movs	r6, #0
     6ec:	4770      	bx	lr
     6ee:	2600      	movs	r6, #0
     6f0:	43f6      	mvns	r6, r6
     6f2:	4770      	bx	lr

000006f4 <Dictionary_110>:
     6f4:	00000704 	andeq	r0, r0, r4, lsl #14
     6f8:	64038062 	strvs	r8, [r3], #-98	; 0x62
     6fc:	37043c30 	smladxcc	r4, r0, ip, r3

000006fe <Code_110>:
     6fe:	3704      	adds	r7, #4
     700:	17f6      	asrs	r6, r6, #31
     702:	4770      	bx	lr

00000704 <Dictionary_111>:
     704:	00000718 	andeq	r0, r0, r8, lsl r7
     708:	64038062 	strvs	r8, [r3], #-98	; 0x62
     70c:	cf013d30 	svcgt	0x00013d30

0000070e <Code_111>:
     70e:	cf01      	ldmia	r7!, {r0}
     710:	4306      	orrs	r6, r0
     712:	3e01      	subs	r6, #1
     714:	41b6      	sbcs	r6, r6
     716:	4770      	bx	lr

00000718 <Dictionary_112>:
     718:	00000732 	andeq	r0, r0, r2, lsr r7
     71c:	64038044 	strvs	r8, [r3], #-68	; 0x44
     720:	cf073e3c 	svcgt	0x00073e3c

00000722 <Code_112>:
     722:	cf07      	ldmia	r7!, {r0, r1, r2}
     724:	4050      	eors	r0, r2
     726:	404e      	eors	r6, r1
     728:	4306      	orrs	r6, r0
     72a:	3e01      	subs	r6, #1
     72c:	41b6      	sbcs	r6, r6
     72e:	43f6      	mvns	r6, r6
     730:	4770      	bx	lr

00000732 <Dictionary_113>:
     732:	0000074a 	andeq	r0, r0, sl, asr #14
     736:	64028044 	strvs	r8, [r2], #-68	; 0x44
     73a:	cf07003d 	svcgt	0x0007003d

0000073c <Code_113>:
     73c:	cf07      	ldmia	r7!, {r0, r1, r2}
     73e:	4050      	eors	r0, r2
     740:	404e      	eors	r6, r1
     742:	4306      	orrs	r6, r0
     744:	3e01      	subs	r6, #1
     746:	41b6      	sbcs	r6, r6
     748:	4770      	bx	lr

0000074a <Dictionary_114>:
     74a:	0000075c 	andeq	r0, r0, ip, asr r7
     74e:	73038020 	movwvc	r8, #12320	; 0x3020
     752:	f8474070 			; <UNDEFINED> instruction: 0xf8474070

00000754 <Code_114>:
     754:	f847 6d04 	str.w	r6, [r7, #-4]!
     758:	003e      	movs	r6, r7
     75a:	4770      	bx	lr

0000075c <Dictionary_116>:
     75c:	0000076c 	andeq	r0, r0, ip, ror #14
     760:	73038020 	movwvc	r8, #12320	; 0x3020
     764:	00372170 	eorseq	r2, r7, r0, ror r1

00000766 <Code_116>:
     766:	0037      	movs	r7, r6
     768:	cf40      	ldmia	r7!, {r6}
     76a:	4770      	bx	lr

0000076c <Dictionary_117>:
     76c:	0000077e 	andeq	r0, r0, lr, ror r7
     770:	72038020 	andvc	r8, r3, #32
     774:	f8474070 			; <UNDEFINED> instruction: 0xf8474070

00000776 <Code_117>:
     776:	f847 6d04 	str.w	r6, [r7, #-4]!
     77a:	466e      	mov	r6, sp
     77c:	4770      	bx	lr

0000077e <Dictionary_119>:
     77e:	0000078e 	andeq	r0, r0, lr, lsl #15
     782:	72038020 	andvc	r8, r3, #32
     786:	46b52170 			; <UNDEFINED> instruction: 0x46b52170

00000788 <Code_119>:
     788:	46b5      	mov	sp, r6
     78a:	cf40      	ldmia	r7!, {r6}
     78c:	4770      	bx	lr

0000078e <Dictionary_120>:
     78e:	0000079e 	muleq	r0, lr, r7
     792:	64038061 	strvs	r8, [r3], #-97	; 0x61
     796:	f8477075 			; <UNDEFINED> instruction: 0xf8477075

00000798 <Code_120>:
     798:	f847 6d04 	str.w	r6, [r7, #-4]!
     79c:	4770      	bx	lr

0000079e <Dictionary_123>:
     79e:	000007ae 	andeq	r0, r0, lr, lsr #15
     7a2:	64048061 	strvs	r8, [r4], #-97	; 0x61
     7a6:	00706f72 	rsbseq	r6, r0, r2, ror pc

000007aa <Code_123>:
     7aa:	cf40      	ldmia	r7!, {r6}
     7ac:	4770      	bx	lr

000007ae <Dictionary_125>:
     7ae:	000007c4 	andeq	r0, r0, r4, asr #15
     7b2:	3f048061 	svccc	0x00048061
     7b6:	00707564 	rsbseq	r7, r0, r4, ror #10

000007ba <Code_125>:
     7ba:	2e00      	cmp	r6, #0
     7bc:	d001      	beq.n	7c2 <Code_125+0x8>
     7be:	f847 6d04 	str.w	r6, [r7, #-4]!
     7c2:	4770      	bx	lr

000007c4 <Dictionary_127>:
     7c4:	000007d8 	ldrdeq	r0, [r0], -r8
     7c8:	73048062 	movwvc	r8, #16482	; 0x4062
     7cc:	00706177 	rsbseq	r6, r0, r7, ror r1

000007d0 <Code_127>:
     7d0:	6839      	ldr	r1, [r7, #0]
     7d2:	603e      	str	r6, [r7, #0]
     7d4:	000e      	movs	r6, r1
     7d6:	4770      	bx	lr

000007d8 <Dictionary_128>:
     7d8:	000007e6 	andeq	r0, r0, r6, ror #15
     7dc:	6e038062 	cdpvs	0, 0, cr8, cr3, cr2, {3}
     7e0:	37047069 	strcc	r7, [r4, -r9, rrx]

000007e2 <Code_128>:
     7e2:	3704      	adds	r7, #4
     7e4:	4770      	bx	lr

000007e6 <Dictionary_130>:
     7e6:	000007fa 	strdeq	r0, [r0], -sl
     7ea:	6f048062 	svcvs	0x00048062
     7ee:	00726576 	rsbseq	r6, r2, r6, ror r5

000007f2 <Code_130>:
     7f2:	f847 6d04 	str.w	r6, [r7, #-4]!
     7f6:	687e      	ldr	r6, [r7, #4]
     7f8:	4770      	bx	lr

000007fa <Dictionary_132>:
     7fa:	00000810 	andeq	r0, r0, r0, lsl r8
     7fe:	74048062 	strvc	r8, [r4], #-98	; 0x62
     802:	006b6375 	rsbeq	r6, fp, r5, ror r3

00000806 <Code_132>:
     806:	cf01      	ldmia	r7!, {r0}
     808:	3f08      	subs	r7, #8
     80a:	607e      	str	r6, [r7, #4]
     80c:	6038      	str	r0, [r7, #0]
     80e:	4770      	bx	lr

00000810 <Dictionary_133>:
     810:	00000826 	andeq	r0, r0, r6, lsr #16
     814:	72038063 	andvc	r8, r3, #99	; 0x63
     818:	cf03746f 	svcgt	0x0003746f

0000081a <Code_133>:
     81a:	cf03      	ldmia	r7!, {r0, r1}
     81c:	3f08      	subs	r7, #8
     81e:	6078      	str	r0, [r7, #4]
     820:	603e      	str	r6, [r7, #0]
     822:	000e      	movs	r6, r1
     824:	4770      	bx	lr

00000826 <Dictionary_134>:
     826:	0000083e 	andeq	r0, r0, lr, lsr r8
     82a:	2d048063 	stccs	0, cr8, [r4, #-396]	; 0xfffffe74
     82e:	00746f72 	rsbseq	r6, r4, r2, ror pc

00000832 <Code_134>:
     832:	cf03      	ldmia	r7!, {r0, r1}
     834:	3f08      	subs	r7, #8
     836:	607e      	str	r6, [r7, #4]
     838:	6039      	str	r1, [r7, #0]
     83a:	0006      	movs	r6, r0
     83c:	4770      	bx	lr

0000083e <Dictionary_135>:
     83e:	00000850 	andeq	r0, r0, r0, asr r8
     842:	70048020 	andvc	r8, r4, r0, lsr #32
     846:	006b6369 	rsbeq	r6, fp, r9, ror #6

0000084a <Code_135>:
     84a:	f857 6026 	ldr.w	r6, [r7, r6, lsl #2]
     84e:	4770      	bx	lr

00000850 <Dictionary_136>:
     850:	00000868 	andeq	r0, r0, r8, ror #16
     854:	64058000 	strvs	r8, [r5]
     858:	68747065 	ldmdavs	r4!, {r0, r2, r5, r6, ip, sp, lr}^

0000085c <Code_136>:
     85c:	49bc      	ldr	r1, [pc, #752]	; (b50 <Code_180+0xc>)
     85e:	1bc9      	subs	r1, r1, r7
     860:	f847 6d04 	str.w	r6, [r7, #-4]!
     864:	088e      	lsrs	r6, r1, #2
     866:	4770      	bx	lr

00000868 <Dictionary_138>:
     868:	00000884 	andeq	r0, r0, r4, lsl #17
     86c:	72068000 	andvc	r8, r6, #0
     870:	74706564 	ldrbtvc	r6, [r0], #-1380	; 0x564
     874:	f8470068 			; <UNDEFINED> instruction: 0xf8470068

00000876 <Code_138>:
     876:	f847 6d04 	str.w	r6, [r7, #-4]!
     87a:	466e      	mov	r6, sp
     87c:	49b5      	ldr	r1, [pc, #724]	; (b54 <Code_180+0x10>)
     87e:	1b89      	subs	r1, r1, r6
     880:	088e      	lsrs	r6, r1, #2
     882:	4770      	bx	lr

00000884 <Dictionary_140>:
     884:	00000894 	muleq	r0, r4, r8
     888:	3e028020 	cdpcc	0, 0, cr8, cr2, cr0, {1}
     88c:	b4400072 	strblt	r0, [r0], #-114	; 0x72

0000088e <Code_140>:
     88e:	b440      	push	{r6}
     890:	cf40      	ldmia	r7!, {r6}
     892:	4770      	bx	lr

00000894 <Dictionary_141>:
     894:	000008a6 	andeq	r0, r0, r6, lsr #17
     898:	72028020 	andvc	r8, r2, #32
     89c:	f847003e 			; <UNDEFINED> instruction: 0xf847003e

0000089e <Code_141>:
     89e:	f847 6d04 	str.w	r6, [r7, #-4]!
     8a2:	bc40      	pop	{r6}
     8a4:	4770      	bx	lr

000008a6 <Dictionary_143>:
     8a6:	000008b8 			; <UNDEFINED> instruction: 0x000008b8
     8aa:	72028020 	andvc	r8, r2, #32
     8ae:	f8470040 			; <UNDEFINED> instruction: 0xf8470040

000008b0 <Code_143>:
     8b0:	f847 6d04 	str.w	r6, [r7, #-4]!
     8b4:	9e00      	ldr	r6, [sp, #0]
     8b6:	4770      	bx	lr

000008b8 <Dictionary_145>:
     8b8:	000008c8 	andeq	r0, r0, r8, asr #17
     8bc:	72058020 	andvc	r8, r5, #32
     8c0:	706f7264 	rsbvc	r7, pc, r4, ror #4

000008c4 <Code_145>:
     8c4:	b001      	add	sp, #4
     8c6:	4770      	bx	lr

000008c8 <Dictionary_146>:
     8c8:	000008dc 	ldrdeq	r0, [r0], -ip
     8cc:	72058020 	andvc	r8, r5, #32
     8d0:	6b636970 	blvs	18dae98 <BIT24+0x8dae98>

000008d4 <Code_146>:
     8d4:	00b6      	lsls	r6, r6, #2
     8d6:	446e      	add	r6, sp
     8d8:	6836      	ldr	r6, [r6, #0]
     8da:	4770      	bx	lr

000008dc <Dictionary_147>:
     8dc:	000008f2 	strdeq	r0, [r0], -r2
     8e0:	6103806e 	tstvs	r3, lr, rrx
     8e4:	cf01646e 	svcgt	0x0001646e

000008e6 <Code_147>:
     8e6:	cf01      	ldmia	r7!, {r0}
     8e8:	4006      	ands	r6, r0
     8ea:	4770      	bx	lr
     8ec:	4006      	ands	r6, r0
     8ee:	f0160600 			; <UNDEFINED> instruction: 0xf0160600

000008f2 <Dictionary_148>:
     8f2:	0000090a 	andeq	r0, r0, sl, lsl #18
     8f6:	6203806e 	andvs	r8, r3, #110	; 0x6e
     8fa:	cf016369 	svcgt	0x00016369

000008fc <Code_148>:
     8fc:	cf01      	ldmia	r7!, {r0}
     8fe:	43b0      	bics	r0, r6
     900:	0006      	movs	r6, r0
     902:	4770      	bx	lr
     904:	4386      	bics	r6, r0
     906:	f0360600 			; <UNDEFINED> instruction: 0xf0360600

0000090a <Dictionary_149>:
     90a:	00000920 	andeq	r0, r0, r0, lsr #18
     90e:	6f02806e 	svcvs	0x0002806e
     912:	cf010072 	svcgt	0x00010072

00000914 <Code_149>:
     914:	cf01      	ldmia	r7!, {r0}
     916:	4306      	orrs	r6, r0
     918:	4770      	bx	lr
     91a:	4306      	orrs	r6, r0
     91c:	f0560600 			; <UNDEFINED> instruction: 0xf0560600

00000920 <Dictionary_150>:
     920:	00000936 	andeq	r0, r0, r6, lsr r9
     924:	7803806e 	stmdavc	r3, {r1, r2, r3, r5, r6, pc}
     928:	cf01726f 	svcgt	0x0001726f

0000092a <Code_150>:
     92a:	cf01      	ldmia	r7!, {r0}
     92c:	4046      	eors	r6, r0
     92e:	4770      	bx	lr
     930:	4046      	eors	r6, r0
     932:	f0960600 			; <UNDEFINED> instruction: 0xf0960600

00000936 <Dictionary_151>:
     936:	00000944 	andeq	r0, r0, r4, asr #18
     93a:	6e038061 	cdpvs	0, 0, cr8, cr3, cr1, {3}
     93e:	43f6746f 	mvnsmi	r7, #1862270976	; 0x6f000000

00000940 <Code_151>:
     940:	43f6      	mvns	r6, r6
     942:	4770      	bx	lr

00000944 <Dictionary_152>:
     944:	00000954 	andeq	r0, r0, r4, asr r9
     948:	63038061 	movwvs	r8, #12385	; 0x3061
     94c:	fab67a6c 	blx	fed9f304 <BIT31+0x7ed9f304>

0000094e <Code_152>:
     94e:	fab6 f686 	clz	r6, r6
     952:	4770      	bx	lr

00000954 <Dictionary_153>:
     954:	00000962 	andeq	r0, r0, r2, ror #18
     958:	73038061 	movwvc	r8, #12385	; 0x3061
     95c:	08767268 	ldmdaeq	r6!, {r3, r5, r6, r9, ip, sp, lr}^

0000095e <Code_153>:
     95e:	0876      	lsrs	r6, r6, #1
     960:	4770      	bx	lr

00000962 <Dictionary_154>:
     962:	00000970 	andeq	r0, r0, r0, ror r9
     966:	73038061 	movwvc	r8, #12385	; 0x3061
     96a:	00766c68 	rsbseq	r6, r6, r8, ror #24

0000096c <Code_154>:
     96c:	0076      	lsls	r6, r6, #1
     96e:	4770      	bx	lr

00000970 <Dictionary_155>:
     970:	00000980 	andeq	r0, r0, r0, lsl #19
     974:	72038061 	andvc	r8, r3, #97	; 0x61
     978:	ea5f726f 	b	17dd33c <BIT24+0x7dd33c>

0000097a <Code_155>:
     97a:	ea5f 0676 	movs.w	r6, r6, ror #1
     97e:	4770      	bx	lr

00000980 <Dictionary_156>:
     980:	00000992 	muleq	r0, r2, r9
     984:	72038061 	andvc	r8, r3, #97	; 0x61
     988:	19b66c6f 	ldmibne	r6!, {r0, r1, r2, r3, r5, r6, sl, fp, sp, lr}

0000098a <Code_156>:
     98a:	19b6      	adds	r6, r6, r6
     98c:	f156 0600 	adcs.w	r6, r6, #0
     990:	4770      	bx	lr

00000992 <Dictionary_157>:
     992:	000009ac 	andeq	r0, r0, ip, lsr #19
     996:	7206806c 	andvc	r8, r6, #108	; 0x6c
     99a:	66696873 			; <UNDEFINED> instruction: 0x66696873
     99e:	cf010074 	svcgt	0x00010074

000009a0 <Code_157>:
     9a0:	cf01      	ldmia	r7!, {r0}
     9a2:	40f0      	lsrs	r0, r6
     9a4:	0006      	movs	r6, r0
     9a6:	4770      	bx	lr
     9a8:	26000836 			; <UNDEFINED> instruction: 0x26000836

000009ac <Dictionary_158>:
     9ac:	000009c6 	andeq	r0, r0, r6, asr #19
     9b0:	6107806c 	tstvs	r7, ip, rrx
     9b4:	69687372 	stmdbvs	r8!, {r1, r4, r5, r6, r8, r9, ip, sp, lr}^
     9b8:	cf017466 	svcgt	0x00017466

000009ba <Code_158>:
     9ba:	cf01      	ldmia	r7!, {r0}
     9bc:	4130      	asrs	r0, r6
     9be:	0006      	movs	r6, r0
     9c0:	4770      	bx	lr
     9c2:	17f61036 			; <UNDEFINED> instruction: 0x17f61036

000009c6 <Dictionary_159>:
     9c6:	000009e0 	andeq	r0, r0, r0, ror #19
     9ca:	6c06806c 	stcvs	0, cr8, [r6], {108}	; 0x6c
     9ce:	66696873 			; <UNDEFINED> instruction: 0x66696873
     9d2:	cf010074 	svcgt	0x00010074

000009d4 <Code_159>:
     9d4:	cf01      	ldmia	r7!, {r0}
     9d6:	40b0      	lsls	r0, r6
     9d8:	0006      	movs	r6, r0
     9da:	4770      	bx	lr
     9dc:	26000036 			; <UNDEFINED> instruction: 0x26000036

000009e0 <Dictionary_160>:
     9e0:	000009f0 	strdeq	r0, [r0], -r0	; <UNPREDICTABLE>
     9e4:	30028061 	andcc	r8, r2, r1, rrx
     9e8:	3e01003d 	mcrcc	0, 0, r0, cr1, cr13, {1}

000009ea <Code_160>:
     9ea:	3e01      	subs	r6, #1
     9ec:	41b6      	sbcs	r6, r6
     9ee:	4770      	bx	lr

000009f0 <Dictionary_161>:
     9f0:	00000a02 	andeq	r0, r0, r2, lsl #20
     9f4:	30038061 	andcc	r8, r3, r1, rrx
     9f8:	3e013e3c 	mcrcc	14, 0, r3, cr1, cr12, {1}

000009fa <Code_161>:
     9fa:	3e01      	subs	r6, #1
     9fc:	41b6      	sbcs	r6, r6
     9fe:	43f6      	mvns	r6, r6
     a00:	4770      	bx	lr

00000a02 <Dictionary_162>:
     a02:	00000a10 	andeq	r0, r0, r0, lsl sl
     a06:	30028061 	andcc	r8, r2, r1, rrx
     a0a:	17f6003c 			; <UNDEFINED> instruction: 0x17f6003c

00000a0c <Code_162>:
     a0c:	17f6      	asrs	r6, r6, #31
     a0e:	4770      	bx	lr

00000a10 <Dictionary_163>:
     a10:	00000a26 	andeq	r0, r0, r6, lsr #20
     a14:	74048060 	strvc	r8, [r4], #-96	; 0x60
     a18:	00657572 	rsbeq	r7, r5, r2, ror r5

00000a1c <Code_163>:
     a1c:	f847 6d04 	str.w	r6, [r7, #-4]!

00000a20 <generate_true>:
     a20:	2600      	movs	r6, #0
     a22:	43f6      	mvns	r6, r6
     a24:	4770      	bx	lr

00000a26 <Dictionary_165>:
     a26:	00000a3a 	andeq	r0, r0, sl, lsr sl
     a2a:	66058060 	strvs	r8, [r5], -r0, rrx
     a2e:	65736c61 	ldrbvs	r6, [r3, #-3169]!	; 0xc61

00000a32 <Code_165>:
     a32:	f847 6d04 	str.w	r6, [r7, #-4]!
     a36:	2600      	movs	r6, #0
     a38:	4770      	bx	lr

00000a3a <Dictionary_167>:
     a3a:	00000a4e 	andeq	r0, r0, lr, asr #20
     a3e:	3e028042 	cdpcc	0, 0, cr8, cr2, cr2, {2}
     a42:	cf01003d 	svcgt	0x0001003d

00000a44 <Code_167>:
     a44:	cf01      	ldmia	r7!, {r0}
     a46:	42b0      	cmp	r0, r6
     a48:	daea      	bge.n	a20 <generate_true>
     a4a:	2600      	movs	r6, #0
     a4c:	4770      	bx	lr

00000a4e <Dictionary_168>:
     a4e:	00000a62 	andeq	r0, r0, r2, ror #20
     a52:	3c028042 	stccc	0, cr8, [r2], {66}	; 0x42
     a56:	cf01003d 	svcgt	0x0001003d

00000a58 <Code_168>:
     a58:	cf01      	ldmia	r7!, {r0}
     a5a:	42b0      	cmp	r0, r6
     a5c:	dde0      	ble.n	a20 <generate_true>
     a5e:	2600      	movs	r6, #0
     a60:	4770      	bx	lr

00000a62 <Dictionary_169>:
     a62:	00000a74 	andeq	r0, r0, r4, ror sl
     a66:	3c018042 	stccc	0, cr8, [r1], {66}	; 0x42

00000a6a <Code_169>:
     a6a:	cf01      	ldmia	r7!, {r0}
     a6c:	42b0      	cmp	r0, r6
     a6e:	dbd7      	blt.n	a20 <generate_true>
     a70:	2600      	movs	r6, #0
     a72:	4770      	bx	lr

00000a74 <Dictionary_170>:
     a74:	00000a86 	andeq	r0, r0, r6, lsl #21
     a78:	3e018042 	cdpcc	0, 0, cr8, cr1, cr2, {2}

00000a7c <Code_170>:
     a7c:	cf01      	ldmia	r7!, {r0}
     a7e:	42b0      	cmp	r0, r6
     a80:	dcce      	bgt.n	a20 <generate_true>
     a82:	2600      	movs	r6, #0
     a84:	4770      	bx	lr

00000a86 <Dictionary_171>:
     a86:	00000a9a 	muleq	r0, sl, sl
     a8a:	75038062 	strvc	r8, [r3, #-98]	; 0x62
     a8e:	cf013d3e 	svcgt	0x00013d3e

00000a90 <Code_171>:
     a90:	cf01      	ldmia	r7!, {r0}
     a92:	1b86      	subs	r6, r0, r6
     a94:	41b6      	sbcs	r6, r6
     a96:	43f6      	mvns	r6, r6
     a98:	4770      	bx	lr

00000a9a <Dictionary_172>:
     a9a:	00000aae 	andeq	r0, r0, lr, lsr #21
     a9e:	75038062 	strvc	r8, [r3, #-98]	; 0x62
     aa2:	cf013d3c 	svcgt	0x00013d3c

00000aa4 <Code_172>:
     aa4:	cf01      	ldmia	r7!, {r0}
     aa6:	1a36      	subs	r6, r6, r0
     aa8:	41b6      	sbcs	r6, r6
     aaa:	43f6      	mvns	r6, r6
     aac:	4770      	bx	lr

00000aae <Dictionary_173>:
     aae:	00000ac0 	andeq	r0, r0, r0, asr #21
     ab2:	75028062 	strvc	r8, [r2, #-98]	; 0x62
     ab6:	cf01003c 	svcgt	0x0001003c

00000ab8 <Code_173>:
     ab8:	cf01      	ldmia	r7!, {r0}
     aba:	1b86      	subs	r6, r0, r6
     abc:	41b6      	sbcs	r6, r6
     abe:	4770      	bx	lr

00000ac0 <Dictionary_174>:
     ac0:	00000ad2 	ldrdeq	r0, [r0], -r2
     ac4:	75028062 	strvc	r8, [r2, #-98]	; 0x62
     ac8:	cf01003e 	svcgt	0x0001003e

00000aca <Code_174>:
     aca:	cf01      	ldmia	r7!, {r0}
     acc:	1a36      	subs	r6, r6, r0
     ace:	41b6      	sbcs	r6, r6
     ad0:	4770      	bx	lr

00000ad2 <Dictionary_175>:
     ad2:	00000ae8 	andeq	r0, r0, r8, ror #21
     ad6:	3c02806b 	stccc	0, cr8, [r2], {107}	; 0x6b
     ada:	cf01003e 	svcgt	0x0001003e

00000adc <Code_175>:
     adc:	cf01      	ldmia	r7!, {r0}
     ade:	1a36      	subs	r6, r6, r0
     ae0:	3e01      	subs	r6, #1
     ae2:	41b6      	sbcs	r6, r6
     ae4:	43f6      	mvns	r6, r6
     ae6:	4770      	bx	lr

00000ae8 <Dictionary_176>:
     ae8:	00000afa 	strdeq	r0, [r0], -sl
     aec:	3d01806b 	stccc	0, cr8, [r1, #-428]	; 0xfffffe54

00000af0 <Code_176>:
     af0:	cf01      	ldmia	r7!, {r0}
     af2:	1a36      	subs	r6, r6, r0
     af4:	3e01      	subs	r6, #1
     af6:	41b6      	sbcs	r6, r6
     af8:	4770      	bx	lr

00000afa <Dictionary_177>:
     afa:	00000b0e 	andeq	r0, r0, lr, lsl #22
     afe:	6d038062 	stcvs	0, cr8, [r3, #-392]	; 0xfffffe78
     b02:	cf016e69 	svcgt	0x00016e69

00000b04 <Code_177>:
     b04:	cf01      	ldmia	r7!, {r0}
     b06:	42b0      	cmp	r0, r6
     b08:	dc00      	bgt.n	b0c <Code_177+0x8>
     b0a:	0006      	movs	r6, r0
     b0c:	4770      	bx	lr

00000b0e <Dictionary_178>:
     b0e:	00000b22 	andeq	r0, r0, r2, lsr #22
     b12:	6d038062 	stcvs	0, cr8, [r3, #-392]	; 0xfffffe78
     b16:	cf017861 	svcgt	0x00017861

00000b18 <Code_178>:
     b18:	cf01      	ldmia	r7!, {r0}
     b1a:	42b0      	cmp	r0, r6
     b1c:	db00      	blt.n	b20 <Code_178+0x8>
     b1e:	0006      	movs	r6, r0
     b20:	4770      	bx	lr

00000b22 <Dictionary_179>:
     b22:	00000b38 	andeq	r0, r0, r8, lsr fp
     b26:	75048062 	strvc	r8, [r4, #-98]	; 0x62
     b2a:	0078616d 	rsbseq	r6, r8, sp, ror #2

00000b2e <Code_179>:
     b2e:	cf01      	ldmia	r7!, {r0}
     b30:	42b0      	cmp	r0, r6
     b32:	d300      	bcc.n	b36 <Code_179+0x8>
     b34:	0006      	movs	r6, r0
     b36:	4770      	bx	lr

00000b38 <Dictionary_180>:
     b38:	00000b58 	andeq	r0, r0, r8, asr fp
     b3c:	75048062 	strvc	r8, [r4, #-98]	; 0x62
     b40:	006e696d 	rsbeq	r6, lr, sp, ror #18

00000b44 <Code_180>:
     b44:	cf01      	ldmia	r7!, {r0}
     b46:	42b0      	cmp	r0, r6
     b48:	d800      	bhi.n	b4c <Code_180+0x8>
     b4a:	0006      	movs	r6, r0
     b4c:	4770      	bx	lr
     b4e:	02300000 	eorseq	r0, r0, #0
     b52:	03302000 	teqeq	r0, #0
     b56:	0b962000 	bleq	fe588b5e <BIT31+0x7e588b5e>

00000b58 <Dictionary_181>:
     b58:	00000b96 	muleq	r0, r6, fp
     b5c:	6d048000 	stcvs	0, cr8, [r4]
     b60:	0065766f 	rsbeq	r7, r5, pc, ror #12

00000b64 <Code_181>:
     b64:	b507      	push	{r0, r1, r2, lr}
     b66:	0031      	movs	r1, r6
     b68:	cf40      	ldmia	r7!, {r6}
     b6a:	0032      	movs	r2, r6
     b6c:	cf40      	ldmia	r7!, {r6}
     b6e:	2900      	cmp	r1, #0
     b70:	d00f      	beq.n	b92 <Code_181+0x2e>
     b72:	42b2      	cmp	r2, r6
     b74:	d00d      	beq.n	b92 <Code_181+0x2e>
     b76:	d306      	bcc.n	b86 <Code_181+0x22>
     b78:	3e01      	subs	r6, #1
     b7a:	3a01      	subs	r2, #1
     b7c:	5c70      	ldrb	r0, [r6, r1]
     b7e:	5450      	strb	r0, [r2, r1]
     b80:	3901      	subs	r1, #1
     b82:	d1fb      	bne.n	b7c <Code_181+0x18>
     b84:	e005      	b.n	b92 <Code_181+0x2e>
     b86:	7830      	ldrb	r0, [r6, #0]
     b88:	7010      	strb	r0, [r2, #0]
     b8a:	3601      	adds	r6, #1
     b8c:	3201      	adds	r2, #1
     b8e:	3901      	subs	r1, #1
     b90:	d1f9      	bne.n	b86 <Code_181+0x22>
     b92:	cf40      	ldmia	r7!, {r6}
     b94:	bd07      	pop	{r0, r1, r2, pc}

00000b96 <Dictionary_185>:
     b96:	00000bb8 			; <UNDEFINED> instruction: 0x00000bb8
     b9a:	66048000 	strvs	r8, [r4], -r0
     b9e:	006c6c69 	rsbeq	r6, ip, r9, ror #24

00000ba2 <Code_185>:
     ba2:	0030      	movs	r0, r6
     ba4:	cf40      	ldmia	r7!, {r6}
     ba6:	0031      	movs	r1, r6
     ba8:	cf40      	ldmia	r7!, {r6}
     baa:	2900      	cmp	r1, #0
     bac:	d002      	beq.n	bb4 <Code_185+0x12>
     bae:	3901      	subs	r1, #1
     bb0:	5470      	strb	r0, [r6, r1]
     bb2:	d1fc      	bne.n	bae <Code_185+0xc>
     bb4:	cf40      	ldmia	r7!, {r6}
     bb6:	4770      	bx	lr

00000bb8 <Dictionary_189>:
     bb8:	00000bc4 	andeq	r0, r0, r4, asr #23
     bbc:	40018020 	andmi	r8, r1, r0, lsr #32

00000bc0 <Code_189>:
     bc0:	6836      	ldr	r6, [r6, #0]
     bc2:	4770      	bx	lr

00000bc4 <Dictionary_190>:
     bc4:	00000bdc 	ldrdeq	r0, [r0], -ip
     bc8:	2101806d 	tstcs	r1, sp, rrx

00000bcc <Code_190>:
     bcc:	cf03      	ldmia	r7!, {r0, r1}
     bce:	6030      	str	r0, [r6, #0]
     bd0:	000e      	movs	r6, r1
     bd2:	4770      	bx	lr
     bd4:	6006      	str	r6, [r0, #0]
     bd6:	4770      	bx	lr
     bd8:	6001      	str	r1, [r0, #0]
     bda:	4770      	bx	lr

00000bdc <Dictionary_191>:
     bdc:	00000c02 	andeq	r0, r0, r2, lsl #24
     be0:	2b02806d 	blcs	a0d9c <BIT19+0x20d9c>
     be4:	cf030021 	svcgt	0x00030021

00000be6 <Code_191>:
     be6:	cf03      	ldmia	r7!, {r0, r1}
     be8:	6832      	ldr	r2, [r6, #0]
     bea:	1812      	adds	r2, r2, r0
     bec:	6032      	str	r2, [r6, #0]
     bee:	000e      	movs	r6, r1
     bf0:	4770      	bx	lr
     bf2:	6802      	ldr	r2, [r0, #0]
     bf4:	1992      	adds	r2, r2, r6
     bf6:	6002      	str	r2, [r0, #0]
     bf8:	4770      	bx	lr
     bfa:	6802      	ldr	r2, [r0, #0]
     bfc:	1852      	adds	r2, r2, r1
     bfe:	6002      	str	r2, [r0, #0]
     c00:	4770      	bx	lr

00000c02 <Dictionary_192>:
     c02:	00000c10 	andeq	r0, r0, r0, lsl ip
     c06:	68028020 	stmdavs	r2, {r5, pc}
     c0a:	88360040 	ldmdahi	r6!, {r6}

00000c0c <Code_192>:
     c0c:	8836      	ldrh	r6, [r6, #0]
     c0e:	4770      	bx	lr

00000c10 <Dictionary_193>:
     c10:	00000c2a 	andeq	r0, r0, sl, lsr #24
     c14:	6802806d 	stmdavs	r2, {r0, r2, r3, r5, r6, pc}
     c18:	cf030021 	svcgt	0x00030021

00000c1a <Code_193>:
     c1a:	cf03      	ldmia	r7!, {r0, r1}
     c1c:	8030      	strh	r0, [r6, #0]
     c1e:	000e      	movs	r6, r1
     c20:	4770      	bx	lr
     c22:	8006      	strh	r6, [r0, #0]
     c24:	4770      	bx	lr
     c26:	8001      	strh	r1, [r0, #0]
     c28:	4770      	bx	lr

00000c2a <Dictionary_194>:
     c2a:	00000c50 	andeq	r0, r0, r0, asr ip
     c2e:	6803806d 	stmdavs	r3, {r0, r2, r3, r5, r6, pc}
     c32:	cf03212b 	svcgt	0x0003212b

00000c34 <Code_194>:
     c34:	cf03      	ldmia	r7!, {r0, r1}
     c36:	8832      	ldrh	r2, [r6, #0]
     c38:	1812      	adds	r2, r2, r0
     c3a:	8032      	strh	r2, [r6, #0]
     c3c:	000e      	movs	r6, r1
     c3e:	4770      	bx	lr
     c40:	8802      	ldrh	r2, [r0, #0]
     c42:	1992      	adds	r2, r2, r6
     c44:	8002      	strh	r2, [r0, #0]
     c46:	4770      	bx	lr
     c48:	8802      	ldrh	r2, [r0, #0]
     c4a:	1852      	adds	r2, r2, r1
     c4c:	8002      	strh	r2, [r0, #0]
     c4e:	4770      	bx	lr

00000c50 <Dictionary_195>:
     c50:	00000c5e 	andeq	r0, r0, lr, asr ip
     c54:	63028020 	movwvs	r8, #8224	; 0x2020
     c58:	78360040 	ldmdavc	r6!, {r6}

00000c5a <Code_195>:
     c5a:	7836      	ldrb	r6, [r6, #0]
     c5c:	4770      	bx	lr

00000c5e <Dictionary_196>:
     c5e:	00000c78 	andeq	r0, r0, r8, ror ip
     c62:	6302806d 	movwvs	r8, #8301	; 0x206d
     c66:	cf030021 	svcgt	0x00030021

00000c68 <Code_196>:
     c68:	cf03      	ldmia	r7!, {r0, r1}
     c6a:	7030      	strb	r0, [r6, #0]
     c6c:	000e      	movs	r6, r1
     c6e:	4770      	bx	lr
     c70:	7006      	strb	r6, [r0, #0]
     c72:	4770      	bx	lr
     c74:	7001      	strb	r1, [r0, #0]
     c76:	4770      	bx	lr

00000c78 <Dictionary_197>:
     c78:	00000c9e 	muleq	r0, lr, ip
     c7c:	6303806d 	movwvs	r8, #12397	; 0x306d
     c80:	cf03212b 	svcgt	0x0003212b

00000c82 <Code_197>:
     c82:	cf03      	ldmia	r7!, {r0, r1}
     c84:	7832      	ldrb	r2, [r6, #0]
     c86:	1812      	adds	r2, r2, r0
     c88:	7032      	strb	r2, [r6, #0]
     c8a:	000e      	movs	r6, r1
     c8c:	4770      	bx	lr
     c8e:	7802      	ldrb	r2, [r0, #0]
     c90:	1992      	adds	r2, r2, r6
     c92:	7002      	strb	r2, [r0, #0]
     c94:	4770      	bx	lr
     c96:	7802      	ldrb	r2, [r0, #0]
     c98:	1852      	adds	r2, r2, r1
     c9a:	7002      	strb	r2, [r0, #0]
     c9c:	4770      	bx	lr

00000c9e <Dictionary_198>:
     c9e:	00000cc6 	andeq	r0, r0, r6, asr #25
     ca2:	6204806d 	andvs	r8, r4, #109	; 0x6d
     ca6:	00217369 	eoreq	r7, r1, r9, ror #6

00000caa <Code_198>:
     caa:	cf03      	ldmia	r7!, {r0, r1}
     cac:	6832      	ldr	r2, [r6, #0]
     cae:	4302      	orrs	r2, r0
     cb0:	6032      	str	r2, [r6, #0]
     cb2:	000e      	movs	r6, r1
     cb4:	4770      	bx	lr
     cb6:	6802      	ldr	r2, [r0, #0]
     cb8:	4332      	orrs	r2, r6
     cba:	6002      	str	r2, [r0, #0]
     cbc:	4770      	bx	lr
     cbe:	6802      	ldr	r2, [r0, #0]
     cc0:	430a      	orrs	r2, r1
     cc2:	6002      	str	r2, [r0, #0]
     cc4:	4770      	bx	lr

00000cc6 <Dictionary_199>:
     cc6:	00000cee 	andeq	r0, r0, lr, ror #25
     cca:	6204806d 	andvs	r8, r4, #109	; 0x6d
     cce:	00216369 	eoreq	r6, r1, r9, ror #6

00000cd2 <Code_199>:
     cd2:	cf03      	ldmia	r7!, {r0, r1}
     cd4:	6832      	ldr	r2, [r6, #0]
     cd6:	4382      	bics	r2, r0
     cd8:	6032      	str	r2, [r6, #0]
     cda:	000e      	movs	r6, r1
     cdc:	4770      	bx	lr
     cde:	6802      	ldr	r2, [r0, #0]
     ce0:	43b2      	bics	r2, r6
     ce2:	6002      	str	r2, [r0, #0]
     ce4:	4770      	bx	lr
     ce6:	6802      	ldr	r2, [r0, #0]
     ce8:	438a      	bics	r2, r1
     cea:	6002      	str	r2, [r0, #0]
     cec:	4770      	bx	lr

00000cee <Dictionary_200>:
     cee:	00000d16 	andeq	r0, r0, r6, lsl sp
     cf2:	7804806d 	stmdavc	r4, {r0, r2, r3, r5, r6, pc}
     cf6:	0021726f 	eoreq	r7, r1, pc, ror #4

00000cfa <Code_200>:
     cfa:	cf03      	ldmia	r7!, {r0, r1}
     cfc:	6832      	ldr	r2, [r6, #0]
     cfe:	4042      	eors	r2, r0
     d00:	6032      	str	r2, [r6, #0]
     d02:	000e      	movs	r6, r1
     d04:	4770      	bx	lr
     d06:	6802      	ldr	r2, [r0, #0]
     d08:	4072      	eors	r2, r6
     d0a:	6002      	str	r2, [r0, #0]
     d0c:	4770      	bx	lr
     d0e:	6802      	ldr	r2, [r0, #0]
     d10:	404a      	eors	r2, r1
     d12:	6002      	str	r2, [r0, #0]
     d14:	4770      	bx	lr

00000d16 <Dictionary_201>:
     d16:	00000d7e 	andeq	r0, r0, lr, ror sp
     d1a:	62048068 	andvs	r8, r4, #104	; 0x68
     d1e:	00407469 	subeq	r7, r0, r9, ror #8

00000d22 <Code_201>:
     d22:	cf01      	ldmia	r7!, {r0}
     d24:	6836      	ldr	r6, [r6, #0]

00000d26 <struktur_bitfetch>:
     d26:	4006      	ands	r6, r0
     d28:	bf18      	it	ne
     d2a:	f04f 36ff 	movne.w	r6, #4294967295
     d2e:	4770      	bx	lr
     d30:	4ae3      	ldr	r2, [pc, #908]	; (10c0 <Code_240+0x6>)

00000d32 <bitfetch_opcoding>:
     d32:	b500      	push	{lr}
     d34:	2b01      	cmp	r3, #1
     d36:	d10a      	bne.n	d4e <bitfetch_opcoding+0x1c>
     d38:	f847 6d04 	str.w	r6, [r7, #-4]!
     d3c:	2600      	movs	r6, #0
     d3e:	f000 ff7d 	bl	1c3c <Code_422>
     d42:	f847 6d04 	str.w	r6, [r7, #-4]!
     d46:	0016      	movs	r6, r2
     d48:	f001 fa9e 	bl	2288 <Code_539>
     d4c:	e011      	b.n	d72 <bitfetch_opcoding+0x40>
     d4e:	cf02      	ldmia	r7!, {r1}
     d50:	3b01      	subs	r3, #1
     d52:	f002 fbf8 	bl	3546 <konstantenschreiben>
     d56:	f847 6d04 	str.w	r6, [r7, #-4]!
     d5a:	2636      	movs	r6, #54	; 0x36
     d5c:	4316      	orrs	r6, r2
     d5e:	f001 fa93 	bl	2288 <Code_539>
     d62:	f847 6d04 	str.w	r6, [r7, #-4]!
     d66:	000e      	movs	r6, r1
     d68:	f847 6d04 	str.w	r6, [r7, #-4]!
     d6c:	2600      	movs	r6, #0
     d6e:	f000 ff65 	bl	1c3c <Code_422>
     d72:	f847 6d04 	str.w	r6, [r7, #-4]!
     d76:	4ed3      	ldr	r6, [pc, #844]	; (10c4 <Code_240+0xa>)
     d78:	f001 f894 	bl	1ea4 <Code_465>
     d7c:	bd00      	pop	{pc}

00000d7e <Dictionary_213>:
     d7e:	00000da6 	andeq	r0, r0, r6, lsr #27
     d82:	6805806d 	stmdavs	r5, {r0, r2, r3, r5, r6, pc}
     d86:	21736962 	cmncs	r3, r2, ror #18

00000d8a <Code_213>:
     d8a:	cf03      	ldmia	r7!, {r0, r1}
     d8c:	8832      	ldrh	r2, [r6, #0]
     d8e:	4302      	orrs	r2, r0
     d90:	8032      	strh	r2, [r6, #0]
     d92:	000e      	movs	r6, r1
     d94:	4770      	bx	lr
     d96:	8802      	ldrh	r2, [r0, #0]
     d98:	4332      	orrs	r2, r6
     d9a:	8002      	strh	r2, [r0, #0]
     d9c:	4770      	bx	lr
     d9e:	8802      	ldrh	r2, [r0, #0]
     da0:	430a      	orrs	r2, r1
     da2:	8002      	strh	r2, [r0, #0]
     da4:	4770      	bx	lr

00000da6 <Dictionary_214>:
     da6:	00000dce 	andeq	r0, r0, lr, asr #27
     daa:	6805806d 	stmdavs	r5, {r0, r2, r3, r5, r6, pc}
     dae:	21636962 	cmncs	r3, r2, ror #18

00000db2 <Code_214>:
     db2:	cf03      	ldmia	r7!, {r0, r1}
     db4:	8832      	ldrh	r2, [r6, #0]
     db6:	4382      	bics	r2, r0
     db8:	8032      	strh	r2, [r6, #0]
     dba:	000e      	movs	r6, r1
     dbc:	4770      	bx	lr
     dbe:	8802      	ldrh	r2, [r0, #0]
     dc0:	43b2      	bics	r2, r6
     dc2:	8002      	strh	r2, [r0, #0]
     dc4:	4770      	bx	lr
     dc6:	8802      	ldrh	r2, [r0, #0]
     dc8:	438a      	bics	r2, r1
     dca:	8002      	strh	r2, [r0, #0]
     dcc:	4770      	bx	lr

00000dce <Dictionary_215>:
     dce:	00000df6 	strdeq	r0, [r0], -r6
     dd2:	6805806d 	stmdavs	r5, {r0, r2, r3, r5, r6, pc}
     dd6:	21726f78 	cmncs	r2, r8, ror pc

00000dda <Code_215>:
     dda:	cf03      	ldmia	r7!, {r0, r1}
     ddc:	8832      	ldrh	r2, [r6, #0]
     dde:	4042      	eors	r2, r0
     de0:	8032      	strh	r2, [r6, #0]
     de2:	000e      	movs	r6, r1
     de4:	4770      	bx	lr
     de6:	8802      	ldrh	r2, [r0, #0]
     de8:	4072      	eors	r2, r6
     dea:	8002      	strh	r2, [r0, #0]
     dec:	4770      	bx	lr
     dee:	8802      	ldrh	r2, [r0, #0]
     df0:	404a      	eors	r2, r1
     df2:	8002      	strh	r2, [r0, #0]
     df4:	4770      	bx	lr

00000df6 <Dictionary_216>:
     df6:	00000e14 	andeq	r0, r0, r4, lsl lr
     dfa:	68058068 	stmdavs	r5, {r3, r5, r6, pc}
     dfe:	40746962 	rsbsmi	r6, r4, r2, ror #18

00000e02 <Code_216>:
     e02:	cf01      	ldmia	r7!, {r0}
     e04:	8836      	ldrh	r6, [r6, #0]
     e06:	4006      	ands	r6, r0
     e08:	bf18      	it	ne
     e0a:	f04f 36ff 	movne.w	r6, #4294967295
     e0e:	4770      	bx	lr
     e10:	4aad      	ldr	r2, [pc, #692]	; (10c8 <Code_240+0xe>)
     e12:	e78e      	b.n	d32 <bitfetch_opcoding>

00000e14 <Dictionary_217>:
     e14:	00000e3c 	andeq	r0, r0, ip, lsr lr
     e18:	6305806d 	movwvs	r8, #20589	; 0x506d
     e1c:	21736962 	cmncs	r3, r2, ror #18

00000e20 <Code_217>:
     e20:	cf03      	ldmia	r7!, {r0, r1}
     e22:	7832      	ldrb	r2, [r6, #0]
     e24:	4302      	orrs	r2, r0
     e26:	7032      	strb	r2, [r6, #0]
     e28:	000e      	movs	r6, r1
     e2a:	4770      	bx	lr
     e2c:	7802      	ldrb	r2, [r0, #0]
     e2e:	4332      	orrs	r2, r6
     e30:	7002      	strb	r2, [r0, #0]
     e32:	4770      	bx	lr
     e34:	7802      	ldrb	r2, [r0, #0]
     e36:	430a      	orrs	r2, r1
     e38:	7002      	strb	r2, [r0, #0]
     e3a:	4770      	bx	lr

00000e3c <Dictionary_218>:
     e3c:	00000e64 	andeq	r0, r0, r4, ror #28
     e40:	6305806d 	movwvs	r8, #20589	; 0x506d
     e44:	21636962 	cmncs	r3, r2, ror #18

00000e48 <Code_218>:
     e48:	cf03      	ldmia	r7!, {r0, r1}
     e4a:	7832      	ldrb	r2, [r6, #0]
     e4c:	4382      	bics	r2, r0
     e4e:	7032      	strb	r2, [r6, #0]
     e50:	000e      	movs	r6, r1
     e52:	4770      	bx	lr
     e54:	7802      	ldrb	r2, [r0, #0]
     e56:	43b2      	bics	r2, r6
     e58:	7002      	strb	r2, [r0, #0]
     e5a:	4770      	bx	lr
     e5c:	7802      	ldrb	r2, [r0, #0]
     e5e:	438a      	bics	r2, r1
     e60:	7002      	strb	r2, [r0, #0]
     e62:	4770      	bx	lr

00000e64 <Dictionary_219>:
     e64:	00000e8c 	andeq	r0, r0, ip, lsl #29
     e68:	6305806d 	movwvs	r8, #20589	; 0x506d
     e6c:	21726f78 	cmncs	r2, r8, ror pc

00000e70 <Code_219>:
     e70:	cf03      	ldmia	r7!, {r0, r1}
     e72:	7832      	ldrb	r2, [r6, #0]
     e74:	4042      	eors	r2, r0
     e76:	7032      	strb	r2, [r6, #0]
     e78:	000e      	movs	r6, r1
     e7a:	4770      	bx	lr
     e7c:	7802      	ldrb	r2, [r0, #0]
     e7e:	4072      	eors	r2, r6
     e80:	7002      	strb	r2, [r0, #0]
     e82:	4770      	bx	lr
     e84:	7802      	ldrb	r2, [r0, #0]
     e86:	404a      	eors	r2, r1
     e88:	7002      	strb	r2, [r0, #0]
     e8a:	4770      	bx	lr

00000e8c <Dictionary_220>:
     e8c:	00000eaa 	andeq	r0, r0, sl, lsr #29
     e90:	63058068 	movwvs	r8, #20584	; 0x5068
     e94:	40746962 	rsbsmi	r6, r4, r2, ror #18

00000e98 <Code_220>:
     e98:	cf01      	ldmia	r7!, {r0}
     e9a:	7836      	ldrb	r6, [r6, #0]
     e9c:	4006      	ands	r6, r0
     e9e:	bf18      	it	ne
     ea0:	f04f 36ff 	movne.w	r6, #4294967295
     ea4:	4770      	bx	lr
     ea6:	4a89      	ldr	r2, [pc, #548]	; (10cc <Code_240+0x12>)
     ea8:	e743      	b.n	d32 <bitfetch_opcoding>

00000eaa <Dictionary_221>:
     eaa:	00000eba 			; <UNDEFINED> instruction: 0x00000eba
     eae:	63058061 	movwvs	r8, #20577	; 0x5061
     eb2:	2b6c6c65 	blcs	1b1c04e <BIT24+0xb1c04e>

00000eb6 <Code_221>:
     eb6:	3604      	adds	r6, #4
     eb8:	4770      	bx	lr

00000eba <Dictionary_222>:
     eba:	00000eca 	andeq	r0, r0, sl, asr #29
     ebe:	63058061 	movwvs	r8, #20577	; 0x5061
     ec2:	736c6c65 	cmnvc	ip, #25856	; 0x6500

00000ec6 <Code_222>:
     ec6:	00b6      	lsls	r6, r6, #2
     ec8:	4770      	bx	lr

00000eca <Dictionary_223>:
     eca:	00000fb0 			; <UNDEFINED> instruction: 0x00000fb0
     ece:	66068000 	strvs	r8, [r6], -r0
     ed2:	6873616c 	ldmdavs	r3!, {r2, r3, r5, r6, r8, sp, lr}^
     ed6:	00300021 	eorseq	r0, r0, r1, lsr #32

00000ed8 <Code_223>:
     ed8:	0030      	movs	r0, r6
     eda:	cf40      	ldmia	r7!, {r6}
     edc:	0031      	movs	r1, r6
     ede:	cf40      	ldmia	r7!, {r6}
     ee0:	4b7b      	ldr	r3, [pc, #492]	; (10d0 <Code_240+0x16>)
     ee2:	4298      	cmp	r0, r3
     ee4:	d353      	bcc.n	f8e <Code_223+0xb6>
     ee6:	2203      	movs	r2, #3
     ee8:	4002      	ands	r2, r0
     eea:	d11a      	bne.n	f22 <Code_223+0x4a>
     eec:	2900      	cmp	r1, #0
     eee:	d017      	beq.n	f20 <Code_223+0x48>
     ef0:	6802      	ldr	r2, [r0, #0]
     ef2:	2a00      	cmp	r2, #0
     ef4:	d132      	bne.n	f5c <Code_223+0x84>
     ef6:	f110 6000 	adds.w	r0, r0, #134217728	; 0x8000000
     efa:	4a76      	ldr	r2, [pc, #472]	; (10d4 <Code_240+0x1a>)
     efc:	4b76      	ldr	r3, [pc, #472]	; (10d8 <Code_240+0x1e>)
     efe:	6013      	str	r3, [r2, #0]
     f00:	4b76      	ldr	r3, [pc, #472]	; (10dc <Code_240+0x22>)
     f02:	6013      	str	r3, [r2, #0]
     f04:	4a76      	ldr	r2, [pc, #472]	; (10e0 <Code_240+0x26>)
     f06:	4b77      	ldr	r3, [pc, #476]	; (10e4 <Code_240+0x2a>)
     f08:	6013      	str	r3, [r2, #0]
     f0a:	4b77      	ldr	r3, [pc, #476]	; (10e8 <Code_240+0x2e>)
     f0c:	6013      	str	r3, [r2, #0]
     f0e:	6001      	str	r1, [r0, #0]
     f10:	4a76      	ldr	r2, [pc, #472]	; (10ec <Code_240+0x32>)
     f12:	6813      	ldr	r3, [r2, #0]
     f14:	f013 0301 	ands.w	r3, r3, #1
     f18:	d1fb      	bne.n	f12 <Code_223+0x3a>
     f1a:	4a75      	ldr	r2, [pc, #468]	; (10f0 <Code_240+0x36>)
     f1c:	2307      	movs	r3, #7
     f1e:	6013      	str	r3, [r2, #0]
     f20:	4770      	bx	lr
     f22:	f000 fc92 	bl	184a <dotgaensefuesschen>
     f26:	64644130 	strbtvs	r4, [r4], #-304	; 0x130
     f2a:	73736572 	cmnvc	r3, #478150656	; 0x1c800000
     f2e:	73616820 	cmnvc	r1, #2097152	; 0x200000
     f32:	206f7420 	rsbcs	r7, pc, r0, lsr #8
     f36:	34206562 	strtcc	r6, [r0], #-1378	; 0x562
     f3a:	696c612d 	stmdbvs	ip!, {r0, r2, r3, r5, r8, sp, lr}^
     f3e:	64656e67 	strbtvs	r6, [r5], #-3687	; 0xe67
     f42:	726f6620 	rsbvc	r6, pc, #33554432	; 0x2000000
     f46:	69727720 	ldmdbvs	r2!, {r5, r8, r9, sl, ip, sp, lr}^
     f4a:	676e6974 			; <UNDEFINED> instruction: 0x676e6974
     f4e:	616c6620 	cmnvs	ip, r0, lsr #12
     f52:	21206873 	teqcs	r0, r3, ror r8
     f56:	f002000a 			; <UNDEFINED> instruction: 0xf002000a
     f5a:	bb1c      	cbnz	r4, fa4 <Code_223+0xcc>
     f5c:	f000 fc75 	bl	184a <dotgaensefuesschen>
     f60:	616c4629 	cmnvs	ip, r9, lsr #12
     f64:	6c206873 	stcvs	8, cr6, [r0], #-460	; 0xfffffe34
     f68:	7461636f 	strbtvc	r6, [r1], #-879	; 0x36f
     f6c:	206e6f69 	rsbcs	r6, lr, r9, ror #30
     f70:	6e6e6163 	powvsez	f6, f6, f3
     f74:	6220746f 	eorvs	r7, r0, #1862270976	; 0x6f000000
     f78:	72772065 	rsbsvc	r2, r7, #101	; 0x65
     f7c:	65747469 	ldrbvs	r7, [r4, #-1129]!	; 0x469
     f80:	7774206e 	ldrbvc	r2, [r4, -lr, rrx]!
     f84:	20656369 	rsbcs	r6, r5, r9, ror #6
     f88:	f0020a21 			; <UNDEFINED> instruction: 0xf0020a21
     f8c:	bb03      	cbnz	r3, fd0 <Code_229+0xa>
     f8e:	f000 fc5c 	bl	184a <dotgaensefuesschen>
     f92:	6e614319 	mcrvs	3, 3, r4, cr1, cr9, {0}
     f96:	20746f6e 	rsbscs	r6, r4, lr, ror #30
     f9a:	74697277 	strbtvc	r7, [r9], #-631	; 0x277
     f9e:	6e692065 	cdpvs	0, 6, cr2, cr9, cr5, {3}
     fa2:	63206f74 	teqvs	r0, #464	; 0x1d0
     fa6:	2065726f 	rsbcs	r7, r5, pc, ror #4
     faa:	f0020a21 			; <UNDEFINED> instruction: 0xf0020a21
     fae:	baf2      	revsh	r2, r6

00000fb0 <Dictionary_229>:
     fb0:	0000102a 	andeq	r1, r0, sl, lsr #32
     fb4:	660e8000 	strvs	r8, [lr], -r0
     fb8:	6873616c 	ldmdavs	r3!, {r2, r3, r5, r6, r8, sp, lr}^
     fbc:	65676170 	strbvs	r6, [r7, #-368]!	; 0x170
     fc0:	73617265 	cmnvc	r1, #1342177286	; 0x50000006
     fc4:	b50f0065 	strlt	r0, [pc, #-101]	; f67 <Code_223+0x8f>

00000fc6 <Code_229>:
     fc6:	b50f      	push	{r0, r1, r2, r3, lr}
     fc8:	0030      	movs	r0, r6
     fca:	cf40      	ldmia	r7!, {r6}
     fcc:	4b40      	ldr	r3, [pc, #256]	; (10d0 <Code_240+0x16>)
     fce:	4298      	cmp	r0, r3
     fd0:	d31c      	bcc.n	100c <BIT12+0xc>
     fd2:	f110 6000 	adds.w	r0, r0, #134217728	; 0x8000000
     fd6:	4a3f      	ldr	r2, [pc, #252]	; (10d4 <Code_240+0x1a>)
     fd8:	4b3f      	ldr	r3, [pc, #252]	; (10d8 <Code_240+0x1e>)
     fda:	6013      	str	r3, [r2, #0]
     fdc:	4b3f      	ldr	r3, [pc, #252]	; (10dc <Code_240+0x22>)
     fde:	6013      	str	r3, [r2, #0]
     fe0:	4a3f      	ldr	r2, [pc, #252]	; (10e0 <Code_240+0x26>)
     fe2:	4b40      	ldr	r3, [pc, #256]	; (10e4 <Code_240+0x2a>)
     fe4:	6013      	str	r3, [r2, #0]
     fe6:	4b40      	ldr	r3, [pc, #256]	; (10e8 <Code_240+0x2e>)
     fe8:	6013      	str	r3, [r2, #0]
     fea:	4a41      	ldr	r2, [pc, #260]	; (10f0 <Code_240+0x36>)
     fec:	f45f 7302 	movs.w	r3, #520	; 0x208
     ff0:	6013      	str	r3, [r2, #0]
     ff2:	f030 00ff 	bics.w	r0, r0, #255	; 0xff
     ff6:	2200      	movs	r2, #0
     ff8:	6002      	str	r2, [r0, #0]
     ffa:	4a3c      	ldr	r2, [pc, #240]	; (10ec <Code_240+0x32>)
     ffc:	6813      	ldr	r3, [r2, #0]
     ffe:	f013 0301 	ands.w	r3, r3, #1
    1002:	d1fb      	bne.n	ffc <Code_229+0x36>
    1004:	4a3a      	ldr	r2, [pc, #232]	; (10f0 <Code_240+0x36>)
    1006:	2307      	movs	r3, #7
    1008:	6013      	str	r3, [r2, #0]
    100a:	bd0f      	pop	{r0, r1, r2, r3, pc}
    100c:	f000 fc1d 	bl	184a <dotgaensefuesschen>
    1010:	6e614314 	mcrvs	3, 3, r4, cr1, cr4, {0}
    1014:	20746f6e 	rsbscs	r6, r4, lr, ror #30
    1018:	73617265 	cmnvc	r1, #1342177286	; 0x50000006
    101c:	6f632065 	svcvs	0x00632065
    1020:	21206572 	teqcs	r0, r2, ror r5
    1024:	f002000a 			; <UNDEFINED> instruction: 0xf002000a
    1028:	bab5      			; <UNDEFINED> instruction: 0xbab5

0000102a <Dictionary_232>:
    102a:	000010a4 	andeq	r1, r0, r4, lsr #1
    102e:	650a8000 	strvs	r8, [sl]
    1032:	65736172 	ldrbvs	r6, [r3, #-370]!	; 0x172
    1036:	73616c66 	cmnvc	r1, #26112	; 0x6600
    103a:	48240068 	stmdami	r4!, {r3, r5, r6}

0000103c <Code_232>:
    103c:	4824      	ldr	r0, [pc, #144]	; (10d0 <Code_240+0x16>)

0000103e <eraseflash_intern>:
    103e:	b672      	cpsid	i
    1040:	492c      	ldr	r1, [pc, #176]	; (10f4 <Code_240+0x3a>)
    1042:	8803      	ldrh	r3, [r0, #0]
    1044:	2b00      	cmp	r3, #0
    1046:	d01c      	beq.n	1082 <eraseflash_intern+0x44>
    1048:	f847 6d04 	str.w	r6, [r7, #-4]!
    104c:	0006      	movs	r6, r0
    104e:	f847 6d04 	str.w	r6, [r7, #-4]!
    1052:	f000 fbfa 	bl	184a <dotgaensefuesschen>
    1056:	61724510 	cmnvs	r2, r0, lsl r5
    105a:	62206573 	eorvs	r6, r0, #482344960	; 0x1cc00000
    105e:	6b636f6c 	blvs	18dce16 <BIT24+0x8dce16>
    1062:	20746120 	rsbscs	r6, r4, r0, lsr #2
    1066:	f0000020 			; <UNDEFINED> instruction: 0xf0000020
    106a:	fc62 f000 	stc2l	0, cr15, [r2]
    106e:	fbed 200c 	umlal	r2, r0, sp, ip
    1072:	6d6f7266 	sfmvs	f7, 2, [pc, #-408]!	; ee0 <Code_223+0x8>
    1076:	616c4620 	cmnvs	ip, r0, lsr #12
    107a:	000a6873 	andeq	r6, sl, r3, ror r8
    107e:	f7ff ffa2 	bl	fc6 <Code_229>
    1082:	3002      	adds	r0, #2
    1084:	4288      	cmp	r0, r1
    1086:	d1dc      	bne.n	1042 <eraseflash_intern+0x4>
    1088:	f000 fbdf 	bl	184a <dotgaensefuesschen>
    108c:	6e694612 	mcrvs	6, 3, r4, cr9, cr2, {0}
    1090:	65687369 	strbvs	r7, [r8, #-873]!	; 0x369
    1094:	52202e64 	eorpl	r2, r0, #1600	; 0x640
    1098:	74657365 	strbtvc	r7, [r5], #-869	; 0x365
    109c:	000a2120 	andeq	r2, sl, r0, lsr #2
    10a0:	f002 bb05 	b.w	36ae <Code_933>

000010a4 <Dictionary_240>:
    10a4:	00001140 	andeq	r1, r0, r0, asr #2
    10a8:	650e8000 	strvs	r8, [lr]
    10ac:	65736172 	ldrbvs	r6, [r3, #-370]!	; 0x172
    10b0:	73616c66 	cmnvc	r1, #26112	; 0x6600
    10b4:	6f726668 	svcvs	0x00726668
    10b8:	0030006d 	eorseq	r0, r0, sp, rrx

000010ba <Code_240>:
    10ba:	0030      	movs	r0, r6
    10bc:	cf40      	ldmia	r7!, {r6}
    10be:	e7be      	b.n	103e <eraseflash_intern>
    10c0:	00006800 	andeq	r6, r0, r0, lsl #16
    10c4:	00000d26 	andeq	r0, r0, r6, lsr #26
    10c8:	00008800 	andeq	r8, r0, r0, lsl #16
    10cc:	00007800 	andeq	r7, r0, r0, lsl #16
    10d0:	00004000 	andeq	r4, r0, r0
    10d4:	40023c0c 	andmi	r3, r2, ip, lsl #24
    10d8:	89abcdef 	stmibhi	fp!, {r0, r1, r2, r3, r5, r6, r7, r8, sl, fp, lr, pc}
    10dc:	02030405 	andeq	r0, r3, #83886080	; 0x5000000
    10e0:	40023c10 	andmi	r3, r2, r0, lsl ip
    10e4:	8c9daebf 	ldchi	14, cr10, [sp], {191}	; 0xbf
    10e8:	13141516 	tstne	r4, #92274688	; 0x5800000
    10ec:	40023c18 	andmi	r3, r2, r8, lsl ip
    10f0:	40023c04 	andmi	r3, r2, r4, lsl #24
    10f4:	00020000 	andeq	r0, r2, r0

000010f8 <sammeltabelleleeren>:
    10f8:	4846      	ldr	r0, [pc, #280]	; (1214 <hflashstoreemulation_gefunden+0x2a>)
    10fa:	2160      	movs	r1, #96	; 0x60
    10fc:	2200      	movs	r2, #0
    10fe:	8002      	strh	r2, [r0, #0]
    1100:	3002      	adds	r0, #2
    1102:	3901      	subs	r1, #1
    1104:	d1fb      	bne.n	10fe <sammeltabelleleeren+0x6>
    1106:	4770      	bx	lr

00001108 <sammeltabelleleerprobe>:
    1108:	4842      	ldr	r0, [pc, #264]	; (1214 <hflashstoreemulation_gefunden+0x2a>)
    110a:	2160      	movs	r1, #96	; 0x60
    110c:	8802      	ldrh	r2, [r0, #0]
    110e:	2a00      	cmp	r2, #0
    1110:	d012      	beq.n	1138 <sammeltabelleleerprobe+0x30>
    1112:	f000 fb9a 	bl	184a <dotgaensefuesschen>
    1116:	706e551d 	rsbvc	r5, lr, sp, lsl r5
    111a:	65726961 	ldrbvs	r6, [r2, #-2401]!	; 0x961
    111e:	36312064 	ldrtcc	r2, [r1], -r4, rrx
    1122:	7469622d 	strbtvc	r6, [r9], #-557	; 0x22d
    1126:	616c4620 	cmnvs	ip, r0, lsr #12
    112a:	77206873 			; <UNDEFINED> instruction: 0x77206873
    112e:	65746972 	ldrbvs	r6, [r4, #-2418]!	; 0x972
    1132:	f0020a2e 			; <UNDEFINED> instruction: 0xf0020a2e
    1136:	ba2e      	rev	r6, r5
    1138:	3002      	adds	r0, #2
    113a:	3901      	subs	r1, #1
    113c:	d1e6      	bne.n	110c <sammeltabelleleerprobe+0x4>
    113e:	4770      	bx	lr

00001140 <Dictionary_243>:
    1140:	00001218 	andeq	r1, r0, r8, lsl r2
    1144:	68078000 	stmdavs	r7, {pc}
    1148:	73616c66 	cmnvc	r1, #26112	; 0x6600
    114c:	b5302168 	ldrlt	r2, [r0, #-360]!	; 0x168

0000114e <Code_243>:
    114e:	b530      	push	{r4, r5, lr}
    1150:	0032      	movs	r2, r6
    1152:	cf40      	ldmia	r7!, {r6}
    1154:	0850      	lsrs	r0, r2, #1
    1156:	d313      	bcc.n	1180 <Code_243+0x32>
    1158:	f000 fb77 	bl	184a <dotgaensefuesschen>
    115c:	6c66681e 	stclvs	8, cr6, [r6], #-120	; 0xffffff88
    1160:	21687361 	cmncs	r8, r1, ror #6
    1164:	65656e20 	strbvs	r6, [r5, #-3616]!	; 0xe20
    1168:	65207364 	strvs	r7, [r0, #-868]!	; 0x364
    116c:	206e6576 	rsbcs	r6, lr, r6, ror r5
    1170:	72646461 	rsbvc	r6, r4, #1627389952	; 0x61000000
    1174:	65737365 	ldrbvs	r7, [r3, #-869]!	; 0x365
    1178:	000a2e73 	andeq	r2, sl, r3, ror lr
    117c:	f002 ba0a 	b.w	3594 <Code_920>
    1180:	2302      	movs	r3, #2
    1182:	4053      	eors	r3, r2
    1184:	4823      	ldr	r0, [pc, #140]	; (1214 <hflashstoreemulation_gefunden+0x2a>)
    1186:	2120      	movs	r1, #32
    1188:	8804      	ldrh	r4, [r0, #0]
    118a:	8845      	ldrh	r5, [r0, #2]
    118c:	042d      	lsls	r5, r5, #16
    118e:	432c      	orrs	r4, r5
    1190:	429c      	cmp	r4, r3
    1192:	d02a      	beq.n	11ea <hflashstoreemulation_gefunden>
    1194:	3006      	adds	r0, #6
    1196:	3901      	subs	r1, #1
    1198:	d1f6      	bne.n	1188 <Code_243+0x3a>
    119a:	481e      	ldr	r0, [pc, #120]	; (1214 <hflashstoreemulation_gefunden+0x2a>)
    119c:	2120      	movs	r1, #32
    119e:	8804      	ldrh	r4, [r0, #0]
    11a0:	8845      	ldrh	r5, [r0, #2]
    11a2:	042d      	lsls	r5, r5, #16
    11a4:	432c      	orrs	r4, r5
    11a6:	d01a      	beq.n	11de <hflashstoreemulation_leerestelle>
    11a8:	3006      	adds	r0, #6
    11aa:	3901      	subs	r1, #1
    11ac:	d1f7      	bne.n	119e <Code_243+0x50>
    11ae:	f000 fb4c 	bl	184a <dotgaensefuesschen>
    11b2:	6f6f5427 	svcvs	0x006f5427
    11b6:	6e616d20 	cdpvs	13, 6, cr6, cr1, cr0, {1}
    11ba:	6e752079 	mrcvs	0, 3, r2, cr5, cr9, {3}
    11be:	72696170 	rsbvc	r6, r9, #28
    11c2:	31206465 	teqcc	r0, r5, ror #8
    11c6:	69622d36 	stmdbvs	r2!, {r1, r2, r4, r5, r8, sl, fp, sp}^
    11ca:	6c462074 	mcrrvs	0, 7, r2, r6, cr4
    11ce:	20687361 	rsbcs	r7, r8, r1, ror #6
    11d2:	74697277 	strbtvc	r7, [r9], #-631	; 0x277
    11d6:	0a2e7365 	beq	b9df72 <BIT23+0x39df72>
    11da:	f002 b9db 	b.w	3594 <Code_920>

000011de <hflashstoreemulation_leerestelle>:
    11de:	8002      	strh	r2, [r0, #0]
    11e0:	0c12      	lsrs	r2, r2, #16
    11e2:	8042      	strh	r2, [r0, #2]
    11e4:	8086      	strh	r6, [r0, #4]
    11e6:	cf40      	ldmia	r7!, {r6}
    11e8:	bd30      	pop	{r4, r5, pc}

000011ea <hflashstoreemulation_gefunden>:
    11ea:	2102      	movs	r1, #2
    11ec:	4011      	ands	r1, r2
    11ee:	d003      	beq.n	11f8 <hflashstoreemulation_gefunden+0xe>
    11f0:	3a02      	subs	r2, #2
    11f2:	8881      	ldrh	r1, [r0, #4]
    11f4:	0436      	lsls	r6, r6, #16
    11f6:	e001      	b.n	11fc <hflashstoreemulation_gefunden+0x12>
    11f8:	8881      	ldrh	r1, [r0, #4]
    11fa:	0409      	lsls	r1, r1, #16
    11fc:	430e      	orrs	r6, r1
    11fe:	f847 6d04 	str.w	r6, [r7, #-4]!
    1202:	0016      	movs	r6, r2
    1204:	2100      	movs	r1, #0
    1206:	8001      	strh	r1, [r0, #0]
    1208:	8041      	strh	r1, [r0, #2]
    120a:	8081      	strh	r1, [r0, #4]
    120c:	f7ff fe64 	bl	ed8 <Code_223>
    1210:	bd30      	pop	{r4, r5, pc}
    1212:	03300000 	teqeq	r0, #0
    1216:	122e2000 	eorne	r2, lr, #0

00001218 <Dictionary_250>:
    1218:	0000122e 	andeq	r1, r0, lr, lsr #4
    121c:	2b018069 	blcs	613c8 <BIT18+0x213c8>

00001220 <Code_250>:
    1220:	cf01      	ldmia	r7!, {r0}
    1222:	1836      	adds	r6, r6, r0
    1224:	4770      	bx	lr
    1226:	1836      	adds	r6, r6, r0
    1228:	3600      	adds	r6, #0
    122a:	f1160600 			; <UNDEFINED> instruction: 0xf1160600

0000122e <Dictionary_251>:
    122e:	00001244 	andeq	r1, r0, r4, asr #4
    1232:	2d018069 	stccs	0, cr8, [r1, #-420]	; 0xfffffe5c

00001236 <Code_251>:
    1236:	cf01      	ldmia	r7!, {r0}
    1238:	1b86      	subs	r6, r0, r6
    123a:	4770      	bx	lr
    123c:	1a36      	subs	r6, r6, r0
    123e:	3e00      	subs	r6, #0
    1240:	f1b60600 			; <UNDEFINED> instruction: 0xf1b60600

00001244 <Dictionary_252>:
    1244:	00001252 	andeq	r1, r0, r2, asr r2
    1248:	31028061 	tstcc	r2, r1, rrx
    124c:	3e01002d 	cdpcc	0, 0, cr0, cr1, cr13, {1}

0000124e <Code_252>:
    124e:	3e01      	subs	r6, #1
    1250:	4770      	bx	lr

00001252 <Dictionary_253>:
    1252:	00001260 	andeq	r1, r0, r0, ror #4
    1256:	31028061 	tstcc	r2, r1, rrx
    125a:	3601002b 	strcc	r0, [r1], -fp, lsr #32

0000125c <Code_253>:
    125c:	3601      	adds	r6, #1
    125e:	4770      	bx	lr

00001260 <Dictionary_254>:
    1260:	0000126e 	andeq	r1, r0, lr, ror #4
    1264:	32028061 	andcc	r8, r2, #97	; 0x61
    1268:	3e02002d 	cdpcc	0, 0, cr0, cr2, cr13, {1}

0000126a <Code_254>:
    126a:	3e02      	subs	r6, #2
    126c:	4770      	bx	lr

0000126e <Dictionary_255>:
    126e:	0000127c 	andeq	r1, r0, ip, ror r2
    1272:	32028061 	andcc	r8, r2, #97	; 0x61
    1276:	3602002b 	strcc	r0, [r2], -fp, lsr #32

00001278 <Code_255>:
    1278:	3602      	adds	r6, #2
    127a:	4770      	bx	lr

0000127c <Dictionary_256>:
    127c:	0000128e 	andeq	r1, r0, lr, lsl #5
    1280:	6e068061 	cdpvs	0, 0, cr8, cr6, cr1, {3}
    1284:	74616765 	strbtvc	r6, [r1], #-1893	; 0x765
    1288:	42760065 	rsbsmi	r0, r6, #101	; 0x65

0000128a <Code_256>:
    128a:	4276      	negs	r6, r6
    128c:	4770      	bx	lr

0000128e <Dictionary_257>:
    128e:	000012a0 	andeq	r1, r0, r0, lsr #5
    1292:	61038061 	tstvs	r3, r1, rrx
    1296:	17f07362 	ldrbne	r7, [r0, r2, ror #6]!

00001298 <Code_257>:
    1298:	17f0      	asrs	r0, r6, #31
    129a:	1836      	adds	r6, r6, r0
    129c:	4046      	eors	r6, r0
    129e:	4770      	bx	lr

000012a0 <Dictionary_258>:
    12a0:	000012be 			; <UNDEFINED> instruction: 0x000012be
    12a4:	75058042 	strvc	r8, [r5, #-66]	; 0x42
    12a8:	646f6d2f 	strbtvs	r6, [pc], #-3375	; 12b0 <Code_258+0x4>

000012ac <Code_258>:
    12ac:	cf01      	ldmia	r7!, {r0}
    12ae:	0031      	movs	r1, r6
    12b0:	fbb0 f6f6 	udiv	r6, r0, r6
    12b4:	4371      	muls	r1, r6
    12b6:	1a40      	subs	r0, r0, r1
    12b8:	3f04      	subs	r7, #4
    12ba:	6038      	str	r0, [r7, #0]
    12bc:	4770      	bx	lr

000012be <Dictionary_259>:
    12be:	000012dc 	ldrdeq	r1, [r0], -ip
    12c2:	2f048042 	svccs	0x00048042
    12c6:	00646f6d 	rsbeq	r6, r4, sp, ror #30

000012ca <Code_259>:
    12ca:	cf01      	ldmia	r7!, {r0}
    12cc:	0031      	movs	r1, r6
    12ce:	fb90 f6f6 	sdiv	r6, r0, r6
    12d2:	4371      	muls	r1, r6
    12d4:	1a40      	subs	r0, r0, r1
    12d6:	3f04      	subs	r7, #4
    12d8:	6038      	str	r0, [r7, #0]
    12da:	4770      	bx	lr

000012dc <Dictionary_260>:
    12dc:	000012f0 	strdeq	r1, [r0], -r0
    12e0:	6d038042 	stcvs	0, cr8, [r3, #-264]	; 0xfffffef8
    12e4:	b500646f 	strlt	r6, [r0, #-1135]	; 0x46f

000012e6 <Code_260>:
    12e6:	b500      	push	{lr}
    12e8:	f7ff ffef 	bl	12ca <Code_259>
    12ec:	cf40      	ldmia	r7!, {r6}
    12ee:	bd00      	pop	{pc}

000012f0 <Dictionary_262>:
    12f0:	00001300 	andeq	r1, r0, r0, lsl #6
    12f4:	2f018062 	svccs	0x00018062

000012f8 <Code_262>:
    12f8:	cf01      	ldmia	r7!, {r0}
    12fa:	fb90 f6f6 	sdiv	r6, r0, r6
    12fe:	4770      	bx	lr

00001300 <Dictionary_263>:
    1300:	00001310 	andeq	r1, r0, r0, lsl r3
    1304:	2a01806a 	bcs	614b4 <BIT18+0x214b4>

00001308 <Code_263>:
    1308:	cf01      	ldmia	r7!, {r0}
    130a:	4346      	muls	r6, r0
    130c:	4770      	bx	lr
    130e:	4346      	muls	r6, r0

00001310 <Dictionary_264>:
    1310:	0000131e 	andeq	r1, r0, lr, lsl r3
    1314:	32028061 	andcc	r8, r2, #97	; 0x61
    1318:	0076002a 	rsbseq	r0, r6, sl, lsr #32

0000131a <Code_264>:
    131a:	0076      	lsls	r6, r6, #1
    131c:	4770      	bx	lr

0000131e <Dictionary_265>:
    131e:	0000132c 	andeq	r1, r0, ip, lsr #6
    1322:	32028061 	andcc	r8, r2, #97	; 0x61
    1326:	1076002f 	rsbsne	r0, r6, pc, lsr #32

00001328 <Code_265>:
    1328:	1076      	asrs	r6, r6, #1
    132a:	4770      	bx	lr

0000132c <Dictionary_266>:
    132c:	00001340 	andeq	r1, r0, r0, asr #6
    1330:	65048061 	strvs	r8, [r4, #-97]	; 0x61
    1334:	006e6576 	rsbeq	r6, lr, r6, ror r5

00001338 <Code_266>:
    1338:	2001      	movs	r0, #1
    133a:	4030      	ands	r0, r6
    133c:	1836      	adds	r6, r6, r0
    133e:	4770      	bx	lr

00001340 <Dictionary_267>:
    1340:	00001358 	andeq	r1, r0, r8, asr r3
    1344:	62048081 	andvs	r8, r4, #129	; 0x81
    1348:	00657361 	rsbeq	r7, r5, r1, ror #6

0000134c <Code_267>:
    134c:	f847 6d04 	str.w	r6, [r7, #-4]!
    1350:	4e89      	ldr	r6, [pc, #548]	; (1578 <uart_init+0x46>)
    1352:	4770      	bx	lr
    1354:	0000000a 	andeq	r0, r0, sl

00001358 <Dictionary_270>:
    1358:	0000136e 	andeq	r1, r0, lr, ror #6
    135c:	62068000 	andvs	r8, r6, #0
    1360:	72616e69 	rsbvc	r6, r1, #1680	; 0x690
    1364:	48840079 	stmmi	r4, {r0, r3, r4, r5, r6}

00001366 <Code_270>:
    1366:	4884      	ldr	r0, [pc, #528]	; (1578 <uart_init+0x46>)
    1368:	2102      	movs	r1, #2
    136a:	6001      	str	r1, [r0, #0]
    136c:	4770      	bx	lr

0000136e <Dictionary_271>:
    136e:	00001384 	andeq	r1, r0, r4, lsl #7
    1372:	64078000 	strvs	r8, [r7]
    1376:	6d696365 	stclvs	3, cr6, [r9, #-404]!	; 0xfffffe6c
    137a:	487e6c61 	ldmdami	lr!, {r0, r5, r6, sl, fp, sp, lr}^

0000137c <Code_271>:
    137c:	487e      	ldr	r0, [pc, #504]	; (1578 <uart_init+0x46>)
    137e:	210a      	movs	r1, #10
    1380:	6001      	str	r1, [r0, #0]
    1382:	4770      	bx	lr

00001384 <Dictionary_272>:
    1384:	00001396 	muleq	r0, r6, r3
    1388:	68038000 	stmdavs	r3, {pc}
    138c:	487a7865 	ldmdami	sl!, {r0, r2, r5, r6, fp, ip, sp, lr}^

0000138e <Code_272>:
    138e:	487a      	ldr	r0, [pc, #488]	; (1578 <uart_init+0x46>)
    1390:	2110      	movs	r1, #16
    1392:	6001      	str	r1, [r0, #0]
    1394:	4770      	bx	lr

00001396 <Dictionary_273>:
    1396:	000013b2 			; <UNDEFINED> instruction: 0x000013b2
    139a:	68098081 	stmdavs	r9, {r0, r7, pc}
    139e:	2d6b6f6f 	stclcs	15, cr6, [fp, #-444]!	; 0xfffffe44
    13a2:	74696d65 	strbtvc	r6, [r9], #-3429	; 0xd65

000013a6 <Code_273>:
    13a6:	f847 6d04 	str.w	r6, [r7, #-4]!
    13aa:	4e74      	ldr	r6, [pc, #464]	; (157c <uart_init+0x4a>)
    13ac:	4770      	bx	lr
    13ae:	0000149c 	muleq	r0, ip, r4

000013b2 <Dictionary_276>:
    13b2:	000013ce 	andeq	r1, r0, lr, asr #7
    13b6:	68088081 	stmdavs	r8, {r0, r7, pc}
    13ba:	2d6b6f6f 	stclcs	15, cr6, [fp, #-444]!	; 0xfffffe44
    13be:	0079656b 	rsbseq	r6, r9, fp, ror #10

000013c2 <Code_276>:
    13c2:	f847 6d04 	str.w	r6, [r7, #-4]!
    13c6:	4e6e      	ldr	r6, [pc, #440]	; (1580 <uart_init+0x4e>)
    13c8:	4770      	bx	lr
    13ca:	000014c2 	andeq	r1, r0, r2, asr #9

000013ce <Dictionary_279>:
    13ce:	000013ec 	andeq	r1, r0, ip, ror #7
    13d2:	680a8081 	stmdavs	sl, {r0, r7, pc}
    13d6:	2d6b6f6f 	stclcs	15, cr6, [fp, #-444]!	; 0xfffffe44
    13da:	74696d65 	strbtvc	r6, [r9], #-3429	; 0xd65
    13de:	f847003f 			; <UNDEFINED> instruction: 0xf847003f

000013e0 <Code_279>:
    13e0:	f847 6d04 	str.w	r6, [r7, #-4]!
    13e4:	4e67      	ldr	r6, [pc, #412]	; (1584 <uart_init+0x52>)
    13e6:	4770      	bx	lr
    13e8:	000014ec 	andeq	r1, r0, ip, ror #9

000013ec <Dictionary_282>:
    13ec:	00001408 	andeq	r1, r0, r8, lsl #8
    13f0:	68098081 	stmdavs	r9, {r0, r7, pc}
    13f4:	2d6b6f6f 	stclcs	15, cr6, [fp, #-444]!	; 0xfffffe44
    13f8:	3f79656b 	svccc	0x0079656b

000013fc <Code_282>:
    13fc:	f847 6d04 	str.w	r6, [r7, #-4]!
    1400:	4e61      	ldr	r6, [pc, #388]	; (1588 <uart_init+0x56>)
    1402:	4770      	bx	lr
    1404:	00001518 	andeq	r1, r0, r8, lsl r5

00001408 <Dictionary_285>:
    1408:	00001426 	andeq	r1, r0, r6, lsr #8
    140c:	680a8081 	stmdavs	sl, {r0, r7, pc}
    1410:	2d6b6f6f 	stclcs	15, cr6, [fp, #-444]!	; 0xfffffe44
    1414:	73756170 	cmnvc	r5, #28
    1418:	f8470065 			; <UNDEFINED> instruction: 0xf8470065

0000141a <Code_285>:
    141a:	f847 6d04 	str.w	r6, [r7, #-4]!
    141e:	4e5b      	ldr	r6, [pc, #364]	; (158c <uart_init+0x5a>)
    1420:	4770      	bx	lr
    1422:	0000365e 	andeq	r3, r0, lr, asr r6

00001426 <Dictionary_288>:
    1426:	0000143c 	andeq	r1, r0, ip, lsr r4
    142a:	65048000 	strvs	r8, [r4]
    142e:	0074696d 	rsbseq	r6, r4, sp, ror #18

00001432 <Code_288>:
    1432:	b50f      	push	{r0, r1, r2, r3, lr}
    1434:	4851      	ldr	r0, [pc, #324]	; (157c <uart_init+0x4a>)
    1436:	f000 f826 	bl	1486 <hook_intern>
    143a:	bd0f      	pop	{r0, r1, r2, r3, pc}

0000143c <Dictionary_289>:
    143c:	00001450 	andeq	r1, r0, r0, asr r4
    1440:	6b038000 	blvs	e1448 <BIT19+0x61448>
    1444:	b50f7965 	strlt	r7, [pc, #-2405]	; ae7 <Code_175+0xb>

00001446 <Code_289>:
    1446:	b50f      	push	{r0, r1, r2, r3, lr}
    1448:	484d      	ldr	r0, [pc, #308]	; (1580 <uart_init+0x4e>)
    144a:	f000 f81c 	bl	1486 <hook_intern>
    144e:	bd0f      	pop	{r0, r1, r2, r3, pc}

00001450 <Dictionary_290>:
    1450:	00001462 	andeq	r1, r0, r2, ror #8
    1454:	65058000 	strvs	r8, [r5]
    1458:	3f74696d 	svccc	0x0074696d

0000145c <Code_290>:
    145c:	4849      	ldr	r0, [pc, #292]	; (1584 <uart_init+0x52>)
    145e:	6800      	ldr	r0, [r0, #0]
    1460:	4687      	mov	pc, r0

00001462 <Dictionary_291>:
    1462:	00001474 	andeq	r1, r0, r4, ror r4
    1466:	6b048000 	blvs	12146e <BIT20+0x2146e>
    146a:	003f7965 	eorseq	r7, pc, r5, ror #18

0000146e <Code_291>:
    146e:	4846      	ldr	r0, [pc, #280]	; (1588 <uart_init+0x56>)
    1470:	6800      	ldr	r0, [r0, #0]
    1472:	4687      	mov	pc, r0

00001474 <Dictionary_292>:
    1474:	0000148a 	andeq	r1, r0, sl, lsl #9
    1478:	70058000 	andvc	r8, r5, r0
    147c:	65737561 	ldrbvs	r7, [r3, #-1377]!	; 0x561

00001480 <Code_292>:
    1480:	4842      	ldr	r0, [pc, #264]	; (158c <uart_init+0x5a>)
    1482:	6800      	ldr	r0, [r0, #0]
    1484:	4687      	mov	pc, r0

00001486 <hook_intern>:
    1486:	6800      	ldr	r0, [r0, #0]
    1488:	4687      	mov	pc, r0

0000148a <Dictionary_293>:
    148a:	000014b0 			; <UNDEFINED> instruction: 0x000014b0
    148e:	730b8000 	movwvc	r8, #45056	; 0xb000
    1492:	61697265 	cmnvs	r9, r5, ror #4
    1496:	6d652d6c 	stclvs	13, cr2, [r5, #-432]!	; 0xfffffe50
    149a:	b5007469 	strlt	r7, [r0, #-1129]	; 0x469

0000149c <Code_293>:
    149c:	b500      	push	{lr}
    149e:	f000 f825 	bl	14ec <Code_299>
    14a2:	2e00      	cmp	r6, #0
    14a4:	cf40      	ldmia	r7!, {r6}
    14a6:	d0fa      	beq.n	149e <Code_293+0x2>
    14a8:	4a39      	ldr	r2, [pc, #228]	; (1590 <uart_init+0x5e>)
    14aa:	7016      	strb	r6, [r2, #0]
    14ac:	cf40      	ldmia	r7!, {r6}
    14ae:	bd00      	pop	{pc}

000014b0 <Dictionary_296>:
    14b0:	000014d8 	ldrdeq	r1, [r0], -r8
    14b4:	730a8000 	movwvc	r8, #40960	; 0xa000
    14b8:	61697265 	cmnvs	r9, r5, ror #4
    14bc:	656b2d6c 	strbvs	r2, [fp, #-3436]!	; 0xd6c
    14c0:	b5000079 	strlt	r0, [r0, #-121]	; 0x79

000014c2 <Code_296>:
    14c2:	b500      	push	{lr}
    14c4:	f000 f828 	bl	1518 <Code_302>
    14c8:	2e00      	cmp	r6, #0
    14ca:	cf40      	ldmia	r7!, {r6}
    14cc:	d0fa      	beq.n	14c4 <Code_296+0x2>
    14ce:	f847 6d04 	str.w	r6, [r7, #-4]!
    14d2:	4a2f      	ldr	r2, [pc, #188]	; (1590 <uart_init+0x5e>)
    14d4:	7816      	ldrb	r6, [r2, #0]
    14d6:	bd00      	pop	{pc}

000014d8 <Dictionary_299>:
    14d8:	00001506 	andeq	r1, r0, r6, lsl #10
    14dc:	730c8000 	movwvc	r8, #49152	; 0xc000
    14e0:	61697265 	cmnvs	r9, r5, ror #4
    14e4:	6d652d6c 	stclvs	13, cr2, [r5, #-432]!	; 0xfffffe50
    14e8:	003f7469 	eorseq	r7, pc, r9, ror #8

000014ec <Code_299>:
    14ec:	b500      	push	{lr}
    14ee:	f7ff ffc7 	bl	1480 <Code_292>
    14f2:	f847 6d04 	str.w	r6, [r7, #-4]!
    14f6:	2600      	movs	r6, #0
    14f8:	4826      	ldr	r0, [pc, #152]	; (1594 <uart_init+0x62>)
    14fa:	6801      	ldr	r1, [r0, #0]
    14fc:	2080      	movs	r0, #128	; 0x80
    14fe:	4001      	ands	r1, r0
    1500:	d000      	beq.n	1504 <Code_299+0x18>
    1502:	43f6      	mvns	r6, r6
    1504:	bd00      	pop	{pc}

00001506 <Dictionary_302>:
    1506:	000015cc 	andeq	r1, r0, ip, asr #11
    150a:	730b8000 	movwvc	r8, #45056	; 0xb000
    150e:	61697265 	cmnvs	r9, r5, ror #4
    1512:	656b2d6c 	strbvs	r2, [fp, #-3436]!	; 0xd6c
    1516:	b5003f79 	strlt	r3, [r0, #-3961]	; 0xf79

00001518 <Code_302>:
    1518:	b500      	push	{lr}
    151a:	f7ff ffb1 	bl	1480 <Code_292>
    151e:	f847 6d04 	str.w	r6, [r7, #-4]!
    1522:	2600      	movs	r6, #0
    1524:	481b      	ldr	r0, [pc, #108]	; (1594 <uart_init+0x62>)
    1526:	6801      	ldr	r1, [r0, #0]
    1528:	2020      	movs	r0, #32
    152a:	4001      	ands	r1, r0
    152c:	d000      	beq.n	1530 <Code_302+0x18>
    152e:	43f6      	mvns	r6, r6
    1530:	bd00      	pop	{pc}

00001532 <uart_init>:
    1532:	4919      	ldr	r1, [pc, #100]	; (1598 <uart_init+0x66>)
    1534:	f45f 6000 	movs.w	r0, #2048	; 0x800
    1538:	6008      	str	r0, [r1, #0]
    153a:	4918      	ldr	r1, [pc, #96]	; (159c <uart_init+0x6a>)
    153c:	2001      	movs	r0, #1
    153e:	6008      	str	r0, [r1, #0]
    1540:	6808      	ldr	r0, [r1, #0]
    1542:	f010 0002 	ands.w	r0, r0, #2
    1546:	d0fb      	beq.n	1540 <uart_init+0xe>
    1548:	4915      	ldr	r1, [pc, #84]	; (15a0 <uart_init+0x6e>)
    154a:	2001      	movs	r0, #1
    154c:	6008      	str	r0, [r1, #0]
    154e:	4915      	ldr	r1, [pc, #84]	; (15a4 <uart_init+0x72>)
    1550:	4815      	ldr	r0, [pc, #84]	; (15a8 <uart_init+0x76>)
    1552:	6008      	str	r0, [r1, #0]
    1554:	4915      	ldr	r1, [pc, #84]	; (15ac <uart_init+0x7a>)
    1556:	4816      	ldr	r0, [pc, #88]	; (15b0 <uart_init+0x7e>)
    1558:	6008      	str	r0, [r1, #0]
    155a:	4916      	ldr	r1, [pc, #88]	; (15b4 <uart_init+0x82>)
    155c:	6808      	ldr	r0, [r1, #0]
    155e:	f050 00a0 	orrs.w	r0, r0, #160	; 0xa0
    1562:	6008      	str	r0, [r1, #0]
    1564:	4914      	ldr	r1, [pc, #80]	; (15b8 <uart_init+0x86>)
    1566:	4815      	ldr	r0, [pc, #84]	; (15bc <uart_init+0x8a>)
    1568:	6008      	str	r0, [r1, #0]
    156a:	4915      	ldr	r1, [pc, #84]	; (15c0 <uart_init+0x8e>)
    156c:	208b      	movs	r0, #139	; 0x8b
    156e:	6008      	str	r0, [r1, #0]
    1570:	4914      	ldr	r1, [pc, #80]	; (15c4 <uart_init+0x92>)
    1572:	4815      	ldr	r0, [pc, #84]	; (15c8 <uart_init+0x96>)
    1574:	6008      	str	r0, [r1, #0]
    1576:	4770      	bx	lr
    1578:	20003ffc 	strdcs	r3, [r0], -ip
    157c:	20003ff8 	strdcs	r3, [r0], -r8
    1580:	20003ff4 	strdcs	r3, [r0], -r4
    1584:	20003ff0 	strdcs	r3, [r0], -r0
    1588:	20003fec 	andcs	r3, r0, ip, ror #31
    158c:	20003fe8 	andcs	r3, r0, r8, ror #31
    1590:	40004404 	andmi	r4, r0, r4, lsl #8
    1594:	40004400 	andmi	r4, r0, r0, lsl #8
    1598:	40007000 	andmi	r7, r0, r0
    159c:	40023800 	andmi	r3, r2, r0, lsl #16
    15a0:	40023808 	andmi	r3, r2, r8, lsl #16
    15a4:	4002381c 	andmi	r3, r2, ip, lsl r8
    15a8:	000080ff 	strdeq	r8, [r0], -pc	; <UNPREDICTABLE>
    15ac:	40023824 	andmi	r3, r2, r4, lsr #16
    15b0:	00020000 	andeq	r0, r2, r0
    15b4:	40020000 	andmi	r0, r2, r0
    15b8:	40020020 	andmi	r0, r2, r0, lsr #32
    15bc:	00007700 	andeq	r7, r0, r0, lsl #14
    15c0:	40004408 	andmi	r4, r0, r8, lsl #8
    15c4:	4000440c 	andmi	r4, r0, ip, lsl #8
    15c8:	0000200c 	andeq	r2, r0, ip

000015cc <Dictionary_305>:
    15cc:	000015f0 	strdeq	r1, [r0], -r0
    15d0:	63078000 	movwvs	r8, #28672	; 0x7000
    15d4:	65707865 	ldrbvs	r7, [r0, #-2149]!	; 0x865
    15d8:	b5007463 	strlt	r7, [r0, #-1123]	; 0x463

000015da <Code_305>:
    15da:	b500      	push	{lr}
    15dc:	6838      	ldr	r0, [r7, #0]
    15de:	b401      	push	{r0}
    15e0:	3001      	adds	r0, #1
    15e2:	6038      	str	r0, [r7, #0]
    15e4:	f000 f80b 	bl	15fe <Code_307>
    15e8:	bc01      	pop	{r0}
    15ea:	7006      	strb	r6, [r0, #0]
    15ec:	cf40      	ldmia	r7!, {r6}
    15ee:	bd00      	pop	{pc}

000015f0 <Dictionary_307>:
    15f0:	00001666 	andeq	r1, r0, r6, ror #12
    15f4:	61068000 	mrsvs	r8, (UNDEF: 6)
    15f8:	70656363 	rsbvc	r6, r5, r3, ror #6
    15fc:	b5000074 	strlt	r0, [r0, #-116]	; 0x74

000015fe <Code_307>:
    15fe:	b500      	push	{lr}
    1600:	cf02      	ldmia	r7!, {r1}
    1602:	3901      	subs	r1, #1
    1604:	2200      	movs	r2, #0
    1606:	f7ff ff1e 	bl	1446 <Code_289>
    160a:	0030      	movs	r0, r6
    160c:	cf40      	ldmia	r7!, {r6}
    160e:	287f      	cmp	r0, #127	; 0x7f
    1610:	d009      	beq.n	1626 <Code_307+0x28>
    1612:	2820      	cmp	r0, #32
    1614:	d219      	bcs.n	164a <Code_307+0x4c>
    1616:	2809      	cmp	r0, #9
    1618:	d016      	beq.n	1648 <Code_307+0x4a>
    161a:	280a      	cmp	r0, #10
    161c:	d01f      	beq.n	165e <Code_307+0x60>
    161e:	280d      	cmp	r0, #13
    1620:	d01d      	beq.n	165e <Code_307+0x60>
    1622:	2808      	cmp	r0, #8
    1624:	d1ef      	bne.n	1606 <Code_307+0x8>
    1626:	2a00      	cmp	r2, #0
    1628:	d0ed      	beq.n	1606 <Code_307+0x8>
    162a:	f000 f90e 	bl	184a <dotgaensefuesschen>
    162e:	08200803 	stmdaeq	r0!, {r0, r1, fp}
    1632:	2a00      	cmp	r2, #0
    1634:	d0e7      	beq.n	1606 <Code_307+0x8>
    1636:	5c88      	ldrb	r0, [r1, r2]
    1638:	3a01      	subs	r2, #1
    163a:	2380      	movs	r3, #128	; 0x80
    163c:	4003      	ands	r3, r0
    163e:	d0e2      	beq.n	1606 <Code_307+0x8>
    1640:	2340      	movs	r3, #64	; 0x40
    1642:	4003      	ands	r3, r0
    1644:	d0f5      	beq.n	1632 <Code_307+0x34>
    1646:	e7de      	b.n	1606 <Code_307+0x8>
    1648:	2020      	movs	r0, #32
    164a:	42b2      	cmp	r2, r6
    164c:	d2db      	bcs.n	1606 <Code_307+0x8>
    164e:	f847 6d04 	str.w	r6, [r7, #-4]!
    1652:	0006      	movs	r6, r0
    1654:	f7ff feed 	bl	1432 <Code_288>
    1658:	3201      	adds	r2, #1
    165a:	5488      	strb	r0, [r1, r2]
    165c:	e7d3      	b.n	1606 <Code_307+0x8>
    165e:	0016      	movs	r6, r2
    1660:	f000 f8a2 	bl	17a8 <Code_338>
    1664:	bd00      	pop	{pc}

00001666 <Dictionary_311>:
    1666:	00001678 	andeq	r1, r0, r8, ror r6
    166a:	74038040 	strvc	r8, [r3], #-64	; 0x40
    166e:	f8476269 			; <UNDEFINED> instruction: 0xf8476269

00001670 <Code_311>:
    1670:	f847 6d04 	str.w	r6, [r7, #-4]!
    1674:	4e29      	ldr	r6, [pc, #164]	; (171c <Code_323+0x22>)
    1676:	4770      	bx	lr

00001678 <Dictionary_313>:
    1678:	0000168e 	andeq	r1, r0, lr, lsl #13
    167c:	3e038081 	cdpcc	0, 0, cr8, cr3, cr1, {4}
    1680:	f8476e69 			; <UNDEFINED> instruction: 0xf8476e69

00001682 <Code_313>:
    1682:	f847 6d04 	str.w	r6, [r7, #-4]!
    1686:	4e26      	ldr	r6, [pc, #152]	; (1720 <Code_323+0x26>)
    1688:	4770      	bx	lr
    168a:	00000000 	andeq	r0, r0, r0

0000168e <Dictionary_316>:
    168e:	000016b4 			; <UNDEFINED> instruction: 0x000016b4
    1692:	630e8082 	movwvs	r8, #57474	; 0xe082
    1696:	65727275 	ldrbvs	r7, [r2, #-629]!	; 0x275
    169a:	732d746e 	teqvc	sp, #1845493760	; 0x6e000000
    169e:	6372756f 	cmnvs	r2, #465567744	; 0x1bc00000
    16a2:	f8470065 			; <UNDEFINED> instruction: 0xf8470065

000016a4 <Code_316>:
    16a4:	f847 6d04 	str.w	r6, [r7, #-4]!
    16a8:	4e1e      	ldr	r6, [pc, #120]	; (1724 <Code_323+0x2a>)
    16aa:	4770      	bx	lr
    16ac:	00000000 	andeq	r0, r0, r0
    16b0:	20000068 	andcs	r0, r0, r8, rrx

000016b4 <Dictionary_319>:
    16b4:	000016d0 	ldrdeq	r1, [r0], -r0
    16b8:	73098000 	movwvc	r8, #36864	; 0x9000
    16bc:	6f737465 	svcvs	0x00737465
    16c0:	65637275 	strbvs	r7, [r3, #-629]!	; 0x275

000016c4 <Code_319>:
    16c4:	4817      	ldr	r0, [pc, #92]	; (1724 <Code_323+0x2a>)
    16c6:	cf02      	ldmia	r7!, {r1}
    16c8:	6006      	str	r6, [r0, #0]
    16ca:	6041      	str	r1, [r0, #4]
    16cc:	cf40      	ldmia	r7!, {r6}
    16ce:	4770      	bx	lr

000016d0 <Dictionary_321>:
    16d0:	000016ee 	andeq	r1, r0, lr, ror #13
    16d4:	73068000 	movwvc	r8, #24576	; 0x6000
    16d8:	6372756f 	cmnvs	r2, #465567744	; 0x1bc00000
    16dc:	f8470065 			; <UNDEFINED> instruction: 0xf8470065

000016de <Code_321>:
    16de:	f847 6d04 	str.w	r6, [r7, #-4]!
    16e2:	4e10      	ldr	r6, [pc, #64]	; (1724 <Code_323+0x2a>)
    16e4:	3f04      	subs	r7, #4
    16e6:	6870      	ldr	r0, [r6, #4]
    16e8:	6038      	str	r0, [r7, #0]
    16ea:	6836      	ldr	r6, [r6, #0]
    16ec:	4770      	bx	lr

000016ee <Dictionary_323>:
    16ee:	00001728 	andeq	r1, r0, r8, lsr #14
    16f2:	71058000 	mrsvc	r8, (UNDEF: 5)
    16f6:	79726575 	ldmdbvc	r2!, {r0, r2, r4, r5, r6, r8, sl, sp, lr}^

000016fa <Code_323>:
    16fa:	b50f      	push	{r0, r1, r2, r3, lr}
    16fc:	4808      	ldr	r0, [pc, #32]	; (1720 <Code_323+0x26>)
    16fe:	2100      	movs	r1, #0
    1700:	6001      	str	r1, [r0, #0]
    1702:	f7ff ffb5 	bl	1670 <Code_311>
    1706:	f847 6d04 	str.w	r6, [r7, #-4]!
    170a:	f847 6d04 	str.w	r6, [r7, #-4]!
    170e:	26c8      	movs	r6, #200	; 0xc8
    1710:	f7ff ff75 	bl	15fe <Code_307>
    1714:	f7ff ffd6 	bl	16c4 <Code_319>
    1718:	bd0f      	pop	{r0, r1, r2, r3, pc}
    171a:	00680000 	rsbeq	r0, r8, r0
    171e:	3fe42000 	svccc	0x00e42000
    1722:	3fdc2000 	svccc	0x00dc2000
    1726:	17762000 	ldrbne	r2, [r6, -r0]!

00001728 <Dictionary_328>:
    1728:	00001776 	andeq	r1, r0, r6, ror r7
    172c:	63078000 	movwvs	r8, #28672	; 0x7000
    1730:	61706d6f 	cmnvs	r0, pc, ror #26
    1734:	b50f6572 	strlt	r6, [pc, #-1394]	; 11ca <Code_243+0x7c>

00001736 <Code_328>:
    1736:	b50f      	push	{r0, r1, r2, r3, lr}
    1738:	0031      	movs	r1, r6
    173a:	cf40      	ldmia	r7!, {r6}
    173c:	cf01      	ldmia	r7!, {r0}
    173e:	4288      	cmp	r0, r1
    1740:	d002      	beq.n	1748 <Code_328+0x12>
    1742:	cf40      	ldmia	r7!, {r6}
    1744:	2600      	movs	r6, #0
    1746:	bd0f      	pop	{r0, r1, r2, r3, pc}
    1748:	cf02      	ldmia	r7!, {r1}
    174a:	2800      	cmp	r0, #0
    174c:	d010      	beq.n	1770 <Code_328+0x3a>
    174e:	3801      	subs	r0, #1
    1750:	5c0a      	ldrb	r2, [r1, r0]
    1752:	5c33      	ldrb	r3, [r6, r0]
    1754:	2a41      	cmp	r2, #65	; 0x41
    1756:	d302      	bcc.n	175e <Code_328+0x28>
    1758:	2a5b      	cmp	r2, #91	; 0x5b
    175a:	bf38      	it	cc
    175c:	3220      	addcc	r2, #32
    175e:	2b41      	cmp	r3, #65	; 0x41
    1760:	d302      	bcc.n	1768 <Code_328+0x32>
    1762:	2b5b      	cmp	r3, #91	; 0x5b
    1764:	bf38      	it	cc
    1766:	3320      	addcc	r3, #32
    1768:	429a      	cmp	r2, r3
    176a:	d0ee      	beq.n	174a <Code_328+0x14>
    176c:	2600      	movs	r6, #0
    176e:	bd0f      	pop	{r0, r1, r2, r3, pc}
    1770:	2600      	movs	r6, #0
    1772:	43f6      	mvns	r6, r6
    1774:	bd0f      	pop	{r0, r1, r2, r3, pc}

00001776 <Dictionary_333>:
    1776:	0000178a 	andeq	r1, r0, sl, lsl #15
    177a:	63028000 	movwvs	r8, #8192	; 0x2000
    177e:	b5000072 	strlt	r0, [r0, #-114]	; 0x72

00001780 <Code_333>:
    1780:	b500      	push	{lr}
    1782:	f000 f862 	bl	184a <dotgaensefuesschen>
    1786:	bd000a01 	vstrlt	s0, [r0, #-4]

0000178a <Dictionary_335>:
    178a:	0000179c 	muleq	r0, ip, r7
    178e:	62028000 	andvs	r8, r2, #0
    1792:	f847006c 			; <UNDEFINED> instruction: 0xf847006c

00001794 <Code_335>:
    1794:	f847 6d04 	str.w	r6, [r7, #-4]!
    1798:	2620      	movs	r6, #32
    179a:	4770      	bx	lr

0000179c <Dictionary_338>:
    179c:	000017b0 			; <UNDEFINED> instruction: 0x000017b0
    17a0:	73058000 	movwvc	r8, #20480	; 0x5000
    17a4:	65636170 	strbvs	r6, [r3, #-368]!	; 0x170

000017a8 <Code_338>:
    17a8:	f847 6d04 	str.w	r6, [r7, #-4]!
    17ac:	2620      	movs	r6, #32
    17ae:	e640      	b.n	1432 <Code_288>

000017b0 <Dictionary_341>:
    17b0:	000017d0 	ldrdeq	r1, [r0], -r0
    17b4:	73068000 	movwvc	r8, #24576	; 0x6000
    17b8:	65636170 	strbvs	r6, [r3, #-368]!	; 0x170
    17bc:	b5000073 	strlt	r0, [r0, #-115]	; 0x73

000017be <Code_341>:
    17be:	b500      	push	{lr}
    17c0:	2e00      	cmp	r6, #0
    17c2:	dd03      	ble.n	17cc <Code_341+0xe>
    17c4:	f7ff fff0 	bl	17a8 <Code_338>
    17c8:	3e01      	subs	r6, #1
    17ca:	d1fb      	bne.n	17c4 <Code_341+0x6>
    17cc:	cf40      	ldmia	r7!, {r6}
    17ce:	bd00      	pop	{pc}

000017d0 <Dictionary_343>:
    17d0:	000017e0 	andeq	r1, r0, r0, ror #15
    17d4:	5b068050 	blpl	1a191c <BIT20+0xa191c>
    17d8:	72616863 	rsbvc	r6, r1, #6488064	; 0x630000
    17dc:	e005005d 	and	r0, r5, sp, asr r0

000017de <Code_343>:
    17de:	e005      	b.n	17ec <Code_344>

000017e0 <Dictionary_344>:
    17e0:	000017f8 	strdeq	r1, [r0], -r8
    17e4:	63048000 	movwvs	r8, #16384	; 0x4000
    17e8:	00726168 	rsbseq	r6, r2, r8, ror #2

000017ec <Code_344>:
    17ec:	b500      	push	{lr}
    17ee:	f001 fb49 	bl	2e84 <Code_793>
    17f2:	cf40      	ldmia	r7!, {r6}
    17f4:	7836      	ldrb	r6, [r6, #0]
    17f6:	bd00      	pop	{pc}

000017f8 <Dictionary_346>:
    17f8:	00001808 	andeq	r1, r0, r8, lsl #16
    17fc:	28018050 	stmdacs	r1, {r4, r6, pc}

00001800 <Code_346>:
    1800:	f847 6d04 	str.w	r6, [r7, #-4]!
    1804:	2629      	movs	r6, #41	; 0x29
    1806:	e006      	b.n	1816 <Code_349+0x6>

00001808 <Dictionary_349>:
    1808:	00001822 	andeq	r1, r0, r2, lsr #16
    180c:	5c018050 	stcpl	0, cr8, [r1], {80}	; 0x50

00001810 <Code_349>:
    1810:	f847 6d04 	str.w	r6, [r7, #-4]!
    1814:	2600      	movs	r6, #0
    1816:	b500      	push	{lr}
    1818:	f001 fb3e 	bl	2e98 <Code_795>
    181c:	3704      	adds	r7, #4
    181e:	cf40      	ldmia	r7!, {r6}
    1820:	bd00      	pop	{pc}

00001822 <Dictionary_354>:
    1822:	00001866 	andeq	r1, r0, r6, ror #16
    1826:	2e028010 	mcrcs	0, 0, r8, cr2, cr0, {0}
    182a:	489b0022 	ldmmi	fp, {r1, r5}

0000182c <Code_354>:
    182c:	489b      	ldr	r0, [pc, #620]	; (1a9c <Code_393+0x94>)
    182e:	b500      	push	{lr}
    1830:	f847 6d04 	str.w	r6, [r7, #-4]!
    1834:	0006      	movs	r6, r0
    1836:	f000 fa5e 	bl	1cf6 <Code_434>
    183a:	f847 6d04 	str.w	r6, [r7, #-4]!
    183e:	2622      	movs	r6, #34	; 0x22
    1840:	f001 fb2a 	bl	2e98 <Code_795>
    1844:	f000 fd58 	bl	22f8 <Code_551>
    1848:	bd00      	pop	{pc}

0000184a <dotgaensefuesschen>:
    184a:	b40a      	push	{r1, r3}
    184c:	f847 6d04 	str.w	r6, [r7, #-4]!
    1850:	4676      	mov	r6, lr
    1852:	3e01      	subs	r6, #1
    1854:	7833      	ldrb	r3, [r6, #0]
    1856:	2101      	movs	r1, #1
    1858:	3301      	adds	r3, #1
    185a:	4019      	ands	r1, r3
    185c:	185b      	adds	r3, r3, r1
    185e:	eb1e 0e03 	adds.w	lr, lr, r3
    1862:	bc0a      	pop	{r1, r3}
    1864:	e039      	b.n	18da <Code_369>

00001866 <Dictionary_360>:
    1866:	0000188c 	andeq	r1, r0, ip, lsl #17
    186a:	63028010 	movwvs	r8, #8208	; 0x2010
    186e:	488b0022 	stmmi	fp, {r1, r5}

00001870 <Code_360>:
    1870:	488b      	ldr	r0, [pc, #556]	; (1aa0 <Code_393+0x98>)
    1872:	e7dc      	b.n	182e <Code_354+0x2>

00001874 <dotcfuesschen>:
    1874:	f847 6d04 	str.w	r6, [r7, #-4]!
    1878:	4676      	mov	r6, lr
    187a:	3e01      	subs	r6, #1
    187c:	7833      	ldrb	r3, [r6, #0]
    187e:	2101      	movs	r1, #1
    1880:	3301      	adds	r3, #1
    1882:	4019      	ands	r1, r3
    1884:	185b      	adds	r3, r3, r1
    1886:	eb1e 0e03 	adds.w	lr, lr, r3
    188a:	4770      	bx	lr

0000188c <Dictionary_362>:
    188c:	000018b6 			; <UNDEFINED> instruction: 0x000018b6
    1890:	73028010 	movwvc	r8, #8208	; 0x2010
    1894:	48830022 	stmmi	r3, {r1, r5}

00001896 <Code_362>:
    1896:	4883      	ldr	r0, [pc, #524]	; (1aa4 <Code_393+0x9c>)
    1898:	e7c9      	b.n	182e <Code_354+0x2>

0000189a <dotsfuesschen>:
    189a:	f847 6d04 	str.w	r6, [r7, #-4]!
    189e:	4676      	mov	r6, lr
    18a0:	f847 6d04 	str.w	r6, [r7, #-4]!
    18a4:	3e01      	subs	r6, #1
    18a6:	7836      	ldrb	r6, [r6, #0]
    18a8:	2101      	movs	r1, #1
    18aa:	1c73      	adds	r3, r6, #1
    18ac:	4019      	ands	r1, r3
    18ae:	185b      	adds	r3, r3, r1
    18b0:	eb1e 0e03 	adds.w	lr, lr, r3
    18b4:	4770      	bx	lr

000018b6 <Dictionary_366>:
    18b6:	000018ce 	andeq	r1, r0, lr, asr #17
    18ba:	63058000 	movwvs	r8, #20480	; 0x5000
    18be:	746e756f 	strbtvc	r7, [lr], #-1391	; 0x56f

000018c2 <Code_366>:
    18c2:	3601      	adds	r6, #1
    18c4:	f847 6d04 	str.w	r6, [r7, #-4]!
    18c8:	3e01      	subs	r6, #1
    18ca:	7836      	ldrb	r6, [r6, #0]
    18cc:	4770      	bx	lr

000018ce <Dictionary_369>:
    18ce:	000018f6 	strdeq	r1, [r0], -r6
    18d2:	63058000 	movwvs	r8, #20480	; 0x5000
    18d6:	65707974 	ldrbvs	r7, [r0, #-2420]!	; 0x974

000018da <Code_369>:
    18da:	b501      	push	{r0, lr}
    18dc:	7830      	ldrb	r0, [r6, #0]
    18de:	2800      	cmp	r0, #0
    18e0:	d007      	beq.n	18f2 <Code_369+0x18>
    18e2:	3601      	adds	r6, #1
    18e4:	f847 6d04 	str.w	r6, [r7, #-4]!
    18e8:	7836      	ldrb	r6, [r6, #0]
    18ea:	f7ff fda2 	bl	1432 <Code_288>
    18ee:	3801      	subs	r0, #1
    18f0:	d1f7      	bne.n	18e2 <Code_369+0x8>
    18f2:	cf40      	ldmia	r7!, {r6}
    18f4:	bd01      	pop	{r0, pc}

000018f6 <Dictionary_373>:
    18f6:	00001924 	andeq	r1, r0, r4, lsr #18
    18fa:	74048000 	strvc	r8, [r4]
    18fe:	00657079 	rsbeq	r7, r5, r9, ror r0

00001902 <Code_373>:
    1902:	0031      	movs	r1, r6
    1904:	cf40      	ldmia	r7!, {r6}
    1906:	0030      	movs	r0, r6
    1908:	cf40      	ldmia	r7!, {r6}

0000190a <stype_addr_r0_len_r1>:
    190a:	b500      	push	{lr}
    190c:	2900      	cmp	r1, #0
    190e:	d008      	beq.n	1922 <stype_addr_r0_len_r1+0x18>
    1910:	2200      	movs	r2, #0
    1912:	f847 6d04 	str.w	r6, [r7, #-4]!
    1916:	5c86      	ldrb	r6, [r0, r2]
    1918:	f7ff fd8b 	bl	1432 <Code_288>
    191c:	3201      	adds	r2, #1
    191e:	4291      	cmp	r1, r2
    1920:	d1f7      	bne.n	1912 <stype_addr_r0_len_r1+0x8>
    1922:	bd00      	pop	{pc}

00001924 <Dictionary_377>:
    1924:	0000195e 	andeq	r1, r0, lr, asr r9
    1928:	68048000 	stmdavs	r4, {pc}
    192c:	002e7865 	eoreq	r7, lr, r5, ror #16

00001930 <Code_377>:
    1930:	b507      	push	{r0, r1, r2, lr}
    1932:	0031      	movs	r1, r6
    1934:	cf40      	ldmia	r7!, {r6}
    1936:	2020      	movs	r0, #32
    1938:	220f      	movs	r2, #15
    193a:	3804      	subs	r0, #4
    193c:	f847 6d04 	str.w	r6, [r7, #-4]!
    1940:	000e      	movs	r6, r1
    1942:	40c6      	lsrs	r6, r0
    1944:	4016      	ands	r6, r2
    1946:	2e09      	cmp	r6, #9
    1948:	d901      	bls.n	194e <Code_377+0x1e>
    194a:	3637      	adds	r6, #55	; 0x37
    194c:	e000      	b.n	1950 <Code_377+0x20>
    194e:	3630      	adds	r6, #48	; 0x30
    1950:	f7ff fd6f 	bl	1432 <Code_288>
    1954:	2800      	cmp	r0, #0
    1956:	d1f0      	bne.n	193a <Code_377+0xa>
    1958:	f7ff ff26 	bl	17a8 <Code_338>
    195c:	bd07      	pop	{r0, r1, r2, pc}

0000195e <Dictionary_380>:
    195e:	0000196e 	andeq	r1, r0, lr, ror #18
    1962:	68038000 	stmdavs	r3, {pc}
    1966:	b51f732e 	ldrlt	r7, [pc, #-814]	; 1640 <Code_307+0x42>

00001968 <Code_380>:
    1968:	b51f      	push	{r0, r1, r2, r3, r4, lr}
    196a:	4c4f      	ldr	r4, [pc, #316]	; (1aa8 <Code_393+0xa0>)
    196c:	e00e      	b.n	198c <Code_382+0x4>

0000196e <Dictionary_381>:
    196e:	0000197e 	andeq	r1, r0, lr, ror r9
    1972:	75038000 	strvc	r8, [r3]
    1976:	b51f732e 	ldrlt	r7, [pc, #-814]	; 1650 <Code_307+0x52>

00001978 <Code_381>:
    1978:	b51f      	push	{r0, r1, r2, r3, r4, lr}
    197a:	4c4c      	ldr	r4, [pc, #304]	; (1aac <Code_393+0xa4>)
    197c:	e006      	b.n	198c <Code_382+0x4>

0000197e <Dictionary_382>:
    197e:	000019fc 	strdeq	r1, [r0], -ip
    1982:	2e028000 	cdpcs	0, 0, cr8, cr2, cr0, {0}
    1986:	b51f0073 	ldrlt	r0, [pc, #-115]	; 191b <stype_addr_r0_len_r1+0x11>

00001988 <Code_382>:
    1988:	b51f      	push	{r0, r1, r2, r3, r4, lr}
    198a:	4c49      	ldr	r4, [pc, #292]	; (1ab0 <Code_393+0xa8>)
    198c:	4949      	ldr	r1, [pc, #292]	; (1ab4 <Code_393+0xac>)
    198e:	1bc9      	subs	r1, r1, r7
    1990:	0889      	lsrs	r1, r1, #2
    1992:	4a49      	ldr	r2, [pc, #292]	; (1ab8 <Code_393+0xb0>)
    1994:	6810      	ldr	r0, [r2, #0]
    1996:	b403      	push	{r0, r1}
    1998:	200a      	movs	r0, #10
    199a:	6010      	str	r0, [r2, #0]
    199c:	f7ff ff55 	bl	184a <dotgaensefuesschen>
    19a0:	61745308 	cmnvs	r4, r8, lsl #6
    19a4:	203a6b63 	eorscs	r6, sl, r3, ror #22
    19a8:	f847005b 			; <UNDEFINED> instruction: 0xf847005b
    19ac:	6d04      	ldr	r4, [r0, #80]	; 0x50
    19ae:	000e      	movs	r6, r1
    19b0:	f001 fc4d 	bl	324e <Code_861>
    19b4:	f7ff ff49 	bl	184a <dotgaensefuesschen>
    19b8:	00205d02 	eoreq	r5, r0, r2, lsl #26
    19bc:	bc03      	pop	{r0, r1}
    19be:	4a3e      	ldr	r2, [pc, #248]	; (1ab8 <Code_393+0xb0>)
    19c0:	6010      	str	r0, [r2, #0]
    19c2:	2900      	cmp	r1, #0
    19c4:	d00a      	beq.n	19dc <Code_382+0x54>
    19c6:	4a3d      	ldr	r2, [pc, #244]	; (1abc <Code_393+0xb4>)
    19c8:	6810      	ldr	r0, [r2, #0]
    19ca:	b406      	push	{r1, r2}
    19cc:	f847 6d04 	str.w	r6, [r7, #-4]!
    19d0:	0006      	movs	r6, r0
    19d2:	47a0      	blx	r4
    19d4:	bc06      	pop	{r1, r2}
    19d6:	3a04      	subs	r2, #4
    19d8:	3901      	subs	r1, #1
    19da:	d1f5      	bne.n	19c8 <Code_382+0x40>
    19dc:	f7ff ff35 	bl	184a <dotgaensefuesschen>
    19e0:	4f542006 	svcmi	0x00542006
    19e4:	00203a53 	eoreq	r3, r0, r3, asr sl
    19e8:	f847 6d04 	str.w	r6, [r7, #-4]!
    19ec:	0036      	movs	r6, r6
    19ee:	47a0      	blx	r4
    19f0:	f7ff ff2b 	bl	184a <dotgaensefuesschen>
    19f4:	3e2a2004 	cdpcc	0, 2, cr2, cr10, cr4, {0}
    19f8:	bd1f000a 	ldclt	0, cr0, [pc, #-40]	; 19d8 <Code_382+0x50>

000019fc <Dictionary_393>:
    19fc:	00001ac0 	andeq	r1, r0, r0, asr #21
    1a00:	77058000 	strvc	r8, [r5, -r0]
    1a04:	7364726f 	cmnvc	r4, #-268435450	; 0xf0000006

00001a08 <Code_393>:
    1a08:	b500      	push	{lr}
    1a0a:	f7ff ff1e 	bl	184a <dotgaensefuesschen>
    1a0e:	f0000a01 			; <UNDEFINED> instruction: 0xf0000a01
    1a12:	fead f7ff 	mcr2	7, 5, pc, cr13, cr15, {7}	; <UNPREDICTABLE>
    1a16:	ff19 4109 	vrhadd.u16	d4, d9, d9
    1a1a:	65726464 	ldrbvs	r6, [r2, #-1124]!	; 0x464
    1a1e:	203a7373 	eorscs	r7, sl, r3, ror r3
    1a22:	f847 6d04 	str.w	r6, [r7, #-4]!
    1a26:	f7ff ff83 	bl	1930 <Code_377>
    1a2a:	f7ff ff0e 	bl	184a <dotgaensefuesschen>
    1a2e:	6e694c06 	cdpvs	12, 6, cr4, cr9, cr6, {0}
    1a32:	00203a6b 	eoreq	r3, r0, fp, ror #20
    1a36:	f847 6d04 	str.w	r6, [r7, #-4]!
    1a3a:	6836      	ldr	r6, [r6, #0]
    1a3c:	f7ff ff78 	bl	1930 <Code_377>
    1a40:	f7ff ff03 	bl	184a <dotgaensefuesschen>
    1a44:	616c4607 	cmnvs	ip, r7, lsl #12
    1a48:	203a7367 	eorscs	r7, sl, r7, ror #6
    1a4c:	f847 6d04 	str.w	r6, [r7, #-4]!
    1a50:	88b6      	ldrh	r6, [r6, #4]
    1a52:	f7ff ff6d 	bl	1930 <Code_377>
    1a56:	f7ff fef8 	bl	184a <dotgaensefuesschen>
    1a5a:	646f4306 	strbtvs	r4, [pc], #-774	; 1a62 <Code_393+0x5a>
    1a5e:	00203a65 	eoreq	r3, r0, r5, ror #20
    1a62:	1db0      	adds	r0, r6, #6
    1a64:	f000 febc 	bl	27e0 <skipstring>
    1a68:	f847 6d04 	str.w	r6, [r7, #-4]!
    1a6c:	0006      	movs	r6, r0
    1a6e:	f7ff ff5f 	bl	1930 <Code_377>
    1a72:	f7ff feea 	bl	184a <dotgaensefuesschen>
    1a76:	6d614e06 	stclvs	14, cr4, [r1, #-24]!	; 0xffffffe8
    1a7a:	00203a65 	eoreq	r3, r0, r5, ror #20
    1a7e:	f847 6d04 	str.w	r6, [r7, #-4]!
    1a82:	3606      	adds	r6, #6
    1a84:	f7ff ff29 	bl	18da <Code_369>
    1a88:	f7ff fedf 	bl	184a <dotgaensefuesschen>
    1a8c:	f0000a01 			; <UNDEFINED> instruction: 0xf0000a01
    1a90:	fe85 0030 	mcr2	0, 4, r0, cr5, cr0, {1}
    1a94:	cf40      	ldmia	r7!, {r6}
    1a96:	d0bd      	beq.n	1a14 <Code_393+0xc>
    1a98:	cf40      	ldmia	r7!, {r6}
    1a9a:	bd00      	pop	{pc}
    1a9c:	0000184a 	andeq	r1, r0, sl, asr #16
    1aa0:	00001874 	andeq	r1, r0, r4, ror r8
    1aa4:	0000189a 	muleq	r0, sl, r8
    1aa8:	00001931 	andeq	r1, r0, r1, lsr r9
    1aac:	0000323f 	andeq	r3, r0, pc, lsr r2
    1ab0:	0000324f 	andeq	r3, r0, pc, asr #4
    1ab4:	20000230 	andcs	r0, r0, r0, lsr r2
    1ab8:	20003ffc 	strdcs	r3, [r0], -ip
    1abc:	2000022c 	andcs	r0, r0, ip, lsr #4

00001ac0 <Dictionary_413>:
    1ac0:	00001c24 	andeq	r1, r0, r4, lsr #24
    1ac4:	310d8000 	mrscc	r8, (UNDEF: 13)
    1ac8:	74696232 	strbtvc	r6, [r9], #-562	; 0x232
    1acc:	6f636e65 	svcvs	0x00636e65
    1ad0:	676e6964 	strbvs	r6, [lr, -r4, ror #18]!

00001ad4 <Code_413>:
    1ad4:	b50f      	push	{r0, r1, r2, r3, lr}
    1ad6:	2eff      	cmp	r6, #255	; 0xff
    1ad8:	d804      	bhi.n	1ae4 <Code_413+0x10>
    1ada:	f847 6d04 	str.w	r6, [r7, #-4]!
    1ade:	f05f 36ff 	movs.w	r6, #4294967295
    1ae2:	bd0f      	pop	{r0, r1, r2, r3, pc}
    1ae4:	f016 10ff 	ands.w	r0, r6, #16711935	; 0xff00ff
    1ae8:	42b0      	cmp	r0, r6
    1aea:	d10e      	bne.n	1b0a <Code_413+0x36>
    1aec:	f64f 71ff 	movw	r1, #65535	; 0xffff
    1af0:	4008      	ands	r0, r1
    1af2:	0c31      	lsrs	r1, r6, #16
    1af4:	4281      	cmp	r1, r0
    1af6:	d108      	bne.n	1b0a <Code_413+0x36>
    1af8:	f016 06ff 	ands.w	r6, r6, #255	; 0xff
    1afc:	f456 5680 	orrs.w	r6, r6, #4096	; 0x1000
    1b00:	f847 6d04 	str.w	r6, [r7, #-4]!
    1b04:	f05f 36ff 	movs.w	r6, #4294967295
    1b08:	bd0f      	pop	{r0, r1, r2, r3, pc}
    1b0a:	f016 20ff 	ands.w	r0, r6, #4278255360	; 0xff00ff00
    1b0e:	42b0      	cmp	r0, r6
    1b10:	d10f      	bne.n	1b32 <Code_413+0x5e>
    1b12:	f64f 71ff 	movw	r1, #65535	; 0xffff
    1b16:	4008      	ands	r0, r1
    1b18:	0c31      	lsrs	r1, r6, #16
    1b1a:	4281      	cmp	r1, r0
    1b1c:	d109      	bne.n	1b32 <Code_413+0x5e>
    1b1e:	0a36      	lsrs	r6, r6, #8
    1b20:	f016 06ff 	ands.w	r6, r6, #255	; 0xff
    1b24:	f456 5600 	orrs.w	r6, r6, #8192	; 0x2000
    1b28:	f847 6d04 	str.w	r6, [r7, #-4]!
    1b2c:	f05f 36ff 	movs.w	r6, #4294967295
    1b30:	bd0f      	pop	{r0, r1, r2, r3, pc}
    1b32:	22ff      	movs	r2, #255	; 0xff
    1b34:	0031      	movs	r1, r6
    1b36:	4011      	ands	r1, r2
    1b38:	0a30      	lsrs	r0, r6, #8
    1b3a:	4010      	ands	r0, r2
    1b3c:	4288      	cmp	r0, r1
    1b3e:	d110      	bne.n	1b62 <Code_413+0x8e>
    1b40:	0c30      	lsrs	r0, r6, #16
    1b42:	4010      	ands	r0, r2
    1b44:	4288      	cmp	r0, r1
    1b46:	d10c      	bne.n	1b62 <Code_413+0x8e>
    1b48:	0e30      	lsrs	r0, r6, #24
    1b4a:	4010      	ands	r0, r2
    1b4c:	4288      	cmp	r0, r1
    1b4e:	d108      	bne.n	1b62 <Code_413+0x8e>
    1b50:	f016 06ff 	ands.w	r6, r6, #255	; 0xff
    1b54:	f456 5640 	orrs.w	r6, r6, #12288	; 0x3000
    1b58:	f847 6d04 	str.w	r6, [r7, #-4]!
    1b5c:	f05f 36ff 	movs.w	r6, #4294967295
    1b60:	bd0f      	pop	{r0, r1, r2, r3, pc}
    1b62:	0030      	movs	r0, r6
    1b64:	2100      	movs	r1, #0
    1b66:	3101      	adds	r1, #1
    1b68:	1800      	adds	r0, r0, r0
    1b6a:	f150 0000 	adcs.w	r0, r0, #0
    1b6e:	f07f 027f 	mvns.w	r2, #127	; 0x7f
    1b72:	4002      	ands	r2, r0
    1b74:	2a80      	cmp	r2, #128	; 0x80
    1b76:	d005      	beq.n	1b84 <Code_413+0xb0>
    1b78:	291f      	cmp	r1, #31
    1b7a:	d3f4      	bcc.n	1b66 <Code_413+0x92>
    1b7c:	f847 6d04 	str.w	r6, [r7, #-4]!
    1b80:	2600      	movs	r6, #0
    1b82:	bd0f      	pop	{r0, r1, r2, r3, pc}
    1b84:	2908      	cmp	r1, #8
    1b86:	d3f9      	bcc.n	1b7c <Code_413+0xa8>
    1b88:	0006      	movs	r6, r0
    1b8a:	f036 0680 	bics.w	r6, r6, #128	; 0x80
    1b8e:	f011 0001 	ands.w	r0, r1, #1
    1b92:	01c0      	lsls	r0, r0, #7
    1b94:	4306      	orrs	r6, r0
    1b96:	f011 000e 	ands.w	r0, r1, #14
    1b9a:	02c0      	lsls	r0, r0, #11
    1b9c:	4306      	orrs	r6, r0
    1b9e:	f011 0010 	ands.w	r0, r1, #16
    1ba2:	0580      	lsls	r0, r0, #22
    1ba4:	4306      	orrs	r6, r0
    1ba6:	f847 6d04 	str.w	r6, [r7, #-4]!
    1baa:	f05f 36ff 	movs.w	r6, #4294967295
    1bae:	bd0f      	pop	{r0, r1, r2, r3, pc}

00001bb0 <movwkomma>:
    1bb0:	f847 6d04 	str.w	r6, [r7, #-4]!
    1bb4:	f8df 6640 	ldr.w	r6, [pc, #1600]	; 21f8 <setflags_ram+0x1e>
    1bb8:	f45f 4170 	movs.w	r1, #61440	; 0xf000
    1bbc:	ea10 0201 	ands.w	r2, r0, r1
    1bc0:	0112      	lsls	r2, r2, #4
    1bc2:	4316      	orrs	r6, r2
    1bc4:	f45f 6100 	movs.w	r1, #2048	; 0x800
    1bc8:	ea10 0201 	ands.w	r2, r0, r1
    1bcc:	03d2      	lsls	r2, r2, #15
    1bce:	4316      	orrs	r6, r2
    1bd0:	f45f 61e0 	movs.w	r1, #1792	; 0x700
    1bd4:	ea10 0201 	ands.w	r2, r0, r1
    1bd8:	0112      	lsls	r2, r2, #4
    1bda:	4316      	orrs	r6, r2
    1bdc:	21ff      	movs	r1, #255	; 0xff
    1bde:	ea10 0201 	ands.w	r2, r0, r1
    1be2:	4316      	orrs	r6, r2
    1be4:	431e      	orrs	r6, r3
    1be6:	e377      	b.n	22d8 <Code_548>

00001be8 <movtkomma>:
    1be8:	f847 6d04 	str.w	r6, [r7, #-4]!
    1bec:	f8df 660c 	ldr.w	r6, [pc, #1548]	; 21fc <setflags_ram+0x22>
    1bf0:	f05f 4170 	movs.w	r1, #4026531840	; 0xf0000000
    1bf4:	ea10 0201 	ands.w	r2, r0, r1
    1bf8:	0b12      	lsrs	r2, r2, #12
    1bfa:	4316      	orrs	r6, r2
    1bfc:	f05f 6100 	movs.w	r1, #134217728	; 0x8000000
    1c00:	ea10 0201 	ands.w	r2, r0, r1
    1c04:	0852      	lsrs	r2, r2, #1
    1c06:	4316      	orrs	r6, r2
    1c08:	f05f 61e0 	movs.w	r1, #117440512	; 0x7000000
    1c0c:	ea10 0201 	ands.w	r2, r0, r1
    1c10:	0b12      	lsrs	r2, r2, #12
    1c12:	4316      	orrs	r6, r2
    1c14:	f45f 017f 	movs.w	r1, #16711680	; 0xff0000
    1c18:	ea10 0201 	ands.w	r2, r0, r1
    1c1c:	0c12      	lsrs	r2, r2, #16
    1c1e:	4316      	orrs	r6, r2
    1c20:	431e      	orrs	r6, r3
    1c22:	e359      	b.n	22d8 <Code_548>

00001c24 <Dictionary_422>:
    1c24:	00001c8a 	andeq	r1, r0, sl, lsl #25
    1c28:	72108000 	andsvc	r8, r0, #0
    1c2c:	73696765 	cmnvc	r9, #26476544	; 0x1940000
    1c30:	6c726574 	cfldr64vs	mvdx6, [r2], #-464	; 0xfffffe30
    1c34:	72657469 	rsbvc	r7, r5, #1761607680	; 0x69000000
    1c38:	002c6c61 	eoreq	r6, ip, r1, ror #24

00001c3c <Code_422>:
    1c3c:	b50f      	push	{r0, r1, r2, r3, lr}
    1c3e:	0033      	movs	r3, r6
    1c40:	cf40      	ldmia	r7!, {r6}
    1c42:	021b      	lsls	r3, r3, #8
    1c44:	2eff      	cmp	r6, #255	; 0xff
    1c46:	d805      	bhi.n	1c54 <Code_422+0x18>
    1c48:	f456 5600 	orrs.w	r6, r6, #8192	; 0x2000
    1c4c:	431e      	orrs	r6, r3
    1c4e:	f000 fb1b 	bl	2288 <Code_539>
    1c52:	bd0f      	pop	{r0, r1, r2, r3, pc}
    1c54:	f7ff ff3e 	bl	1ad4 <Code_413>
    1c58:	2e00      	cmp	r6, #0
    1c5a:	cf40      	ldmia	r7!, {r6}
    1c5c:	d006      	beq.n	1c6c <Code_422+0x30>
    1c5e:	f8df 05a0 	ldr.w	r0, [pc, #1440]	; 2200 <setflags_ram+0x26>
    1c62:	4306      	orrs	r6, r0
    1c64:	431e      	orrs	r6, r3
    1c66:	f000 fb37 	bl	22d8 <Code_548>
    1c6a:	bd0f      	pop	{r0, r1, r2, r3, pc}
    1c6c:	43f6      	mvns	r6, r6
    1c6e:	f7ff ff31 	bl	1ad4 <Code_413>
    1c72:	2e00      	cmp	r6, #0
    1c74:	cf40      	ldmia	r7!, {r6}
    1c76:	d006      	beq.n	1c86 <Code_422+0x4a>
    1c78:	f8df 0588 	ldr.w	r0, [pc, #1416]	; 2204 <setflags_ram+0x2a>
    1c7c:	4306      	orrs	r6, r0
    1c7e:	431e      	orrs	r6, r3
    1c80:	f000 fb2a 	bl	22d8 <Code_548>
    1c84:	bd0f      	pop	{r0, r1, r2, r3, pc}
    1c86:	43f6      	mvns	r6, r6
    1c88:	e00b      	b.n	1ca2 <movwmovt_register_r3>

00001c8a <Dictionary_426>:
    1c8a:	00001cea 	andeq	r1, r0, sl, ror #25
    1c8e:	6d098000 	stcvs	0, cr8, [r9]
    1c92:	6d77766f 	ldclvs	6, cr7, [r7, #-444]!	; 0xfffffe44
    1c96:	2c74766f 	ldclcs	6, cr7, [r4], #-444	; 0xfffffe44

00001c9a <Code_426>:
    1c9a:	b50f      	push	{r0, r1, r2, r3, lr}
    1c9c:	0033      	movs	r3, r6
    1c9e:	cf40      	ldmia	r7!, {r6}
    1ca0:	021b      	lsls	r3, r3, #8

00001ca2 <movwmovt_register_r3>:
    1ca2:	0030      	movs	r0, r6
    1ca4:	cf40      	ldmia	r7!, {r6}
    1ca6:	f7ff ff83 	bl	1bb0 <movwkomma>
    1caa:	f64f 71ff 	movw	r1, #65535	; 0xffff
    1cae:	ea10 4001 	ands.w	r0, r0, r1, lsl #16
    1cb2:	d001      	beq.n	1cb8 <movwmovt_register_r3+0x16>
    1cb4:	f7ff ff98 	bl	1be8 <movtkomma>
    1cb8:	bd0f      	pop	{r0, r1, r2, r3, pc}

00001cba <callkommalang>:
    1cba:	b50f      	push	{r0, r1, r2, r3, lr}
    1cbc:	3601      	adds	r6, #1
    1cbe:	0030      	movs	r0, r6
    1cc0:	cf40      	ldmia	r7!, {r6}
    1cc2:	2300      	movs	r3, #0
    1cc4:	f7ff ff74 	bl	1bb0 <movwkomma>
    1cc8:	f7ff ff8e 	bl	1be8 <movtkomma>
    1ccc:	e006      	b.n	1cdc <callkommakurz_intern>

00001cce <callkommakurz>:
    1cce:	b50f      	push	{r0, r1, r2, r3, lr}
    1cd0:	3601      	adds	r6, #1
    1cd2:	f847 6d04 	str.w	r6, [r7, #-4]!
    1cd6:	2600      	movs	r6, #0
    1cd8:	f7ff ffb0 	bl	1c3c <Code_422>

00001cdc <callkommakurz_intern>:
    1cdc:	f847 6d04 	str.w	r6, [r7, #-4]!
    1ce0:	f244 7680 	movw	r6, #18304	; 0x4780
    1ce4:	f000 fad0 	bl	2288 <Code_539>
    1ce8:	bd0f      	pop	{r0, r1, r2, r3, pc}

00001cea <Dictionary_434>:
    1cea:	00001d50 	andeq	r1, r0, r0, asr sp
    1cee:	63058000 	movwvs	r8, #20480	; 0x5000
    1cf2:	2c6c6c61 	stclcs	12, cr6, [ip], #-388	; 0xfffffe7c

00001cf6 <Code_434>:
    1cf6:	b50f      	push	{r0, r1, r2, r3, lr}
    1cf8:	0033      	movs	r3, r6
    1cfa:	f000 fe09 	bl	2910 <Code_655>
    1cfe:	0030      	movs	r0, r6
    1d00:	cf40      	ldmia	r7!, {r6}
    1d02:	1a1b      	subs	r3, r3, r0
    1d04:	3b04      	subs	r3, #4
    1d06:	f8df 1500 	ldr.w	r1, [pc, #1280]	; 2208 <setflags_ram+0x2e>
    1d0a:	4019      	ands	r1, r3
    1d0c:	2900      	cmp	r1, #0
    1d0e:	d006      	beq.n	1d1e <Code_434+0x28>
    1d10:	f8df 24f8 	ldr.w	r2, [pc, #1272]	; 220c <setflags_ram+0x32>
    1d14:	4291      	cmp	r1, r2
    1d16:	d002      	beq.n	1d1e <Code_434+0x28>
    1d18:	e8bd 400f 	ldmia.w	sp!, {r0, r1, r2, r3, lr}
    1d1c:	e7d7      	b.n	1cce <callkommakurz>
    1d1e:	cf40      	ldmia	r7!, {r6}
    1d20:	085b      	lsrs	r3, r3, #1
    1d22:	f8df 04ec 	ldr.w	r0, [pc, #1260]	; 2210 <setflags_ram+0x36>
    1d26:	f240 71ff 	movw	r1, #2047	; 0x7ff
    1d2a:	4019      	ands	r1, r3
    1d2c:	4308      	orrs	r0, r1
    1d2e:	0adb      	lsrs	r3, r3, #11
    1d30:	f240 31ff 	movw	r1, #1023	; 0x3ff
    1d34:	4019      	ands	r1, r3
    1d36:	0409      	lsls	r1, r1, #16
    1d38:	4308      	orrs	r0, r1
    1d3a:	0a9b      	lsrs	r3, r3, #10
    1d3c:	f013 0101 	ands.w	r1, r3, #1
    1d40:	0689      	lsls	r1, r1, #26
    1d42:	4308      	orrs	r0, r1
    1d44:	f847 6d04 	str.w	r6, [r7, #-4]!
    1d48:	0006      	movs	r6, r0
    1d4a:	f000 fac5 	bl	22d8 <Code_548>
    1d4e:	bd0f      	pop	{r0, r1, r2, r3, pc}

00001d50 <Dictionary_439>:
    1d50:	00001d86 	andeq	r1, r0, r6, lsl #27
    1d54:	6c088000 	stcvs	0, cr8, [r8], {0}
    1d58:	72657469 	rsbvc	r7, r5, #1761607680	; 0x69000000
    1d5c:	002c6c61 	eoreq	r6, ip, r1, ror #24

00001d60 <Code_439>:
    1d60:	b508      	push	{r3, lr}
    1d62:	f847 6d04 	str.w	r6, [r7, #-4]!
    1d66:	f64f 0647 	movw	r6, #63559	; 0xf847
    1d6a:	f000 fa8d 	bl	2288 <Code_539>
    1d6e:	f847 6d04 	str.w	r6, [r7, #-4]!
    1d72:	f646 5604 	movw	r6, #27908	; 0x6d04
    1d76:	f000 fa87 	bl	2288 <Code_539>
    1d7a:	f847 6d04 	str.w	r6, [r7, #-4]!
    1d7e:	2606      	movs	r6, #6
    1d80:	f7ff ff5c 	bl	1c3c <Code_422>
    1d84:	bd08      	pop	{r3, pc}

00001d86 <Dictionary_446>:
    1d86:	00001daa 	andeq	r1, r0, sl, lsr #27
    1d8a:	63068000 	movwvs	r8, #24576	; 0x6000
    1d8e:	74616572 	strbtvc	r6, [r1], #-1394	; 0x572
    1d92:	b5000065 	strlt	r0, [r0, #-101]	; 0x65

00001d94 <Code_446>:
    1d94:	b500      	push	{lr}
    1d96:	f000 f833 	bl	1e00 <Code_451>
    1d9a:	f641 50c7 	movw	r0, #7623	; 0x1dc7
    1d9e:	4780      	blx	r0
    1da0:	f847 6d04 	str.w	r6, [r7, #-4]!
    1da4:	f1be 0601 	subs.w	r6, lr, #1
    1da8:	bd00      	pop	{pc}

00001daa <Dictionary_448>:
    1daa:	00001df2 	strdeq	r1, [r0], -r2
    1dae:	64058020 	strvs	r8, [r5], #-32
    1db2:	3e73656f 	cdpcc	5, 7, cr6, cr3, cr15, {3}

00001db6 <Code_448>:
    1db6:	f641 50c7 	movw	r0, #7623	; 0x1dc7
    1dba:	4780      	blx	r0
    1dbc:	f847 6d04 	str.w	r6, [r7, #-4]!
    1dc0:	f1be 0601 	subs.w	r6, lr, #1
    1dc4:	4770      	bx	lr

00001dc6 <dodoes>:
    1dc6:	f847 6d04 	str.w	r6, [r7, #-4]!
    1dca:	f1be 0601 	subs.w	r6, lr, #1
    1dce:	f8df 2444 	ldr.w	r2, [pc, #1092]	; 2214 <setflags_ram+0x3a>
    1dd2:	6813      	ldr	r3, [r2, #0]
    1dd4:	f8df 1440 	ldr.w	r1, [pc, #1088]	; 2218 <setflags_ram+0x3e>
    1dd8:	6809      	ldr	r1, [r1, #0]
    1dda:	2002      	movs	r0, #2
    1ddc:	4008      	ands	r0, r1
    1dde:	d000      	beq.n	1de2 <dodoes+0x1c>
    1de0:	3102      	adds	r1, #2
    1de2:	3102      	adds	r1, #2
    1de4:	6011      	str	r1, [r2, #0]
    1de6:	f7ff ff68 	bl	1cba <callkommalang>
    1dea:	6013      	str	r3, [r2, #0]
    1dec:	f000 f9b7 	bl	215e <Code_527>
    1df0:	bd00      	pop	{pc}

00001df2 <Dictionary_451>:
    1df2:	00001e34 	andeq	r1, r0, r4, lsr lr
    1df6:	3c078000 	stccc	0, cr8, [r7], {0}
    1dfa:	6c697562 	cfstr64vs	mvdx7, [r9], #-392	; 0xfffffe78
    1dfe:	b5007364 	strlt	r7, [r0, #-868]	; 0x364

00001e00 <Code_451>:
    1e00:	b500      	push	{lr}
    1e02:	f000 fb43 	bl	248c <Code_570>
    1e06:	f000 fd83 	bl	2910 <Code_655>
    1e0a:	2002      	movs	r0, #2
    1e0c:	4006      	ands	r6, r0
    1e0e:	cf40      	ldmia	r7!, {r6}
    1e10:	d004      	beq.n	1e1c <Code_451+0x1c>
    1e12:	f847 6d04 	str.w	r6, [r7, #-4]!
    1e16:	2636      	movs	r6, #54	; 0x36
    1e18:	f000 fa36 	bl	2288 <Code_539>
    1e1c:	f847 6d04 	str.w	r6, [r7, #-4]!
    1e20:	f24b 5600 	movw	r6, #46336	; 0xb500
    1e24:	f000 fa30 	bl	2288 <Code_539>
    1e28:	f847 6d04 	str.w	r6, [r7, #-4]!
    1e2c:	260a      	movs	r6, #10
    1e2e:	f000 fa96 	bl	235e <Code_559>
    1e32:	bd00      	pop	{pc}

00001e34 <Dictionary_459>:
    1e34:	00001e40 	andeq	r1, r0, r0, asr #28
    1e38:	5b038050 	blpl	e1f80 <BIT19+0x61f80>
    1e3c:	e0035d27 	and	r5, r3, r7, lsr #26

00001e3e <Code_459>:
    1e3e:	e003      	b.n	1e48 <Code_460>

00001e40 <Dictionary_460>:
    1e40:	00001e58 	andeq	r1, r0, r8, asr lr
    1e44:	27018000 	strcs	r8, [r1, -r0]

00001e48 <Code_460>:
    1e48:	b500      	push	{lr}
    1e4a:	f001 f81b 	bl	2e84 <Code_793>
    1e4e:	f000 fd05 	bl	285c <find_not_found>
    1e52:	0030      	movs	r0, r6
    1e54:	cf40      	ldmia	r7!, {r6}
    1e56:	bd00      	pop	{pc}

00001e58 <Dictionary_462>:
    1e58:	00001e96 	muleq	r0, r6, lr
    1e5c:	70088030 	andvc	r8, r8, r0, lsr r0
    1e60:	7074736f 	rsbsvc	r7, r4, pc, ror #6
    1e64:	00656e6f 	rsbeq	r6, r5, pc, ror #28

00001e68 <Code_462>:
    1e68:	b500      	push	{lr}
    1e6a:	f7ff ffed 	bl	1e48 <Code_460>
    1e6e:	2110      	movs	r1, #16
    1e70:	4001      	ands	r1, r0
    1e72:	d10d      	bne.n	1e90 <Code_462+0x28>
    1e74:	2120      	movs	r1, #32
    1e76:	4001      	ands	r1, r0
    1e78:	d005      	beq.n	1e86 <Code_462+0x1e>
    1e7a:	f7ff ff71 	bl	1d60 <Code_439>
    1e7e:	f847 6d04 	str.w	r6, [r7, #-4]!
    1e82:	4ee6      	ldr	r6, [pc, #920]	; (221c <setflags_ram+0x42>)
    1e84:	e004      	b.n	1e90 <Code_462+0x28>
    1e86:	f7ff ff6b 	bl	1d60 <Code_439>
    1e8a:	f847 6d04 	str.w	r6, [r7, #-4]!
    1e8e:	4ee4      	ldr	r6, [pc, #912]	; (2220 <setflags_ram+0x46>)
    1e90:	f7ff ff31 	bl	1cf6 <Code_434>
    1e94:	bd00      	pop	{pc}

00001e96 <Dictionary_465>:
    1e96:	00001eec 	andeq	r1, r0, ip, ror #29
    1e9a:	69078000 	stmdbvs	r7, {pc}
    1e9e:	6e696c6e 	cdpvs	12, 6, cr6, cr9, cr14, {3}
    1ea2:	b5002c65 	strlt	r2, [r0, #-3173]	; 0xc65

00001ea4 <Code_465>:
    1ea4:	b500      	push	{lr}
    1ea6:	f24b 5100 	movw	r1, #46336	; 0xb500
    1eaa:	f64b 5200 	movw	r2, #48384	; 0xbd00
    1eae:	f244 7370 	movw	r3, #18288	; 0x4770
    1eb2:	8830      	ldrh	r0, [r6, #0]
    1eb4:	4288      	cmp	r0, r1
    1eb6:	d008      	beq.n	1eca <Code_465+0x26>
    1eb8:	4290      	cmp	r0, r2
    1eba:	d008      	beq.n	1ece <Code_465+0x2a>
    1ebc:	4298      	cmp	r0, r3
    1ebe:	d006      	beq.n	1ece <Code_465+0x2a>
    1ec0:	f847 6d04 	str.w	r6, [r7, #-4]!
    1ec4:	0006      	movs	r6, r0
    1ec6:	f000 f9df 	bl	2288 <Code_539>
    1eca:	3602      	adds	r6, #2
    1ecc:	e7f1      	b.n	1eb2 <Code_465+0xe>
    1ece:	cf40      	ldmia	r7!, {r6}
    1ed0:	bd00      	pop	{pc}

00001ed2 <suchedefinitionsende>:
    1ed2:	b40e      	push	{r1, r2, r3}
    1ed4:	f64b 5200 	movw	r2, #48384	; 0xbd00
    1ed8:	f244 7370 	movw	r3, #18288	; 0x4770
    1edc:	8801      	ldrh	r1, [r0, #0]
    1ede:	3002      	adds	r0, #2
    1ee0:	4291      	cmp	r1, r2
    1ee2:	d001      	beq.n	1ee8 <suchedefinitionsende+0x16>
    1ee4:	4299      	cmp	r1, r3
    1ee6:	d1f9      	bne.n	1edc <suchedefinitionsende+0xa>
    1ee8:	bc0e      	pop	{r1, r2, r3}
    1eea:	4770      	bx	lr

00001eec <Dictionary_469>:
    1eec:	00001f02 	andeq	r1, r0, r2, lsl #30
    1ef0:	72048000 	andvc	r8, r4, #0
    1ef4:	002c7465 	eoreq	r7, ip, r5, ror #8

00001ef8 <Code_469>:
    1ef8:	f847 6d04 	str.w	r6, [r7, #-4]!
    1efc:	f64b 5600 	movw	r6, #48384	; 0xbd00
    1f00:	e1c2      	b.n	2288 <Code_539>

00001f02 <Dictionary_472>:
    1f02:	00001f10 	andeq	r1, r0, r0, lsl pc
    1f06:	65048030 	strvs	r8, [r4, #-48]	; 0x30
    1f0a:	00746978 	rsbseq	r6, r4, r8, ror r9

00001f0e <Code_472>:
    1f0e:	e7f3      	b.n	1ef8 <Code_469>

00001f10 <Dictionary_473>:
    1f10:	00001f28 	andeq	r1, r0, r8, lsr #30
    1f14:	72078030 	andvc	r8, r7, #48	; 0x30
    1f18:	72756365 	rsbsvc	r6, r5, #-1811939327	; 0x94000001
    1f1c:	f8476573 			; <UNDEFINED> instruction: 0xf8476573

00001f1e <Code_473>:
    1f1e:	f847 6d04 	str.w	r6, [r7, #-4]!
    1f22:	4ebd      	ldr	r6, [pc, #756]	; (2218 <setflags_ram+0x3e>)
    1f24:	6836      	ldr	r6, [r6, #0]
    1f26:	e6e6      	b.n	1cf6 <Code_434>

00001f28 <Dictionary_475>:
    1f28:	00001f40 	andeq	r1, r0, r0, asr #30
    1f2c:	73058081 	movwvc	r8, #20609	; 0x5081
    1f30:	65746174 	ldrbvs	r6, [r4, #-372]!	; 0x174

00001f34 <Code_475>:
    1f34:	f847 6d04 	str.w	r6, [r7, #-4]!
    1f38:	4eba      	ldr	r6, [pc, #744]	; (2224 <setflags_ram+0x4a>)
    1f3a:	4770      	bx	lr
    1f3c:	00000000 	andeq	r0, r0, r0

00001f40 <Dictionary_478>:
    1f40:	00001f52 	andeq	r1, r0, r2, asr pc
    1f44:	5d018000 	stcpl	0, cr8, [r1]

00001f48 <Code_478>:
    1f48:	48b6      	ldr	r0, [pc, #728]	; (2224 <setflags_ram+0x4a>)
    1f4a:	2100      	movs	r1, #0
    1f4c:	43c9      	mvns	r1, r1
    1f4e:	6001      	str	r1, [r0, #0]
    1f50:	4770      	bx	lr

00001f52 <Dictionary_479>:
    1f52:	00001f62 	andeq	r1, r0, r2, ror #30
    1f56:	5b018010 	blpl	61f9e <BIT18+0x21f9e>

00001f5a <Code_479>:
    1f5a:	48b2      	ldr	r0, [pc, #712]	; (2224 <setflags_ram+0x4a>)
    1f5c:	2100      	movs	r1, #0
    1f5e:	6001      	str	r1, [r0, #0]
    1f60:	4770      	bx	lr

00001f62 <Dictionary_480>:
    1f62:	00001f8a 	andeq	r1, r0, sl, lsl #31
    1f66:	3a018000 	bcc	61f6e <BIT18+0x21f6e>

00001f6a <Code_480>:
    1f6a:	b500      	push	{lr}
    1f6c:	48ae      	ldr	r0, [pc, #696]	; (2228 <setflags_ram+0x4e>)
    1f6e:	6007      	str	r7, [r0, #0]
    1f70:	f000 fa8c 	bl	248c <Code_570>
    1f74:	f847 6d04 	str.w	r6, [r7, #-4]!
    1f78:	f24b 5600 	movw	r6, #46336	; 0xb500
    1f7c:	f000 f984 	bl	2288 <Code_539>
    1f80:	48a8      	ldr	r0, [pc, #672]	; (2224 <setflags_ram+0x4a>)
    1f82:	2100      	movs	r1, #0
    1f84:	43c9      	mvns	r1, r1
    1f86:	6001      	str	r1, [r0, #0]
    1f88:	bd00      	pop	{pc}

00001f8a <Dictionary_483>:
    1f8a:	00001fd2 	ldrdeq	r1, [r0], -r2
    1f8e:	3b018030 	blcc	62056 <BIT18+0x22056>

00001f92 <Code_483>:
    1f92:	b500      	push	{lr}
    1f94:	48a4      	ldr	r0, [pc, #656]	; (2228 <setflags_ram+0x4e>)
    1f96:	6801      	ldr	r1, [r0, #0]
    1f98:	42b9      	cmp	r1, r7
    1f9a:	d00e      	beq.n	1fba <Code_483+0x28>
    1f9c:	f7ff fc55 	bl	184a <dotgaensefuesschen>
    1fa0:	74532015 	ldrbvc	r2, [r3], #-21
    1fa4:	206b6361 	rsbcs	r6, fp, r1, ror #6
    1fa8:	20746f6e 	rsbscs	r6, r4, lr, ror #30
    1fac:	616c6162 	cmnvs	ip, r2, ror #2
    1fb0:	6465636e 	strbtvs	r6, [r5], #-878	; 0x36e
    1fb4:	f0010a2e 			; <UNDEFINED> instruction: 0xf0010a2e
    1fb8:	baed      	revsh	r5, r5
    1fba:	f847 6d04 	str.w	r6, [r7, #-4]!
    1fbe:	f64b 5600 	movw	r6, #48384	; 0xbd00
    1fc2:	f000 f961 	bl	2288 <Code_539>
    1fc6:	f000 f8ca 	bl	215e <Code_527>
    1fca:	4896      	ldr	r0, [pc, #600]	; (2224 <setflags_ram+0x4a>)
    1fcc:	2100      	movs	r1, #0
    1fce:	6001      	str	r1, [r0, #0]
    1fd0:	bd00      	pop	{pc}

00001fd2 <Dictionary_487>:
    1fd2:	00001fe6 	andeq	r1, r0, r6, ror #31
    1fd6:	65078000 	strvs	r8, [r7]
    1fda:	75636578 	strbvc	r6, [r3, #-1400]!	; 0x578
    1fde:	00306574 	eorseq	r6, r0, r4, ror r5

00001fe0 <Code_487>:
    1fe0:	0030      	movs	r0, r6
    1fe2:	cf40      	ldmia	r7!, {r6}
    1fe4:	4687      	mov	pc, r0

00001fe6 <Dictionary_489>:
    1fe6:	00001ffe 	strdeq	r1, [r0], -lr
    1fea:	69098010 	stmdbvs	r9, {r4, pc}
    1fee:	64656d6d 	strbtvs	r6, [r5], #-3437	; 0xd6d
    1ff2:	65746169 	ldrbvs	r6, [r4, #-361]!	; 0x169

00001ff6 <Code_489>:
    1ff6:	f847 6d04 	str.w	r6, [r7, #-4]!
    1ffa:	2610      	movs	r6, #16
    1ffc:	e0e1      	b.n	21c2 <Code_533>

00001ffe <Dictionary_492>:
    1ffe:	00002014 	andeq	r2, r0, r4, lsl r0
    2002:	69068050 	stmdbvs	r6, {r4, r6, pc}
    2006:	6e696c6e 	cdpvs	12, 6, cr6, cr9, cr14, {3}
    200a:	f8470065 			; <UNDEFINED> instruction: 0xf8470065

0000200c <Code_492>:
    200c:	f847 6d04 	str.w	r6, [r7, #-4]!
    2010:	2620      	movs	r6, #32
    2012:	e0d6      	b.n	21c2 <Code_533>

00002014 <Dictionary_495>:
    2014:	0000202e 	andeq	r2, r0, lr, lsr #32
    2018:	630b8010 	movwvs	r8, #45072	; 0xb010
    201c:	69706d6f 	ldmdbvs	r0!, {r0, r1, r2, r3, r5, r6, r8, sl, fp, sp, lr}^
    2020:	6e6f656c 	cdpvs	5, 6, cr6, cr15, cr12, {3}
    2024:	f847796c 			; <UNDEFINED> instruction: 0xf847796c

00002026 <Code_495>:
    2026:	f847 6d04 	str.w	r6, [r7, #-4]!
    202a:	2630      	movs	r6, #48	; 0x30
    202c:	e0c9      	b.n	21c2 <Code_533>

0000202e <Dictionary_498>:
    202e:	00002048 	andeq	r2, r0, r8, asr #32
    2032:	300a8050 	andcc	r8, sl, r0, asr r0
    2036:	6c6f662d 	stclvs	6, cr6, [pc], #-180	; 1f88 <Code_480+0x1e>
    203a:	6c626164 	stfvse	f6, [r2], #-400	; 0xfffffe70
    203e:	f8470065 			; <UNDEFINED> instruction: 0xf8470065

00002040 <Code_498>:
    2040:	f847 6d04 	str.w	r6, [r7, #-4]!
    2044:	2640      	movs	r6, #64	; 0x40
    2046:	e0bc      	b.n	21c2 <Code_533>

00002048 <Dictionary_501>:
    2048:	00002062 	andeq	r2, r0, r2, rrx
    204c:	310a8050 	qaddcc	r8, r0, sl
    2050:	6c6f662d 	stclvs	6, cr6, [pc], #-180	; 1fa4 <Code_483+0x12>
    2054:	6c626164 	stfvse	f6, [r2], #-400	; 0xfffffe70
    2058:	f8470065 			; <UNDEFINED> instruction: 0xf8470065

0000205a <Code_501>:
    205a:	f847 6d04 	str.w	r6, [r7, #-4]!
    205e:	2641      	movs	r6, #65	; 0x41
    2060:	e0af      	b.n	21c2 <Code_533>

00002062 <Dictionary_504>:
    2062:	0000207c 	andeq	r2, r0, ip, ror r0
    2066:	320a8050 	andcc	r8, sl, #80	; 0x50
    206a:	6c6f662d 	stclvs	6, cr6, [pc], #-180	; 1fbc <Code_483+0x2a>
    206e:	6c626164 	stfvse	f6, [r2], #-400	; 0xfffffe70
    2072:	f8470065 			; <UNDEFINED> instruction: 0xf8470065

00002074 <Code_504>:
    2074:	f847 6d04 	str.w	r6, [r7, #-4]!
    2078:	2642      	movs	r6, #66	; 0x42
    207a:	e0a2      	b.n	21c2 <Code_533>

0000207c <Dictionary_507>:
    207c:	00002096 	muleq	r0, r6, r0
    2080:	330a8050 	movwcc	r8, #41040	; 0xa050
    2084:	6c6f662d 	stclvs	6, cr6, [pc], #-180	; 1fd8 <Dictionary_487+0x6>
    2088:	6c626164 	stfvse	f6, [r2], #-400	; 0xfffffe70
    208c:	f8470065 			; <UNDEFINED> instruction: 0xf8470065

0000208e <Code_507>:
    208e:	f847 6d04 	str.w	r6, [r7, #-4]!
    2092:	2643      	movs	r6, #67	; 0x43
    2094:	e095      	b.n	21c2 <Code_533>

00002096 <Dictionary_510>:
    2096:	000020b0 	strheq	r2, [r0], -r0
    209a:	340a8050 	strcc	r8, [sl], #-80	; 0x50
    209e:	6c6f662d 	stclvs	6, cr6, [pc], #-180	; 1ff0 <Dictionary_489+0xa>
    20a2:	6c626164 	stfvse	f6, [r2], #-400	; 0xfffffe70
    20a6:	f8470065 			; <UNDEFINED> instruction: 0xf8470065

000020a8 <Code_510>:
    20a8:	f847 6d04 	str.w	r6, [r7, #-4]!
    20ac:	2644      	movs	r6, #68	; 0x44
    20ae:	e088      	b.n	21c2 <Code_533>

000020b0 <Dictionary_513>:
    20b0:	000020ca 	andeq	r2, r0, sl, asr #1
    20b4:	350a8050 	strcc	r8, [sl, #-80]	; 0x50
    20b8:	6c6f662d 	stclvs	6, cr6, [pc], #-180	; 200c <Code_492>
    20bc:	6c626164 	stfvse	f6, [r2], #-400	; 0xfffffe70
    20c0:	f8470065 			; <UNDEFINED> instruction: 0xf8470065

000020c2 <Code_513>:
    20c2:	f847 6d04 	str.w	r6, [r7, #-4]!
    20c6:	2645      	movs	r6, #69	; 0x45
    20c8:	e07b      	b.n	21c2 <Code_533>

000020ca <Dictionary_516>:
    20ca:	000020e4 	andeq	r2, r0, r4, ror #1
    20ce:	360a8050 			; <UNDEFINED> instruction: 0x360a8050
    20d2:	6c6f662d 	stclvs	6, cr6, [pc], #-180	; 2024 <Dictionary_495+0x10>
    20d6:	6c626164 	stfvse	f6, [r2], #-400	; 0xfffffe70
    20da:	f8470065 			; <UNDEFINED> instruction: 0xf8470065

000020dc <Code_516>:
    20dc:	f847 6d04 	str.w	r6, [r7, #-4]!
    20e0:	2646      	movs	r6, #70	; 0x46
    20e2:	e06e      	b.n	21c2 <Code_533>

000020e4 <Dictionary_519>:
    20e4:	000020fe 	strdeq	r2, [r0], -lr
    20e8:	370a8050 	smlsdcc	sl, r0, r0, r8
    20ec:	6c6f662d 	stclvs	6, cr6, [pc], #-180	; 2040 <Code_498>
    20f0:	6c626164 	stfvse	f6, [r2], #-400	; 0xfffffe70
    20f4:	f8470065 			; <UNDEFINED> instruction: 0xf8470065

000020f6 <Code_519>:
    20f6:	f847 6d04 	str.w	r6, [r7, #-4]!
    20fa:	2647      	movs	r6, #71	; 0x47
    20fc:	e061      	b.n	21c2 <Code_533>

000020fe <Dictionary_522>:
    20fe:	0000212e 	andeq	r2, r0, lr, lsr #2
    2102:	63088000 	movwvs	r8, #32768	; 0x8000
    2106:	74736e6f 	ldrbtvc	r6, [r3], #-3695	; 0xe6f
    210a:	00746e61 	rsbseq	r6, r4, r1, ror #28

0000210e <Code_522>:
    210e:	b500      	push	{lr}
    2110:	f000 f9bc 	bl	248c <Code_570>
    2114:	f7ff fe24 	bl	1d60 <Code_439>
    2118:	f847 6d04 	str.w	r6, [r7, #-4]!
    211c:	f244 7670 	movw	r6, #18288	; 0x4770
    2120:	f000 f8b2 	bl	2288 <Code_539>
    2124:	f7ff ff8c 	bl	2040 <Code_498>
    2128:	f000 f819 	bl	215e <Code_527>
    212c:	bd00      	pop	{pc}

0000212e <Dictionary_525>:
    212e:	00002150 	andeq	r2, r0, r0, asr r1
    2132:	32098000 	andcc	r8, r9, #0
    2136:	736e6f63 	cmnvc	lr, #396	; 0x18c
    213a:	746e6174 	strbtvc	r6, [lr], #-372	; 0x174

0000213e <Code_525>:
    213e:	b500      	push	{lr}
    2140:	f000 f9a4 	bl	248c <Code_570>
    2144:	6839      	ldr	r1, [r7, #0]
    2146:	603e      	str	r6, [r7, #0]
    2148:	460e      	mov	r6, r1
    214a:	f7ff fe09 	bl	1d60 <Code_439>
    214e:	e7e1      	b.n	2114 <Code_522+0x6>

00002150 <Dictionary_527>:
    2150:	000021b2 			; <UNDEFINED> instruction: 0x000021b2
    2154:	73068000 	movwvc	r8, #24576	; 0x6000
    2158:	6764756d 	strbvs	r7, [r4, -sp, ror #10]!
    215c:	b5000065 	strlt	r0, [r0, #-101]	; 0x65

0000215e <Code_527>:
    215e:	b500      	push	{lr}
    2160:	482c      	ldr	r0, [pc, #176]	; (2214 <setflags_ram+0x3a>)
    2162:	6801      	ldr	r1, [r0, #0]
    2164:	4a2b      	ldr	r2, [pc, #172]	; (2214 <setflags_ram+0x3a>)
    2166:	4291      	cmp	r1, r2
    2168:	d21c      	bcs.n	21a4 <smudge_ram>
    216a:	3902      	subs	r1, #2
    216c:	880a      	ldrh	r2, [r1, #0]
    216e:	4b2f      	ldr	r3, [pc, #188]	; (222c <setflags_ram+0x52>)
    2170:	429a      	cmp	r2, r3
    2172:	d104      	bne.n	217e <Code_527+0x20>
    2174:	f847 6d04 	str.w	r6, [r7, #-4]!
    2178:	4e2d      	ldr	r6, [pc, #180]	; (2230 <setflags_ram+0x56>)
    217a:	f000 f885 	bl	2288 <Code_539>
    217e:	f000 f871 	bl	2264 <Code_537>
    2182:	482c      	ldr	r0, [pc, #176]	; (2234 <setflags_ram+0x5a>)
    2184:	6800      	ldr	r0, [r0, #0]
    2186:	f847 6d04 	str.w	r6, [r7, #-4]!
    218a:	0006      	movs	r6, r0
    218c:	492a      	ldr	r1, [pc, #168]	; (2238 <setflags_ram+0x5e>)
    218e:	6809      	ldr	r1, [r1, #0]
    2190:	3104      	adds	r1, #4
    2192:	4a20      	ldr	r2, [pc, #128]	; (2214 <setflags_ram+0x3a>)
    2194:	6813      	ldr	r3, [r2, #0]
    2196:	6011      	str	r1, [r2, #0]
    2198:	f000 f876 	bl	2288 <Code_539>
    219c:	6013      	str	r3, [r2, #0]
    219e:	f7fe ffb3 	bl	1108 <sammeltabelleleerprobe>
    21a2:	bd00      	pop	{pc}

000021a4 <smudge_ram>:
    21a4:	f000 f85e 	bl	2264 <Code_537>
    21a8:	f847 6d04 	str.w	r6, [r7, #-4]!
    21ac:	f45f 4600 	movs.w	r6, #32768	; 0x8000
    21b0:	e008      	b.n	21c4 <setflags_intern>

000021b2 <Dictionary_533>:
    21b2:	0000223c 	andeq	r2, r0, ip, lsr r2
    21b6:	73088000 	movwvc	r8, #32768	; 0x8000
    21ba:	6c667465 	cfstrdvs	mvd7, [r6], #-404	; 0xfffffe6c
    21be:	00736761 	rsbseq	r6, r3, r1, ror #14

000021c2 <Code_533>:
    21c2:	b500      	push	{lr}

000021c4 <setflags_intern>:
    21c4:	4813      	ldr	r0, [pc, #76]	; (2214 <setflags_ram+0x3a>)
    21c6:	6801      	ldr	r1, [r0, #0]
    21c8:	4a12      	ldr	r2, [pc, #72]	; (2214 <setflags_ram+0x3a>)
    21ca:	4291      	cmp	r1, r2
    21cc:	d205      	bcs.n	21da <setflags_ram>
    21ce:	4819      	ldr	r0, [pc, #100]	; (2234 <setflags_ram+0x5a>)
    21d0:	6801      	ldr	r1, [r0, #0]
    21d2:	4331      	orrs	r1, r6
    21d4:	6001      	str	r1, [r0, #0]
    21d6:	cf40      	ldmia	r7!, {r6}
    21d8:	bd00      	pop	{pc}

000021da <setflags_ram>:
    21da:	0032      	movs	r2, r6
    21dc:	cf40      	ldmia	r7!, {r6}
    21de:	4816      	ldr	r0, [pc, #88]	; (2238 <setflags_ram+0x5e>)
    21e0:	6800      	ldr	r0, [r0, #0]
    21e2:	3004      	adds	r0, #4
    21e4:	8801      	ldrh	r1, [r0, #0]
    21e6:	4b12      	ldr	r3, [pc, #72]	; (2230 <setflags_ram+0x56>)
    21e8:	4299      	cmp	r1, r3
    21ea:	d101      	bne.n	21f0 <setflags_ram+0x16>
    21ec:	0011      	movs	r1, r2
    21ee:	e000      	b.n	21f2 <setflags_ram+0x18>
    21f0:	4311      	orrs	r1, r2
    21f2:	8001      	strh	r1, [r0, #0]
    21f4:	bd00      	pop	{pc}
    21f6:	00000000 	andeq	r0, r0, r0
    21fa:	0000f240 	andeq	pc, r0, r0, asr #4
    21fe:	0000f2c0 	andeq	pc, r0, r0, asr #5
    2202:	0000f05f 	andeq	pc, r0, pc, asr r0	; <UNPREDICTABLE>
    2206:	0001f07f 	andeq	pc, r1, pc, ror r0	; <UNPREDICTABLE>
    220a:	0000ffc0 	andeq	pc, r0, r0, asr #31
    220e:	f800ffc0 			; <UNDEFINED> instruction: 0xf800ffc0
    2212:	0000f000 	andeq	pc, r0, r0
    2216:	00142000 	andseq	r2, r4, r0
    221a:	1ea42000 	cdpne	0, 10, cr2, cr4, cr0, {0}
    221e:	1cf60000 	ldclne	0, cr0, [r6]
    2222:	3fd80000 	svccc	0x00d80000
    2226:	00102000 	andseq	r2, r0, r0
    222a:	00002000 	andeq	r2, r0, r0
    222e:	ffff0000 			; <UNDEFINED> instruction: 0xffff0000
    2232:	00200000 	eoreq	r0, r0, r0
    2236:	00042000 	andeq	r2, r4, r0
    223a:	22582000 	subscs	r2, r8, #0

0000223c <Dictionary_536>:
    223c:	00002258 	andeq	r2, r0, r8, asr r2
    2240:	61078041 	tstvs	r7, r1, asr #32
    2244:	6e67696c 	cdpvs	9, 6, cr6, cr7, cr12, {3}
    2248:	20016465 	andcs	r6, r1, r5, ror #8

0000224a <Code_536>:
    224a:	2001      	movs	r0, #1
    224c:	4030      	ands	r0, r6
    224e:	1836      	adds	r6, r6, r0
    2250:	2002      	movs	r0, #2
    2252:	4030      	ands	r0, r6
    2254:	1836      	adds	r6, r6, r0
    2256:	4770      	bx	lr

00002258 <Dictionary_537>:
    2258:	0000227e 	andeq	r2, r0, lr, ror r2
    225c:	61058000 	mrsvs	r8, (UNDEF: 5)
    2260:	6e67696c 	cdpvs	9, 6, cr6, cr7, cr12, {3}

00002264 <Code_537>:
    2264:	b500      	push	{lr}
    2266:	487f      	ldr	r0, [pc, #508]	; (2464 <Zweitpointertausch+0x4e>)
    2268:	6801      	ldr	r1, [r0, #0]
    226a:	2002      	movs	r0, #2
    226c:	4001      	ands	r1, r0
    226e:	d005      	beq.n	227c <Code_537+0x18>
    2270:	f847 6d04 	str.w	r6, [r7, #-4]!
    2274:	f64f 76ff 	movw	r6, #65535	; 0xffff
    2278:	f000 f806 	bl	2288 <Code_539>
    227c:	bd00      	pop	{pc}

0000227e <Dictionary_539>:
    227e:	000022b4 			; <UNDEFINED> instruction: 0x000022b4
    2282:	68028000 	stmdavs	r2, {pc}
    2286:	b50f002c 	strlt	r0, [pc, #-44]	; 2262 <Dictionary_537+0xa>

00002288 <Code_539>:
    2288:	b50f      	push	{r0, r1, r2, r3, lr}
    228a:	b2b6      	uxth	r6, r6
    228c:	4875      	ldr	r0, [pc, #468]	; (2464 <Zweitpointertausch+0x4e>)
    228e:	6801      	ldr	r1, [r0, #0]
    2290:	4a74      	ldr	r2, [pc, #464]	; (2464 <Zweitpointertausch+0x4e>)
    2292:	4291      	cmp	r1, r2
    2294:	d205      	bcs.n	22a2 <hkomma_ram>
    2296:	f847 6d04 	str.w	r6, [r7, #-4]!
    229a:	000e      	movs	r6, r1
    229c:	f7fe ff57 	bl	114e <Code_243>
    22a0:	e002      	b.n	22a8 <hkomma_fertig>

000022a2 <hkomma_ram>:
    22a2:	0032      	movs	r2, r6
    22a4:	cf40      	ldmia	r7!, {r6}
    22a6:	800a      	strh	r2, [r1, #0]

000022a8 <hkomma_fertig>:
    22a8:	f847 6d04 	str.w	r6, [r7, #-4]!
    22ac:	2602      	movs	r6, #2
    22ae:	f000 f856 	bl	235e <Code_559>
    22b2:	bd0f      	pop	{r0, r1, r2, r3, pc}

000022b4 <Dictionary_545>:
    22b4:	000022ce 	andeq	r2, r0, lr, asr #5
    22b8:	2c018000 	stccs	0, cr8, [r1], {0}

000022bc <Code_545>:
    22bc:	b500      	push	{lr}
    22be:	f847 6d04 	str.w	r6, [r7, #-4]!
    22c2:	f7ff ffe1 	bl	2288 <Code_539>
    22c6:	0c36      	lsrs	r6, r6, #16
    22c8:	f7ff ffde 	bl	2288 <Code_539>
    22cc:	bd00      	pop	{pc}

000022ce <Dictionary_548>:
    22ce:	000022ea 	andeq	r2, r0, sl, ror #5
    22d2:	3e038000 	cdpcc	0, 0, cr8, cr3, cr0, {0}
    22d6:	b5002c3c 	strlt	r2, [r0, #-3132]	; 0xc3c

000022d8 <Code_548>:
    22d8:	b500      	push	{lr}
    22da:	f847 6d04 	str.w	r6, [r7, #-4]!
    22de:	0c36      	lsrs	r6, r6, #16
    22e0:	f7ff ffd2 	bl	2288 <Code_539>
    22e4:	f7ff ffd0 	bl	2288 <Code_539>
    22e8:	bd00      	pop	{pc}

000022ea <Dictionary_551>:
    22ea:	00002352 	andeq	r2, r0, r2, asr r3
    22ee:	73078000 	movwvc	r8, #28672	; 0x7000
    22f2:	6e697274 	mcrvs	2, 3, r7, cr9, cr4, {3}
    22f6:	b5072c67 	strlt	r2, [r7, #-3175]	; 0xc67

000022f8 <Code_551>:
    22f8:	b507      	push	{r0, r1, r2, lr}
    22fa:	21ff      	movs	r1, #255	; 0xff
    22fc:	4031      	ands	r1, r6
    22fe:	cf40      	ldmia	r7!, {r6}
    2300:	0030      	movs	r0, r6
    2302:	cf40      	ldmia	r7!, {r6}
    2304:	2900      	cmp	r1, #0
    2306:	d105      	bne.n	2314 <Code_551+0x1c>
    2308:	f847 6d04 	str.w	r6, [r7, #-4]!
    230c:	2600      	movs	r6, #0
    230e:	f7ff ffbb 	bl	2288 <Code_539>
    2312:	bd07      	pop	{r0, r1, r2, pc}
    2314:	f847 6d04 	str.w	r6, [r7, #-4]!
    2318:	7806      	ldrb	r6, [r0, #0]
    231a:	0236      	lsls	r6, r6, #8
    231c:	430e      	orrs	r6, r1
    231e:	f7ff ffb3 	bl	2288 <Code_539>
    2322:	3001      	adds	r0, #1
    2324:	3901      	subs	r1, #1
    2326:	2902      	cmp	r1, #2
    2328:	d30a      	bcc.n	2340 <Code_551+0x48>
    232a:	f847 6d04 	str.w	r6, [r7, #-4]!
    232e:	7846      	ldrb	r6, [r0, #1]
    2330:	0236      	lsls	r6, r6, #8
    2332:	7802      	ldrb	r2, [r0, #0]
    2334:	4316      	orrs	r6, r2
    2336:	f7ff ffa7 	bl	2288 <Code_539>
    233a:	3002      	adds	r0, #2
    233c:	3902      	subs	r1, #2
    233e:	e7f2      	b.n	2326 <Code_551+0x2e>
    2340:	2900      	cmp	r1, #0
    2342:	d100      	bne.n	2346 <Code_551+0x4e>
    2344:	bd07      	pop	{r0, r1, r2, pc}
    2346:	f847 6d04 	str.w	r6, [r7, #-4]!
    234a:	7806      	ldrb	r6, [r0, #0]
    234c:	f7ff ff9c 	bl	2288 <Code_539>
    2350:	bd07      	pop	{r0, r1, r2, pc}

00002352 <Dictionary_559>:
    2352:	000023ac 	andeq	r2, r0, ip, lsr #7
    2356:	61058000 	mrsvs	r8, (UNDEF: 5)
    235a:	746f6c6c 	strbtvc	r6, [pc], #-3180	; 2362 <Code_559+0x4>

0000235e <Code_559>:
    235e:	4841      	ldr	r0, [pc, #260]	; (2464 <Zweitpointertausch+0x4e>)
    2360:	6801      	ldr	r1, [r0, #0]
    2362:	4a40      	ldr	r2, [pc, #256]	; (2464 <Zweitpointertausch+0x4e>)
    2364:	4291      	cmp	r1, r2
    2366:	d20f      	bcs.n	2388 <allot_ram>
    2368:	0032      	movs	r2, r6
    236a:	cf40      	ldmia	r7!, {r6}
    236c:	1889      	adds	r1, r1, r2
    236e:	4a3e      	ldr	r2, [pc, #248]	; (2468 <Zweitpointertausch+0x52>)
    2370:	4291      	cmp	r1, r2
    2372:	d319      	bcc.n	23a8 <allot_ok>
    2374:	f7ff fa69 	bl	184a <dotgaensefuesschen>
    2378:	616c460b 	cmnvs	ip, fp, lsl #12
    237c:	66206873 			; <UNDEFINED> instruction: 0x66206873
    2380:	0a6c6c75 	beq	1b1d55c <BIT24+0xb1d55c>
    2384:	f001 b906 	b.w	3594 <Code_920>

00002388 <allot_ram>:
    2388:	0032      	movs	r2, r6
    238a:	cf40      	ldmia	r7!, {r6}
    238c:	1889      	adds	r1, r1, r2
    238e:	4a37      	ldr	r2, [pc, #220]	; (246c <Zweitpointertausch+0x56>)
    2390:	6812      	ldr	r2, [r2, #0]
    2392:	4291      	cmp	r1, r2
    2394:	d308      	bcc.n	23a8 <allot_ok>
    2396:	f7ff fa58 	bl	184a <dotgaensefuesschen>
    239a:	6d615209 	sfmvs	f5, 2, [r1, #-36]!	; 0xffffffdc
    239e:	6c756620 	ldclvs	6, cr6, [r5], #-128	; 0xffffff80
    23a2:	f0010a6c 			; <UNDEFINED> instruction: 0xf0010a6c
    23a6:	b8f6      			; <UNDEFINED> instruction: 0xb8f6

000023a8 <allot_ok>:
    23a8:	6001      	str	r1, [r0, #0]
    23aa:	4770      	bx	lr

000023ac <Dictionary_564>:
    23ac:	000023d4 	ldrdeq	r2, [r0], -r4
    23b0:	630d8000 	movwvs	r8, #53248	; 0xd000
    23b4:	69706d6f 	ldmdbvs	r0!, {r0, r1, r2, r3, r5, r6, r8, sl, fp, sp, lr}^
    23b8:	6f74656c 	svcvs	0x0074656c
    23bc:	3f6d6172 	svccc	0x006d6172

000023c0 <Code_564>:
    23c0:	f847 6d04 	str.w	r6, [r7, #-4]!
    23c4:	2600      	movs	r6, #0
    23c6:	4827      	ldr	r0, [pc, #156]	; (2464 <Zweitpointertausch+0x4e>)
    23c8:	6800      	ldr	r0, [r0, #0]
    23ca:	4926      	ldr	r1, [pc, #152]	; (2464 <Zweitpointertausch+0x4e>)
    23cc:	4288      	cmp	r0, r1
    23ce:	d348      	bcc.n	2462 <Zweitpointertausch+0x4c>
    23d0:	43f6      	mvns	r6, r6
    23d2:	4770      	bx	lr

000023d4 <Dictionary_567>:
    23d4:	000023f4 	strdeq	r2, [r0], -r4
    23d8:	630c8000 	movwvs	r8, #49152	; 0xc000
    23dc:	69706d6f 	ldmdbvs	r0!, {r0, r1, r2, r3, r5, r6, r8, sl, fp, sp, lr}^
    23e0:	6f74656c 	svcvs	0x0074656c
    23e4:	006d6172 	rsbeq	r6, sp, r2, ror r1

000023e8 <Code_567>:
    23e8:	481e      	ldr	r0, [pc, #120]	; (2464 <Zweitpointertausch+0x4e>)
    23ea:	6800      	ldr	r0, [r0, #0]
    23ec:	491d      	ldr	r1, [pc, #116]	; (2464 <Zweitpointertausch+0x4e>)
    23ee:	4288      	cmp	r0, r1
    23f0:	d311      	bcc.n	2416 <Zweitpointertausch>
    23f2:	4770      	bx	lr

000023f4 <Dictionary_568>:
    23f4:	0000247c 	andeq	r2, r0, ip, ror r4
    23f8:	630e8000 	movwvs	r8, #57344	; 0xe000
    23fc:	69706d6f 	ldmdbvs	r0!, {r0, r1, r2, r3, r5, r6, r8, sl, fp, sp, lr}^
    2400:	6f74656c 	svcvs	0x0074656c
    2404:	73616c66 	cmnvc	r1, #26112	; 0x6600
    2408:	48160068 	ldmdami	r6, {r3, r5, r6}

0000240a <Code_568>:
    240a:	4816      	ldr	r0, [pc, #88]	; (2464 <Zweitpointertausch+0x4e>)
    240c:	6800      	ldr	r0, [r0, #0]
    240e:	4915      	ldr	r1, [pc, #84]	; (2464 <Zweitpointertausch+0x4e>)
    2410:	4288      	cmp	r0, r1
    2412:	d200      	bcs.n	2416 <Zweitpointertausch>
    2414:	4770      	bx	lr

00002416 <Zweitpointertausch>:
    2416:	4816      	ldr	r0, [pc, #88]	; (2470 <Zweitpointertausch+0x5a>)
    2418:	4916      	ldr	r1, [pc, #88]	; (2474 <Zweitpointertausch+0x5e>)
    241a:	6802      	ldr	r2, [r0, #0]
    241c:	680b      	ldr	r3, [r1, #0]
    241e:	600a      	str	r2, [r1, #0]
    2420:	6003      	str	r3, [r0, #0]
    2422:	4810      	ldr	r0, [pc, #64]	; (2464 <Zweitpointertausch+0x4e>)
    2424:	4914      	ldr	r1, [pc, #80]	; (2478 <Zweitpointertausch+0x62>)
    2426:	6802      	ldr	r2, [r0, #0]
    2428:	680b      	ldr	r3, [r1, #0]
    242a:	600a      	str	r2, [r1, #0]
    242c:	6003      	str	r3, [r0, #0]
    242e:	480f      	ldr	r0, [pc, #60]	; (246c <Zweitpointertausch+0x56>)
    2430:	6800      	ldr	r0, [r0, #0]
    2432:	4283      	cmp	r3, r0
    2434:	d315      	bcc.n	2462 <Zweitpointertausch+0x4c>
    2436:	b500      	push	{lr}
    2438:	f7ff fa07 	bl	184a <dotgaensefuesschen>
    243c:	61562023 	cmpvs	r6, r3, lsr #32
    2440:	62616972 	rsbvs	r6, r1, #1867776	; 0x1c8000
    2444:	2073656c 	rsbscs	r6, r3, ip, ror #10
    2448:	6c6c6f63 	stclvs	15, cr6, [ip], #-396	; 0xfffffe74
    244c:	20656469 	rsbcs	r6, r5, r9, ror #8
    2450:	68746977 	ldmdavs	r4!, {r0, r1, r2, r4, r5, r6, r8, fp, sp, lr}^
    2454:	63696420 	cmnvs	r9, #536870912	; 0x20000000
    2458:	6e6f6974 	mcrvs	9, 3, r6, cr15, cr4, {3}
    245c:	0a797261 	beq	1e5ede8 <BIT24+0xe5ede8>
    2460:	bd00      	pop	{pc}
    2462:	4770      	bx	lr
    2464:	20000000 	andcs	r0, r0, r0
    2468:	00020000 	andeq	r0, r2, r0
    246c:	20000024 	andcs	r0, r0, r4, lsr #32
    2470:	20000004 	andcs	r0, r0, r4
    2474:	2000001c 	andcs	r0, r0, ip, lsl r0
    2478:	20000018 	andcs	r0, r0, r8, lsl r0

0000247c <Dictionary_570>:
    247c:	00002568 	andeq	r2, r0, r8, ror #10
    2480:	28088000 	stmdacs	r8, {pc}
    2484:	61657263 	cmnvs	r5, r3, ror #4
    2488:	00296574 	eoreq	r6, r9, r4, ror r5

0000248c <Code_570>:
    248c:	b500      	push	{lr}
    248e:	f000 fcf9 	bl	2e84 <Code_793>
    2492:	2e00      	cmp	r6, #0
    2494:	d10e      	bne.n	24b4 <Code_570+0x28>
    2496:	f7ff f9d8 	bl	184a <dotgaensefuesschen>
    249a:	72432015 	subvc	r2, r3, #21
    249e:	65746165 	ldrbvs	r6, [r4, #-357]!	; 0x165
    24a2:	65656e20 	strbvs	r6, [r5, #-3616]!	; 0xe20
    24a6:	6e207364 	cdpvs	3, 2, cr7, cr0, cr4, {3}
    24aa:	20656d61 	rsbcs	r6, r5, r1, ror #26
    24ae:	f0010a21 			; <UNDEFINED> instruction: 0xf0010a21
    24b2:	b870      			; <UNDEFINED> instruction: 0xb870
    24b4:	6838      	ldr	r0, [r7, #0]
    24b6:	f847 6d04 	str.w	r6, [r7, #-4]!
    24ba:	3f04      	subs	r7, #4
    24bc:	6038      	str	r0, [r7, #0]
    24be:	f000 f99e 	bl	27fe <Code_633>
    24c2:	cf40      	ldmia	r7!, {r6}
    24c4:	2e00      	cmp	r6, #0
    24c6:	cf40      	ldmia	r7!, {r6}
    24c8:	d011      	beq.n	24ee <Code_570+0x62>
    24ca:	6838      	ldr	r0, [r7, #0]
    24cc:	f847 6d04 	str.w	r6, [r7, #-4]!
    24d0:	3f04      	subs	r7, #4
    24d2:	6038      	str	r0, [r7, #0]
    24d4:	f7ff f9b9 	bl	184a <dotgaensefuesschen>
    24d8:	64655209 	strbtvs	r5, [r5], #-521	; 0x209
    24dc:	6e696665 	cdpvs	6, 6, cr6, cr9, cr5, {3}
    24e0:	f7ff2065 			; <UNDEFINED> instruction: 0xf7ff2065
    24e4:	fa0e f7ff 			; <UNDEFINED> instruction: 0xfa0ef7ff
    24e8:	f9b0 2e02 	ldrsh.w	r2, [r0, #3586]	; 0xe02
    24ec:	f7ff000a 			; <UNDEFINED> instruction: 0xf7ff000a
    24f0:	feb9 f000 	cdp2	0, 11, cr15, cr9, cr0, {0}
    24f4:	fa0d 488f 			; <UNDEFINED> instruction: 0xfa0d488f
    24f8:	6800      	ldr	r0, [r0, #0]
    24fa:	498e      	ldr	r1, [pc, #568]	; (2734 <rambuffer_ram+0x46>)
    24fc:	4288      	cmp	r0, r1
    24fe:	d21d      	bcs.n	253c <create_ram>
    2500:	488d      	ldr	r0, [pc, #564]	; (2738 <rambuffer_ram+0x4a>)
    2502:	f45f 4100 	movs.w	r1, #32768	; 0x8000
    2506:	6001      	str	r1, [r0, #0]
    2508:	f847 6d04 	str.w	r6, [r7, #-4]!
    250c:	2606      	movs	r6, #6
    250e:	f7ff ff26 	bl	235e <Code_559>
    2512:	f7fe f98e 	bl	832 <Code_134>
    2516:	f7ff feef 	bl	22f8 <Code_551>
    251a:	4888      	ldr	r0, [pc, #544]	; (273c <rambuffer_ram+0x4e>)
    251c:	6801      	ldr	r1, [r0, #0]
    251e:	680a      	ldr	r2, [r1, #0]
    2520:	4b87      	ldr	r3, [pc, #540]	; (2740 <rambuffer_ram+0x52>)
    2522:	429a      	cmp	r2, r3
    2524:	d107      	bne.n	2536 <Code_570+0xaa>
    2526:	4a83      	ldr	r2, [pc, #524]	; (2734 <rambuffer_ram+0x46>)
    2528:	6813      	ldr	r3, [r2, #0]
    252a:	6011      	str	r1, [r2, #0]
    252c:	f847 6d04 	str.w	r6, [r7, #-4]!
    2530:	f7ff fec4 	bl	22bc <Code_545>
    2534:	6013      	str	r3, [r2, #0]
    2536:	6006      	str	r6, [r0, #0]
    2538:	cf40      	ldmia	r7!, {r6}
    253a:	e010      	b.n	255e <create_ende>

0000253c <create_ram>:
    253c:	487f      	ldr	r0, [pc, #508]	; (273c <rambuffer_ram+0x4e>)
    253e:	f847 6d04 	str.w	r6, [r7, #-4]!
    2542:	6806      	ldr	r6, [r0, #0]
    2544:	f7ff feba 	bl	22bc <Code_545>
    2548:	f847 6d04 	str.w	r6, [r7, #-4]!
    254c:	4e7c      	ldr	r6, [pc, #496]	; (2740 <rambuffer_ram+0x52>)
    254e:	f7ff fe9b 	bl	2288 <Code_539>
    2552:	487a      	ldr	r0, [pc, #488]	; (273c <rambuffer_ram+0x4e>)
    2554:	0031      	movs	r1, r6
    2556:	cf40      	ldmia	r7!, {r6}
    2558:	6001      	str	r1, [r0, #0]
    255a:	f7ff fecd 	bl	22f8 <Code_551>

0000255e <create_ende>:
    255e:	4875      	ldr	r0, [pc, #468]	; (2734 <rambuffer_ram+0x46>)
    2560:	6801      	ldr	r1, [r0, #0]
    2562:	4878      	ldr	r0, [pc, #480]	; (2744 <rambuffer_ram+0x56>)
    2564:	6001      	str	r1, [r0, #0]
    2566:	bd00      	pop	{pc}

00002568 <Dictionary_588>:
    2568:	00002580 	andeq	r2, r0, r0, lsl #11
    256c:	76088000 	strvc	r8, [r8], -r0
    2570:	61697261 	cmnvs	r9, r1, ror #4
    2574:	00656c62 	rsbeq	r6, r5, r2, ror #24

00002578 <Code_588>:
    2578:	f847 6d04 	str.w	r6, [r7, #-4]!
    257c:	2601      	movs	r6, #1
    257e:	e013      	b.n	25a8 <Code_594>

00002580 <Dictionary_591>:
    2580:	00002598 	muleq	r0, r8, r5
    2584:	32098000 	andcc	r8, r9, #0
    2588:	69726176 	ldmdbvs	r2!, {r1, r2, r4, r5, r6, r8, sp, lr}^
    258c:	656c6261 	strbvs	r6, [ip, #-609]!	; 0x261

00002590 <Code_591>:
    2590:	f847 6d04 	str.w	r6, [r7, #-4]!
    2594:	2602      	movs	r6, #2
    2596:	e007      	b.n	25a8 <Code_594>

00002598 <Dictionary_594>:
    2598:	00002672 	andeq	r2, r0, r2, ror r6
    259c:	6e098000 	cdpvs	0, 0, cr8, cr9, cr0, {0}
    25a0:	69726176 	ldmdbvs	r2!, {r1, r2, r4, r5, r6, r8, sp, lr}^
    25a4:	656c6261 	strbvs	r6, [ip, #-609]!	; 0x261

000025a8 <Code_594>:
    25a8:	b500      	push	{lr}
    25aa:	f7ff ff6f 	bl	248c <Code_570>
    25ae:	4861      	ldr	r0, [pc, #388]	; (2734 <rambuffer_ram+0x46>)
    25b0:	6801      	ldr	r1, [r0, #0]
    25b2:	4a60      	ldr	r2, [pc, #384]	; (2734 <rambuffer_ram+0x46>)
    25b4:	4291      	cmp	r1, r2
    25b6:	d234      	bcs.n	2622 <variable_ram>
    25b8:	200f      	movs	r0, #15
    25ba:	4006      	ands	r6, r0
    25bc:	00b2      	lsls	r2, r6, #2
    25be:	4862      	ldr	r0, [pc, #392]	; (2748 <rambuffer_ram+0x5a>)
    25c0:	6801      	ldr	r1, [r0, #0]
    25c2:	1a89      	subs	r1, r1, r2
    25c4:	4a61      	ldr	r2, [pc, #388]	; (274c <rambuffer_ram+0x5e>)
    25c6:	4291      	cmp	r1, r2
    25c8:	d20b      	bcs.n	25e2 <Code_594+0x3a>
    25ca:	f7ff f93e 	bl	184a <dotgaensefuesschen>
    25ce:	746f4e0f 	strbtvc	r4, [pc], #-3599	; 25d6 <Code_594+0x2e>
    25d2:	6f6e6520 	svcvs	0x006e6520
    25d6:	20686775 	rsbcs	r6, r8, r5, ror r7
    25da:	0a4d4152 	beq	1352b2a <BIT24+0x352b2a>
    25de:	f000 bfd9 	b.w	3594 <Code_920>
    25e2:	6001      	str	r1, [r0, #0]
    25e4:	f847 6d04 	str.w	r6, [r7, #-4]!
    25e8:	000e      	movs	r6, r1
    25ea:	f7ff fbb9 	bl	1d60 <Code_439>
    25ee:	f847 6d04 	str.w	r6, [r7, #-4]!
    25f2:	f244 7670 	movw	r6, #18288	; 0x4770
    25f6:	f7ff fe47 	bl	2288 <Code_539>
    25fa:	0030      	movs	r0, r6
    25fc:	cf40      	ldmia	r7!, {r6}
    25fe:	0002      	movs	r2, r0
    2600:	2800      	cmp	r0, #0
    2602:	d005      	beq.n	2610 <Code_594+0x68>
    2604:	600e      	str	r6, [r1, #0]
    2606:	3104      	adds	r1, #4
    2608:	f7ff fe58 	bl	22bc <Code_545>
    260c:	3801      	subs	r0, #1
    260e:	d1f9      	bne.n	2604 <Code_594+0x5c>
    2610:	f847 6d04 	str.w	r6, [r7, #-4]!
    2614:	2680      	movs	r6, #128	; 0x80
    2616:	4316      	orrs	r6, r2
    2618:	f7ff fdd3 	bl	21c2 <Code_533>
    261c:	f7ff fd9f 	bl	215e <Code_527>
    2620:	bd00      	pop	{pc}

00002622 <variable_ram>:
    2622:	f000 f975 	bl	2910 <Code_655>
    2626:	2002      	movs	r0, #2
    2628:	4006      	ands	r6, r0
    262a:	cf40      	ldmia	r7!, {r6}
    262c:	d104      	bne.n	2638 <variable_ram+0x16>
    262e:	f847 6d04 	str.w	r6, [r7, #-4]!
    2632:	2636      	movs	r6, #54	; 0x36
    2634:	f7ff fe28 	bl	2288 <Code_539>
    2638:	f847 6d04 	str.w	r6, [r7, #-4]!
    263c:	4e44      	ldr	r6, [pc, #272]	; (2750 <rambuffer_ram+0x62>)
    263e:	f7ff fe4b 	bl	22d8 <Code_548>
    2642:	f847 6d04 	str.w	r6, [r7, #-4]!
    2646:	4e43      	ldr	r6, [pc, #268]	; (2754 <rambuffer_ram+0x66>)
    2648:	f7ff fe46 	bl	22d8 <Code_548>
    264c:	f847 6d04 	str.w	r6, [r7, #-4]!
    2650:	f244 7670 	movw	r6, #18288	; 0x4770
    2654:	f7ff fe18 	bl	2288 <Code_539>
    2658:	0030      	movs	r0, r6
    265a:	cf40      	ldmia	r7!, {r6}
    265c:	2800      	cmp	r0, #0
    265e:	d003      	beq.n	2668 <variable_ram+0x46>
    2660:	f7ff fe2c 	bl	22bc <Code_545>
    2664:	3801      	subs	r0, #1
    2666:	d1fb      	bne.n	2660 <variable_ram+0x3e>
    2668:	f7ff fcea 	bl	2040 <Code_498>
    266c:	f7ff fd77 	bl	215e <Code_527>
    2670:	bd00      	pop	{pc}

00002672 <Dictionary_611>:
    2672:	00002758 	andeq	r2, r0, r8, asr r7
    2676:	62078000 	andvs	r8, r7, #0
    267a:	65666675 	strbvs	r6, [r6, #-1653]!	; 0x675
    267e:	b5003a72 	strlt	r3, [r0, #-2674]	; 0xa72

00002680 <Code_611>:
    2680:	b500      	push	{lr}
    2682:	f7ff ff03 	bl	248c <Code_570>
    2686:	2001      	movs	r0, #1
    2688:	4030      	ands	r0, r6
    268a:	1836      	adds	r6, r6, r0
    268c:	2002      	movs	r0, #2
    268e:	4030      	ands	r0, r6
    2690:	1836      	adds	r6, r6, r0
    2692:	4828      	ldr	r0, [pc, #160]	; (2734 <rambuffer_ram+0x46>)
    2694:	6801      	ldr	r1, [r0, #0]
    2696:	4a27      	ldr	r2, [pc, #156]	; (2734 <rambuffer_ram+0x46>)
    2698:	4291      	cmp	r1, r2
    269a:	d228      	bcs.n	26ee <rambuffer_ram>
    269c:	482a      	ldr	r0, [pc, #168]	; (2748 <rambuffer_ram+0x5a>)
    269e:	6801      	ldr	r1, [r0, #0]
    26a0:	1b89      	subs	r1, r1, r6
    26a2:	4a2a      	ldr	r2, [pc, #168]	; (274c <rambuffer_ram+0x5e>)
    26a4:	4291      	cmp	r1, r2
    26a6:	d20b      	bcs.n	26c0 <Code_611+0x40>
    26a8:	f7ff f8cf 	bl	184a <dotgaensefuesschen>
    26ac:	746f4e0f 	strbtvc	r4, [pc], #-3599	; 26b4 <Code_611+0x34>
    26b0:	6f6e6520 	svcvs	0x006e6520
    26b4:	20686775 	rsbcs	r6, r8, r5, ror r7
    26b8:	0a4d4152 	beq	1352c08 <BIT24+0x352c08>
    26bc:	f000 bf6a 	b.w	3594 <Code_920>
    26c0:	6001      	str	r1, [r0, #0]
    26c2:	f847 6d04 	str.w	r6, [r7, #-4]!
    26c6:	000e      	movs	r6, r1
    26c8:	f7ff fb4a 	bl	1d60 <Code_439>
    26cc:	f847 6d04 	str.w	r6, [r7, #-4]!
    26d0:	f244 7670 	movw	r6, #18288	; 0x4770
    26d4:	f7ff fdd8 	bl	2288 <Code_539>
    26d8:	f7ff fdf0 	bl	22bc <Code_545>
    26dc:	f847 6d04 	str.w	r6, [r7, #-4]!
    26e0:	f248 1640 	movw	r6, #33088	; 0x8140
    26e4:	f7ff fd6d 	bl	21c2 <Code_533>
    26e8:	f7ff fd39 	bl	215e <Code_527>
    26ec:	bd00      	pop	{pc}

000026ee <rambuffer_ram>:
    26ee:	f000 f90f 	bl	2910 <Code_655>
    26f2:	2002      	movs	r0, #2
    26f4:	4006      	ands	r6, r0
    26f6:	cf40      	ldmia	r7!, {r6}
    26f8:	d104      	bne.n	2704 <rambuffer_ram+0x16>
    26fa:	f847 6d04 	str.w	r6, [r7, #-4]!
    26fe:	2636      	movs	r6, #54	; 0x36
    2700:	f7ff fdc2 	bl	2288 <Code_539>
    2704:	f847 6d04 	str.w	r6, [r7, #-4]!
    2708:	4e11      	ldr	r6, [pc, #68]	; (2750 <rambuffer_ram+0x62>)
    270a:	f7ff fde5 	bl	22d8 <Code_548>
    270e:	f847 6d04 	str.w	r6, [r7, #-4]!
    2712:	4e10      	ldr	r6, [pc, #64]	; (2754 <rambuffer_ram+0x66>)
    2714:	f7ff fde0 	bl	22d8 <Code_548>
    2718:	f847 6d04 	str.w	r6, [r7, #-4]!
    271c:	f244 7670 	movw	r6, #18288	; 0x4770
    2720:	f7ff fdb2 	bl	2288 <Code_539>
    2724:	f7ff fe1b 	bl	235e <Code_559>
    2728:	f7ff fc8a 	bl	2040 <Code_498>
    272c:	f7ff fd17 	bl	215e <Code_527>
    2730:	bd00      	pop	{pc}
    2732:	00000000 	andeq	r0, r0, r0
    2736:	00202000 	eoreq	r2, r0, r0
    273a:	00042000 	andeq	r2, r4, r0
    273e:	00002000 	andeq	r2, r0, r0
    2742:	00140000 	andseq	r0, r4, r0
    2746:	00242000 	eoreq	r2, r4, r0
    274a:	03f02000 	mvnseq	r2, #0
    274e:	603e2000 	eorsvs	r2, lr, r0
    2752:	36023f04 	strcc	r3, [r2], -r4, lsl #30
    2756:	2786467e 			; <UNDEFINED> instruction: 0x2786467e

00002758 <Dictionary_626>:
    2758:	00002786 	andeq	r2, r0, r6, lsl #15
    275c:	640f8000 	strvs	r8, [pc], #0	; 2764 <Dictionary_626+0xc>
    2760:	69746369 	ldmdbvs	r4!, {r0, r3, r5, r6, r8, r9, sp, lr}^
    2764:	72616e6f 	rsbvc	r6, r1, #1776	; 0x6f0
    2768:	61747379 	cmnvs	r4, r9, ror r3
    276c:	48ea7472 	stmiami	sl!, {r1, r4, r5, r6, sl, ip, sp, lr}^

0000276e <Code_626>:
    276e:	48ea      	ldr	r0, [pc, #936]	; (2b18 <Code_702+0xe>)
    2770:	6800      	ldr	r0, [r0, #0]
    2772:	49e9      	ldr	r1, [pc, #932]	; (2b18 <Code_702+0xe>)
    2774:	f847 6d04 	str.w	r6, [r7, #-4]!
    2778:	4288      	cmp	r0, r1
    277a:	d201      	bcs.n	2780 <Code_626+0x12>
    277c:	4ee7      	ldr	r6, [pc, #924]	; (2b1c <Code_702+0x12>)
    277e:	4770      	bx	lr
    2780:	4ee7      	ldr	r6, [pc, #924]	; (2b20 <Code_702+0x16>)
    2782:	6836      	ldr	r6, [r6, #0]
    2784:	4770      	bx	lr

00002786 <Dictionary_628>:
    2786:	000027c0 	andeq	r2, r0, r0, asr #15
    278a:	640e8000 	strvs	r8, [lr]
    278e:	69746369 	ldmdbvs	r4!, {r0, r3, r5, r6, r8, r9, sp, lr}^
    2792:	72616e6f 	rsbvc	r6, r1, #1776	; 0x6f0
    2796:	78656e79 	stmdavc	r5!, {r0, r3, r4, r5, r6, r9, sl, fp, sp, lr}^
    279a:	b5030074 	strlt	r0, [r3, #-116]	; 0x74

0000279c <Code_628>:
    279c:	b503      	push	{r0, r1, lr}
    279e:	6831      	ldr	r1, [r6, #0]
    27a0:	48e0      	ldr	r0, [pc, #896]	; (2b24 <Code_702+0x1a>)
    27a2:	4281      	cmp	r1, r0
    27a4:	d007      	beq.n	27b6 <Code_628+0x1a>
    27a6:	7988      	ldrb	r0, [r1, #6]
    27a8:	2800      	cmp	r0, #0
    27aa:	d004      	beq.n	27b6 <Code_628+0x1a>
    27ac:	000e      	movs	r6, r1
    27ae:	f847 6d04 	str.w	r6, [r7, #-4]!
    27b2:	2600      	movs	r6, #0
    27b4:	bd03      	pop	{r0, r1, pc}
    27b6:	f847 6d04 	str.w	r6, [r7, #-4]!
    27ba:	2600      	movs	r6, #0
    27bc:	43f6      	mvns	r6, r6
    27be:	bd03      	pop	{r0, r1, pc}

000027c0 <Dictionary_632>:
    27c0:	000027f2 	strdeq	r2, [r0], -r2	; <UNPREDICTABLE>
    27c4:	730a8000 	movwvc	r8, #40960	; 0xa000
    27c8:	7370696b 	cmnvc	r0, #1753088	; 0x1ac000
    27cc:	6e697274 	mcrvs	2, 3, r7, cr9, cr4, {3}
    27d0:	78310067 	ldmdavc	r1!, {r0, r1, r2, r5, r6}

000027d2 <Code_632>:
    27d2:	7831      	ldrb	r1, [r6, #0]
    27d4:	3101      	adds	r1, #1
    27d6:	2201      	movs	r2, #1
    27d8:	400a      	ands	r2, r1
    27da:	1889      	adds	r1, r1, r2
    27dc:	1876      	adds	r6, r6, r1
    27de:	4770      	bx	lr

000027e0 <skipstring>:
    27e0:	b406      	push	{r1, r2}
    27e2:	7801      	ldrb	r1, [r0, #0]
    27e4:	3101      	adds	r1, #1
    27e6:	2201      	movs	r2, #1
    27e8:	400a      	ands	r2, r1
    27ea:	1889      	adds	r1, r1, r2
    27ec:	1840      	adds	r0, r0, r1
    27ee:	bc06      	pop	{r1, r2}
    27f0:	4770      	bx	lr

000027f2 <Dictionary_633>:
    27f2:	00002872 	andeq	r2, r0, r2, ror r8
    27f6:	66048000 	strvs	r8, [r4], -r0
    27fa:	00646e69 	rsbeq	r6, r4, r9, ror #28

000027fe <Code_633>:
    27fe:	b53f      	push	{r0, r1, r2, r3, r4, r5, lr}
    2800:	2200      	movs	r2, #0
    2802:	2300      	movs	r3, #0
    2804:	0035      	movs	r5, r6
    2806:	cf40      	ldmia	r7!, {r6}
    2808:	0034      	movs	r4, r6
    280a:	cf40      	ldmia	r7!, {r6}
    280c:	f7ff ffaf 	bl	276e <Code_626>
    2810:	48c4      	ldr	r0, [pc, #784]	; (2b24 <Code_702+0x1a>)
    2812:	88b1      	ldrh	r1, [r6, #4]
    2814:	4288      	cmp	r0, r1
    2816:	d017      	beq.n	2848 <Code_633+0x4a>
    2818:	f847 6d04 	str.w	r6, [r7, #-4]!
    281c:	3606      	adds	r6, #6
    281e:	f7ff f850 	bl	18c2 <Code_366>
    2822:	f847 6d04 	str.w	r6, [r7, #-4]!
    2826:	0026      	movs	r6, r4
    2828:	f847 6d04 	str.w	r6, [r7, #-4]!
    282c:	002e      	movs	r6, r5
    282e:	f7fe ff82 	bl	1736 <Code_328>
    2832:	2e00      	cmp	r6, #0
    2834:	cf40      	ldmia	r7!, {r6}
    2836:	d007      	beq.n	2848 <Code_633+0x4a>
    2838:	1db0      	adds	r0, r6, #6
    283a:	f7ff ffd1 	bl	27e0 <skipstring>
    283e:	0002      	movs	r2, r0
    2840:	000b      	movs	r3, r1
    2842:	48b5      	ldr	r0, [pc, #724]	; (2b18 <Code_702+0xe>)
    2844:	4282      	cmp	r2, r0
    2846:	d204      	bcs.n	2852 <Code_633+0x54>
    2848:	f7ff ffa8 	bl	279c <Code_628>
    284c:	0030      	movs	r0, r6
    284e:	cf40      	ldmia	r7!, {r6}
    2850:	d0de      	beq.n	2810 <Code_633+0x12>
    2852:	0016      	movs	r6, r2
    2854:	f847 6d04 	str.w	r6, [r7, #-4]!
    2858:	001e      	movs	r6, r3
    285a:	bd3f      	pop	{r0, r1, r2, r3, r4, r5, pc}

0000285c <find_not_found>:
    285c:	b500      	push	{lr}
    285e:	0031      	movs	r1, r6
    2860:	6838      	ldr	r0, [r7, #0]
    2862:	f7ff ffcc 	bl	27fe <Code_633>
    2866:	683a      	ldr	r2, [r7, #0]
    2868:	2a00      	cmp	r2, #0
    286a:	d101      	bne.n	2870 <find_not_found+0x14>
    286c:	f000 fd64 	bl	3338 <not_found_addr_r0_len_r1>
    2870:	bd00      	pop	{pc}

00002872 <Dictionary_646>:
    2872:	000028cc 	andeq	r2, r0, ip, asr #17
    2876:	63068000 	movwvs	r8, #24576	; 0x6000
    287a:	706d756a 	rsbvc	r7, sp, sl, ror #10
    287e:	0032002c 	eorseq	r0, r2, ip, lsr #32

00002880 <Code_646>:
    2880:	0032      	movs	r2, r6
    2882:	cf40      	ldmia	r7!, {r6}
    2884:	0031      	movs	r1, r6
    2886:	cf40      	ldmia	r7!, {r6}
    2888:	1b8b      	subs	r3, r1, r6
    288a:	3b04      	subs	r3, #4
    288c:	49a6      	ldr	r1, [pc, #664]	; (2b28 <Code_702+0x1e>)
    288e:	4019      	ands	r1, r3
    2890:	2900      	cmp	r1, #0
    2892:	d00d      	beq.n	28b0 <jump_too_far+0x16>
    2894:	48a5      	ldr	r0, [pc, #660]	; (2b2c <Code_702+0x22>)
    2896:	4281      	cmp	r1, r0
    2898:	d00a      	beq.n	28b0 <jump_too_far+0x16>

0000289a <jump_too_far>:
    289a:	f7fe ffd6 	bl	184a <dotgaensefuesschen>
    289e:	6d754a0d 	vldmdbvs	r5!, {s9-s21}
    28a2:	6f742070 	svcvs	0x00742070
    28a6:	6166206f 	cmnvs	r6, pc, rrx
    28aa:	f0000a72 			; <UNDEFINED> instruction: 0xf0000a72
    28ae:	be72      	bkpt	0x0072
    28b0:	105b      	asrs	r3, r3, #1
    28b2:	21ff      	movs	r1, #255	; 0xff
    28b4:	400b      	ands	r3, r1
    28b6:	4313      	orrs	r3, r2
    28b8:	0030      	movs	r0, r6
    28ba:	001e      	movs	r6, r3

000028bc <sprungbefehl_einfuegen>:
    28bc:	b500      	push	{lr}
    28be:	4a96      	ldr	r2, [pc, #600]	; (2b18 <Code_702+0xe>)
    28c0:	6813      	ldr	r3, [r2, #0]
    28c2:	6010      	str	r0, [r2, #0]
    28c4:	f7ff fce0 	bl	2288 <Code_539>
    28c8:	6013      	str	r3, [r2, #0]
    28ca:	bd00      	pop	{pc}

000028cc <Dictionary_650>:
    28cc:	00002904 	andeq	r2, r0, r4, lsl #18
    28d0:	6a058000 	bvs	1628d8 <BIT20+0x628d8>
    28d4:	2c706d75 	ldclcs	13, cr6, [r0], #-468	; 0xfffffe2c

000028d8 <Code_650>:
    28d8:	0031      	movs	r1, r6
    28da:	cf40      	ldmia	r7!, {r6}
    28dc:	0030      	movs	r0, r6
    28de:	cf40      	ldmia	r7!, {r6}
    28e0:	1a0b      	subs	r3, r1, r0
    28e2:	3b04      	subs	r3, #4
    28e4:	4992      	ldr	r1, [pc, #584]	; (2b30 <Code_702+0x26>)
    28e6:	4019      	ands	r1, r3
    28e8:	2900      	cmp	r1, #0
    28ea:	d002      	beq.n	28f2 <Code_650+0x1a>
    28ec:	4a91      	ldr	r2, [pc, #580]	; (2b34 <Code_702+0x2a>)
    28ee:	4291      	cmp	r1, r2
    28f0:	d1d3      	bne.n	289a <jump_too_far>
    28f2:	105b      	asrs	r3, r3, #1
    28f4:	4a90      	ldr	r2, [pc, #576]	; (2b38 <Code_702+0x2e>)
    28f6:	4013      	ands	r3, r2
    28f8:	f453 4360 	orrs.w	r3, r3, #57344	; 0xe000
    28fc:	f847 6d04 	str.w	r6, [r7, #-4]!
    2900:	001e      	movs	r6, r3
    2902:	e7db      	b.n	28bc <sprungbefehl_einfuegen>

00002904 <Dictionary_655>:
    2904:	0000291a 	andeq	r2, r0, sl, lsl r9
    2908:	68048000 	stmdavs	r4, {pc}
    290c:	00657265 	rsbeq	r7, r5, r5, ror #4

00002910 <Code_655>:
    2910:	f847 6d04 	str.w	r6, [r7, #-4]!
    2914:	4e80      	ldr	r6, [pc, #512]	; (2b18 <Code_702+0xe>)
    2916:	6836      	ldr	r6, [r6, #0]
    2918:	4770      	bx	lr

0000291a <Dictionary_657>:
    291a:	00002a16 	andeq	r2, r0, r6, lsl sl
    291e:	660d8000 	strvs	r8, [sp], -r0
    2922:	6873616c 	ldmdavs	r3!, {r2, r3, r5, r6, r8, sp, lr}^
    2926:	2d726176 	ldfcse	f6, [r2, #-472]!	; 0xfffffe28
    292a:	65726568 	ldrbvs	r6, [r2, #-1384]!	; 0x568

0000292e <Code_657>:
    292e:	f847 6d04 	str.w	r6, [r7, #-4]!
    2932:	4e82      	ldr	r6, [pc, #520]	; (2b3c <Code_702+0x32>)
    2934:	6836      	ldr	r6, [r6, #0]
    2936:	4770      	bx	lr

00002938 <nullprobekomma>:
    2938:	b500      	push	{lr}
    293a:	f847 6d04 	str.w	r6, [r7, #-4]!
    293e:	f642 6600 	movw	r6, #11776	; 0x2e00
    2942:	f7ff fca1 	bl	2288 <Code_539>
    2946:	f847 6d04 	str.w	r6, [r7, #-4]!
    294a:	f64c 7640 	movw	r6, #53056	; 0xcf40
    294e:	f7ff fc9b 	bl	2288 <Code_539>
    2952:	bd00      	pop	{pc}

00002954 <branch_r>:
    2954:	e7dc      	b.n	2910 <Code_655>

00002956 <r_branch_jne>:
    2956:	b500      	push	{lr}
    2958:	f000 f83a 	bl	29d0 <branch_v>
    295c:	6839      	ldr	r1, [r7, #0]
    295e:	603e      	str	r6, [r7, #0]
    2960:	460e      	mov	r6, r1
    2962:	f847 6d04 	str.w	r6, [r7, #-4]!
    2966:	f24d 1600 	movw	r6, #53504	; 0xd100
    296a:	f7ff ff89 	bl	2880 <Code_646>
    296e:	bd00      	pop	{pc}

00002970 <r_branch_jvc>:
    2970:	b500      	push	{lr}
    2972:	f000 f82d 	bl	29d0 <branch_v>
    2976:	6839      	ldr	r1, [r7, #0]
    2978:	603e      	str	r6, [r7, #0]
    297a:	460e      	mov	r6, r1
    297c:	f847 6d04 	str.w	r6, [r7, #-4]!
    2980:	f24d 7600 	movw	r6, #55040	; 0xd700
    2984:	f7ff ff7c 	bl	2880 <Code_646>
    2988:	bd00      	pop	{pc}

0000298a <r_nullbranch>:
    298a:	b500      	push	{lr}
    298c:	f7ff ffd4 	bl	2938 <nullprobekomma>
    2990:	f000 f81e 	bl	29d0 <branch_v>
    2994:	6839      	ldr	r1, [r7, #0]
    2996:	603e      	str	r6, [r7, #0]
    2998:	460e      	mov	r6, r1
    299a:	f847 6d04 	str.w	r6, [r7, #-4]!
    299e:	f24d 0600 	movw	r6, #53248	; 0xd000
    29a2:	f7ff ff6d 	bl	2880 <Code_646>
    29a6:	bd00      	pop	{pc}

000029a8 <r_branch>:
    29a8:	b500      	push	{lr}
    29aa:	f000 f811 	bl	29d0 <branch_v>
    29ae:	6839      	ldr	r1, [r7, #0]
    29b0:	603e      	str	r6, [r7, #0]
    29b2:	460e      	mov	r6, r1
    29b4:	f7ff ff90 	bl	28d8 <Code_650>
    29b8:	bd00      	pop	{pc}

000029ba <nullbranch_v>:
    29ba:	b500      	push	{lr}
    29bc:	f7ff ffbc 	bl	2938 <nullprobekomma>
    29c0:	f7ff ffa6 	bl	2910 <Code_655>
    29c4:	f847 6d04 	str.w	r6, [r7, #-4]!
    29c8:	2602      	movs	r6, #2
    29ca:	f7ff fcc8 	bl	235e <Code_559>
    29ce:	bd00      	pop	{pc}

000029d0 <branch_v>:
    29d0:	b500      	push	{lr}
    29d2:	f7ff ff9d 	bl	2910 <Code_655>
    29d6:	f847 6d04 	str.w	r6, [r7, #-4]!
    29da:	2602      	movs	r6, #2
    29dc:	f7ff fcbf 	bl	235e <Code_559>
    29e0:	bd00      	pop	{pc}

000029e2 <v_branch>:
    29e2:	b500      	push	{lr}
    29e4:	f7ff ff94 	bl	2910 <Code_655>
    29e8:	f7ff ff76 	bl	28d8 <Code_650>
    29ec:	bd00      	pop	{pc}

000029ee <v_nullbranch>:
    29ee:	b500      	push	{lr}
    29f0:	f7ff ff8e 	bl	2910 <Code_655>
    29f4:	f847 6d04 	str.w	r6, [r7, #-4]!
    29f8:	f24d 0600 	movw	r6, #53248	; 0xd000
    29fc:	f7ff ff40 	bl	2880 <Code_646>
    2a00:	bd00      	pop	{pc}

00002a02 <v_casebranch>:
    2a02:	b500      	push	{lr}
    2a04:	f7ff ff84 	bl	2910 <Code_655>
    2a08:	f847 6d04 	str.w	r6, [r7, #-4]!
    2a0c:	f24d 1600 	movw	r6, #53504	; 0xd100
    2a10:	f7ff ff36 	bl	2880 <Code_646>
    2a14:	bd00      	pop	{pc}

00002a16 <Dictionary_681>:
    2a16:	00002a52 	andeq	r2, r0, r2, asr sl
    2a1a:	74048030 	strvc	r8, [r4], #-48	; 0x30
    2a1e:	006e6568 	rsbeq	r6, lr, r8, ror #10

00002a22 <Code_681>:
    2a22:	2e05      	cmp	r6, #5
    2a24:	d101      	bne.n	2a2a <Code_681+0x8>
    2a26:	cf40      	ldmia	r7!, {r6}
    2a28:	e7db      	b.n	29e2 <v_branch>
    2a2a:	2e02      	cmp	r6, #2
    2a2c:	d101      	bne.n	2a32 <strukturen_passen_nicht>
    2a2e:	cf40      	ldmia	r7!, {r6}
    2a30:	e7dd      	b.n	29ee <v_nullbranch>

00002a32 <strukturen_passen_nicht>:
    2a32:	f7fe ff0a 	bl	184a <dotgaensefuesschen>
    2a36:	72745317 	rsbsvc	r5, r4, #1543503872	; 0x5c000000
    2a3a:	75746375 	ldrbvc	r6, [r4, #-885]!	; 0x375
    2a3e:	20736572 	rsbscs	r6, r3, r2, ror r5
    2a42:	276e6f64 	strbcs	r6, [lr, -r4, ror #30]!
    2a46:	616d2074 	smcvs	53764	; 0xd204
    2a4a:	0a686374 	beq	1a1b822 <BIT24+0xa1b822>
    2a4e:	f000 bda1 	b.w	3594 <Code_920>

00002a52 <Dictionary_685>:
    2a52:	00002a7c 	andeq	r2, r0, ip, ror sl
    2a56:	65048030 	strvs	r8, [r4, #-48]	; 0x30
    2a5a:	0065736c 	rsbeq	r7, r5, ip, ror #6

00002a5e <Code_685>:
    2a5e:	b500      	push	{lr}
    2a60:	2e02      	cmp	r6, #2
    2a62:	d1e6      	bne.n	2a32 <strukturen_passen_nicht>
    2a64:	cf40      	ldmia	r7!, {r6}
    2a66:	f7ff ffb3 	bl	29d0 <branch_v>
    2a6a:	6839      	ldr	r1, [r7, #0]
    2a6c:	603e      	str	r6, [r7, #0]
    2a6e:	460e      	mov	r6, r1
    2a70:	f7ff ffbd 	bl	29ee <v_nullbranch>
    2a74:	f847 6d04 	str.w	r6, [r7, #-4]!
    2a78:	2605      	movs	r6, #5
    2a7a:	bd00      	pop	{pc}

00002a7c <Dictionary_690>:
    2a7c:	00002a94 	muleq	r0, r4, sl
    2a80:	69028030 	stmdbvs	r2, {r4, r5, pc}
    2a84:	b5000066 	strlt	r0, [r0, #-102]	; 0x66

00002a86 <Code_690>:
    2a86:	b500      	push	{lr}
    2a88:	f7ff ff97 	bl	29ba <nullbranch_v>
    2a8c:	f847 6d04 	str.w	r6, [r7, #-4]!
    2a90:	2602      	movs	r6, #2
    2a92:	bd00      	pop	{pc}

00002a94 <Dictionary_693>:
    2a94:	00002aba 			; <UNDEFINED> instruction: 0x00002aba
    2a98:	72068030 	andvc	r8, r6, #48	; 0x30
    2a9c:	61657065 	cmnvs	r5, r5, rrx
    2aa0:	2e040074 	mcrcs	0, 0, r0, cr4, cr4, {3}

00002aa2 <Code_693>:
    2aa2:	2e04      	cmp	r6, #4
    2aa4:	d1c5      	bne.n	2a32 <strukturen_passen_nicht>
    2aa6:	cf40      	ldmia	r7!, {r6}
    2aa8:	6839      	ldr	r1, [r7, #0]
    2aaa:	603e      	str	r6, [r7, #0]
    2aac:	460e      	mov	r6, r1
    2aae:	b500      	push	{lr}
    2ab0:	f7ff ff7a 	bl	29a8 <r_branch>
    2ab4:	f7ff ff9b 	bl	29ee <v_nullbranch>
    2ab8:	bd00      	pop	{pc}

00002aba <Dictionary_696>:
    2aba:	00002ad6 	ldrdeq	r2, [r0], -r6
    2abe:	77058030 	smladxvc	r5, r0, r0, r8
    2ac2:	656c6968 	strbvs	r6, [ip, #-2408]!	; 0x968

00002ac6 <Code_696>:
    2ac6:	2e01      	cmp	r6, #1
    2ac8:	d1b3      	bne.n	2a32 <strukturen_passen_nicht>
    2aca:	cf40      	ldmia	r7!, {r6}
    2acc:	b500      	push	{lr}
    2ace:	f7ff ffda 	bl	2a86 <Code_690>
    2ad2:	3602      	adds	r6, #2
    2ad4:	bd00      	pop	{pc}

00002ad6 <Dictionary_698>:
    2ad6:	00002aea 	andeq	r2, r0, sl, ror #21
    2ada:	75058030 	strvc	r8, [r5, #-48]	; 0x30
    2ade:	6c69746e 	cfstrdvs	mvd7, [r9], #-440	; 0xfffffe48

00002ae2 <Code_698>:
    2ae2:	2e01      	cmp	r6, #1
    2ae4:	d1a5      	bne.n	2a32 <strukturen_passen_nicht>
    2ae6:	cf40      	ldmia	r7!, {r6}
    2ae8:	e74f      	b.n	298a <r_nullbranch>

00002aea <Dictionary_700>:
    2aea:	00002afe 	strdeq	r2, [r0], -lr
    2aee:	61058030 	tstvs	r5, r0, lsr r0
    2af2:	6e696167 	powvsez	f6, f1, f7

00002af6 <Code_700>:
    2af6:	2e01      	cmp	r6, #1
    2af8:	d19b      	bne.n	2a32 <strukturen_passen_nicht>
    2afa:	cf40      	ldmia	r7!, {r6}
    2afc:	e754      	b.n	29a8 <r_branch>

00002afe <Dictionary_702>:
    2afe:	00002b40 	andeq	r2, r0, r0, asr #22
    2b02:	62058030 	andvs	r8, r5, #48	; 0x30
    2b06:	6e696765 	cdpvs	7, 6, cr6, cr9, cr5, {3}

00002b0a <Code_702>:
    2b0a:	b500      	push	{lr}
    2b0c:	f7ff ff22 	bl	2954 <branch_r>
    2b10:	f847 6d04 	str.w	r6, [r7, #-4]!
    2b14:	2601      	movs	r6, #1
    2b16:	bd00      	pop	{pc}
    2b18:	20000000 	andcs	r0, r0, r0
    2b1c:	000000f4 	strdeq	r0, [r0], -r4
    2b20:	20000004 	andcs	r0, r0, r4
    2b24:	00000000 	andeq	r0, r0, r0
    2b28:	ffffff01 			; <UNDEFINED> instruction: 0xffffff01
    2b2c:	ffffff00 			; <UNDEFINED> instruction: 0xffffff00
    2b30:	fffff801 			; <UNDEFINED> instruction: 0xfffff801
    2b34:	fffff800 			; <UNDEFINED> instruction: 0xfffff800
    2b38:	000007ff 	strdeq	r0, [r0], -pc	; <UNPREDICTABLE>
    2b3c:	20000024 	andcs	r0, r0, r4, lsr #32

00002b40 <Dictionary_705>:
    2b40:	00002b50 	andeq	r2, r0, r0, asr fp
    2b44:	6b018020 	blvs	62bcc <BIT18+0x22bcc>

00002b48 <Code_705>:
    2b48:	f847 6d04 	str.w	r6, [r7, #-4]!
    2b4c:	9e02      	ldr	r6, [sp, #8]
    2b4e:	4770      	bx	lr

00002b50 <Dictionary_707>:
    2b50:	00002b60 	andeq	r2, r0, r0, ror #22
    2b54:	6a018020 	bvs	62bdc <BIT18+0x22bdc>

00002b58 <Code_707>:
    2b58:	f847 6d04 	str.w	r6, [r7, #-4]!
    2b5c:	9e00      	ldr	r6, [sp, #0]
    2b5e:	4770      	bx	lr

00002b60 <Dictionary_709>:
    2b60:	00002b70 	andeq	r2, r0, r0, ror fp
    2b64:	69018020 	stmdbvs	r1, {r5, pc}

00002b68 <Code_709>:
    2b68:	f847 6d04 	str.w	r6, [r7, #-4]!
    2b6c:	0026      	movs	r6, r4
    2b6e:	4770      	bx	lr

00002b70 <Dictionary_712>:
    2b70:	00002bae 	andeq	r2, r0, lr, lsr #23
    2b74:	6c058030 	stcvs	0, cr8, [r5], {48}	; 0x30
    2b78:	65766165 	ldrbvs	r6, [r6, #-357]!	; 0x165

00002b7c <Code_712>:
    2b7c:	b500      	push	{lr}
    2b7e:	48d9      	ldr	r0, [pc, #868]	; (2ee4 <Code_795+0x4c>)
    2b80:	6801      	ldr	r1, [r0, #0]
    2b82:	003b      	movs	r3, r7
    2b84:	3f04      	subs	r7, #4
    2b86:	681a      	ldr	r2, [r3, #0]
    2b88:	3b04      	subs	r3, #4
    2b8a:	601a      	str	r2, [r3, #0]
    2b8c:	3308      	adds	r3, #8
    2b8e:	428b      	cmp	r3, r1
    2b90:	d1f9      	bne.n	2b86 <Code_712+0xa>
    2b92:	b403      	push	{r0, r1}
    2b94:	f7ff ff1c 	bl	29d0 <branch_v>
    2b98:	bc03      	pop	{r0, r1}
    2b9a:	0033      	movs	r3, r6
    2b9c:	cf40      	ldmia	r7!, {r6}
    2b9e:	3904      	subs	r1, #4
    2ba0:	600b      	str	r3, [r1, #0]
    2ba2:	6001      	str	r1, [r0, #0]
    2ba4:	3904      	subs	r1, #4
    2ba6:	680a      	ldr	r2, [r1, #0]
    2ba8:	3201      	adds	r2, #1
    2baa:	600a      	str	r2, [r1, #0]
    2bac:	bd00      	pop	{pc}

00002bae <Dictionary_714>:
    2bae:	00002bc0 	andeq	r2, r0, r0, asr #23
    2bb2:	75068020 	strvc	r8, [r6, #-32]
    2bb6:	6f6f6c6e 	svcvs	0x006f6c6e
    2bba:	bc300070 	ldclt	0, cr0, [r0], #-448	; 0xfffffe40

00002bbc <Code_714>:
    2bbc:	bc30      	pop	{r4, r5}
    2bbe:	4770      	bx	lr

00002bc0 <Dictionary_715>:
    2bc0:	00002bf8 	strdeq	r2, [r0], -r8
    2bc4:	2b058030 	blcs	162c8c <BIT20+0x62c8c>
    2bc8:	706f6f6c 	rsbvc	r6, pc, ip, ror #30

00002bcc <Code_715>:
    2bcc:	2e03      	cmp	r6, #3
    2bce:	d000      	beq.n	2bd2 <Code_715+0x6>
    2bd0:	e72f      	b.n	2a32 <strukturen_passen_nicht>
    2bd2:	cf40      	ldmia	r7!, {r6}
    2bd4:	b500      	push	{lr}
    2bd6:	f847 6d04 	str.w	r6, [r7, #-4]!
    2bda:	4ec3      	ldr	r6, [pc, #780]	; (2ee8 <Code_795+0x50>)
    2bdc:	f7ff f962 	bl	1ea4 <Code_465>
    2be0:	f7ff fec6 	bl	2970 <r_branch_jvc>
    2be4:	e01a      	b.n	2c1c <loop_intern>

00002be6 <struktur_plusloop>:
    2be6:	f114 4400 	adds.w	r4, r4, #2147483648	; 0x80000000
    2bea:	1b64      	subs	r4, r4, r5
    2bec:	19a4      	adds	r4, r4, r6
    2bee:	cf40      	ldmia	r7!, {r6}
    2bf0:	442c      	add	r4, r5
    2bf2:	f1a4 4400 	sub.w	r4, r4, #2147483648	; 0x80000000
    2bf6:	4770      	bx	lr

00002bf8 <Dictionary_719>:
    2bf8:	00002c3a 	andeq	r2, r0, sl, lsr ip
    2bfc:	6c048030 	stcvs	0, cr8, [r4], {48}	; 0x30
    2c00:	00706f6f 	rsbseq	r6, r0, pc, ror #30

00002c04 <Code_719>:
    2c04:	2e03      	cmp	r6, #3
    2c06:	d000      	beq.n	2c0a <Code_719+0x6>
    2c08:	e713      	b.n	2a32 <strukturen_passen_nicht>
    2c0a:	cf40      	ldmia	r7!, {r6}
    2c0c:	b500      	push	{lr}
    2c0e:	f847 6d04 	str.w	r6, [r7, #-4]!
    2c12:	4eb6      	ldr	r6, [pc, #728]	; (2eec <Code_795+0x54>)
    2c14:	f7ff f946 	bl	1ea4 <Code_465>
    2c18:	f7ff fe9d 	bl	2956 <r_branch_jne>

00002c1c <loop_intern>:
    2c1c:	f000 f918 	bl	2e50 <spruenge_einpflegen>
    2c20:	48b0      	ldr	r0, [pc, #704]	; (2ee4 <Code_795+0x4c>)
    2c22:	0031      	movs	r1, r6
    2c24:	cf40      	ldmia	r7!, {r6}
    2c26:	6001      	str	r1, [r0, #0]
    2c28:	f847 6d04 	str.w	r6, [r7, #-4]!
    2c2c:	4eb0      	ldr	r6, [pc, #704]	; (2ef0 <Code_795+0x58>)
    2c2e:	f7ff f939 	bl	1ea4 <Code_465>
    2c32:	bd00      	pop	{pc}

00002c34 <struktur_loop>:
    2c34:	3401      	adds	r4, #1
    2c36:	42ac      	cmp	r4, r5
    2c38:	4770      	bx	lr

00002c3a <Dictionary_724>:
    2c3a:	00002c82 	andeq	r2, r0, r2, lsl #25
    2c3e:	64028078 	strvs	r8, [r2], #-120	; 0x78
    2c42:	b500006f 	strlt	r0, [r0, #-111]	; 0x6f

00002c44 <Code_724>:
    2c44:	b500      	push	{lr}
    2c46:	f847 6d04 	str.w	r6, [r7, #-4]!
    2c4a:	4eaa      	ldr	r6, [pc, #680]	; (2ef4 <Code_795+0x5c>)
    2c4c:	f7ff f92a 	bl	1ea4 <Code_465>

00002c50 <do_rest_der_schleifenstruktur>:
    2c50:	48a4      	ldr	r0, [pc, #656]	; (2ee4 <Code_795+0x4c>)
    2c52:	6801      	ldr	r1, [r0, #0]
    2c54:	f847 6d04 	str.w	r6, [r7, #-4]!
    2c58:	000e      	movs	r6, r1
    2c5a:	f847 6d04 	str.w	r6, [r7, #-4]!
    2c5e:	2600      	movs	r6, #0
    2c60:	6007      	str	r7, [r0, #0]
    2c62:	f7ff fe77 	bl	2954 <branch_r>
    2c66:	f847 6d04 	str.w	r6, [r7, #-4]!
    2c6a:	2603      	movs	r6, #3
    2c6c:	bd00      	pop	{pc}
    2c6e:	b500      	push	{lr}
    2c70:	f000 f82f 	bl	2cd2 <gemeinsame_schleifenoptimierung>
    2c74:	e7ec      	b.n	2c50 <do_rest_der_schleifenstruktur>

00002c76 <struktur_do>:
    2c76:	b430      	push	{r4, r5}
    2c78:	0034      	movs	r4, r6
    2c7a:	cf40      	ldmia	r7!, {r6}
    2c7c:	0035      	movs	r5, r6
    2c7e:	cf40      	ldmia	r7!, {r6}
    2c80:	4770      	bx	lr

00002c82 <Dictionary_734>:
    2c82:	00002d1c 	andeq	r2, r0, ip, lsl sp
    2c86:	3f038078 	svccc	0x00038078
    2c8a:	b5006f64 	strlt	r6, [r0, #-3940]	; 0xf64

00002c8c <Code_734>:
    2c8c:	b500      	push	{lr}
    2c8e:	f847 6d04 	str.w	r6, [r7, #-4]!
    2c92:	4e98      	ldr	r6, [pc, #608]	; (2ef4 <Code_795+0x5c>)
    2c94:	f7ff f906 	bl	1ea4 <Code_465>

00002c98 <qdo_rest_der_schleifenstruktur>:
    2c98:	f847 6d04 	str.w	r6, [r7, #-4]!
    2c9c:	f244 26ac 	movw	r6, #17068	; 0x42ac
    2ca0:	f7ff faf2 	bl	2288 <Code_539>
    2ca4:	488f      	ldr	r0, [pc, #572]	; (2ee4 <Code_795+0x4c>)
    2ca6:	6801      	ldr	r1, [r0, #0]
    2ca8:	f847 6d04 	str.w	r6, [r7, #-4]!
    2cac:	000e      	movs	r6, r1
    2cae:	f7ff fe8f 	bl	29d0 <branch_v>
    2cb2:	3601      	adds	r6, #1
    2cb4:	f847 6d04 	str.w	r6, [r7, #-4]!
    2cb8:	2601      	movs	r6, #1
    2cba:	488a      	ldr	r0, [pc, #552]	; (2ee4 <Code_795+0x4c>)
    2cbc:	6007      	str	r7, [r0, #0]
    2cbe:	f7ff fe49 	bl	2954 <branch_r>
    2cc2:	f847 6d04 	str.w	r6, [r7, #-4]!
    2cc6:	2603      	movs	r6, #3
    2cc8:	bd00      	pop	{pc}
    2cca:	b500      	push	{lr}
    2ccc:	f000 f801 	bl	2cd2 <gemeinsame_schleifenoptimierung>
    2cd0:	e7e2      	b.n	2c98 <qdo_rest_der_schleifenstruktur>

00002cd2 <gemeinsame_schleifenoptimierung>:
    2cd2:	b500      	push	{lr}
    2cd4:	f847 6d04 	str.w	r6, [r7, #-4]!
    2cd8:	f24b 4630 	movw	r6, #46128	; 0xb430
    2cdc:	f7ff fad4 	bl	2288 <Code_539>
    2ce0:	f847 6d04 	str.w	r6, [r7, #-4]!
    2ce4:	2604      	movs	r6, #4
    2ce6:	f7fe ffa9 	bl	1c3c <Code_422>
    2cea:	3b01      	subs	r3, #1
    2cec:	d008      	beq.n	2d00 <gemeinsame_schleifenoptimierung+0x2e>
    2cee:	f847 6d04 	str.w	r6, [r7, #-4]!
    2cf2:	2605      	movs	r6, #5
    2cf4:	f7fe ffa2 	bl	1c3c <Code_422>
    2cf8:	3b01      	subs	r3, #1
    2cfa:	f000 fc24 	bl	3546 <konstantenschreiben>
    2cfe:	bd00      	pop	{pc}
    2d00:	f847 6d04 	str.w	r6, [r7, #-4]!
    2d04:	2635      	movs	r6, #53	; 0x35
    2d06:	f7ff fabf 	bl	2288 <Code_539>
    2d0a:	f847 6d04 	str.w	r6, [r7, #-4]!
    2d0e:	f64c 7640 	movw	r6, #53056	; 0xcf40
    2d12:	f7ff fab9 	bl	2288 <Code_539>
    2d16:	f000 fc16 	bl	3546 <konstantenschreiben>
    2d1a:	bd00      	pop	{pc}

00002d1c <Dictionary_754>:
    2d1c:	00002d36 	andeq	r2, r0, r6, lsr sp
    2d20:	63048030 	movwvs	r8, #16432	; 0x4030
    2d24:	00657361 	rsbeq	r7, r5, r1, ror #6

00002d28 <Code_754>:
    2d28:	f847 6d04 	str.w	r6, [r7, #-4]!
    2d2c:	2600      	movs	r6, #0
    2d2e:	f847 6d04 	str.w	r6, [r7, #-4]!
    2d32:	2608      	movs	r6, #8
    2d34:	4770      	bx	lr

00002d36 <Dictionary_759>:
    2d36:	00002d4c 	andeq	r2, r0, ip, asr #26
    2d3a:	3f038030 	svccc	0x00038030
    2d3e:	486d666f 	stmdami	sp!, {r0, r1, r2, r3, r5, r6, r9, sl, sp, lr}^

00002d40 <Code_759>:
    2d40:	486d      	ldr	r0, [pc, #436]	; (2ef8 <Code_795+0x60>)
    2d42:	e009      	b.n	2d58 <of_inneneinsprung>

00002d44 <struktur_qof>:
    2d44:	3e01      	subs	r6, #1
    2d46:	41b6      	sbcs	r6, r6
    2d48:	cf40      	ldmia	r7!, {r6}
    2d4a:	4770      	bx	lr

00002d4c <Dictionary_761>:
    2d4c:	00002df0 	strdeq	r2, [r0], -r0
    2d50:	6f028078 	svcvs	0x00028078
    2d54:	48690066 	stmdami	r9!, {r1, r2, r5, r6}^

00002d56 <Code_761>:
    2d56:	4869      	ldr	r0, [pc, #420]	; (2efc <Code_795+0x64>)

00002d58 <of_inneneinsprung>:
    2d58:	2e08      	cmp	r6, #8
    2d5a:	d000      	beq.n	2d5e <of_inneneinsprung+0x6>
    2d5c:	e669      	b.n	2a32 <strukturen_passen_nicht>
    2d5e:	cf40      	ldmia	r7!, {r6}
    2d60:	b500      	push	{lr}
    2d62:	f847 6d04 	str.w	r6, [r7, #-4]!
    2d66:	0006      	movs	r6, r0
    2d68:	f7ff f89c 	bl	1ea4 <Code_465>

00002d6c <of_opcodiereinsprung>:
    2d6c:	f7ff fe30 	bl	29d0 <branch_v>
    2d70:	6839      	ldr	r1, [r7, #0]
    2d72:	603e      	str	r6, [r7, #0]
    2d74:	460e      	mov	r6, r1
    2d76:	3601      	adds	r6, #1
    2d78:	f847 6d04 	str.w	r6, [r7, #-4]!
    2d7c:	2609      	movs	r6, #9
    2d7e:	f847 6d04 	str.w	r6, [r7, #-4]!
    2d82:	f64c 7640 	movw	r6, #53056	; 0xcf40
    2d86:	f7ff fa7f 	bl	2288 <Code_539>
    2d8a:	bd00      	pop	{pc}
    2d8c:	b500      	push	{lr}
    2d8e:	0030      	movs	r0, r6
    2d90:	cf40      	ldmia	r7!, {r6}
    2d92:	3b01      	subs	r3, #1
    2d94:	b401      	push	{r0}
    2d96:	f000 fbd6 	bl	3546 <konstantenschreiben>
    2d9a:	bc01      	pop	{r0}
    2d9c:	2e08      	cmp	r6, #8
    2d9e:	d000      	beq.n	2da2 <of_opcodiereinsprung+0x36>
    2da0:	e647      	b.n	2a32 <strukturen_passen_nicht>
    2da2:	cf40      	ldmia	r7!, {r6}
    2da4:	f847 6d04 	str.w	r6, [r7, #-4]!
    2da8:	0006      	movs	r6, r0
    2daa:	21ff      	movs	r1, #255	; 0xff
    2dac:	4031      	ands	r1, r6
    2dae:	42b1      	cmp	r1, r6
    2db0:	d104      	bne.n	2dbc <of_opcodiereinsprung+0x50>
    2db2:	4953      	ldr	r1, [pc, #332]	; (2f00 <Code_795+0x68>)
    2db4:	430e      	orrs	r6, r1
    2db6:	f7ff fa67 	bl	2288 <Code_539>
    2dba:	e7d7      	b.n	2d6c <of_opcodiereinsprung>
    2dbc:	f7fe fe8a 	bl	1ad4 <Code_413>
    2dc0:	2e00      	cmp	r6, #0
    2dc2:	cf40      	ldmia	r7!, {r6}
    2dc4:	d004      	beq.n	2dd0 <of_opcodiereinsprung+0x64>
    2dc6:	484f      	ldr	r0, [pc, #316]	; (2f04 <Code_795+0x6c>)
    2dc8:	4306      	orrs	r6, r0
    2dca:	f7ff fa85 	bl	22d8 <Code_548>
    2dce:	e7cd      	b.n	2d6c <of_opcodiereinsprung>
    2dd0:	f847 6d04 	str.w	r6, [r7, #-4]!
    2dd4:	2600      	movs	r6, #0
    2dd6:	f7fe ff31 	bl	1c3c <Code_422>
    2dda:	f847 6d04 	str.w	r6, [r7, #-4]!
    2dde:	f244 26b0 	movw	r6, #17072	; 0x42b0
    2de2:	f7ff fa51 	bl	2288 <Code_539>
    2de6:	e7c1      	b.n	2d6c <of_opcodiereinsprung>

00002de8 <struktur_of>:
    2de8:	0030      	movs	r0, r6
    2dea:	cf40      	ldmia	r7!, {r6}
    2dec:	42b0      	cmp	r0, r6
    2dee:	4770      	bx	lr

00002df0 <Dictionary_780>:
    2df0:	00002e26 	andeq	r2, r0, r6, lsr #28
    2df4:	65058030 	strvs	r8, [r5, #-48]	; 0x30
    2df8:	666f646e 	strbtvs	r6, [pc], -lr, ror #8

00002dfc <Code_780>:
    2dfc:	2e09      	cmp	r6, #9
    2dfe:	d000      	beq.n	2e02 <Code_780+0x6>
    2e00:	e617      	b.n	2a32 <strukturen_passen_nicht>
    2e02:	cf40      	ldmia	r7!, {r6}
    2e04:	b500      	push	{lr}
    2e06:	b440      	push	{r6}
    2e08:	cf40      	ldmia	r7!, {r6}
    2e0a:	f7ff fde1 	bl	29d0 <branch_v>
    2e0e:	6839      	ldr	r1, [r7, #0]
    2e10:	603e      	str	r6, [r7, #0]
    2e12:	460e      	mov	r6, r1
    2e14:	f7ff fdf5 	bl	2a02 <v_casebranch>
    2e18:	f847 6d04 	str.w	r6, [r7, #-4]!
    2e1c:	bc40      	pop	{r6}
    2e1e:	f847 6d04 	str.w	r6, [r7, #-4]!
    2e22:	2608      	movs	r6, #8
    2e24:	bd00      	pop	{pc}

00002e26 <Dictionary_788>:
    2e26:	00002e78 	andeq	r2, r0, r8, ror lr
    2e2a:	65078030 	strvs	r8, [r7, #-48]	; 0x30
    2e2e:	6163646e 	cmnvs	r3, lr, ror #8
    2e32:	2e086573 	cfrshl64cs	mvdx8, mvdx3, r6

00002e34 <Code_788>:
    2e34:	2e08      	cmp	r6, #8
    2e36:	d000      	beq.n	2e3a <Code_788+0x6>
    2e38:	e5fb      	b.n	2a32 <strukturen_passen_nicht>
    2e3a:	cf40      	ldmia	r7!, {r6}
    2e3c:	b500      	push	{lr}
    2e3e:	f847 6d04 	str.w	r6, [r7, #-4]!
    2e42:	f64c 7640 	movw	r6, #53056	; 0xcf40
    2e46:	f7ff fa1f 	bl	2288 <Code_539>
    2e4a:	f000 f801 	bl	2e50 <spruenge_einpflegen>
    2e4e:	bd00      	pop	{pc}

00002e50 <spruenge_einpflegen>:
    2e50:	b500      	push	{lr}
    2e52:	0030      	movs	r0, r6
    2e54:	cf40      	ldmia	r7!, {r6}
    2e56:	2800      	cmp	r0, #0
    2e58:	d00d      	beq.n	2e76 <spruenge_einpflegen+0x26>
    2e5a:	b403      	push	{r0, r1}
    2e5c:	2101      	movs	r1, #1
    2e5e:	4031      	ands	r1, r6
    2e60:	2900      	cmp	r1, #0
    2e62:	d003      	beq.n	2e6c <spruenge_einpflegen+0x1c>
    2e64:	3e01      	subs	r6, #1
    2e66:	f7ff fdc2 	bl	29ee <v_nullbranch>
    2e6a:	e001      	b.n	2e70 <spruenge_einpflegen+0x20>
    2e6c:	f7ff fdb9 	bl	29e2 <v_branch>
    2e70:	bc03      	pop	{r0, r1}
    2e72:	3801      	subs	r0, #1
    2e74:	e7ef      	b.n	2e56 <spruenge_einpflegen+0x6>
    2e76:	bd00      	pop	{pc}

00002e78 <Dictionary_793>:
    2e78:	00002e8c 	andeq	r2, r0, ip, lsl #29
    2e7c:	74058000 	strvc	r8, [r5]
    2e80:	6e656b6f 	vnmulvs.f64	d22, d5, d31

00002e84 <Code_793>:
    2e84:	f847 6d04 	str.w	r6, [r7, #-4]!
    2e88:	2620      	movs	r6, #32
    2e8a:	e005      	b.n	2e98 <Code_795>

00002e8c <Dictionary_795>:
    2e8c:	00002f0c 	andeq	r2, r0, ip, lsl #30
    2e90:	70058000 	andvc	r8, r5, r0
    2e94:	65737261 	ldrbvs	r7, [r3, #-609]!	; 0x261

00002e98 <Code_795>:
    2e98:	b510      	push	{r4, lr}
    2e9a:	f7fe fc20 	bl	16de <Code_321>
    2e9e:	0031      	movs	r1, r6
    2ea0:	cf40      	ldmia	r7!, {r6}
    2ea2:	0030      	movs	r0, r6
    2ea4:	cf40      	ldmia	r7!, {r6}
    2ea6:	4a18      	ldr	r2, [pc, #96]	; (2f08 <Code_795+0x70>)
    2ea8:	6812      	ldr	r2, [r2, #0]
    2eaa:	1884      	adds	r4, r0, r2
    2eac:	2e20      	cmp	r6, #32
    2eae:	d107      	bne.n	2ec0 <Code_795+0x28>
    2eb0:	4291      	cmp	r1, r2
    2eb2:	d00f      	beq.n	2ed4 <Code_795+0x3c>
    2eb4:	5c83      	ldrb	r3, [r0, r2]
    2eb6:	42b3      	cmp	r3, r6
    2eb8:	d102      	bne.n	2ec0 <Code_795+0x28>
    2eba:	3201      	adds	r2, #1
    2ebc:	1884      	adds	r4, r0, r2
    2ebe:	e7f7      	b.n	2eb0 <Code_795+0x18>
    2ec0:	4291      	cmp	r1, r2
    2ec2:	d007      	beq.n	2ed4 <Code_795+0x3c>
    2ec4:	5c83      	ldrb	r3, [r0, r2]
    2ec6:	3201      	adds	r2, #1
    2ec8:	42b3      	cmp	r3, r6
    2eca:	d1f9      	bne.n	2ec0 <Code_795+0x28>
    2ecc:	1886      	adds	r6, r0, r2
    2ece:	1b36      	subs	r6, r6, r4
    2ed0:	3e01      	subs	r6, #1
    2ed2:	e001      	b.n	2ed8 <Code_795+0x40>
    2ed4:	1886      	adds	r6, r0, r2
    2ed6:	1b36      	subs	r6, r6, r4
    2ed8:	3f04      	subs	r7, #4
    2eda:	603c      	str	r4, [r7, #0]
    2edc:	480a      	ldr	r0, [pc, #40]	; (2f08 <Code_795+0x70>)
    2ede:	6002      	str	r2, [r0, #0]
    2ee0:	bd10      	pop	{r4, pc}
    2ee2:	000c0000 	andeq	r0, ip, r0
    2ee6:	2be62000 	blcs	ff98aeee <BIT31+0x7f98aeee>
    2eea:	2c340000 	ldccs	0, cr0, [r4]
    2eee:	2bbc0000 	blcs	fef02ef6 <BIT31+0x7ef02ef6>
    2ef2:	2c760000 	ldclcs	0, cr0, [r6]
    2ef6:	2d440000 	stclcs	0, cr0, [r4]
    2efa:	2de80000 	stclcs	0, cr0, [r8]
    2efe:	2e000000 	cdpcs	0, 0, cr0, cr0, cr0, {0}
    2f02:	0f000000 	svceq	0x00000000
    2f06:	3fe4f1b6 	svccc	0x00e4f1b6
    2f0a:	2f4a2000 	svccs	0x004a2000

00002f0c <Dictionary_798>:
    2f0c:	00002f4a 	andeq	r2, r0, sl, asr #30
    2f10:	64058000 	strvs	r8, [r5]
    2f14:	74696769 	strbtvc	r6, [r9], #-1897	; 0x769

00002f18 <Code_798>:
    2f18:	4bcf      	ldr	r3, [pc, #828]	; (3258 <Code_861+0xa>)
    2f1a:	681b      	ldr	r3, [r3, #0]

00002f1c <digit_base_r3>:
    2f1c:	3e30      	subs	r6, #48	; 0x30
    2f1e:	d30b      	bcc.n	2f38 <digit_base_r3+0x1c>
    2f20:	2e0a      	cmp	r6, #10
    2f22:	d30b      	bcc.n	2f3c <digit_base_r3+0x20>
    2f24:	3e07      	subs	r6, #7
    2f26:	2e0a      	cmp	r6, #10
    2f28:	d306      	bcc.n	2f38 <digit_base_r3+0x1c>
    2f2a:	2e24      	cmp	r6, #36	; 0x24
    2f2c:	d306      	bcc.n	2f3c <digit_base_r3+0x20>
    2f2e:	3e20      	subs	r6, #32
    2f30:	2e0a      	cmp	r6, #10
    2f32:	d301      	bcc.n	2f38 <digit_base_r3+0x1c>
    2f34:	2e24      	cmp	r6, #36	; 0x24
    2f36:	d301      	bcc.n	2f3c <digit_base_r3+0x20>
    2f38:	2600      	movs	r6, #0
    2f3a:	4770      	bx	lr
    2f3c:	429e      	cmp	r6, r3
    2f3e:	d2fb      	bcs.n	2f38 <digit_base_r3+0x1c>
    2f40:	f847 6d04 	str.w	r6, [r7, #-4]!
    2f44:	2600      	movs	r6, #0
    2f46:	43f6      	mvns	r6, r6
    2f48:	4770      	bx	lr

00002f4a <Dictionary_800>:
    2f4a:	00003054 	andeq	r3, r0, r4, asr r0
    2f4e:	6e068000 	cdpvs	0, 0, cr8, cr6, cr0, {0}
    2f52:	65626d75 	strbvs	r6, [r2, #-3445]!	; 0xd75
    2f56:	b53f0072 	ldrlt	r0, [pc, #-114]!	; 2eec <Code_795+0x54>

00002f58 <Code_800>:
    2f58:	b53f      	push	{r0, r1, r2, r3, r4, r5, lr}
    2f5a:	0031      	movs	r1, r6
    2f5c:	cf40      	ldmia	r7!, {r6}
    2f5e:	1e70      	subs	r0, r6, #1
    2f60:	2601      	movs	r6, #1
    2f62:	2201      	movs	r2, #1
    2f64:	b404      	push	{r2}
    2f66:	4bbc      	ldr	r3, [pc, #752]	; (3258 <Code_861+0xa>)
    2f68:	681b      	ldr	r3, [r3, #0]
    2f6a:	2400      	movs	r4, #0
    2f6c:	2500      	movs	r5, #0
    2f6e:	2900      	cmp	r1, #0
    2f70:	d03c      	beq.n	2fec <Code_800+0x94>
    2f72:	3001      	adds	r0, #1
    2f74:	3901      	subs	r1, #1
    2f76:	7802      	ldrb	r2, [r0, #0]
    2f78:	2a2d      	cmp	r2, #45	; 0x2d
    2f7a:	d104      	bne.n	2f86 <Code_800+0x2e>
    2f7c:	b001      	add	sp, #4
    2f7e:	2200      	movs	r2, #0
    2f80:	43d2      	mvns	r2, r2
    2f82:	b404      	push	{r2}
    2f84:	e7f3      	b.n	2f6e <Code_800+0x16>
    2f86:	2a23      	cmp	r2, #35	; 0x23
    2f88:	d101      	bne.n	2f8e <Code_800+0x36>
    2f8a:	230a      	movs	r3, #10
    2f8c:	e7ef      	b.n	2f6e <Code_800+0x16>
    2f8e:	2a24      	cmp	r2, #36	; 0x24
    2f90:	d101      	bne.n	2f96 <Code_800+0x3e>
    2f92:	2310      	movs	r3, #16
    2f94:	e7eb      	b.n	2f6e <Code_800+0x16>
    2f96:	2a25      	cmp	r2, #37	; 0x25
    2f98:	d101      	bne.n	2f9e <Code_800+0x46>
    2f9a:	2302      	movs	r3, #2
    2f9c:	e7e7      	b.n	2f6e <Code_800+0x16>
    2f9e:	2a2e      	cmp	r2, #46	; 0x2e
    2fa0:	d101      	bne.n	2fa6 <Code_800+0x4e>
    2fa2:	2602      	movs	r6, #2
    2fa4:	e7e3      	b.n	2f6e <Code_800+0x16>
    2fa6:	2a2c      	cmp	r2, #44	; 0x2c
    2fa8:	d036      	beq.n	3018 <number_nachkommastellen>
    2faa:	f847 6d04 	str.w	r6, [r7, #-4]!
    2fae:	0016      	movs	r6, r2
    2fb0:	f7ff ffb4 	bl	2f1c <digit_base_r3>
    2fb4:	2e00      	cmp	r6, #0
    2fb6:	cf40      	ldmia	r7!, {r6}
    2fb8:	d02b      	beq.n	3012 <Code_800+0xba>
    2fba:	f847 6d04 	str.w	r6, [r7, #-4]!
    2fbe:	0026      	movs	r6, r4
    2fc0:	f847 6d04 	str.w	r6, [r7, #-4]!
    2fc4:	002e      	movs	r6, r5
    2fc6:	f847 6d04 	str.w	r6, [r7, #-4]!
    2fca:	001e      	movs	r6, r3
    2fcc:	f847 6d04 	str.w	r6, [r7, #-4]!
    2fd0:	2600      	movs	r6, #0
    2fd2:	b40f      	push	{r0, r1, r2, r3}
    2fd4:	f7fd f9ba 	bl	34c <Code_50>
    2fd8:	bc0f      	pop	{r0, r1, r2, r3}
    2fda:	0035      	movs	r5, r6
    2fdc:	cf40      	ldmia	r7!, {r6}
    2fde:	0034      	movs	r4, r6
    2fe0:	cf40      	ldmia	r7!, {r6}
    2fe2:	2200      	movs	r2, #0
    2fe4:	19a4      	adds	r4, r4, r6
    2fe6:	4155      	adcs	r5, r2
    2fe8:	cf40      	ldmia	r7!, {r6}
    2fea:	e7c0      	b.n	2f6e <Code_800+0x16>
    2fec:	bc04      	pop	{r2}
    2fee:	2a00      	cmp	r2, #0
    2ff0:	d504      	bpl.n	2ffc <Code_800+0xa4>
    2ff2:	2200      	movs	r2, #0
    2ff4:	43e4      	mvns	r4, r4
    2ff6:	43ed      	mvns	r5, r5
    2ff8:	3401      	adds	r4, #1
    2ffa:	4155      	adcs	r5, r2
    2ffc:	0033      	movs	r3, r6
    2ffe:	0026      	movs	r6, r4
    3000:	2b01      	cmp	r3, #1
    3002:	d002      	beq.n	300a <Code_800+0xb2>
    3004:	f847 6d04 	str.w	r6, [r7, #-4]!
    3008:	002e      	movs	r6, r5
    300a:	f847 6d04 	str.w	r6, [r7, #-4]!
    300e:	001e      	movs	r6, r3
    3010:	bd3f      	pop	{r0, r1, r2, r3, r4, r5, pc}
    3012:	b001      	add	sp, #4
    3014:	2600      	movs	r6, #0
    3016:	bd3f      	pop	{r0, r1, r2, r3, r4, r5, pc}

00003018 <number_nachkommastellen>:
    3018:	0025      	movs	r5, r4
    301a:	2400      	movs	r4, #0
    301c:	2602      	movs	r6, #2
    301e:	2900      	cmp	r1, #0
    3020:	d0e4      	beq.n	2fec <Code_800+0x94>
    3022:	5c42      	ldrb	r2, [r0, r1]
    3024:	3901      	subs	r1, #1
    3026:	2a2e      	cmp	r2, #46	; 0x2e
    3028:	d0f9      	beq.n	301e <number_nachkommastellen+0x6>
    302a:	f847 6d04 	str.w	r6, [r7, #-4]!
    302e:	0016      	movs	r6, r2
    3030:	f7ff ff74 	bl	2f1c <digit_base_r3>
    3034:	2e00      	cmp	r6, #0
    3036:	cf40      	ldmia	r7!, {r6}
    3038:	d0eb      	beq.n	3012 <Code_800+0xba>
    303a:	3f04      	subs	r7, #4
    303c:	603c      	str	r4, [r7, #0]
    303e:	f847 6d04 	str.w	r6, [r7, #-4]!
    3042:	001e      	movs	r6, r3
    3044:	b40f      	push	{r0, r1, r2, r3}
    3046:	f7fd fa30 	bl	4aa <Code_86>
    304a:	bc0f      	pop	{r0, r1, r2, r3}
    304c:	0034      	movs	r4, r6
    304e:	cf40      	ldmia	r7!, {r6}
    3050:	cf40      	ldmia	r7!, {r6}
    3052:	e7e4      	b.n	301e <number_nachkommastellen+0x6>

00003054 <Dictionary_827>:
    3054:	00003076 	andeq	r3, r0, r6, ror r0
    3058:	2e068000 	cdpcs	0, 0, cr8, cr6, cr0, {0}
    305c:	69676964 	stmdbvs	r7!, {r2, r5, r6, r8, fp, sp, lr}^
    3060:	2e0a0074 	mcrcs	0, 0, r0, cr10, cr4, {3}

00003062 <Code_827>:
    3062:	2e0a      	cmp	r6, #10
    3064:	d201      	bcs.n	306a <Code_827+0x8>
    3066:	3630      	adds	r6, #48	; 0x30
    3068:	4770      	bx	lr
    306a:	2e24      	cmp	r6, #36	; 0x24
    306c:	d201      	bcs.n	3072 <Code_827+0x10>
    306e:	3637      	adds	r6, #55	; 0x37
    3070:	4770      	bx	lr
    3072:	2623      	movs	r6, #35	; 0x23
    3074:	4770      	bx	lr

00003076 <Dictionary_828>:
    3076:	000030ac 	andeq	r3, r0, ip, lsr #1
    307a:	68048000 	stmdavs	r4, {pc}
    307e:	00646c6f 	rsbeq	r6, r4, pc, ror #24

00003082 <Code_828>:
    3082:	0033      	movs	r3, r6
    3084:	cf40      	ldmia	r7!, {r6}
    3086:	4875      	ldr	r0, [pc, #468]	; (325c <Code_861+0xe>)
    3088:	7801      	ldrb	r1, [r0, #0]
    308a:	293f      	cmp	r1, #63	; 0x3f
    308c:	d20d      	bcs.n	30aa <Code_828+0x28>
    308e:	3101      	adds	r1, #1
    3090:	7001      	strb	r1, [r0, #0]
    3092:	1840      	adds	r0, r0, r1
    3094:	2901      	cmp	r1, #1
    3096:	d007      	beq.n	30a8 <Code_828+0x26>
    3098:	3801      	subs	r0, #1
    309a:	7802      	ldrb	r2, [r0, #0]
    309c:	3001      	adds	r0, #1
    309e:	7002      	strb	r2, [r0, #0]
    30a0:	3801      	subs	r0, #1
    30a2:	3901      	subs	r1, #1
    30a4:	2901      	cmp	r1, #1
    30a6:	d1f7      	bne.n	3098 <Code_828+0x16>
    30a8:	7003      	strb	r3, [r0, #0]
    30aa:	4770      	bx	lr

000030ac <Dictionary_830>:
    30ac:	000030cc 	andeq	r3, r0, ip, asr #1
    30b0:	68058000 	stmdavs	r5, {pc}
    30b4:	3c646c6f 	stclcc	12, cr6, [r4], #-444	; 0xfffffe44

000030b8 <Code_830>:
    30b8:	0033      	movs	r3, r6
    30ba:	cf40      	ldmia	r7!, {r6}
    30bc:	4867      	ldr	r0, [pc, #412]	; (325c <Code_861+0xe>)
    30be:	7801      	ldrb	r1, [r0, #0]
    30c0:	293f      	cmp	r1, #63	; 0x3f
    30c2:	d202      	bcs.n	30ca <Code_830+0x12>
    30c4:	3101      	adds	r1, #1
    30c6:	7001      	strb	r1, [r0, #0]
    30c8:	5443      	strb	r3, [r0, r1]
    30ca:	4770      	bx	lr

000030cc <Dictionary_832>:
    30cc:	000030e4 	andeq	r3, r0, r4, ror #1
    30d0:	73048000 	movwvc	r8, #16384	; 0x4000
    30d4:	006e6769 	rsbeq	r6, lr, r9, ror #14

000030d8 <Code_832>:
    30d8:	2e00      	cmp	r6, #0
    30da:	d401      	bmi.n	30e0 <Code_832+0x8>
    30dc:	cf40      	ldmia	r7!, {r6}
    30de:	4770      	bx	lr
    30e0:	262d      	movs	r6, #45	; 0x2d
    30e2:	e7ce      	b.n	3082 <Code_828>

000030e4 <Dictionary_834>:
    30e4:	000030f8 	strdeq	r3, [r0], -r8
    30e8:	23028000 	movwcs	r8, #8192	; 0x2000
    30ec:	485b003e 	ldmdami	fp, {r1, r2, r3, r4, r5}^

000030ee <Code_834>:
    30ee:	485b      	ldr	r0, [pc, #364]	; (325c <Code_861+0xe>)
    30f0:	7806      	ldrb	r6, [r0, #0]
    30f2:	3001      	adds	r0, #1
    30f4:	6038      	str	r0, [r7, #0]
    30f6:	4770      	bx	lr

000030f8 <Dictionary_835>:
    30f8:	00003110 	andeq	r3, r0, r0, lsl r1
    30fc:	66038000 	strvs	r8, [r3], -r0
    3100:	b5105323 	ldrlt	r5, [r0, #-803]	; 0x323

00003102 <Code_835>:
    3102:	b510      	push	{r4, lr}
    3104:	2420      	movs	r4, #32
    3106:	f000 f808 	bl	311a <Code_836>
    310a:	3c01      	subs	r4, #1
    310c:	d1fb      	bne.n	3106 <Code_835+0x4>
    310e:	bd10      	pop	{r4, pc}

00003110 <Dictionary_836>:
    3110:	00003132 	andeq	r3, r0, r2, lsr r1
    3114:	66028000 	strvs	r8, [r2], -r0
    3118:	b5000023 	strlt	r0, [r0, #-35]	; 0x23

0000311a <Code_836>:
    311a:	b500      	push	{lr}
    311c:	f847 6d04 	str.w	r6, [r7, #-4]!
    3120:	4e4d      	ldr	r6, [pc, #308]	; (3258 <Code_861+0xa>)
    3122:	6836      	ldr	r6, [r6, #0]
    3124:	f7fd f8fe 	bl	324 <Code_48>
    3128:	f7ff ff9b 	bl	3062 <Code_827>
    312c:	f7ff ffc4 	bl	30b8 <Code_830>
    3130:	bd00      	pop	{pc}

00003132 <Dictionary_838>:
    3132:	0000314e 	andeq	r3, r0, lr, asr #2
    3136:	23028000 	movwcs	r8, #8192	; 0x2000
    313a:	b5000053 	strlt	r0, [r0, #-83]	; 0x53

0000313c <Code_838>:
    313c:	b500      	push	{lr}
    313e:	f000 f80a 	bl	3156 <Code_839>
    3142:	2e00      	cmp	r6, #0
    3144:	d1fb      	bne.n	313e <Code_838+0x2>
    3146:	6838      	ldr	r0, [r7, #0]
    3148:	2800      	cmp	r0, #0
    314a:	d1f8      	bne.n	313e <Code_838+0x2>
    314c:	bd00      	pop	{pc}

0000314e <Dictionary_839>:
    314e:	0000317a 	andeq	r3, r0, sl, ror r1
    3152:	23018000 	movwcs	r8, #4096	; 0x1000

00003156 <Code_839>:
    3156:	b500      	push	{lr}
    3158:	f847 6d04 	str.w	r6, [r7, #-4]!
    315c:	4e3e      	ldr	r6, [pc, #248]	; (3258 <Code_861+0xa>)
    315e:	6836      	ldr	r6, [r6, #0]
    3160:	f847 6d04 	str.w	r6, [r7, #-4]!
    3164:	2600      	movs	r6, #0
    3166:	f7fd f9bf 	bl	4e8 <Code_95>
    316a:	f7fc fff1 	bl	150 <Code_22>
    316e:	cf40      	ldmia	r7!, {r6}
    3170:	f7ff ff77 	bl	3062 <Code_827>
    3174:	f7ff ff85 	bl	3082 <Code_828>
    3178:	bd00      	pop	{pc}

0000317a <Dictionary_844>:
    317a:	0000318c 	andeq	r3, r0, ip, lsl #3
    317e:	3c028000 	stccc	0, cr8, [r2], {0}
    3182:	48350023 	ldmdami	r5!, {r0, r1, r5}

00003184 <Code_844>:
    3184:	4835      	ldr	r0, [pc, #212]	; (325c <Code_861+0xe>)
    3186:	2100      	movs	r1, #0
    3188:	7001      	strb	r1, [r0, #0]
    318a:	4770      	bx	lr

0000318c <Dictionary_845>:
    318c:	0000319e 	muleq	r0, lr, r1
    3190:	66028000 	strvs	r8, [r2], -r0
    3194:	f847002e 			; <UNDEFINED> instruction: 0xf847002e

00003196 <Code_845>:
    3196:	f847 6d04 	str.w	r6, [r7, #-4]!
    319a:	2620      	movs	r6, #32
    319c:	e004      	b.n	31a8 <Code_848>

0000319e <Dictionary_848>:
    319e:	000031ec 	andeq	r3, r0, ip, ror #3
    31a2:	66038000 	strvs	r8, [r3], -r0
    31a6:	b5006e2e 	strlt	r6, [r0, #-3630]	; 0xe2e

000031a8 <Code_848>:
    31a8:	b500      	push	{lr}
    31aa:	b410      	push	{r4}
    31ac:	0034      	movs	r4, r6
    31ae:	cf40      	ldmia	r7!, {r6}
    31b0:	f7fd fb29 	bl	806 <Code_132>
    31b4:	f7fd f87f 	bl	2b6 <Code_42>
    31b8:	f847 6d04 	str.w	r6, [r7, #-4]!
    31bc:	2600      	movs	r6, #0
    31be:	f7ff ffe1 	bl	3184 <Code_844>
    31c2:	f7ff ffbb 	bl	313c <Code_838>
    31c6:	cf40      	ldmia	r7!, {r6}
    31c8:	262c      	movs	r6, #44	; 0x2c
    31ca:	f7ff ff75 	bl	30b8 <Code_830>
    31ce:	2c00      	cmp	r4, #0
    31d0:	d003      	beq.n	31da <Code_848+0x32>
    31d2:	f7ff ffa2 	bl	311a <Code_836>
    31d6:	3c01      	subs	r4, #1
    31d8:	d1fb      	bne.n	31d2 <Code_848+0x2a>
    31da:	bc10      	pop	{r4}
    31dc:	cf40      	ldmia	r7!, {r6}
    31de:	f7ff ff7b 	bl	30d8 <Code_832>
    31e2:	f847 6d04 	str.w	r6, [r7, #-4]!
    31e6:	f847 6d04 	str.w	r6, [r7, #-4]!
    31ea:	e01c      	b.n	3226 <abschluss_zahlenausgabe>

000031ec <Dictionary_856>:
    31ec:	00003202 	andeq	r3, r0, r2, lsl #4
    31f0:	75038000 	strvc	r8, [r3]
    31f4:	b5002e64 	strlt	r2, [r0, #-3684]	; 0xe64

000031f6 <Code_856>:
    31f6:	b500      	push	{lr}
    31f8:	f7ff ffc4 	bl	3184 <Code_844>
    31fc:	f7ff ff9e 	bl	313c <Code_838>
    3200:	e011      	b.n	3226 <abschluss_zahlenausgabe>

00003202 <Dictionary_857>:
    3202:	00003234 	andeq	r3, r0, r4, lsr r2
    3206:	64028000 	strvs	r8, [r2]
    320a:	b500002e 	strlt	r0, [r0, #-46]	; 0x2e

0000320c <Code_857>:
    320c:	b500      	push	{lr}
    320e:	f7fd fafa 	bl	806 <Code_132>
    3212:	f7fd f850 	bl	2b6 <Code_42>
    3216:	f7ff ffb5 	bl	3184 <Code_844>
    321a:	f7ff ff8f 	bl	313c <Code_838>
    321e:	f7fd fafc 	bl	81a <Code_133>
    3222:	f7ff ff59 	bl	30d8 <Code_832>

00003226 <abschluss_zahlenausgabe>:
    3226:	f7ff ff62 	bl	30ee <Code_834>
    322a:	f7fe fb6a 	bl	1902 <Code_373>
    322e:	f7fe fabb 	bl	17a8 <Code_338>
    3232:	bd00      	pop	{pc}

00003234 <Dictionary_858>:
    3234:	00003246 	andeq	r3, r0, r6, asr #4
    3238:	75028000 	strvc	r8, [r2]
    323c:	f847002e 			; <UNDEFINED> instruction: 0xf847002e

0000323e <Code_858>:
    323e:	f847 6d04 	str.w	r6, [r7, #-4]!
    3242:	2600      	movs	r6, #0
    3244:	e7d7      	b.n	31f6 <Code_856>

00003246 <Dictionary_861>:
    3246:	00003260 	andeq	r3, r0, r0, ror #4
    324a:	2e018000 	cdpcs	0, 0, cr8, cr1, cr0, {0}

0000324e <Code_861>:
    324e:	f847 6d04 	str.w	r6, [r7, #-4]!
    3252:	17f6      	asrs	r6, r6, #31
    3254:	e7da      	b.n	320c <Code_857>
    3256:	3ffc0000 	svccc	0x00fc0000
    325a:	00282000 	eoreq	r2, r8, r0
    325e:	32a82000 	adccc	r2, r8, #0

00003260 <Dictionary_863>:
    3260:	000032a8 	andeq	r3, r0, r8, lsr #5
    3264:	65088000 	strvs	r8, [r8]
    3268:	756c6176 	strbvc	r6, [ip, #-374]!	; 0x176
    326c:	00657461 	rsbeq	r7, r5, r1, ror #8

00003270 <Code_863>:
    3270:	b500      	push	{lr}
    3272:	f7fe fa34 	bl	16de <Code_321>
    3276:	cf01      	ldmia	r7!, {r0}
    3278:	b401      	push	{r0}
    327a:	b440      	push	{r6}
    327c:	cf40      	ldmia	r7!, {r6}
    327e:	48d5      	ldr	r0, [pc, #852]	; (35d4 <quit_innenschleife+0x14>)
    3280:	6801      	ldr	r1, [r0, #0]
    3282:	b402      	push	{r1}
    3284:	2100      	movs	r1, #0
    3286:	6001      	str	r1, [r0, #0]
    3288:	f7fe fa1c 	bl	16c4 <Code_319>
    328c:	f000 f814 	bl	32b8 <Code_865>
    3290:	48d0      	ldr	r0, [pc, #832]	; (35d4 <quit_innenschleife+0x14>)
    3292:	bc02      	pop	{r1}
    3294:	6001      	str	r1, [r0, #0]
    3296:	f847 6d04 	str.w	r6, [r7, #-4]!
    329a:	bc40      	pop	{r6}
    329c:	bc01      	pop	{r0}
    329e:	3f04      	subs	r7, #4
    32a0:	6038      	str	r0, [r7, #0]
    32a2:	f7fe fa0f 	bl	16c4 <Code_319>
    32a6:	bd00      	pop	{pc}

000032a8 <Dictionary_865>:
    32a8:	0000356c 	andeq	r3, r0, ip, ror #10
    32ac:	69098000 	stmdbvs	r9, {pc}
    32b0:	7265746e 	rsbvc	r7, r5, #1845493760	; 0x6e000000
    32b4:	74657270 	strbtvc	r7, [r5], #-624	; 0x270

000032b8 <Code_865>:
    32b8:	b530      	push	{r4, r5, lr}
    32ba:	48c7      	ldr	r0, [pc, #796]	; (35d8 <quit_innenschleife+0x18>)
    32bc:	4287      	cmp	r7, r0
    32be:	d90b      	bls.n	32d8 <Code_865+0x20>
    32c0:	f7fe fac3 	bl	184a <dotgaensefuesschen>
    32c4:	61745310 	cmnvs	r4, r0, lsl r3
    32c8:	75206b63 	strvc	r6, [r0, #-2915]!	; 0xb63
    32cc:	7265646e 	rsbvc	r6, r5, #1845493760	; 0x6e000000
    32d0:	776f6c66 	strbvc	r6, [pc, -r6, ror #24]!
    32d4:	e15d000a 	cmp	sp, sl
    32d8:	48c0      	ldr	r0, [pc, #768]	; (35dc <quit_innenschleife+0x1c>)
    32da:	4287      	cmp	r7, r0
    32dc:	d20a      	bcs.n	32f4 <Code_865+0x3c>
    32de:	f7fe fab4 	bl	184a <dotgaensefuesschen>
    32e2:	6174530f 	cmnvs	r4, pc, lsl #6
    32e6:	6f206b63 	svcvs	0x00206b63
    32ea:	66726576 			; <UNDEFINED> instruction: 0x66726576
    32ee:	0a776f6c 	beq	1ddf0a6 <BIT24+0xddf0a6>
    32f2:	e14f      	b.n	3594 <Code_920>
    32f4:	4cba      	ldr	r4, [pc, #744]	; (35e0 <quit_innenschleife+0x20>)
    32f6:	6825      	ldr	r5, [r4, #0]
    32f8:	2d00      	cmp	r5, #0
    32fa:	d101      	bne.n	3300 <Code_865+0x48>
    32fc:	003d      	movs	r5, r7
    32fe:	6025      	str	r5, [r4, #0]
    3300:	f7ff fdc0 	bl	2e84 <Code_793>
    3304:	2e00      	cmp	r6, #0
    3306:	d102      	bne.n	330e <Code_865+0x56>
    3308:	3704      	adds	r7, #4
    330a:	cf40      	ldmia	r7!, {r6}
    330c:	bd30      	pop	{r4, r5, pc}
    330e:	6838      	ldr	r0, [r7, #0]
    3310:	f847 6d04 	str.w	r6, [r7, #-4]!
    3314:	3f04      	subs	r7, #4
    3316:	6038      	str	r0, [r7, #0]
    3318:	f7ff fa71 	bl	27fe <Code_633>
    331c:	0031      	movs	r1, r6
    331e:	cf40      	ldmia	r7!, {r6}
    3320:	0032      	movs	r2, r6
    3322:	cf40      	ldmia	r7!, {r6}
    3324:	2a00      	cmp	r2, #0
    3326:	d113      	bne.n	3350 <not_found_addr_r0_len_r1+0x18>
    3328:	6838      	ldr	r0, [r7, #0]
    332a:	0031      	movs	r1, r6
    332c:	f7ff fe14 	bl	2f58 <Code_800>
    3330:	0032      	movs	r2, r6
    3332:	cf40      	ldmia	r7!, {r6}
    3334:	2a00      	cmp	r2, #0
    3336:	d1c0      	bne.n	32ba <Code_865+0x2>

00003338 <not_found_addr_r0_len_r1>:
    3338:	f7fe fae7 	bl	190a <stype_addr_r0_len_r1>
    333c:	f7fe fa85 	bl	184a <dotgaensefuesschen>
    3340:	6f6e200c 	svcvs	0x006e200c
    3344:	6f662074 	svcvs	0x00662074
    3348:	2e646e75 	mcrcs	14, 3, r6, cr4, cr5, {3}
    334c:	e121000a 	teq	r1, sl
    3350:	4ba4      	ldr	r3, [pc, #656]	; (35e4 <quit_innenschleife+0x24>)
    3352:	681b      	ldr	r3, [r3, #0]
    3354:	2b00      	cmp	r3, #0
    3356:	d11d      	bne.n	3394 <.ausfuehren+0x12>
    3358:	2500      	movs	r5, #0
    335a:	6025      	str	r5, [r4, #0]
    335c:	2330      	movs	r3, #48	; 0x30
    335e:	400b      	ands	r3, r1
    3360:	2b30      	cmp	r3, #48	; 0x30
    3362:	d10e      	bne.n	3382 <.ausfuehren>
    3364:	f7fe facd 	bl	1902 <Code_373>
    3368:	f7fe fa6f 	bl	184a <dotgaensefuesschen>
    336c:	73692012 	cmnvc	r9, #18
    3370:	6d6f6320 	stclvs	3, cr6, [pc, #-128]!	; 32f8 <Code_865+0x40>
    3374:	656c6970 	strbvs	r6, [ip, #-2416]!	; 0x970
    3378:	6c6e6f2d 	stclvs	15, cr6, [lr], #-180	; 0xffffff4c
    337c:	000a2e79 	andeq	r2, sl, r9, ror lr
    3380:	e108      	b.n	3594 <Code_920>

00003382 <.ausfuehren>:
    3382:	3704      	adds	r7, #4
    3384:	cf40      	ldmia	r7!, {r6}
    3386:	f847 6d04 	str.w	r6, [r7, #-4]!
    338a:	0016      	movs	r6, r2
    338c:	f7fe fe28 	bl	1fe0 <Code_487>
    3390:	f7ff ff93 	bl	32ba <Code_865+0x2>
    3394:	3704      	adds	r7, #4
    3396:	cf40      	ldmia	r7!, {r6}
    3398:	2080      	movs	r0, #128	; 0x80
    339a:	4008      	ands	r0, r1
    339c:	d10e      	bne.n	33bc <.interpret_faltoptimierung>
    339e:	1beb      	subs	r3, r5, r7
    33a0:	089b      	lsrs	r3, r3, #2
    33a2:	2040      	movs	r0, #64	; 0x40
    33a4:	4008      	ands	r0, r1
    33a6:	d00f      	beq.n	33c8 <.konstantenschleife>
    33a8:	2008      	movs	r0, #8
    33aa:	4008      	ands	r0, r1
    33ac:	d002      	beq.n	33b4 <.interpret_genugkonstanten>
    33ae:	2b00      	cmp	r3, #0
    33b0:	d000      	beq.n	33b4 <.interpret_genugkonstanten>
    33b2:	e01d      	b.n	33f0 <.interpret_opcodierbar>

000033b4 <.interpret_genugkonstanten>:
    33b4:	200f      	movs	r0, #15
    33b6:	4008      	ands	r0, r1
    33b8:	4283      	cmp	r3, r0
    33ba:	d305      	bcc.n	33c8 <.konstantenschleife>

000033bc <.interpret_faltoptimierung>:
    33bc:	f847 6d04 	str.w	r6, [r7, #-4]!
    33c0:	0016      	movs	r6, r2
    33c2:	f7fe fe0d 	bl	1fe0 <Code_487>
    33c6:	e778      	b.n	32ba <Code_865+0x2>

000033c8 <.konstantenschleife>:
    33c8:	f000 f8bd 	bl	3546 <konstantenschreiben>
    33cc:	f847 6d04 	str.w	r6, [r7, #-4]!
    33d0:	0016      	movs	r6, r2
    33d2:	2210      	movs	r2, #16
    33d4:	400a      	ands	r2, r1
    33d6:	d002      	beq.n	33de <.konstantenschleife+0x16>
    33d8:	f7fe fe02 	bl	1fe0 <Code_487>
    33dc:	e76d      	b.n	32ba <Code_865+0x2>
    33de:	2220      	movs	r2, #32
    33e0:	400a      	ands	r2, r1
    33e2:	d002      	beq.n	33ea <.konstantenschleife+0x22>
    33e4:	f7fe fd5e 	bl	1ea4 <Code_465>
    33e8:	e767      	b.n	32ba <Code_865+0x2>
    33ea:	f7fe fc84 	bl	1cf6 <Code_434>
    33ee:	e764      	b.n	32ba <Code_865+0x2>

000033f0 <.interpret_opcodierbar>:
    33f0:	2007      	movs	r0, #7
    33f2:	4001      	ands	r1, r0
    33f4:	0010      	movs	r0, r2
    33f6:	f7fe fd6c 	bl	1ed2 <suchedefinitionsende>
    33fa:	2901      	cmp	r1, #1
    33fc:	d11f      	bne.n	343e <.interpret_opcodierbar_rechenlogik>
    33fe:	2b01      	cmp	r3, #1
    3400:	d1dc      	bne.n	33bc <.interpret_faltoptimierung>
    3402:	21ff      	movs	r1, #255	; 0xff
    3404:	4031      	ands	r1, r6
    3406:	42b1      	cmp	r1, r6
    3408:	d104      	bne.n	3414 <.interpret_opcodierbar+0x24>
    340a:	8840      	ldrh	r0, [r0, #2]
    340c:	4306      	orrs	r6, r0
    340e:	f7fe ff3b 	bl	2288 <Code_539>
    3412:	e752      	b.n	32ba <Code_865+0x2>
    3414:	f7fe fb5e 	bl	1ad4 <Code_413>
    3418:	2e00      	cmp	r6, #0
    341a:	cf40      	ldmia	r7!, {r6}
    341c:	d004      	beq.n	3428 <.interpret_opcodieren_ueber_r0>
    341e:	6840      	ldr	r0, [r0, #4]
    3420:	4306      	orrs	r6, r0
    3422:	f7fe ff59 	bl	22d8 <Code_548>
    3426:	e748      	b.n	32ba <Code_865+0x2>

00003428 <.interpret_opcodieren_ueber_r0>:
    3428:	f847 6d04 	str.w	r6, [r7, #-4]!
    342c:	2600      	movs	r6, #0
    342e:	f7fe fc05 	bl	1c3c <Code_422>
    3432:	f847 6d04 	str.w	r6, [r7, #-4]!
    3436:	8806      	ldrh	r6, [r0, #0]
    3438:	f7fe ff26 	bl	2288 <Code_539>
    343c:	e73d      	b.n	32ba <Code_865+0x2>

0000343e <.interpret_opcodierbar_rechenlogik>:
    343e:	2902      	cmp	r1, #2
    3440:	d102      	bne.n	3448 <.interpret_opcodierbar_gleichungleich>
    3442:	2b01      	cmp	r3, #1
    3444:	d1ba      	bne.n	33bc <.interpret_faltoptimierung>
    3446:	e7ef      	b.n	3428 <.interpret_opcodieren_ueber_r0>

00003448 <.interpret_opcodierbar_gleichungleich>:
    3448:	2903      	cmp	r1, #3
    344a:	d126      	bne.n	349a <.interpret_opcodierbar_schieben>
    344c:	2b01      	cmp	r3, #1
    344e:	d1b5      	bne.n	33bc <.interpret_faltoptimierung>
    3450:	21ff      	movs	r1, #255	; 0xff
    3452:	4031      	ands	r1, r6
    3454:	42b1      	cmp	r1, r6
    3456:	d10a      	bne.n	346e <.interpret_opcodierbar_gleichungleich+0x26>
    3458:	4963      	ldr	r1, [pc, #396]	; (35e8 <quit_innenschleife+0x28>)
    345a:	430e      	orrs	r6, r1
    345c:	f7fe ff14 	bl	2288 <Code_539>
    3460:	3204      	adds	r2, #4
    3462:	f847 6d04 	str.w	r6, [r7, #-4]!
    3466:	0016      	movs	r6, r2
    3468:	f7fe fd1c 	bl	1ea4 <Code_465>
    346c:	e725      	b.n	32ba <Code_865+0x2>
    346e:	f7fe fb31 	bl	1ad4 <Code_413>
    3472:	2e00      	cmp	r6, #0
    3474:	cf40      	ldmia	r7!, {r6}
    3476:	d004      	beq.n	3482 <.interpret_opcodierbar_gleichungleich+0x3a>
    3478:	495c      	ldr	r1, [pc, #368]	; (35ec <quit_innenschleife+0x2c>)
    347a:	430e      	orrs	r6, r1
    347c:	f7fe ff2c 	bl	22d8 <Code_548>
    3480:	e7ee      	b.n	3460 <.interpret_opcodierbar_gleichungleich+0x18>
    3482:	f847 6d04 	str.w	r6, [r7, #-4]!
    3486:	2600      	movs	r6, #0
    3488:	f7fe fbd8 	bl	1c3c <Code_422>
    348c:	3202      	adds	r2, #2
    348e:	f847 6d04 	str.w	r6, [r7, #-4]!
    3492:	0016      	movs	r6, r2
    3494:	f7fe fd06 	bl	1ea4 <Code_465>
    3498:	e70f      	b.n	32ba <Code_865+0x2>

0000349a <.interpret_opcodierbar_schieben>:
    349a:	2904      	cmp	r1, #4
    349c:	d118      	bne.n	34d0 <.interpret_opcodierbar_speicherschreiben>
    349e:	2b01      	cmp	r3, #1
    34a0:	d18c      	bne.n	33bc <.interpret_faltoptimierung>
    34a2:	0033      	movs	r3, r6
    34a4:	cf40      	ldmia	r7!, {r6}
    34a6:	2b00      	cmp	r3, #0
    34a8:	d100      	bne.n	34ac <.interpret_opcodierbar_schieben+0x12>
    34aa:	e706      	b.n	32ba <Code_865+0x2>
    34ac:	221f      	movs	r2, #31
    34ae:	401a      	ands	r2, r3
    34b0:	429a      	cmp	r2, r3
    34b2:	d005      	beq.n	34c0 <.interpret_opcodierbar_schieben+0x26>
    34b4:	f847 6d04 	str.w	r6, [r7, #-4]!
    34b8:	8846      	ldrh	r6, [r0, #2]
    34ba:	f7fe fee5 	bl	2288 <Code_539>
    34be:	e6fc      	b.n	32ba <Code_865+0x2>
    34c0:	f847 6d04 	str.w	r6, [r7, #-4]!
    34c4:	8806      	ldrh	r6, [r0, #0]
    34c6:	019b      	lsls	r3, r3, #6
    34c8:	431e      	orrs	r6, r3
    34ca:	f7fe fedd 	bl	2288 <Code_539>
    34ce:	e6f4      	b.n	32ba <Code_865+0x2>

000034d0 <.interpret_opcodierbar_speicherschreiben>:
    34d0:	2905      	cmp	r1, #5
    34d2:	d124      	bne.n	351e <.interpret_opcodierbar_andere>
    34d4:	2b01      	cmp	r3, #1
    34d6:	d110      	bne.n	34fa <.interpret_opcodierbar_speicherschreiben+0x2a>
    34d8:	f847 6d04 	str.w	r6, [r7, #-4]!
    34dc:	2600      	movs	r6, #0
    34de:	f7fe fbad 	bl	1c3c <Code_422>
    34e2:	f847 6d04 	str.w	r6, [r7, #-4]!
    34e6:	0006      	movs	r6, r0
    34e8:	f7fe fcdc 	bl	1ea4 <Code_465>
    34ec:	f847 6d04 	str.w	r6, [r7, #-4]!
    34f0:	f64c 7640 	movw	r6, #53056	; 0xcf40
    34f4:	f7fe fec8 	bl	2288 <Code_539>
    34f8:	e6df      	b.n	32ba <Code_865+0x2>
    34fa:	f847 6d04 	str.w	r6, [r7, #-4]!
    34fe:	2600      	movs	r6, #0
    3500:	f7fe fb9c 	bl	1c3c <Code_422>
    3504:	f847 6d04 	str.w	r6, [r7, #-4]!
    3508:	2601      	movs	r6, #1
    350a:	f7fe fb97 	bl	1c3c <Code_422>
    350e:	f7fe fce0 	bl	1ed2 <suchedefinitionsende>
    3512:	f847 6d04 	str.w	r6, [r7, #-4]!
    3516:	0006      	movs	r6, r0
    3518:	f7fe fcc4 	bl	1ea4 <Code_465>
    351c:	e6cd      	b.n	32ba <Code_865+0x2>

0000351e <.interpret_opcodierbar_andere>:
    351e:	2906      	cmp	r1, #6
    3520:	d10e      	bne.n	3540 <.interpret_opcodierbar_andere+0x22>
    3522:	2b01      	cmp	r3, #1
    3524:	f47f af4a 	bne.w	33bc <.interpret_faltoptimierung>
    3528:	f7fe fad4 	bl	1ad4 <Code_413>
    352c:	2e00      	cmp	r6, #0
    352e:	cf40      	ldmia	r7!, {r6}
    3530:	f43f af7a 	beq.w	3428 <.interpret_opcodieren_ueber_r0>
    3534:	f8d0 0002 	ldr.w	r0, [r0, #2]
    3538:	4306      	orrs	r6, r0
    353a:	f7fe fecd 	bl	22d8 <Code_548>
    353e:	e6bc      	b.n	32ba <Code_865+0x2>
    3540:	3001      	adds	r0, #1
    3542:	4780      	blx	r0
    3544:	e6b9      	b.n	32ba <Code_865+0x2>

00003546 <konstantenschreiben>:
    3546:	b500      	push	{lr}
    3548:	2b00      	cmp	r3, #0
    354a:	d00c      	beq.n	3566 <.konstanteninnenschleife+0x1a>

0000354c <.konstanteninnenschleife>:
    354c:	3b01      	subs	r3, #1
    354e:	f847 6d04 	str.w	r6, [r7, #-4]!
    3552:	001e      	movs	r6, r3
    3554:	f857 6026 	ldr.w	r6, [r7, r6, lsl #2]
    3558:	f7fe fc02 	bl	1d60 <Code_439>
    355c:	2b00      	cmp	r3, #0
    355e:	d1f5      	bne.n	354c <.konstanteninnenschleife>
    3560:	3d04      	subs	r5, #4
    3562:	002f      	movs	r7, r5
    3564:	cf40      	ldmia	r7!, {r6}
    3566:	2500      	movs	r5, #0
    3568:	6025      	str	r5, [r4, #0]
    356a:	bd00      	pop	{pc}

0000356c <Dictionary_917>:
    356c:	00003588 	andeq	r3, r0, r8, lsl #11
    3570:	68098081 	stmdavs	r9, {r0, r7, pc}
    3574:	2d6b6f6f 	stclcs	15, cr6, [fp, #-444]!	; 0xfffffe44
    3578:	74697571 	strbtvc	r7, [r9], #-1393	; 0x571

0000357c <Code_917>:
    357c:	f847 6d04 	str.w	r6, [r7, #-4]!
    3580:	4e1b      	ldr	r6, [pc, #108]	; (35f0 <quit_innenschleife+0x30>)
    3582:	4770      	bx	lr
    3584:	000035c0 	andeq	r3, r0, r0, asr #11

00003588 <Dictionary_920>:
    3588:	00003604 	andeq	r3, r0, r4, lsl #12
    358c:	71048000 	mrsvc	r8, (UNDEF: 4)
    3590:	00746975 	rsbseq	r6, r4, r5, ror r9

00003594 <Code_920>:
    3594:	f8df d05c 	ldr.w	sp, [pc, #92]	; 35f4 <quit_innenschleife+0x34>
    3598:	4f0f      	ldr	r7, [pc, #60]	; (35d8 <quit_innenschleife+0x18>)
    359a:	f7fd fdad 	bl	10f8 <sammeltabelleleeren>
    359e:	4816      	ldr	r0, [pc, #88]	; (35f8 <quit_innenschleife+0x38>)
    35a0:	210a      	movs	r1, #10
    35a2:	6001      	str	r1, [r0, #0]
    35a4:	480f      	ldr	r0, [pc, #60]	; (35e4 <quit_innenschleife+0x24>)
    35a6:	2100      	movs	r1, #0
    35a8:	6001      	str	r1, [r0, #0]
    35aa:	480d      	ldr	r0, [pc, #52]	; (35e0 <quit_innenschleife+0x20>)
    35ac:	6001      	str	r1, [r0, #0]
    35ae:	4809      	ldr	r0, [pc, #36]	; (35d4 <quit_innenschleife+0x14>)
    35b0:	6001      	str	r1, [r0, #0]
    35b2:	4812      	ldr	r0, [pc, #72]	; (35fc <quit_innenschleife+0x3c>)
    35b4:	6001      	str	r1, [r0, #0]
    35b6:	4912      	ldr	r1, [pc, #72]	; (3600 <quit_innenschleife+0x40>)
    35b8:	6041      	str	r1, [r0, #4]

000035ba <quit_intern>:
    35ba:	480d      	ldr	r0, [pc, #52]	; (35f0 <quit_innenschleife+0x30>)
    35bc:	6800      	ldr	r0, [r0, #0]
    35be:	4687      	mov	pc, r0

000035c0 <quit_innenschleife>:
    35c0:	f7fe f89b 	bl	16fa <Code_323>
    35c4:	f7ff fe78 	bl	32b8 <Code_865>
    35c8:	f7fe f93f 	bl	184a <dotgaensefuesschen>
    35cc:	6b6f2005 	blvs	1bcb5e8 <BIT24+0xbcb5e8>
    35d0:	e7f50a2e 	ldrb	r0, [r5, lr, lsr #20]!
    35d4:	20003fe4 	andcs	r3, r0, r4, ror #31
    35d8:	20000230 	andcs	r0, r0, r0, lsr r2
    35dc:	20000130 	andcs	r0, r0, r0, lsr r1
    35e0:	20000008 	andcs	r0, r0, r8
    35e4:	20003fd8 	ldrdcs	r3, [r0], -r8
    35e8:	00003e00 	andeq	r3, r0, r0, lsl #28
    35ec:	f1b60600 			; <UNDEFINED> instruction: 0xf1b60600
    35f0:	20003fd4 	ldrdcs	r3, [r0], -r4
    35f4:	20000330 	andcs	r0, r0, r0, lsr r3
    35f8:	20003ffc 	strdcs	r3, [r0], -ip
    35fc:	20003fdc 	ldrdcs	r3, [r0], -ip
    3600:	20000068 	andcs	r0, r0, r8, rrx

00003604 <Dictionary_922>:
    3604:	0000361e 	andeq	r3, r0, lr, lsl r6
    3608:	65058000 	strvs	r8, [r5]
    360c:	3f746e69 	svccc	0x00746e69

00003610 <Code_922>:
    3610:	f847 6d04 	str.w	r6, [r7, #-4]!
    3614:	f3ef 8610 	mrs	r6, PRIMASK
    3618:	3e01      	subs	r6, #1
    361a:	41b6      	sbcs	r6, r6
    361c:	4770      	bx	lr

0000361e <Dictionary_924>:
    361e:	0000362e 	andeq	r3, r0, lr, lsr #12
    3622:	65048020 	strvs	r8, [r4, #-32]
    3626:	00746e69 	rsbseq	r6, r4, r9, ror #28

0000362a <Code_924>:
    362a:	b662      	cpsie	i
    362c:	4770      	bx	lr

0000362e <Dictionary_925>:
    362e:	0000363e 	andeq	r3, r0, lr, lsr r6
    3632:	64048020 	strvs	r8, [r4], #-32
    3636:	00746e69 	rsbseq	r6, r4, r9, ror #28

0000363a <Code_925>:
    363a:	b672      	cpsid	i
    363c:	4770      	bx	lr

0000363e <Dictionary_926>:
    363e:	00003654 	andeq	r3, r0, r4, asr r6
    3642:	69048020 	stmdbvs	r4, {r5, pc}
    3646:	00727370 	rsbseq	r7, r2, r0, ror r3

0000364a <Code_926>:
    364a:	f847 6d04 	str.w	r6, [r7, #-4]!
    364e:	f3ef 8605 	mrs	r6, IPSR
    3652:	4770      	bx	lr

00003654 <Dictionary_928>:
    3654:	00003660 	andeq	r3, r0, r0, ror #12
    3658:	6e038000 	cdpvs	0, 0, cr8, cr3, cr0, {0}
    365c:	4770706f 	ldrbmi	r7, [r0, -pc, rrx]!

0000365e <Code_928>:
    365e:	4770      	bx	lr

00003660 <Dictionary_929>:
    3660:	000036a2 	andeq	r3, r0, r2, lsr #13
    3664:	75098000 	strvc	r8, [r9]
    3668:	6e61686e 	cdpvs	8, 6, cr6, cr1, cr14, {3}
    366c:	64656c64 	strbtvs	r6, [r5], #-3172	; 0xc64

00003670 <Code_929>:
    3670:	b500      	push	{lr}
    3672:	f7fe f8ea 	bl	184a <dotgaensefuesschen>
    3676:	686e5514 	stmdavs	lr!, {r2, r4, r8, sl, ip, lr}^
    367a:	6c646e61 	stclvs	14, cr6, [r4], #-388	; 0xfffffe7c
    367e:	49206465 	stmdbmi	r0!, {r0, r2, r5, r6, sl, sp, lr}
    3682:	7265746e 	rsbvc	r7, r5, #1845493760	; 0x6e000000
    3686:	74707572 	ldrbtvc	r7, [r0], #-1394	; 0x572
    368a:	f8470020 			; <UNDEFINED> instruction: 0xf8470020
    368e:	6d04      	ldr	r4, [r0, #80]	; 0x50
    3690:	f3ef 8605 	mrs	r6, IPSR
    3694:	f7fe f94c 	bl	1930 <Code_377>
    3698:	f7fe f8d7 	bl	184a <dotgaensefuesschen>
    369c:	000a2102 	andeq	r2, sl, r2, lsl #2
    36a0:	bd00      	pop	{pc}

000036a2 <Dictionary_933>:
    36a2:	000036b8 			; <UNDEFINED> instruction: 0x000036b8
    36a6:	72058000 	andvc	r8, r5, #0
    36aa:	74657365 	strbtvc	r7, [r5], #-869	; 0x365

000036ae <Code_933>:
    36ae:	f8df 0540 	ldr.w	r0, [pc, #1344]	; 3bf0 <init_name+0x4>
    36b2:	f8df 1540 	ldr.w	r1, [pc, #1344]	; 3bf4 <init_name+0x8>
    36b6:	6001      	str	r1, [r0, #0]

000036b8 <Dictionary_935>:
    36b8:	000036e4 	andeq	r3, r0, r4, ror #13
    36bc:	690b8081 	stmdbvs	fp, {r0, r7, pc}
    36c0:	732d7172 	teqvc	sp, #-2147483620	; 0x8000001c
    36c4:	69747379 	ldmdbvs	r4!, {r0, r3, r4, r5, r6, r8, r9, ip, sp, lr}^
    36c8:	f8476b63 			; <UNDEFINED> instruction: 0xf8476b63

000036ca <Code_935>:
    36ca:	f847 6d04 	str.w	r6, [r7, #-4]!
    36ce:	f8df 6528 	ldr.w	r6, [pc, #1320]	; 3bf8 <init_name+0xc>
    36d2:	4770      	bx	lr
    36d4:	00003670 	andeq	r3, r0, r0, ror r6

000036d8 <irq_vektor_systick>:
    36d8:	f643 70d0 	movw	r0, #16336	; 0x3fd0
    36dc:	f2c2 0000 	movt	r0, #8192	; 0x2000
    36e0:	6800      	ldr	r0, [r0, #0]
    36e2:	4687      	mov	pc, r0

000036e4 <Dictionary_939>:
    36e4:	0000370e 	andeq	r3, r0, lr, lsl #14
    36e8:	69098081 	stmdbvs	r9, {r0, r7, pc}
    36ec:	662d7172 			; <UNDEFINED> instruction: 0x662d7172
    36f0:	746c7561 	strbtvc	r7, [ip], #-1377	; 0x561

000036f4 <Code_939>:
    36f4:	f847 6d04 	str.w	r6, [r7, #-4]!
    36f8:	f8df 6500 	ldr.w	r6, [pc, #1280]	; 3bfc <init_name+0x10>
    36fc:	4770      	bx	lr
    36fe:	00003670 	andeq	r3, r0, r0, ror r6

00003702 <faulthandler>:
    3702:	f643 70cc 	movw	r0, #16332	; 0x3fcc
    3706:	f2c2 0000 	movt	r0, #8192	; 0x2000
    370a:	6800      	ldr	r0, [r0, #0]
    370c:	4687      	mov	pc, r0

0000370e <Dictionary_943>:
    370e:	0000373e 	andeq	r3, r0, lr, lsr r7
    3712:	690e8081 	stmdbvs	lr, {r0, r7, pc}
    3716:	632d7172 	teqvs	sp, #-2147483620	; 0x8000001c
    371a:	656c6c6f 	strbvs	r6, [ip, #-3183]!	; 0xc6f
    371e:	6f697463 	svcvs	0x00697463
    3722:	f847006e 			; <UNDEFINED> instruction: 0xf847006e

00003724 <Code_943>:
    3724:	f847 6d04 	str.w	r6, [r7, #-4]!
    3728:	f8df 64d4 	ldr.w	r6, [pc, #1236]	; 3c00 <init_name+0x14>
    372c:	4770      	bx	lr
    372e:	00003670 	andeq	r3, r0, r0, ror r6

00003732 <nullhandler>:
    3732:	f643 70c8 	movw	r0, #16328	; 0x3fc8
    3736:	f2c2 0000 	movt	r0, #8192	; 0x2000
    373a:	6800      	ldr	r0, [r0, #0]
    373c:	4687      	mov	pc, r0

0000373e <Dictionary_947>:
    373e:	00003768 	andeq	r3, r0, r8, ror #14
    3742:	69098081 	stmdbvs	r9, {r0, r7, pc}
    3746:	652d7172 	strvs	r7, [sp, #-370]!	; 0x172
    374a:	30697478 	rsbcc	r7, r9, r8, ror r4

0000374e <Code_947>:
    374e:	f847 6d04 	str.w	r6, [r7, #-4]!
    3752:	f8df 64b0 	ldr.w	r6, [pc, #1200]	; 3c04 <init_name+0x18>
    3756:	4770      	bx	lr
    3758:	00003670 	andeq	r3, r0, r0, ror r6

0000375c <irq_vektor_exti0>:
    375c:	f643 70c4 	movw	r0, #16324	; 0x3fc4
    3760:	f2c2 0000 	movt	r0, #8192	; 0x2000
    3764:	6800      	ldr	r0, [r0, #0]
    3766:	4687      	mov	pc, r0

00003768 <Dictionary_951>:
    3768:	00003792 	muleq	r0, r2, r7
    376c:	69098081 	stmdbvs	r9, {r0, r7, pc}
    3770:	652d7172 	strvs	r7, [sp, #-370]!	; 0x172
    3774:	31697478 	smccc	38728	; 0x9748

00003778 <Code_951>:
    3778:	f847 6d04 	str.w	r6, [r7, #-4]!
    377c:	f8df 6488 	ldr.w	r6, [pc, #1160]	; 3c08 <init_name+0x1c>
    3780:	4770      	bx	lr
    3782:	00003670 	andeq	r3, r0, r0, ror r6

00003786 <irq_vektor_exti1>:
    3786:	f643 70c0 	movw	r0, #16320	; 0x3fc0
    378a:	f2c2 0000 	movt	r0, #8192	; 0x2000
    378e:	6800      	ldr	r0, [r0, #0]
    3790:	4687      	mov	pc, r0

00003792 <Dictionary_955>:
    3792:	000037bc 			; <UNDEFINED> instruction: 0x000037bc
    3796:	69098081 	stmdbvs	r9, {r0, r7, pc}
    379a:	652d7172 	strvs	r7, [sp, #-370]!	; 0x172
    379e:	32697478 	rsbcc	r7, r9, #2013265920	; 0x78000000

000037a2 <Code_955>:
    37a2:	f847 6d04 	str.w	r6, [r7, #-4]!
    37a6:	f8df 6464 	ldr.w	r6, [pc, #1124]	; 3c0c <init_name+0x20>
    37aa:	4770      	bx	lr
    37ac:	00003670 	andeq	r3, r0, r0, ror r6

000037b0 <irq_vektor_exti2>:
    37b0:	f643 70bc 	movw	r0, #16316	; 0x3fbc
    37b4:	f2c2 0000 	movt	r0, #8192	; 0x2000
    37b8:	6800      	ldr	r0, [r0, #0]
    37ba:	4687      	mov	pc, r0

000037bc <Dictionary_959>:
    37bc:	000037e6 	andeq	r3, r0, r6, ror #15
    37c0:	69098081 	stmdbvs	r9, {r0, r7, pc}
    37c4:	652d7172 	strvs	r7, [sp, #-370]!	; 0x172
    37c8:	33697478 	cmncc	r9, #2013265920	; 0x78000000

000037cc <Code_959>:
    37cc:	f847 6d04 	str.w	r6, [r7, #-4]!
    37d0:	f8df 643c 	ldr.w	r6, [pc, #1084]	; 3c10 <init_name+0x24>
    37d4:	4770      	bx	lr
    37d6:	00003670 	andeq	r3, r0, r0, ror r6

000037da <irq_vektor_exti3>:
    37da:	f643 70b8 	movw	r0, #16312	; 0x3fb8
    37de:	f2c2 0000 	movt	r0, #8192	; 0x2000
    37e2:	6800      	ldr	r0, [r0, #0]
    37e4:	4687      	mov	pc, r0

000037e6 <Dictionary_963>:
    37e6:	00003810 	andeq	r3, r0, r0, lsl r8
    37ea:	69098081 	stmdbvs	r9, {r0, r7, pc}
    37ee:	652d7172 	strvs	r7, [sp, #-370]!	; 0x172
    37f2:	34697478 	strbtcc	r7, [r9], #-1144	; 0x478

000037f6 <Code_963>:
    37f6:	f847 6d04 	str.w	r6, [r7, #-4]!
    37fa:	f8df 6418 	ldr.w	r6, [pc, #1048]	; 3c14 <init_name+0x28>
    37fe:	4770      	bx	lr
    3800:	00003670 	andeq	r3, r0, r0, ror r6

00003804 <irq_vektor_exti4>:
    3804:	f643 70b4 	movw	r0, #16308	; 0x3fb4
    3808:	f2c2 0000 	movt	r0, #8192	; 0x2000
    380c:	6800      	ldr	r0, [r0, #0]
    380e:	4687      	mov	pc, r0

00003810 <Dictionary_967>:
    3810:	00003836 	andeq	r3, r0, r6, lsr r8
    3814:	69078081 	stmdbvs	r7, {r0, r7, pc}
    3818:	612d7172 	teqvs	sp, r2, ror r1
    381c:	f8476364 			; <UNDEFINED> instruction: 0xf8476364

0000381e <Code_967>:
    381e:	f847 6d04 	str.w	r6, [r7, #-4]!
    3822:	4efd      	ldr	r6, [pc, #1012]	; (3c18 <init_name+0x2c>)
    3824:	4770      	bx	lr
    3826:	00003670 	andeq	r3, r0, r0, ror r6

0000382a <irq_vektor_adc>:
    382a:	f643 70b0 	movw	r0, #16304	; 0x3fb0
    382e:	f2c2 0000 	movt	r0, #8192	; 0x2000
    3832:	6800      	ldr	r0, [r0, #0]
    3834:	4687      	mov	pc, r0

00003836 <Dictionary_971>:
    3836:	0000385c 	andeq	r3, r0, ip, asr r8
    383a:	69078081 	stmdbvs	r7, {r0, r7, pc}
    383e:	642d7172 	strtvs	r7, [sp], #-370	; 0x172
    3842:	f8476361 			; <UNDEFINED> instruction: 0xf8476361

00003844 <Code_971>:
    3844:	f847 6d04 	str.w	r6, [r7, #-4]!
    3848:	4ef4      	ldr	r6, [pc, #976]	; (3c1c <init_name+0x30>)
    384a:	4770      	bx	lr
    384c:	00003670 	andeq	r3, r0, r0, ror r6

00003850 <irq_vektor_dac>:
    3850:	f643 70ac 	movw	r0, #16300	; 0x3fac
    3854:	f2c2 0000 	movt	r0, #8192	; 0x2000
    3858:	6800      	ldr	r0, [r0, #0]
    385a:	4687      	mov	pc, r0

0000385c <Dictionary_975>:
    385c:	00003884 	andeq	r3, r0, r4, lsl #17
    3860:	69088081 	stmdbvs	r8, {r0, r7, pc}
    3864:	742d7172 	strtvc	r7, [sp], #-370	; 0x172
    3868:	00326d69 	eorseq	r6, r2, r9, ror #26

0000386c <Code_975>:
    386c:	f847 6d04 	str.w	r6, [r7, #-4]!
    3870:	4eeb      	ldr	r6, [pc, #940]	; (3c20 <init_name+0x34>)
    3872:	4770      	bx	lr
    3874:	00003670 	andeq	r3, r0, r0, ror r6

00003878 <irq_vektor_tim2>:
    3878:	f643 70a8 	movw	r0, #16296	; 0x3fa8
    387c:	f2c2 0000 	movt	r0, #8192	; 0x2000
    3880:	6800      	ldr	r0, [r0, #0]
    3882:	4687      	mov	pc, r0

00003884 <Dictionary_979>:
    3884:	000038ac 	andeq	r3, r0, ip, lsr #17
    3888:	69088081 	stmdbvs	r8, {r0, r7, pc}
    388c:	742d7172 	strtvc	r7, [sp], #-370	; 0x172
    3890:	00336d69 	eorseq	r6, r3, r9, ror #26

00003894 <Code_979>:
    3894:	f847 6d04 	str.w	r6, [r7, #-4]!
    3898:	4ee2      	ldr	r6, [pc, #904]	; (3c24 <init_name+0x38>)
    389a:	4770      	bx	lr
    389c:	00003670 	andeq	r3, r0, r0, ror r6

000038a0 <irq_vektor_tim3>:
    38a0:	f643 70a4 	movw	r0, #16292	; 0x3fa4
    38a4:	f2c2 0000 	movt	r0, #8192	; 0x2000
    38a8:	6800      	ldr	r0, [r0, #0]
    38aa:	4687      	mov	pc, r0

000038ac <Dictionary_983>:
    38ac:	000038d4 	ldrdeq	r3, [r0], -r4
    38b0:	69088081 	stmdbvs	r8, {r0, r7, pc}
    38b4:	742d7172 	strtvc	r7, [sp], #-370	; 0x172
    38b8:	00346d69 	eorseq	r6, r4, r9, ror #26

000038bc <Code_983>:
    38bc:	f847 6d04 	str.w	r6, [r7, #-4]!
    38c0:	4ed9      	ldr	r6, [pc, #868]	; (3c28 <init_name+0x3c>)
    38c2:	4770      	bx	lr
    38c4:	00003670 	andeq	r3, r0, r0, ror r6

000038c8 <irq_vektor_tim4>:
    38c8:	f643 70a0 	movw	r0, #16288	; 0x3fa0
    38cc:	f2c2 0000 	movt	r0, #8192	; 0x2000
    38d0:	6800      	ldr	r0, [r0, #0]
    38d2:	4687      	mov	pc, r0

000038d4 <Dictionary_987>:
    38d4:	000038fc 	strdeq	r3, [r0], -ip
    38d8:	69088081 	stmdbvs	r8, {r0, r7, pc}
    38dc:	742d7172 	strtvc	r7, [sp], #-370	; 0x172
    38e0:	00366d69 	eorseq	r6, r6, r9, ror #26

000038e4 <Code_987>:
    38e4:	f847 6d04 	str.w	r6, [r7, #-4]!
    38e8:	4ed0      	ldr	r6, [pc, #832]	; (3c2c <init_name+0x40>)
    38ea:	4770      	bx	lr
    38ec:	00003670 	andeq	r3, r0, r0, ror r6

000038f0 <irq_vektor_tim6>:
    38f0:	f643 709c 	movw	r0, #16284	; 0x3f9c
    38f4:	f2c2 0000 	movt	r0, #8192	; 0x2000
    38f8:	6800      	ldr	r0, [r0, #0]
    38fa:	4687      	mov	pc, r0

000038fc <Dictionary_991>:
    38fc:	00003924 	andeq	r3, r0, r4, lsr #18
    3900:	69088081 	stmdbvs	r8, {r0, r7, pc}
    3904:	742d7172 	strtvc	r7, [sp], #-370	; 0x172
    3908:	00376d69 	eorseq	r6, r7, r9, ror #26

0000390c <Code_991>:
    390c:	f847 6d04 	str.w	r6, [r7, #-4]!
    3910:	4ec7      	ldr	r6, [pc, #796]	; (3c30 <init_name+0x44>)
    3912:	4770      	bx	lr
    3914:	00003670 	andeq	r3, r0, r0, ror r6

00003918 <irq_vektor_tim7>:
    3918:	f643 7098 	movw	r0, #16280	; 0x3f98
    391c:	f2c2 0000 	movt	r0, #8192	; 0x2000
    3920:	6800      	ldr	r0, [r0, #0]
    3922:	4687      	mov	pc, r0

00003924 <Dictionary_995>:
    3924:	0000394e 	andeq	r3, r0, lr, asr #18
    3928:	690b8081 	stmdbvs	fp, {r0, r7, pc}
    392c:	692d7172 	pushvs	{r1, r4, r5, r6, r8, ip, sp, lr}
    3930:	5f316332 	svcpl	0x00316332
    3934:	f8477665 			; <UNDEFINED> instruction: 0xf8477665

00003936 <Code_995>:
    3936:	f847 6d04 	str.w	r6, [r7, #-4]!
    393a:	4ebe      	ldr	r6, [pc, #760]	; (3c34 <init_name+0x48>)
    393c:	4770      	bx	lr
    393e:	00003670 	andeq	r3, r0, r0, ror r6

00003942 <irq_vektor_i2c1_ev>:
    3942:	f643 7094 	movw	r0, #16276	; 0x3f94
    3946:	f2c2 0000 	movt	r0, #8192	; 0x2000
    394a:	6800      	ldr	r0, [r0, #0]
    394c:	4687      	mov	pc, r0

0000394e <Dictionary_999>:
    394e:	00003978 	andeq	r3, r0, r8, ror r9
    3952:	690b8081 	stmdbvs	fp, {r0, r7, pc}
    3956:	692d7172 	pushvs	{r1, r4, r5, r6, r8, ip, sp, lr}
    395a:	5f316332 	svcpl	0x00316332
    395e:	f8477265 			; <UNDEFINED> instruction: 0xf8477265

00003960 <Code_999>:
    3960:	f847 6d04 	str.w	r6, [r7, #-4]!
    3964:	4eb4      	ldr	r6, [pc, #720]	; (3c38 <init_name+0x4c>)
    3966:	4770      	bx	lr
    3968:	00003670 	andeq	r3, r0, r0, ror r6

0000396c <irq_vektor_i2c1_er>:
    396c:	f643 7090 	movw	r0, #16272	; 0x3f90
    3970:	f2c2 0000 	movt	r0, #8192	; 0x2000
    3974:	6800      	ldr	r0, [r0, #0]
    3976:	4687      	mov	pc, r0

00003978 <Dictionary_1003>:
    3978:	000039a2 	andeq	r3, r0, r2, lsr #19
    397c:	690b8081 	stmdbvs	fp, {r0, r7, pc}
    3980:	692d7172 	pushvs	{r1, r4, r5, r6, r8, ip, sp, lr}
    3984:	5f326332 	svcpl	0x00326332
    3988:	f8477665 			; <UNDEFINED> instruction: 0xf8477665

0000398a <Code_1003>:
    398a:	f847 6d04 	str.w	r6, [r7, #-4]!
    398e:	4eab      	ldr	r6, [pc, #684]	; (3c3c <init_name+0x50>)
    3990:	4770      	bx	lr
    3992:	00003670 	andeq	r3, r0, r0, ror r6

00003996 <irq_vektor_i2c2_ev>:
    3996:	f643 708c 	movw	r0, #16268	; 0x3f8c
    399a:	f2c2 0000 	movt	r0, #8192	; 0x2000
    399e:	6800      	ldr	r0, [r0, #0]
    39a0:	4687      	mov	pc, r0

000039a2 <Dictionary_1007>:
    39a2:	000039cc 	andeq	r3, r0, ip, asr #19
    39a6:	690b8081 	stmdbvs	fp, {r0, r7, pc}
    39aa:	692d7172 	pushvs	{r1, r4, r5, r6, r8, ip, sp, lr}
    39ae:	5f326332 	svcpl	0x00326332
    39b2:	f8477265 			; <UNDEFINED> instruction: 0xf8477265

000039b4 <Code_1007>:
    39b4:	f847 6d04 	str.w	r6, [r7, #-4]!
    39b8:	4ea1      	ldr	r6, [pc, #644]	; (3c40 <init_name+0x54>)
    39ba:	4770      	bx	lr
    39bc:	00003670 	andeq	r3, r0, r0, ror r6

000039c0 <irq_vektor_i2c2_er>:
    39c0:	f643 7088 	movw	r0, #16264	; 0x3f88
    39c4:	f2c2 0000 	movt	r0, #8192	; 0x2000
    39c8:	6800      	ldr	r0, [r0, #0]
    39ca:	4687      	mov	pc, r0

000039cc <Dictionary_1011>:
    39cc:	000039f4 	strdeq	r3, [r0], -r4
    39d0:	69088081 	stmdbvs	r8, {r0, r7, pc}
    39d4:	732d7172 	teqvc	sp, #-2147483620	; 0x8000001c
    39d8:	00316970 	eorseq	r6, r1, r0, ror r9

000039dc <Code_1011>:
    39dc:	f847 6d04 	str.w	r6, [r7, #-4]!
    39e0:	4e98      	ldr	r6, [pc, #608]	; (3c44 <init_name+0x58>)
    39e2:	4770      	bx	lr
    39e4:	00003670 	andeq	r3, r0, r0, ror r6

000039e8 <irq_vektor_spi1>:
    39e8:	f643 7084 	movw	r0, #16260	; 0x3f84
    39ec:	f2c2 0000 	movt	r0, #8192	; 0x2000
    39f0:	6800      	ldr	r0, [r0, #0]
    39f2:	4687      	mov	pc, r0

000039f4 <Dictionary_1015>:
    39f4:	00003a1c 	andeq	r3, r0, ip, lsl sl
    39f8:	69088081 	stmdbvs	r8, {r0, r7, pc}
    39fc:	732d7172 	teqvc	sp, #-2147483620	; 0x8000001c
    3a00:	00326970 	eorseq	r6, r2, r0, ror r9

00003a04 <Code_1015>:
    3a04:	f847 6d04 	str.w	r6, [r7, #-4]!
    3a08:	4e8f      	ldr	r6, [pc, #572]	; (3c48 <init_name+0x5c>)
    3a0a:	4770      	bx	lr
    3a0c:	00003670 	andeq	r3, r0, r0, ror r6

00003a10 <irq_vektor_spi2>:
    3a10:	f643 7080 	movw	r0, #16256	; 0x3f80
    3a14:	f2c2 0000 	movt	r0, #8192	; 0x2000
    3a18:	6800      	ldr	r0, [r0, #0]
    3a1a:	4687      	mov	pc, r0

00003a1c <Dictionary_1019>:
    3a1c:	00003a46 	andeq	r3, r0, r6, asr #20
    3a20:	690a8081 	stmdbvs	sl, {r0, r7, pc}
    3a24:	752d7172 	strvc	r7, [sp, #-370]!	; 0x172
    3a28:	74726173 	ldrbtvc	r6, [r2], #-371	; 0x173
    3a2c:	f8470031 			; <UNDEFINED> instruction: 0xf8470031

00003a2e <Code_1019>:
    3a2e:	f847 6d04 	str.w	r6, [r7, #-4]!
    3a32:	4e86      	ldr	r6, [pc, #536]	; (3c4c <init_name+0x60>)
    3a34:	4770      	bx	lr
    3a36:	00003670 	andeq	r3, r0, r0, ror r6

00003a3a <irq_vektor_usart1>:
    3a3a:	f643 707c 	movw	r0, #16252	; 0x3f7c
    3a3e:	f2c2 0000 	movt	r0, #8192	; 0x2000
    3a42:	6800      	ldr	r0, [r0, #0]
    3a44:	4687      	mov	pc, r0

00003a46 <Dictionary_1023>:
    3a46:	00003a70 	andeq	r3, r0, r0, ror sl
    3a4a:	690a8081 	stmdbvs	sl, {r0, r7, pc}
    3a4e:	752d7172 	strvc	r7, [sp, #-370]!	; 0x172
    3a52:	74726173 	ldrbtvc	r6, [r2], #-371	; 0x173
    3a56:	f8470032 			; <UNDEFINED> instruction: 0xf8470032

00003a58 <Code_1023>:
    3a58:	f847 6d04 	str.w	r6, [r7, #-4]!
    3a5c:	4e7c      	ldr	r6, [pc, #496]	; (3c50 <init_name+0x64>)
    3a5e:	4770      	bx	lr
    3a60:	00003670 	andeq	r3, r0, r0, ror r6

00003a64 <irq_vektor_usart2>:
    3a64:	f643 7078 	movw	r0, #16248	; 0x3f78
    3a68:	f2c2 0000 	movt	r0, #8192	; 0x2000
    3a6c:	6800      	ldr	r0, [r0, #0]
    3a6e:	4687      	mov	pc, r0

00003a70 <Dictionary_1027>:
    3a70:	00003a9a 	muleq	r0, sl, sl
    3a74:	690a8081 	stmdbvs	sl, {r0, r7, pc}
    3a78:	752d7172 	strvc	r7, [sp, #-370]!	; 0x172
    3a7c:	74726173 	ldrbtvc	r6, [r2], #-371	; 0x173
    3a80:	f8470033 			; <UNDEFINED> instruction: 0xf8470033

00003a82 <Code_1027>:
    3a82:	f847 6d04 	str.w	r6, [r7, #-4]!
    3a86:	4e73      	ldr	r6, [pc, #460]	; (3c54 <init_name+0x68>)
    3a88:	4770      	bx	lr
    3a8a:	00003670 	andeq	r3, r0, r0, ror r6

00003a8e <irq_vektor_usart3>:
    3a8e:	f643 7074 	movw	r0, #16244	; 0x3f74
    3a92:	f2c2 0000 	movt	r0, #8192	; 0x2000
    3a96:	6800      	ldr	r0, [r0, #0]
    3a98:	4687      	mov	pc, r0

00003a9a <Dictionary_1031>:
    3a9a:	00003ac6 	andeq	r3, r0, r6, asr #21
    3a9e:	690d8081 	stmdbvs	sp, {r0, r7, pc}
    3aa2:	722d7172 	eorvc	r7, sp, #-2147483620	; 0x8000001c
    3aa6:	615f6374 	cmpvs	pc, r4, ror r3	; <UNPREDICTABLE>
    3aaa:	6d72616c 	ldfvse	f6, [r2, #-432]!	; 0xfffffe50

00003aae <Code_1031>:
    3aae:	f847 6d04 	str.w	r6, [r7, #-4]!
    3ab2:	4e69      	ldr	r6, [pc, #420]	; (3c58 <init_name+0x6c>)
    3ab4:	4770      	bx	lr
    3ab6:	00003670 	andeq	r3, r0, r0, ror r6

00003aba <irq_vektor_rtc_alarm>:
    3aba:	f643 7070 	movw	r0, #16240	; 0x3f70
    3abe:	f2c2 0000 	movt	r0, #8192	; 0x2000
    3ac2:	6800      	ldr	r0, [r0, #0]
    3ac4:	4687      	mov	pc, r0

00003ac6 <Dictionary_1034>:
    3ac6:	00004000 	andeq	r4, r0, r0
    3aca:	2d180000 	ldccs	0, cr0, [r8]
    3ace:	46202d2d 	strtmi	r2, [r0], -sp, lsr #26
    3ad2:	6873616c 	ldmdavs	r3!, {r2, r3, r5, r6, r8, sp, lr}^
    3ad6:	63694420 	cmnvs	r9, #536870912	; 0x20000000
    3ada:	6e6f6974 	mcrvs	9, 3, r6, cr15, cr4, {3}
    3ade:	20797261 	rsbscs	r7, r9, r1, ror #4
    3ae2:	002d2d2d 	eoreq	r2, sp, sp, lsr #26

00003ae6 <Code_1034>:
    3ae6:	f7fd fd24 	bl	1532 <uart_init>
    3aea:	485c      	ldr	r0, [pc, #368]	; (3c5c <init_name+0x70>)
    3aec:	4685      	mov	sp, r0
    3aee:	4f5c      	ldr	r7, [pc, #368]	; (3c60 <init_name+0x74>)
    3af0:	262a      	movs	r6, #42	; 0x2a
    3af2:	485c      	ldr	r0, [pc, #368]	; (3c64 <init_name+0x78>)
    3af4:	495c      	ldr	r1, [pc, #368]	; (3c68 <init_name+0x7c>)
    3af6:	6001      	str	r1, [r0, #0]
    3af8:	485c      	ldr	r0, [pc, #368]	; (3c6c <init_name+0x80>)
    3afa:	495d      	ldr	r1, [pc, #372]	; (3c70 <init_name+0x84>)
    3afc:	6001      	str	r1, [r0, #0]
    3afe:	f847 6d04 	str.w	r6, [r7, #-4]!
    3b02:	4e5b      	ldr	r6, [pc, #364]	; (3c70 <init_name+0x84>)
    3b04:	4d5b      	ldr	r5, [pc, #364]	; (3c74 <init_name+0x88>)

00003b06 <SucheFlashPointer_Hangelschleife>:
    3b06:	88b1      	ldrh	r1, [r6, #4]
    3b08:	4b5b      	ldr	r3, [pc, #364]	; (3c78 <init_name+0x8c>)
    3b0a:	4299      	cmp	r1, r3
    3b0c:	d024      	beq.n	3b58 <Sucheflashpointer_Speicherbelegung_fertig>
    3b0e:	4b5b      	ldr	r3, [pc, #364]	; (3c7c <init_name+0x90>)
    3b10:	400b      	ands	r3, r1
    3b12:	d00a      	beq.n	3b2a <SucheFlashPointer_Hangelschleife+0x24>
    3b14:	1db0      	adds	r0, r6, #6
    3b16:	f7fe fe63 	bl	27e0 <skipstring>
    3b1a:	f7fe f9da 	bl	1ed2 <suchedefinitionsende>
    3b1e:	8803      	ldrh	r3, [r0, #0]
    3b20:	8840      	ldrh	r0, [r0, #2]
    3b22:	0400      	lsls	r0, r0, #16
    3b24:	4303      	orrs	r3, r0
    3b26:	1aed      	subs	r5, r5, r3
    3b28:	e016      	b.n	3b58 <Sucheflashpointer_Speicherbelegung_fertig>
    3b2a:	2380      	movs	r3, #128	; 0x80
    3b2c:	400b      	ands	r3, r1
    3b2e:	d013      	beq.n	3b58 <Sucheflashpointer_Speicherbelegung_fertig>
    3b30:	230f      	movs	r3, #15
    3b32:	4019      	ands	r1, r3
    3b34:	0089      	lsls	r1, r1, #2
    3b36:	1a6d      	subs	r5, r5, r1
    3b38:	1db0      	adds	r0, r6, #6
    3b3a:	f7fe fe51 	bl	27e0 <skipstring>
    3b3e:	f7fe f9c8 	bl	1ed2 <suchedefinitionsende>
    3b42:	f847 6d04 	str.w	r6, [r7, #-4]!
    3b46:	0006      	movs	r6, r0
    3b48:	f847 6d04 	str.w	r6, [r7, #-4]!
    3b4c:	002e      	movs	r6, r5
    3b4e:	f847 6d04 	str.w	r6, [r7, #-4]!
    3b52:	000e      	movs	r6, r1
    3b54:	f7fd f806 	bl	b64 <Code_181>

00003b58 <Sucheflashpointer_Speicherbelegung_fertig>:
    3b58:	f7fe fe20 	bl	279c <Code_628>
    3b5c:	0030      	movs	r0, r6
    3b5e:	cf40      	ldmia	r7!, {r6}
    3b60:	d0d1      	beq.n	3b06 <SucheFlashPointer_Hangelschleife>
    3b62:	4847      	ldr	r0, [pc, #284]	; (3c80 <init_name+0x94>)
    3b64:	6006      	str	r6, [r0, #0]
    3b66:	cf40      	ldmia	r7!, {r6}
    3b68:	4846      	ldr	r0, [pc, #280]	; (3c84 <init_name+0x98>)
    3b6a:	6005      	str	r5, [r0, #0]
    3b6c:	4846      	ldr	r0, [pc, #280]	; (3c88 <init_name+0x9c>)
    3b6e:	4947      	ldr	r1, [pc, #284]	; (3c8c <init_name+0xa0>)
    3b70:	4a41      	ldr	r2, [pc, #260]	; (3c78 <init_name+0x8c>)
    3b72:	4288      	cmp	r0, r1
    3b74:	d004      	beq.n	3b80 <Sucheflashpointer_Speicherbelegung_fertig+0x28>
    3b76:	3802      	subs	r0, #2
    3b78:	8803      	ldrh	r3, [r0, #0]
    3b7a:	4293      	cmp	r3, r2
    3b7c:	d0f9      	beq.n	3b72 <Sucheflashpointer_Speicherbelegung_fertig+0x1a>
    3b7e:	3002      	adds	r0, #2
    3b80:	4943      	ldr	r1, [pc, #268]	; (3c90 <init_name+0xa4>)
    3b82:	6008      	str	r0, [r1, #0]
    3b84:	f7fd fab8 	bl	10f8 <sammeltabelleleeren>
    3b88:	f7fd fe5f 	bl	184a <dotgaensefuesschen>
    3b8c:	63654d39 	cmnvs	r5, #3648	; 0xe40
    3b90:	70736972 	rsbsvc	r6, r3, r2, ror r9
    3b94:	6574532d 	ldrbvs	r5, [r4, #-813]!	; 0x32d
    3b98:	72616c6c 	rsbvc	r6, r1, #27648	; 0x6c00
    3b9c:	32207369 	eorcc	r7, r0, #-1543503871	; 0xa4000001
    3ba0:	312e322e 	teqcc	lr, lr, lsr #4
    3ba4:	726f6620 	rsbvc	r6, pc, #33554432	; 0x2000000
    3ba8:	4d545320 	ldclmi	3, cr5, [r4, #-128]	; 0xffffff80
    3bac:	314c3233 	cmpcc	ip, r3, lsr r2
    3bb0:	42523235 	subsmi	r3, r2, #1342177283	; 0x50000003
    3bb4:	20796220 	rsbscs	r6, r9, r0, lsr #4
    3bb8:	7474614d 	ldrbtvc	r6, [r4], #-333	; 0x14d
    3bbc:	73616968 	cmnvc	r1, #1703936	; 0x1a0000
    3bc0:	636f4b20 	cmnvs	pc, #32768	; 0x8000
    3bc4:	48330a68 	ldmdami	r3!, {r3, r5, r6, r9, fp}
    3bc8:	2100      	movs	r1, #0
    3bca:	6001      	str	r1, [r0, #0]
    3bcc:	f847 6d04 	str.w	r6, [r7, #-4]!
    3bd0:	4e31      	ldr	r6, [pc, #196]	; (3c98 <init_name+0xac>)
    3bd2:	f847 6d04 	str.w	r6, [r7, #-4]!
    3bd6:	2604      	movs	r6, #4
    3bd8:	f7fe fe11 	bl	27fe <Code_633>
    3bdc:	cf40      	ldmia	r7!, {r6}
    3bde:	2e00      	cmp	r6, #0
    3be0:	d002      	beq.n	3be8 <Sucheflashpointer_Speicherbelegung_fertig+0x90>
    3be2:	f7fe f9fd 	bl	1fe0 <Code_487>
    3be6:	e4e8      	b.n	35ba <quit_intern>
    3be8:	cf40      	ldmia	r7!, {r6}
    3bea:	e4d3      	b.n	3594 <Code_920>

00003bec <init_name>:
    3bec:	74696e69 	strbtvc	r6, [r9], #-3689	; 0xe69
    3bf0:	e000ed0c 	and	lr, r0, ip, lsl #26
    3bf4:	05fa0004 	ldrbeq	r0, [sl, #4]!
    3bf8:	20003fd0 	ldrdcs	r3, [r0], -r0
    3bfc:	20003fcc 	andcs	r3, r0, ip, asr #31
    3c00:	20003fc8 	andcs	r3, r0, r8, asr #31
    3c04:	20003fc4 	andcs	r3, r0, r4, asr #31
    3c08:	20003fc0 	andcs	r3, r0, r0, asr #31
    3c0c:	20003fbc 			; <UNDEFINED> instruction: 0x20003fbc
    3c10:	20003fb8 			; <UNDEFINED> instruction: 0x20003fb8
    3c14:	20003fb4 			; <UNDEFINED> instruction: 0x20003fb4
    3c18:	20003fb0 			; <UNDEFINED> instruction: 0x20003fb0
    3c1c:	20003fac 	andcs	r3, r0, ip, lsr #31
    3c20:	20003fa8 	andcs	r3, r0, r8, lsr #31
    3c24:	20003fa4 	andcs	r3, r0, r4, lsr #31
    3c28:	20003fa0 	andcs	r3, r0, r0, lsr #31
    3c2c:	20003f9c 	mulcs	r0, ip, pc	; <UNPREDICTABLE>
    3c30:	20003f98 	mulcs	r0, r8, pc	; <UNPREDICTABLE>
    3c34:	20003f94 	mulcs	r0, r4, pc	; <UNPREDICTABLE>
    3c38:	20003f90 	mulcs	r0, r0, pc	; <UNPREDICTABLE>
    3c3c:	20003f8c 	andcs	r3, r0, ip, lsl #31
    3c40:	20003f88 	andcs	r3, r0, r8, lsl #31
    3c44:	20003f84 	andcs	r3, r0, r4, lsl #31
    3c48:	20003f80 	andcs	r3, r0, r0, lsl #31
    3c4c:	20003f7c 	andcs	r3, r0, ip, ror pc
    3c50:	20003f78 	andcs	r3, r0, r8, ror pc
    3c54:	20003f74 	andcs	r3, r0, r4, ror pc
    3c58:	20003f70 	andcs	r3, r0, r0, ror pc
    3c5c:	20000330 	andcs	r0, r0, r0, lsr r3
    3c60:	20000230 	andcs	r0, r0, r0, lsr r2
    3c64:	20000000 	andcs	r0, r0, r0
    3c68:	200003f0 	strdcs	r0, [r0], -r0	; <UNPREDICTABLE>
    3c6c:	20000004 	andcs	r0, r0, r4
    3c70:	000000f4 	strdeq	r0, [r0], -r4
    3c74:	20004000 	andcs	r4, r0, r0
    3c78:	00000000 	andeq	r0, r0, r0
    3c7c:	00000100 	andeq	r0, r0, r0, lsl #2
    3c80:	2000001c 	andcs	r0, r0, ip, lsl r0
    3c84:	20000024 	andcs	r0, r0, r4, lsr #32
    3c88:	00020000 	andeq	r0, r2, r0
    3c8c:	00004000 	andeq	r4, r0, r0
    3c90:	20000018 	andcs	r0, r0, r8, lsl r0
    3c94:	20000008 	andcs	r0, r0, r8
    3c98:	00003bec 	andeq	r3, r0, ip, ror #23

Disassembly of section .ARM.attributes:

00000000 <.ARM.attributes>:
   0:	00002041 	andeq	r2, r0, r1, asr #32
   4:	61656100 	cmnvs	r5, r0, lsl #2
   8:	01006962 	tsteq	r0, r2, ror #18
   c:	00000016 	andeq	r0, r0, r6, lsl r0
  10:	726f4305 	rsbvc	r4, pc, #335544320	; 0x14000000
  14:	2d786574 	cfldr64cs	mvdx6, [r8, #-464]!	; 0xfffffe30
  18:	0600334d 	streq	r3, [r0], -sp, asr #6
  1c:	094d070a 	stmdbeq	sp, {r1, r3, r8, r9, sl}^
  20:	Address 0x00000020 is out of bounds.

