
mecrisp-stellaris-lm4f232.elf:     file format elf32-littlearm


Disassembly of section .text:

00000000 <CoreDictionaryAnfang-0x1ec>:
       0:	20000330 	andcs	r0, r0, r0, lsr r3
       4:	00003a41 	andeq	r3, r0, r1, asr #20
       8:	0000374b 	andeq	r3, r0, fp, asr #14
       c:	0000374b 	andeq	r3, r0, fp, asr #14
      10:	0000374b 	andeq	r3, r0, fp, asr #14
      14:	0000374b 	andeq	r3, r0, fp, asr #14
      18:	0000374b 	andeq	r3, r0, fp, asr #14
	...
      2c:	00003779 	andeq	r3, r0, r9, ror r7
      30:	00003779 	andeq	r3, r0, r9, ror r7
      34:	00000000 	andeq	r0, r0, r0
      38:	00003779 	andeq	r3, r0, r9, ror r7
      3c:	00003721 	andeq	r3, r0, r1, lsr #14
      40:	000037a1 	andeq	r3, r0, r1, lsr #15
      44:	000037c9 	andeq	r3, r0, r9, asr #15
      48:	000037f1 	strdeq	r3, [r0], -r1
      4c:	00003819 	andeq	r3, r0, r9, lsl r8
      50:	00003841 	andeq	r3, r0, r1, asr #16
      54:	00003779 	andeq	r3, r0, r9, ror r7
      58:	00003779 	andeq	r3, r0, r9, ror r7
      5c:	00003779 	andeq	r3, r0, r9, ror r7
      60:	00003779 	andeq	r3, r0, r9, ror r7
	...
      78:	00003895 	muleq	r0, r5, r8
      7c:	000038c1 	andeq	r3, r0, r1, asr #17
      80:	000038ed 	andeq	r3, r0, sp, ror #17
      84:	00003919 	andeq	r3, r0, r9, lsl r9
      88:	00003779 	andeq	r3, r0, r9, ror r7
      8c:	00003943 	andeq	r3, r0, r3, asr #18
      90:	0000396d 	andeq	r3, r0, sp, ror #18
      94:	00003997 	muleq	r0, r7, r9
      98:	000039c1 	andeq	r3, r0, r1, asr #19
      9c:	000039eb 	andeq	r3, r0, fp, ror #19
      a0:	00003a15 	andeq	r3, r0, r5, lsl sl
      a4:	00003779 	andeq	r3, r0, r9, ror r7
      a8:	00003779 	andeq	r3, r0, r9, ror r7
      ac:	00000000 	andeq	r0, r0, r0
      b0:	00003779 	andeq	r3, r0, r9, ror r7
      b4:	00003779 	andeq	r3, r0, r9, ror r7
      b8:	00003869 	andeq	r3, r0, r9, ror #16
	...
      c4:	00003779 	andeq	r3, r0, r9, ror r7
      c8:	00003779 	andeq	r3, r0, r9, ror r7
      cc:	00003779 	andeq	r3, r0, r9, ror r7
      d0:	00003779 	andeq	r3, r0, r9, ror r7
      d4:	00003779 	andeq	r3, r0, r9, ror r7
      d8:	00000000 	andeq	r0, r0, r0
      dc:	00003779 	andeq	r3, r0, r9, ror r7
	...
      ec:	00003779 	andeq	r3, r0, r9, ror r7
      f0:	00003779 	andeq	r3, r0, r9, ror r7
      f4:	00000000 	andeq	r0, r0, r0
      f8:	00003779 	andeq	r3, r0, r9, ror r7
      fc:	00003779 	andeq	r3, r0, r9, ror r7
     100:	00003779 	andeq	r3, r0, r9, ror r7
     104:	00003779 	andeq	r3, r0, r9, ror r7
     108:	00003779 	andeq	r3, r0, r9, ror r7
     10c:	00003779 	andeq	r3, r0, r9, ror r7
	...
     124:	00003779 	andeq	r3, r0, r9, ror r7
     128:	00003779 	andeq	r3, r0, r9, ror r7
     12c:	00003779 	andeq	r3, r0, r9, ror r7
     130:	00003779 	andeq	r3, r0, r9, ror r7
     134:	00003779 	andeq	r3, r0, r9, ror r7
     138:	00003779 	andeq	r3, r0, r9, ror r7
     13c:	00003779 	andeq	r3, r0, r9, ror r7
	...
     150:	00003779 	andeq	r3, r0, r9, ror r7
     154:	00003779 	andeq	r3, r0, r9, ror r7
     158:	00003779 	andeq	r3, r0, r9, ror r7
     15c:	00003779 	andeq	r3, r0, r9, ror r7
	...
     1b0:	00003779 	andeq	r3, r0, r9, ror r7
     1b4:	00003779 	andeq	r3, r0, r9, ror r7
     1b8:	00003779 	andeq	r3, r0, r9, ror r7
     1bc:	00003779 	andeq	r3, r0, r9, ror r7
     1c0:	00003779 	andeq	r3, r0, r9, ror r7
     1c4:	00003779 	andeq	r3, r0, r9, ror r7
     1c8:	00003779 	andeq	r3, r0, r9, ror r7
     1cc:	00003779 	andeq	r3, r0, r9, ror r7
     1d0:	00003779 	andeq	r3, r0, r9, ror r7
     1d4:	00003779 	andeq	r3, r0, r9, ror r7
     1d8:	00003779 	andeq	r3, r0, r9, ror r7
     1dc:	00003779 	andeq	r3, r0, r9, ror r7
     1e0:	00003779 	andeq	r3, r0, r9, ror r7
     1e4:	00003779 	andeq	r3, r0, r9, ror r7
     1e8:	00003779 	andeq	r3, r0, r9, ror r7

000001ec <CoreDictionaryAnfang>:
     1ec:	00000212 	andeq	r0, r0, r2, lsl r2
     1f0:	2d1effff 	ldccs	15, cr15, [lr, #-1020]	; 0xfffffc04
     1f4:	4d202d2d 	stcmi	13, cr2, [r0, #-180]!	; 0xffffff4c
     1f8:	69726365 	ldmdbvs	r2!, {r0, r2, r5, r6, r8, r9, sp, lr}^
     1fc:	532d7073 	teqpl	sp, #115	; 0x73
     200:	6c6c6574 	cfstr64vs	mvdx6, [ip], #-464	; 0xfffffe30
     204:	73697261 	cmnvc	r9, #268435462	; 0x10000006
     208:	726f4320 	rsbvc	r4, pc, #-2147483648	; 0x80000000
     20c:	2d2d2065 	stccs	0, cr2, [sp, #-404]!	; 0xfffffe6c
     210:	022a002d 	eoreq	r0, sl, #45	; 0x2d

00000212 <Code_16>:
     212:	0000022a 	andeq	r0, r0, sl, lsr #4
     216:	32040042 	andcc	r0, r4, #66	; 0x42
     21a:	00707564 	rsbseq	r7, r0, r4, ror #10

0000021e <Code_17>:
     21e:	6838      	ldr	r0, [r7, #0]
     220:	f847 6d04 	str.w	r6, [r7, #-4]!
     224:	3f04      	subs	r7, #4
     226:	6038      	str	r0, [r7, #0]
     228:	4770      	bx	lr

0000022a <Dictionary_19>:
     22a:	0000023c 	andeq	r0, r0, ip, lsr r2
     22e:	32050062 	andcc	r0, r5, #98	; 0x62
     232:	706f7264 	rsbvc	r7, pc, r4, ror #4

00000236 <Code_19>:
     236:	3704      	adds	r7, #4
     238:	cf40      	ldmia	r7!, {r6}
     23a:	4770      	bx	lr

0000023c <Dictionary_21>:
     23c:	0000025a 	andeq	r0, r0, sl, asr r2
     240:	32050044 	andcc	r0, r5, #68	; 0x44
     244:	70617773 	rsbvc	r7, r1, r3, ror r7

00000248 <Code_21>:
     248:	cf07      	ldmia	r7!, {r0, r1, r2}
     24a:	3f04      	subs	r7, #4
     24c:	6038      	str	r0, [r7, #0]
     24e:	f847 6d04 	str.w	r6, [r7, #-4]!
     252:	3f04      	subs	r7, #4
     254:	603a      	str	r2, [r7, #0]
     256:	000e      	movs	r6, r1
     258:	4770      	bx	lr

0000025a <Dictionary_23>:
     25a:	0000026e 	andeq	r0, r0, lr, ror #4
     25e:	32040062 	andcc	r0, r4, #98	; 0x62
     262:	0070696e 	rsbseq	r6, r0, lr, ror #18

00000266 <Code_23>:
     266:	cf07      	ldmia	r7!, {r0, r1, r2}
     268:	3f04      	subs	r7, #4
     26a:	6038      	str	r0, [r7, #0]
     26c:	4770      	bx	lr

0000026e <Dictionary_24>:
     26e:	00000288 	andeq	r0, r0, r8, lsl #5
     272:	32050044 	andcc	r0, r5, #68	; 0x44
     276:	7265766f 	rsbvc	r7, r5, #116391936	; 0x6f00000

0000027a <Code_24>:
     27a:	68b8      	ldr	r0, [r7, #8]
     27c:	f847 6d04 	str.w	r6, [r7, #-4]!
     280:	3f04      	subs	r7, #4
     282:	6038      	str	r0, [r7, #0]
     284:	68fe      	ldr	r6, [r7, #12]
     286:	4770      	bx	lr

00000288 <Dictionary_26>:
     288:	000002ac 	andeq	r0, r0, ip, lsr #5
     28c:	32050044 	andcc	r0, r5, #68	; 0x44
     290:	6b637574 	blvs	18dd868 <BIT24+0x8dd868>

00000294 <Code_26>:
     294:	cf07      	ldmia	r7!, {r0, r1, r2}
     296:	3f04      	subs	r7, #4
     298:	6038      	str	r0, [r7, #0]
     29a:	f847 6d04 	str.w	r6, [r7, #-4]!
     29e:	3f04      	subs	r7, #4
     2a0:	603a      	str	r2, [r7, #0]
     2a2:	3f04      	subs	r7, #4
     2a4:	6039      	str	r1, [r7, #0]
     2a6:	3f04      	subs	r7, #4
     2a8:	6038      	str	r0, [r7, #0]
     2aa:	4770      	bx	lr

000002ac <Dictionary_28>:
     2ac:	000002ce 	andeq	r0, r0, lr, asr #5
     2b0:	32040046 	andcc	r0, r4, #70	; 0x46
     2b4:	00746f72 	rsbseq	r6, r4, r2, ror pc

000002b8 <Code_28>:
     2b8:	6838      	ldr	r0, [r7, #0]
     2ba:	68b9      	ldr	r1, [r7, #8]
     2bc:	693a      	ldr	r2, [r7, #16]
     2be:	60b8      	str	r0, [r7, #8]
     2c0:	6139      	str	r1, [r7, #16]
     2c2:	603a      	str	r2, [r7, #0]
     2c4:	6879      	ldr	r1, [r7, #4]
     2c6:	607e      	str	r6, [r7, #4]
     2c8:	68fe      	ldr	r6, [r7, #12]
     2ca:	60f9      	str	r1, [r7, #12]
     2cc:	4770      	bx	lr

000002ce <Dictionary_29>:
     2ce:	000002f0 	strdeq	r0, [r0], -r0	; <UNPREDICTABLE>
     2d2:	32050046 	andcc	r0, r5, #70	; 0x46
     2d6:	746f722d 	strbtvc	r7, [pc], #-557	; 2de <Code_29+0x4>

000002da <Code_29>:
     2da:	6838      	ldr	r0, [r7, #0]
     2dc:	68b9      	ldr	r1, [r7, #8]
     2de:	693a      	ldr	r2, [r7, #16]
     2e0:	6138      	str	r0, [r7, #16]
     2e2:	6039      	str	r1, [r7, #0]
     2e4:	60ba      	str	r2, [r7, #8]
     2e6:	68f9      	ldr	r1, [r7, #12]
     2e8:	60fe      	str	r6, [r7, #12]
     2ea:	687e      	ldr	r6, [r7, #4]
     2ec:	6079      	str	r1, [r7, #4]
     2ee:	4770      	bx	lr

000002f0 <Dictionary_30>:
     2f0:	00000304 	andeq	r0, r0, r4, lsl #6
     2f4:	32030020 	andcc	r0, r3, #32
     2f8:	cf01723e 	svcgt	0x0001723e

000002fa <Code_30>:
     2fa:	cf01      	ldmia	r7!, {r0}
     2fc:	b401      	push	{r0}
     2fe:	b440      	push	{r6}
     300:	cf40      	ldmia	r7!, {r6}
     302:	4770      	bx	lr

00000304 <Dictionary_31>:
     304:	0000031c 	andeq	r0, r0, ip, lsl r3
     308:	32030020 	andcc	r0, r3, #32
     30c:	f8473e72 			; <UNDEFINED> instruction: 0xf8473e72

0000030e <Code_31>:
     30e:	f847 6d04 	str.w	r6, [r7, #-4]!
     312:	bc40      	pop	{r6}
     314:	bc01      	pop	{r0}
     316:	3f04      	subs	r7, #4
     318:	6038      	str	r0, [r7, #0]
     31a:	4770      	bx	lr

0000031c <Dictionary_33>:
     31c:	00000334 	andeq	r0, r0, r4, lsr r3
     320:	32030020 	andcc	r0, r3, #32
     324:	f8474072 			; <UNDEFINED> instruction: 0xf8474072

00000326 <Code_33>:
     326:	f847 6d04 	str.w	r6, [r7, #-4]!
     32a:	9e01      	ldr	r6, [sp, #4]
     32c:	f847 6d04 	str.w	r6, [r7, #-4]!
     330:	9e00      	ldr	r6, [sp, #0]
     332:	4770      	bx	lr

00000334 <Dictionary_36>:
     334:	00000346 	andeq	r0, r0, r6, asr #6
     338:	32060020 	andcc	r0, r6, #32
     33c:	6f726472 	svcvs	0x00726472
     340:	b0020070 	andlt	r0, r2, r0, ror r0

00000342 <Code_36>:
     342:	b002      	add	sp, #8
     344:	4770      	bx	lr

00000346 <Dictionary_37>:
     346:	0000035e 	andeq	r0, r0, lr, asr r3
     34a:	64030042 	strvs	r0, [r3], #-66	; 0x42
     34e:	68382f32 	ldmdavs	r8!, {r1, r4, r5, r8, r9, sl, fp, sp}

00000350 <Code_37>:
     350:	6838      	ldr	r0, [r7, #0]
     352:	07f1      	lsls	r1, r6, #31
     354:	1076      	asrs	r6, r6, #1
     356:	0840      	lsrs	r0, r0, #1
     358:	4308      	orrs	r0, r1
     35a:	6038      	str	r0, [r7, #0]
     35c:	4770      	bx	lr

0000035e <Dictionary_38>:
     35e:	00000372 	andeq	r0, r0, r2, ror r3
     362:	64030062 	strvs	r0, [r3], #-98	; 0x62
     366:	68382a32 	ldmdavs	r8!, {r1, r4, r5, r9, fp, sp}

00000368 <Code_38>:
     368:	6838      	ldr	r0, [r7, #0]
     36a:	1800      	adds	r0, r0, r0
     36c:	4176      	adcs	r6, r6
     36e:	6038      	str	r0, [r7, #0]
     370:	4770      	bx	lr

00000372 <Dictionary_39>:
     372:	0000038c 	andeq	r0, r0, ip, lsl #7
     376:	64040042 	strvs	r0, [r4], #-66	; 0x42
     37a:	00726873 	rsbseq	r6, r2, r3, ror r8

0000037e <Code_39>:
     37e:	6838      	ldr	r0, [r7, #0]
     380:	07f1      	lsls	r1, r6, #31
     382:	0876      	lsrs	r6, r6, #1
     384:	0840      	lsrs	r0, r0, #1
     386:	4308      	orrs	r0, r1
     388:	6038      	str	r0, [r7, #0]
     38a:	4770      	bx	lr

0000038c <Dictionary_40>:
     38c:	000003a2 	andeq	r0, r0, r2, lsr #7
     390:	64040062 	strvs	r0, [r4], #-98	; 0x62
     394:	006c6873 	rsbeq	r6, ip, r3, ror r8

00000398 <Code_40>:
     398:	6838      	ldr	r0, [r7, #0]
     39a:	1800      	adds	r0, r0, r0
     39c:	4176      	adcs	r6, r6
     39e:	6038      	str	r0, [r7, #0]
     3a0:	4770      	bx	lr

000003a2 <Dictionary_41>:
     3a2:	000003b4 			; <UNDEFINED> instruction: 0x000003b4
     3a6:	64040042 	strvs	r0, [r4], #-66	; 0x42
     3aa:	00736261 	rsbseq	r6, r3, r1, ror #4

000003ae <Code_41>:
     3ae:	2e00      	cmp	r6, #0
     3b0:	d407      	bmi.n	3c2 <Code_42>
     3b2:	4770      	bx	lr

000003b4 <Dictionary_42>:
     3b4:	000003d2 	ldrdeq	r0, [r0], -r2
     3b8:	64070042 	strvs	r0, [r7], #-66	; 0x42
     3bc:	6167656e 	cmnvs	r7, lr, ror #10
     3c0:	68386574 	ldmdavs	r8!, {r2, r4, r5, r6, r8, sl, sp, lr}

000003c2 <Code_42>:
     3c2:	6838      	ldr	r0, [r7, #0]
     3c4:	2100      	movs	r1, #0
     3c6:	43c0      	mvns	r0, r0
     3c8:	43f6      	mvns	r6, r6
     3ca:	3001      	adds	r0, #1
     3cc:	414e      	adcs	r6, r1
     3ce:	6038      	str	r0, [r7, #0]
     3d0:	4770      	bx	lr

000003d2 <Dictionary_43>:
     3d2:	000003ea 	andeq	r0, r0, sl, ror #7
     3d6:	64020064 	strvs	r0, [r2], #-100	; 0x64
     3da:	cf07002d 	svcgt	0x0007002d

000003dc <Code_43>:
     3dc:	cf07      	ldmia	r7!, {r0, r1, r2}
     3de:	1a12      	subs	r2, r2, r0
     3e0:	41b1      	sbcs	r1, r6
     3e2:	000e      	movs	r6, r1
     3e4:	3f04      	subs	r7, #4
     3e6:	603a      	str	r2, [r7, #0]
     3e8:	4770      	bx	lr

000003ea <Dictionary_44>:
     3ea:	00000400 	andeq	r0, r0, r0, lsl #8
     3ee:	64020064 	strvs	r0, [r2], #-100	; 0x64
     3f2:	cf07002b 	svcgt	0x0007002b

000003f4 <Code_44>:
     3f4:	cf07      	ldmia	r7!, {r0, r1, r2}
     3f6:	1812      	adds	r2, r2, r0
     3f8:	414e      	adcs	r6, r1
     3fa:	3f04      	subs	r7, #4
     3fc:	603a      	str	r2, [r7, #0]
     3fe:	4770      	bx	lr

00000400 <Dictionary_45>:
     400:	00000412 	andeq	r0, r0, r2, lsl r4
     404:	73030061 	movwvc	r0, #12385	; 0x3061
     408:	f847643e 			; <UNDEFINED> instruction: 0xf847643e

0000040a <Code_45>:
     40a:	f847 6d04 	str.w	r6, [r7, #-4]!
     40e:	17f6      	asrs	r6, r6, #31
     410:	4770      	bx	lr

00000412 <Dictionary_47>:
     412:	00000426 	andeq	r0, r0, r6, lsr #8
     416:	75030062 	strvc	r0, [r3, #-98]	; 0x62
     41a:	68382a6d 	ldmdavs	r8!, {r0, r2, r3, r5, r6, r9, fp, sp}

0000041c <Code_47>:
     41c:	6838      	ldr	r0, [r7, #0]
     41e:	fba0 0606 	umull	r0, r6, r0, r6
     422:	6038      	str	r0, [r7, #0]
     424:	4770      	bx	lr

00000426 <Dictionary_48>:
     426:	0000043a 	andeq	r0, r0, sl, lsr r4
     42a:	6d020062 	stcvs	0, cr0, [r2, #-392]	; 0xfffffe78
     42e:	6838002a 	ldmdavs	r8!, {r1, r3, r5}

00000430 <Code_48>:
     430:	6838      	ldr	r0, [r7, #0]
     432:	fb80 0606 	smull	r0, r6, r0, r6
     436:	6038      	str	r0, [r7, #0]
     438:	4770      	bx	lr

0000043a <Dictionary_49>:
     43a:	00000478 	andeq	r0, r0, r8, ror r4
     43e:	75030044 	strvc	r0, [r3, #-68]	; 0x44
     442:	cf072a64 	svcgt	0x00072a64

00000444 <Code_49>:
     444:	cf07      	ldmia	r7!, {r0, r1, r2}
     446:	4356      	muls	r6, r2
     448:	4341      	muls	r1, r0
     44a:	1876      	adds	r6, r6, r1
     44c:	0c01      	lsrs	r1, r0, #16
     44e:	0c13      	lsrs	r3, r2, #16
     450:	4359      	muls	r1, r3
     452:	1876      	adds	r6, r6, r1
     454:	0c01      	lsrs	r1, r0, #16
     456:	b280      	uxth	r0, r0
     458:	b292      	uxth	r2, r2
     45a:	4351      	muls	r1, r2
     45c:	4343      	muls	r3, r0
     45e:	4350      	muls	r0, r2
     460:	2200      	movs	r2, #0
     462:	18c9      	adds	r1, r1, r3
     464:	4152      	adcs	r2, r2
     466:	0412      	lsls	r2, r2, #16
     468:	18b6      	adds	r6, r6, r2
     46a:	040a      	lsls	r2, r1, #16
     46c:	0c09      	lsrs	r1, r1, #16
     46e:	1880      	adds	r0, r0, r2
     470:	414e      	adcs	r6, r1
     472:	3f04      	subs	r7, #4
     474:	6038      	str	r0, [r7, #0]
     476:	4770      	bx	lr

00000478 <Dictionary_50>:
     478:	0000050a 	andeq	r0, r0, sl, lsl #10
     47c:	75040044 	strvc	r0, [r4, #-68]	; 0x44
     480:	002a6d64 	eoreq	r6, sl, r4, ror #26

00000484 <Code_50>:
     484:	b510      	push	{r4, lr}
     486:	2400      	movs	r4, #0
     488:	f847 6d04 	str.w	r6, [r7, #-4]!
     48c:	687e      	ldr	r6, [r7, #4]
     48e:	f847 6d04 	str.w	r6, [r7, #-4]!
     492:	693e      	ldr	r6, [r7, #16]
     494:	f7ff ffc2 	bl	41c <Code_47>
     498:	0031      	movs	r1, r6
     49a:	cf40      	ldmia	r7!, {r6}
     49c:	0030      	movs	r0, r6
     49e:	cf40      	ldmia	r7!, {r6}
     4a0:	f847 6d04 	str.w	r6, [r7, #-4]!
     4a4:	683e      	ldr	r6, [r7, #0]
     4a6:	f847 6d04 	str.w	r6, [r7, #-4]!
     4aa:	68fe      	ldr	r6, [r7, #12]
     4ac:	b403      	push	{r0, r1}
     4ae:	f7ff ffb5 	bl	41c <Code_47>
     4b2:	bc03      	pop	{r0, r1}
     4b4:	0033      	movs	r3, r6
     4b6:	cf40      	ldmia	r7!, {r6}
     4b8:	0032      	movs	r2, r6
     4ba:	cf40      	ldmia	r7!, {r6}
     4bc:	f847 6d04 	str.w	r6, [r7, #-4]!
     4c0:	683e      	ldr	r6, [r7, #0]
     4c2:	f847 6d04 	str.w	r6, [r7, #-4]!
     4c6:	693e      	ldr	r6, [r7, #16]
     4c8:	b40f      	push	{r0, r1, r2, r3}
     4ca:	f7ff ffa7 	bl	41c <Code_47>
     4ce:	bc0f      	pop	{r0, r1, r2, r3}
     4d0:	1992      	adds	r2, r2, r6
     4d2:	4163      	adcs	r3, r4
     4d4:	cf40      	ldmia	r7!, {r6}
     4d6:	1989      	adds	r1, r1, r6
     4d8:	4162      	adcs	r2, r4
     4da:	4163      	adcs	r3, r4
     4dc:	cf40      	ldmia	r7!, {r6}
     4de:	f847 6d04 	str.w	r6, [r7, #-4]!
     4e2:	687e      	ldr	r6, [r7, #4]
     4e4:	f847 6d04 	str.w	r6, [r7, #-4]!
     4e8:	68fe      	ldr	r6, [r7, #12]
     4ea:	b40f      	push	{r0, r1, r2, r3}
     4ec:	f7ff ff96 	bl	41c <Code_47>
     4f0:	bc0f      	pop	{r0, r1, r2, r3}
     4f2:	1992      	adds	r2, r2, r6
     4f4:	4163      	adcs	r3, r4
     4f6:	cf40      	ldmia	r7!, {r6}
     4f8:	1989      	adds	r1, r1, r6
     4fa:	4162      	adcs	r2, r4
     4fc:	4163      	adcs	r3, r4
     4fe:	cf40      	ldmia	r7!, {r6}
     500:	001e      	movs	r6, r3
     502:	603a      	str	r2, [r7, #0]
     504:	6079      	str	r1, [r7, #4]
     506:	60b8      	str	r0, [r7, #8]
     508:	bd10      	pop	{r4, pc}

0000050a <Dictionary_67>:
     50a:	0000052c 	andeq	r0, r0, ip, lsr #10
     50e:	2a020043 	bcs	80622 <BIT19+0x622>
     512:	b500002f 	strlt	r0, [r0, #-47]	; 0x2f

00000514 <Code_67>:
     514:	b500      	push	{lr}
     516:	b440      	push	{r6}
     518:	cf40      	ldmia	r7!, {r6}
     51a:	f7ff ff89 	bl	430 <Code_48>
     51e:	f847 6d04 	str.w	r6, [r7, #-4]!
     522:	bc40      	pop	{r6}
     524:	f000 f84c 	bl	5c0 <Code_90>
     528:	3704      	adds	r7, #4
     52a:	bd00      	pop	{pc}

0000052c <Dictionary_72>:
     52c:	0000054e 	andeq	r0, r0, lr, asr #10
     530:	2a050043 	bcs	140644 <BIT20+0x40644>
     534:	646f6d2f 	strbtvs	r6, [pc], #-3375	; 53c <Code_72+0x4>

00000538 <Code_72>:
     538:	b500      	push	{lr}
     53a:	b440      	push	{r6}
     53c:	cf40      	ldmia	r7!, {r6}
     53e:	f7ff ff77 	bl	430 <Code_48>
     542:	f847 6d04 	str.w	r6, [r7, #-4]!
     546:	bc40      	pop	{r6}
     548:	f000 f83a 	bl	5c0 <Code_90>
     54c:	bd00      	pop	{pc}

0000054e <Dictionary_76>:
     54e:	00000570 	andeq	r0, r0, r0, ror r5
     552:	75030043 	strvc	r0, [r3, #-67]	; 0x43
     556:	b5002f2a 	strlt	r2, [r0, #-3882]	; 0xf2a

00000558 <Code_76>:
     558:	b500      	push	{lr}
     55a:	b440      	push	{r6}
     55c:	cf40      	ldmia	r7!, {r6}
     55e:	f7ff ff5d 	bl	41c <Code_47>
     562:	f847 6d04 	str.w	r6, [r7, #-4]!
     566:	bc40      	pop	{r6}
     568:	f000 f81b 	bl	5a2 <Code_85>
     56c:	3704      	adds	r7, #4
     56e:	bd00      	pop	{pc}

00000570 <Dictionary_81>:
     570:	00000594 	muleq	r0, r4, r5
     574:	75060043 	strvc	r0, [r6, #-67]	; 0x43
     578:	6f6d2f2a 	svcvs	0x006d2f2a
     57c:	b5000064 	strlt	r0, [r0, #-100]	; 0x64

0000057e <Code_81>:
     57e:	b500      	push	{lr}
     580:	b440      	push	{r6}
     582:	cf40      	ldmia	r7!, {r6}
     584:	f7ff ff4a 	bl	41c <Code_47>
     588:	f847 6d04 	str.w	r6, [r7, #-4]!
     58c:	bc40      	pop	{r6}
     58e:	f000 f808 	bl	5a2 <Code_85>
     592:	bd00      	pop	{pc}

00000594 <Dictionary_85>:
     594:	000005b4 			; <UNDEFINED> instruction: 0x000005b4
     598:	75060043 	strvc	r0, [r6, #-67]	; 0x43
     59c:	6f6d2f6d 	svcvs	0x006d2f6d
     5a0:	b5000064 	strlt	r0, [r0, #-100]	; 0x64

000005a2 <Code_85>:
     5a2:	b500      	push	{lr}
     5a4:	f847 6d04 	str.w	r6, [r7, #-4]!
     5a8:	2600      	movs	r6, #0
     5aa:	f000 f819 	bl	5e0 <Code_94>
     5ae:	cf40      	ldmia	r7!, {r6}
     5b0:	3704      	adds	r7, #4
     5b2:	bd00      	pop	{pc}

000005b4 <Dictionary_90>:
     5b4:	000005d2 	ldrdeq	r0, [r0], -r2
     5b8:	6d050043 	stcvs	0, cr0, [r5, #-268]	; 0xfffffef4
     5bc:	646f6d2f 	strbtvs	r6, [pc], #-3375	; 5c4 <Code_90+0x4>

000005c0 <Code_90>:
     5c0:	b500      	push	{lr}
     5c2:	f847 6d04 	str.w	r6, [r7, #-4]!
     5c6:	17f6      	asrs	r6, r6, #31
     5c8:	f000 f832 	bl	630 <Code_96>
     5cc:	cf40      	ldmia	r7!, {r6}
     5ce:	3704      	adds	r7, #4
     5d0:	bd00      	pop	{pc}

000005d2 <Dictionary_94>:
     5d2:	00000624 	andeq	r0, r0, r4, lsr #12
     5d6:	75060044 	strvc	r0, [r6, #-68]	; 0x44
     5da:	6f6d2f64 	svcvs	0x006d2f64
     5de:	b4300064 	ldrtlt	r0, [r0], #-100	; 0x64

000005e0 <Code_94>:
     5e0:	b430      	push	{r4, r5}
     5e2:	2300      	movs	r3, #0
     5e4:	2200      	movs	r2, #0
     5e6:	6879      	ldr	r1, [r7, #4]
     5e8:	68b8      	ldr	r0, [r7, #8]

000005ea <ud_slash_mod_internal>:
     5ea:	0035      	movs	r5, r6
     5ec:	683c      	ldr	r4, [r7, #0]
     5ee:	2640      	movs	r6, #64	; 0x40
     5f0:	0040      	lsls	r0, r0, #1
     5f2:	4149      	adcs	r1, r1
     5f4:	4152      	adcs	r2, r2
     5f6:	415b      	adcs	r3, r3
     5f8:	42ab      	cmp	r3, r5
     5fa:	d802      	bhi.n	602 <ud_slash_mod_internal+0x18>
     5fc:	d304      	bcc.n	608 <ud_slash_mod_internal+0x1e>
     5fe:	42a2      	cmp	r2, r4
     600:	d302      	bcc.n	608 <ud_slash_mod_internal+0x1e>
     602:	1b12      	subs	r2, r2, r4
     604:	41ab      	sbcs	r3, r5
     606:	3001      	adds	r0, #1
     608:	3e01      	subs	r6, #1
     60a:	d1f1      	bne.n	5f0 <ud_slash_mod_internal+0x6>
     60c:	000e      	movs	r6, r1
     60e:	6038      	str	r0, [r7, #0]
     610:	607b      	str	r3, [r7, #4]
     612:	60ba      	str	r2, [r7, #8]
     614:	bc30      	pop	{r4, r5}
     616:	4770      	bx	lr

00000618 <uf_slash_mod>:
     618:	b430      	push	{r4, r5}
     61a:	2300      	movs	r3, #0
     61c:	687a      	ldr	r2, [r7, #4]
     61e:	68b9      	ldr	r1, [r7, #8]
     620:	2000      	movs	r0, #0
     622:	e7e2      	b.n	5ea <ud_slash_mod_internal>

00000624 <Dictionary_96>:
     624:	0000069a 	muleq	r0, sl, r6
     628:	64050044 	strvs	r0, [r5], #-68	; 0x44
     62c:	646f6d2f 	strbtvs	r6, [pc], #-3375	; 634 <Code_96+0x4>

00000630 <Code_96>:
     630:	b500      	push	{lr}
     632:	17f0      	asrs	r0, r6, #31
     634:	d019      	beq.n	66a <Code_96+0x3a>
     636:	f7ff fec4 	bl	3c2 <Code_42>
     63a:	f7ff fe05 	bl	248 <Code_21>
     63e:	17f0      	asrs	r0, r6, #31
     640:	d00c      	beq.n	65c <Code_96+0x2c>
     642:	f7ff febe 	bl	3c2 <Code_42>
     646:	f7ff fdff 	bl	248 <Code_21>
     64a:	f7ff ffc9 	bl	5e0 <Code_94>
     64e:	f7ff fdfb 	bl	248 <Code_21>
     652:	f7ff feb6 	bl	3c2 <Code_42>
     656:	f7ff fdf7 	bl	248 <Code_21>
     65a:	bd00      	pop	{pc}
     65c:	f7ff fdf4 	bl	248 <Code_21>
     660:	f7ff ffbe 	bl	5e0 <Code_94>
     664:	f7ff fead 	bl	3c2 <Code_42>
     668:	bd00      	pop	{pc}
     66a:	f7ff fded 	bl	248 <Code_21>
     66e:	17f0      	asrs	r0, r6, #31
     670:	d00e      	beq.n	690 <Code_96+0x60>
     672:	f7ff fea6 	bl	3c2 <Code_42>
     676:	f7ff fde7 	bl	248 <Code_21>
     67a:	f7ff ffb1 	bl	5e0 <Code_94>
     67e:	f7ff fea0 	bl	3c2 <Code_42>
     682:	f7ff fde1 	bl	248 <Code_21>
     686:	f7ff fe9c 	bl	3c2 <Code_42>
     68a:	f7ff fddd 	bl	248 <Code_21>
     68e:	bd00      	pop	{pc}
     690:	f7ff fdda 	bl	248 <Code_21>
     694:	f7ff ffa4 	bl	5e0 <Code_94>
     698:	bd00      	pop	{pc}

0000069a <Dictionary_97>:
     69a:	000006b0 			; <UNDEFINED> instruction: 0x000006b0
     69e:	64020044 	strvs	r0, [r2], #-68	; 0x44
     6a2:	b500002f 	strlt	r0, [r0, #-47]	; 0x2f

000006a4 <Code_97>:
     6a4:	b500      	push	{lr}
     6a6:	f7ff ffc3 	bl	630 <Code_96>
     6aa:	f7ff fddc 	bl	266 <Code_23>
     6ae:	bd00      	pop	{pc}

000006b0 <Dictionary_98>:
     6b0:	000006f8 	strdeq	r0, [r0], -r8
     6b4:	66020044 	strvs	r0, [r2], -r4, asr #32
     6b8:	b500002a 	strlt	r0, [r0, #-42]	; 0x2a

000006ba <Code_98>:
     6ba:	b500      	push	{lr}
     6bc:	17f0      	asrs	r0, r6, #31
     6be:	d00d      	beq.n	6dc <Code_98+0x22>
     6c0:	f7ff fe7f 	bl	3c2 <Code_42>
     6c4:	f7ff fdc0 	bl	248 <Code_21>
     6c8:	17f0      	asrs	r0, r6, #31
     6ca:	d00d      	beq.n	6e8 <Code_98+0x2e>
     6cc:	f7ff fe79 	bl	3c2 <Code_42>
     6d0:	f7ff fed8 	bl	484 <Code_50>
     6d4:	cf40      	ldmia	r7!, {r6}
     6d6:	cf01      	ldmia	r7!, {r0}
     6d8:	6038      	str	r0, [r7, #0]
     6da:	bd00      	pop	{pc}
     6dc:	f7ff fdb4 	bl	248 <Code_21>
     6e0:	17f0      	asrs	r0, r6, #31
     6e2:	d0f5      	beq.n	6d0 <Code_98+0x16>
     6e4:	f7ff fe6d 	bl	3c2 <Code_42>
     6e8:	f7ff fecc 	bl	484 <Code_50>
     6ec:	cf40      	ldmia	r7!, {r6}
     6ee:	cf01      	ldmia	r7!, {r0}
     6f0:	6038      	str	r0, [r7, #0]
     6f2:	f7ff fe66 	bl	3c2 <Code_42>
     6f6:	bd00      	pop	{pc}

000006f8 <Dictionary_101>:
     6f8:	00000744 	andeq	r0, r0, r4, asr #14
     6fc:	66020044 	strvs	r0, [r2], -r4, asr #32
     700:	b500002f 	strlt	r0, [r0, #-47]	; 0x2f

00000702 <Code_101>:
     702:	b500      	push	{lr}
     704:	17f0      	asrs	r0, r6, #31
     706:	d00e      	beq.n	726 <Code_101+0x24>
     708:	f7ff fe5b 	bl	3c2 <Code_42>
     70c:	f7ff fd9c 	bl	248 <Code_21>
     710:	17f0      	asrs	r0, r6, #31
     712:	d00e      	beq.n	732 <Code_101+0x30>
     714:	f7ff fe55 	bl	3c2 <Code_42>
     718:	f7ff fd96 	bl	248 <Code_21>
     71c:	f7ff ff7c 	bl	618 <uf_slash_mod>
     720:	f7ff fda1 	bl	266 <Code_23>
     724:	bd00      	pop	{pc}
     726:	f7ff fd8f 	bl	248 <Code_21>
     72a:	17f0      	asrs	r0, r6, #31
     72c:	d0f4      	beq.n	718 <Code_101+0x16>
     72e:	f7ff fe48 	bl	3c2 <Code_42>
     732:	f7ff fd89 	bl	248 <Code_21>
     736:	f7ff ff6f 	bl	618 <uf_slash_mod>
     73a:	f7ff fe42 	bl	3c2 <Code_42>
     73e:	f7ff fd92 	bl	266 <Code_23>
     742:	bd00      	pop	{pc}

00000744 <Dictionary_102>:
     744:	00000758 	andeq	r0, r0, r8, asr r7
     748:	32020020 	andcc	r0, r2, #32
     74c:	cf060021 	svcgt	0x00060021

0000074e <Code_102>:
     74e:	cf06      	ldmia	r7!, {r1, r2}
     750:	6031      	str	r1, [r6, #0]
     752:	6072      	str	r2, [r6, #4]
     754:	cf40      	ldmia	r7!, {r6}
     756:	4770      	bx	lr

00000758 <Dictionary_104>:
     758:	0000076c 	andeq	r0, r0, ip, ror #14
     75c:	32020020 	andcc	r0, r2, #32
     760:	3f040040 	svccc	0x00040040

00000762 <Code_104>:
     762:	3f04      	subs	r7, #4
     764:	6870      	ldr	r0, [r6, #4]
     766:	6038      	str	r0, [r7, #0]
     768:	6836      	ldr	r6, [r6, #0]
     76a:	4770      	bx	lr

0000076c <Dictionary_105>:
     76c:	0000078c 	andeq	r0, r0, ip, lsl #15
     770:	64030044 	strvs	r0, [r3], #-68	; 0x44
     774:	cf073c75 	svcgt	0x00073c75

00000776 <Code_105>:
     776:	cf07      	ldmia	r7!, {r0, r1, r2}
     778:	428e      	cmp	r6, r1
     77a:	d804      	bhi.n	786 <Code_105+0x10>
     77c:	d101      	bne.n	782 <Code_105+0xc>
     77e:	4290      	cmp	r0, r2
     780:	d801      	bhi.n	786 <Code_105+0x10>
     782:	2600      	movs	r6, #0
     784:	4770      	bx	lr
     786:	2600      	movs	r6, #0
     788:	43f6      	mvns	r6, r6
     78a:	4770      	bx	lr

0000078c <Dictionary_106>:
     78c:	000007ac 	andeq	r0, r0, ip, lsr #15
     790:	64030044 	strvs	r0, [r3], #-68	; 0x44
     794:	cf073e75 	svcgt	0x00073e75

00000796 <Code_106>:
     796:	cf07      	ldmia	r7!, {r0, r1, r2}
     798:	42b1      	cmp	r1, r6
     79a:	d804      	bhi.n	7a6 <Code_106+0x10>
     79c:	d101      	bne.n	7a2 <Code_106+0xc>
     79e:	4282      	cmp	r2, r0
     7a0:	d801      	bhi.n	7a6 <Code_106+0x10>
     7a2:	2600      	movs	r6, #0
     7a4:	4770      	bx	lr
     7a6:	2600      	movs	r6, #0
     7a8:	43f6      	mvns	r6, r6
     7aa:	4770      	bx	lr

000007ac <Dictionary_107>:
     7ac:	000007cc 	andeq	r0, r0, ip, asr #15
     7b0:	64020044 	strvs	r0, [r2], #-68	; 0x44
     7b4:	cf07003c 	svcgt	0x0007003c

000007b6 <Code_107>:
     7b6:	cf07      	ldmia	r7!, {r0, r1, r2}
     7b8:	428e      	cmp	r6, r1
     7ba:	dc04      	bgt.n	7c6 <Code_107+0x10>
     7bc:	d101      	bne.n	7c2 <Code_107+0xc>
     7be:	4290      	cmp	r0, r2
     7c0:	dc01      	bgt.n	7c6 <Code_107+0x10>
     7c2:	2600      	movs	r6, #0
     7c4:	4770      	bx	lr
     7c6:	2600      	movs	r6, #0
     7c8:	43f6      	mvns	r6, r6
     7ca:	4770      	bx	lr

000007cc <Dictionary_108>:
     7cc:	000007ec 	andeq	r0, r0, ip, ror #15
     7d0:	64020044 	strvs	r0, [r2], #-68	; 0x44
     7d4:	cf07003e 	svcgt	0x0007003e

000007d6 <Code_108>:
     7d6:	cf07      	ldmia	r7!, {r0, r1, r2}
     7d8:	42b1      	cmp	r1, r6
     7da:	dc04      	bgt.n	7e6 <Code_108+0x10>
     7dc:	d101      	bne.n	7e2 <Code_108+0xc>
     7de:	4282      	cmp	r2, r0
     7e0:	dc01      	bgt.n	7e6 <Code_108+0x10>
     7e2:	2600      	movs	r6, #0
     7e4:	4770      	bx	lr
     7e6:	2600      	movs	r6, #0
     7e8:	43f6      	mvns	r6, r6
     7ea:	4770      	bx	lr

000007ec <Dictionary_109>:
     7ec:	000007fc 	strdeq	r0, [r0], -ip
     7f0:	64030062 	strvs	r0, [r3], #-98	; 0x62
     7f4:	37043c30 	smladxcc	r4, r0, ip, r3

000007f6 <Code_109>:
     7f6:	3704      	adds	r7, #4
     7f8:	17f6      	asrs	r6, r6, #31
     7fa:	4770      	bx	lr

000007fc <Dictionary_110>:
     7fc:	00000810 	andeq	r0, r0, r0, lsl r8
     800:	64030062 	strvs	r0, [r3], #-98	; 0x62
     804:	cf013d30 	svcgt	0x00013d30

00000806 <Code_110>:
     806:	cf01      	ldmia	r7!, {r0}
     808:	4306      	orrs	r6, r0
     80a:	3e01      	subs	r6, #1
     80c:	41b6      	sbcs	r6, r6
     80e:	4770      	bx	lr

00000810 <Dictionary_111>:
     810:	0000082a 	andeq	r0, r0, sl, lsr #16
     814:	64030044 	strvs	r0, [r3], #-68	; 0x44
     818:	cf073e3c 	svcgt	0x00073e3c

0000081a <Code_111>:
     81a:	cf07      	ldmia	r7!, {r0, r1, r2}
     81c:	4050      	eors	r0, r2
     81e:	404e      	eors	r6, r1
     820:	4306      	orrs	r6, r0
     822:	3e01      	subs	r6, #1
     824:	41b6      	sbcs	r6, r6
     826:	43f6      	mvns	r6, r6
     828:	4770      	bx	lr

0000082a <Dictionary_112>:
     82a:	00000842 	andeq	r0, r0, r2, asr #16
     82e:	64020044 	strvs	r0, [r2], #-68	; 0x44
     832:	cf07003d 	svcgt	0x0007003d

00000834 <Code_112>:
     834:	cf07      	ldmia	r7!, {r0, r1, r2}
     836:	4050      	eors	r0, r2
     838:	404e      	eors	r6, r1
     83a:	4306      	orrs	r6, r0
     83c:	3e01      	subs	r6, #1
     83e:	41b6      	sbcs	r6, r6
     840:	4770      	bx	lr

00000842 <Dictionary_113>:
     842:	00000854 	andeq	r0, r0, r4, asr r8
     846:	73030020 	movwvc	r0, #12320	; 0x3020
     84a:	f8474070 			; <UNDEFINED> instruction: 0xf8474070

0000084c <Code_113>:
     84c:	f847 6d04 	str.w	r6, [r7, #-4]!
     850:	003e      	movs	r6, r7
     852:	4770      	bx	lr

00000854 <Dictionary_115>:
     854:	00000864 	andeq	r0, r0, r4, ror #16
     858:	73030020 	movwvc	r0, #12320	; 0x3020
     85c:	00372170 	eorseq	r2, r7, r0, ror r1

0000085e <Code_115>:
     85e:	0037      	movs	r7, r6
     860:	cf40      	ldmia	r7!, {r6}
     862:	4770      	bx	lr

00000864 <Dictionary_116>:
     864:	00000876 	andeq	r0, r0, r6, ror r8
     868:	72030020 	andvc	r0, r3, #32
     86c:	f8474070 			; <UNDEFINED> instruction: 0xf8474070

0000086e <Code_116>:
     86e:	f847 6d04 	str.w	r6, [r7, #-4]!
     872:	466e      	mov	r6, sp
     874:	4770      	bx	lr

00000876 <Dictionary_118>:
     876:	00000886 	andeq	r0, r0, r6, lsl #17
     87a:	72030020 	andvc	r0, r3, #32
     87e:	46b52170 			; <UNDEFINED> instruction: 0x46b52170

00000880 <Code_118>:
     880:	46b5      	mov	sp, r6
     882:	cf40      	ldmia	r7!, {r6}
     884:	4770      	bx	lr

00000886 <Dictionary_119>:
     886:	00000896 	muleq	r0, r6, r8
     88a:	64030061 	strvs	r0, [r3], #-97	; 0x61
     88e:	f8477075 			; <UNDEFINED> instruction: 0xf8477075

00000890 <Code_119>:
     890:	f847 6d04 	str.w	r6, [r7, #-4]!
     894:	4770      	bx	lr

00000896 <Dictionary_122>:
     896:	000008a6 	andeq	r0, r0, r6, lsr #17
     89a:	64040061 	strvs	r0, [r4], #-97	; 0x61
     89e:	00706f72 	rsbseq	r6, r0, r2, ror pc

000008a2 <Code_122>:
     8a2:	cf40      	ldmia	r7!, {r6}
     8a4:	4770      	bx	lr

000008a6 <Dictionary_124>:
     8a6:	000008bc 			; <UNDEFINED> instruction: 0x000008bc
     8aa:	3f040061 	svccc	0x00040061
     8ae:	00707564 	rsbseq	r7, r0, r4, ror #10

000008b2 <Code_124>:
     8b2:	2e00      	cmp	r6, #0
     8b4:	d001      	beq.n	8ba <Code_124+0x8>
     8b6:	f847 6d04 	str.w	r6, [r7, #-4]!
     8ba:	4770      	bx	lr

000008bc <Dictionary_126>:
     8bc:	000008d0 	ldrdeq	r0, [r0], -r0	; <UNPREDICTABLE>
     8c0:	73040062 	movwvc	r0, #16482	; 0x4062
     8c4:	00706177 	rsbseq	r6, r0, r7, ror r1

000008c8 <Code_126>:
     8c8:	6839      	ldr	r1, [r7, #0]
     8ca:	603e      	str	r6, [r7, #0]
     8cc:	000e      	movs	r6, r1
     8ce:	4770      	bx	lr

000008d0 <Dictionary_127>:
     8d0:	000008de 	ldrdeq	r0, [r0], -lr
     8d4:	6e030062 	cdpvs	0, 0, cr0, cr3, cr2, {3}
     8d8:	37047069 	strcc	r7, [r4, -r9, rrx]

000008da <Code_127>:
     8da:	3704      	adds	r7, #4
     8dc:	4770      	bx	lr

000008de <Dictionary_129>:
     8de:	000008f2 	strdeq	r0, [r0], -r2
     8e2:	6f040062 	svcvs	0x00040062
     8e6:	00726576 	rsbseq	r6, r2, r6, ror r5

000008ea <Code_129>:
     8ea:	f847 6d04 	str.w	r6, [r7, #-4]!
     8ee:	687e      	ldr	r6, [r7, #4]
     8f0:	4770      	bx	lr

000008f2 <Dictionary_131>:
     8f2:	00000908 	andeq	r0, r0, r8, lsl #18
     8f6:	74040062 	strvc	r0, [r4], #-98	; 0x62
     8fa:	006b6375 	rsbeq	r6, fp, r5, ror r3

000008fe <Code_131>:
     8fe:	cf01      	ldmia	r7!, {r0}
     900:	3f08      	subs	r7, #8
     902:	607e      	str	r6, [r7, #4]
     904:	6038      	str	r0, [r7, #0]
     906:	4770      	bx	lr

00000908 <Dictionary_132>:
     908:	0000091e 	andeq	r0, r0, lr, lsl r9
     90c:	72030063 	andvc	r0, r3, #99	; 0x63
     910:	cf03746f 	svcgt	0x0003746f

00000912 <Code_132>:
     912:	cf03      	ldmia	r7!, {r0, r1}
     914:	3f08      	subs	r7, #8
     916:	6078      	str	r0, [r7, #4]
     918:	603e      	str	r6, [r7, #0]
     91a:	000e      	movs	r6, r1
     91c:	4770      	bx	lr

0000091e <Dictionary_133>:
     91e:	00000936 	andeq	r0, r0, r6, lsr r9
     922:	2d040063 	stccs	0, cr0, [r4, #-396]	; 0xfffffe74
     926:	00746f72 	rsbseq	r6, r4, r2, ror pc

0000092a <Code_133>:
     92a:	cf03      	ldmia	r7!, {r0, r1}
     92c:	3f08      	subs	r7, #8
     92e:	607e      	str	r6, [r7, #4]
     930:	6039      	str	r1, [r7, #0]
     932:	0006      	movs	r6, r0
     934:	4770      	bx	lr

00000936 <Dictionary_134>:
     936:	00000948 	andeq	r0, r0, r8, asr #18
     93a:	70040020 	andvc	r0, r4, r0, lsr #32
     93e:	006b6369 	rsbeq	r6, fp, r9, ror #6

00000942 <Code_134>:
     942:	f857 6026 	ldr.w	r6, [r7, r6, lsl #2]
     946:	4770      	bx	lr

00000948 <Dictionary_135>:
     948:	00000960 	andeq	r0, r0, r0, ror #18
     94c:	64050000 	strvs	r0, [r5]
     950:	68747065 	ldmdavs	r4!, {r0, r2, r5, r6, ip, sp, lr}^

00000954 <Code_135>:
     954:	49bc      	ldr	r1, [pc, #752]	; (c48 <Code_179+0xc>)
     956:	1bc9      	subs	r1, r1, r7
     958:	f847 6d04 	str.w	r6, [r7, #-4]!
     95c:	088e      	lsrs	r6, r1, #2
     95e:	4770      	bx	lr

00000960 <Dictionary_137>:
     960:	0000097c 	andeq	r0, r0, ip, ror r9
     964:	72060000 	andvc	r0, r6, #0
     968:	74706564 	ldrbtvc	r6, [r0], #-1380	; 0x564
     96c:	f8470068 			; <UNDEFINED> instruction: 0xf8470068

0000096e <Code_137>:
     96e:	f847 6d04 	str.w	r6, [r7, #-4]!
     972:	466e      	mov	r6, sp
     974:	49b5      	ldr	r1, [pc, #724]	; (c4c <Code_179+0x10>)
     976:	1b89      	subs	r1, r1, r6
     978:	088e      	lsrs	r6, r1, #2
     97a:	4770      	bx	lr

0000097c <Dictionary_139>:
     97c:	0000098c 	andeq	r0, r0, ip, lsl #19
     980:	3e020020 	cdpcc	0, 0, cr0, cr2, cr0, {1}
     984:	b4400072 	strblt	r0, [r0], #-114	; 0x72

00000986 <Code_139>:
     986:	b440      	push	{r6}
     988:	cf40      	ldmia	r7!, {r6}
     98a:	4770      	bx	lr

0000098c <Dictionary_140>:
     98c:	0000099e 	muleq	r0, lr, r9
     990:	72020020 	andvc	r0, r2, #32
     994:	f847003e 			; <UNDEFINED> instruction: 0xf847003e

00000996 <Code_140>:
     996:	f847 6d04 	str.w	r6, [r7, #-4]!
     99a:	bc40      	pop	{r6}
     99c:	4770      	bx	lr

0000099e <Dictionary_142>:
     99e:	000009b0 			; <UNDEFINED> instruction: 0x000009b0
     9a2:	72020020 	andvc	r0, r2, #32
     9a6:	f8470040 			; <UNDEFINED> instruction: 0xf8470040

000009a8 <Code_142>:
     9a8:	f847 6d04 	str.w	r6, [r7, #-4]!
     9ac:	9e00      	ldr	r6, [sp, #0]
     9ae:	4770      	bx	lr

000009b0 <Dictionary_144>:
     9b0:	000009c0 	andeq	r0, r0, r0, asr #19
     9b4:	72050020 	andvc	r0, r5, #32
     9b8:	706f7264 	rsbvc	r7, pc, r4, ror #4

000009bc <Code_144>:
     9bc:	b001      	add	sp, #4
     9be:	4770      	bx	lr

000009c0 <Dictionary_145>:
     9c0:	000009d4 	ldrdeq	r0, [r0], -r4
     9c4:	72050020 	andvc	r0, r5, #32
     9c8:	6b636970 	blvs	18daf90 <BIT24+0x8daf90>

000009cc <Code_145>:
     9cc:	00b6      	lsls	r6, r6, #2
     9ce:	446e      	add	r6, sp
     9d0:	6836      	ldr	r6, [r6, #0]
     9d2:	4770      	bx	lr

000009d4 <Dictionary_146>:
     9d4:	000009ea 	andeq	r0, r0, sl, ror #19
     9d8:	6103006e 	tstvs	r3, lr, rrx
     9dc:	cf01646e 	svcgt	0x0001646e

000009de <Code_146>:
     9de:	cf01      	ldmia	r7!, {r0}
     9e0:	4006      	ands	r6, r0
     9e2:	4770      	bx	lr
     9e4:	4006      	ands	r6, r0
     9e6:	f0160600 			; <UNDEFINED> instruction: 0xf0160600

000009ea <Dictionary_147>:
     9ea:	00000a02 	andeq	r0, r0, r2, lsl #20
     9ee:	6203006e 	andvs	r0, r3, #110	; 0x6e
     9f2:	cf016369 	svcgt	0x00016369

000009f4 <Code_147>:
     9f4:	cf01      	ldmia	r7!, {r0}
     9f6:	43b0      	bics	r0, r6
     9f8:	0006      	movs	r6, r0
     9fa:	4770      	bx	lr
     9fc:	4386      	bics	r6, r0
     9fe:	f0360600 			; <UNDEFINED> instruction: 0xf0360600

00000a02 <Dictionary_148>:
     a02:	00000a18 	andeq	r0, r0, r8, lsl sl
     a06:	6f02006e 	svcvs	0x0002006e
     a0a:	cf010072 	svcgt	0x00010072

00000a0c <Code_148>:
     a0c:	cf01      	ldmia	r7!, {r0}
     a0e:	4306      	orrs	r6, r0
     a10:	4770      	bx	lr
     a12:	4306      	orrs	r6, r0
     a14:	f0560600 			; <UNDEFINED> instruction: 0xf0560600

00000a18 <Dictionary_149>:
     a18:	00000a2e 	andeq	r0, r0, lr, lsr #20
     a1c:	7803006e 	stmdavc	r3, {r1, r2, r3, r5, r6}
     a20:	cf01726f 	svcgt	0x0001726f

00000a22 <Code_149>:
     a22:	cf01      	ldmia	r7!, {r0}
     a24:	4046      	eors	r6, r0
     a26:	4770      	bx	lr
     a28:	4046      	eors	r6, r0
     a2a:	f0960600 			; <UNDEFINED> instruction: 0xf0960600

00000a2e <Dictionary_150>:
     a2e:	00000a3c 	andeq	r0, r0, ip, lsr sl
     a32:	6e030061 	cdpvs	0, 0, cr0, cr3, cr1, {3}
     a36:	43f6746f 	mvnsmi	r7, #1862270976	; 0x6f000000

00000a38 <Code_150>:
     a38:	43f6      	mvns	r6, r6
     a3a:	4770      	bx	lr

00000a3c <Dictionary_151>:
     a3c:	00000a4c 	andeq	r0, r0, ip, asr #20
     a40:	63030061 	movwvs	r0, #12385	; 0x3061
     a44:	fab67a6c 	blx	fed9f3fc <BIT31+0x7ed9f3fc>

00000a46 <Code_151>:
     a46:	fab6 f686 	clz	r6, r6
     a4a:	4770      	bx	lr

00000a4c <Dictionary_152>:
     a4c:	00000a5a 	andeq	r0, r0, sl, asr sl
     a50:	73030061 	movwvc	r0, #12385	; 0x3061
     a54:	08767268 	ldmdaeq	r6!, {r3, r5, r6, r9, ip, sp, lr}^

00000a56 <Code_152>:
     a56:	0876      	lsrs	r6, r6, #1
     a58:	4770      	bx	lr

00000a5a <Dictionary_153>:
     a5a:	00000a68 	andeq	r0, r0, r8, ror #20
     a5e:	73030061 	movwvc	r0, #12385	; 0x3061
     a62:	00766c68 	rsbseq	r6, r6, r8, ror #24

00000a64 <Code_153>:
     a64:	0076      	lsls	r6, r6, #1
     a66:	4770      	bx	lr

00000a68 <Dictionary_154>:
     a68:	00000a78 	andeq	r0, r0, r8, ror sl
     a6c:	72030061 	andvc	r0, r3, #97	; 0x61
     a70:	ea5f726f 	b	17dd434 <BIT24+0x7dd434>

00000a72 <Code_154>:
     a72:	ea5f 0676 	movs.w	r6, r6, ror #1
     a76:	4770      	bx	lr

00000a78 <Dictionary_155>:
     a78:	00000a8a 	andeq	r0, r0, sl, lsl #21
     a7c:	72030061 	andvc	r0, r3, #97	; 0x61
     a80:	19b66c6f 	ldmibne	r6!, {r0, r1, r2, r3, r5, r6, sl, fp, sp, lr}

00000a82 <Code_155>:
     a82:	19b6      	adds	r6, r6, r6
     a84:	f156 0600 	adcs.w	r6, r6, #0
     a88:	4770      	bx	lr

00000a8a <Dictionary_156>:
     a8a:	00000aa4 	andeq	r0, r0, r4, lsr #21
     a8e:	7206006c 	andvc	r0, r6, #108	; 0x6c
     a92:	66696873 			; <UNDEFINED> instruction: 0x66696873
     a96:	cf010074 	svcgt	0x00010074

00000a98 <Code_156>:
     a98:	cf01      	ldmia	r7!, {r0}
     a9a:	40f0      	lsrs	r0, r6
     a9c:	0006      	movs	r6, r0
     a9e:	4770      	bx	lr
     aa0:	26000836 			; <UNDEFINED> instruction: 0x26000836

00000aa4 <Dictionary_157>:
     aa4:	00000abe 			; <UNDEFINED> instruction: 0x00000abe
     aa8:	6107006c 	tstvs	r7, ip, rrx
     aac:	69687372 	stmdbvs	r8!, {r1, r4, r5, r6, r8, r9, ip, sp, lr}^
     ab0:	cf017466 	svcgt	0x00017466

00000ab2 <Code_157>:
     ab2:	cf01      	ldmia	r7!, {r0}
     ab4:	4130      	asrs	r0, r6
     ab6:	0006      	movs	r6, r0
     ab8:	4770      	bx	lr
     aba:	17f61036 			; <UNDEFINED> instruction: 0x17f61036

00000abe <Dictionary_158>:
     abe:	00000ad8 	ldrdeq	r0, [r0], -r8
     ac2:	6c06006c 	stcvs	0, cr0, [r6], {108}	; 0x6c
     ac6:	66696873 			; <UNDEFINED> instruction: 0x66696873
     aca:	cf010074 	svcgt	0x00010074

00000acc <Code_158>:
     acc:	cf01      	ldmia	r7!, {r0}
     ace:	40b0      	lsls	r0, r6
     ad0:	0006      	movs	r6, r0
     ad2:	4770      	bx	lr
     ad4:	26000036 			; <UNDEFINED> instruction: 0x26000036

00000ad8 <Dictionary_159>:
     ad8:	00000ae8 	andeq	r0, r0, r8, ror #21
     adc:	30020061 	andcc	r0, r2, r1, rrx
     ae0:	3e01003d 	mcrcc	0, 0, r0, cr1, cr13, {1}

00000ae2 <Code_159>:
     ae2:	3e01      	subs	r6, #1
     ae4:	41b6      	sbcs	r6, r6
     ae6:	4770      	bx	lr

00000ae8 <Dictionary_160>:
     ae8:	00000afa 	strdeq	r0, [r0], -sl
     aec:	30030061 	andcc	r0, r3, r1, rrx
     af0:	3e013e3c 	mcrcc	14, 0, r3, cr1, cr12, {1}

00000af2 <Code_160>:
     af2:	3e01      	subs	r6, #1
     af4:	41b6      	sbcs	r6, r6
     af6:	43f6      	mvns	r6, r6
     af8:	4770      	bx	lr

00000afa <Dictionary_161>:
     afa:	00000b08 	andeq	r0, r0, r8, lsl #22
     afe:	30020061 	andcc	r0, r2, r1, rrx
     b02:	17f6003c 			; <UNDEFINED> instruction: 0x17f6003c

00000b04 <Code_161>:
     b04:	17f6      	asrs	r6, r6, #31
     b06:	4770      	bx	lr

00000b08 <Dictionary_162>:
     b08:	00000b1e 	andeq	r0, r0, lr, lsl fp
     b0c:	74040060 	strvc	r0, [r4], #-96	; 0x60
     b10:	00657572 	rsbeq	r7, r5, r2, ror r5

00000b14 <Code_162>:
     b14:	f847 6d04 	str.w	r6, [r7, #-4]!

00000b18 <generate_true>:
     b18:	2600      	movs	r6, #0
     b1a:	43f6      	mvns	r6, r6
     b1c:	4770      	bx	lr

00000b1e <Dictionary_164>:
     b1e:	00000b32 	andeq	r0, r0, r2, lsr fp
     b22:	66050060 	strvs	r0, [r5], -r0, rrx
     b26:	65736c61 	ldrbvs	r6, [r3, #-3169]!	; 0xc61

00000b2a <Code_164>:
     b2a:	f847 6d04 	str.w	r6, [r7, #-4]!
     b2e:	2600      	movs	r6, #0
     b30:	4770      	bx	lr

00000b32 <Dictionary_166>:
     b32:	00000b46 	andeq	r0, r0, r6, asr #22
     b36:	3e020042 	cdpcc	0, 0, cr0, cr2, cr2, {2}
     b3a:	cf01003d 	svcgt	0x0001003d

00000b3c <Code_166>:
     b3c:	cf01      	ldmia	r7!, {r0}
     b3e:	42b0      	cmp	r0, r6
     b40:	daea      	bge.n	b18 <generate_true>
     b42:	2600      	movs	r6, #0
     b44:	4770      	bx	lr

00000b46 <Dictionary_167>:
     b46:	00000b5a 	andeq	r0, r0, sl, asr fp
     b4a:	3c020042 	stccc	0, cr0, [r2], {66}	; 0x42
     b4e:	cf01003d 	svcgt	0x0001003d

00000b50 <Code_167>:
     b50:	cf01      	ldmia	r7!, {r0}
     b52:	42b0      	cmp	r0, r6
     b54:	dde0      	ble.n	b18 <generate_true>
     b56:	2600      	movs	r6, #0
     b58:	4770      	bx	lr

00000b5a <Dictionary_168>:
     b5a:	00000b6c 	andeq	r0, r0, ip, ror #22
     b5e:	3c010042 	stccc	0, cr0, [r1], {66}	; 0x42

00000b62 <Code_168>:
     b62:	cf01      	ldmia	r7!, {r0}
     b64:	42b0      	cmp	r0, r6
     b66:	dbd7      	blt.n	b18 <generate_true>
     b68:	2600      	movs	r6, #0
     b6a:	4770      	bx	lr

00000b6c <Dictionary_169>:
     b6c:	00000b7e 	andeq	r0, r0, lr, ror fp
     b70:	3e010042 	cdpcc	0, 0, cr0, cr1, cr2, {2}

00000b74 <Code_169>:
     b74:	cf01      	ldmia	r7!, {r0}
     b76:	42b0      	cmp	r0, r6
     b78:	dcce      	bgt.n	b18 <generate_true>
     b7a:	2600      	movs	r6, #0
     b7c:	4770      	bx	lr

00000b7e <Dictionary_170>:
     b7e:	00000b92 	muleq	r0, r2, fp
     b82:	75030062 	strvc	r0, [r3, #-98]	; 0x62
     b86:	cf013d3e 	svcgt	0x00013d3e

00000b88 <Code_170>:
     b88:	cf01      	ldmia	r7!, {r0}
     b8a:	1b86      	subs	r6, r0, r6
     b8c:	41b6      	sbcs	r6, r6
     b8e:	43f6      	mvns	r6, r6
     b90:	4770      	bx	lr

00000b92 <Dictionary_171>:
     b92:	00000ba6 	andeq	r0, r0, r6, lsr #23
     b96:	75030062 	strvc	r0, [r3, #-98]	; 0x62
     b9a:	cf013d3c 	svcgt	0x00013d3c

00000b9c <Code_171>:
     b9c:	cf01      	ldmia	r7!, {r0}
     b9e:	1a36      	subs	r6, r6, r0
     ba0:	41b6      	sbcs	r6, r6
     ba2:	43f6      	mvns	r6, r6
     ba4:	4770      	bx	lr

00000ba6 <Dictionary_172>:
     ba6:	00000bb8 			; <UNDEFINED> instruction: 0x00000bb8
     baa:	75020062 	strvc	r0, [r2, #-98]	; 0x62
     bae:	cf01003c 	svcgt	0x0001003c

00000bb0 <Code_172>:
     bb0:	cf01      	ldmia	r7!, {r0}
     bb2:	1b86      	subs	r6, r0, r6
     bb4:	41b6      	sbcs	r6, r6
     bb6:	4770      	bx	lr

00000bb8 <Dictionary_173>:
     bb8:	00000bca 	andeq	r0, r0, sl, asr #23
     bbc:	75020062 	strvc	r0, [r2, #-98]	; 0x62
     bc0:	cf01003e 	svcgt	0x0001003e

00000bc2 <Code_173>:
     bc2:	cf01      	ldmia	r7!, {r0}
     bc4:	1a36      	subs	r6, r6, r0
     bc6:	41b6      	sbcs	r6, r6
     bc8:	4770      	bx	lr

00000bca <Dictionary_174>:
     bca:	00000be0 	andeq	r0, r0, r0, ror #23
     bce:	3c02006b 	stccc	0, cr0, [r2], {107}	; 0x6b
     bd2:	cf01003e 	svcgt	0x0001003e

00000bd4 <Code_174>:
     bd4:	cf01      	ldmia	r7!, {r0}
     bd6:	1a36      	subs	r6, r6, r0
     bd8:	3e01      	subs	r6, #1
     bda:	41b6      	sbcs	r6, r6
     bdc:	43f6      	mvns	r6, r6
     bde:	4770      	bx	lr

00000be0 <Dictionary_175>:
     be0:	00000bf2 	strdeq	r0, [r0], -r2
     be4:	3d01006b 	stccc	0, cr0, [r1, #-428]	; 0xfffffe54

00000be8 <Code_175>:
     be8:	cf01      	ldmia	r7!, {r0}
     bea:	1a36      	subs	r6, r6, r0
     bec:	3e01      	subs	r6, #1
     bee:	41b6      	sbcs	r6, r6
     bf0:	4770      	bx	lr

00000bf2 <Dictionary_176>:
     bf2:	00000c06 	andeq	r0, r0, r6, lsl #24
     bf6:	6d030062 	stcvs	0, cr0, [r3, #-392]	; 0xfffffe78
     bfa:	cf016e69 	svcgt	0x00016e69

00000bfc <Code_176>:
     bfc:	cf01      	ldmia	r7!, {r0}
     bfe:	42b0      	cmp	r0, r6
     c00:	dc00      	bgt.n	c04 <Code_176+0x8>
     c02:	0006      	movs	r6, r0
     c04:	4770      	bx	lr

00000c06 <Dictionary_177>:
     c06:	00000c1a 	andeq	r0, r0, sl, lsl ip
     c0a:	6d030062 	stcvs	0, cr0, [r3, #-392]	; 0xfffffe78
     c0e:	cf017861 	svcgt	0x00017861

00000c10 <Code_177>:
     c10:	cf01      	ldmia	r7!, {r0}
     c12:	42b0      	cmp	r0, r6
     c14:	db00      	blt.n	c18 <Code_177+0x8>
     c16:	0006      	movs	r6, r0
     c18:	4770      	bx	lr

00000c1a <Dictionary_178>:
     c1a:	00000c30 	andeq	r0, r0, r0, lsr ip
     c1e:	75040062 	strvc	r0, [r4, #-98]	; 0x62
     c22:	0078616d 	rsbseq	r6, r8, sp, ror #2

00000c26 <Code_178>:
     c26:	cf01      	ldmia	r7!, {r0}
     c28:	42b0      	cmp	r0, r6
     c2a:	d300      	bcc.n	c2e <Code_178+0x8>
     c2c:	0006      	movs	r6, r0
     c2e:	4770      	bx	lr

00000c30 <Dictionary_179>:
     c30:	00000c50 	andeq	r0, r0, r0, asr ip
     c34:	75040062 	strvc	r0, [r4, #-98]	; 0x62
     c38:	006e696d 	rsbeq	r6, lr, sp, ror #18

00000c3c <Code_179>:
     c3c:	cf01      	ldmia	r7!, {r0}
     c3e:	42b0      	cmp	r0, r6
     c40:	d800      	bhi.n	c44 <Code_179+0x8>
     c42:	0006      	movs	r6, r0
     c44:	4770      	bx	lr
     c46:	02300000 	eorseq	r0, r0, #0
     c4a:	03302000 	teqeq	r0, #0
     c4e:	0c8e2000 	stceq	0, cr2, [lr], {0}

00000c50 <Dictionary_180>:
     c50:	00000c8e 	andeq	r0, r0, lr, lsl #25
     c54:	6d040000 	stcvs	0, cr0, [r4]
     c58:	0065766f 	rsbeq	r7, r5, pc, ror #12

00000c5c <Code_180>:
     c5c:	b507      	push	{r0, r1, r2, lr}
     c5e:	0031      	movs	r1, r6
     c60:	cf40      	ldmia	r7!, {r6}
     c62:	0032      	movs	r2, r6
     c64:	cf40      	ldmia	r7!, {r6}
     c66:	2900      	cmp	r1, #0
     c68:	d00f      	beq.n	c8a <Code_180+0x2e>
     c6a:	42b2      	cmp	r2, r6
     c6c:	d00d      	beq.n	c8a <Code_180+0x2e>
     c6e:	d306      	bcc.n	c7e <Code_180+0x22>
     c70:	3e01      	subs	r6, #1
     c72:	3a01      	subs	r2, #1
     c74:	5c70      	ldrb	r0, [r6, r1]
     c76:	5450      	strb	r0, [r2, r1]
     c78:	3901      	subs	r1, #1
     c7a:	d1fb      	bne.n	c74 <Code_180+0x18>
     c7c:	e005      	b.n	c8a <Code_180+0x2e>
     c7e:	7830      	ldrb	r0, [r6, #0]
     c80:	7010      	strb	r0, [r2, #0]
     c82:	3601      	adds	r6, #1
     c84:	3201      	adds	r2, #1
     c86:	3901      	subs	r1, #1
     c88:	d1f9      	bne.n	c7e <Code_180+0x22>
     c8a:	cf40      	ldmia	r7!, {r6}
     c8c:	bd07      	pop	{r0, r1, r2, pc}

00000c8e <Dictionary_184>:
     c8e:	00000cb0 			; <UNDEFINED> instruction: 0x00000cb0
     c92:	66040000 	strvs	r0, [r4], -r0
     c96:	006c6c69 	rsbeq	r6, ip, r9, ror #24

00000c9a <Code_184>:
     c9a:	0030      	movs	r0, r6
     c9c:	cf40      	ldmia	r7!, {r6}
     c9e:	0031      	movs	r1, r6
     ca0:	cf40      	ldmia	r7!, {r6}
     ca2:	2900      	cmp	r1, #0
     ca4:	d002      	beq.n	cac <Code_184+0x12>
     ca6:	3901      	subs	r1, #1
     ca8:	5470      	strb	r0, [r6, r1]
     caa:	d1fc      	bne.n	ca6 <Code_184+0xc>
     cac:	cf40      	ldmia	r7!, {r6}
     cae:	4770      	bx	lr

00000cb0 <Dictionary_188>:
     cb0:	00000cbc 			; <UNDEFINED> instruction: 0x00000cbc
     cb4:	40010020 	andmi	r0, r1, r0, lsr #32

00000cb8 <Code_188>:
     cb8:	6836      	ldr	r6, [r6, #0]
     cba:	4770      	bx	lr

00000cbc <Dictionary_189>:
     cbc:	00000cd4 	ldrdeq	r0, [r0], -r4
     cc0:	2101006d 	tstcs	r1, sp, rrx

00000cc4 <Code_189>:
     cc4:	cf03      	ldmia	r7!, {r0, r1}
     cc6:	6030      	str	r0, [r6, #0]
     cc8:	000e      	movs	r6, r1
     cca:	4770      	bx	lr
     ccc:	6006      	str	r6, [r0, #0]
     cce:	4770      	bx	lr
     cd0:	6001      	str	r1, [r0, #0]
     cd2:	4770      	bx	lr

00000cd4 <Dictionary_190>:
     cd4:	00000cfa 	strdeq	r0, [r0], -sl
     cd8:	2b02006d 	blcs	80e94 <BIT19+0xe94>
     cdc:	cf030021 	svcgt	0x00030021

00000cde <Code_190>:
     cde:	cf03      	ldmia	r7!, {r0, r1}
     ce0:	6832      	ldr	r2, [r6, #0]
     ce2:	1812      	adds	r2, r2, r0
     ce4:	6032      	str	r2, [r6, #0]
     ce6:	000e      	movs	r6, r1
     ce8:	4770      	bx	lr
     cea:	6802      	ldr	r2, [r0, #0]
     cec:	1992      	adds	r2, r2, r6
     cee:	6002      	str	r2, [r0, #0]
     cf0:	4770      	bx	lr
     cf2:	6802      	ldr	r2, [r0, #0]
     cf4:	1852      	adds	r2, r2, r1
     cf6:	6002      	str	r2, [r0, #0]
     cf8:	4770      	bx	lr

00000cfa <Dictionary_191>:
     cfa:	00000d08 	andeq	r0, r0, r8, lsl #26
     cfe:	68020020 	stmdavs	r2, {r5}
     d02:	88360040 	ldmdahi	r6!, {r6}

00000d04 <Code_191>:
     d04:	8836      	ldrh	r6, [r6, #0]
     d06:	4770      	bx	lr

00000d08 <Dictionary_192>:
     d08:	00000d22 	andeq	r0, r0, r2, lsr #26
     d0c:	6802006d 	stmdavs	r2, {r0, r2, r3, r5, r6}
     d10:	cf030021 	svcgt	0x00030021

00000d12 <Code_192>:
     d12:	cf03      	ldmia	r7!, {r0, r1}
     d14:	8030      	strh	r0, [r6, #0]
     d16:	000e      	movs	r6, r1
     d18:	4770      	bx	lr
     d1a:	8006      	strh	r6, [r0, #0]
     d1c:	4770      	bx	lr
     d1e:	8001      	strh	r1, [r0, #0]
     d20:	4770      	bx	lr

00000d22 <Dictionary_193>:
     d22:	00000d48 	andeq	r0, r0, r8, asr #26
     d26:	6803006d 	stmdavs	r3, {r0, r2, r3, r5, r6}
     d2a:	cf03212b 	svcgt	0x0003212b

00000d2c <Code_193>:
     d2c:	cf03      	ldmia	r7!, {r0, r1}
     d2e:	8832      	ldrh	r2, [r6, #0]
     d30:	1812      	adds	r2, r2, r0
     d32:	8032      	strh	r2, [r6, #0]
     d34:	000e      	movs	r6, r1
     d36:	4770      	bx	lr
     d38:	8802      	ldrh	r2, [r0, #0]
     d3a:	1992      	adds	r2, r2, r6
     d3c:	8002      	strh	r2, [r0, #0]
     d3e:	4770      	bx	lr
     d40:	8802      	ldrh	r2, [r0, #0]
     d42:	1852      	adds	r2, r2, r1
     d44:	8002      	strh	r2, [r0, #0]
     d46:	4770      	bx	lr

00000d48 <Dictionary_194>:
     d48:	00000d56 	andeq	r0, r0, r6, asr sp
     d4c:	63020020 	movwvs	r0, #8224	; 0x2020
     d50:	78360040 	ldmdavc	r6!, {r6}

00000d52 <Code_194>:
     d52:	7836      	ldrb	r6, [r6, #0]
     d54:	4770      	bx	lr

00000d56 <Dictionary_195>:
     d56:	00000d70 	andeq	r0, r0, r0, ror sp
     d5a:	6302006d 	movwvs	r0, #8301	; 0x206d
     d5e:	cf030021 	svcgt	0x00030021

00000d60 <Code_195>:
     d60:	cf03      	ldmia	r7!, {r0, r1}
     d62:	7030      	strb	r0, [r6, #0]
     d64:	000e      	movs	r6, r1
     d66:	4770      	bx	lr
     d68:	7006      	strb	r6, [r0, #0]
     d6a:	4770      	bx	lr
     d6c:	7001      	strb	r1, [r0, #0]
     d6e:	4770      	bx	lr

00000d70 <Dictionary_196>:
     d70:	00000d96 	muleq	r0, r6, sp
     d74:	6303006d 	movwvs	r0, #12397	; 0x306d
     d78:	cf03212b 	svcgt	0x0003212b

00000d7a <Code_196>:
     d7a:	cf03      	ldmia	r7!, {r0, r1}
     d7c:	7832      	ldrb	r2, [r6, #0]
     d7e:	1812      	adds	r2, r2, r0
     d80:	7032      	strb	r2, [r6, #0]
     d82:	000e      	movs	r6, r1
     d84:	4770      	bx	lr
     d86:	7802      	ldrb	r2, [r0, #0]
     d88:	1992      	adds	r2, r2, r6
     d8a:	7002      	strb	r2, [r0, #0]
     d8c:	4770      	bx	lr
     d8e:	7802      	ldrb	r2, [r0, #0]
     d90:	1852      	adds	r2, r2, r1
     d92:	7002      	strb	r2, [r0, #0]
     d94:	4770      	bx	lr

00000d96 <Dictionary_197>:
     d96:	00000dbe 			; <UNDEFINED> instruction: 0x00000dbe
     d9a:	6204006d 	andvs	r0, r4, #109	; 0x6d
     d9e:	00217369 	eoreq	r7, r1, r9, ror #6

00000da2 <Code_197>:
     da2:	cf03      	ldmia	r7!, {r0, r1}
     da4:	6832      	ldr	r2, [r6, #0]
     da6:	4302      	orrs	r2, r0
     da8:	6032      	str	r2, [r6, #0]
     daa:	000e      	movs	r6, r1
     dac:	4770      	bx	lr
     dae:	6802      	ldr	r2, [r0, #0]
     db0:	4332      	orrs	r2, r6
     db2:	6002      	str	r2, [r0, #0]
     db4:	4770      	bx	lr
     db6:	6802      	ldr	r2, [r0, #0]
     db8:	430a      	orrs	r2, r1
     dba:	6002      	str	r2, [r0, #0]
     dbc:	4770      	bx	lr

00000dbe <Dictionary_198>:
     dbe:	00000de6 	andeq	r0, r0, r6, ror #27
     dc2:	6204006d 	andvs	r0, r4, #109	; 0x6d
     dc6:	00216369 	eoreq	r6, r1, r9, ror #6

00000dca <Code_198>:
     dca:	cf03      	ldmia	r7!, {r0, r1}
     dcc:	6832      	ldr	r2, [r6, #0]
     dce:	4382      	bics	r2, r0
     dd0:	6032      	str	r2, [r6, #0]
     dd2:	000e      	movs	r6, r1
     dd4:	4770      	bx	lr
     dd6:	6802      	ldr	r2, [r0, #0]
     dd8:	43b2      	bics	r2, r6
     dda:	6002      	str	r2, [r0, #0]
     ddc:	4770      	bx	lr
     dde:	6802      	ldr	r2, [r0, #0]
     de0:	438a      	bics	r2, r1
     de2:	6002      	str	r2, [r0, #0]
     de4:	4770      	bx	lr

00000de6 <Dictionary_199>:
     de6:	00000e0e 	andeq	r0, r0, lr, lsl #28
     dea:	7804006d 	stmdavc	r4, {r0, r2, r3, r5, r6}
     dee:	0021726f 	eoreq	r7, r1, pc, ror #4

00000df2 <Code_199>:
     df2:	cf03      	ldmia	r7!, {r0, r1}
     df4:	6832      	ldr	r2, [r6, #0]
     df6:	4042      	eors	r2, r0
     df8:	6032      	str	r2, [r6, #0]
     dfa:	000e      	movs	r6, r1
     dfc:	4770      	bx	lr
     dfe:	6802      	ldr	r2, [r0, #0]
     e00:	4072      	eors	r2, r6
     e02:	6002      	str	r2, [r0, #0]
     e04:	4770      	bx	lr
     e06:	6802      	ldr	r2, [r0, #0]
     e08:	404a      	eors	r2, r1
     e0a:	6002      	str	r2, [r0, #0]
     e0c:	4770      	bx	lr

00000e0e <Dictionary_200>:
     e0e:	00000e76 	andeq	r0, r0, r6, ror lr
     e12:	62040068 	andvs	r0, r4, #104	; 0x68
     e16:	00407469 	subeq	r7, r0, r9, ror #8

00000e1a <Code_200>:
     e1a:	cf01      	ldmia	r7!, {r0}
     e1c:	6836      	ldr	r6, [r6, #0]

00000e1e <struktur_bitfetch>:
     e1e:	4006      	ands	r6, r0
     e20:	bf18      	it	ne
     e22:	f04f 36ff 	movne.w	r6, #4294967295
     e26:	4770      	bx	lr
     e28:	4ae7      	ldr	r2, [pc, #924]	; (11c8 <Code_243+0x6>)

00000e2a <bitfetch_opcoding>:
     e2a:	b500      	push	{lr}
     e2c:	2b01      	cmp	r3, #1
     e2e:	d10a      	bne.n	e46 <bitfetch_opcoding+0x1c>
     e30:	f847 6d04 	str.w	r6, [r7, #-4]!
     e34:	2600      	movs	r6, #0
     e36:	f000 fefb 	bl	1c30 <Code_417>
     e3a:	f847 6d04 	str.w	r6, [r7, #-4]!
     e3e:	0016      	movs	r6, r2
     e40:	f001 fa44 	bl	22cc <Code_544>
     e44:	e011      	b.n	e6a <bitfetch_opcoding+0x40>
     e46:	cf02      	ldmia	r7!, {r1}
     e48:	3b01      	subs	r3, #1
     e4a:	f002 fba2 	bl	3592 <konstantenschreiben>
     e4e:	f847 6d04 	str.w	r6, [r7, #-4]!
     e52:	2636      	movs	r6, #54	; 0x36
     e54:	4316      	orrs	r6, r2
     e56:	f001 fa39 	bl	22cc <Code_544>
     e5a:	f847 6d04 	str.w	r6, [r7, #-4]!
     e5e:	000e      	movs	r6, r1
     e60:	f847 6d04 	str.w	r6, [r7, #-4]!
     e64:	2600      	movs	r6, #0
     e66:	f000 fee3 	bl	1c30 <Code_417>
     e6a:	f847 6d04 	str.w	r6, [r7, #-4]!
     e6e:	4ed7      	ldr	r6, [pc, #860]	; (11cc <Code_243+0xa>)
     e70:	f001 f812 	bl	1e98 <Code_460>
     e74:	bd00      	pop	{pc}

00000e76 <Dictionary_212>:
     e76:	00000e9e 	muleq	r0, lr, lr
     e7a:	6805006d 	stmdavs	r5, {r0, r2, r3, r5, r6}
     e7e:	21736962 	cmncs	r3, r2, ror #18

00000e82 <Code_212>:
     e82:	cf03      	ldmia	r7!, {r0, r1}
     e84:	8832      	ldrh	r2, [r6, #0]
     e86:	4302      	orrs	r2, r0
     e88:	8032      	strh	r2, [r6, #0]
     e8a:	000e      	movs	r6, r1
     e8c:	4770      	bx	lr
     e8e:	8802      	ldrh	r2, [r0, #0]
     e90:	4332      	orrs	r2, r6
     e92:	8002      	strh	r2, [r0, #0]
     e94:	4770      	bx	lr
     e96:	8802      	ldrh	r2, [r0, #0]
     e98:	430a      	orrs	r2, r1
     e9a:	8002      	strh	r2, [r0, #0]
     e9c:	4770      	bx	lr

00000e9e <Dictionary_213>:
     e9e:	00000ec6 	andeq	r0, r0, r6, asr #29
     ea2:	6805006d 	stmdavs	r5, {r0, r2, r3, r5, r6}
     ea6:	21636962 	cmncs	r3, r2, ror #18

00000eaa <Code_213>:
     eaa:	cf03      	ldmia	r7!, {r0, r1}
     eac:	8832      	ldrh	r2, [r6, #0]
     eae:	4382      	bics	r2, r0
     eb0:	8032      	strh	r2, [r6, #0]
     eb2:	000e      	movs	r6, r1
     eb4:	4770      	bx	lr
     eb6:	8802      	ldrh	r2, [r0, #0]
     eb8:	43b2      	bics	r2, r6
     eba:	8002      	strh	r2, [r0, #0]
     ebc:	4770      	bx	lr
     ebe:	8802      	ldrh	r2, [r0, #0]
     ec0:	438a      	bics	r2, r1
     ec2:	8002      	strh	r2, [r0, #0]
     ec4:	4770      	bx	lr

00000ec6 <Dictionary_214>:
     ec6:	00000eee 	andeq	r0, r0, lr, ror #29
     eca:	6805006d 	stmdavs	r5, {r0, r2, r3, r5, r6}
     ece:	21726f78 	cmncs	r2, r8, ror pc

00000ed2 <Code_214>:
     ed2:	cf03      	ldmia	r7!, {r0, r1}
     ed4:	8832      	ldrh	r2, [r6, #0]
     ed6:	4042      	eors	r2, r0
     ed8:	8032      	strh	r2, [r6, #0]
     eda:	000e      	movs	r6, r1
     edc:	4770      	bx	lr
     ede:	8802      	ldrh	r2, [r0, #0]
     ee0:	4072      	eors	r2, r6
     ee2:	8002      	strh	r2, [r0, #0]
     ee4:	4770      	bx	lr
     ee6:	8802      	ldrh	r2, [r0, #0]
     ee8:	404a      	eors	r2, r1
     eea:	8002      	strh	r2, [r0, #0]
     eec:	4770      	bx	lr

00000eee <Dictionary_215>:
     eee:	00000f0c 	andeq	r0, r0, ip, lsl #30
     ef2:	68050068 	stmdavs	r5, {r3, r5, r6}
     ef6:	40746962 	rsbsmi	r6, r4, r2, ror #18

00000efa <Code_215>:
     efa:	cf01      	ldmia	r7!, {r0}
     efc:	8836      	ldrh	r6, [r6, #0]
     efe:	4006      	ands	r6, r0
     f00:	bf18      	it	ne
     f02:	f04f 36ff 	movne.w	r6, #4294967295
     f06:	4770      	bx	lr
     f08:	4ab1      	ldr	r2, [pc, #708]	; (11d0 <Code_243+0xe>)
     f0a:	e78e      	b.n	e2a <bitfetch_opcoding>

00000f0c <Dictionary_216>:
     f0c:	00000f34 	andeq	r0, r0, r4, lsr pc
     f10:	6305006d 	movwvs	r0, #20589	; 0x506d
     f14:	21736962 	cmncs	r3, r2, ror #18

00000f18 <Code_216>:
     f18:	cf03      	ldmia	r7!, {r0, r1}
     f1a:	7832      	ldrb	r2, [r6, #0]
     f1c:	4302      	orrs	r2, r0
     f1e:	7032      	strb	r2, [r6, #0]
     f20:	000e      	movs	r6, r1
     f22:	4770      	bx	lr
     f24:	7802      	ldrb	r2, [r0, #0]
     f26:	4332      	orrs	r2, r6
     f28:	7002      	strb	r2, [r0, #0]
     f2a:	4770      	bx	lr
     f2c:	7802      	ldrb	r2, [r0, #0]
     f2e:	430a      	orrs	r2, r1
     f30:	7002      	strb	r2, [r0, #0]
     f32:	4770      	bx	lr

00000f34 <Dictionary_217>:
     f34:	00000f5c 	andeq	r0, r0, ip, asr pc
     f38:	6305006d 	movwvs	r0, #20589	; 0x506d
     f3c:	21636962 	cmncs	r3, r2, ror #18

00000f40 <Code_217>:
     f40:	cf03      	ldmia	r7!, {r0, r1}
     f42:	7832      	ldrb	r2, [r6, #0]
     f44:	4382      	bics	r2, r0
     f46:	7032      	strb	r2, [r6, #0]
     f48:	000e      	movs	r6, r1
     f4a:	4770      	bx	lr
     f4c:	7802      	ldrb	r2, [r0, #0]
     f4e:	43b2      	bics	r2, r6
     f50:	7002      	strb	r2, [r0, #0]
     f52:	4770      	bx	lr
     f54:	7802      	ldrb	r2, [r0, #0]
     f56:	438a      	bics	r2, r1
     f58:	7002      	strb	r2, [r0, #0]
     f5a:	4770      	bx	lr

00000f5c <Dictionary_218>:
     f5c:	00000f84 	andeq	r0, r0, r4, lsl #31
     f60:	6305006d 	movwvs	r0, #20589	; 0x506d
     f64:	21726f78 	cmncs	r2, r8, ror pc

00000f68 <Code_218>:
     f68:	cf03      	ldmia	r7!, {r0, r1}
     f6a:	7832      	ldrb	r2, [r6, #0]
     f6c:	4042      	eors	r2, r0
     f6e:	7032      	strb	r2, [r6, #0]
     f70:	000e      	movs	r6, r1
     f72:	4770      	bx	lr
     f74:	7802      	ldrb	r2, [r0, #0]
     f76:	4072      	eors	r2, r6
     f78:	7002      	strb	r2, [r0, #0]
     f7a:	4770      	bx	lr
     f7c:	7802      	ldrb	r2, [r0, #0]
     f7e:	404a      	eors	r2, r1
     f80:	7002      	strb	r2, [r0, #0]
     f82:	4770      	bx	lr

00000f84 <Dictionary_219>:
     f84:	00000fa2 	andeq	r0, r0, r2, lsr #31
     f88:	63050068 	movwvs	r0, #20584	; 0x5068
     f8c:	40746962 	rsbsmi	r6, r4, r2, ror #18

00000f90 <Code_219>:
     f90:	cf01      	ldmia	r7!, {r0}
     f92:	7836      	ldrb	r6, [r6, #0]
     f94:	4006      	ands	r6, r0
     f96:	bf18      	it	ne
     f98:	f04f 36ff 	movne.w	r6, #4294967295
     f9c:	4770      	bx	lr
     f9e:	4a8d      	ldr	r2, [pc, #564]	; (11d4 <Code_243+0x12>)
     fa0:	e743      	b.n	e2a <bitfetch_opcoding>

00000fa2 <Dictionary_220>:
     fa2:	00000fb2 			; <UNDEFINED> instruction: 0x00000fb2
     fa6:	63050061 	movwvs	r0, #20577	; 0x5061
     faa:	2b6c6c65 	blcs	1b1c146 <BIT24+0xb1c146>

00000fae <Code_220>:
     fae:	3604      	adds	r6, #4
     fb0:	4770      	bx	lr

00000fb2 <Dictionary_221>:
     fb2:	00000fc2 	andeq	r0, r0, r2, asr #31
     fb6:	63050061 	movwvs	r0, #20577	; 0x5061
     fba:	736c6c65 	cmnvc	ip, #25856	; 0x6500

00000fbe <Code_221>:
     fbe:	00b6      	lsls	r6, r6, #2
     fc0:	4770      	bx	lr

00000fc2 <Dictionary_222>:
     fc2:	00001042 	andeq	r1, r0, r2, asr #32
     fc6:	66060000 	strvs	r0, [r6], -r0
     fca:	6873616c 	ldmdavs	r3!, {r2, r3, r5, r6, r8, sp, lr}^
     fce:	00300021 	eorseq	r0, r0, r1, lsr #32

00000fd0 <Code_222>:
     fd0:	0030      	movs	r0, r6
     fd2:	cf40      	ldmia	r7!, {r6}
     fd4:	0031      	movs	r1, r6
     fd6:	cf40      	ldmia	r7!, {r6}
     fd8:	f1b1 3fff 	cmp.w	r1, #4294967295
     fdc:	d016      	beq.n	100c <BIT12+0xc>
     fde:	f010 0203 	ands.w	r2, r0, #3
     fe2:	2a00      	cmp	r2, #0
     fe4:	d113      	bne.n	100e <BIT12+0xe>
     fe6:	6802      	ldr	r2, [r0, #0]
     fe8:	f1b2 3fff 	cmp.w	r2, #4294967295
     fec:	d10f      	bne.n	100e <BIT12+0xe>

00000fee <flashkomma_innen>:
     fee:	4b7a      	ldr	r3, [pc, #488]	; (11d8 <Code_243+0x16>)
     ff0:	4298      	cmp	r0, r3
     ff2:	d30c      	bcc.n	100e <BIT12+0xe>
     ff4:	4a79      	ldr	r2, [pc, #484]	; (11dc <Code_243+0x1a>)
     ff6:	6011      	str	r1, [r2, #0]
     ff8:	4a79      	ldr	r2, [pc, #484]	; (11e0 <Code_243+0x1e>)
     ffa:	6010      	str	r0, [r2, #0]
     ffc:	4a79      	ldr	r2, [pc, #484]	; (11e4 <Code_243+0x22>)
     ffe:	4b7a      	ldr	r3, [pc, #488]	; (11e8 <Code_243+0x26>)
    1000:	6013      	str	r3, [r2, #0]
    1002:	6813      	ldr	r3, [r2, #0]
    1004:	f013 0301 	ands.w	r3, r3, #1
    1008:	2b00      	cmp	r3, #0
    100a:	d1fa      	bne.n	1002 <BIT12+0x2>
    100c:	4770      	bx	lr
    100e:	f000 fc16 	bl	183e <dotgaensefuesschen>
    1012:	6f72572a 	svcvs	0x0072572a
    1016:	6120676e 	teqvs	r0, lr, ror #14
    101a:	65726464 	ldrbvs	r6, [r2, #-1124]!	; 0x464
    101e:	6f207373 	svcvs	0x00207373
    1022:	61642072 	smcvs	16898	; 0x4202
    1026:	66206174 			; <UNDEFINED> instruction: 0x66206174
    102a:	7720726f 	strvc	r7, [r0, -pc, ror #4]!
    102e:	69746972 	ldmdbvs	r4!, {r1, r4, r5, r6, r8, fp, sp, lr}^
    1032:	6620676e 	strtvs	r6, [r0], -lr, ror #14
    1036:	6873616c 	ldmdavs	r3!, {r2, r3, r5, r6, r8, sp, lr}^
    103a:	000a2120 	andeq	r2, sl, r0, lsr #2
    103e:	f002 bacf 	b.w	35e0 <Code_925>

00001042 <Dictionary_226>:
    1042:	0000108a 	andeq	r1, r0, sl, lsl #1
    1046:	68070000 	stmdavs	r7, {}	; <UNPREDICTABLE>
    104a:	73616c66 	cmnvc	r1, #26112	; 0x6600
    104e:	00302168 	eorseq	r2, r0, r8, ror #2

00001050 <Code_226>:
    1050:	0030      	movs	r0, r6
    1052:	cf40      	ldmia	r7!, {r6}
    1054:	0031      	movs	r1, r6
    1056:	cf40      	ldmia	r7!, {r6}
    1058:	4b64      	ldr	r3, [pc, #400]	; (11ec <Code_243+0x2a>)
    105a:	4019      	ands	r1, r3
    105c:	4299      	cmp	r1, r3
    105e:	d0d5      	beq.n	100c <BIT12+0xc>
    1060:	f010 0201 	ands.w	r2, r0, #1
    1064:	2a00      	cmp	r2, #0
    1066:	d1d2      	bne.n	100e <BIT12+0xe>
    1068:	8802      	ldrh	r2, [r0, #0]
    106a:	429a      	cmp	r2, r3
    106c:	d1cf      	bne.n	100e <BIT12+0xe>

0000106e <h_flashkomma_innen>:
    106e:	f010 0202 	ands.w	r2, r0, #2
    1072:	2a00      	cmp	r2, #0
    1074:	d004      	beq.n	1080 <hflash_gerade>
    1076:	3802      	subs	r0, #2
    1078:	8802      	ldrh	r2, [r0, #0]
    107a:	0409      	lsls	r1, r1, #16
    107c:	4311      	orrs	r1, r2
    107e:	e7b6      	b.n	fee <flashkomma_innen>

00001080 <hflash_gerade>:
    1080:	1c82      	adds	r2, r0, #2
    1082:	8813      	ldrh	r3, [r2, #0]
    1084:	041b      	lsls	r3, r3, #16
    1086:	4319      	orrs	r1, r3
    1088:	e7b1      	b.n	fee <flashkomma_innen>

0000108a <Dictionary_229>:
    108a:	000010ca 	andeq	r1, r0, sl, asr #1
    108e:	63070000 	movwvs	r0, #28672	; 0x7000
    1092:	73616c66 	cmnvc	r1, #26112	; 0x6600
    1096:	00302168 	eorseq	r2, r0, r8, ror #2

00001098 <Code_229>:
    1098:	0030      	movs	r0, r6
    109a:	cf40      	ldmia	r7!, {r6}
    109c:	0031      	movs	r1, r6
    109e:	cf40      	ldmia	r7!, {r6}
    10a0:	f011 01ff 	ands.w	r1, r1, #255	; 0xff
    10a4:	29ff      	cmp	r1, #255	; 0xff
    10a6:	d0b1      	beq.n	100c <BIT12+0xc>
    10a8:	7802      	ldrb	r2, [r0, #0]
    10aa:	2aff      	cmp	r2, #255	; 0xff
    10ac:	d1af      	bne.n	100e <BIT12+0xe>
    10ae:	f010 0201 	ands.w	r2, r0, #1
    10b2:	2a00      	cmp	r2, #0
    10b4:	d004      	beq.n	10c0 <cflash_gerade>
    10b6:	3801      	subs	r0, #1
    10b8:	7802      	ldrb	r2, [r0, #0]
    10ba:	0209      	lsls	r1, r1, #8
    10bc:	4311      	orrs	r1, r2
    10be:	e7d6      	b.n	106e <h_flashkomma_innen>

000010c0 <cflash_gerade>:
    10c0:	1c42      	adds	r2, r0, #1
    10c2:	7813      	ldrb	r3, [r2, #0]
    10c4:	021b      	lsls	r3, r3, #8
    10c6:	4319      	orrs	r1, r3
    10c8:	e7d1      	b.n	106e <h_flashkomma_innen>

000010ca <Dictionary_232>:
    10ca:	00001130 	andeq	r1, r0, r0, lsr r1
    10ce:	660e0000 	strvs	r0, [lr], -r0
    10d2:	6873616c 	ldmdavs	r3!, {r2, r3, r5, r6, r8, sp, lr}^
    10d6:	65676170 	strbvs	r6, [r7, #-368]!	; 0x170
    10da:	73617265 	cmnvc	r1, #1342177286	; 0x50000006
    10de:	b40f0065 	strlt	r0, [pc], #-101	; 10e6 <Code_232+0x6>

000010e0 <Code_232>:
    10e0:	b40f      	push	{r0, r1, r2, r3}
    10e2:	0030      	movs	r0, r6
    10e4:	cf40      	ldmia	r7!, {r6}
    10e6:	4b3c      	ldr	r3, [pc, #240]	; (11d8 <Code_243+0x16>)
    10e8:	4298      	cmp	r0, r3
    10ea:	d30b      	bcc.n	1104 <Code_232+0x24>
    10ec:	4a3c      	ldr	r2, [pc, #240]	; (11e0 <Code_243+0x1e>)
    10ee:	6010      	str	r0, [r2, #0]
    10f0:	4a3c      	ldr	r2, [pc, #240]	; (11e4 <Code_243+0x22>)
    10f2:	4b3f      	ldr	r3, [pc, #252]	; (11f0 <Code_243+0x2e>)
    10f4:	6013      	str	r3, [r2, #0]
    10f6:	6813      	ldr	r3, [r2, #0]
    10f8:	f013 0302 	ands.w	r3, r3, #2
    10fc:	2b00      	cmp	r3, #0
    10fe:	d1fa      	bne.n	10f6 <Code_232+0x16>
    1100:	bc0f      	pop	{r0, r1, r2, r3}
    1102:	4770      	bx	lr
    1104:	f000 fb9b 	bl	183e <dotgaensefuesschen>
    1108:	6f725722 	svcvs	0x00725722
    110c:	6120676e 	teqvs	r0, lr, ror #14
    1110:	65726464 	ldrbvs	r6, [r2, #-1124]!	; 0x464
    1114:	66207373 			; <UNDEFINED> instruction: 0x66207373
    1118:	6520726f 	strvs	r7, [r0, #-623]!	; 0x26f
    111c:	69736172 	ldmdbvs	r3!, {r1, r4, r5, r6, r8, sp, lr}^
    1120:	6620676e 	strtvs	r6, [r0], -lr, ror #14
    1124:	6873616c 	ldmdavs	r3!, {r2, r3, r5, r6, r8, sp, lr}^
    1128:	000a2120 	andeq	r2, sl, r0, lsr #2
    112c:	f002 ba58 	b.w	35e0 <Code_925>

00001130 <Dictionary_235>:
    1130:	000011ac 	andeq	r1, r0, ip, lsr #3
    1134:	650a0000 	strvs	r0, [sl]
    1138:	65736172 	ldrbvs	r6, [r3, #-370]!	; 0x172
    113c:	73616c66 	cmnvc	r1, #26112	; 0x6600
    1140:	48250068 	stmdami	r5!, {r3, r5, r6}

00001142 <Code_235>:
    1142:	4825      	ldr	r0, [pc, #148]	; (11d8 <Code_243+0x16>)

00001144 <eraseflash_intern>:
    1144:	492b      	ldr	r1, [pc, #172]	; (11f4 <Code_243+0x32>)
    1146:	f64f 72ff 	movw	r2, #65535	; 0xffff
    114a:	8803      	ldrh	r3, [r0, #0]
    114c:	4293      	cmp	r3, r2
    114e:	d01c      	beq.n	118a <eraseflash_intern+0x46>
    1150:	f847 6d04 	str.w	r6, [r7, #-4]!
    1154:	0006      	movs	r6, r0
    1156:	f847 6d04 	str.w	r6, [r7, #-4]!
    115a:	f000 fb70 	bl	183e <dotgaensefuesschen>
    115e:	61724510 	cmnvs	r2, r0, lsl r5
    1162:	62206573 	eorvs	r6, r0, #482344960	; 0x1cc00000
    1166:	6b636f6c 	blvs	18dcf1e <BIT24+0x8dcf1e>
    116a:	20746120 	rsbscs	r6, r4, r0, lsr #2
    116e:	f0000020 			; <UNDEFINED> instruction: 0xf0000020
    1172:	fbd8 f000 			; <UNDEFINED> instruction: 0xfbd8f000
    1176:	fb63 200c 	smmls	r0, r3, ip, r2
    117a:	6d6f7266 	sfmvs	f7, 2, [pc, #-408]!	; fe8 <Code_222+0x18>
    117e:	616c4620 	cmnvs	ip, r0, lsr #12
    1182:	000a6873 	andeq	r6, sl, r3, ror r8
    1186:	f7ff ffab 	bl	10e0 <Code_232>
    118a:	3002      	adds	r0, #2
    118c:	4288      	cmp	r0, r1
    118e:	d1dc      	bne.n	114a <eraseflash_intern+0x6>
    1190:	f000 fb55 	bl	183e <dotgaensefuesschen>
    1194:	6e694612 	mcrvs	6, 3, r4, cr9, cr2, {0}
    1198:	65687369 	strbvs	r7, [r8, #-873]!	; 0x369
    119c:	52202e64 	eorpl	r2, r0, #1600	; 0x640
    11a0:	74657365 	strbtvc	r7, [r5], #-869	; 0x365
    11a4:	000a2120 	andeq	r2, sl, r0, lsr #2
    11a8:	f002 baa5 	b.w	36f6 <Code_938>

000011ac <Dictionary_243>:
    11ac:	000011f8 	strdeq	r1, [r0], -r8
    11b0:	650e0000 	strvs	r0, [lr]
    11b4:	65736172 	ldrbvs	r6, [r3, #-370]!	; 0x172
    11b8:	73616c66 	cmnvc	r1, #26112	; 0x6600
    11bc:	6f726668 	svcvs	0x00726668
    11c0:	0030006d 	eorseq	r0, r0, sp, rrx

000011c2 <Code_243>:
    11c2:	0030      	movs	r0, r6
    11c4:	cf40      	ldmia	r7!, {r6}
    11c6:	e7bd      	b.n	1144 <eraseflash_intern>
    11c8:	00006800 	andeq	r6, r0, r0, lsl #16
    11cc:	00000e1e 	andeq	r0, r0, lr, lsl lr
    11d0:	00008800 	andeq	r8, r0, r0, lsl #16
    11d4:	00007800 	andeq	r7, r0, r0, lsl #16
    11d8:	00004000 	andeq	r4, r0, r0
    11dc:	400fd004 	andmi	sp, pc, r4
    11e0:	400fd000 	andmi	sp, pc, r0
    11e4:	400fd008 	andmi	sp, pc, r8
    11e8:	a4420001 	strbge	r0, [r2], #-1
    11ec:	0000ffff 	strdeq	pc, [r0], -pc	; <UNPREDICTABLE>
    11f0:	a4420002 	strbge	r0, [r2], #-2
    11f4:	00040000 	andeq	r0, r4, r0

000011f8 <Dictionary_245>:
    11f8:	0000120e 	andeq	r1, r0, lr, lsl #4
    11fc:	2b010069 	blcs	413a8 <BIT18+0x13a8>

00001200 <Code_245>:
    1200:	cf01      	ldmia	r7!, {r0}
    1202:	1836      	adds	r6, r6, r0
    1204:	4770      	bx	lr
    1206:	1836      	adds	r6, r6, r0
    1208:	3600      	adds	r6, #0
    120a:	f1160600 			; <UNDEFINED> instruction: 0xf1160600

0000120e <Dictionary_246>:
    120e:	00001224 	andeq	r1, r0, r4, lsr #4
    1212:	2d010069 	stccs	0, cr0, [r1, #-420]	; 0xfffffe5c

00001216 <Code_246>:
    1216:	cf01      	ldmia	r7!, {r0}
    1218:	1b86      	subs	r6, r0, r6
    121a:	4770      	bx	lr
    121c:	1a36      	subs	r6, r6, r0
    121e:	3e00      	subs	r6, #0
    1220:	f1b60600 			; <UNDEFINED> instruction: 0xf1b60600

00001224 <Dictionary_247>:
    1224:	00001232 	andeq	r1, r0, r2, lsr r2
    1228:	31020061 	tstcc	r2, r1, rrx
    122c:	3e01002d 	cdpcc	0, 0, cr0, cr1, cr13, {1}

0000122e <Code_247>:
    122e:	3e01      	subs	r6, #1
    1230:	4770      	bx	lr

00001232 <Dictionary_248>:
    1232:	00001240 	andeq	r1, r0, r0, asr #4
    1236:	31020061 	tstcc	r2, r1, rrx
    123a:	3601002b 	strcc	r0, [r1], -fp, lsr #32

0000123c <Code_248>:
    123c:	3601      	adds	r6, #1
    123e:	4770      	bx	lr

00001240 <Dictionary_249>:
    1240:	0000124e 	andeq	r1, r0, lr, asr #4
    1244:	32020061 	andcc	r0, r2, #97	; 0x61
    1248:	3e02002d 	cdpcc	0, 0, cr0, cr2, cr13, {1}

0000124a <Code_249>:
    124a:	3e02      	subs	r6, #2
    124c:	4770      	bx	lr

0000124e <Dictionary_250>:
    124e:	0000125c 	andeq	r1, r0, ip, asr r2
    1252:	32020061 	andcc	r0, r2, #97	; 0x61
    1256:	3602002b 	strcc	r0, [r2], -fp, lsr #32

00001258 <Code_250>:
    1258:	3602      	adds	r6, #2
    125a:	4770      	bx	lr

0000125c <Dictionary_251>:
    125c:	0000126e 	andeq	r1, r0, lr, ror #4
    1260:	6e060061 	cdpvs	0, 0, cr0, cr6, cr1, {3}
    1264:	74616765 	strbtvc	r6, [r1], #-1893	; 0x765
    1268:	42760065 	rsbsmi	r0, r6, #101	; 0x65

0000126a <Code_251>:
    126a:	4276      	negs	r6, r6
    126c:	4770      	bx	lr

0000126e <Dictionary_252>:
    126e:	00001280 	andeq	r1, r0, r0, lsl #5
    1272:	61030061 	tstvs	r3, r1, rrx
    1276:	17f07362 	ldrbne	r7, [r0, r2, ror #6]!

00001278 <Code_252>:
    1278:	17f0      	asrs	r0, r6, #31
    127a:	1836      	adds	r6, r6, r0
    127c:	4046      	eors	r6, r0
    127e:	4770      	bx	lr

00001280 <Dictionary_253>:
    1280:	0000129e 	muleq	r0, lr, r2
    1284:	75050042 	strvc	r0, [r5, #-66]	; 0x42
    1288:	646f6d2f 	strbtvs	r6, [pc], #-3375	; 1290 <Code_253+0x4>

0000128c <Code_253>:
    128c:	cf01      	ldmia	r7!, {r0}
    128e:	0031      	movs	r1, r6
    1290:	fbb0 f6f6 	udiv	r6, r0, r6
    1294:	4371      	muls	r1, r6
    1296:	1a40      	subs	r0, r0, r1
    1298:	3f04      	subs	r7, #4
    129a:	6038      	str	r0, [r7, #0]
    129c:	4770      	bx	lr

0000129e <Dictionary_254>:
    129e:	000012bc 			; <UNDEFINED> instruction: 0x000012bc
    12a2:	2f040042 	svccs	0x00040042
    12a6:	00646f6d 	rsbeq	r6, r4, sp, ror #30

000012aa <Code_254>:
    12aa:	cf01      	ldmia	r7!, {r0}
    12ac:	0031      	movs	r1, r6
    12ae:	fb90 f6f6 	sdiv	r6, r0, r6
    12b2:	4371      	muls	r1, r6
    12b4:	1a40      	subs	r0, r0, r1
    12b6:	3f04      	subs	r7, #4
    12b8:	6038      	str	r0, [r7, #0]
    12ba:	4770      	bx	lr

000012bc <Dictionary_255>:
    12bc:	000012d0 	ldrdeq	r1, [r0], -r0
    12c0:	6d030042 	stcvs	0, cr0, [r3, #-264]	; 0xfffffef8
    12c4:	b500646f 	strlt	r6, [r0, #-1135]	; 0x46f

000012c6 <Code_255>:
    12c6:	b500      	push	{lr}
    12c8:	f7ff ffef 	bl	12aa <Code_254>
    12cc:	cf40      	ldmia	r7!, {r6}
    12ce:	bd00      	pop	{pc}

000012d0 <Dictionary_257>:
    12d0:	000012e0 	andeq	r1, r0, r0, ror #5
    12d4:	2f010062 	svccs	0x00010062

000012d8 <Code_257>:
    12d8:	cf01      	ldmia	r7!, {r0}
    12da:	fb90 f6f6 	sdiv	r6, r0, r6
    12de:	4770      	bx	lr

000012e0 <Dictionary_258>:
    12e0:	000012f0 	strdeq	r1, [r0], -r0
    12e4:	2a01006a 	bcs	41494 <BIT18+0x1494>

000012e8 <Code_258>:
    12e8:	cf01      	ldmia	r7!, {r0}
    12ea:	4346      	muls	r6, r0
    12ec:	4770      	bx	lr
    12ee:	4346      	muls	r6, r0

000012f0 <Dictionary_259>:
    12f0:	000012fe 	strdeq	r1, [r0], -lr
    12f4:	32020061 	andcc	r0, r2, #97	; 0x61
    12f8:	0076002a 	rsbseq	r0, r6, sl, lsr #32

000012fa <Code_259>:
    12fa:	0076      	lsls	r6, r6, #1
    12fc:	4770      	bx	lr

000012fe <Dictionary_260>:
    12fe:	0000130c 	andeq	r1, r0, ip, lsl #6
    1302:	32020061 	andcc	r0, r2, #97	; 0x61
    1306:	1076002f 	rsbsne	r0, r6, pc, lsr #32

00001308 <Code_260>:
    1308:	1076      	asrs	r6, r6, #1
    130a:	4770      	bx	lr

0000130c <Dictionary_261>:
    130c:	00001320 	andeq	r1, r0, r0, lsr #6
    1310:	65040061 	strvs	r0, [r4, #-97]	; 0x61
    1314:	006e6576 	rsbeq	r6, lr, r6, ror r5

00001318 <Code_261>:
    1318:	2001      	movs	r0, #1
    131a:	4030      	ands	r0, r6
    131c:	1836      	adds	r6, r6, r0
    131e:	4770      	bx	lr

00001320 <Dictionary_262>:
    1320:	00001338 	andeq	r1, r0, r8, lsr r3
    1324:	62040081 	andvs	r0, r4, #129	; 0x81
    1328:	00657361 	rsbeq	r7, r5, r1, ror #6

0000132c <Code_262>:
    132c:	f847 6d04 	str.w	r6, [r7, #-4]!
    1330:	4e91      	ldr	r6, [pc, #580]	; (1578 <uart_init+0x64>)
    1332:	4770      	bx	lr
    1334:	0000000a 	andeq	r0, r0, sl

00001338 <Dictionary_265>:
    1338:	0000134e 	andeq	r1, r0, lr, asr #6
    133c:	62060000 	andvs	r0, r6, #0
    1340:	72616e69 	rsbvc	r6, r1, #1680	; 0x690
    1344:	488c0079 	stmmi	ip, {r0, r3, r4, r5, r6}

00001346 <Code_265>:
    1346:	488c      	ldr	r0, [pc, #560]	; (1578 <uart_init+0x64>)
    1348:	2102      	movs	r1, #2
    134a:	6001      	str	r1, [r0, #0]
    134c:	4770      	bx	lr

0000134e <Dictionary_266>:
    134e:	00001364 	andeq	r1, r0, r4, ror #6
    1352:	64070000 	strvs	r0, [r7]
    1356:	6d696365 	stclvs	3, cr6, [r9, #-404]!	; 0xfffffe6c
    135a:	48866c61 	stmmi	r6, {r0, r5, r6, sl, fp, sp, lr}

0000135c <Code_266>:
    135c:	4886      	ldr	r0, [pc, #536]	; (1578 <uart_init+0x64>)
    135e:	210a      	movs	r1, #10
    1360:	6001      	str	r1, [r0, #0]
    1362:	4770      	bx	lr

00001364 <Dictionary_267>:
    1364:	00001376 	andeq	r1, r0, r6, ror r3
    1368:	68030000 	stmdavs	r3, {}	; <UNPREDICTABLE>
    136c:	48827865 	stmmi	r2, {r0, r2, r5, r6, fp, ip, sp, lr}

0000136e <Code_267>:
    136e:	4882      	ldr	r0, [pc, #520]	; (1578 <uart_init+0x64>)
    1370:	2110      	movs	r1, #16
    1372:	6001      	str	r1, [r0, #0]
    1374:	4770      	bx	lr

00001376 <Dictionary_268>:
    1376:	00001392 	muleq	r0, r2, r3
    137a:	68090081 	stmdavs	r9, {r0, r7}
    137e:	2d6b6f6f 	stclcs	15, cr6, [fp, #-444]!	; 0xfffffe44
    1382:	74696d65 	strbtvc	r6, [r9], #-3429	; 0xd65

00001386 <Code_268>:
    1386:	f847 6d04 	str.w	r6, [r7, #-4]!
    138a:	4e7c      	ldr	r6, [pc, #496]	; (157c <uart_init+0x68>)
    138c:	4770      	bx	lr
    138e:	0000147c 	andeq	r1, r0, ip, ror r4

00001392 <Dictionary_271>:
    1392:	000013ae 	andeq	r1, r0, lr, lsr #7
    1396:	68080081 	stmdavs	r8, {r0, r7}
    139a:	2d6b6f6f 	stclcs	15, cr6, [fp, #-444]!	; 0xfffffe44
    139e:	0079656b 	rsbseq	r6, r9, fp, ror #10

000013a2 <Code_271>:
    13a2:	f847 6d04 	str.w	r6, [r7, #-4]!
    13a6:	4e76      	ldr	r6, [pc, #472]	; (1580 <uart_init+0x6c>)
    13a8:	4770      	bx	lr
    13aa:	000014a2 	andeq	r1, r0, r2, lsr #9

000013ae <Dictionary_274>:
    13ae:	000013cc 	andeq	r1, r0, ip, asr #7
    13b2:	680a0081 	stmdavs	sl, {r0, r7}
    13b6:	2d6b6f6f 	stclcs	15, cr6, [fp, #-444]!	; 0xfffffe44
    13ba:	74696d65 	strbtvc	r6, [r9], #-3429	; 0xd65
    13be:	f847003f 			; <UNDEFINED> instruction: 0xf847003f

000013c0 <Code_274>:
    13c0:	f847 6d04 	str.w	r6, [r7, #-4]!
    13c4:	4e6f      	ldr	r6, [pc, #444]	; (1584 <uart_init+0x70>)
    13c6:	4770      	bx	lr
    13c8:	000014ce 	andeq	r1, r0, lr, asr #9

000013cc <Dictionary_277>:
    13cc:	000013e8 	andeq	r1, r0, r8, ror #7
    13d0:	68090081 	stmdavs	r9, {r0, r7}
    13d4:	2d6b6f6f 	stclcs	15, cr6, [fp, #-444]!	; 0xfffffe44
    13d8:	3f79656b 	svccc	0x0079656b

000013dc <Code_277>:
    13dc:	f847 6d04 	str.w	r6, [r7, #-4]!
    13e0:	4e69      	ldr	r6, [pc, #420]	; (1588 <uart_init+0x74>)
    13e2:	4770      	bx	lr
    13e4:	000014fa 	strdeq	r1, [r0], -sl

000013e8 <Dictionary_280>:
    13e8:	00001406 	andeq	r1, r0, r6, lsl #8
    13ec:	680a0081 	stmdavs	sl, {r0, r7}
    13f0:	2d6b6f6f 	stclcs	15, cr6, [fp, #-444]!	; 0xfffffe44
    13f4:	73756170 	cmnvc	r5, #28
    13f8:	f8470065 			; <UNDEFINED> instruction: 0xf8470065

000013fa <Code_280>:
    13fa:	f847 6d04 	str.w	r6, [r7, #-4]!
    13fe:	4e63      	ldr	r6, [pc, #396]	; (158c <uart_init+0x78>)
    1400:	4770      	bx	lr
    1402:	000036a6 	andeq	r3, r0, r6, lsr #13

00001406 <Dictionary_283>:
    1406:	0000141c 	andeq	r1, r0, ip, lsl r4
    140a:	65040000 	strvs	r0, [r4]
    140e:	0074696d 	rsbseq	r6, r4, sp, ror #18

00001412 <Code_283>:
    1412:	b50f      	push	{r0, r1, r2, r3, lr}
    1414:	4859      	ldr	r0, [pc, #356]	; (157c <uart_init+0x68>)
    1416:	f000 f826 	bl	1466 <hook_intern>
    141a:	bd0f      	pop	{r0, r1, r2, r3, pc}

0000141c <Dictionary_284>:
    141c:	00001430 	andeq	r1, r0, r0, lsr r4
    1420:	6b030000 	blvs	c1428 <BIT19+0x41428>
    1424:	b50f7965 	strlt	r7, [pc, #-2405]	; ac7 <Dictionary_158+0x9>

00001426 <Code_284>:
    1426:	b50f      	push	{r0, r1, r2, r3, lr}
    1428:	4855      	ldr	r0, [pc, #340]	; (1580 <uart_init+0x6c>)
    142a:	f000 f81c 	bl	1466 <hook_intern>
    142e:	bd0f      	pop	{r0, r1, r2, r3, pc}

00001430 <Dictionary_285>:
    1430:	00001442 	andeq	r1, r0, r2, asr #8
    1434:	65050000 	strvs	r0, [r5]
    1438:	3f74696d 	svccc	0x0074696d

0000143c <Code_285>:
    143c:	4851      	ldr	r0, [pc, #324]	; (1584 <uart_init+0x70>)
    143e:	6800      	ldr	r0, [r0, #0]
    1440:	4687      	mov	pc, r0

00001442 <Dictionary_286>:
    1442:	00001454 	andeq	r1, r0, r4, asr r4
    1446:	6b040000 	blvs	10144e <BIT20+0x144e>
    144a:	003f7965 	eorseq	r7, pc, r5, ror #18

0000144e <Code_286>:
    144e:	484e      	ldr	r0, [pc, #312]	; (1588 <uart_init+0x74>)
    1450:	6800      	ldr	r0, [r0, #0]
    1452:	4687      	mov	pc, r0

00001454 <Dictionary_287>:
    1454:	0000146a 	andeq	r1, r0, sl, ror #8
    1458:	70050000 	andvc	r0, r5, r0
    145c:	65737561 	ldrbvs	r7, [r3, #-1377]!	; 0x561

00001460 <Code_287>:
    1460:	484a      	ldr	r0, [pc, #296]	; (158c <uart_init+0x78>)
    1462:	6800      	ldr	r0, [r0, #0]
    1464:	4687      	mov	pc, r0

00001466 <hook_intern>:
    1466:	6800      	ldr	r0, [r0, #0]
    1468:	4687      	mov	pc, r0

0000146a <Dictionary_288>:
    146a:	00001490 	muleq	r0, r0, r4
    146e:	730b0000 	movwvc	r0, #45056	; 0xb000
    1472:	61697265 	cmnvs	r9, r5, ror #4
    1476:	6d652d6c 	stclvs	13, cr2, [r5, #-432]!	; 0xfffffe50
    147a:	b5007469 	strlt	r7, [r0, #-1129]	; 0x469

0000147c <Code_288>:
    147c:	b500      	push	{lr}
    147e:	f000 f826 	bl	14ce <Code_293>
    1482:	2e00      	cmp	r6, #0
    1484:	cf40      	ldmia	r7!, {r6}
    1486:	d0fa      	beq.n	147e <Code_288+0x2>
    1488:	4841      	ldr	r0, [pc, #260]	; (1590 <uart_init+0x7c>)
    148a:	6006      	str	r6, [r0, #0]
    148c:	cf40      	ldmia	r7!, {r6}
    148e:	bd00      	pop	{pc}

00001490 <Dictionary_291>:
    1490:	000014ba 			; <UNDEFINED> instruction: 0x000014ba
    1494:	730a0000 	movwvc	r0, #40960	; 0xa000
    1498:	61697265 	cmnvs	r9, r5, ror #4
    149c:	656b2d6c 	strbvs	r2, [fp, #-3436]!	; 0xd6c
    14a0:	b5000079 	strlt	r0, [r0, #-121]	; 0x79

000014a2 <Code_291>:
    14a2:	b500      	push	{lr}
    14a4:	f000 f829 	bl	14fa <Code_296>
    14a8:	2e00      	cmp	r6, #0
    14aa:	cf40      	ldmia	r7!, {r6}
    14ac:	d0fa      	beq.n	14a4 <Code_291+0x2>
    14ae:	4838      	ldr	r0, [pc, #224]	; (1590 <uart_init+0x7c>)
    14b0:	f847 6d04 	str.w	r6, [r7, #-4]!
    14b4:	6806      	ldr	r6, [r0, #0]
    14b6:	b2f6      	uxtb	r6, r6
    14b8:	bd00      	pop	{pc}

000014ba <Dictionary_293>:
    14ba:	000014e8 	andeq	r1, r0, r8, ror #9
    14be:	730c0000 	movwvc	r0, #49152	; 0xc000
    14c2:	61697265 	cmnvs	r9, r5, ror #4
    14c6:	6d652d6c 	stclvs	13, cr2, [r5, #-432]!	; 0xfffffe50
    14ca:	003f7469 	eorseq	r7, pc, r9, ror #8

000014ce <Code_293>:
    14ce:	b500      	push	{lr}
    14d0:	f7ff ffc6 	bl	1460 <Code_287>
    14d4:	f847 6d04 	str.w	r6, [r7, #-4]!
    14d8:	2600      	movs	r6, #0
    14da:	482e      	ldr	r0, [pc, #184]	; (1594 <uart_init+0x80>)
    14dc:	6801      	ldr	r1, [r0, #0]
    14de:	f011 0120 	ands.w	r1, r1, #32
    14e2:	d100      	bne.n	14e6 <Code_293+0x18>
    14e4:	43f6      	mvns	r6, r6
    14e6:	bd00      	pop	{pc}

000014e8 <Dictionary_296>:
    14e8:	000015c0 	andeq	r1, r0, r0, asr #11
    14ec:	730b0000 	movwvc	r0, #45056	; 0xb000
    14f0:	61697265 	cmnvs	r9, r5, ror #4
    14f4:	656b2d6c 	strbvs	r2, [fp, #-3436]!	; 0xd6c
    14f8:	b5003f79 	strlt	r3, [r0, #-3961]	; 0xf79

000014fa <Code_296>:
    14fa:	b500      	push	{lr}
    14fc:	f7ff ffb0 	bl	1460 <Code_287>
    1500:	f847 6d04 	str.w	r6, [r7, #-4]!
    1504:	2600      	movs	r6, #0
    1506:	4823      	ldr	r0, [pc, #140]	; (1594 <uart_init+0x80>)
    1508:	6801      	ldr	r1, [r0, #0]
    150a:	f011 0110 	ands.w	r1, r1, #16
    150e:	d100      	bne.n	1512 <Code_296+0x18>
    1510:	43f6      	mvns	r6, r6
    1512:	bd00      	pop	{pc}

00001514 <uart_init>:
    1514:	2120      	movs	r1, #32
    1516:	4820      	ldr	r0, [pc, #128]	; (1598 <uart_init+0x84>)
    1518:	6001      	str	r1, [r0, #0]
    151a:	213f      	movs	r1, #63	; 0x3f
    151c:	481f      	ldr	r0, [pc, #124]	; (159c <uart_init+0x88>)
    151e:	6001      	str	r1, [r0, #0]
    1520:	2130      	movs	r1, #48	; 0x30
    1522:	481f      	ldr	r0, [pc, #124]	; (15a0 <uart_init+0x8c>)
    1524:	6001      	str	r1, [r0, #0]
    1526:	2130      	movs	r1, #48	; 0x30
    1528:	481e      	ldr	r0, [pc, #120]	; (15a4 <uart_init+0x90>)
    152a:	6001      	str	r1, [r0, #0]
    152c:	491e      	ldr	r1, [pc, #120]	; (15a8 <uart_init+0x94>)
    152e:	6808      	ldr	r0, [r1, #0]
    1530:	f420 2070 	bic.w	r0, r0, #983040	; 0xf0000
    1534:	f500 3080 	add.w	r0, r0, #65536	; 0x10000
    1538:	6008      	str	r0, [r1, #0]
    153a:	491b      	ldr	r1, [pc, #108]	; (15a8 <uart_init+0x94>)
    153c:	6808      	ldr	r0, [r1, #0]
    153e:	f420 0070 	bic.w	r0, r0, #15728640	; 0xf00000
    1542:	f500 1080 	add.w	r0, r0, #1048576	; 0x100000
    1546:	6008      	str	r0, [r1, #0]
    1548:	2100      	movs	r1, #0
    154a:	4818      	ldr	r0, [pc, #96]	; (15ac <uart_init+0x98>)
    154c:	6001      	str	r1, [r0, #0]
    154e:	2108      	movs	r1, #8
    1550:	4817      	ldr	r0, [pc, #92]	; (15b0 <uart_init+0x9c>)
    1552:	6001      	str	r1, [r0, #0]
    1554:	212c      	movs	r1, #44	; 0x2c
    1556:	4817      	ldr	r0, [pc, #92]	; (15b4 <uart_init+0xa0>)
    1558:	6001      	str	r1, [r0, #0]
    155a:	2170      	movs	r1, #112	; 0x70
    155c:	4816      	ldr	r0, [pc, #88]	; (15b8 <uart_init+0xa4>)
    155e:	6001      	str	r1, [r0, #0]
    1560:	2105      	movs	r1, #5
    1562:	4816      	ldr	r0, [pc, #88]	; (15bc <uart_init+0xa8>)
    1564:	6001      	str	r1, [r0, #0]
    1566:	2100      	movs	r1, #0
    1568:	480a      	ldr	r0, [pc, #40]	; (1594 <uart_init+0x80>)
    156a:	6001      	str	r1, [r0, #0]
    156c:	f240 3101 	movw	r1, #769	; 0x301
    1570:	480e      	ldr	r0, [pc, #56]	; (15ac <uart_init+0x98>)
    1572:	6001      	str	r1, [r0, #0]
    1574:	4770      	bx	lr
    1576:	7ffc0000 	svcvc	0x00fc0000
    157a:	7ff82000 	svcvc	0x00f82000
    157e:	7ff42000 	svcvc	0x00f42000
    1582:	7ff02000 	svcvc	0x00f02000
    1586:	7fec2000 	svcvc	0x00ec2000
    158a:	7fe82000 	svcvc	0x00e82000
    158e:	10002000 	andne	r2, r0, r0
    1592:	10184001 	andsne	r4, r8, r1
    1596:	e6184001 	ldr	r4, [r8], -r1
    159a:	e608400f 	str	r4, [r8], -pc
    159e:	4420400f 	strtmi	r4, [r0], #-15
    15a2:	451c4002 	ldrmi	r4, [ip, #-2]
    15a6:	452c4002 	strmi	r4, [ip, #-2]!
    15aa:	10304002 	eorsne	r4, r0, r2
    15ae:	10244001 	eorne	r4, r4, r1
    15b2:	10284001 	eorne	r4, r8, r1
    15b6:	102c4001 	eorne	r4, ip, r1
    15ba:	1fc84001 	svcne	0x00c84001
    15be:	15e44001 	strbne	r4, [r4, #1]!

000015c0 <Dictionary_300>:
    15c0:	000015e4 	andeq	r1, r0, r4, ror #11
    15c4:	63070000 	movwvs	r0, #28672	; 0x7000
    15c8:	65707865 	ldrbvs	r7, [r0, #-2149]!	; 0x865
    15cc:	b5007463 	strlt	r7, [r0, #-1123]	; 0x463

000015ce <Code_300>:
    15ce:	b500      	push	{lr}
    15d0:	6838      	ldr	r0, [r7, #0]
    15d2:	b401      	push	{r0}
    15d4:	3001      	adds	r0, #1
    15d6:	6038      	str	r0, [r7, #0]
    15d8:	f000 f80b 	bl	15f2 <Code_302>
    15dc:	bc01      	pop	{r0}
    15de:	7006      	strb	r6, [r0, #0]
    15e0:	cf40      	ldmia	r7!, {r6}
    15e2:	bd00      	pop	{pc}

000015e4 <Dictionary_302>:
    15e4:	0000165a 	andeq	r1, r0, sl, asr r6
    15e8:	61060000 	mrsvs	r0, (UNDEF: 6)
    15ec:	70656363 	rsbvc	r6, r5, r3, ror #6
    15f0:	b5000074 	strlt	r0, [r0, #-116]	; 0x74

000015f2 <Code_302>:
    15f2:	b500      	push	{lr}
    15f4:	cf02      	ldmia	r7!, {r1}
    15f6:	3901      	subs	r1, #1
    15f8:	2200      	movs	r2, #0
    15fa:	f7ff ff14 	bl	1426 <Code_284>
    15fe:	0030      	movs	r0, r6
    1600:	cf40      	ldmia	r7!, {r6}
    1602:	287f      	cmp	r0, #127	; 0x7f
    1604:	d009      	beq.n	161a <Code_302+0x28>
    1606:	2820      	cmp	r0, #32
    1608:	d219      	bcs.n	163e <Code_302+0x4c>
    160a:	2809      	cmp	r0, #9
    160c:	d016      	beq.n	163c <Code_302+0x4a>
    160e:	280a      	cmp	r0, #10
    1610:	d01f      	beq.n	1652 <Code_302+0x60>
    1612:	280d      	cmp	r0, #13
    1614:	d01d      	beq.n	1652 <Code_302+0x60>
    1616:	2808      	cmp	r0, #8
    1618:	d1ef      	bne.n	15fa <Code_302+0x8>
    161a:	2a00      	cmp	r2, #0
    161c:	d0ed      	beq.n	15fa <Code_302+0x8>
    161e:	f000 f90e 	bl	183e <dotgaensefuesschen>
    1622:	08200803 	stmdaeq	r0!, {r0, r1, fp}
    1626:	2a00      	cmp	r2, #0
    1628:	d0e7      	beq.n	15fa <Code_302+0x8>
    162a:	5c88      	ldrb	r0, [r1, r2]
    162c:	3a01      	subs	r2, #1
    162e:	2380      	movs	r3, #128	; 0x80
    1630:	4003      	ands	r3, r0
    1632:	d0e2      	beq.n	15fa <Code_302+0x8>
    1634:	2340      	movs	r3, #64	; 0x40
    1636:	4003      	ands	r3, r0
    1638:	d0f5      	beq.n	1626 <Code_302+0x34>
    163a:	e7de      	b.n	15fa <Code_302+0x8>
    163c:	2020      	movs	r0, #32
    163e:	42b2      	cmp	r2, r6
    1640:	d2db      	bcs.n	15fa <Code_302+0x8>
    1642:	f847 6d04 	str.w	r6, [r7, #-4]!
    1646:	0006      	movs	r6, r0
    1648:	f7ff fee3 	bl	1412 <Code_283>
    164c:	3201      	adds	r2, #1
    164e:	5488      	strb	r0, [r1, r2]
    1650:	e7d3      	b.n	15fa <Code_302+0x8>
    1652:	0016      	movs	r6, r2
    1654:	f000 f8a2 	bl	179c <Code_333>
    1658:	bd00      	pop	{pc}

0000165a <Dictionary_306>:
    165a:	0000166c 	andeq	r1, r0, ip, ror #12
    165e:	74030040 	strvc	r0, [r3], #-64	; 0x40
    1662:	f8476269 			; <UNDEFINED> instruction: 0xf8476269

00001664 <Code_306>:
    1664:	f847 6d04 	str.w	r6, [r7, #-4]!
    1668:	4e29      	ldr	r6, [pc, #164]	; (1710 <Code_318+0x22>)
    166a:	4770      	bx	lr

0000166c <Dictionary_308>:
    166c:	00001682 	andeq	r1, r0, r2, lsl #13
    1670:	3e030081 	cdpcc	0, 0, cr0, cr3, cr1, {4}
    1674:	f8476e69 			; <UNDEFINED> instruction: 0xf8476e69

00001676 <Code_308>:
    1676:	f847 6d04 	str.w	r6, [r7, #-4]!
    167a:	4e26      	ldr	r6, [pc, #152]	; (1714 <Code_318+0x26>)
    167c:	4770      	bx	lr
    167e:	00000000 	andeq	r0, r0, r0

00001682 <Dictionary_311>:
    1682:	000016a8 	andeq	r1, r0, r8, lsr #13
    1686:	630e0082 	movwvs	r0, #57474	; 0xe082
    168a:	65727275 	ldrbvs	r7, [r2, #-629]!	; 0x275
    168e:	732d746e 	teqvc	sp, #1845493760	; 0x6e000000
    1692:	6372756f 	cmnvs	r2, #465567744	; 0x1bc00000
    1696:	f8470065 			; <UNDEFINED> instruction: 0xf8470065

00001698 <Code_311>:
    1698:	f847 6d04 	str.w	r6, [r7, #-4]!
    169c:	4e1e      	ldr	r6, [pc, #120]	; (1718 <Code_318+0x2a>)
    169e:	4770      	bx	lr
    16a0:	00000000 	andeq	r0, r0, r0
    16a4:	20000068 	andcs	r0, r0, r8, rrx

000016a8 <Dictionary_314>:
    16a8:	000016c4 	andeq	r1, r0, r4, asr #13
    16ac:	73090000 	movwvc	r0, #36864	; 0x9000
    16b0:	6f737465 	svcvs	0x00737465
    16b4:	65637275 	strbvs	r7, [r3, #-629]!	; 0x275

000016b8 <Code_314>:
    16b8:	4817      	ldr	r0, [pc, #92]	; (1718 <Code_318+0x2a>)
    16ba:	cf02      	ldmia	r7!, {r1}
    16bc:	6006      	str	r6, [r0, #0]
    16be:	6041      	str	r1, [r0, #4]
    16c0:	cf40      	ldmia	r7!, {r6}
    16c2:	4770      	bx	lr

000016c4 <Dictionary_316>:
    16c4:	000016e2 	andeq	r1, r0, r2, ror #13
    16c8:	73060000 	movwvc	r0, #24576	; 0x6000
    16cc:	6372756f 	cmnvs	r2, #465567744	; 0x1bc00000
    16d0:	f8470065 			; <UNDEFINED> instruction: 0xf8470065

000016d2 <Code_316>:
    16d2:	f847 6d04 	str.w	r6, [r7, #-4]!
    16d6:	4e10      	ldr	r6, [pc, #64]	; (1718 <Code_318+0x2a>)
    16d8:	3f04      	subs	r7, #4
    16da:	6870      	ldr	r0, [r6, #4]
    16dc:	6038      	str	r0, [r7, #0]
    16de:	6836      	ldr	r6, [r6, #0]
    16e0:	4770      	bx	lr

000016e2 <Dictionary_318>:
    16e2:	0000171c 	andeq	r1, r0, ip, lsl r7
    16e6:	71050000 	mrsvc	r0, (UNDEF: 5)
    16ea:	79726575 	ldmdbvc	r2!, {r0, r2, r4, r5, r6, r8, sl, sp, lr}^

000016ee <Code_318>:
    16ee:	b50f      	push	{r0, r1, r2, r3, lr}
    16f0:	4808      	ldr	r0, [pc, #32]	; (1714 <Code_318+0x26>)
    16f2:	2100      	movs	r1, #0
    16f4:	6001      	str	r1, [r0, #0]
    16f6:	f7ff ffb5 	bl	1664 <Code_306>
    16fa:	f847 6d04 	str.w	r6, [r7, #-4]!
    16fe:	f847 6d04 	str.w	r6, [r7, #-4]!
    1702:	26c8      	movs	r6, #200	; 0xc8
    1704:	f7ff ff75 	bl	15f2 <Code_302>
    1708:	f7ff ffd6 	bl	16b8 <Code_314>
    170c:	bd0f      	pop	{r0, r1, r2, r3, pc}
    170e:	00680000 	rsbeq	r0, r8, r0
    1712:	7fe42000 	svcvc	0x00e42000
    1716:	7fdc2000 	svcvc	0x00dc2000
    171a:	176a2000 	strbne	r2, [sl, -r0]!

0000171c <Dictionary_323>:
    171c:	0000176a 	andeq	r1, r0, sl, ror #14
    1720:	63070000 	movwvs	r0, #28672	; 0x7000
    1724:	61706d6f 	cmnvs	r0, pc, ror #26
    1728:	b50f6572 	strlt	r6, [pc, #-1394]	; 11be <Dictionary_243+0x12>

0000172a <Code_323>:
    172a:	b50f      	push	{r0, r1, r2, r3, lr}
    172c:	0031      	movs	r1, r6
    172e:	cf40      	ldmia	r7!, {r6}
    1730:	cf01      	ldmia	r7!, {r0}
    1732:	4288      	cmp	r0, r1
    1734:	d002      	beq.n	173c <Code_323+0x12>
    1736:	cf40      	ldmia	r7!, {r6}
    1738:	2600      	movs	r6, #0
    173a:	bd0f      	pop	{r0, r1, r2, r3, pc}
    173c:	cf02      	ldmia	r7!, {r1}
    173e:	2800      	cmp	r0, #0
    1740:	d010      	beq.n	1764 <Code_323+0x3a>
    1742:	3801      	subs	r0, #1
    1744:	5c0a      	ldrb	r2, [r1, r0]
    1746:	5c33      	ldrb	r3, [r6, r0]
    1748:	2a41      	cmp	r2, #65	; 0x41
    174a:	d302      	bcc.n	1752 <Code_323+0x28>
    174c:	2a5b      	cmp	r2, #91	; 0x5b
    174e:	bf38      	it	cc
    1750:	3220      	addcc	r2, #32
    1752:	2b41      	cmp	r3, #65	; 0x41
    1754:	d302      	bcc.n	175c <Code_323+0x32>
    1756:	2b5b      	cmp	r3, #91	; 0x5b
    1758:	bf38      	it	cc
    175a:	3320      	addcc	r3, #32
    175c:	429a      	cmp	r2, r3
    175e:	d0ee      	beq.n	173e <Code_323+0x14>
    1760:	2600      	movs	r6, #0
    1762:	bd0f      	pop	{r0, r1, r2, r3, pc}
    1764:	2600      	movs	r6, #0
    1766:	43f6      	mvns	r6, r6
    1768:	bd0f      	pop	{r0, r1, r2, r3, pc}

0000176a <Dictionary_328>:
    176a:	0000177e 	andeq	r1, r0, lr, ror r7
    176e:	63020000 	movwvs	r0, #8192	; 0x2000
    1772:	b5000072 	strlt	r0, [r0, #-114]	; 0x72

00001774 <Code_328>:
    1774:	b500      	push	{lr}
    1776:	f000 f862 	bl	183e <dotgaensefuesschen>
    177a:	bd000a01 	vstrlt	s0, [r0, #-4]

0000177e <Dictionary_330>:
    177e:	00001790 	muleq	r0, r0, r7
    1782:	62020000 	andvs	r0, r2, #0
    1786:	f847006c 			; <UNDEFINED> instruction: 0xf847006c

00001788 <Code_330>:
    1788:	f847 6d04 	str.w	r6, [r7, #-4]!
    178c:	2620      	movs	r6, #32
    178e:	4770      	bx	lr

00001790 <Dictionary_333>:
    1790:	000017a4 	andeq	r1, r0, r4, lsr #15
    1794:	73050000 	movwvc	r0, #20480	; 0x5000
    1798:	65636170 	strbvs	r6, [r3, #-368]!	; 0x170

0000179c <Code_333>:
    179c:	f847 6d04 	str.w	r6, [r7, #-4]!
    17a0:	2620      	movs	r6, #32
    17a2:	e636      	b.n	1412 <Code_283>

000017a4 <Dictionary_336>:
    17a4:	000017c4 	andeq	r1, r0, r4, asr #15
    17a8:	73060000 	movwvc	r0, #24576	; 0x6000
    17ac:	65636170 	strbvs	r6, [r3, #-368]!	; 0x170
    17b0:	b5000073 	strlt	r0, [r0, #-115]	; 0x73

000017b2 <Code_336>:
    17b2:	b500      	push	{lr}
    17b4:	2e00      	cmp	r6, #0
    17b6:	dd03      	ble.n	17c0 <Code_336+0xe>
    17b8:	f7ff fff0 	bl	179c <Code_333>
    17bc:	3e01      	subs	r6, #1
    17be:	d1fb      	bne.n	17b8 <Code_336+0x6>
    17c0:	cf40      	ldmia	r7!, {r6}
    17c2:	bd00      	pop	{pc}

000017c4 <Dictionary_338>:
    17c4:	000017d4 	ldrdeq	r1, [r0], -r4
    17c8:	5b060050 	blpl	181910 <BIT20+0x81910>
    17cc:	72616863 	rsbvc	r6, r1, #6488064	; 0x630000
    17d0:	e005005d 	and	r0, r5, sp, asr r0

000017d2 <Code_338>:
    17d2:	e005      	b.n	17e0 <Code_339>

000017d4 <Dictionary_339>:
    17d4:	000017ec 	andeq	r1, r0, ip, ror #15
    17d8:	63040000 	movwvs	r0, #16384	; 0x4000
    17dc:	00726168 	rsbseq	r6, r2, r8, ror #2

000017e0 <Code_339>:
    17e0:	b500      	push	{lr}
    17e2:	f001 fb75 	bl	2ed0 <Code_798>
    17e6:	cf40      	ldmia	r7!, {r6}
    17e8:	7836      	ldrb	r6, [r6, #0]
    17ea:	bd00      	pop	{pc}

000017ec <Dictionary_341>:
    17ec:	000017fc 	strdeq	r1, [r0], -ip
    17f0:	28010050 	stmdacs	r1, {r4, r6}

000017f4 <Code_341>:
    17f4:	f847 6d04 	str.w	r6, [r7, #-4]!
    17f8:	2629      	movs	r6, #41	; 0x29
    17fa:	e006      	b.n	180a <Code_344+0x6>

000017fc <Dictionary_344>:
    17fc:	00001816 	andeq	r1, r0, r6, lsl r8
    1800:	5c010050 	stcpl	0, cr0, [r1], {80}	; 0x50

00001804 <Code_344>:
    1804:	f847 6d04 	str.w	r6, [r7, #-4]!
    1808:	2600      	movs	r6, #0
    180a:	b500      	push	{lr}
    180c:	f001 fb6a 	bl	2ee4 <Code_800>
    1810:	3704      	adds	r7, #4
    1812:	cf40      	ldmia	r7!, {r6}
    1814:	bd00      	pop	{pc}

00001816 <Dictionary_349>:
    1816:	0000185a 	andeq	r1, r0, sl, asr r8
    181a:	2e020010 	mcrcs	0, 0, r0, cr2, cr0, {0}
    181e:	489b0022 	ldmmi	fp, {r1, r5}

00001820 <Code_349>:
    1820:	489b      	ldr	r0, [pc, #620]	; (1a90 <Code_388+0x94>)
    1822:	b500      	push	{lr}
    1824:	f847 6d04 	str.w	r6, [r7, #-4]!
    1828:	0006      	movs	r6, r0
    182a:	f000 fa5e 	bl	1cea <Code_429>
    182e:	f847 6d04 	str.w	r6, [r7, #-4]!
    1832:	2622      	movs	r6, #34	; 0x22
    1834:	f001 fb56 	bl	2ee4 <Code_800>
    1838:	f000 fd80 	bl	233c <Code_556>
    183c:	bd00      	pop	{pc}

0000183e <dotgaensefuesschen>:
    183e:	b40a      	push	{r1, r3}
    1840:	f847 6d04 	str.w	r6, [r7, #-4]!
    1844:	4676      	mov	r6, lr
    1846:	3e01      	subs	r6, #1
    1848:	7833      	ldrb	r3, [r6, #0]
    184a:	2101      	movs	r1, #1
    184c:	3301      	adds	r3, #1
    184e:	4019      	ands	r1, r3
    1850:	185b      	adds	r3, r3, r1
    1852:	eb1e 0e03 	adds.w	lr, lr, r3
    1856:	bc0a      	pop	{r1, r3}
    1858:	e039      	b.n	18ce <Code_364>

0000185a <Dictionary_355>:
    185a:	00001880 	andeq	r1, r0, r0, lsl #17
    185e:	63020010 	movwvs	r0, #8208	; 0x2010
    1862:	488b0022 	stmmi	fp, {r1, r5}

00001864 <Code_355>:
    1864:	488b      	ldr	r0, [pc, #556]	; (1a94 <Code_388+0x98>)
    1866:	e7dc      	b.n	1822 <Code_349+0x2>

00001868 <dotcfuesschen>:
    1868:	f847 6d04 	str.w	r6, [r7, #-4]!
    186c:	4676      	mov	r6, lr
    186e:	3e01      	subs	r6, #1
    1870:	7833      	ldrb	r3, [r6, #0]
    1872:	2101      	movs	r1, #1
    1874:	3301      	adds	r3, #1
    1876:	4019      	ands	r1, r3
    1878:	185b      	adds	r3, r3, r1
    187a:	eb1e 0e03 	adds.w	lr, lr, r3
    187e:	4770      	bx	lr

00001880 <Dictionary_357>:
    1880:	000018aa 	andeq	r1, r0, sl, lsr #17
    1884:	73020010 	movwvc	r0, #8208	; 0x2010
    1888:	48830022 	stmmi	r3, {r1, r5}

0000188a <Code_357>:
    188a:	4883      	ldr	r0, [pc, #524]	; (1a98 <Code_388+0x9c>)
    188c:	e7c9      	b.n	1822 <Code_349+0x2>

0000188e <dotsfuesschen>:
    188e:	f847 6d04 	str.w	r6, [r7, #-4]!
    1892:	4676      	mov	r6, lr
    1894:	f847 6d04 	str.w	r6, [r7, #-4]!
    1898:	3e01      	subs	r6, #1
    189a:	7836      	ldrb	r6, [r6, #0]
    189c:	2101      	movs	r1, #1
    189e:	1c73      	adds	r3, r6, #1
    18a0:	4019      	ands	r1, r3
    18a2:	185b      	adds	r3, r3, r1
    18a4:	eb1e 0e03 	adds.w	lr, lr, r3
    18a8:	4770      	bx	lr

000018aa <Dictionary_361>:
    18aa:	000018c2 	andeq	r1, r0, r2, asr #17
    18ae:	63050000 	movwvs	r0, #20480	; 0x5000
    18b2:	746e756f 	strbtvc	r7, [lr], #-1391	; 0x56f

000018b6 <Code_361>:
    18b6:	3601      	adds	r6, #1
    18b8:	f847 6d04 	str.w	r6, [r7, #-4]!
    18bc:	3e01      	subs	r6, #1
    18be:	7836      	ldrb	r6, [r6, #0]
    18c0:	4770      	bx	lr

000018c2 <Dictionary_364>:
    18c2:	000018ea 	andeq	r1, r0, sl, ror #17
    18c6:	63050000 	movwvs	r0, #20480	; 0x5000
    18ca:	65707974 	ldrbvs	r7, [r0, #-2420]!	; 0x974

000018ce <Code_364>:
    18ce:	b501      	push	{r0, lr}
    18d0:	7830      	ldrb	r0, [r6, #0]
    18d2:	2800      	cmp	r0, #0
    18d4:	d007      	beq.n	18e6 <Code_364+0x18>
    18d6:	3601      	adds	r6, #1
    18d8:	f847 6d04 	str.w	r6, [r7, #-4]!
    18dc:	7836      	ldrb	r6, [r6, #0]
    18de:	f7ff fd98 	bl	1412 <Code_283>
    18e2:	3801      	subs	r0, #1
    18e4:	d1f7      	bne.n	18d6 <Code_364+0x8>
    18e6:	cf40      	ldmia	r7!, {r6}
    18e8:	bd01      	pop	{r0, pc}

000018ea <Dictionary_368>:
    18ea:	00001918 	andeq	r1, r0, r8, lsl r9
    18ee:	74040000 	strvc	r0, [r4]
    18f2:	00657079 	rsbeq	r7, r5, r9, ror r0

000018f6 <Code_368>:
    18f6:	0031      	movs	r1, r6
    18f8:	cf40      	ldmia	r7!, {r6}
    18fa:	0030      	movs	r0, r6
    18fc:	cf40      	ldmia	r7!, {r6}

000018fe <stype_addr_r0_len_r1>:
    18fe:	b500      	push	{lr}
    1900:	2900      	cmp	r1, #0
    1902:	d008      	beq.n	1916 <stype_addr_r0_len_r1+0x18>
    1904:	2200      	movs	r2, #0
    1906:	f847 6d04 	str.w	r6, [r7, #-4]!
    190a:	5c86      	ldrb	r6, [r0, r2]
    190c:	f7ff fd81 	bl	1412 <Code_283>
    1910:	3201      	adds	r2, #1
    1912:	4291      	cmp	r1, r2
    1914:	d1f7      	bne.n	1906 <stype_addr_r0_len_r1+0x8>
    1916:	bd00      	pop	{pc}

00001918 <Dictionary_372>:
    1918:	00001952 	andeq	r1, r0, r2, asr r9
    191c:	68040000 	stmdavs	r4, {}	; <UNPREDICTABLE>
    1920:	002e7865 	eoreq	r7, lr, r5, ror #16

00001924 <Code_372>:
    1924:	b507      	push	{r0, r1, r2, lr}
    1926:	0031      	movs	r1, r6
    1928:	cf40      	ldmia	r7!, {r6}
    192a:	2020      	movs	r0, #32
    192c:	220f      	movs	r2, #15
    192e:	3804      	subs	r0, #4
    1930:	f847 6d04 	str.w	r6, [r7, #-4]!
    1934:	000e      	movs	r6, r1
    1936:	40c6      	lsrs	r6, r0
    1938:	4016      	ands	r6, r2
    193a:	2e09      	cmp	r6, #9
    193c:	d901      	bls.n	1942 <Code_372+0x1e>
    193e:	3637      	adds	r6, #55	; 0x37
    1940:	e000      	b.n	1944 <Code_372+0x20>
    1942:	3630      	adds	r6, #48	; 0x30
    1944:	f7ff fd65 	bl	1412 <Code_283>
    1948:	2800      	cmp	r0, #0
    194a:	d1f0      	bne.n	192e <Code_372+0xa>
    194c:	f7ff ff26 	bl	179c <Code_333>
    1950:	bd07      	pop	{r0, r1, r2, pc}

00001952 <Dictionary_375>:
    1952:	00001962 	andeq	r1, r0, r2, ror #18
    1956:	68030000 	stmdavs	r3, {}	; <UNPREDICTABLE>
    195a:	b51f732e 	ldrlt	r7, [pc, #-814]	; 1634 <Code_302+0x42>

0000195c <Code_375>:
    195c:	b51f      	push	{r0, r1, r2, r3, r4, lr}
    195e:	4c4f      	ldr	r4, [pc, #316]	; (1a9c <Code_388+0xa0>)
    1960:	e00e      	b.n	1980 <Code_377+0x4>

00001962 <Dictionary_376>:
    1962:	00001972 	andeq	r1, r0, r2, ror r9
    1966:	75030000 	strvc	r0, [r3]
    196a:	b51f732e 	ldrlt	r7, [pc, #-814]	; 1644 <Code_302+0x52>

0000196c <Code_376>:
    196c:	b51f      	push	{r0, r1, r2, r3, r4, lr}
    196e:	4c4c      	ldr	r4, [pc, #304]	; (1aa0 <Code_388+0xa4>)
    1970:	e006      	b.n	1980 <Code_377+0x4>

00001972 <Dictionary_377>:
    1972:	000019f0 	strdeq	r1, [r0], -r0
    1976:	2e020000 	cdpcs	0, 0, cr0, cr2, cr0, {0}
    197a:	b51f0073 	ldrlt	r0, [pc, #-115]	; 190f <stype_addr_r0_len_r1+0x11>

0000197c <Code_377>:
    197c:	b51f      	push	{r0, r1, r2, r3, r4, lr}
    197e:	4c49      	ldr	r4, [pc, #292]	; (1aa4 <Code_388+0xa8>)
    1980:	4949      	ldr	r1, [pc, #292]	; (1aa8 <Code_388+0xac>)
    1982:	1bc9      	subs	r1, r1, r7
    1984:	0889      	lsrs	r1, r1, #2
    1986:	4a49      	ldr	r2, [pc, #292]	; (1aac <Code_388+0xb0>)
    1988:	6810      	ldr	r0, [r2, #0]
    198a:	b403      	push	{r0, r1}
    198c:	200a      	movs	r0, #10
    198e:	6010      	str	r0, [r2, #0]
    1990:	f7ff ff55 	bl	183e <dotgaensefuesschen>
    1994:	61745308 	cmnvs	r4, r8, lsl #6
    1998:	203a6b63 	eorscs	r6, sl, r3, ror #22
    199c:	f847005b 			; <UNDEFINED> instruction: 0xf847005b
    19a0:	6d04      	ldr	r4, [r0, #80]	; 0x50
    19a2:	000e      	movs	r6, r1
    19a4:	f001 fc79 	bl	329a <Code_866>
    19a8:	f7ff ff49 	bl	183e <dotgaensefuesschen>
    19ac:	00205d02 	eoreq	r5, r0, r2, lsl #26
    19b0:	bc03      	pop	{r0, r1}
    19b2:	4a3e      	ldr	r2, [pc, #248]	; (1aac <Code_388+0xb0>)
    19b4:	6010      	str	r0, [r2, #0]
    19b6:	2900      	cmp	r1, #0
    19b8:	d00a      	beq.n	19d0 <Code_377+0x54>
    19ba:	4a3d      	ldr	r2, [pc, #244]	; (1ab0 <Code_388+0xb4>)
    19bc:	6810      	ldr	r0, [r2, #0]
    19be:	b406      	push	{r1, r2}
    19c0:	f847 6d04 	str.w	r6, [r7, #-4]!
    19c4:	0006      	movs	r6, r0
    19c6:	47a0      	blx	r4
    19c8:	bc06      	pop	{r1, r2}
    19ca:	3a04      	subs	r2, #4
    19cc:	3901      	subs	r1, #1
    19ce:	d1f5      	bne.n	19bc <Code_377+0x40>
    19d0:	f7ff ff35 	bl	183e <dotgaensefuesschen>
    19d4:	4f542006 	svcmi	0x00542006
    19d8:	00203a53 	eoreq	r3, r0, r3, asr sl
    19dc:	f847 6d04 	str.w	r6, [r7, #-4]!
    19e0:	0036      	movs	r6, r6
    19e2:	47a0      	blx	r4
    19e4:	f7ff ff2b 	bl	183e <dotgaensefuesschen>
    19e8:	3e2a2004 	cdpcc	0, 2, cr2, cr10, cr4, {0}
    19ec:	bd1f000a 	ldclt	0, cr0, [pc, #-40]	; 19cc <Code_377+0x50>

000019f0 <Dictionary_388>:
    19f0:	00001ab4 			; <UNDEFINED> instruction: 0x00001ab4
    19f4:	77050000 	strvc	r0, [r5, -r0]
    19f8:	7364726f 	cmnvc	r4, #-268435450	; 0xf0000006

000019fc <Code_388>:
    19fc:	b500      	push	{lr}
    19fe:	f7ff ff1e 	bl	183e <dotgaensefuesschen>
    1a02:	f0000a01 			; <UNDEFINED> instruction: 0xf0000a01
    1a06:	fed7 f7ff 	mrc2	7, 6, pc, cr7, cr15, {7}
    1a0a:	ff19 4109 	vrhadd.u16	d4, d9, d9
    1a0e:	65726464 	ldrbvs	r6, [r2, #-1124]!	; 0x464
    1a12:	203a7373 	eorscs	r7, sl, r3, ror r3
    1a16:	f847 6d04 	str.w	r6, [r7, #-4]!
    1a1a:	f7ff ff83 	bl	1924 <Code_372>
    1a1e:	f7ff ff0e 	bl	183e <dotgaensefuesschen>
    1a22:	6e694c06 	cdpvs	12, 6, cr4, cr9, cr6, {0}
    1a26:	00203a6b 	eoreq	r3, r0, fp, ror #20
    1a2a:	f847 6d04 	str.w	r6, [r7, #-4]!
    1a2e:	6836      	ldr	r6, [r6, #0]
    1a30:	f7ff ff78 	bl	1924 <Code_372>
    1a34:	f7ff ff03 	bl	183e <dotgaensefuesschen>
    1a38:	616c4607 	cmnvs	ip, r7, lsl #12
    1a3c:	203a7367 	eorscs	r7, sl, r7, ror #6
    1a40:	f847 6d04 	str.w	r6, [r7, #-4]!
    1a44:	88b6      	ldrh	r6, [r6, #4]
    1a46:	f7ff ff6d 	bl	1924 <Code_372>
    1a4a:	f7ff fef8 	bl	183e <dotgaensefuesschen>
    1a4e:	646f4306 	strbtvs	r4, [pc], #-774	; 1a56 <Code_388+0x5a>
    1a52:	00203a65 	eoreq	r3, r0, r5, ror #20
    1a56:	1db0      	adds	r0, r6, #6
    1a58:	f000 fee6 	bl	2828 <skipstring>
    1a5c:	f847 6d04 	str.w	r6, [r7, #-4]!
    1a60:	0006      	movs	r6, r0
    1a62:	f7ff ff5f 	bl	1924 <Code_372>
    1a66:	f7ff feea 	bl	183e <dotgaensefuesschen>
    1a6a:	6d614e06 	stclvs	14, cr4, [r1, #-24]!	; 0xffffffe8
    1a6e:	00203a65 	eoreq	r3, r0, r5, ror #20
    1a72:	f847 6d04 	str.w	r6, [r7, #-4]!
    1a76:	3606      	adds	r6, #6
    1a78:	f7ff ff29 	bl	18ce <Code_364>
    1a7c:	f7ff fedf 	bl	183e <dotgaensefuesschen>
    1a80:	f0000a01 			; <UNDEFINED> instruction: 0xf0000a01
    1a84:	feaf 0030 	mcr2	0, 5, r0, cr15, cr0, {1}
    1a88:	cf40      	ldmia	r7!, {r6}
    1a8a:	d0bd      	beq.n	1a08 <Code_388+0xc>
    1a8c:	cf40      	ldmia	r7!, {r6}
    1a8e:	bd00      	pop	{pc}
    1a90:	0000183e 	andeq	r1, r0, lr, lsr r8
    1a94:	00001868 	andeq	r1, r0, r8, ror #16
    1a98:	0000188e 	andeq	r1, r0, lr, lsl #17
    1a9c:	00001925 	andeq	r1, r0, r5, lsr #18
    1aa0:	0000328b 	andeq	r3, r0, fp, lsl #5
    1aa4:	0000329b 	muleq	r0, fp, r2
    1aa8:	20000230 	andcs	r0, r0, r0, lsr r2
    1aac:	20007ffc 	strdcs	r7, [r0], -ip
    1ab0:	2000022c 	andcs	r0, r0, ip, lsr #4

00001ab4 <Dictionary_408>:
    1ab4:	00001c18 	andeq	r1, r0, r8, lsl ip
    1ab8:	310d0000 	mrscc	r0, (UNDEF: 13)
    1abc:	74696232 	strbtvc	r6, [r9], #-562	; 0x232
    1ac0:	6f636e65 	svcvs	0x00636e65
    1ac4:	676e6964 	strbvs	r6, [lr, -r4, ror #18]!

00001ac8 <Code_408>:
    1ac8:	b50f      	push	{r0, r1, r2, r3, lr}
    1aca:	2eff      	cmp	r6, #255	; 0xff
    1acc:	d804      	bhi.n	1ad8 <Code_408+0x10>
    1ace:	f847 6d04 	str.w	r6, [r7, #-4]!
    1ad2:	f05f 36ff 	movs.w	r6, #4294967295
    1ad6:	bd0f      	pop	{r0, r1, r2, r3, pc}
    1ad8:	f016 10ff 	ands.w	r0, r6, #16711935	; 0xff00ff
    1adc:	42b0      	cmp	r0, r6
    1ade:	d10e      	bne.n	1afe <Code_408+0x36>
    1ae0:	f64f 71ff 	movw	r1, #65535	; 0xffff
    1ae4:	4008      	ands	r0, r1
    1ae6:	0c31      	lsrs	r1, r6, #16
    1ae8:	4281      	cmp	r1, r0
    1aea:	d108      	bne.n	1afe <Code_408+0x36>
    1aec:	f016 06ff 	ands.w	r6, r6, #255	; 0xff
    1af0:	f456 5680 	orrs.w	r6, r6, #4096	; 0x1000
    1af4:	f847 6d04 	str.w	r6, [r7, #-4]!
    1af8:	f05f 36ff 	movs.w	r6, #4294967295
    1afc:	bd0f      	pop	{r0, r1, r2, r3, pc}
    1afe:	f016 20ff 	ands.w	r0, r6, #4278255360	; 0xff00ff00
    1b02:	42b0      	cmp	r0, r6
    1b04:	d10f      	bne.n	1b26 <Code_408+0x5e>
    1b06:	f64f 71ff 	movw	r1, #65535	; 0xffff
    1b0a:	4008      	ands	r0, r1
    1b0c:	0c31      	lsrs	r1, r6, #16
    1b0e:	4281      	cmp	r1, r0
    1b10:	d109      	bne.n	1b26 <Code_408+0x5e>
    1b12:	0a36      	lsrs	r6, r6, #8
    1b14:	f016 06ff 	ands.w	r6, r6, #255	; 0xff
    1b18:	f456 5600 	orrs.w	r6, r6, #8192	; 0x2000
    1b1c:	f847 6d04 	str.w	r6, [r7, #-4]!
    1b20:	f05f 36ff 	movs.w	r6, #4294967295
    1b24:	bd0f      	pop	{r0, r1, r2, r3, pc}
    1b26:	22ff      	movs	r2, #255	; 0xff
    1b28:	0031      	movs	r1, r6
    1b2a:	4011      	ands	r1, r2
    1b2c:	0a30      	lsrs	r0, r6, #8
    1b2e:	4010      	ands	r0, r2
    1b30:	4288      	cmp	r0, r1
    1b32:	d110      	bne.n	1b56 <Code_408+0x8e>
    1b34:	0c30      	lsrs	r0, r6, #16
    1b36:	4010      	ands	r0, r2
    1b38:	4288      	cmp	r0, r1
    1b3a:	d10c      	bne.n	1b56 <Code_408+0x8e>
    1b3c:	0e30      	lsrs	r0, r6, #24
    1b3e:	4010      	ands	r0, r2
    1b40:	4288      	cmp	r0, r1
    1b42:	d108      	bne.n	1b56 <Code_408+0x8e>
    1b44:	f016 06ff 	ands.w	r6, r6, #255	; 0xff
    1b48:	f456 5640 	orrs.w	r6, r6, #12288	; 0x3000
    1b4c:	f847 6d04 	str.w	r6, [r7, #-4]!
    1b50:	f05f 36ff 	movs.w	r6, #4294967295
    1b54:	bd0f      	pop	{r0, r1, r2, r3, pc}
    1b56:	0030      	movs	r0, r6
    1b58:	2100      	movs	r1, #0
    1b5a:	3101      	adds	r1, #1
    1b5c:	1800      	adds	r0, r0, r0
    1b5e:	f150 0000 	adcs.w	r0, r0, #0
    1b62:	f07f 027f 	mvns.w	r2, #127	; 0x7f
    1b66:	4002      	ands	r2, r0
    1b68:	2a80      	cmp	r2, #128	; 0x80
    1b6a:	d005      	beq.n	1b78 <Code_408+0xb0>
    1b6c:	291f      	cmp	r1, #31
    1b6e:	d3f4      	bcc.n	1b5a <Code_408+0x92>
    1b70:	f847 6d04 	str.w	r6, [r7, #-4]!
    1b74:	2600      	movs	r6, #0
    1b76:	bd0f      	pop	{r0, r1, r2, r3, pc}
    1b78:	2908      	cmp	r1, #8
    1b7a:	d3f9      	bcc.n	1b70 <Code_408+0xa8>
    1b7c:	0006      	movs	r6, r0
    1b7e:	f036 0680 	bics.w	r6, r6, #128	; 0x80
    1b82:	f011 0001 	ands.w	r0, r1, #1
    1b86:	01c0      	lsls	r0, r0, #7
    1b88:	4306      	orrs	r6, r0
    1b8a:	f011 000e 	ands.w	r0, r1, #14
    1b8e:	02c0      	lsls	r0, r0, #11
    1b90:	4306      	orrs	r6, r0
    1b92:	f011 0010 	ands.w	r0, r1, #16
    1b96:	0580      	lsls	r0, r0, #22
    1b98:	4306      	orrs	r6, r0
    1b9a:	f847 6d04 	str.w	r6, [r7, #-4]!
    1b9e:	f05f 36ff 	movs.w	r6, #4294967295
    1ba2:	bd0f      	pop	{r0, r1, r2, r3, pc}

00001ba4 <movwkomma>:
    1ba4:	f847 6d04 	str.w	r6, [r7, #-4]!
    1ba8:	f8df 6638 	ldr.w	r6, [pc, #1592]	; 21e4 <setflags_ram+0x1c>
    1bac:	f45f 4170 	movs.w	r1, #61440	; 0xf000
    1bb0:	ea10 0201 	ands.w	r2, r0, r1
    1bb4:	0112      	lsls	r2, r2, #4
    1bb6:	4316      	orrs	r6, r2
    1bb8:	f45f 6100 	movs.w	r1, #2048	; 0x800
    1bbc:	ea10 0201 	ands.w	r2, r0, r1
    1bc0:	03d2      	lsls	r2, r2, #15
    1bc2:	4316      	orrs	r6, r2
    1bc4:	f45f 61e0 	movs.w	r1, #1792	; 0x700
    1bc8:	ea10 0201 	ands.w	r2, r0, r1
    1bcc:	0112      	lsls	r2, r2, #4
    1bce:	4316      	orrs	r6, r2
    1bd0:	21ff      	movs	r1, #255	; 0xff
    1bd2:	ea10 0201 	ands.w	r2, r0, r1
    1bd6:	4316      	orrs	r6, r2
    1bd8:	431e      	orrs	r6, r3
    1bda:	e39f      	b.n	231c <Code_553>

00001bdc <movtkomma>:
    1bdc:	f847 6d04 	str.w	r6, [r7, #-4]!
    1be0:	f8df 6604 	ldr.w	r6, [pc, #1540]	; 21e8 <setflags_ram+0x20>
    1be4:	f05f 4170 	movs.w	r1, #4026531840	; 0xf0000000
    1be8:	ea10 0201 	ands.w	r2, r0, r1
    1bec:	0b12      	lsrs	r2, r2, #12
    1bee:	4316      	orrs	r6, r2
    1bf0:	f05f 6100 	movs.w	r1, #134217728	; 0x8000000
    1bf4:	ea10 0201 	ands.w	r2, r0, r1
    1bf8:	0852      	lsrs	r2, r2, #1
    1bfa:	4316      	orrs	r6, r2
    1bfc:	f05f 61e0 	movs.w	r1, #117440512	; 0x7000000
    1c00:	ea10 0201 	ands.w	r2, r0, r1
    1c04:	0b12      	lsrs	r2, r2, #12
    1c06:	4316      	orrs	r6, r2
    1c08:	f45f 017f 	movs.w	r1, #16711680	; 0xff0000
    1c0c:	ea10 0201 	ands.w	r2, r0, r1
    1c10:	0c12      	lsrs	r2, r2, #16
    1c12:	4316      	orrs	r6, r2
    1c14:	431e      	orrs	r6, r3
    1c16:	e381      	b.n	231c <Code_553>

00001c18 <Dictionary_417>:
    1c18:	00001c7e 	andeq	r1, r0, lr, ror ip
    1c1c:	72100000 	andsvc	r0, r0, #0
    1c20:	73696765 	cmnvc	r9, #26476544	; 0x1940000
    1c24:	6c726574 	cfldr64vs	mvdx6, [r2], #-464	; 0xfffffe30
    1c28:	72657469 	rsbvc	r7, r5, #1761607680	; 0x69000000
    1c2c:	002c6c61 	eoreq	r6, ip, r1, ror #24

00001c30 <Code_417>:
    1c30:	b50f      	push	{r0, r1, r2, r3, lr}
    1c32:	0033      	movs	r3, r6
    1c34:	cf40      	ldmia	r7!, {r6}
    1c36:	021b      	lsls	r3, r3, #8
    1c38:	2eff      	cmp	r6, #255	; 0xff
    1c3a:	d805      	bhi.n	1c48 <Code_417+0x18>
    1c3c:	f456 5600 	orrs.w	r6, r6, #8192	; 0x2000
    1c40:	431e      	orrs	r6, r3
    1c42:	f000 fb43 	bl	22cc <Code_544>
    1c46:	bd0f      	pop	{r0, r1, r2, r3, pc}
    1c48:	f7ff ff3e 	bl	1ac8 <Code_408>
    1c4c:	2e00      	cmp	r6, #0
    1c4e:	cf40      	ldmia	r7!, {r6}
    1c50:	d006      	beq.n	1c60 <Code_417+0x30>
    1c52:	f8df 0598 	ldr.w	r0, [pc, #1432]	; 21ec <setflags_ram+0x24>
    1c56:	4306      	orrs	r6, r0
    1c58:	431e      	orrs	r6, r3
    1c5a:	f000 fb5f 	bl	231c <Code_553>
    1c5e:	bd0f      	pop	{r0, r1, r2, r3, pc}
    1c60:	43f6      	mvns	r6, r6
    1c62:	f7ff ff31 	bl	1ac8 <Code_408>
    1c66:	2e00      	cmp	r6, #0
    1c68:	cf40      	ldmia	r7!, {r6}
    1c6a:	d006      	beq.n	1c7a <Code_417+0x4a>
    1c6c:	f8df 0580 	ldr.w	r0, [pc, #1408]	; 21f0 <setflags_ram+0x28>
    1c70:	4306      	orrs	r6, r0
    1c72:	431e      	orrs	r6, r3
    1c74:	f000 fb52 	bl	231c <Code_553>
    1c78:	bd0f      	pop	{r0, r1, r2, r3, pc}
    1c7a:	43f6      	mvns	r6, r6
    1c7c:	e00b      	b.n	1c96 <movwmovt_register_r3>

00001c7e <Dictionary_421>:
    1c7e:	00001cde 	ldrdeq	r1, [r0], -lr
    1c82:	6d090000 	stcvs	0, cr0, [r9]
    1c86:	6d77766f 	ldclvs	6, cr7, [r7, #-444]!	; 0xfffffe44
    1c8a:	2c74766f 	ldclcs	6, cr7, [r4], #-444	; 0xfffffe44

00001c8e <Code_421>:
    1c8e:	b50f      	push	{r0, r1, r2, r3, lr}
    1c90:	0033      	movs	r3, r6
    1c92:	cf40      	ldmia	r7!, {r6}
    1c94:	021b      	lsls	r3, r3, #8

00001c96 <movwmovt_register_r3>:
    1c96:	0030      	movs	r0, r6
    1c98:	cf40      	ldmia	r7!, {r6}
    1c9a:	f7ff ff83 	bl	1ba4 <movwkomma>
    1c9e:	f64f 71ff 	movw	r1, #65535	; 0xffff
    1ca2:	ea10 4001 	ands.w	r0, r0, r1, lsl #16
    1ca6:	d001      	beq.n	1cac <movwmovt_register_r3+0x16>
    1ca8:	f7ff ff98 	bl	1bdc <movtkomma>
    1cac:	bd0f      	pop	{r0, r1, r2, r3, pc}

00001cae <callkommalang>:
    1cae:	b50f      	push	{r0, r1, r2, r3, lr}
    1cb0:	3601      	adds	r6, #1
    1cb2:	0030      	movs	r0, r6
    1cb4:	cf40      	ldmia	r7!, {r6}
    1cb6:	2300      	movs	r3, #0
    1cb8:	f7ff ff74 	bl	1ba4 <movwkomma>
    1cbc:	f7ff ff8e 	bl	1bdc <movtkomma>
    1cc0:	e006      	b.n	1cd0 <callkommakurz_intern>

00001cc2 <callkommakurz>:
    1cc2:	b50f      	push	{r0, r1, r2, r3, lr}
    1cc4:	3601      	adds	r6, #1
    1cc6:	f847 6d04 	str.w	r6, [r7, #-4]!
    1cca:	2600      	movs	r6, #0
    1ccc:	f7ff ffb0 	bl	1c30 <Code_417>

00001cd0 <callkommakurz_intern>:
    1cd0:	f847 6d04 	str.w	r6, [r7, #-4]!
    1cd4:	f244 7680 	movw	r6, #18304	; 0x4780
    1cd8:	f000 faf8 	bl	22cc <Code_544>
    1cdc:	bd0f      	pop	{r0, r1, r2, r3, pc}

00001cde <Dictionary_429>:
    1cde:	00001d44 	andeq	r1, r0, r4, asr #26
    1ce2:	63050000 	movwvs	r0, #20480	; 0x5000
    1ce6:	2c6c6c61 	stclcs	12, cr6, [ip], #-388	; 0xfffffe7c

00001cea <Code_429>:
    1cea:	b50f      	push	{r0, r1, r2, r3, lr}
    1cec:	0033      	movs	r3, r6
    1cee:	f000 fe33 	bl	2958 <Code_660>
    1cf2:	0030      	movs	r0, r6
    1cf4:	cf40      	ldmia	r7!, {r6}
    1cf6:	1a1b      	subs	r3, r3, r0
    1cf8:	3b04      	subs	r3, #4
    1cfa:	f8df 14f8 	ldr.w	r1, [pc, #1272]	; 21f4 <setflags_ram+0x2c>
    1cfe:	4019      	ands	r1, r3
    1d00:	2900      	cmp	r1, #0
    1d02:	d006      	beq.n	1d12 <Code_429+0x28>
    1d04:	f8df 24f0 	ldr.w	r2, [pc, #1264]	; 21f8 <setflags_ram+0x30>
    1d08:	4291      	cmp	r1, r2
    1d0a:	d002      	beq.n	1d12 <Code_429+0x28>
    1d0c:	e8bd 400f 	ldmia.w	sp!, {r0, r1, r2, r3, lr}
    1d10:	e7d7      	b.n	1cc2 <callkommakurz>
    1d12:	cf40      	ldmia	r7!, {r6}
    1d14:	085b      	lsrs	r3, r3, #1
    1d16:	f8df 04e4 	ldr.w	r0, [pc, #1252]	; 21fc <setflags_ram+0x34>
    1d1a:	f240 71ff 	movw	r1, #2047	; 0x7ff
    1d1e:	4019      	ands	r1, r3
    1d20:	4308      	orrs	r0, r1
    1d22:	0adb      	lsrs	r3, r3, #11
    1d24:	f240 31ff 	movw	r1, #1023	; 0x3ff
    1d28:	4019      	ands	r1, r3
    1d2a:	0409      	lsls	r1, r1, #16
    1d2c:	4308      	orrs	r0, r1
    1d2e:	0a9b      	lsrs	r3, r3, #10
    1d30:	f013 0101 	ands.w	r1, r3, #1
    1d34:	0689      	lsls	r1, r1, #26
    1d36:	4308      	orrs	r0, r1
    1d38:	f847 6d04 	str.w	r6, [r7, #-4]!
    1d3c:	0006      	movs	r6, r0
    1d3e:	f000 faed 	bl	231c <Code_553>
    1d42:	bd0f      	pop	{r0, r1, r2, r3, pc}

00001d44 <Dictionary_434>:
    1d44:	00001d7a 	andeq	r1, r0, sl, ror sp
    1d48:	6c080000 	stcvs	0, cr0, [r8], {0}
    1d4c:	72657469 	rsbvc	r7, r5, #1761607680	; 0x69000000
    1d50:	002c6c61 	eoreq	r6, ip, r1, ror #24

00001d54 <Code_434>:
    1d54:	b508      	push	{r3, lr}
    1d56:	f847 6d04 	str.w	r6, [r7, #-4]!
    1d5a:	f64f 0647 	movw	r6, #63559	; 0xf847
    1d5e:	f000 fab5 	bl	22cc <Code_544>
    1d62:	f847 6d04 	str.w	r6, [r7, #-4]!
    1d66:	f646 5604 	movw	r6, #27908	; 0x6d04
    1d6a:	f000 faaf 	bl	22cc <Code_544>
    1d6e:	f847 6d04 	str.w	r6, [r7, #-4]!
    1d72:	2606      	movs	r6, #6
    1d74:	f7ff ff5c 	bl	1c30 <Code_417>
    1d78:	bd08      	pop	{r3, pc}

00001d7a <Dictionary_441>:
    1d7a:	00001d9e 	muleq	r0, lr, sp
    1d7e:	63060000 	movwvs	r0, #24576	; 0x6000
    1d82:	74616572 	strbtvc	r6, [r1], #-1394	; 0x572
    1d86:	b5000065 	strlt	r0, [r0, #-101]	; 0x65

00001d88 <Code_441>:
    1d88:	b500      	push	{lr}
    1d8a:	f000 f833 	bl	1df4 <Code_446>
    1d8e:	f641 50bb 	movw	r0, #7611	; 0x1dbb
    1d92:	4780      	blx	r0
    1d94:	f847 6d04 	str.w	r6, [r7, #-4]!
    1d98:	f1be 0601 	subs.w	r6, lr, #1
    1d9c:	bd00      	pop	{pc}

00001d9e <Dictionary_443>:
    1d9e:	00001de6 	andeq	r1, r0, r6, ror #27
    1da2:	64050020 	strvs	r0, [r5], #-32
    1da6:	3e73656f 	cdpcc	5, 7, cr6, cr3, cr15, {3}

00001daa <Code_443>:
    1daa:	f641 50bb 	movw	r0, #7611	; 0x1dbb
    1dae:	4780      	blx	r0
    1db0:	f847 6d04 	str.w	r6, [r7, #-4]!
    1db4:	f1be 0601 	subs.w	r6, lr, #1
    1db8:	4770      	bx	lr

00001dba <dodoes>:
    1dba:	f847 6d04 	str.w	r6, [r7, #-4]!
    1dbe:	f1be 0601 	subs.w	r6, lr, #1
    1dc2:	f8df 243c 	ldr.w	r2, [pc, #1084]	; 2200 <setflags_ram+0x38>
    1dc6:	6813      	ldr	r3, [r2, #0]
    1dc8:	f8df 1438 	ldr.w	r1, [pc, #1080]	; 2204 <setflags_ram+0x3c>
    1dcc:	6809      	ldr	r1, [r1, #0]
    1dce:	2002      	movs	r0, #2
    1dd0:	4008      	ands	r0, r1
    1dd2:	d000      	beq.n	1dd6 <dodoes+0x1c>
    1dd4:	3102      	adds	r1, #2
    1dd6:	3102      	adds	r1, #2
    1dd8:	6011      	str	r1, [r2, #0]
    1dda:	f7ff ff68 	bl	1cae <callkommalang>
    1dde:	6013      	str	r3, [r2, #0]
    1de0:	f000 f9b7 	bl	2152 <Code_522>
    1de4:	bd00      	pop	{pc}

00001de6 <Dictionary_446>:
    1de6:	00001e28 	andeq	r1, r0, r8, lsr #28
    1dea:	3c070000 	stccc	0, cr0, [r7], {0}
    1dee:	6c697562 	cfstr64vs	mvdx7, [r9], #-392	; 0xfffffe78
    1df2:	b5007364 	strlt	r7, [r0, #-868]	; 0x364

00001df4 <Code_446>:
    1df4:	b500      	push	{lr}
    1df6:	f000 fb6b 	bl	24d0 <Code_575>
    1dfa:	f000 fdad 	bl	2958 <Code_660>
    1dfe:	2002      	movs	r0, #2
    1e00:	4006      	ands	r6, r0
    1e02:	cf40      	ldmia	r7!, {r6}
    1e04:	d004      	beq.n	1e10 <Code_446+0x1c>
    1e06:	f847 6d04 	str.w	r6, [r7, #-4]!
    1e0a:	2636      	movs	r6, #54	; 0x36
    1e0c:	f000 fa5e 	bl	22cc <Code_544>
    1e10:	f847 6d04 	str.w	r6, [r7, #-4]!
    1e14:	f24b 5600 	movw	r6, #46336	; 0xb500
    1e18:	f000 fa58 	bl	22cc <Code_544>
    1e1c:	f847 6d04 	str.w	r6, [r7, #-4]!
    1e20:	260a      	movs	r6, #10
    1e22:	f000 fabe 	bl	23a2 <Code_564>
    1e26:	bd00      	pop	{pc}

00001e28 <Dictionary_454>:
    1e28:	00001e34 	andeq	r1, r0, r4, lsr lr
    1e2c:	5b030050 	blpl	c1f74 <BIT19+0x41f74>
    1e30:	e0035d27 	and	r5, r3, r7, lsr #26

00001e32 <Code_454>:
    1e32:	e003      	b.n	1e3c <Code_455>

00001e34 <Dictionary_455>:
    1e34:	00001e4c 	andeq	r1, r0, ip, asr #28
    1e38:	27010000 	strcs	r0, [r1, -r0]

00001e3c <Code_455>:
    1e3c:	b500      	push	{lr}
    1e3e:	f001 f847 	bl	2ed0 <Code_798>
    1e42:	f000 fd2f 	bl	28a4 <find_not_found>
    1e46:	0030      	movs	r0, r6
    1e48:	cf40      	ldmia	r7!, {r6}
    1e4a:	bd00      	pop	{pc}

00001e4c <Dictionary_457>:
    1e4c:	00001e8a 	andeq	r1, r0, sl, lsl #29
    1e50:	70080030 	andvc	r0, r8, r0, lsr r0
    1e54:	7074736f 	rsbsvc	r7, r4, pc, ror #6
    1e58:	00656e6f 	rsbeq	r6, r5, pc, ror #28

00001e5c <Code_457>:
    1e5c:	b500      	push	{lr}
    1e5e:	f7ff ffed 	bl	1e3c <Code_455>
    1e62:	2110      	movs	r1, #16
    1e64:	4001      	ands	r1, r0
    1e66:	d10d      	bne.n	1e84 <Code_457+0x28>
    1e68:	2120      	movs	r1, #32
    1e6a:	4001      	ands	r1, r0
    1e6c:	d005      	beq.n	1e7a <Code_457+0x1e>
    1e6e:	f7ff ff71 	bl	1d54 <Code_434>
    1e72:	f847 6d04 	str.w	r6, [r7, #-4]!
    1e76:	4ee4      	ldr	r6, [pc, #912]	; (2208 <setflags_ram+0x40>)
    1e78:	e004      	b.n	1e84 <Code_457+0x28>
    1e7a:	f7ff ff6b 	bl	1d54 <Code_434>
    1e7e:	f847 6d04 	str.w	r6, [r7, #-4]!
    1e82:	4ee2      	ldr	r6, [pc, #904]	; (220c <setflags_ram+0x44>)
    1e84:	f7ff ff31 	bl	1cea <Code_429>
    1e88:	bd00      	pop	{pc}

00001e8a <Dictionary_460>:
    1e8a:	00001ee0 	andeq	r1, r0, r0, ror #29
    1e8e:	69070000 	stmdbvs	r7, {}	; <UNPREDICTABLE>
    1e92:	6e696c6e 	cdpvs	12, 6, cr6, cr9, cr14, {3}
    1e96:	b5002c65 	strlt	r2, [r0, #-3173]	; 0xc65

00001e98 <Code_460>:
    1e98:	b500      	push	{lr}
    1e9a:	f24b 5100 	movw	r1, #46336	; 0xb500
    1e9e:	f64b 5200 	movw	r2, #48384	; 0xbd00
    1ea2:	f244 7370 	movw	r3, #18288	; 0x4770
    1ea6:	8830      	ldrh	r0, [r6, #0]
    1ea8:	4288      	cmp	r0, r1
    1eaa:	d008      	beq.n	1ebe <Code_460+0x26>
    1eac:	4290      	cmp	r0, r2
    1eae:	d008      	beq.n	1ec2 <Code_460+0x2a>
    1eb0:	4298      	cmp	r0, r3
    1eb2:	d006      	beq.n	1ec2 <Code_460+0x2a>
    1eb4:	f847 6d04 	str.w	r6, [r7, #-4]!
    1eb8:	0006      	movs	r6, r0
    1eba:	f000 fa07 	bl	22cc <Code_544>
    1ebe:	3602      	adds	r6, #2
    1ec0:	e7f1      	b.n	1ea6 <Code_460+0xe>
    1ec2:	cf40      	ldmia	r7!, {r6}
    1ec4:	bd00      	pop	{pc}

00001ec6 <suchedefinitionsende>:
    1ec6:	b40e      	push	{r1, r2, r3}
    1ec8:	f64b 5200 	movw	r2, #48384	; 0xbd00
    1ecc:	f244 7370 	movw	r3, #18288	; 0x4770
    1ed0:	8801      	ldrh	r1, [r0, #0]
    1ed2:	3002      	adds	r0, #2
    1ed4:	4291      	cmp	r1, r2
    1ed6:	d001      	beq.n	1edc <suchedefinitionsende+0x16>
    1ed8:	4299      	cmp	r1, r3
    1eda:	d1f9      	bne.n	1ed0 <suchedefinitionsende+0xa>
    1edc:	bc0e      	pop	{r1, r2, r3}
    1ede:	4770      	bx	lr

00001ee0 <Dictionary_464>:
    1ee0:	00001ef6 	strdeq	r1, [r0], -r6
    1ee4:	72040000 	andvc	r0, r4, #0
    1ee8:	002c7465 	eoreq	r7, ip, r5, ror #8

00001eec <Code_464>:
    1eec:	f847 6d04 	str.w	r6, [r7, #-4]!
    1ef0:	f64b 5600 	movw	r6, #48384	; 0xbd00
    1ef4:	e1ea      	b.n	22cc <Code_544>

00001ef6 <Dictionary_467>:
    1ef6:	00001f04 	andeq	r1, r0, r4, lsl #30
    1efa:	65040030 	strvs	r0, [r4, #-48]	; 0x30
    1efe:	00746978 	rsbseq	r6, r4, r8, ror r9

00001f02 <Code_467>:
    1f02:	e7f3      	b.n	1eec <Code_464>

00001f04 <Dictionary_468>:
    1f04:	00001f1c 	andeq	r1, r0, ip, lsl pc
    1f08:	72070030 	andvc	r0, r7, #48	; 0x30
    1f0c:	72756365 	rsbsvc	r6, r5, #-1811939327	; 0x94000001
    1f10:	f8476573 			; <UNDEFINED> instruction: 0xf8476573

00001f12 <Code_468>:
    1f12:	f847 6d04 	str.w	r6, [r7, #-4]!
    1f16:	4ebb      	ldr	r6, [pc, #748]	; (2204 <setflags_ram+0x3c>)
    1f18:	6836      	ldr	r6, [r6, #0]
    1f1a:	e6e6      	b.n	1cea <Code_429>

00001f1c <Dictionary_470>:
    1f1c:	00001f34 	andeq	r1, r0, r4, lsr pc
    1f20:	73050081 	movwvc	r0, #20609	; 0x5081
    1f24:	65746174 	ldrbvs	r6, [r4, #-372]!	; 0x174

00001f28 <Code_470>:
    1f28:	f847 6d04 	str.w	r6, [r7, #-4]!
    1f2c:	4eb8      	ldr	r6, [pc, #736]	; (2210 <setflags_ram+0x48>)
    1f2e:	4770      	bx	lr
    1f30:	00000000 	andeq	r0, r0, r0

00001f34 <Dictionary_473>:
    1f34:	00001f46 	andeq	r1, r0, r6, asr #30
    1f38:	5d010000 	stcpl	0, cr0, [r1]

00001f3c <Code_473>:
    1f3c:	48b4      	ldr	r0, [pc, #720]	; (2210 <setflags_ram+0x48>)
    1f3e:	2100      	movs	r1, #0
    1f40:	43c9      	mvns	r1, r1
    1f42:	6001      	str	r1, [r0, #0]
    1f44:	4770      	bx	lr

00001f46 <Dictionary_474>:
    1f46:	00001f56 	andeq	r1, r0, r6, asr pc
    1f4a:	5b010010 	blpl	41f92 <BIT18+0x1f92>

00001f4e <Code_474>:
    1f4e:	48b0      	ldr	r0, [pc, #704]	; (2210 <setflags_ram+0x48>)
    1f50:	2100      	movs	r1, #0
    1f52:	6001      	str	r1, [r0, #0]
    1f54:	4770      	bx	lr

00001f56 <Dictionary_475>:
    1f56:	00001f7e 	andeq	r1, r0, lr, ror pc
    1f5a:	3a010000 	bcc	41f62 <BIT18+0x1f62>

00001f5e <Code_475>:
    1f5e:	b500      	push	{lr}
    1f60:	48ac      	ldr	r0, [pc, #688]	; (2214 <setflags_ram+0x4c>)
    1f62:	6007      	str	r7, [r0, #0]
    1f64:	f000 fab4 	bl	24d0 <Code_575>
    1f68:	f847 6d04 	str.w	r6, [r7, #-4]!
    1f6c:	f24b 5600 	movw	r6, #46336	; 0xb500
    1f70:	f000 f9ac 	bl	22cc <Code_544>
    1f74:	48a6      	ldr	r0, [pc, #664]	; (2210 <setflags_ram+0x48>)
    1f76:	2100      	movs	r1, #0
    1f78:	43c9      	mvns	r1, r1
    1f7a:	6001      	str	r1, [r0, #0]
    1f7c:	bd00      	pop	{pc}

00001f7e <Dictionary_478>:
    1f7e:	00001fc6 	andeq	r1, r0, r6, asr #31
    1f82:	3b010030 	blcc	4204a <BIT18+0x204a>

00001f86 <Code_478>:
    1f86:	b500      	push	{lr}
    1f88:	48a2      	ldr	r0, [pc, #648]	; (2214 <setflags_ram+0x4c>)
    1f8a:	6801      	ldr	r1, [r0, #0]
    1f8c:	42b9      	cmp	r1, r7
    1f8e:	d00e      	beq.n	1fae <Code_478+0x28>
    1f90:	f7ff fc55 	bl	183e <dotgaensefuesschen>
    1f94:	74532015 	ldrbvc	r2, [r3], #-21
    1f98:	206b6361 	rsbcs	r6, fp, r1, ror #6
    1f9c:	20746f6e 	rsbscs	r6, r4, lr, ror #30
    1fa0:	616c6162 	cmnvs	ip, r2, ror #2
    1fa4:	6465636e 	strbtvs	r6, [r5], #-878	; 0x36e
    1fa8:	f0010a2e 			; <UNDEFINED> instruction: 0xf0010a2e
    1fac:	bb19      	cbnz	r1, 1ff6 <Dictionary_487+0x4>
    1fae:	f847 6d04 	str.w	r6, [r7, #-4]!
    1fb2:	f64b 5600 	movw	r6, #48384	; 0xbd00
    1fb6:	f000 f989 	bl	22cc <Code_544>
    1fba:	f000 f8ca 	bl	2152 <Code_522>
    1fbe:	4894      	ldr	r0, [pc, #592]	; (2210 <setflags_ram+0x48>)
    1fc0:	2100      	movs	r1, #0
    1fc2:	6001      	str	r1, [r0, #0]
    1fc4:	bd00      	pop	{pc}

00001fc6 <Dictionary_482>:
    1fc6:	00001fda 	ldrdeq	r1, [r0], -sl
    1fca:	65070000 	strvs	r0, [r7]
    1fce:	75636578 	strbvc	r6, [r3, #-1400]!	; 0x578
    1fd2:	00306574 	eorseq	r6, r0, r4, ror r5

00001fd4 <Code_482>:
    1fd4:	0030      	movs	r0, r6
    1fd6:	cf40      	ldmia	r7!, {r6}
    1fd8:	4687      	mov	pc, r0

00001fda <Dictionary_484>:
    1fda:	00001ff2 	strdeq	r1, [r0], -r2
    1fde:	69090010 	stmdbvs	r9, {r4}
    1fe2:	64656d6d 	strbtvs	r6, [r5], #-3437	; 0xd6d
    1fe6:	65746169 	ldrbvs	r6, [r4, #-361]!	; 0x169

00001fea <Code_484>:
    1fea:	f847 6d04 	str.w	r6, [r7, #-4]!
    1fee:	2610      	movs	r6, #16
    1ff0:	e0de      	b.n	21b0 <Code_528>

00001ff2 <Dictionary_487>:
    1ff2:	00002008 	andeq	r2, r0, r8
    1ff6:	69060050 	stmdbvs	r6, {r4, r6}
    1ffa:	6e696c6e 	cdpvs	12, 6, cr6, cr9, cr14, {3}
    1ffe:	f8470065 			; <UNDEFINED> instruction: 0xf8470065

00002000 <Code_487>:
    2000:	f847 6d04 	str.w	r6, [r7, #-4]!
    2004:	2620      	movs	r6, #32
    2006:	e0d3      	b.n	21b0 <Code_528>

00002008 <Dictionary_490>:
    2008:	00002022 	andeq	r2, r0, r2, lsr #32
    200c:	630b0010 	movwvs	r0, #45072	; 0xb010
    2010:	69706d6f 	ldmdbvs	r0!, {r0, r1, r2, r3, r5, r6, r8, sl, fp, sp, lr}^
    2014:	6e6f656c 	cdpvs	5, 6, cr6, cr15, cr12, {3}
    2018:	f847796c 			; <UNDEFINED> instruction: 0xf847796c

0000201a <Code_490>:
    201a:	f847 6d04 	str.w	r6, [r7, #-4]!
    201e:	2630      	movs	r6, #48	; 0x30
    2020:	e0c6      	b.n	21b0 <Code_528>

00002022 <Dictionary_493>:
    2022:	0000203c 	andeq	r2, r0, ip, lsr r0
    2026:	300a0050 	andcc	r0, sl, r0, asr r0
    202a:	6c6f662d 	stclvs	6, cr6, [pc], #-180	; 1f7c <Code_475+0x1e>
    202e:	6c626164 	stfvse	f6, [r2], #-400	; 0xfffffe70
    2032:	f8470065 			; <UNDEFINED> instruction: 0xf8470065

00002034 <Code_493>:
    2034:	f847 6d04 	str.w	r6, [r7, #-4]!
    2038:	2640      	movs	r6, #64	; 0x40
    203a:	e0b9      	b.n	21b0 <Code_528>

0000203c <Dictionary_496>:
    203c:	00002056 	andeq	r2, r0, r6, asr r0
    2040:	310a0050 	qaddcc	r0, r0, sl
    2044:	6c6f662d 	stclvs	6, cr6, [pc], #-180	; 1f98 <Code_478+0x12>
    2048:	6c626164 	stfvse	f6, [r2], #-400	; 0xfffffe70
    204c:	f8470065 			; <UNDEFINED> instruction: 0xf8470065

0000204e <Code_496>:
    204e:	f847 6d04 	str.w	r6, [r7, #-4]!
    2052:	2641      	movs	r6, #65	; 0x41
    2054:	e0ac      	b.n	21b0 <Code_528>

00002056 <Dictionary_499>:
    2056:	00002070 	andeq	r2, r0, r0, ror r0
    205a:	320a0050 	andcc	r0, sl, #80	; 0x50
    205e:	6c6f662d 	stclvs	6, cr6, [pc], #-180	; 1fb0 <Code_478+0x2a>
    2062:	6c626164 	stfvse	f6, [r2], #-400	; 0xfffffe70
    2066:	f8470065 			; <UNDEFINED> instruction: 0xf8470065

00002068 <Code_499>:
    2068:	f847 6d04 	str.w	r6, [r7, #-4]!
    206c:	2642      	movs	r6, #66	; 0x42
    206e:	e09f      	b.n	21b0 <Code_528>

00002070 <Dictionary_502>:
    2070:	0000208a 	andeq	r2, r0, sl, lsl #1
    2074:	330a0050 	movwcc	r0, #41040	; 0xa050
    2078:	6c6f662d 	stclvs	6, cr6, [pc], #-180	; 1fcc <Dictionary_482+0x6>
    207c:	6c626164 	stfvse	f6, [r2], #-400	; 0xfffffe70
    2080:	f8470065 			; <UNDEFINED> instruction: 0xf8470065

00002082 <Code_502>:
    2082:	f847 6d04 	str.w	r6, [r7, #-4]!
    2086:	2643      	movs	r6, #67	; 0x43
    2088:	e092      	b.n	21b0 <Code_528>

0000208a <Dictionary_505>:
    208a:	000020a4 	andeq	r2, r0, r4, lsr #1
    208e:	340a0050 	strcc	r0, [sl], #-80	; 0x50
    2092:	6c6f662d 	stclvs	6, cr6, [pc], #-180	; 1fe4 <Dictionary_484+0xa>
    2096:	6c626164 	stfvse	f6, [r2], #-400	; 0xfffffe70
    209a:	f8470065 			; <UNDEFINED> instruction: 0xf8470065

0000209c <Code_505>:
    209c:	f847 6d04 	str.w	r6, [r7, #-4]!
    20a0:	2644      	movs	r6, #68	; 0x44
    20a2:	e085      	b.n	21b0 <Code_528>

000020a4 <Dictionary_508>:
    20a4:	000020be 	strheq	r2, [r0], -lr
    20a8:	350a0050 	strcc	r0, [sl, #-80]	; 0x50
    20ac:	6c6f662d 	stclvs	6, cr6, [pc], #-180	; 2000 <Code_487>
    20b0:	6c626164 	stfvse	f6, [r2], #-400	; 0xfffffe70
    20b4:	f8470065 			; <UNDEFINED> instruction: 0xf8470065

000020b6 <Code_508>:
    20b6:	f847 6d04 	str.w	r6, [r7, #-4]!
    20ba:	2645      	movs	r6, #69	; 0x45
    20bc:	e078      	b.n	21b0 <Code_528>

000020be <Dictionary_511>:
    20be:	000020d8 	ldrdeq	r2, [r0], -r8
    20c2:	360a0050 			; <UNDEFINED> instruction: 0x360a0050
    20c6:	6c6f662d 	stclvs	6, cr6, [pc], #-180	; 2018 <Dictionary_490+0x10>
    20ca:	6c626164 	stfvse	f6, [r2], #-400	; 0xfffffe70
    20ce:	f8470065 			; <UNDEFINED> instruction: 0xf8470065

000020d0 <Code_511>:
    20d0:	f847 6d04 	str.w	r6, [r7, #-4]!
    20d4:	2646      	movs	r6, #70	; 0x46
    20d6:	e06b      	b.n	21b0 <Code_528>

000020d8 <Dictionary_514>:
    20d8:	000020f2 	strdeq	r2, [r0], -r2	; <UNPREDICTABLE>
    20dc:	370a0050 	smlsdcc	sl, r0, r0, r0
    20e0:	6c6f662d 	stclvs	6, cr6, [pc], #-180	; 2034 <Code_493>
    20e4:	6c626164 	stfvse	f6, [r2], #-400	; 0xfffffe70
    20e8:	f8470065 			; <UNDEFINED> instruction: 0xf8470065

000020ea <Code_514>:
    20ea:	f847 6d04 	str.w	r6, [r7, #-4]!
    20ee:	2647      	movs	r6, #71	; 0x47
    20f0:	e05e      	b.n	21b0 <Code_528>

000020f2 <Dictionary_517>:
    20f2:	00002122 	andeq	r2, r0, r2, lsr #2
    20f6:	63080000 	movwvs	r0, #32768	; 0x8000
    20fa:	74736e6f 	ldrbtvc	r6, [r3], #-3695	; 0xe6f
    20fe:	00746e61 	rsbseq	r6, r4, r1, ror #28

00002102 <Code_517>:
    2102:	b500      	push	{lr}
    2104:	f000 f9e4 	bl	24d0 <Code_575>
    2108:	f7ff fe24 	bl	1d54 <Code_434>
    210c:	f847 6d04 	str.w	r6, [r7, #-4]!
    2110:	f244 7670 	movw	r6, #18288	; 0x4770
    2114:	f000 f8da 	bl	22cc <Code_544>
    2118:	f7ff ff8c 	bl	2034 <Code_493>
    211c:	f000 f819 	bl	2152 <Code_522>
    2120:	bd00      	pop	{pc}

00002122 <Dictionary_520>:
    2122:	00002144 	andeq	r2, r0, r4, asr #2
    2126:	32090000 	andcc	r0, r9, #0
    212a:	736e6f63 	cmnvc	lr, #396	; 0x18c
    212e:	746e6174 	strbtvc	r6, [lr], #-372	; 0x174

00002132 <Code_520>:
    2132:	b500      	push	{lr}
    2134:	f000 f9cc 	bl	24d0 <Code_575>
    2138:	6839      	ldr	r1, [r7, #0]
    213a:	603e      	str	r6, [r7, #0]
    213c:	460e      	mov	r6, r1
    213e:	f7ff fe09 	bl	1d54 <Code_434>
    2142:	e7e1      	b.n	2108 <Code_517+0x6>

00002144 <Dictionary_522>:
    2144:	000021a0 	andeq	r2, r0, r0, lsr #3
    2148:	73060000 	movwvc	r0, #24576	; 0x6000
    214c:	6764756d 	strbvs	r7, [r4, -sp, ror #10]!
    2150:	b5000065 	strlt	r0, [r0, #-101]	; 0x65

00002152 <Code_522>:
    2152:	b500      	push	{lr}
    2154:	482a      	ldr	r0, [pc, #168]	; (2200 <setflags_ram+0x38>)
    2156:	6801      	ldr	r1, [r0, #0]
    2158:	4a29      	ldr	r2, [pc, #164]	; (2200 <setflags_ram+0x38>)
    215a:	4291      	cmp	r1, r2
    215c:	d21a      	bcs.n	2194 <smudge_ram>
    215e:	3902      	subs	r1, #2
    2160:	880a      	ldrh	r2, [r1, #0]
    2162:	4b2d      	ldr	r3, [pc, #180]	; (2218 <setflags_ram+0x50>)
    2164:	429a      	cmp	r2, r3
    2166:	d104      	bne.n	2172 <Code_522+0x20>
    2168:	f847 6d04 	str.w	r6, [r7, #-4]!
    216c:	4e2b      	ldr	r6, [pc, #172]	; (221c <setflags_ram+0x54>)
    216e:	f000 f8ad 	bl	22cc <Code_544>
    2172:	f000 f87e 	bl	2272 <Code_535>
    2176:	482a      	ldr	r0, [pc, #168]	; (2220 <setflags_ram+0x58>)
    2178:	6800      	ldr	r0, [r0, #0]
    217a:	f847 6d04 	str.w	r6, [r7, #-4]!
    217e:	0006      	movs	r6, r0
    2180:	4928      	ldr	r1, [pc, #160]	; (2224 <setflags_ram+0x5c>)
    2182:	6809      	ldr	r1, [r1, #0]
    2184:	3104      	adds	r1, #4
    2186:	4a1e      	ldr	r2, [pc, #120]	; (2200 <setflags_ram+0x38>)
    2188:	6813      	ldr	r3, [r2, #0]
    218a:	6011      	str	r1, [r2, #0]
    218c:	f000 f89e 	bl	22cc <Code_544>
    2190:	6013      	str	r3, [r2, #0]
    2192:	bd00      	pop	{pc}

00002194 <smudge_ram>:
    2194:	f000 f86d 	bl	2272 <Code_535>
    2198:	f847 6d04 	str.w	r6, [r7, #-4]!
    219c:	2600      	movs	r6, #0
    219e:	e008      	b.n	21b2 <setflags_intern>

000021a0 <Dictionary_528>:
    21a0:	00002228 	andeq	r2, r0, r8, lsr #4
    21a4:	73080000 	movwvc	r0, #32768	; 0x8000
    21a8:	6c667465 	cfstrdvs	mvd7, [r6], #-404	; 0xfffffe6c
    21ac:	00736761 	rsbseq	r6, r3, r1, ror #14

000021b0 <Code_528>:
    21b0:	b500      	push	{lr}

000021b2 <setflags_intern>:
    21b2:	4813      	ldr	r0, [pc, #76]	; (2200 <setflags_ram+0x38>)
    21b4:	6801      	ldr	r1, [r0, #0]
    21b6:	4a12      	ldr	r2, [pc, #72]	; (2200 <setflags_ram+0x38>)
    21b8:	4291      	cmp	r1, r2
    21ba:	d205      	bcs.n	21c8 <setflags_ram>
    21bc:	4818      	ldr	r0, [pc, #96]	; (2220 <setflags_ram+0x58>)
    21be:	6801      	ldr	r1, [r0, #0]
    21c0:	4331      	orrs	r1, r6
    21c2:	6001      	str	r1, [r0, #0]
    21c4:	cf40      	ldmia	r7!, {r6}
    21c6:	bd00      	pop	{pc}

000021c8 <setflags_ram>:
    21c8:	0032      	movs	r2, r6
    21ca:	cf40      	ldmia	r7!, {r6}
    21cc:	4815      	ldr	r0, [pc, #84]	; (2224 <setflags_ram+0x5c>)
    21ce:	6800      	ldr	r0, [r0, #0]
    21d0:	3004      	adds	r0, #4
    21d2:	8801      	ldrh	r1, [r0, #0]
    21d4:	4b10      	ldr	r3, [pc, #64]	; (2218 <setflags_ram+0x50>)
    21d6:	4299      	cmp	r1, r3
    21d8:	d101      	bne.n	21de <setflags_ram+0x16>
    21da:	0011      	movs	r1, r2
    21dc:	e000      	b.n	21e0 <setflags_ram+0x18>
    21de:	4311      	orrs	r1, r2
    21e0:	8001      	strh	r1, [r0, #0]
    21e2:	bd00      	pop	{pc}
    21e4:	f2400000 	vhadd.s8	d16, d0, d0
    21e8:	f2c00000 	vaddl.s8	q8, d0, d0
    21ec:	f05f0000 			; <UNDEFINED> instruction: 0xf05f0000
    21f0:	f07f0000 			; <UNDEFINED> instruction: 0xf07f0000
    21f4:	ffc00001 			; <UNDEFINED> instruction: 0xffc00001
    21f8:	ffc00000 			; <UNDEFINED> instruction: 0xffc00000
    21fc:	f000f800 			; <UNDEFINED> instruction: 0xf000f800
    2200:	20000000 	andcs	r0, r0, r0
    2204:	20000014 	andcs	r0, r0, r4, lsl r0
    2208:	00001e98 	muleq	r0, r8, lr
    220c:	00001cea 	andeq	r1, r0, sl, ror #25
    2210:	20007fd8 	ldrdcs	r7, [r0], -r8
    2214:	20000010 	andcs	r0, r0, r0, lsl r0
    2218:	0000ffff 	strdeq	pc, [r0], -pc	; <UNPREDICTABLE>
    221c:	00000000 	andeq	r0, r0, r0
    2220:	20000020 	andcs	r0, r0, r0, lsr #32
    2224:	20000004 	andcs	r0, r0, r4

00002228 <Dictionary_531>:
    2228:	00002244 	andeq	r2, r0, r4, asr #4
    222c:	61070041 	tstvs	r7, r1, asr #32
    2230:	6e67696c 	cdpvs	9, 6, cr6, cr7, cr12, {3}
    2234:	20016465 	andcs	r6, r1, r5, ror #8

00002236 <Code_531>:
    2236:	2001      	movs	r0, #1
    2238:	4030      	ands	r0, r6
    223a:	1836      	adds	r6, r6, r0
    223c:	2002      	movs	r0, #2
    223e:	4030      	ands	r0, r6
    2240:	1836      	adds	r6, r6, r0
    2242:	4770      	bx	lr

00002244 <Dictionary_532>:
    2244:	00002266 	andeq	r2, r0, r6, ror #4
    2248:	68060000 	stmdavs	r6, {}	; <UNPREDICTABLE>
    224c:	67696c61 	strbvs	r6, [r9, -r1, ror #24]!
    2250:	4895006e 	ldmmi	r5, {r1, r2, r3, r5, r6}

00002252 <Code_532>:
    2252:	4895      	ldr	r0, [pc, #596]	; (24a8 <Zweitpointertausch+0x4e>)
    2254:	6801      	ldr	r1, [r0, #0]
    2256:	2001      	movs	r0, #1
    2258:	4001      	ands	r1, r0
    225a:	d003      	beq.n	2264 <Code_532+0x12>
    225c:	f847 6d04 	str.w	r6, [r7, #-4]!
    2260:	2600      	movs	r6, #0
    2262:	e019      	b.n	2298 <Code_538>
    2264:	4770      	bx	lr

00002266 <Dictionary_535>:
    2266:	0000228e 	andeq	r2, r0, lr, lsl #5
    226a:	61050000 	mrsvs	r0, (UNDEF: 5)
    226e:	6e67696c 	cdpvs	9, 6, cr6, cr7, cr12, {3}

00002272 <Code_535>:
    2272:	b500      	push	{lr}
    2274:	f7ff ffed 	bl	2252 <Code_532>
    2278:	488b      	ldr	r0, [pc, #556]	; (24a8 <Zweitpointertausch+0x4e>)
    227a:	6801      	ldr	r1, [r0, #0]
    227c:	2002      	movs	r0, #2
    227e:	4001      	ands	r1, r0
    2280:	d004      	beq.n	228c <Code_535+0x1a>
    2282:	f847 6d04 	str.w	r6, [r7, #-4]!
    2286:	2600      	movs	r6, #0
    2288:	f000 f820 	bl	22cc <Code_544>
    228c:	bd00      	pop	{pc}

0000228e <Dictionary_538>:
    228e:	000022c2 	andeq	r2, r0, r2, asr #5
    2292:	63020000 	movwvs	r0, #8192	; 0x2000
    2296:	b500002c 	strlt	r0, [r0, #-44]	; 0x2c

00002298 <Code_538>:
    2298:	b500      	push	{lr}
    229a:	4883      	ldr	r0, [pc, #524]	; (24a8 <Zweitpointertausch+0x4e>)
    229c:	6801      	ldr	r1, [r0, #0]
    229e:	4a82      	ldr	r2, [pc, #520]	; (24a8 <Zweitpointertausch+0x4e>)
    22a0:	4291      	cmp	r1, r2
    22a2:	d205      	bcs.n	22b0 <ckomma_ram>
    22a4:	f847 6d04 	str.w	r6, [r7, #-4]!
    22a8:	000e      	movs	r6, r1
    22aa:	f7fe fef5 	bl	1098 <Code_229>
    22ae:	e002      	b.n	22b6 <ckomma_fertig>

000022b0 <ckomma_ram>:
    22b0:	0032      	movs	r2, r6
    22b2:	cf40      	ldmia	r7!, {r6}
    22b4:	700a      	strb	r2, [r1, #0]

000022b6 <ckomma_fertig>:
    22b6:	f847 6d04 	str.w	r6, [r7, #-4]!
    22ba:	2601      	movs	r6, #1
    22bc:	f000 f871 	bl	23a2 <Code_564>
    22c0:	bd00      	pop	{pc}

000022c2 <Dictionary_544>:
    22c2:	000022f8 	strdeq	r2, [r0], -r8
    22c6:	68020000 	stmdavs	r2, {}	; <UNPREDICTABLE>
    22ca:	b50f002c 	strlt	r0, [pc, #-44]	; 22a6 <Code_538+0xe>

000022cc <Code_544>:
    22cc:	b50f      	push	{r0, r1, r2, r3, lr}
    22ce:	b2b6      	uxth	r6, r6
    22d0:	4875      	ldr	r0, [pc, #468]	; (24a8 <Zweitpointertausch+0x4e>)
    22d2:	6801      	ldr	r1, [r0, #0]
    22d4:	4a74      	ldr	r2, [pc, #464]	; (24a8 <Zweitpointertausch+0x4e>)
    22d6:	4291      	cmp	r1, r2
    22d8:	d205      	bcs.n	22e6 <hkomma_ram>
    22da:	f847 6d04 	str.w	r6, [r7, #-4]!
    22de:	000e      	movs	r6, r1
    22e0:	f7fe feb6 	bl	1050 <Code_226>
    22e4:	e002      	b.n	22ec <hkomma_fertig>

000022e6 <hkomma_ram>:
    22e6:	0032      	movs	r2, r6
    22e8:	cf40      	ldmia	r7!, {r6}
    22ea:	800a      	strh	r2, [r1, #0]

000022ec <hkomma_fertig>:
    22ec:	f847 6d04 	str.w	r6, [r7, #-4]!
    22f0:	2602      	movs	r6, #2
    22f2:	f000 f856 	bl	23a2 <Code_564>
    22f6:	bd0f      	pop	{r0, r1, r2, r3, pc}

000022f8 <Dictionary_550>:
    22f8:	00002312 	andeq	r2, r0, r2, lsl r3
    22fc:	2c010000 	stccs	0, cr0, [r1], {0}

00002300 <Code_550>:
    2300:	b500      	push	{lr}
    2302:	f847 6d04 	str.w	r6, [r7, #-4]!
    2306:	f7ff ffe1 	bl	22cc <Code_544>
    230a:	0c36      	lsrs	r6, r6, #16
    230c:	f7ff ffde 	bl	22cc <Code_544>
    2310:	bd00      	pop	{pc}

00002312 <Dictionary_553>:
    2312:	0000232e 	andeq	r2, r0, lr, lsr #6
    2316:	3e030000 	cdpcc	0, 0, cr0, cr3, cr0, {0}
    231a:	b5002c3c 	strlt	r2, [r0, #-3132]	; 0xc3c

0000231c <Code_553>:
    231c:	b500      	push	{lr}
    231e:	f847 6d04 	str.w	r6, [r7, #-4]!
    2322:	0c36      	lsrs	r6, r6, #16
    2324:	f7ff ffd2 	bl	22cc <Code_544>
    2328:	f7ff ffd0 	bl	22cc <Code_544>
    232c:	bd00      	pop	{pc}

0000232e <Dictionary_556>:
    232e:	00002396 	muleq	r0, r6, r3
    2332:	73070000 	movwvc	r0, #28672	; 0x7000
    2336:	6e697274 	mcrvs	2, 3, r7, cr9, cr4, {3}
    233a:	b5072c67 	strlt	r2, [r7, #-3175]	; 0xc67

0000233c <Code_556>:
    233c:	b507      	push	{r0, r1, r2, lr}
    233e:	21ff      	movs	r1, #255	; 0xff
    2340:	4031      	ands	r1, r6
    2342:	cf40      	ldmia	r7!, {r6}
    2344:	0030      	movs	r0, r6
    2346:	cf40      	ldmia	r7!, {r6}
    2348:	2900      	cmp	r1, #0
    234a:	d105      	bne.n	2358 <Code_556+0x1c>
    234c:	f847 6d04 	str.w	r6, [r7, #-4]!
    2350:	2600      	movs	r6, #0
    2352:	f7ff ffbb 	bl	22cc <Code_544>
    2356:	bd07      	pop	{r0, r1, r2, pc}
    2358:	f847 6d04 	str.w	r6, [r7, #-4]!
    235c:	7806      	ldrb	r6, [r0, #0]
    235e:	0236      	lsls	r6, r6, #8
    2360:	430e      	orrs	r6, r1
    2362:	f7ff ffb3 	bl	22cc <Code_544>
    2366:	3001      	adds	r0, #1
    2368:	3901      	subs	r1, #1
    236a:	2902      	cmp	r1, #2
    236c:	d30a      	bcc.n	2384 <Code_556+0x48>
    236e:	f847 6d04 	str.w	r6, [r7, #-4]!
    2372:	7846      	ldrb	r6, [r0, #1]
    2374:	0236      	lsls	r6, r6, #8
    2376:	7802      	ldrb	r2, [r0, #0]
    2378:	4316      	orrs	r6, r2
    237a:	f7ff ffa7 	bl	22cc <Code_544>
    237e:	3002      	adds	r0, #2
    2380:	3902      	subs	r1, #2
    2382:	e7f2      	b.n	236a <Code_556+0x2e>
    2384:	2900      	cmp	r1, #0
    2386:	d100      	bne.n	238a <Code_556+0x4e>
    2388:	bd07      	pop	{r0, r1, r2, pc}
    238a:	f847 6d04 	str.w	r6, [r7, #-4]!
    238e:	7806      	ldrb	r6, [r0, #0]
    2390:	f7ff ff9c 	bl	22cc <Code_544>
    2394:	bd07      	pop	{r0, r1, r2, pc}

00002396 <Dictionary_564>:
    2396:	000023f0 	strdeq	r2, [r0], -r0
    239a:	61050000 	mrsvs	r0, (UNDEF: 5)
    239e:	746f6c6c 	strbtvc	r6, [pc], #-3180	; 23a6 <Code_564+0x4>

000023a2 <Code_564>:
    23a2:	4841      	ldr	r0, [pc, #260]	; (24a8 <Zweitpointertausch+0x4e>)
    23a4:	6801      	ldr	r1, [r0, #0]
    23a6:	4a40      	ldr	r2, [pc, #256]	; (24a8 <Zweitpointertausch+0x4e>)
    23a8:	4291      	cmp	r1, r2
    23aa:	d20f      	bcs.n	23cc <allot_ram>
    23ac:	0032      	movs	r2, r6
    23ae:	cf40      	ldmia	r7!, {r6}
    23b0:	1889      	adds	r1, r1, r2
    23b2:	4a3e      	ldr	r2, [pc, #248]	; (24ac <Zweitpointertausch+0x52>)
    23b4:	4291      	cmp	r1, r2
    23b6:	d319      	bcc.n	23ec <allot_ok>
    23b8:	f7ff fa41 	bl	183e <dotgaensefuesschen>
    23bc:	616c460b 	cmnvs	ip, fp, lsl #12
    23c0:	66206873 			; <UNDEFINED> instruction: 0x66206873
    23c4:	0a6c6c75 	beq	1b1d5a0 <BIT24+0xb1d5a0>
    23c8:	f001 b90a 	b.w	35e0 <Code_925>

000023cc <allot_ram>:
    23cc:	0032      	movs	r2, r6
    23ce:	cf40      	ldmia	r7!, {r6}
    23d0:	1889      	adds	r1, r1, r2
    23d2:	4a37      	ldr	r2, [pc, #220]	; (24b0 <Zweitpointertausch+0x56>)
    23d4:	6812      	ldr	r2, [r2, #0]
    23d6:	4291      	cmp	r1, r2
    23d8:	d308      	bcc.n	23ec <allot_ok>
    23da:	f7ff fa30 	bl	183e <dotgaensefuesschen>
    23de:	6d615209 	sfmvs	f5, 2, [r1, #-36]!	; 0xffffffdc
    23e2:	6c756620 	ldclvs	6, cr6, [r5], #-128	; 0xffffff80
    23e6:	f0010a6c 			; <UNDEFINED> instruction: 0xf0010a6c
    23ea:	b8fa      			; <UNDEFINED> instruction: 0xb8fa

000023ec <allot_ok>:
    23ec:	6001      	str	r1, [r0, #0]
    23ee:	4770      	bx	lr

000023f0 <Dictionary_569>:
    23f0:	00002418 	andeq	r2, r0, r8, lsl r4
    23f4:	630d0000 	movwvs	r0, #53248	; 0xd000
    23f8:	69706d6f 	ldmdbvs	r0!, {r0, r1, r2, r3, r5, r6, r8, sl, fp, sp, lr}^
    23fc:	6f74656c 	svcvs	0x0074656c
    2400:	3f6d6172 	svccc	0x006d6172

00002404 <Code_569>:
    2404:	f847 6d04 	str.w	r6, [r7, #-4]!
    2408:	2600      	movs	r6, #0
    240a:	4827      	ldr	r0, [pc, #156]	; (24a8 <Zweitpointertausch+0x4e>)
    240c:	6800      	ldr	r0, [r0, #0]
    240e:	4926      	ldr	r1, [pc, #152]	; (24a8 <Zweitpointertausch+0x4e>)
    2410:	4288      	cmp	r0, r1
    2412:	d348      	bcc.n	24a6 <Zweitpointertausch+0x4c>
    2414:	43f6      	mvns	r6, r6
    2416:	4770      	bx	lr

00002418 <Dictionary_572>:
    2418:	00002438 	andeq	r2, r0, r8, lsr r4
    241c:	630c0000 	movwvs	r0, #49152	; 0xc000
    2420:	69706d6f 	ldmdbvs	r0!, {r0, r1, r2, r3, r5, r6, r8, sl, fp, sp, lr}^
    2424:	6f74656c 	svcvs	0x0074656c
    2428:	006d6172 	rsbeq	r6, sp, r2, ror r1

0000242c <Code_572>:
    242c:	481e      	ldr	r0, [pc, #120]	; (24a8 <Zweitpointertausch+0x4e>)
    242e:	6800      	ldr	r0, [r0, #0]
    2430:	491d      	ldr	r1, [pc, #116]	; (24a8 <Zweitpointertausch+0x4e>)
    2432:	4288      	cmp	r0, r1
    2434:	d311      	bcc.n	245a <Zweitpointertausch>
    2436:	4770      	bx	lr

00002438 <Dictionary_573>:
    2438:	000024c0 	andeq	r2, r0, r0, asr #9
    243c:	630e0000 	movwvs	r0, #57344	; 0xe000
    2440:	69706d6f 	ldmdbvs	r0!, {r0, r1, r2, r3, r5, r6, r8, sl, fp, sp, lr}^
    2444:	6f74656c 	svcvs	0x0074656c
    2448:	73616c66 	cmnvc	r1, #26112	; 0x6600
    244c:	48160068 	ldmdami	r6, {r3, r5, r6}

0000244e <Code_573>:
    244e:	4816      	ldr	r0, [pc, #88]	; (24a8 <Zweitpointertausch+0x4e>)
    2450:	6800      	ldr	r0, [r0, #0]
    2452:	4915      	ldr	r1, [pc, #84]	; (24a8 <Zweitpointertausch+0x4e>)
    2454:	4288      	cmp	r0, r1
    2456:	d200      	bcs.n	245a <Zweitpointertausch>
    2458:	4770      	bx	lr

0000245a <Zweitpointertausch>:
    245a:	4816      	ldr	r0, [pc, #88]	; (24b4 <Zweitpointertausch+0x5a>)
    245c:	4916      	ldr	r1, [pc, #88]	; (24b8 <Zweitpointertausch+0x5e>)
    245e:	6802      	ldr	r2, [r0, #0]
    2460:	680b      	ldr	r3, [r1, #0]
    2462:	600a      	str	r2, [r1, #0]
    2464:	6003      	str	r3, [r0, #0]
    2466:	4810      	ldr	r0, [pc, #64]	; (24a8 <Zweitpointertausch+0x4e>)
    2468:	4914      	ldr	r1, [pc, #80]	; (24bc <Zweitpointertausch+0x62>)
    246a:	6802      	ldr	r2, [r0, #0]
    246c:	680b      	ldr	r3, [r1, #0]
    246e:	600a      	str	r2, [r1, #0]
    2470:	6003      	str	r3, [r0, #0]
    2472:	480f      	ldr	r0, [pc, #60]	; (24b0 <Zweitpointertausch+0x56>)
    2474:	6800      	ldr	r0, [r0, #0]
    2476:	4283      	cmp	r3, r0
    2478:	d315      	bcc.n	24a6 <Zweitpointertausch+0x4c>
    247a:	b500      	push	{lr}
    247c:	f7ff f9df 	bl	183e <dotgaensefuesschen>
    2480:	61562023 	cmpvs	r6, r3, lsr #32
    2484:	62616972 	rsbvs	r6, r1, #1867776	; 0x1c8000
    2488:	2073656c 	rsbscs	r6, r3, ip, ror #10
    248c:	6c6c6f63 	stclvs	15, cr6, [ip], #-396	; 0xfffffe74
    2490:	20656469 	rsbcs	r6, r5, r9, ror #8
    2494:	68746977 	ldmdavs	r4!, {r0, r1, r2, r4, r5, r6, r8, fp, sp, lr}^
    2498:	63696420 	cmnvs	r9, #536870912	; 0x20000000
    249c:	6e6f6974 	mcrvs	9, 3, r6, cr15, cr4, {3}
    24a0:	0a797261 	beq	1e5ee2c <BIT24+0xe5ee2c>
    24a4:	bd00      	pop	{pc}
    24a6:	4770      	bx	lr
    24a8:	20000000 	andcs	r0, r0, r0
    24ac:	00040000 	andeq	r0, r4, r0
    24b0:	20000024 	andcs	r0, r0, r4, lsr #32
    24b4:	20000004 	andcs	r0, r0, r4
    24b8:	2000001c 	andcs	r0, r0, ip, lsl r0
    24bc:	20000018 	andcs	r0, r0, r8, lsl r0

000024c0 <Dictionary_575>:
    24c0:	000025ae 	andeq	r2, r0, lr, lsr #11
    24c4:	28080000 	stmdacs	r8, {}	; <UNPREDICTABLE>
    24c8:	61657263 	cmnvs	r5, r3, ror #4
    24cc:	00296574 	eoreq	r6, r9, r4, ror r5

000024d0 <Code_575>:
    24d0:	b500      	push	{lr}
    24d2:	f000 fcfd 	bl	2ed0 <Code_798>
    24d6:	2e00      	cmp	r6, #0
    24d8:	d10e      	bne.n	24f8 <Code_575+0x28>
    24da:	f7ff f9b0 	bl	183e <dotgaensefuesschen>
    24de:	72432015 	subvc	r2, r3, #21
    24e2:	65746165 	ldrbvs	r6, [r4, #-357]!	; 0x165
    24e6:	65656e20 	strbvs	r6, [r5, #-3616]!	; 0xe20
    24ea:	6e207364 	cdpvs	3, 2, cr7, cr0, cr4, {3}
    24ee:	20656d61 	rsbcs	r6, r5, r1, ror #26
    24f2:	f0010a21 			; <UNDEFINED> instruction: 0xf0010a21
    24f6:	b874      			; <UNDEFINED> instruction: 0xb874
    24f8:	6838      	ldr	r0, [r7, #0]
    24fa:	f847 6d04 	str.w	r6, [r7, #-4]!
    24fe:	3f04      	subs	r7, #4
    2500:	6038      	str	r0, [r7, #0]
    2502:	f000 f9a0 	bl	2846 <Code_638>
    2506:	cf40      	ldmia	r7!, {r6}
    2508:	2e00      	cmp	r6, #0
    250a:	cf40      	ldmia	r7!, {r6}
    250c:	d011      	beq.n	2532 <Code_575+0x62>
    250e:	6838      	ldr	r0, [r7, #0]
    2510:	f847 6d04 	str.w	r6, [r7, #-4]!
    2514:	3f04      	subs	r7, #4
    2516:	6038      	str	r0, [r7, #0]
    2518:	f7ff f991 	bl	183e <dotgaensefuesschen>
    251c:	64655209 	strbtvs	r5, [r5], #-521	; 0x209
    2520:	6e696665 	cdpvs	6, 6, cr6, cr9, cr5, {3}
    2524:	f7ff2065 			; <UNDEFINED> instruction: 0xf7ff2065
    2528:	f9e6 f7ff 	vld4.16	{d31[3],d33[3],d35[3],d37[3]}, [r6 :64]
    252c:	f988 2e02 	vst3.<illegal width 64>	{d2[0],d3[0],d4[0]}, [r8], r2
    2530:	f7ff000a 			; <UNDEFINED> instruction: 0xf7ff000a
    2534:	fe8e f7ff 	mcr2	7, 4, pc, cr14, cr15, {7}	; <UNPREDICTABLE>
    2538:	fe9c f000 	cdp2	0, 9, cr15, cr12, cr0, {0}
    253c:	fa0d 488e 			; <UNDEFINED> instruction: 0xfa0d488e
    2540:	6800      	ldr	r0, [r0, #0]
    2542:	498d      	ldr	r1, [pc, #564]	; (2778 <rambuffer_ram+0x44>)
    2544:	4288      	cmp	r0, r1
    2546:	d21c      	bcs.n	2582 <create_ram>
    2548:	488c      	ldr	r0, [pc, #560]	; (277c <rambuffer_ram+0x48>)
    254a:	2100      	movs	r1, #0
    254c:	6001      	str	r1, [r0, #0]
    254e:	f847 6d04 	str.w	r6, [r7, #-4]!
    2552:	2606      	movs	r6, #6
    2554:	f7ff ff25 	bl	23a2 <Code_564>
    2558:	f7fe f9e7 	bl	92a <Code_133>
    255c:	f7ff feee 	bl	233c <Code_556>
    2560:	4887      	ldr	r0, [pc, #540]	; (2780 <rambuffer_ram+0x4c>)
    2562:	6801      	ldr	r1, [r0, #0]
    2564:	680a      	ldr	r2, [r1, #0]
    2566:	4b87      	ldr	r3, [pc, #540]	; (2784 <rambuffer_ram+0x50>)
    2568:	429a      	cmp	r2, r3
    256a:	d107      	bne.n	257c <Code_575+0xac>
    256c:	4a82      	ldr	r2, [pc, #520]	; (2778 <rambuffer_ram+0x44>)
    256e:	6813      	ldr	r3, [r2, #0]
    2570:	6011      	str	r1, [r2, #0]
    2572:	f847 6d04 	str.w	r6, [r7, #-4]!
    2576:	f7ff fec3 	bl	2300 <Code_550>
    257a:	6013      	str	r3, [r2, #0]
    257c:	6006      	str	r6, [r0, #0]
    257e:	cf40      	ldmia	r7!, {r6}
    2580:	e010      	b.n	25a4 <create_ende>

00002582 <create_ram>:
    2582:	487f      	ldr	r0, [pc, #508]	; (2780 <rambuffer_ram+0x4c>)
    2584:	f847 6d04 	str.w	r6, [r7, #-4]!
    2588:	6806      	ldr	r6, [r0, #0]
    258a:	f7ff feb9 	bl	2300 <Code_550>
    258e:	f847 6d04 	str.w	r6, [r7, #-4]!
    2592:	4e7d      	ldr	r6, [pc, #500]	; (2788 <rambuffer_ram+0x54>)
    2594:	f7ff fe9a 	bl	22cc <Code_544>
    2598:	4879      	ldr	r0, [pc, #484]	; (2780 <rambuffer_ram+0x4c>)
    259a:	0031      	movs	r1, r6
    259c:	cf40      	ldmia	r7!, {r6}
    259e:	6001      	str	r1, [r0, #0]
    25a0:	f7ff fecc 	bl	233c <Code_556>

000025a4 <create_ende>:
    25a4:	4874      	ldr	r0, [pc, #464]	; (2778 <rambuffer_ram+0x44>)
    25a6:	6801      	ldr	r1, [r0, #0]
    25a8:	4878      	ldr	r0, [pc, #480]	; (278c <rambuffer_ram+0x58>)
    25aa:	6001      	str	r1, [r0, #0]
    25ac:	bd00      	pop	{pc}

000025ae <Dictionary_593>:
    25ae:	000025c6 	andeq	r2, r0, r6, asr #11
    25b2:	76080000 	strvc	r0, [r8], -r0
    25b6:	61697261 	cmnvs	r9, r1, ror #4
    25ba:	00656c62 	rsbeq	r6, r5, r2, ror #24

000025be <Code_593>:
    25be:	f847 6d04 	str.w	r6, [r7, #-4]!
    25c2:	2601      	movs	r6, #1
    25c4:	e013      	b.n	25ee <Code_599>

000025c6 <Dictionary_596>:
    25c6:	000025de 	ldrdeq	r2, [r0], -lr
    25ca:	32090000 	andcc	r0, r9, #0
    25ce:	69726176 	ldmdbvs	r2!, {r1, r2, r4, r5, r6, r8, sp, lr}^
    25d2:	656c6261 	strbvs	r6, [ip, #-609]!	; 0x261

000025d6 <Code_596>:
    25d6:	f847 6d04 	str.w	r6, [r7, #-4]!
    25da:	2602      	movs	r6, #2
    25dc:	e007      	b.n	25ee <Code_599>

000025de <Dictionary_599>:
    25de:	000026b8 			; <UNDEFINED> instruction: 0x000026b8
    25e2:	6e090000 	cdpvs	0, 0, cr0, cr9, cr0, {0}
    25e6:	69726176 	ldmdbvs	r2!, {r1, r2, r4, r5, r6, r8, sp, lr}^
    25ea:	656c6261 	strbvs	r6, [ip, #-609]!	; 0x261

000025ee <Code_599>:
    25ee:	b500      	push	{lr}
    25f0:	f7ff ff6e 	bl	24d0 <Code_575>
    25f4:	4860      	ldr	r0, [pc, #384]	; (2778 <rambuffer_ram+0x44>)
    25f6:	6801      	ldr	r1, [r0, #0]
    25f8:	4a5f      	ldr	r2, [pc, #380]	; (2778 <rambuffer_ram+0x44>)
    25fa:	4291      	cmp	r1, r2
    25fc:	d234      	bcs.n	2668 <variable_ram>
    25fe:	200f      	movs	r0, #15
    2600:	4006      	ands	r6, r0
    2602:	00b2      	lsls	r2, r6, #2
    2604:	4862      	ldr	r0, [pc, #392]	; (2790 <rambuffer_ram+0x5c>)
    2606:	6801      	ldr	r1, [r0, #0]
    2608:	1a89      	subs	r1, r1, r2
    260a:	4a62      	ldr	r2, [pc, #392]	; (2794 <rambuffer_ram+0x60>)
    260c:	4291      	cmp	r1, r2
    260e:	d20b      	bcs.n	2628 <Code_599+0x3a>
    2610:	f7ff f915 	bl	183e <dotgaensefuesschen>
    2614:	746f4e0f 	strbtvc	r4, [pc], #-3599	; 261c <Code_599+0x2e>
    2618:	6f6e6520 	svcvs	0x006e6520
    261c:	20686775 	rsbcs	r6, r8, r5, ror r7
    2620:	0a4d4152 	beq	1352b70 <BIT24+0x352b70>
    2624:	f000 bfdc 	b.w	35e0 <Code_925>
    2628:	6001      	str	r1, [r0, #0]
    262a:	f847 6d04 	str.w	r6, [r7, #-4]!
    262e:	000e      	movs	r6, r1
    2630:	f7ff fb90 	bl	1d54 <Code_434>
    2634:	f847 6d04 	str.w	r6, [r7, #-4]!
    2638:	f244 7670 	movw	r6, #18288	; 0x4770
    263c:	f7ff fe46 	bl	22cc <Code_544>
    2640:	0030      	movs	r0, r6
    2642:	cf40      	ldmia	r7!, {r6}
    2644:	0002      	movs	r2, r0
    2646:	2800      	cmp	r0, #0
    2648:	d005      	beq.n	2656 <Code_599+0x68>
    264a:	600e      	str	r6, [r1, #0]
    264c:	3104      	adds	r1, #4
    264e:	f7ff fe57 	bl	2300 <Code_550>
    2652:	3801      	subs	r0, #1
    2654:	d1f9      	bne.n	264a <Code_599+0x5c>
    2656:	f847 6d04 	str.w	r6, [r7, #-4]!
    265a:	2680      	movs	r6, #128	; 0x80
    265c:	4316      	orrs	r6, r2
    265e:	f7ff fda7 	bl	21b0 <Code_528>
    2662:	f7ff fd76 	bl	2152 <Code_522>
    2666:	bd00      	pop	{pc}

00002668 <variable_ram>:
    2668:	f000 f976 	bl	2958 <Code_660>
    266c:	2002      	movs	r0, #2
    266e:	4006      	ands	r6, r0
    2670:	cf40      	ldmia	r7!, {r6}
    2672:	d104      	bne.n	267e <variable_ram+0x16>
    2674:	f847 6d04 	str.w	r6, [r7, #-4]!
    2678:	2636      	movs	r6, #54	; 0x36
    267a:	f7ff fe27 	bl	22cc <Code_544>
    267e:	f847 6d04 	str.w	r6, [r7, #-4]!
    2682:	4e45      	ldr	r6, [pc, #276]	; (2798 <rambuffer_ram+0x64>)
    2684:	f7ff fe4a 	bl	231c <Code_553>
    2688:	f847 6d04 	str.w	r6, [r7, #-4]!
    268c:	4e43      	ldr	r6, [pc, #268]	; (279c <rambuffer_ram+0x68>)
    268e:	f7ff fe45 	bl	231c <Code_553>
    2692:	f847 6d04 	str.w	r6, [r7, #-4]!
    2696:	f244 7670 	movw	r6, #18288	; 0x4770
    269a:	f7ff fe17 	bl	22cc <Code_544>
    269e:	0030      	movs	r0, r6
    26a0:	cf40      	ldmia	r7!, {r6}
    26a2:	2800      	cmp	r0, #0
    26a4:	d003      	beq.n	26ae <variable_ram+0x46>
    26a6:	f7ff fe2b 	bl	2300 <Code_550>
    26aa:	3801      	subs	r0, #1
    26ac:	d1fb      	bne.n	26a6 <variable_ram+0x3e>
    26ae:	f7ff fcc1 	bl	2034 <Code_493>
    26b2:	f7ff fd4e 	bl	2152 <Code_522>
    26b6:	bd00      	pop	{pc}

000026b8 <Dictionary_616>:
    26b8:	000027a0 	andeq	r2, r0, r0, lsr #15
    26bc:	62070000 	andvs	r0, r7, #0
    26c0:	65666675 	strbvs	r6, [r6, #-1653]!	; 0x675
    26c4:	b5003a72 	strlt	r3, [r0, #-2674]	; 0xa72

000026c6 <Code_616>:
    26c6:	b500      	push	{lr}
    26c8:	f7ff ff02 	bl	24d0 <Code_575>
    26cc:	2001      	movs	r0, #1
    26ce:	4030      	ands	r0, r6
    26d0:	1836      	adds	r6, r6, r0
    26d2:	2002      	movs	r0, #2
    26d4:	4030      	ands	r0, r6
    26d6:	1836      	adds	r6, r6, r0
    26d8:	4827      	ldr	r0, [pc, #156]	; (2778 <rambuffer_ram+0x44>)
    26da:	6801      	ldr	r1, [r0, #0]
    26dc:	4a26      	ldr	r2, [pc, #152]	; (2778 <rambuffer_ram+0x44>)
    26de:	4291      	cmp	r1, r2
    26e0:	d228      	bcs.n	2734 <rambuffer_ram>
    26e2:	482b      	ldr	r0, [pc, #172]	; (2790 <rambuffer_ram+0x5c>)
    26e4:	6801      	ldr	r1, [r0, #0]
    26e6:	1b89      	subs	r1, r1, r6
    26e8:	4a2a      	ldr	r2, [pc, #168]	; (2794 <rambuffer_ram+0x60>)
    26ea:	4291      	cmp	r1, r2
    26ec:	d20b      	bcs.n	2706 <Code_616+0x40>
    26ee:	f7ff f8a6 	bl	183e <dotgaensefuesschen>
    26f2:	746f4e0f 	strbtvc	r4, [pc], #-3599	; 26fa <Code_616+0x34>
    26f6:	6f6e6520 	svcvs	0x006e6520
    26fa:	20686775 	rsbcs	r6, r8, r5, ror r7
    26fe:	0a4d4152 	beq	1352c4e <BIT24+0x352c4e>
    2702:	f000 bf6d 	b.w	35e0 <Code_925>
    2706:	6001      	str	r1, [r0, #0]
    2708:	f847 6d04 	str.w	r6, [r7, #-4]!
    270c:	000e      	movs	r6, r1
    270e:	f7ff fb21 	bl	1d54 <Code_434>
    2712:	f847 6d04 	str.w	r6, [r7, #-4]!
    2716:	f244 7670 	movw	r6, #18288	; 0x4770
    271a:	f7ff fdd7 	bl	22cc <Code_544>
    271e:	f7ff fdef 	bl	2300 <Code_550>
    2722:	f847 6d04 	str.w	r6, [r7, #-4]!
    2726:	f240 1640 	movw	r6, #320	; 0x140
    272a:	f7ff fd41 	bl	21b0 <Code_528>
    272e:	f7ff fd10 	bl	2152 <Code_522>
    2732:	bd00      	pop	{pc}

00002734 <rambuffer_ram>:
    2734:	f000 f910 	bl	2958 <Code_660>
    2738:	2002      	movs	r0, #2
    273a:	4006      	ands	r6, r0
    273c:	cf40      	ldmia	r7!, {r6}
    273e:	d104      	bne.n	274a <rambuffer_ram+0x16>
    2740:	f847 6d04 	str.w	r6, [r7, #-4]!
    2744:	2636      	movs	r6, #54	; 0x36
    2746:	f7ff fdc1 	bl	22cc <Code_544>
    274a:	f847 6d04 	str.w	r6, [r7, #-4]!
    274e:	4e12      	ldr	r6, [pc, #72]	; (2798 <rambuffer_ram+0x64>)
    2750:	f7ff fde4 	bl	231c <Code_553>
    2754:	f847 6d04 	str.w	r6, [r7, #-4]!
    2758:	4e10      	ldr	r6, [pc, #64]	; (279c <rambuffer_ram+0x68>)
    275a:	f7ff fddf 	bl	231c <Code_553>
    275e:	f847 6d04 	str.w	r6, [r7, #-4]!
    2762:	f244 7670 	movw	r6, #18288	; 0x4770
    2766:	f7ff fdb1 	bl	22cc <Code_544>
    276a:	f7ff fe1a 	bl	23a2 <Code_564>
    276e:	f7ff fc61 	bl	2034 <Code_493>
    2772:	f7ff fcee 	bl	2152 <Code_522>
    2776:	bd00      	pop	{pc}
    2778:	20000000 	andcs	r0, r0, r0
    277c:	20000020 	andcs	r0, r0, r0, lsr #32
    2780:	20000004 	andcs	r0, r0, r4
    2784:	ffffffff 			; <UNDEFINED> instruction: 0xffffffff
    2788:	0000ffff 	strdeq	pc, [r0], -pc	; <UNPREDICTABLE>
    278c:	20000014 	andcs	r0, r0, r4, lsl r0
    2790:	20000024 	andcs	r0, r0, r4, lsr #32
    2794:	20000330 	andcs	r0, r0, r0, lsr r3
    2798:	3f04603e 	svccc	0x0004603e
    279c:	467e3602 	ldrbtmi	r3, [lr], -r2, lsl #12

000027a0 <Dictionary_631>:
    27a0:	000027ce 	andeq	r2, r0, lr, asr #15
    27a4:	640f0000 	strvs	r0, [pc], #0	; 27ac <Dictionary_631+0xc>
    27a8:	69746369 	ldmdbvs	r4!, {r0, r3, r5, r6, r8, r9, sp, lr}^
    27ac:	72616e6f 	rsbvc	r6, r1, #1776	; 0x6f0
    27b0:	61747379 	cmnvs	r4, r9, ror r3
    27b4:	48ea7472 	stmiami	sl!, {r1, r4, r5, r6, sl, ip, sp, lr}^

000027b6 <Code_631>:
    27b6:	48ea      	ldr	r0, [pc, #936]	; (2b60 <Code_707+0xe>)
    27b8:	6800      	ldr	r0, [r0, #0]
    27ba:	49e9      	ldr	r1, [pc, #932]	; (2b60 <Code_707+0xe>)
    27bc:	f847 6d04 	str.w	r6, [r7, #-4]!
    27c0:	4288      	cmp	r0, r1
    27c2:	d201      	bcs.n	27c8 <Code_631+0x12>
    27c4:	4ee7      	ldr	r6, [pc, #924]	; (2b64 <Code_707+0x12>)
    27c6:	4770      	bx	lr
    27c8:	4ee7      	ldr	r6, [pc, #924]	; (2b68 <Code_707+0x16>)
    27ca:	6836      	ldr	r6, [r6, #0]
    27cc:	4770      	bx	lr

000027ce <Dictionary_633>:
    27ce:	00002808 	andeq	r2, r0, r8, lsl #16
    27d2:	640e0000 	strvs	r0, [lr]
    27d6:	69746369 	ldmdbvs	r4!, {r0, r3, r5, r6, r8, r9, sp, lr}^
    27da:	72616e6f 	rsbvc	r6, r1, #1776	; 0x6f0
    27de:	78656e79 	stmdavc	r5!, {r0, r3, r4, r5, r6, r9, sl, fp, sp, lr}^
    27e2:	b5030074 	strlt	r0, [r3, #-116]	; 0x74

000027e4 <Code_633>:
    27e4:	b503      	push	{r0, r1, lr}
    27e6:	6831      	ldr	r1, [r6, #0]
    27e8:	48e0      	ldr	r0, [pc, #896]	; (2b6c <Code_707+0x1a>)
    27ea:	4281      	cmp	r1, r0
    27ec:	d007      	beq.n	27fe <Code_633+0x1a>
    27ee:	7988      	ldrb	r0, [r1, #6]
    27f0:	28ff      	cmp	r0, #255	; 0xff
    27f2:	d004      	beq.n	27fe <Code_633+0x1a>
    27f4:	000e      	movs	r6, r1
    27f6:	f847 6d04 	str.w	r6, [r7, #-4]!
    27fa:	2600      	movs	r6, #0
    27fc:	bd03      	pop	{r0, r1, pc}
    27fe:	f847 6d04 	str.w	r6, [r7, #-4]!
    2802:	2600      	movs	r6, #0
    2804:	43f6      	mvns	r6, r6
    2806:	bd03      	pop	{r0, r1, pc}

00002808 <Dictionary_637>:
    2808:	0000283a 	andeq	r2, r0, sl, lsr r8
    280c:	730a0000 	movwvc	r0, #40960	; 0xa000
    2810:	7370696b 	cmnvc	r0, #1753088	; 0x1ac000
    2814:	6e697274 	mcrvs	2, 3, r7, cr9, cr4, {3}
    2818:	78310067 	ldmdavc	r1!, {r0, r1, r2, r5, r6}

0000281a <Code_637>:
    281a:	7831      	ldrb	r1, [r6, #0]
    281c:	3101      	adds	r1, #1
    281e:	2201      	movs	r2, #1
    2820:	400a      	ands	r2, r1
    2822:	1889      	adds	r1, r1, r2
    2824:	1876      	adds	r6, r6, r1
    2826:	4770      	bx	lr

00002828 <skipstring>:
    2828:	b406      	push	{r1, r2}
    282a:	7801      	ldrb	r1, [r0, #0]
    282c:	3101      	adds	r1, #1
    282e:	2201      	movs	r2, #1
    2830:	400a      	ands	r2, r1
    2832:	1889      	adds	r1, r1, r2
    2834:	1840      	adds	r0, r0, r1
    2836:	bc06      	pop	{r1, r2}
    2838:	4770      	bx	lr

0000283a <Dictionary_638>:
    283a:	000028ba 			; <UNDEFINED> instruction: 0x000028ba
    283e:	66040000 	strvs	r0, [r4], -r0
    2842:	00646e69 	rsbeq	r6, r4, r9, ror #28

00002846 <Code_638>:
    2846:	b53f      	push	{r0, r1, r2, r3, r4, r5, lr}
    2848:	2200      	movs	r2, #0
    284a:	2300      	movs	r3, #0
    284c:	0035      	movs	r5, r6
    284e:	cf40      	ldmia	r7!, {r6}
    2850:	0034      	movs	r4, r6
    2852:	cf40      	ldmia	r7!, {r6}
    2854:	f7ff ffaf 	bl	27b6 <Code_631>
    2858:	48c5      	ldr	r0, [pc, #788]	; (2b70 <Code_707+0x1e>)
    285a:	88b1      	ldrh	r1, [r6, #4]
    285c:	4288      	cmp	r0, r1
    285e:	d017      	beq.n	2890 <Code_638+0x4a>
    2860:	f847 6d04 	str.w	r6, [r7, #-4]!
    2864:	3606      	adds	r6, #6
    2866:	f7ff f826 	bl	18b6 <Code_361>
    286a:	f847 6d04 	str.w	r6, [r7, #-4]!
    286e:	0026      	movs	r6, r4
    2870:	f847 6d04 	str.w	r6, [r7, #-4]!
    2874:	002e      	movs	r6, r5
    2876:	f7fe ff58 	bl	172a <Code_323>
    287a:	2e00      	cmp	r6, #0
    287c:	cf40      	ldmia	r7!, {r6}
    287e:	d007      	beq.n	2890 <Code_638+0x4a>
    2880:	1db0      	adds	r0, r6, #6
    2882:	f7ff ffd1 	bl	2828 <skipstring>
    2886:	0002      	movs	r2, r0
    2888:	000b      	movs	r3, r1
    288a:	48b5      	ldr	r0, [pc, #724]	; (2b60 <Code_707+0xe>)
    288c:	4282      	cmp	r2, r0
    288e:	d204      	bcs.n	289a <Code_638+0x54>
    2890:	f7ff ffa8 	bl	27e4 <Code_633>
    2894:	0030      	movs	r0, r6
    2896:	cf40      	ldmia	r7!, {r6}
    2898:	d0de      	beq.n	2858 <Code_638+0x12>
    289a:	0016      	movs	r6, r2
    289c:	f847 6d04 	str.w	r6, [r7, #-4]!
    28a0:	001e      	movs	r6, r3
    28a2:	bd3f      	pop	{r0, r1, r2, r3, r4, r5, pc}

000028a4 <find_not_found>:
    28a4:	b500      	push	{lr}
    28a6:	0031      	movs	r1, r6
    28a8:	6838      	ldr	r0, [r7, #0]
    28aa:	f7ff ffcc 	bl	2846 <Code_638>
    28ae:	683a      	ldr	r2, [r7, #0]
    28b0:	2a00      	cmp	r2, #0
    28b2:	d101      	bne.n	28b8 <find_not_found+0x14>
    28b4:	f000 fd66 	bl	3384 <not_found_addr_r0_len_r1>
    28b8:	bd00      	pop	{pc}

000028ba <Dictionary_651>:
    28ba:	00002914 	andeq	r2, r0, r4, lsl r9
    28be:	63060000 	movwvs	r0, #24576	; 0x6000
    28c2:	706d756a 	rsbvc	r7, sp, sl, ror #10
    28c6:	0032002c 	eorseq	r0, r2, ip, lsr #32

000028c8 <Code_651>:
    28c8:	0032      	movs	r2, r6
    28ca:	cf40      	ldmia	r7!, {r6}
    28cc:	0031      	movs	r1, r6
    28ce:	cf40      	ldmia	r7!, {r6}
    28d0:	1b8b      	subs	r3, r1, r6
    28d2:	3b04      	subs	r3, #4
    28d4:	49a7      	ldr	r1, [pc, #668]	; (2b74 <Code_707+0x22>)
    28d6:	4019      	ands	r1, r3
    28d8:	2900      	cmp	r1, #0
    28da:	d00d      	beq.n	28f8 <jump_too_far+0x16>
    28dc:	48a6      	ldr	r0, [pc, #664]	; (2b78 <Code_707+0x26>)
    28de:	4281      	cmp	r1, r0
    28e0:	d00a      	beq.n	28f8 <jump_too_far+0x16>

000028e2 <jump_too_far>:
    28e2:	f7fe ffac 	bl	183e <dotgaensefuesschen>
    28e6:	6d754a0d 	vldmdbvs	r5!, {s9-s21}
    28ea:	6f742070 	svcvs	0x00742070
    28ee:	6166206f 	cmnvs	r6, pc, rrx
    28f2:	f0000a72 			; <UNDEFINED> instruction: 0xf0000a72
    28f6:	be74      	bkpt	0x0074
    28f8:	105b      	asrs	r3, r3, #1
    28fa:	21ff      	movs	r1, #255	; 0xff
    28fc:	400b      	ands	r3, r1
    28fe:	4313      	orrs	r3, r2
    2900:	0030      	movs	r0, r6
    2902:	001e      	movs	r6, r3

00002904 <sprungbefehl_einfuegen>:
    2904:	b500      	push	{lr}
    2906:	4a96      	ldr	r2, [pc, #600]	; (2b60 <Code_707+0xe>)
    2908:	6813      	ldr	r3, [r2, #0]
    290a:	6010      	str	r0, [r2, #0]
    290c:	f7ff fcde 	bl	22cc <Code_544>
    2910:	6013      	str	r3, [r2, #0]
    2912:	bd00      	pop	{pc}

00002914 <Dictionary_655>:
    2914:	0000294c 	andeq	r2, r0, ip, asr #18
    2918:	6a050000 	bvs	142920 <BIT20+0x42920>
    291c:	2c706d75 	ldclcs	13, cr6, [r0], #-468	; 0xfffffe2c

00002920 <Code_655>:
    2920:	0031      	movs	r1, r6
    2922:	cf40      	ldmia	r7!, {r6}
    2924:	0030      	movs	r0, r6
    2926:	cf40      	ldmia	r7!, {r6}
    2928:	1a0b      	subs	r3, r1, r0
    292a:	3b04      	subs	r3, #4
    292c:	4993      	ldr	r1, [pc, #588]	; (2b7c <Code_707+0x2a>)
    292e:	4019      	ands	r1, r3
    2930:	2900      	cmp	r1, #0
    2932:	d002      	beq.n	293a <Code_655+0x1a>
    2934:	4a92      	ldr	r2, [pc, #584]	; (2b80 <Code_707+0x2e>)
    2936:	4291      	cmp	r1, r2
    2938:	d1d3      	bne.n	28e2 <jump_too_far>
    293a:	105b      	asrs	r3, r3, #1
    293c:	4a91      	ldr	r2, [pc, #580]	; (2b84 <Code_707+0x32>)
    293e:	4013      	ands	r3, r2
    2940:	f453 4360 	orrs.w	r3, r3, #57344	; 0xe000
    2944:	f847 6d04 	str.w	r6, [r7, #-4]!
    2948:	001e      	movs	r6, r3
    294a:	e7db      	b.n	2904 <sprungbefehl_einfuegen>

0000294c <Dictionary_660>:
    294c:	00002962 	andeq	r2, r0, r2, ror #18
    2950:	68040000 	stmdavs	r4, {}	; <UNPREDICTABLE>
    2954:	00657265 	rsbeq	r7, r5, r5, ror #4

00002958 <Code_660>:
    2958:	f847 6d04 	str.w	r6, [r7, #-4]!
    295c:	4e80      	ldr	r6, [pc, #512]	; (2b60 <Code_707+0xe>)
    295e:	6836      	ldr	r6, [r6, #0]
    2960:	4770      	bx	lr

00002962 <Dictionary_662>:
    2962:	00002a5e 	andeq	r2, r0, lr, asr sl
    2966:	660d0000 	strvs	r0, [sp], -r0
    296a:	6873616c 	ldmdavs	r3!, {r2, r3, r5, r6, r8, sp, lr}^
    296e:	2d726176 	ldfcse	f6, [r2, #-472]!	; 0xfffffe28
    2972:	65726568 	ldrbvs	r6, [r2, #-1384]!	; 0x568

00002976 <Code_662>:
    2976:	f847 6d04 	str.w	r6, [r7, #-4]!
    297a:	4e83      	ldr	r6, [pc, #524]	; (2b88 <Code_707+0x36>)
    297c:	6836      	ldr	r6, [r6, #0]
    297e:	4770      	bx	lr

00002980 <nullprobekomma>:
    2980:	b500      	push	{lr}
    2982:	f847 6d04 	str.w	r6, [r7, #-4]!
    2986:	f642 6600 	movw	r6, #11776	; 0x2e00
    298a:	f7ff fc9f 	bl	22cc <Code_544>
    298e:	f847 6d04 	str.w	r6, [r7, #-4]!
    2992:	f64c 7640 	movw	r6, #53056	; 0xcf40
    2996:	f7ff fc99 	bl	22cc <Code_544>
    299a:	bd00      	pop	{pc}

0000299c <branch_r>:
    299c:	e7dc      	b.n	2958 <Code_660>

0000299e <r_branch_jne>:
    299e:	b500      	push	{lr}
    29a0:	f000 f83a 	bl	2a18 <branch_v>
    29a4:	6839      	ldr	r1, [r7, #0]
    29a6:	603e      	str	r6, [r7, #0]
    29a8:	460e      	mov	r6, r1
    29aa:	f847 6d04 	str.w	r6, [r7, #-4]!
    29ae:	f24d 1600 	movw	r6, #53504	; 0xd100
    29b2:	f7ff ff89 	bl	28c8 <Code_651>
    29b6:	bd00      	pop	{pc}

000029b8 <r_branch_jvc>:
    29b8:	b500      	push	{lr}
    29ba:	f000 f82d 	bl	2a18 <branch_v>
    29be:	6839      	ldr	r1, [r7, #0]
    29c0:	603e      	str	r6, [r7, #0]
    29c2:	460e      	mov	r6, r1
    29c4:	f847 6d04 	str.w	r6, [r7, #-4]!
    29c8:	f24d 7600 	movw	r6, #55040	; 0xd700
    29cc:	f7ff ff7c 	bl	28c8 <Code_651>
    29d0:	bd00      	pop	{pc}

000029d2 <r_nullbranch>:
    29d2:	b500      	push	{lr}
    29d4:	f7ff ffd4 	bl	2980 <nullprobekomma>
    29d8:	f000 f81e 	bl	2a18 <branch_v>
    29dc:	6839      	ldr	r1, [r7, #0]
    29de:	603e      	str	r6, [r7, #0]
    29e0:	460e      	mov	r6, r1
    29e2:	f847 6d04 	str.w	r6, [r7, #-4]!
    29e6:	f24d 0600 	movw	r6, #53248	; 0xd000
    29ea:	f7ff ff6d 	bl	28c8 <Code_651>
    29ee:	bd00      	pop	{pc}

000029f0 <r_branch>:
    29f0:	b500      	push	{lr}
    29f2:	f000 f811 	bl	2a18 <branch_v>
    29f6:	6839      	ldr	r1, [r7, #0]
    29f8:	603e      	str	r6, [r7, #0]
    29fa:	460e      	mov	r6, r1
    29fc:	f7ff ff90 	bl	2920 <Code_655>
    2a00:	bd00      	pop	{pc}

00002a02 <nullbranch_v>:
    2a02:	b500      	push	{lr}
    2a04:	f7ff ffbc 	bl	2980 <nullprobekomma>
    2a08:	f7ff ffa6 	bl	2958 <Code_660>
    2a0c:	f847 6d04 	str.w	r6, [r7, #-4]!
    2a10:	2602      	movs	r6, #2
    2a12:	f7ff fcc6 	bl	23a2 <Code_564>
    2a16:	bd00      	pop	{pc}

00002a18 <branch_v>:
    2a18:	b500      	push	{lr}
    2a1a:	f7ff ff9d 	bl	2958 <Code_660>
    2a1e:	f847 6d04 	str.w	r6, [r7, #-4]!
    2a22:	2602      	movs	r6, #2
    2a24:	f7ff fcbd 	bl	23a2 <Code_564>
    2a28:	bd00      	pop	{pc}

00002a2a <v_branch>:
    2a2a:	b500      	push	{lr}
    2a2c:	f7ff ff94 	bl	2958 <Code_660>
    2a30:	f7ff ff76 	bl	2920 <Code_655>
    2a34:	bd00      	pop	{pc}

00002a36 <v_nullbranch>:
    2a36:	b500      	push	{lr}
    2a38:	f7ff ff8e 	bl	2958 <Code_660>
    2a3c:	f847 6d04 	str.w	r6, [r7, #-4]!
    2a40:	f24d 0600 	movw	r6, #53248	; 0xd000
    2a44:	f7ff ff40 	bl	28c8 <Code_651>
    2a48:	bd00      	pop	{pc}

00002a4a <v_casebranch>:
    2a4a:	b500      	push	{lr}
    2a4c:	f7ff ff84 	bl	2958 <Code_660>
    2a50:	f847 6d04 	str.w	r6, [r7, #-4]!
    2a54:	f24d 1600 	movw	r6, #53504	; 0xd100
    2a58:	f7ff ff36 	bl	28c8 <Code_651>
    2a5c:	bd00      	pop	{pc}

00002a5e <Dictionary_686>:
    2a5e:	00002a9a 	muleq	r0, sl, sl
    2a62:	74040030 	strvc	r0, [r4], #-48	; 0x30
    2a66:	006e6568 	rsbeq	r6, lr, r8, ror #10

00002a6a <Code_686>:
    2a6a:	2e05      	cmp	r6, #5
    2a6c:	d101      	bne.n	2a72 <Code_686+0x8>
    2a6e:	cf40      	ldmia	r7!, {r6}
    2a70:	e7db      	b.n	2a2a <v_branch>
    2a72:	2e02      	cmp	r6, #2
    2a74:	d101      	bne.n	2a7a <strukturen_passen_nicht>
    2a76:	cf40      	ldmia	r7!, {r6}
    2a78:	e7dd      	b.n	2a36 <v_nullbranch>

00002a7a <strukturen_passen_nicht>:
    2a7a:	f7fe fee0 	bl	183e <dotgaensefuesschen>
    2a7e:	72745317 	rsbsvc	r5, r4, #1543503872	; 0x5c000000
    2a82:	75746375 	ldrbvc	r6, [r4, #-885]!	; 0x375
    2a86:	20736572 	rsbscs	r6, r3, r2, ror r5
    2a8a:	276e6f64 	strbcs	r6, [lr, -r4, ror #30]!
    2a8e:	616d2074 	smcvs	53764	; 0xd204
    2a92:	0a686374 	beq	1a1b86a <BIT24+0xa1b86a>
    2a96:	f000 bda3 	b.w	35e0 <Code_925>

00002a9a <Dictionary_690>:
    2a9a:	00002ac4 	andeq	r2, r0, r4, asr #21
    2a9e:	65040030 	strvs	r0, [r4, #-48]	; 0x30
    2aa2:	0065736c 	rsbeq	r7, r5, ip, ror #6

00002aa6 <Code_690>:
    2aa6:	b500      	push	{lr}
    2aa8:	2e02      	cmp	r6, #2
    2aaa:	d1e6      	bne.n	2a7a <strukturen_passen_nicht>
    2aac:	cf40      	ldmia	r7!, {r6}
    2aae:	f7ff ffb3 	bl	2a18 <branch_v>
    2ab2:	6839      	ldr	r1, [r7, #0]
    2ab4:	603e      	str	r6, [r7, #0]
    2ab6:	460e      	mov	r6, r1
    2ab8:	f7ff ffbd 	bl	2a36 <v_nullbranch>
    2abc:	f847 6d04 	str.w	r6, [r7, #-4]!
    2ac0:	2605      	movs	r6, #5
    2ac2:	bd00      	pop	{pc}

00002ac4 <Dictionary_695>:
    2ac4:	00002adc 	ldrdeq	r2, [r0], -ip
    2ac8:	69020030 	stmdbvs	r2, {r4, r5}
    2acc:	b5000066 	strlt	r0, [r0, #-102]	; 0x66

00002ace <Code_695>:
    2ace:	b500      	push	{lr}
    2ad0:	f7ff ff97 	bl	2a02 <nullbranch_v>
    2ad4:	f847 6d04 	str.w	r6, [r7, #-4]!
    2ad8:	2602      	movs	r6, #2
    2ada:	bd00      	pop	{pc}

00002adc <Dictionary_698>:
    2adc:	00002b02 	andeq	r2, r0, r2, lsl #22
    2ae0:	72060030 	andvc	r0, r6, #48	; 0x30
    2ae4:	61657065 	cmnvs	r5, r5, rrx
    2ae8:	2e040074 	mcrcs	0, 0, r0, cr4, cr4, {3}

00002aea <Code_698>:
    2aea:	2e04      	cmp	r6, #4
    2aec:	d1c5      	bne.n	2a7a <strukturen_passen_nicht>
    2aee:	cf40      	ldmia	r7!, {r6}
    2af0:	6839      	ldr	r1, [r7, #0]
    2af2:	603e      	str	r6, [r7, #0]
    2af4:	460e      	mov	r6, r1
    2af6:	b500      	push	{lr}
    2af8:	f7ff ff7a 	bl	29f0 <r_branch>
    2afc:	f7ff ff9b 	bl	2a36 <v_nullbranch>
    2b00:	bd00      	pop	{pc}

00002b02 <Dictionary_701>:
    2b02:	00002b1e 	andeq	r2, r0, lr, lsl fp
    2b06:	77050030 	smladxvc	r5, r0, r0, r0
    2b0a:	656c6968 	strbvs	r6, [ip, #-2408]!	; 0x968

00002b0e <Code_701>:
    2b0e:	2e01      	cmp	r6, #1
    2b10:	d1b3      	bne.n	2a7a <strukturen_passen_nicht>
    2b12:	cf40      	ldmia	r7!, {r6}
    2b14:	b500      	push	{lr}
    2b16:	f7ff ffda 	bl	2ace <Code_695>
    2b1a:	3602      	adds	r6, #2
    2b1c:	bd00      	pop	{pc}

00002b1e <Dictionary_703>:
    2b1e:	00002b32 	andeq	r2, r0, r2, lsr fp
    2b22:	75050030 	strvc	r0, [r5, #-48]	; 0x30
    2b26:	6c69746e 	cfstrdvs	mvd7, [r9], #-440	; 0xfffffe48

00002b2a <Code_703>:
    2b2a:	2e01      	cmp	r6, #1
    2b2c:	d1a5      	bne.n	2a7a <strukturen_passen_nicht>
    2b2e:	cf40      	ldmia	r7!, {r6}
    2b30:	e74f      	b.n	29d2 <r_nullbranch>

00002b32 <Dictionary_705>:
    2b32:	00002b46 	andeq	r2, r0, r6, asr #22
    2b36:	61050030 	tstvs	r5, r0, lsr r0
    2b3a:	6e696167 	powvsez	f6, f1, f7

00002b3e <Code_705>:
    2b3e:	2e01      	cmp	r6, #1
    2b40:	d19b      	bne.n	2a7a <strukturen_passen_nicht>
    2b42:	cf40      	ldmia	r7!, {r6}
    2b44:	e754      	b.n	29f0 <r_branch>

00002b46 <Dictionary_707>:
    2b46:	00002b8c 	andeq	r2, r0, ip, lsl #23
    2b4a:	62050030 	andvs	r0, r5, #48	; 0x30
    2b4e:	6e696765 	cdpvs	7, 6, cr6, cr9, cr5, {3}

00002b52 <Code_707>:
    2b52:	b500      	push	{lr}
    2b54:	f7ff ff22 	bl	299c <branch_r>
    2b58:	f847 6d04 	str.w	r6, [r7, #-4]!
    2b5c:	2601      	movs	r6, #1
    2b5e:	bd00      	pop	{pc}
    2b60:	20000000 	andcs	r0, r0, r0
    2b64:	000001ec 	andeq	r0, r0, ip, ror #3
    2b68:	20000004 	andcs	r0, r0, r4
    2b6c:	ffffffff 			; <UNDEFINED> instruction: 0xffffffff
    2b70:	0000ffff 	strdeq	pc, [r0], -pc	; <UNPREDICTABLE>
    2b74:	ffffff01 			; <UNDEFINED> instruction: 0xffffff01
    2b78:	ffffff00 			; <UNDEFINED> instruction: 0xffffff00
    2b7c:	fffff801 			; <UNDEFINED> instruction: 0xfffff801
    2b80:	fffff800 			; <UNDEFINED> instruction: 0xfffff800
    2b84:	000007ff 	strdeq	r0, [r0], -pc	; <UNPREDICTABLE>
    2b88:	20000024 	andcs	r0, r0, r4, lsr #32

00002b8c <Dictionary_710>:
    2b8c:	00002b9c 	muleq	r0, ip, fp
    2b90:	6b010020 	blvs	42c18 <BIT18+0x2c18>

00002b94 <Code_710>:
    2b94:	f847 6d04 	str.w	r6, [r7, #-4]!
    2b98:	9e02      	ldr	r6, [sp, #8]
    2b9a:	4770      	bx	lr

00002b9c <Dictionary_712>:
    2b9c:	00002bac 	andeq	r2, r0, ip, lsr #23
    2ba0:	6a010020 	bvs	42c28 <BIT18+0x2c28>

00002ba4 <Code_712>:
    2ba4:	f847 6d04 	str.w	r6, [r7, #-4]!
    2ba8:	9e00      	ldr	r6, [sp, #0]
    2baa:	4770      	bx	lr

00002bac <Dictionary_714>:
    2bac:	00002bbc 			; <UNDEFINED> instruction: 0x00002bbc
    2bb0:	69010020 	stmdbvs	r1, {r5}

00002bb4 <Code_714>:
    2bb4:	f847 6d04 	str.w	r6, [r7, #-4]!
    2bb8:	0026      	movs	r6, r4
    2bba:	4770      	bx	lr

00002bbc <Dictionary_717>:
    2bbc:	00002bfa 	strdeq	r2, [r0], -sl
    2bc0:	6c050030 	stcvs	0, cr0, [r5], {48}	; 0x30
    2bc4:	65766165 	ldrbvs	r6, [r6, #-357]!	; 0x165

00002bc8 <Code_717>:
    2bc8:	b500      	push	{lr}
    2bca:	48d9      	ldr	r0, [pc, #868]	; (2f30 <Code_800+0x4c>)
    2bcc:	6801      	ldr	r1, [r0, #0]
    2bce:	003b      	movs	r3, r7
    2bd0:	3f04      	subs	r7, #4
    2bd2:	681a      	ldr	r2, [r3, #0]
    2bd4:	3b04      	subs	r3, #4
    2bd6:	601a      	str	r2, [r3, #0]
    2bd8:	3308      	adds	r3, #8
    2bda:	428b      	cmp	r3, r1
    2bdc:	d1f9      	bne.n	2bd2 <Code_717+0xa>
    2bde:	b403      	push	{r0, r1}
    2be0:	f7ff ff1a 	bl	2a18 <branch_v>
    2be4:	bc03      	pop	{r0, r1}
    2be6:	0033      	movs	r3, r6
    2be8:	cf40      	ldmia	r7!, {r6}
    2bea:	3904      	subs	r1, #4
    2bec:	600b      	str	r3, [r1, #0]
    2bee:	6001      	str	r1, [r0, #0]
    2bf0:	3904      	subs	r1, #4
    2bf2:	680a      	ldr	r2, [r1, #0]
    2bf4:	3201      	adds	r2, #1
    2bf6:	600a      	str	r2, [r1, #0]
    2bf8:	bd00      	pop	{pc}

00002bfa <Dictionary_719>:
    2bfa:	00002c0c 	andeq	r2, r0, ip, lsl #24
    2bfe:	75060020 	strvc	r0, [r6, #-32]
    2c02:	6f6f6c6e 	svcvs	0x006f6c6e
    2c06:	bc300070 	ldclt	0, cr0, [r0], #-448	; 0xfffffe40

00002c08 <Code_719>:
    2c08:	bc30      	pop	{r4, r5}
    2c0a:	4770      	bx	lr

00002c0c <Dictionary_720>:
    2c0c:	00002c44 	andeq	r2, r0, r4, asr #24
    2c10:	2b050030 	blcs	142cd8 <BIT20+0x42cd8>
    2c14:	706f6f6c 	rsbvc	r6, pc, ip, ror #30

00002c18 <Code_720>:
    2c18:	2e03      	cmp	r6, #3
    2c1a:	d000      	beq.n	2c1e <Code_720+0x6>
    2c1c:	e72d      	b.n	2a7a <strukturen_passen_nicht>
    2c1e:	cf40      	ldmia	r7!, {r6}
    2c20:	b500      	push	{lr}
    2c22:	f847 6d04 	str.w	r6, [r7, #-4]!
    2c26:	4ec3      	ldr	r6, [pc, #780]	; (2f34 <Code_800+0x50>)
    2c28:	f7ff f936 	bl	1e98 <Code_460>
    2c2c:	f7ff fec4 	bl	29b8 <r_branch_jvc>
    2c30:	e01a      	b.n	2c68 <loop_intern>

00002c32 <struktur_plusloop>:
    2c32:	f114 4400 	adds.w	r4, r4, #2147483648	; 0x80000000
    2c36:	1b64      	subs	r4, r4, r5
    2c38:	19a4      	adds	r4, r4, r6
    2c3a:	cf40      	ldmia	r7!, {r6}
    2c3c:	442c      	add	r4, r5
    2c3e:	f1a4 4400 	sub.w	r4, r4, #2147483648	; 0x80000000
    2c42:	4770      	bx	lr

00002c44 <Dictionary_724>:
    2c44:	00002c86 	andeq	r2, r0, r6, lsl #25
    2c48:	6c040030 	stcvs	0, cr0, [r4], {48}	; 0x30
    2c4c:	00706f6f 	rsbseq	r6, r0, pc, ror #30

00002c50 <Code_724>:
    2c50:	2e03      	cmp	r6, #3
    2c52:	d000      	beq.n	2c56 <Code_724+0x6>
    2c54:	e711      	b.n	2a7a <strukturen_passen_nicht>
    2c56:	cf40      	ldmia	r7!, {r6}
    2c58:	b500      	push	{lr}
    2c5a:	f847 6d04 	str.w	r6, [r7, #-4]!
    2c5e:	4eb6      	ldr	r6, [pc, #728]	; (2f38 <Code_800+0x54>)
    2c60:	f7ff f91a 	bl	1e98 <Code_460>
    2c64:	f7ff fe9b 	bl	299e <r_branch_jne>

00002c68 <loop_intern>:
    2c68:	f000 f918 	bl	2e9c <spruenge_einpflegen>
    2c6c:	48b0      	ldr	r0, [pc, #704]	; (2f30 <Code_800+0x4c>)
    2c6e:	0031      	movs	r1, r6
    2c70:	cf40      	ldmia	r7!, {r6}
    2c72:	6001      	str	r1, [r0, #0]
    2c74:	f847 6d04 	str.w	r6, [r7, #-4]!
    2c78:	4eb0      	ldr	r6, [pc, #704]	; (2f3c <Code_800+0x58>)
    2c7a:	f7ff f90d 	bl	1e98 <Code_460>
    2c7e:	bd00      	pop	{pc}

00002c80 <struktur_loop>:
    2c80:	3401      	adds	r4, #1
    2c82:	42ac      	cmp	r4, r5
    2c84:	4770      	bx	lr

00002c86 <Dictionary_729>:
    2c86:	00002cce 	andeq	r2, r0, lr, asr #25
    2c8a:	64020078 	strvs	r0, [r2], #-120	; 0x78
    2c8e:	b500006f 	strlt	r0, [r0, #-111]	; 0x6f

00002c90 <Code_729>:
    2c90:	b500      	push	{lr}
    2c92:	f847 6d04 	str.w	r6, [r7, #-4]!
    2c96:	4eaa      	ldr	r6, [pc, #680]	; (2f40 <Code_800+0x5c>)
    2c98:	f7ff f8fe 	bl	1e98 <Code_460>

00002c9c <do_rest_der_schleifenstruktur>:
    2c9c:	48a4      	ldr	r0, [pc, #656]	; (2f30 <Code_800+0x4c>)
    2c9e:	6801      	ldr	r1, [r0, #0]
    2ca0:	f847 6d04 	str.w	r6, [r7, #-4]!
    2ca4:	000e      	movs	r6, r1
    2ca6:	f847 6d04 	str.w	r6, [r7, #-4]!
    2caa:	2600      	movs	r6, #0
    2cac:	6007      	str	r7, [r0, #0]
    2cae:	f7ff fe75 	bl	299c <branch_r>
    2cb2:	f847 6d04 	str.w	r6, [r7, #-4]!
    2cb6:	2603      	movs	r6, #3
    2cb8:	bd00      	pop	{pc}
    2cba:	b500      	push	{lr}
    2cbc:	f000 f82f 	bl	2d1e <gemeinsame_schleifenoptimierung>
    2cc0:	e7ec      	b.n	2c9c <do_rest_der_schleifenstruktur>

00002cc2 <struktur_do>:
    2cc2:	b430      	push	{r4, r5}
    2cc4:	0034      	movs	r4, r6
    2cc6:	cf40      	ldmia	r7!, {r6}
    2cc8:	0035      	movs	r5, r6
    2cca:	cf40      	ldmia	r7!, {r6}
    2ccc:	4770      	bx	lr

00002cce <Dictionary_739>:
    2cce:	00002d68 	andeq	r2, r0, r8, ror #26
    2cd2:	3f030078 	svccc	0x00030078
    2cd6:	b5006f64 	strlt	r6, [r0, #-3940]	; 0xf64

00002cd8 <Code_739>:
    2cd8:	b500      	push	{lr}
    2cda:	f847 6d04 	str.w	r6, [r7, #-4]!
    2cde:	4e98      	ldr	r6, [pc, #608]	; (2f40 <Code_800+0x5c>)
    2ce0:	f7ff f8da 	bl	1e98 <Code_460>

00002ce4 <qdo_rest_der_schleifenstruktur>:
    2ce4:	f847 6d04 	str.w	r6, [r7, #-4]!
    2ce8:	f244 26ac 	movw	r6, #17068	; 0x42ac
    2cec:	f7ff faee 	bl	22cc <Code_544>
    2cf0:	488f      	ldr	r0, [pc, #572]	; (2f30 <Code_800+0x4c>)
    2cf2:	6801      	ldr	r1, [r0, #0]
    2cf4:	f847 6d04 	str.w	r6, [r7, #-4]!
    2cf8:	000e      	movs	r6, r1
    2cfa:	f7ff fe8d 	bl	2a18 <branch_v>
    2cfe:	3601      	adds	r6, #1
    2d00:	f847 6d04 	str.w	r6, [r7, #-4]!
    2d04:	2601      	movs	r6, #1
    2d06:	488a      	ldr	r0, [pc, #552]	; (2f30 <Code_800+0x4c>)
    2d08:	6007      	str	r7, [r0, #0]
    2d0a:	f7ff fe47 	bl	299c <branch_r>
    2d0e:	f847 6d04 	str.w	r6, [r7, #-4]!
    2d12:	2603      	movs	r6, #3
    2d14:	bd00      	pop	{pc}
    2d16:	b500      	push	{lr}
    2d18:	f000 f801 	bl	2d1e <gemeinsame_schleifenoptimierung>
    2d1c:	e7e2      	b.n	2ce4 <qdo_rest_der_schleifenstruktur>

00002d1e <gemeinsame_schleifenoptimierung>:
    2d1e:	b500      	push	{lr}
    2d20:	f847 6d04 	str.w	r6, [r7, #-4]!
    2d24:	f24b 4630 	movw	r6, #46128	; 0xb430
    2d28:	f7ff fad0 	bl	22cc <Code_544>
    2d2c:	f847 6d04 	str.w	r6, [r7, #-4]!
    2d30:	2604      	movs	r6, #4
    2d32:	f7fe ff7d 	bl	1c30 <Code_417>
    2d36:	3b01      	subs	r3, #1
    2d38:	d008      	beq.n	2d4c <gemeinsame_schleifenoptimierung+0x2e>
    2d3a:	f847 6d04 	str.w	r6, [r7, #-4]!
    2d3e:	2605      	movs	r6, #5
    2d40:	f7fe ff76 	bl	1c30 <Code_417>
    2d44:	3b01      	subs	r3, #1
    2d46:	f000 fc24 	bl	3592 <konstantenschreiben>
    2d4a:	bd00      	pop	{pc}
    2d4c:	f847 6d04 	str.w	r6, [r7, #-4]!
    2d50:	2635      	movs	r6, #53	; 0x35
    2d52:	f7ff fabb 	bl	22cc <Code_544>
    2d56:	f847 6d04 	str.w	r6, [r7, #-4]!
    2d5a:	f64c 7640 	movw	r6, #53056	; 0xcf40
    2d5e:	f7ff fab5 	bl	22cc <Code_544>
    2d62:	f000 fc16 	bl	3592 <konstantenschreiben>
    2d66:	bd00      	pop	{pc}

00002d68 <Dictionary_759>:
    2d68:	00002d82 	andeq	r2, r0, r2, lsl #27
    2d6c:	63040030 	movwvs	r0, #16432	; 0x4030
    2d70:	00657361 	rsbeq	r7, r5, r1, ror #6

00002d74 <Code_759>:
    2d74:	f847 6d04 	str.w	r6, [r7, #-4]!
    2d78:	2600      	movs	r6, #0
    2d7a:	f847 6d04 	str.w	r6, [r7, #-4]!
    2d7e:	2608      	movs	r6, #8
    2d80:	4770      	bx	lr

00002d82 <Dictionary_764>:
    2d82:	00002d98 	muleq	r0, r8, sp
    2d86:	3f030030 	svccc	0x00030030
    2d8a:	486d666f 	stmdami	sp!, {r0, r1, r2, r3, r5, r6, r9, sl, sp, lr}^

00002d8c <Code_764>:
    2d8c:	486d      	ldr	r0, [pc, #436]	; (2f44 <Code_800+0x60>)
    2d8e:	e009      	b.n	2da4 <of_inneneinsprung>

00002d90 <struktur_qof>:
    2d90:	3e01      	subs	r6, #1
    2d92:	41b6      	sbcs	r6, r6
    2d94:	cf40      	ldmia	r7!, {r6}
    2d96:	4770      	bx	lr

00002d98 <Dictionary_766>:
    2d98:	00002e3c 	andeq	r2, r0, ip, lsr lr
    2d9c:	6f020078 	svcvs	0x00020078
    2da0:	48690066 	stmdami	r9!, {r1, r2, r5, r6}^

00002da2 <Code_766>:
    2da2:	4869      	ldr	r0, [pc, #420]	; (2f48 <Code_800+0x64>)

00002da4 <of_inneneinsprung>:
    2da4:	2e08      	cmp	r6, #8
    2da6:	d000      	beq.n	2daa <of_inneneinsprung+0x6>
    2da8:	e667      	b.n	2a7a <strukturen_passen_nicht>
    2daa:	cf40      	ldmia	r7!, {r6}
    2dac:	b500      	push	{lr}
    2dae:	f847 6d04 	str.w	r6, [r7, #-4]!
    2db2:	0006      	movs	r6, r0
    2db4:	f7ff f870 	bl	1e98 <Code_460>

00002db8 <of_opcodiereinsprung>:
    2db8:	f7ff fe2e 	bl	2a18 <branch_v>
    2dbc:	6839      	ldr	r1, [r7, #0]
    2dbe:	603e      	str	r6, [r7, #0]
    2dc0:	460e      	mov	r6, r1
    2dc2:	3601      	adds	r6, #1
    2dc4:	f847 6d04 	str.w	r6, [r7, #-4]!
    2dc8:	2609      	movs	r6, #9
    2dca:	f847 6d04 	str.w	r6, [r7, #-4]!
    2dce:	f64c 7640 	movw	r6, #53056	; 0xcf40
    2dd2:	f7ff fa7b 	bl	22cc <Code_544>
    2dd6:	bd00      	pop	{pc}
    2dd8:	b500      	push	{lr}
    2dda:	0030      	movs	r0, r6
    2ddc:	cf40      	ldmia	r7!, {r6}
    2dde:	3b01      	subs	r3, #1
    2de0:	b401      	push	{r0}
    2de2:	f000 fbd6 	bl	3592 <konstantenschreiben>
    2de6:	bc01      	pop	{r0}
    2de8:	2e08      	cmp	r6, #8
    2dea:	d000      	beq.n	2dee <of_opcodiereinsprung+0x36>
    2dec:	e645      	b.n	2a7a <strukturen_passen_nicht>
    2dee:	cf40      	ldmia	r7!, {r6}
    2df0:	f847 6d04 	str.w	r6, [r7, #-4]!
    2df4:	0006      	movs	r6, r0
    2df6:	21ff      	movs	r1, #255	; 0xff
    2df8:	4031      	ands	r1, r6
    2dfa:	42b1      	cmp	r1, r6
    2dfc:	d104      	bne.n	2e08 <of_opcodiereinsprung+0x50>
    2dfe:	4953      	ldr	r1, [pc, #332]	; (2f4c <Code_800+0x68>)
    2e00:	430e      	orrs	r6, r1
    2e02:	f7ff fa63 	bl	22cc <Code_544>
    2e06:	e7d7      	b.n	2db8 <of_opcodiereinsprung>
    2e08:	f7fe fe5e 	bl	1ac8 <Code_408>
    2e0c:	2e00      	cmp	r6, #0
    2e0e:	cf40      	ldmia	r7!, {r6}
    2e10:	d004      	beq.n	2e1c <of_opcodiereinsprung+0x64>
    2e12:	484f      	ldr	r0, [pc, #316]	; (2f50 <Code_800+0x6c>)
    2e14:	4306      	orrs	r6, r0
    2e16:	f7ff fa81 	bl	231c <Code_553>
    2e1a:	e7cd      	b.n	2db8 <of_opcodiereinsprung>
    2e1c:	f847 6d04 	str.w	r6, [r7, #-4]!
    2e20:	2600      	movs	r6, #0
    2e22:	f7fe ff05 	bl	1c30 <Code_417>
    2e26:	f847 6d04 	str.w	r6, [r7, #-4]!
    2e2a:	f244 26b0 	movw	r6, #17072	; 0x42b0
    2e2e:	f7ff fa4d 	bl	22cc <Code_544>
    2e32:	e7c1      	b.n	2db8 <of_opcodiereinsprung>

00002e34 <struktur_of>:
    2e34:	0030      	movs	r0, r6
    2e36:	cf40      	ldmia	r7!, {r6}
    2e38:	42b0      	cmp	r0, r6
    2e3a:	4770      	bx	lr

00002e3c <Dictionary_785>:
    2e3c:	00002e72 	andeq	r2, r0, r2, ror lr
    2e40:	65050030 	strvs	r0, [r5, #-48]	; 0x30
    2e44:	666f646e 	strbtvs	r6, [pc], -lr, ror #8

00002e48 <Code_785>:
    2e48:	2e09      	cmp	r6, #9
    2e4a:	d000      	beq.n	2e4e <Code_785+0x6>
    2e4c:	e615      	b.n	2a7a <strukturen_passen_nicht>
    2e4e:	cf40      	ldmia	r7!, {r6}
    2e50:	b500      	push	{lr}
    2e52:	b440      	push	{r6}
    2e54:	cf40      	ldmia	r7!, {r6}
    2e56:	f7ff fddf 	bl	2a18 <branch_v>
    2e5a:	6839      	ldr	r1, [r7, #0]
    2e5c:	603e      	str	r6, [r7, #0]
    2e5e:	460e      	mov	r6, r1
    2e60:	f7ff fdf3 	bl	2a4a <v_casebranch>
    2e64:	f847 6d04 	str.w	r6, [r7, #-4]!
    2e68:	bc40      	pop	{r6}
    2e6a:	f847 6d04 	str.w	r6, [r7, #-4]!
    2e6e:	2608      	movs	r6, #8
    2e70:	bd00      	pop	{pc}

00002e72 <Dictionary_793>:
    2e72:	00002ec4 	andeq	r2, r0, r4, asr #29
    2e76:	65070030 	strvs	r0, [r7, #-48]	; 0x30
    2e7a:	6163646e 	cmnvs	r3, lr, ror #8
    2e7e:	2e086573 	cfrshl64cs	mvdx8, mvdx3, r6

00002e80 <Code_793>:
    2e80:	2e08      	cmp	r6, #8
    2e82:	d000      	beq.n	2e86 <Code_793+0x6>
    2e84:	e5f9      	b.n	2a7a <strukturen_passen_nicht>
    2e86:	cf40      	ldmia	r7!, {r6}
    2e88:	b500      	push	{lr}
    2e8a:	f847 6d04 	str.w	r6, [r7, #-4]!
    2e8e:	f64c 7640 	movw	r6, #53056	; 0xcf40
    2e92:	f7ff fa1b 	bl	22cc <Code_544>
    2e96:	f000 f801 	bl	2e9c <spruenge_einpflegen>
    2e9a:	bd00      	pop	{pc}

00002e9c <spruenge_einpflegen>:
    2e9c:	b500      	push	{lr}
    2e9e:	0030      	movs	r0, r6
    2ea0:	cf40      	ldmia	r7!, {r6}
    2ea2:	2800      	cmp	r0, #0
    2ea4:	d00d      	beq.n	2ec2 <spruenge_einpflegen+0x26>
    2ea6:	b403      	push	{r0, r1}
    2ea8:	2101      	movs	r1, #1
    2eaa:	4031      	ands	r1, r6
    2eac:	2900      	cmp	r1, #0
    2eae:	d003      	beq.n	2eb8 <spruenge_einpflegen+0x1c>
    2eb0:	3e01      	subs	r6, #1
    2eb2:	f7ff fdc0 	bl	2a36 <v_nullbranch>
    2eb6:	e001      	b.n	2ebc <spruenge_einpflegen+0x20>
    2eb8:	f7ff fdb7 	bl	2a2a <v_branch>
    2ebc:	bc03      	pop	{r0, r1}
    2ebe:	3801      	subs	r0, #1
    2ec0:	e7ef      	b.n	2ea2 <spruenge_einpflegen+0x6>
    2ec2:	bd00      	pop	{pc}

00002ec4 <Dictionary_798>:
    2ec4:	00002ed8 	ldrdeq	r2, [r0], -r8
    2ec8:	74050000 	strvc	r0, [r5]
    2ecc:	6e656b6f 	vnmulvs.f64	d22, d5, d31

00002ed0 <Code_798>:
    2ed0:	f847 6d04 	str.w	r6, [r7, #-4]!
    2ed4:	2620      	movs	r6, #32
    2ed6:	e005      	b.n	2ee4 <Code_800>

00002ed8 <Dictionary_800>:
    2ed8:	00002f58 	andeq	r2, r0, r8, asr pc
    2edc:	70050000 	andvc	r0, r5, r0
    2ee0:	65737261 	ldrbvs	r7, [r3, #-609]!	; 0x261

00002ee4 <Code_800>:
    2ee4:	b510      	push	{r4, lr}
    2ee6:	f7fe fbf4 	bl	16d2 <Code_316>
    2eea:	0031      	movs	r1, r6
    2eec:	cf40      	ldmia	r7!, {r6}
    2eee:	0030      	movs	r0, r6
    2ef0:	cf40      	ldmia	r7!, {r6}
    2ef2:	4a18      	ldr	r2, [pc, #96]	; (2f54 <Code_800+0x70>)
    2ef4:	6812      	ldr	r2, [r2, #0]
    2ef6:	1884      	adds	r4, r0, r2
    2ef8:	2e20      	cmp	r6, #32
    2efa:	d107      	bne.n	2f0c <Code_800+0x28>
    2efc:	4291      	cmp	r1, r2
    2efe:	d00f      	beq.n	2f20 <Code_800+0x3c>
    2f00:	5c83      	ldrb	r3, [r0, r2]
    2f02:	42b3      	cmp	r3, r6
    2f04:	d102      	bne.n	2f0c <Code_800+0x28>
    2f06:	3201      	adds	r2, #1
    2f08:	1884      	adds	r4, r0, r2
    2f0a:	e7f7      	b.n	2efc <Code_800+0x18>
    2f0c:	4291      	cmp	r1, r2
    2f0e:	d007      	beq.n	2f20 <Code_800+0x3c>
    2f10:	5c83      	ldrb	r3, [r0, r2]
    2f12:	3201      	adds	r2, #1
    2f14:	42b3      	cmp	r3, r6
    2f16:	d1f9      	bne.n	2f0c <Code_800+0x28>
    2f18:	1886      	adds	r6, r0, r2
    2f1a:	1b36      	subs	r6, r6, r4
    2f1c:	3e01      	subs	r6, #1
    2f1e:	e001      	b.n	2f24 <Code_800+0x40>
    2f20:	1886      	adds	r6, r0, r2
    2f22:	1b36      	subs	r6, r6, r4
    2f24:	3f04      	subs	r7, #4
    2f26:	603c      	str	r4, [r7, #0]
    2f28:	480a      	ldr	r0, [pc, #40]	; (2f54 <Code_800+0x70>)
    2f2a:	6002      	str	r2, [r0, #0]
    2f2c:	bd10      	pop	{r4, pc}
    2f2e:	000c0000 	andeq	r0, ip, r0
    2f32:	2c322000 	ldccs	0, cr2, [r2]
    2f36:	2c800000 	stccs	0, cr0, [r0], {0}
    2f3a:	2c080000 	stccs	0, cr0, [r8], {0}
    2f3e:	2cc20000 	stclcs	0, cr0, [r2], {0}
    2f42:	2d900000 	ldccs	0, cr0, [r0]
    2f46:	2e340000 	cdpcs	0, 3, cr0, cr4, cr0, {0}
    2f4a:	2e000000 	cdpcs	0, 0, cr0, cr0, cr0, {0}
    2f4e:	0f000000 	svceq	0x00000000
    2f52:	7fe4f1b6 	svcvc	0x00e4f1b6
    2f56:	2f962000 	svccs	0x00962000

00002f58 <Dictionary_803>:
    2f58:	00002f96 	muleq	r0, r6, pc	; <UNPREDICTABLE>
    2f5c:	64050000 	strvs	r0, [r5]
    2f60:	74696769 	strbtvc	r6, [r9], #-1897	; 0x769

00002f64 <Code_803>:
    2f64:	4bcf      	ldr	r3, [pc, #828]	; (32a4 <Code_866+0xa>)
    2f66:	681b      	ldr	r3, [r3, #0]

00002f68 <digit_base_r3>:
    2f68:	3e30      	subs	r6, #48	; 0x30
    2f6a:	d30b      	bcc.n	2f84 <digit_base_r3+0x1c>
    2f6c:	2e0a      	cmp	r6, #10
    2f6e:	d30b      	bcc.n	2f88 <digit_base_r3+0x20>
    2f70:	3e07      	subs	r6, #7
    2f72:	2e0a      	cmp	r6, #10
    2f74:	d306      	bcc.n	2f84 <digit_base_r3+0x1c>
    2f76:	2e24      	cmp	r6, #36	; 0x24
    2f78:	d306      	bcc.n	2f88 <digit_base_r3+0x20>
    2f7a:	3e20      	subs	r6, #32
    2f7c:	2e0a      	cmp	r6, #10
    2f7e:	d301      	bcc.n	2f84 <digit_base_r3+0x1c>
    2f80:	2e24      	cmp	r6, #36	; 0x24
    2f82:	d301      	bcc.n	2f88 <digit_base_r3+0x20>
    2f84:	2600      	movs	r6, #0
    2f86:	4770      	bx	lr
    2f88:	429e      	cmp	r6, r3
    2f8a:	d2fb      	bcs.n	2f84 <digit_base_r3+0x1c>
    2f8c:	f847 6d04 	str.w	r6, [r7, #-4]!
    2f90:	2600      	movs	r6, #0
    2f92:	43f6      	mvns	r6, r6
    2f94:	4770      	bx	lr

00002f96 <Dictionary_805>:
    2f96:	000030a0 	andeq	r3, r0, r0, lsr #1
    2f9a:	6e060000 	cdpvs	0, 0, cr0, cr6, cr0, {0}
    2f9e:	65626d75 	strbvs	r6, [r2, #-3445]!	; 0xd75
    2fa2:	b53f0072 	ldrlt	r0, [pc, #-114]!	; 2f38 <Code_800+0x54>

00002fa4 <Code_805>:
    2fa4:	b53f      	push	{r0, r1, r2, r3, r4, r5, lr}
    2fa6:	0031      	movs	r1, r6
    2fa8:	cf40      	ldmia	r7!, {r6}
    2faa:	1e70      	subs	r0, r6, #1
    2fac:	2601      	movs	r6, #1
    2fae:	2201      	movs	r2, #1
    2fb0:	b404      	push	{r2}
    2fb2:	4bbc      	ldr	r3, [pc, #752]	; (32a4 <Code_866+0xa>)
    2fb4:	681b      	ldr	r3, [r3, #0]
    2fb6:	2400      	movs	r4, #0
    2fb8:	2500      	movs	r5, #0
    2fba:	2900      	cmp	r1, #0
    2fbc:	d03c      	beq.n	3038 <Code_805+0x94>
    2fbe:	3001      	adds	r0, #1
    2fc0:	3901      	subs	r1, #1
    2fc2:	7802      	ldrb	r2, [r0, #0]
    2fc4:	2a2d      	cmp	r2, #45	; 0x2d
    2fc6:	d104      	bne.n	2fd2 <Code_805+0x2e>
    2fc8:	b001      	add	sp, #4
    2fca:	2200      	movs	r2, #0
    2fcc:	43d2      	mvns	r2, r2
    2fce:	b404      	push	{r2}
    2fd0:	e7f3      	b.n	2fba <Code_805+0x16>
    2fd2:	2a23      	cmp	r2, #35	; 0x23
    2fd4:	d101      	bne.n	2fda <Code_805+0x36>
    2fd6:	230a      	movs	r3, #10
    2fd8:	e7ef      	b.n	2fba <Code_805+0x16>
    2fda:	2a24      	cmp	r2, #36	; 0x24
    2fdc:	d101      	bne.n	2fe2 <Code_805+0x3e>
    2fde:	2310      	movs	r3, #16
    2fe0:	e7eb      	b.n	2fba <Code_805+0x16>
    2fe2:	2a25      	cmp	r2, #37	; 0x25
    2fe4:	d101      	bne.n	2fea <Code_805+0x46>
    2fe6:	2302      	movs	r3, #2
    2fe8:	e7e7      	b.n	2fba <Code_805+0x16>
    2fea:	2a2e      	cmp	r2, #46	; 0x2e
    2fec:	d101      	bne.n	2ff2 <Code_805+0x4e>
    2fee:	2602      	movs	r6, #2
    2ff0:	e7e3      	b.n	2fba <Code_805+0x16>
    2ff2:	2a2c      	cmp	r2, #44	; 0x2c
    2ff4:	d036      	beq.n	3064 <number_nachkommastellen>
    2ff6:	f847 6d04 	str.w	r6, [r7, #-4]!
    2ffa:	0016      	movs	r6, r2
    2ffc:	f7ff ffb4 	bl	2f68 <digit_base_r3>
    3000:	2e00      	cmp	r6, #0
    3002:	cf40      	ldmia	r7!, {r6}
    3004:	d02b      	beq.n	305e <Code_805+0xba>
    3006:	f847 6d04 	str.w	r6, [r7, #-4]!
    300a:	0026      	movs	r6, r4
    300c:	f847 6d04 	str.w	r6, [r7, #-4]!
    3010:	002e      	movs	r6, r5
    3012:	f847 6d04 	str.w	r6, [r7, #-4]!
    3016:	001e      	movs	r6, r3
    3018:	f847 6d04 	str.w	r6, [r7, #-4]!
    301c:	2600      	movs	r6, #0
    301e:	b40f      	push	{r0, r1, r2, r3}
    3020:	f7fd fa10 	bl	444 <Code_49>
    3024:	bc0f      	pop	{r0, r1, r2, r3}
    3026:	0035      	movs	r5, r6
    3028:	cf40      	ldmia	r7!, {r6}
    302a:	0034      	movs	r4, r6
    302c:	cf40      	ldmia	r7!, {r6}
    302e:	2200      	movs	r2, #0
    3030:	19a4      	adds	r4, r4, r6
    3032:	4155      	adcs	r5, r2
    3034:	cf40      	ldmia	r7!, {r6}
    3036:	e7c0      	b.n	2fba <Code_805+0x16>
    3038:	bc04      	pop	{r2}
    303a:	2a00      	cmp	r2, #0
    303c:	d504      	bpl.n	3048 <Code_805+0xa4>
    303e:	2200      	movs	r2, #0
    3040:	43e4      	mvns	r4, r4
    3042:	43ed      	mvns	r5, r5
    3044:	3401      	adds	r4, #1
    3046:	4155      	adcs	r5, r2
    3048:	0033      	movs	r3, r6
    304a:	0026      	movs	r6, r4
    304c:	2b01      	cmp	r3, #1
    304e:	d002      	beq.n	3056 <Code_805+0xb2>
    3050:	f847 6d04 	str.w	r6, [r7, #-4]!
    3054:	002e      	movs	r6, r5
    3056:	f847 6d04 	str.w	r6, [r7, #-4]!
    305a:	001e      	movs	r6, r3
    305c:	bd3f      	pop	{r0, r1, r2, r3, r4, r5, pc}
    305e:	b001      	add	sp, #4
    3060:	2600      	movs	r6, #0
    3062:	bd3f      	pop	{r0, r1, r2, r3, r4, r5, pc}

00003064 <number_nachkommastellen>:
    3064:	0025      	movs	r5, r4
    3066:	2400      	movs	r4, #0
    3068:	2602      	movs	r6, #2
    306a:	2900      	cmp	r1, #0
    306c:	d0e4      	beq.n	3038 <Code_805+0x94>
    306e:	5c42      	ldrb	r2, [r0, r1]
    3070:	3901      	subs	r1, #1
    3072:	2a2e      	cmp	r2, #46	; 0x2e
    3074:	d0f9      	beq.n	306a <number_nachkommastellen+0x6>
    3076:	f847 6d04 	str.w	r6, [r7, #-4]!
    307a:	0016      	movs	r6, r2
    307c:	f7ff ff74 	bl	2f68 <digit_base_r3>
    3080:	2e00      	cmp	r6, #0
    3082:	cf40      	ldmia	r7!, {r6}
    3084:	d0eb      	beq.n	305e <Code_805+0xba>
    3086:	3f04      	subs	r7, #4
    3088:	603c      	str	r4, [r7, #0]
    308a:	f847 6d04 	str.w	r6, [r7, #-4]!
    308e:	001e      	movs	r6, r3
    3090:	b40f      	push	{r0, r1, r2, r3}
    3092:	f7fd fa86 	bl	5a2 <Code_85>
    3096:	bc0f      	pop	{r0, r1, r2, r3}
    3098:	0034      	movs	r4, r6
    309a:	cf40      	ldmia	r7!, {r6}
    309c:	cf40      	ldmia	r7!, {r6}
    309e:	e7e4      	b.n	306a <number_nachkommastellen+0x6>

000030a0 <Dictionary_832>:
    30a0:	000030c2 	andeq	r3, r0, r2, asr #1
    30a4:	2e060000 	cdpcs	0, 0, cr0, cr6, cr0, {0}
    30a8:	69676964 	stmdbvs	r7!, {r2, r5, r6, r8, fp, sp, lr}^
    30ac:	2e0a0074 	mcrcs	0, 0, r0, cr10, cr4, {3}

000030ae <Code_832>:
    30ae:	2e0a      	cmp	r6, #10
    30b0:	d201      	bcs.n	30b6 <Code_832+0x8>
    30b2:	3630      	adds	r6, #48	; 0x30
    30b4:	4770      	bx	lr
    30b6:	2e24      	cmp	r6, #36	; 0x24
    30b8:	d201      	bcs.n	30be <Code_832+0x10>
    30ba:	3637      	adds	r6, #55	; 0x37
    30bc:	4770      	bx	lr
    30be:	2623      	movs	r6, #35	; 0x23
    30c0:	4770      	bx	lr

000030c2 <Dictionary_833>:
    30c2:	000030f8 	strdeq	r3, [r0], -r8
    30c6:	68040000 	stmdavs	r4, {}	; <UNPREDICTABLE>
    30ca:	00646c6f 	rsbeq	r6, r4, pc, ror #24

000030ce <Code_833>:
    30ce:	0033      	movs	r3, r6
    30d0:	cf40      	ldmia	r7!, {r6}
    30d2:	4875      	ldr	r0, [pc, #468]	; (32a8 <Code_866+0xe>)
    30d4:	7801      	ldrb	r1, [r0, #0]
    30d6:	293f      	cmp	r1, #63	; 0x3f
    30d8:	d20d      	bcs.n	30f6 <Code_833+0x28>
    30da:	3101      	adds	r1, #1
    30dc:	7001      	strb	r1, [r0, #0]
    30de:	1840      	adds	r0, r0, r1
    30e0:	2901      	cmp	r1, #1
    30e2:	d007      	beq.n	30f4 <Code_833+0x26>
    30e4:	3801      	subs	r0, #1
    30e6:	7802      	ldrb	r2, [r0, #0]
    30e8:	3001      	adds	r0, #1
    30ea:	7002      	strb	r2, [r0, #0]
    30ec:	3801      	subs	r0, #1
    30ee:	3901      	subs	r1, #1
    30f0:	2901      	cmp	r1, #1
    30f2:	d1f7      	bne.n	30e4 <Code_833+0x16>
    30f4:	7003      	strb	r3, [r0, #0]
    30f6:	4770      	bx	lr

000030f8 <Dictionary_835>:
    30f8:	00003118 	andeq	r3, r0, r8, lsl r1
    30fc:	68050000 	stmdavs	r5, {}	; <UNPREDICTABLE>
    3100:	3c646c6f 	stclcc	12, cr6, [r4], #-444	; 0xfffffe44

00003104 <Code_835>:
    3104:	0033      	movs	r3, r6
    3106:	cf40      	ldmia	r7!, {r6}
    3108:	4867      	ldr	r0, [pc, #412]	; (32a8 <Code_866+0xe>)
    310a:	7801      	ldrb	r1, [r0, #0]
    310c:	293f      	cmp	r1, #63	; 0x3f
    310e:	d202      	bcs.n	3116 <Code_835+0x12>
    3110:	3101      	adds	r1, #1
    3112:	7001      	strb	r1, [r0, #0]
    3114:	5443      	strb	r3, [r0, r1]
    3116:	4770      	bx	lr

00003118 <Dictionary_837>:
    3118:	00003130 	andeq	r3, r0, r0, lsr r1
    311c:	73040000 	movwvc	r0, #16384	; 0x4000
    3120:	006e6769 	rsbeq	r6, lr, r9, ror #14

00003124 <Code_837>:
    3124:	2e00      	cmp	r6, #0
    3126:	d401      	bmi.n	312c <Code_837+0x8>
    3128:	cf40      	ldmia	r7!, {r6}
    312a:	4770      	bx	lr
    312c:	262d      	movs	r6, #45	; 0x2d
    312e:	e7ce      	b.n	30ce <Code_833>

00003130 <Dictionary_839>:
    3130:	00003144 	andeq	r3, r0, r4, asr #2
    3134:	23020000 	movwcs	r0, #8192	; 0x2000
    3138:	485b003e 	ldmdami	fp, {r1, r2, r3, r4, r5}^

0000313a <Code_839>:
    313a:	485b      	ldr	r0, [pc, #364]	; (32a8 <Code_866+0xe>)
    313c:	7806      	ldrb	r6, [r0, #0]
    313e:	3001      	adds	r0, #1
    3140:	6038      	str	r0, [r7, #0]
    3142:	4770      	bx	lr

00003144 <Dictionary_840>:
    3144:	0000315c 	andeq	r3, r0, ip, asr r1
    3148:	66030000 	strvs	r0, [r3], -r0
    314c:	b5105323 	ldrlt	r5, [r0, #-803]	; 0x323

0000314e <Code_840>:
    314e:	b510      	push	{r4, lr}
    3150:	2420      	movs	r4, #32
    3152:	f000 f808 	bl	3166 <Code_841>
    3156:	3c01      	subs	r4, #1
    3158:	d1fb      	bne.n	3152 <Code_840+0x4>
    315a:	bd10      	pop	{r4, pc}

0000315c <Dictionary_841>:
    315c:	0000317e 	andeq	r3, r0, lr, ror r1
    3160:	66020000 	strvs	r0, [r2], -r0
    3164:	b5000023 	strlt	r0, [r0, #-35]	; 0x23

00003166 <Code_841>:
    3166:	b500      	push	{lr}
    3168:	f847 6d04 	str.w	r6, [r7, #-4]!
    316c:	4e4d      	ldr	r6, [pc, #308]	; (32a4 <Code_866+0xa>)
    316e:	6836      	ldr	r6, [r6, #0]
    3170:	f7fd f954 	bl	41c <Code_47>
    3174:	f7ff ff9b 	bl	30ae <Code_832>
    3178:	f7ff ffc4 	bl	3104 <Code_835>
    317c:	bd00      	pop	{pc}

0000317e <Dictionary_843>:
    317e:	0000319a 	muleq	r0, sl, r1
    3182:	23020000 	movwcs	r0, #8192	; 0x2000
    3186:	b5000053 	strlt	r0, [r0, #-83]	; 0x53

00003188 <Code_843>:
    3188:	b500      	push	{lr}
    318a:	f000 f80a 	bl	31a2 <Code_844>
    318e:	2e00      	cmp	r6, #0
    3190:	d1fb      	bne.n	318a <Code_843+0x2>
    3192:	6838      	ldr	r0, [r7, #0]
    3194:	2800      	cmp	r0, #0
    3196:	d1f8      	bne.n	318a <Code_843+0x2>
    3198:	bd00      	pop	{pc}

0000319a <Dictionary_844>:
    319a:	000031c6 	andeq	r3, r0, r6, asr #3
    319e:	23010000 	movwcs	r0, #4096	; 0x1000

000031a2 <Code_844>:
    31a2:	b500      	push	{lr}
    31a4:	f847 6d04 	str.w	r6, [r7, #-4]!
    31a8:	4e3e      	ldr	r6, [pc, #248]	; (32a4 <Code_866+0xa>)
    31aa:	6836      	ldr	r6, [r6, #0]
    31ac:	f847 6d04 	str.w	r6, [r7, #-4]!
    31b0:	2600      	movs	r6, #0
    31b2:	f7fd fa15 	bl	5e0 <Code_94>
    31b6:	f7fd f847 	bl	248 <Code_21>
    31ba:	cf40      	ldmia	r7!, {r6}
    31bc:	f7ff ff77 	bl	30ae <Code_832>
    31c0:	f7ff ff85 	bl	30ce <Code_833>
    31c4:	bd00      	pop	{pc}

000031c6 <Dictionary_849>:
    31c6:	000031d8 	ldrdeq	r3, [r0], -r8
    31ca:	3c020000 	stccc	0, cr0, [r2], {0}
    31ce:	48350023 	ldmdami	r5!, {r0, r1, r5}

000031d0 <Code_849>:
    31d0:	4835      	ldr	r0, [pc, #212]	; (32a8 <Code_866+0xe>)
    31d2:	2100      	movs	r1, #0
    31d4:	7001      	strb	r1, [r0, #0]
    31d6:	4770      	bx	lr

000031d8 <Dictionary_850>:
    31d8:	000031ea 	andeq	r3, r0, sl, ror #3
    31dc:	66020000 	strvs	r0, [r2], -r0
    31e0:	f847002e 			; <UNDEFINED> instruction: 0xf847002e

000031e2 <Code_850>:
    31e2:	f847 6d04 	str.w	r6, [r7, #-4]!
    31e6:	2620      	movs	r6, #32
    31e8:	e004      	b.n	31f4 <Code_853>

000031ea <Dictionary_853>:
    31ea:	00003238 	andeq	r3, r0, r8, lsr r2
    31ee:	66030000 	strvs	r0, [r3], -r0
    31f2:	b5006e2e 	strlt	r6, [r0, #-3630]	; 0xe2e

000031f4 <Code_853>:
    31f4:	b500      	push	{lr}
    31f6:	b410      	push	{r4}
    31f8:	0034      	movs	r4, r6
    31fa:	cf40      	ldmia	r7!, {r6}
    31fc:	f7fd fb7f 	bl	8fe <Code_131>
    3200:	f7fd f8d5 	bl	3ae <Code_41>
    3204:	f847 6d04 	str.w	r6, [r7, #-4]!
    3208:	2600      	movs	r6, #0
    320a:	f7ff ffe1 	bl	31d0 <Code_849>
    320e:	f7ff ffbb 	bl	3188 <Code_843>
    3212:	cf40      	ldmia	r7!, {r6}
    3214:	262c      	movs	r6, #44	; 0x2c
    3216:	f7ff ff75 	bl	3104 <Code_835>
    321a:	2c00      	cmp	r4, #0
    321c:	d003      	beq.n	3226 <Code_853+0x32>
    321e:	f7ff ffa2 	bl	3166 <Code_841>
    3222:	3c01      	subs	r4, #1
    3224:	d1fb      	bne.n	321e <Code_853+0x2a>
    3226:	bc10      	pop	{r4}
    3228:	cf40      	ldmia	r7!, {r6}
    322a:	f7ff ff7b 	bl	3124 <Code_837>
    322e:	f847 6d04 	str.w	r6, [r7, #-4]!
    3232:	f847 6d04 	str.w	r6, [r7, #-4]!
    3236:	e01c      	b.n	3272 <abschluss_zahlenausgabe>

00003238 <Dictionary_861>:
    3238:	0000324e 	andeq	r3, r0, lr, asr #4
    323c:	75030000 	strvc	r0, [r3]
    3240:	b5002e64 	strlt	r2, [r0, #-3684]	; 0xe64

00003242 <Code_861>:
    3242:	b500      	push	{lr}
    3244:	f7ff ffc4 	bl	31d0 <Code_849>
    3248:	f7ff ff9e 	bl	3188 <Code_843>
    324c:	e011      	b.n	3272 <abschluss_zahlenausgabe>

0000324e <Dictionary_862>:
    324e:	00003280 	andeq	r3, r0, r0, lsl #5
    3252:	64020000 	strvs	r0, [r2]
    3256:	b500002e 	strlt	r0, [r0, #-46]	; 0x2e

00003258 <Code_862>:
    3258:	b500      	push	{lr}
    325a:	f7fd fb50 	bl	8fe <Code_131>
    325e:	f7fd f8a6 	bl	3ae <Code_41>
    3262:	f7ff ffb5 	bl	31d0 <Code_849>
    3266:	f7ff ff8f 	bl	3188 <Code_843>
    326a:	f7fd fb52 	bl	912 <Code_132>
    326e:	f7ff ff59 	bl	3124 <Code_837>

00003272 <abschluss_zahlenausgabe>:
    3272:	f7ff ff62 	bl	313a <Code_839>
    3276:	f7fe fb3e 	bl	18f6 <Code_368>
    327a:	f7fe fa8f 	bl	179c <Code_333>
    327e:	bd00      	pop	{pc}

00003280 <Dictionary_863>:
    3280:	00003292 	muleq	r0, r2, r2
    3284:	75020000 	strvc	r0, [r2]
    3288:	f847002e 			; <UNDEFINED> instruction: 0xf847002e

0000328a <Code_863>:
    328a:	f847 6d04 	str.w	r6, [r7, #-4]!
    328e:	2600      	movs	r6, #0
    3290:	e7d7      	b.n	3242 <Code_861>

00003292 <Dictionary_866>:
    3292:	000032ac 	andeq	r3, r0, ip, lsr #5
    3296:	2e010000 	cdpcs	0, 0, cr0, cr1, cr0, {0}

0000329a <Code_866>:
    329a:	f847 6d04 	str.w	r6, [r7, #-4]!
    329e:	17f6      	asrs	r6, r6, #31
    32a0:	e7da      	b.n	3258 <Code_862>
    32a2:	7ffc0000 	svcvc	0x00fc0000
    32a6:	00282000 	eoreq	r2, r8, r0
    32aa:	32f42000 	rscscc	r2, r4, #0

000032ac <Dictionary_868>:
    32ac:	000032f4 	strdeq	r3, [r0], -r4
    32b0:	65080000 	strvs	r0, [r8]
    32b4:	756c6176 	strbvc	r6, [ip, #-374]!	; 0x176
    32b8:	00657461 	rsbeq	r7, r5, r1, ror #8

000032bc <Code_868>:
    32bc:	b500      	push	{lr}
    32be:	f7fe fa08 	bl	16d2 <Code_316>
    32c2:	cf01      	ldmia	r7!, {r0}
    32c4:	b401      	push	{r0}
    32c6:	b440      	push	{r6}
    32c8:	cf40      	ldmia	r7!, {r6}
    32ca:	48d4      	ldr	r0, [pc, #848]	; (361c <quit_innenschleife+0x14>)
    32cc:	6801      	ldr	r1, [r0, #0]
    32ce:	b402      	push	{r1}
    32d0:	2100      	movs	r1, #0
    32d2:	6001      	str	r1, [r0, #0]
    32d4:	f7fe f9f0 	bl	16b8 <Code_314>
    32d8:	f000 f814 	bl	3304 <Code_870>
    32dc:	48cf      	ldr	r0, [pc, #828]	; (361c <quit_innenschleife+0x14>)
    32de:	bc02      	pop	{r1}
    32e0:	6001      	str	r1, [r0, #0]
    32e2:	f847 6d04 	str.w	r6, [r7, #-4]!
    32e6:	bc40      	pop	{r6}
    32e8:	bc01      	pop	{r0}
    32ea:	3f04      	subs	r7, #4
    32ec:	6038      	str	r0, [r7, #0]
    32ee:	f7fe f9e3 	bl	16b8 <Code_314>
    32f2:	bd00      	pop	{pc}

000032f4 <Dictionary_870>:
    32f4:	000035b8 			; <UNDEFINED> instruction: 0x000035b8
    32f8:	69090000 	stmdbvs	r9, {}	; <UNPREDICTABLE>
    32fc:	7265746e 	rsbvc	r7, r5, #1845493760	; 0x6e000000
    3300:	74657270 	strbtvc	r7, [r5], #-624	; 0x270

00003304 <Code_870>:
    3304:	b530      	push	{r4, r5, lr}
    3306:	48c6      	ldr	r0, [pc, #792]	; (3620 <quit_innenschleife+0x18>)
    3308:	4287      	cmp	r7, r0
    330a:	d90b      	bls.n	3324 <Code_870+0x20>
    330c:	f7fe fa97 	bl	183e <dotgaensefuesschen>
    3310:	61745310 	cmnvs	r4, r0, lsl r3
    3314:	75206b63 	strvc	r6, [r0, #-2915]!	; 0xb63
    3318:	7265646e 	rsbvc	r6, r5, #1845493760	; 0x6e000000
    331c:	776f6c66 	strbvc	r6, [pc, -r6, ror #24]!
    3320:	e15d000a 	cmp	sp, sl
    3324:	48bf      	ldr	r0, [pc, #764]	; (3624 <quit_innenschleife+0x1c>)
    3326:	4287      	cmp	r7, r0
    3328:	d20a      	bcs.n	3340 <Code_870+0x3c>
    332a:	f7fe fa88 	bl	183e <dotgaensefuesschen>
    332e:	6174530f 	cmnvs	r4, pc, lsl #6
    3332:	6f206b63 	svcvs	0x00206b63
    3336:	66726576 			; <UNDEFINED> instruction: 0x66726576
    333a:	0a776f6c 	beq	1ddf0f2 <BIT24+0xddf0f2>
    333e:	e14f      	b.n	35e0 <Code_925>
    3340:	4cb9      	ldr	r4, [pc, #740]	; (3628 <quit_innenschleife+0x20>)
    3342:	6825      	ldr	r5, [r4, #0]
    3344:	2d00      	cmp	r5, #0
    3346:	d101      	bne.n	334c <Code_870+0x48>
    3348:	003d      	movs	r5, r7
    334a:	6025      	str	r5, [r4, #0]
    334c:	f7ff fdc0 	bl	2ed0 <Code_798>
    3350:	2e00      	cmp	r6, #0
    3352:	d102      	bne.n	335a <Code_870+0x56>
    3354:	3704      	adds	r7, #4
    3356:	cf40      	ldmia	r7!, {r6}
    3358:	bd30      	pop	{r4, r5, pc}
    335a:	6838      	ldr	r0, [r7, #0]
    335c:	f847 6d04 	str.w	r6, [r7, #-4]!
    3360:	3f04      	subs	r7, #4
    3362:	6038      	str	r0, [r7, #0]
    3364:	f7ff fa6f 	bl	2846 <Code_638>
    3368:	0031      	movs	r1, r6
    336a:	cf40      	ldmia	r7!, {r6}
    336c:	0032      	movs	r2, r6
    336e:	cf40      	ldmia	r7!, {r6}
    3370:	2a00      	cmp	r2, #0
    3372:	d113      	bne.n	339c <not_found_addr_r0_len_r1+0x18>
    3374:	6838      	ldr	r0, [r7, #0]
    3376:	0031      	movs	r1, r6
    3378:	f7ff fe14 	bl	2fa4 <Code_805>
    337c:	0032      	movs	r2, r6
    337e:	cf40      	ldmia	r7!, {r6}
    3380:	2a00      	cmp	r2, #0
    3382:	d1c0      	bne.n	3306 <Code_870+0x2>

00003384 <not_found_addr_r0_len_r1>:
    3384:	f7fe fabb 	bl	18fe <stype_addr_r0_len_r1>
    3388:	f7fe fa59 	bl	183e <dotgaensefuesschen>
    338c:	6f6e200c 	svcvs	0x006e200c
    3390:	6f662074 	svcvs	0x00662074
    3394:	2e646e75 	mcrcs	14, 3, r6, cr4, cr5, {3}
    3398:	e121000a 	teq	r1, sl
    339c:	4ba3      	ldr	r3, [pc, #652]	; (362c <quit_innenschleife+0x24>)
    339e:	681b      	ldr	r3, [r3, #0]
    33a0:	2b00      	cmp	r3, #0
    33a2:	d11d      	bne.n	33e0 <.ausfuehren+0x12>
    33a4:	2500      	movs	r5, #0
    33a6:	6025      	str	r5, [r4, #0]
    33a8:	2330      	movs	r3, #48	; 0x30
    33aa:	400b      	ands	r3, r1
    33ac:	2b30      	cmp	r3, #48	; 0x30
    33ae:	d10e      	bne.n	33ce <.ausfuehren>
    33b0:	f7fe faa1 	bl	18f6 <Code_368>
    33b4:	f7fe fa43 	bl	183e <dotgaensefuesschen>
    33b8:	73692012 	cmnvc	r9, #18
    33bc:	6d6f6320 	stclvs	3, cr6, [pc, #-128]!	; 3344 <Code_870+0x40>
    33c0:	656c6970 	strbvs	r6, [ip, #-2416]!	; 0x970
    33c4:	6c6e6f2d 	stclvs	15, cr6, [lr], #-180	; 0xffffff4c
    33c8:	000a2e79 	andeq	r2, sl, r9, ror lr
    33cc:	e108      	b.n	35e0 <Code_925>

000033ce <.ausfuehren>:
    33ce:	3704      	adds	r7, #4
    33d0:	cf40      	ldmia	r7!, {r6}
    33d2:	f847 6d04 	str.w	r6, [r7, #-4]!
    33d6:	0016      	movs	r6, r2
    33d8:	f7fe fdfc 	bl	1fd4 <Code_482>
    33dc:	f7ff ff93 	bl	3306 <Code_870+0x2>
    33e0:	3704      	adds	r7, #4
    33e2:	cf40      	ldmia	r7!, {r6}
    33e4:	2080      	movs	r0, #128	; 0x80
    33e6:	4008      	ands	r0, r1
    33e8:	d10e      	bne.n	3408 <.interpret_faltoptimierung>
    33ea:	1beb      	subs	r3, r5, r7
    33ec:	089b      	lsrs	r3, r3, #2
    33ee:	2040      	movs	r0, #64	; 0x40
    33f0:	4008      	ands	r0, r1
    33f2:	d00f      	beq.n	3414 <.konstantenschleife>
    33f4:	2008      	movs	r0, #8
    33f6:	4008      	ands	r0, r1
    33f8:	d002      	beq.n	3400 <.interpret_genugkonstanten>
    33fa:	2b00      	cmp	r3, #0
    33fc:	d000      	beq.n	3400 <.interpret_genugkonstanten>
    33fe:	e01d      	b.n	343c <.interpret_opcodierbar>

00003400 <.interpret_genugkonstanten>:
    3400:	200f      	movs	r0, #15
    3402:	4008      	ands	r0, r1
    3404:	4283      	cmp	r3, r0
    3406:	d305      	bcc.n	3414 <.konstantenschleife>

00003408 <.interpret_faltoptimierung>:
    3408:	f847 6d04 	str.w	r6, [r7, #-4]!
    340c:	0016      	movs	r6, r2
    340e:	f7fe fde1 	bl	1fd4 <Code_482>
    3412:	e778      	b.n	3306 <Code_870+0x2>

00003414 <.konstantenschleife>:
    3414:	f000 f8bd 	bl	3592 <konstantenschreiben>
    3418:	f847 6d04 	str.w	r6, [r7, #-4]!
    341c:	0016      	movs	r6, r2
    341e:	2210      	movs	r2, #16
    3420:	400a      	ands	r2, r1
    3422:	d002      	beq.n	342a <.konstantenschleife+0x16>
    3424:	f7fe fdd6 	bl	1fd4 <Code_482>
    3428:	e76d      	b.n	3306 <Code_870+0x2>
    342a:	2220      	movs	r2, #32
    342c:	400a      	ands	r2, r1
    342e:	d002      	beq.n	3436 <.konstantenschleife+0x22>
    3430:	f7fe fd32 	bl	1e98 <Code_460>
    3434:	e767      	b.n	3306 <Code_870+0x2>
    3436:	f7fe fc58 	bl	1cea <Code_429>
    343a:	e764      	b.n	3306 <Code_870+0x2>

0000343c <.interpret_opcodierbar>:
    343c:	2007      	movs	r0, #7
    343e:	4001      	ands	r1, r0
    3440:	0010      	movs	r0, r2
    3442:	f7fe fd40 	bl	1ec6 <suchedefinitionsende>
    3446:	2901      	cmp	r1, #1
    3448:	d11f      	bne.n	348a <.interpret_opcodierbar_rechenlogik>
    344a:	2b01      	cmp	r3, #1
    344c:	d1dc      	bne.n	3408 <.interpret_faltoptimierung>
    344e:	21ff      	movs	r1, #255	; 0xff
    3450:	4031      	ands	r1, r6
    3452:	42b1      	cmp	r1, r6
    3454:	d104      	bne.n	3460 <.interpret_opcodierbar+0x24>
    3456:	8840      	ldrh	r0, [r0, #2]
    3458:	4306      	orrs	r6, r0
    345a:	f7fe ff37 	bl	22cc <Code_544>
    345e:	e752      	b.n	3306 <Code_870+0x2>
    3460:	f7fe fb32 	bl	1ac8 <Code_408>
    3464:	2e00      	cmp	r6, #0
    3466:	cf40      	ldmia	r7!, {r6}
    3468:	d004      	beq.n	3474 <.interpret_opcodieren_ueber_r0>
    346a:	6840      	ldr	r0, [r0, #4]
    346c:	4306      	orrs	r6, r0
    346e:	f7fe ff55 	bl	231c <Code_553>
    3472:	e748      	b.n	3306 <Code_870+0x2>

00003474 <.interpret_opcodieren_ueber_r0>:
    3474:	f847 6d04 	str.w	r6, [r7, #-4]!
    3478:	2600      	movs	r6, #0
    347a:	f7fe fbd9 	bl	1c30 <Code_417>
    347e:	f847 6d04 	str.w	r6, [r7, #-4]!
    3482:	8806      	ldrh	r6, [r0, #0]
    3484:	f7fe ff22 	bl	22cc <Code_544>
    3488:	e73d      	b.n	3306 <Code_870+0x2>

0000348a <.interpret_opcodierbar_rechenlogik>:
    348a:	2902      	cmp	r1, #2
    348c:	d102      	bne.n	3494 <.interpret_opcodierbar_gleichungleich>
    348e:	2b01      	cmp	r3, #1
    3490:	d1ba      	bne.n	3408 <.interpret_faltoptimierung>
    3492:	e7ef      	b.n	3474 <.interpret_opcodieren_ueber_r0>

00003494 <.interpret_opcodierbar_gleichungleich>:
    3494:	2903      	cmp	r1, #3
    3496:	d126      	bne.n	34e6 <.interpret_opcodierbar_schieben>
    3498:	2b01      	cmp	r3, #1
    349a:	d1b5      	bne.n	3408 <.interpret_faltoptimierung>
    349c:	21ff      	movs	r1, #255	; 0xff
    349e:	4031      	ands	r1, r6
    34a0:	42b1      	cmp	r1, r6
    34a2:	d10a      	bne.n	34ba <.interpret_opcodierbar_gleichungleich+0x26>
    34a4:	4962      	ldr	r1, [pc, #392]	; (3630 <quit_innenschleife+0x28>)
    34a6:	430e      	orrs	r6, r1
    34a8:	f7fe ff10 	bl	22cc <Code_544>
    34ac:	3204      	adds	r2, #4
    34ae:	f847 6d04 	str.w	r6, [r7, #-4]!
    34b2:	0016      	movs	r6, r2
    34b4:	f7fe fcf0 	bl	1e98 <Code_460>
    34b8:	e725      	b.n	3306 <Code_870+0x2>
    34ba:	f7fe fb05 	bl	1ac8 <Code_408>
    34be:	2e00      	cmp	r6, #0
    34c0:	cf40      	ldmia	r7!, {r6}
    34c2:	d004      	beq.n	34ce <.interpret_opcodierbar_gleichungleich+0x3a>
    34c4:	495b      	ldr	r1, [pc, #364]	; (3634 <quit_innenschleife+0x2c>)
    34c6:	430e      	orrs	r6, r1
    34c8:	f7fe ff28 	bl	231c <Code_553>
    34cc:	e7ee      	b.n	34ac <.interpret_opcodierbar_gleichungleich+0x18>
    34ce:	f847 6d04 	str.w	r6, [r7, #-4]!
    34d2:	2600      	movs	r6, #0
    34d4:	f7fe fbac 	bl	1c30 <Code_417>
    34d8:	3202      	adds	r2, #2
    34da:	f847 6d04 	str.w	r6, [r7, #-4]!
    34de:	0016      	movs	r6, r2
    34e0:	f7fe fcda 	bl	1e98 <Code_460>
    34e4:	e70f      	b.n	3306 <Code_870+0x2>

000034e6 <.interpret_opcodierbar_schieben>:
    34e6:	2904      	cmp	r1, #4
    34e8:	d118      	bne.n	351c <.interpret_opcodierbar_speicherschreiben>
    34ea:	2b01      	cmp	r3, #1
    34ec:	d18c      	bne.n	3408 <.interpret_faltoptimierung>
    34ee:	0033      	movs	r3, r6
    34f0:	cf40      	ldmia	r7!, {r6}
    34f2:	2b00      	cmp	r3, #0
    34f4:	d100      	bne.n	34f8 <.interpret_opcodierbar_schieben+0x12>
    34f6:	e706      	b.n	3306 <Code_870+0x2>
    34f8:	221f      	movs	r2, #31
    34fa:	401a      	ands	r2, r3
    34fc:	429a      	cmp	r2, r3
    34fe:	d005      	beq.n	350c <.interpret_opcodierbar_schieben+0x26>
    3500:	f847 6d04 	str.w	r6, [r7, #-4]!
    3504:	8846      	ldrh	r6, [r0, #2]
    3506:	f7fe fee1 	bl	22cc <Code_544>
    350a:	e6fc      	b.n	3306 <Code_870+0x2>
    350c:	f847 6d04 	str.w	r6, [r7, #-4]!
    3510:	8806      	ldrh	r6, [r0, #0]
    3512:	019b      	lsls	r3, r3, #6
    3514:	431e      	orrs	r6, r3
    3516:	f7fe fed9 	bl	22cc <Code_544>
    351a:	e6f4      	b.n	3306 <Code_870+0x2>

0000351c <.interpret_opcodierbar_speicherschreiben>:
    351c:	2905      	cmp	r1, #5
    351e:	d124      	bne.n	356a <.interpret_opcodierbar_andere>
    3520:	2b01      	cmp	r3, #1
    3522:	d110      	bne.n	3546 <.interpret_opcodierbar_speicherschreiben+0x2a>
    3524:	f847 6d04 	str.w	r6, [r7, #-4]!
    3528:	2600      	movs	r6, #0
    352a:	f7fe fb81 	bl	1c30 <Code_417>
    352e:	f847 6d04 	str.w	r6, [r7, #-4]!
    3532:	0006      	movs	r6, r0
    3534:	f7fe fcb0 	bl	1e98 <Code_460>
    3538:	f847 6d04 	str.w	r6, [r7, #-4]!
    353c:	f64c 7640 	movw	r6, #53056	; 0xcf40
    3540:	f7fe fec4 	bl	22cc <Code_544>
    3544:	e6df      	b.n	3306 <Code_870+0x2>
    3546:	f847 6d04 	str.w	r6, [r7, #-4]!
    354a:	2600      	movs	r6, #0
    354c:	f7fe fb70 	bl	1c30 <Code_417>
    3550:	f847 6d04 	str.w	r6, [r7, #-4]!
    3554:	2601      	movs	r6, #1
    3556:	f7fe fb6b 	bl	1c30 <Code_417>
    355a:	f7fe fcb4 	bl	1ec6 <suchedefinitionsende>
    355e:	f847 6d04 	str.w	r6, [r7, #-4]!
    3562:	0006      	movs	r6, r0
    3564:	f7fe fc98 	bl	1e98 <Code_460>
    3568:	e6cd      	b.n	3306 <Code_870+0x2>

0000356a <.interpret_opcodierbar_andere>:
    356a:	2906      	cmp	r1, #6
    356c:	d10e      	bne.n	358c <.interpret_opcodierbar_andere+0x22>
    356e:	2b01      	cmp	r3, #1
    3570:	f47f af4a 	bne.w	3408 <.interpret_faltoptimierung>
    3574:	f7fe faa8 	bl	1ac8 <Code_408>
    3578:	2e00      	cmp	r6, #0
    357a:	cf40      	ldmia	r7!, {r6}
    357c:	f43f af7a 	beq.w	3474 <.interpret_opcodieren_ueber_r0>
    3580:	f8d0 0002 	ldr.w	r0, [r0, #2]
    3584:	4306      	orrs	r6, r0
    3586:	f7fe fec9 	bl	231c <Code_553>
    358a:	e6bc      	b.n	3306 <Code_870+0x2>
    358c:	3001      	adds	r0, #1
    358e:	4780      	blx	r0
    3590:	e6b9      	b.n	3306 <Code_870+0x2>

00003592 <konstantenschreiben>:
    3592:	b500      	push	{lr}
    3594:	2b00      	cmp	r3, #0
    3596:	d00c      	beq.n	35b2 <.konstanteninnenschleife+0x1a>

00003598 <.konstanteninnenschleife>:
    3598:	3b01      	subs	r3, #1
    359a:	f847 6d04 	str.w	r6, [r7, #-4]!
    359e:	001e      	movs	r6, r3
    35a0:	f857 6026 	ldr.w	r6, [r7, r6, lsl #2]
    35a4:	f7fe fbd6 	bl	1d54 <Code_434>
    35a8:	2b00      	cmp	r3, #0
    35aa:	d1f5      	bne.n	3598 <.konstanteninnenschleife>
    35ac:	3d04      	subs	r5, #4
    35ae:	002f      	movs	r7, r5
    35b0:	cf40      	ldmia	r7!, {r6}
    35b2:	2500      	movs	r5, #0
    35b4:	6025      	str	r5, [r4, #0]
    35b6:	bd00      	pop	{pc}

000035b8 <Dictionary_922>:
    35b8:	000035d4 	ldrdeq	r3, [r0], -r4
    35bc:	68090081 	stmdavs	r9, {r0, r7}
    35c0:	2d6b6f6f 	stclcs	15, cr6, [fp, #-444]!	; 0xfffffe44
    35c4:	74697571 	strbtvc	r7, [r9], #-1393	; 0x571

000035c8 <Code_922>:
    35c8:	f847 6d04 	str.w	r6, [r7, #-4]!
    35cc:	4e1a      	ldr	r6, [pc, #104]	; (3638 <quit_innenschleife+0x30>)
    35ce:	4770      	bx	lr
    35d0:	00003608 	andeq	r3, r0, r8, lsl #12

000035d4 <Dictionary_925>:
    35d4:	0000364c 	andeq	r3, r0, ip, asr #12
    35d8:	71040000 	mrsvc	r0, (UNDEF: 4)
    35dc:	00746975 	rsbseq	r6, r4, r5, ror r9

000035e0 <Code_925>:
    35e0:	f8df d058 	ldr.w	sp, [pc, #88]	; 363c <quit_innenschleife+0x34>
    35e4:	4f0e      	ldr	r7, [pc, #56]	; (3620 <quit_innenschleife+0x18>)
    35e6:	4816      	ldr	r0, [pc, #88]	; (3640 <quit_innenschleife+0x38>)
    35e8:	210a      	movs	r1, #10
    35ea:	6001      	str	r1, [r0, #0]
    35ec:	480f      	ldr	r0, [pc, #60]	; (362c <quit_innenschleife+0x24>)
    35ee:	2100      	movs	r1, #0
    35f0:	6001      	str	r1, [r0, #0]
    35f2:	480d      	ldr	r0, [pc, #52]	; (3628 <quit_innenschleife+0x20>)
    35f4:	6001      	str	r1, [r0, #0]
    35f6:	4809      	ldr	r0, [pc, #36]	; (361c <quit_innenschleife+0x14>)
    35f8:	6001      	str	r1, [r0, #0]
    35fa:	4812      	ldr	r0, [pc, #72]	; (3644 <quit_innenschleife+0x3c>)
    35fc:	6001      	str	r1, [r0, #0]
    35fe:	4912      	ldr	r1, [pc, #72]	; (3648 <quit_innenschleife+0x40>)
    3600:	6041      	str	r1, [r0, #4]

00003602 <quit_intern>:
    3602:	480d      	ldr	r0, [pc, #52]	; (3638 <quit_innenschleife+0x30>)
    3604:	6800      	ldr	r0, [r0, #0]
    3606:	4687      	mov	pc, r0

00003608 <quit_innenschleife>:
    3608:	f7fe f871 	bl	16ee <Code_318>
    360c:	f7ff fe7a 	bl	3304 <Code_870>
    3610:	f7fe f915 	bl	183e <dotgaensefuesschen>
    3614:	6b6f2005 	blvs	1bcb630 <BIT24+0xbcb630>
    3618:	e7f50a2e 	ldrb	r0, [r5, lr, lsr #20]!
    361c:	20007fe4 	andcs	r7, r0, r4, ror #31
    3620:	20000230 	andcs	r0, r0, r0, lsr r2
    3624:	20000130 	andcs	r0, r0, r0, lsr r1
    3628:	20000008 	andcs	r0, r0, r8
    362c:	20007fd8 	ldrdcs	r7, [r0], -r8
    3630:	00003e00 	andeq	r3, r0, r0, lsl #28
    3634:	f1b60600 			; <UNDEFINED> instruction: 0xf1b60600
    3638:	20007fd4 	ldrdcs	r7, [r0], -r4
    363c:	20000330 	andcs	r0, r0, r0, lsr r3
    3640:	20007ffc 	strdcs	r7, [r0], -ip
    3644:	20007fdc 	ldrdcs	r7, [r0], -ip
    3648:	20000068 	andcs	r0, r0, r8, rrx

0000364c <Dictionary_927>:
    364c:	00003666 	andeq	r3, r0, r6, ror #12
    3650:	65050000 	strvs	r0, [r5]
    3654:	3f746e69 	svccc	0x00746e69

00003658 <Code_927>:
    3658:	f847 6d04 	str.w	r6, [r7, #-4]!
    365c:	f3ef 8610 	mrs	r6, PRIMASK
    3660:	3e01      	subs	r6, #1
    3662:	41b6      	sbcs	r6, r6
    3664:	4770      	bx	lr

00003666 <Dictionary_929>:
    3666:	00003676 	andeq	r3, r0, r6, ror r6
    366a:	65040020 	strvs	r0, [r4, #-32]
    366e:	00746e69 	rsbseq	r6, r4, r9, ror #28

00003672 <Code_929>:
    3672:	b662      	cpsie	i
    3674:	4770      	bx	lr

00003676 <Dictionary_930>:
    3676:	00003686 	andeq	r3, r0, r6, lsl #13
    367a:	64040020 	strvs	r0, [r4], #-32
    367e:	00746e69 	rsbseq	r6, r4, r9, ror #28

00003682 <Code_930>:
    3682:	b672      	cpsid	i
    3684:	4770      	bx	lr

00003686 <Dictionary_931>:
    3686:	0000369c 	muleq	r0, ip, r6
    368a:	69040020 	stmdbvs	r4, {r5}
    368e:	00727370 	rsbseq	r7, r2, r0, ror r3

00003692 <Code_931>:
    3692:	f847 6d04 	str.w	r6, [r7, #-4]!
    3696:	f3ef 8605 	mrs	r6, IPSR
    369a:	4770      	bx	lr

0000369c <Dictionary_933>:
    369c:	000036a8 	andeq	r3, r0, r8, lsr #13
    36a0:	6e030000 	cdpvs	0, 0, cr0, cr3, cr0, {0}
    36a4:	4770706f 	ldrbmi	r7, [r0, -pc, rrx]!

000036a6 <Code_933>:
    36a6:	4770      	bx	lr

000036a8 <Dictionary_934>:
    36a8:	000036ea 	andeq	r3, r0, sl, ror #13
    36ac:	75090000 	strvc	r0, [r9]
    36b0:	6e61686e 	cdpvs	8, 6, cr6, cr1, cr14, {3}
    36b4:	64656c64 	strbtvs	r6, [r5], #-3172	; 0xc64

000036b8 <Code_934>:
    36b8:	b500      	push	{lr}
    36ba:	f7fe f8c0 	bl	183e <dotgaensefuesschen>
    36be:	686e5514 	stmdavs	lr!, {r2, r4, r8, sl, ip, lr}^
    36c2:	6c646e61 	stclvs	14, cr6, [r4], #-388	; 0xfffffe7c
    36c6:	49206465 	stmdbmi	r0!, {r0, r2, r5, r6, sl, sp, lr}
    36ca:	7265746e 	rsbvc	r7, r5, #1845493760	; 0x6e000000
    36ce:	74707572 	ldrbtvc	r7, [r0], #-1394	; 0x572
    36d2:	f8470020 			; <UNDEFINED> instruction: 0xf8470020
    36d6:	6d04      	ldr	r4, [r0, #80]	; 0x50
    36d8:	f3ef 8605 	mrs	r6, IPSR
    36dc:	f7fe f922 	bl	1924 <Code_372>
    36e0:	f7fe f8ad 	bl	183e <dotgaensefuesschen>
    36e4:	000a2102 	andeq	r2, sl, r2, lsl #2
    36e8:	bd00      	pop	{pc}

000036ea <Dictionary_938>:
    36ea:	00003700 	andeq	r3, r0, r0, lsl #14
    36ee:	72050000 	andvc	r0, r5, #0
    36f2:	74657365 	strbtvc	r7, [r5], #-869	; 0x365

000036f6 <Code_938>:
    36f6:	f8df 044c 	ldr.w	r0, [pc, #1100]	; 3b44 <init_name+0x6>
    36fa:	f8df 144c 	ldr.w	r1, [pc, #1100]	; 3b48 <init_name+0xa>
    36fe:	6001      	str	r1, [r0, #0]

00003700 <Dictionary_940>:
    3700:	0000372c 	andeq	r3, r0, ip, lsr #14
    3704:	690b0081 	stmdbvs	fp, {r0, r7}
    3708:	732d7172 	teqvc	sp, #-2147483620	; 0x8000001c
    370c:	69747379 	ldmdbvs	r4!, {r0, r3, r4, r5, r6, r8, r9, ip, sp, lr}^
    3710:	f8476b63 			; <UNDEFINED> instruction: 0xf8476b63

00003712 <Code_940>:
    3712:	f847 6d04 	str.w	r6, [r7, #-4]!
    3716:	f8df 6434 	ldr.w	r6, [pc, #1076]	; 3b4c <init_name+0xe>
    371a:	4770      	bx	lr
    371c:	000036b8 			; <UNDEFINED> instruction: 0x000036b8

00003720 <irq_vektor_systick>:
    3720:	f647 70d0 	movw	r0, #32720	; 0x7fd0
    3724:	f2c2 0000 	movt	r0, #8192	; 0x2000
    3728:	6800      	ldr	r0, [r0, #0]
    372a:	4687      	mov	pc, r0

0000372c <Dictionary_944>:
    372c:	00003756 	andeq	r3, r0, r6, asr r7
    3730:	69090081 	stmdbvs	r9, {r0, r7}
    3734:	662d7172 			; <UNDEFINED> instruction: 0x662d7172
    3738:	746c7561 	strbtvc	r7, [ip], #-1377	; 0x561

0000373c <Code_944>:
    373c:	f847 6d04 	str.w	r6, [r7, #-4]!
    3740:	f8df 640c 	ldr.w	r6, [pc, #1036]	; 3b50 <init_name+0x12>
    3744:	4770      	bx	lr
    3746:	000036b8 			; <UNDEFINED> instruction: 0x000036b8

0000374a <faulthandler>:
    374a:	f647 70cc 	movw	r0, #32716	; 0x7fcc
    374e:	f2c2 0000 	movt	r0, #8192	; 0x2000
    3752:	6800      	ldr	r0, [r0, #0]
    3754:	4687      	mov	pc, r0

00003756 <Dictionary_948>:
    3756:	00003784 	andeq	r3, r0, r4, lsl #15
    375a:	690e0081 	stmdbvs	lr, {r0, r7}
    375e:	632d7172 	teqvs	sp, #-2147483620	; 0x8000001c
    3762:	656c6c6f 	strbvs	r6, [ip, #-3183]!	; 0xc6f
    3766:	6f697463 	svcvs	0x00697463
    376a:	f847006e 			; <UNDEFINED> instruction: 0xf847006e

0000376c <Code_948>:
    376c:	f847 6d04 	str.w	r6, [r7, #-4]!
    3770:	4ef8      	ldr	r6, [pc, #992]	; (3b54 <init_name+0x16>)
    3772:	4770      	bx	lr
    3774:	000036b8 			; <UNDEFINED> instruction: 0x000036b8

00003778 <nullhandler>:
    3778:	f647 70c8 	movw	r0, #32712	; 0x7fc8
    377c:	f2c2 0000 	movt	r0, #8192	; 0x2000
    3780:	6800      	ldr	r0, [r0, #0]
    3782:	4687      	mov	pc, r0

00003784 <Dictionary_952>:
    3784:	000037ac 	andeq	r3, r0, ip, lsr #15
    3788:	69090081 	stmdbvs	r9, {r0, r7}
    378c:	702d7172 	eorvc	r7, sp, r2, ror r1
    3790:	6174726f 	cmnvs	r4, pc, ror #4

00003794 <Code_952>:
    3794:	f847 6d04 	str.w	r6, [r7, #-4]!
    3798:	4eef      	ldr	r6, [pc, #956]	; (3b58 <init_name+0x1a>)
    379a:	4770      	bx	lr
    379c:	000036b8 			; <UNDEFINED> instruction: 0x000036b8

000037a0 <irq_vektor_porta>:
    37a0:	f647 70c4 	movw	r0, #32708	; 0x7fc4
    37a4:	f2c2 0000 	movt	r0, #8192	; 0x2000
    37a8:	6800      	ldr	r0, [r0, #0]
    37aa:	4687      	mov	pc, r0

000037ac <Dictionary_956>:
    37ac:	000037d4 	ldrdeq	r3, [r0], -r4
    37b0:	69090081 	stmdbvs	r9, {r0, r7}
    37b4:	702d7172 	eorvc	r7, sp, r2, ror r1
    37b8:	6274726f 	rsbsvs	r7, r4, #-268435450	; 0xf0000006

000037bc <Code_956>:
    37bc:	f847 6d04 	str.w	r6, [r7, #-4]!
    37c0:	4ee6      	ldr	r6, [pc, #920]	; (3b5c <init_name+0x1e>)
    37c2:	4770      	bx	lr
    37c4:	000036b8 			; <UNDEFINED> instruction: 0x000036b8

000037c8 <irq_vektor_portb>:
    37c8:	f647 70c0 	movw	r0, #32704	; 0x7fc0
    37cc:	f2c2 0000 	movt	r0, #8192	; 0x2000
    37d0:	6800      	ldr	r0, [r0, #0]
    37d2:	4687      	mov	pc, r0

000037d4 <Dictionary_960>:
    37d4:	000037fc 	strdeq	r3, [r0], -ip
    37d8:	69090081 	stmdbvs	r9, {r0, r7}
    37dc:	702d7172 	eorvc	r7, sp, r2, ror r1
    37e0:	6374726f 	cmnvs	r4, #-268435450	; 0xf0000006

000037e4 <Code_960>:
    37e4:	f847 6d04 	str.w	r6, [r7, #-4]!
    37e8:	4edd      	ldr	r6, [pc, #884]	; (3b60 <init_name+0x22>)
    37ea:	4770      	bx	lr
    37ec:	000036b8 			; <UNDEFINED> instruction: 0x000036b8

000037f0 <irq_vektor_portc>:
    37f0:	f647 70bc 	movw	r0, #32700	; 0x7fbc
    37f4:	f2c2 0000 	movt	r0, #8192	; 0x2000
    37f8:	6800      	ldr	r0, [r0, #0]
    37fa:	4687      	mov	pc, r0

000037fc <Dictionary_964>:
    37fc:	00003824 	andeq	r3, r0, r4, lsr #16
    3800:	69090081 	stmdbvs	r9, {r0, r7}
    3804:	702d7172 	eorvc	r7, sp, r2, ror r1
    3808:	6474726f 	ldrbtvs	r7, [r4], #-623	; 0x26f

0000380c <Code_964>:
    380c:	f847 6d04 	str.w	r6, [r7, #-4]!
    3810:	4ed4      	ldr	r6, [pc, #848]	; (3b64 <init_name+0x26>)
    3812:	4770      	bx	lr
    3814:	000036b8 			; <UNDEFINED> instruction: 0x000036b8

00003818 <irq_vektor_portd>:
    3818:	f647 70b8 	movw	r0, #32696	; 0x7fb8
    381c:	f2c2 0000 	movt	r0, #8192	; 0x2000
    3820:	6800      	ldr	r0, [r0, #0]
    3822:	4687      	mov	pc, r0

00003824 <Dictionary_968>:
    3824:	0000384c 	andeq	r3, r0, ip, asr #16
    3828:	69090081 	stmdbvs	r9, {r0, r7}
    382c:	702d7172 	eorvc	r7, sp, r2, ror r1
    3830:	6574726f 	ldrbvs	r7, [r4, #-623]!	; 0x26f

00003834 <Code_968>:
    3834:	f847 6d04 	str.w	r6, [r7, #-4]!
    3838:	4ecb      	ldr	r6, [pc, #812]	; (3b68 <init_name+0x2a>)
    383a:	4770      	bx	lr
    383c:	000036b8 			; <UNDEFINED> instruction: 0x000036b8

00003840 <irq_vektor_porte>:
    3840:	f647 70b4 	movw	r0, #32692	; 0x7fb4
    3844:	f2c2 0000 	movt	r0, #8192	; 0x2000
    3848:	6800      	ldr	r0, [r0, #0]
    384a:	4687      	mov	pc, r0

0000384c <Dictionary_972>:
    384c:	00003874 	andeq	r3, r0, r4, ror r8
    3850:	69090081 	stmdbvs	r9, {r0, r7}
    3854:	702d7172 	eorvc	r7, sp, r2, ror r1
    3858:	6674726f 	ldrbtvs	r7, [r4], -pc, ror #4

0000385c <Code_972>:
    385c:	f847 6d04 	str.w	r6, [r7, #-4]!
    3860:	4ec2      	ldr	r6, [pc, #776]	; (3b6c <init_name+0x2e>)
    3862:	4770      	bx	lr
    3864:	000036b8 			; <UNDEFINED> instruction: 0x000036b8

00003868 <irq_vektor_portf>:
    3868:	f647 70b0 	movw	r0, #32688	; 0x7fb0
    386c:	f2c2 0000 	movt	r0, #8192	; 0x2000
    3870:	6800      	ldr	r0, [r0, #0]
    3872:	4687      	mov	pc, r0

00003874 <Dictionary_976>:
    3874:	000038a0 	andeq	r3, r0, r0, lsr #17
    3878:	690c0081 	stmdbvs	ip, {r0, r7}
    387c:	612d7172 	teqvs	sp, r2, ror r1
    3880:	73306364 	teqvc	r0, #-1879048191	; 0x90000001
    3884:	00307165 	eorseq	r7, r0, r5, ror #2

00003888 <Code_976>:
    3888:	f847 6d04 	str.w	r6, [r7, #-4]!
    388c:	4eb8      	ldr	r6, [pc, #736]	; (3b70 <init_name+0x32>)
    388e:	4770      	bx	lr
    3890:	000036b8 			; <UNDEFINED> instruction: 0x000036b8

00003894 <irq_vektor_adc0seq0>:
    3894:	f647 70ac 	movw	r0, #32684	; 0x7fac
    3898:	f2c2 0000 	movt	r0, #8192	; 0x2000
    389c:	6800      	ldr	r0, [r0, #0]
    389e:	4687      	mov	pc, r0

000038a0 <Dictionary_980>:
    38a0:	000038cc 	andeq	r3, r0, ip, asr #17
    38a4:	690c0081 	stmdbvs	ip, {r0, r7}
    38a8:	612d7172 	teqvs	sp, r2, ror r1
    38ac:	73306364 	teqvc	r0, #-1879048191	; 0x90000001
    38b0:	00317165 	eorseq	r7, r1, r5, ror #2

000038b4 <Code_980>:
    38b4:	f847 6d04 	str.w	r6, [r7, #-4]!
    38b8:	4eae      	ldr	r6, [pc, #696]	; (3b74 <init_name+0x36>)
    38ba:	4770      	bx	lr
    38bc:	000036b8 			; <UNDEFINED> instruction: 0x000036b8

000038c0 <irq_vektor_adc0seq1>:
    38c0:	f647 70a8 	movw	r0, #32680	; 0x7fa8
    38c4:	f2c2 0000 	movt	r0, #8192	; 0x2000
    38c8:	6800      	ldr	r0, [r0, #0]
    38ca:	4687      	mov	pc, r0

000038cc <Dictionary_984>:
    38cc:	000038f8 	strdeq	r3, [r0], -r8
    38d0:	690c0081 	stmdbvs	ip, {r0, r7}
    38d4:	612d7172 	teqvs	sp, r2, ror r1
    38d8:	73306364 	teqvc	r0, #-1879048191	; 0x90000001
    38dc:	00327165 	eorseq	r7, r2, r5, ror #2

000038e0 <Code_984>:
    38e0:	f847 6d04 	str.w	r6, [r7, #-4]!
    38e4:	4ea4      	ldr	r6, [pc, #656]	; (3b78 <init_name+0x3a>)
    38e6:	4770      	bx	lr
    38e8:	000036b8 			; <UNDEFINED> instruction: 0x000036b8

000038ec <irq_vektor_adc0seq2>:
    38ec:	f647 70a4 	movw	r0, #32676	; 0x7fa4
    38f0:	f2c2 0000 	movt	r0, #8192	; 0x2000
    38f4:	6800      	ldr	r0, [r0, #0]
    38f6:	4687      	mov	pc, r0

000038f8 <Dictionary_988>:
    38f8:	00003924 	andeq	r3, r0, r4, lsr #18
    38fc:	690c0081 	stmdbvs	ip, {r0, r7}
    3900:	612d7172 	teqvs	sp, r2, ror r1
    3904:	73306364 	teqvc	r0, #-1879048191	; 0x90000001
    3908:	00337165 	eorseq	r7, r3, r5, ror #2

0000390c <Code_988>:
    390c:	f847 6d04 	str.w	r6, [r7, #-4]!
    3910:	4e9a      	ldr	r6, [pc, #616]	; (3b7c <init_name+0x3e>)
    3912:	4770      	bx	lr
    3914:	000036b8 			; <UNDEFINED> instruction: 0x000036b8

00003918 <irq_vektor_adc0seq3>:
    3918:	f647 70a0 	movw	r0, #32672	; 0x7fa0
    391c:	f2c2 0000 	movt	r0, #8192	; 0x2000
    3920:	6800      	ldr	r0, [r0, #0]
    3922:	4687      	mov	pc, r0

00003924 <Dictionary_992>:
    3924:	0000394e 	andeq	r3, r0, lr, asr #18
    3928:	690b0081 	stmdbvs	fp, {r0, r7}
    392c:	742d7172 	strtvc	r7, [sp], #-370	; 0x172
    3930:	72656d69 	rsbvc	r6, r5, #6720	; 0x1a40
    3934:	f8476130 			; <UNDEFINED> instruction: 0xf8476130

00003936 <Code_992>:
    3936:	f847 6d04 	str.w	r6, [r7, #-4]!
    393a:	4e91      	ldr	r6, [pc, #580]	; (3b80 <init_name+0x42>)
    393c:	4770      	bx	lr
    393e:	000036b8 			; <UNDEFINED> instruction: 0x000036b8

00003942 <irq_vektor_timer0a>:
    3942:	f647 709c 	movw	r0, #32668	; 0x7f9c
    3946:	f2c2 0000 	movt	r0, #8192	; 0x2000
    394a:	6800      	ldr	r0, [r0, #0]
    394c:	4687      	mov	pc, r0

0000394e <Dictionary_996>:
    394e:	00003978 	andeq	r3, r0, r8, ror r9
    3952:	690b0081 	stmdbvs	fp, {r0, r7}
    3956:	742d7172 	strtvc	r7, [sp], #-370	; 0x172
    395a:	72656d69 	rsbvc	r6, r5, #6720	; 0x1a40
    395e:	f8476230 			; <UNDEFINED> instruction: 0xf8476230

00003960 <Code_996>:
    3960:	f847 6d04 	str.w	r6, [r7, #-4]!
    3964:	4e87      	ldr	r6, [pc, #540]	; (3b84 <init_name+0x46>)
    3966:	4770      	bx	lr
    3968:	000036b8 			; <UNDEFINED> instruction: 0x000036b8

0000396c <irq_vektor_timer0b>:
    396c:	f647 7098 	movw	r0, #32664	; 0x7f98
    3970:	f2c2 0000 	movt	r0, #8192	; 0x2000
    3974:	6800      	ldr	r0, [r0, #0]
    3976:	4687      	mov	pc, r0

00003978 <Dictionary_1000>:
    3978:	000039a2 	andeq	r3, r0, r2, lsr #19
    397c:	690b0081 	stmdbvs	fp, {r0, r7}
    3980:	742d7172 	strtvc	r7, [sp], #-370	; 0x172
    3984:	72656d69 	rsbvc	r6, r5, #6720	; 0x1a40
    3988:	f8476131 			; <UNDEFINED> instruction: 0xf8476131

0000398a <Code_1000>:
    398a:	f847 6d04 	str.w	r6, [r7, #-4]!
    398e:	4e7e      	ldr	r6, [pc, #504]	; (3b88 <init_name+0x4a>)
    3990:	4770      	bx	lr
    3992:	000036b8 			; <UNDEFINED> instruction: 0x000036b8

00003996 <irq_vektor_timer1a>:
    3996:	f647 7094 	movw	r0, #32660	; 0x7f94
    399a:	f2c2 0000 	movt	r0, #8192	; 0x2000
    399e:	6800      	ldr	r0, [r0, #0]
    39a0:	4687      	mov	pc, r0

000039a2 <Dictionary_1004>:
    39a2:	000039cc 	andeq	r3, r0, ip, asr #19
    39a6:	690b0081 	stmdbvs	fp, {r0, r7}
    39aa:	742d7172 	strtvc	r7, [sp], #-370	; 0x172
    39ae:	72656d69 	rsbvc	r6, r5, #6720	; 0x1a40
    39b2:	f8476231 			; <UNDEFINED> instruction: 0xf8476231

000039b4 <Code_1004>:
    39b4:	f847 6d04 	str.w	r6, [r7, #-4]!
    39b8:	4e74      	ldr	r6, [pc, #464]	; (3b8c <init_name+0x4e>)
    39ba:	4770      	bx	lr
    39bc:	000036b8 			; <UNDEFINED> instruction: 0x000036b8

000039c0 <irq_vektor_timer1b>:
    39c0:	f647 7090 	movw	r0, #32656	; 0x7f90
    39c4:	f2c2 0000 	movt	r0, #8192	; 0x2000
    39c8:	6800      	ldr	r0, [r0, #0]
    39ca:	4687      	mov	pc, r0

000039cc <Dictionary_1008>:
    39cc:	000039f6 	strdeq	r3, [r0], -r6
    39d0:	690b0081 	stmdbvs	fp, {r0, r7}
    39d4:	742d7172 	strtvc	r7, [sp], #-370	; 0x172
    39d8:	72656d69 	rsbvc	r6, r5, #6720	; 0x1a40
    39dc:	f8476132 			; <UNDEFINED> instruction: 0xf8476132

000039de <Code_1008>:
    39de:	f847 6d04 	str.w	r6, [r7, #-4]!
    39e2:	4e6b      	ldr	r6, [pc, #428]	; (3b90 <init_name+0x52>)
    39e4:	4770      	bx	lr
    39e6:	000036b8 			; <UNDEFINED> instruction: 0x000036b8

000039ea <irq_vektor_timer2a>:
    39ea:	f647 708c 	movw	r0, #32652	; 0x7f8c
    39ee:	f2c2 0000 	movt	r0, #8192	; 0x2000
    39f2:	6800      	ldr	r0, [r0, #0]
    39f4:	4687      	mov	pc, r0

000039f6 <Dictionary_1012>:
    39f6:	00003a20 	andeq	r3, r0, r0, lsr #20
    39fa:	690b0081 	stmdbvs	fp, {r0, r7}
    39fe:	742d7172 	strtvc	r7, [sp], #-370	; 0x172
    3a02:	72656d69 	rsbvc	r6, r5, #6720	; 0x1a40
    3a06:	f8476232 			; <UNDEFINED> instruction: 0xf8476232

00003a08 <Code_1012>:
    3a08:	f847 6d04 	str.w	r6, [r7, #-4]!
    3a0c:	4e61      	ldr	r6, [pc, #388]	; (3b94 <init_name+0x56>)
    3a0e:	4770      	bx	lr
    3a10:	000036b8 			; <UNDEFINED> instruction: 0x000036b8

00003a14 <irq_vektor_timer2b>:
    3a14:	f647 7088 	movw	r0, #32648	; 0x7f88
    3a18:	f2c2 0000 	movt	r0, #8192	; 0x2000
    3a1c:	6800      	ldr	r0, [r0, #0]
    3a1e:	4687      	mov	pc, r0

00003a20 <Dictionary_1015>:
    3a20:	00004000 	andeq	r4, r0, r0
    3a24:	2d18ffff 	ldccs	15, cr15, [r8, #-1020]	; 0xfffffc04
    3a28:	46202d2d 	strtmi	r2, [r0], -sp, lsr #26
    3a2c:	6873616c 	ldmdavs	r3!, {r2, r3, r5, r6, r8, sp, lr}^
    3a30:	63694420 	cmnvs	r9, #536870912	; 0x20000000
    3a34:	6e6f6974 	mcrvs	9, 3, r6, cr15, cr4, {3}
    3a38:	20797261 	rsbscs	r7, r9, r1, ror #4
    3a3c:	002d2d2d 	eoreq	r2, sp, sp, lsr #26

00003a40 <Code_1015>:
    3a40:	f7fd fd68 	bl	1514 <uart_init>
    3a44:	4854      	ldr	r0, [pc, #336]	; (3b98 <init_name+0x5a>)
    3a46:	4685      	mov	sp, r0
    3a48:	4f54      	ldr	r7, [pc, #336]	; (3b9c <init_name+0x5e>)
    3a4a:	262a      	movs	r6, #42	; 0x2a
    3a4c:	4854      	ldr	r0, [pc, #336]	; (3ba0 <init_name+0x62>)
    3a4e:	4952      	ldr	r1, [pc, #328]	; (3b98 <init_name+0x5a>)
    3a50:	6001      	str	r1, [r0, #0]
    3a52:	4854      	ldr	r0, [pc, #336]	; (3ba4 <init_name+0x66>)
    3a54:	4954      	ldr	r1, [pc, #336]	; (3ba8 <init_name+0x6a>)
    3a56:	6001      	str	r1, [r0, #0]
    3a58:	f847 6d04 	str.w	r6, [r7, #-4]!
    3a5c:	4e52      	ldr	r6, [pc, #328]	; (3ba8 <init_name+0x6a>)
    3a5e:	4d53      	ldr	r5, [pc, #332]	; (3bac <init_name+0x6e>)

00003a60 <SucheFlashPointer_Hangelschleife>:
    3a60:	88b1      	ldrh	r1, [r6, #4]
    3a62:	4b53      	ldr	r3, [pc, #332]	; (3bb0 <init_name+0x72>)
    3a64:	4299      	cmp	r1, r3
    3a66:	d024      	beq.n	3ab2 <Sucheflashpointer_Speicherbelegung_fertig>
    3a68:	4b52      	ldr	r3, [pc, #328]	; (3bb4 <init_name+0x76>)
    3a6a:	400b      	ands	r3, r1
    3a6c:	d00a      	beq.n	3a84 <SucheFlashPointer_Hangelschleife+0x24>
    3a6e:	1db0      	adds	r0, r6, #6
    3a70:	f7fe feda 	bl	2828 <skipstring>
    3a74:	f7fe fa27 	bl	1ec6 <suchedefinitionsende>
    3a78:	8803      	ldrh	r3, [r0, #0]
    3a7a:	8840      	ldrh	r0, [r0, #2]
    3a7c:	0400      	lsls	r0, r0, #16
    3a7e:	4303      	orrs	r3, r0
    3a80:	1aed      	subs	r5, r5, r3
    3a82:	e016      	b.n	3ab2 <Sucheflashpointer_Speicherbelegung_fertig>
    3a84:	2380      	movs	r3, #128	; 0x80
    3a86:	400b      	ands	r3, r1
    3a88:	d013      	beq.n	3ab2 <Sucheflashpointer_Speicherbelegung_fertig>
    3a8a:	230f      	movs	r3, #15
    3a8c:	4019      	ands	r1, r3
    3a8e:	0089      	lsls	r1, r1, #2
    3a90:	1a6d      	subs	r5, r5, r1
    3a92:	1db0      	adds	r0, r6, #6
    3a94:	f7fe fec8 	bl	2828 <skipstring>
    3a98:	f7fe fa15 	bl	1ec6 <suchedefinitionsende>
    3a9c:	f847 6d04 	str.w	r6, [r7, #-4]!
    3aa0:	0006      	movs	r6, r0
    3aa2:	f847 6d04 	str.w	r6, [r7, #-4]!
    3aa6:	002e      	movs	r6, r5
    3aa8:	f847 6d04 	str.w	r6, [r7, #-4]!
    3aac:	000e      	movs	r6, r1
    3aae:	f7fd f8d5 	bl	c5c <Code_180>

00003ab2 <Sucheflashpointer_Speicherbelegung_fertig>:
    3ab2:	f7fe fe97 	bl	27e4 <Code_633>
    3ab6:	0030      	movs	r0, r6
    3ab8:	cf40      	ldmia	r7!, {r6}
    3aba:	d0d1      	beq.n	3a60 <SucheFlashPointer_Hangelschleife>
    3abc:	483e      	ldr	r0, [pc, #248]	; (3bb8 <init_name+0x7a>)
    3abe:	6006      	str	r6, [r0, #0]
    3ac0:	cf40      	ldmia	r7!, {r6}
    3ac2:	483e      	ldr	r0, [pc, #248]	; (3bbc <init_name+0x7e>)
    3ac4:	6005      	str	r5, [r0, #0]
    3ac6:	483e      	ldr	r0, [pc, #248]	; (3bc0 <init_name+0x82>)
    3ac8:	493e      	ldr	r1, [pc, #248]	; (3bc4 <init_name+0x86>)
    3aca:	4a39      	ldr	r2, [pc, #228]	; (3bb0 <init_name+0x72>)
    3acc:	4288      	cmp	r0, r1
    3ace:	d004      	beq.n	3ada <Sucheflashpointer_Speicherbelegung_fertig+0x28>
    3ad0:	3802      	subs	r0, #2
    3ad2:	8803      	ldrh	r3, [r0, #0]
    3ad4:	4293      	cmp	r3, r2
    3ad6:	d0f9      	beq.n	3acc <Sucheflashpointer_Speicherbelegung_fertig+0x1a>
    3ad8:	3002      	adds	r0, #2
    3ada:	493b      	ldr	r1, [pc, #236]	; (3bc8 <init_name+0x8a>)
    3adc:	6008      	str	r0, [r1, #0]
    3ade:	f7fd feae 	bl	183e <dotgaensefuesschen>
    3ae2:	63654d35 	cmnvs	r5, #3392	; 0xd40
    3ae6:	70736972 	rsbsvc	r6, r3, r2, ror r9
    3aea:	6574532d 	ldrbvs	r5, [r4, #-813]!	; 0x32d
    3aee:	72616c6c 	rsbvc	r6, r1, #27648	; 0x6c00
    3af2:	32207369 	eorcc	r7, r0, #-1543503871	; 0xa4000001
    3af6:	312e322e 	teqcc	lr, lr, lsr #4
    3afa:	726f6620 	rsbvc	r6, pc, #33554432	; 0x2000000
    3afe:	344d4c20 	strbcc	r4, [sp], #-3104	; 0xc20
    3b02:	32333246 	eorscc	r3, r3, #1610612740	; 0x60000004
    3b06:	20796220 	rsbscs	r6, r9, r0, lsr #4
    3b0a:	7474614d 	ldrbtvc	r6, [r4], #-333	; 0x14d
    3b0e:	73616968 	cmnvc	r1, #1703936	; 0x1a0000
    3b12:	636f4b20 	cmnvs	pc, #32768	; 0x8000
    3b16:	482c0a68 	stmdami	ip!, {r3, r5, r6, r9, fp}
    3b1a:	2100      	movs	r1, #0
    3b1c:	6001      	str	r1, [r0, #0]
    3b1e:	f847 6d04 	str.w	r6, [r7, #-4]!
    3b22:	4e2b      	ldr	r6, [pc, #172]	; (3bd0 <init_name+0x92>)
    3b24:	f847 6d04 	str.w	r6, [r7, #-4]!
    3b28:	2604      	movs	r6, #4
    3b2a:	f7fe fe8c 	bl	2846 <Code_638>
    3b2e:	cf40      	ldmia	r7!, {r6}
    3b30:	2e00      	cmp	r6, #0
    3b32:	d002      	beq.n	3b3a <Sucheflashpointer_Speicherbelegung_fertig+0x88>
    3b34:	f7fe fa4e 	bl	1fd4 <Code_482>
    3b38:	e563      	b.n	3602 <quit_intern>
    3b3a:	cf40      	ldmia	r7!, {r6}
    3b3c:	e550      	b.n	35e0 <Code_925>

00003b3e <init_name>:
    3b3e:	74696e69 	strbtvc	r6, [r9], #-3689	; 0xe69
    3b42:	ed0c0000 	stc	0, cr0, [ip]
    3b46:	0004e000 	andeq	lr, r4, r0
    3b4a:	7fd005fa 	svcvc	0x00d005fa
    3b4e:	7fcc2000 	svcvc	0x00cc2000
    3b52:	7fc82000 	svcvc	0x00c82000
    3b56:	7fc42000 	svcvc	0x00c42000
    3b5a:	7fc02000 	svcvc	0x00c02000
    3b5e:	7fbc2000 	svcvc	0x00bc2000
    3b62:	7fb82000 	svcvc	0x00b82000
    3b66:	7fb42000 	svcvc	0x00b42000
    3b6a:	7fb02000 	svcvc	0x00b02000
    3b6e:	7fac2000 	svcvc	0x00ac2000
    3b72:	7fa82000 	svcvc	0x00a82000
    3b76:	7fa42000 	svcvc	0x00a42000
    3b7a:	7fa02000 	svcvc	0x00a02000
    3b7e:	7f9c2000 	svcvc	0x009c2000
    3b82:	7f982000 	svcvc	0x00982000
    3b86:	7f942000 	svcvc	0x00942000
    3b8a:	7f902000 	svcvc	0x00902000
    3b8e:	7f8c2000 	svcvc	0x008c2000
    3b92:	7f882000 	svcvc	0x00882000
    3b96:	03302000 	teqeq	r0, #0
    3b9a:	02302000 	eorseq	r2, r0, #0
    3b9e:	00002000 	andeq	r2, r0, r0
    3ba2:	00042000 	andeq	r2, r4, r0
    3ba6:	01ec2000 	mvneq	r2, r0
    3baa:	80000000 	andhi	r0, r0, r0
    3bae:	ffff2000 			; <UNDEFINED> instruction: 0xffff2000
    3bb2:	01000000 	mrseq	r0, (UNDEF: 0)
    3bb6:	001c0000 	andseq	r0, ip, r0
    3bba:	00242000 	eoreq	r2, r4, r0
    3bbe:	00002000 	andeq	r2, r0, r0
    3bc2:	40000004 	andmi	r0, r0, r4
    3bc6:	00180000 	andseq	r0, r8, r0
    3bca:	00082000 	andeq	r2, r8, r0
    3bce:	3b3e2000 	blcc	f8bbd6 <BIT23+0x78bbd6>
	...

Disassembly of section .ARM.attributes:

00000000 <.ARM.attributes>:
   0:	00002041 	andeq	r2, r0, r1, asr #32
   4:	61656100 	cmnvs	r5, r0, lsl #2
   8:	01006962 	tsteq	r0, r2, ror #18
   c:	00000016 	andeq	r0, r0, r6, lsl r0
  10:	726f4305 	rsbvc	r4, pc, #335544320	; 0x14000000
  14:	2d786574 	cfldr64cs	mvdx6, [r8, #-464]!	; 0xfffffe30
  18:	0600344d 	streq	r3, [r0], -sp, asr #8
  1c:	094d070d 	stmdbeq	sp, {r0, r2, r3, r8, r9, sl}^
  20:	Address 0x00000020 is out of bounds.

