
mecrisp-stellaris-xmc1100.elf:     file format elf32-littlearm


Disassembly of section .text:

10001000 <addresszero>:
10001000:	20000580 	andcs	r0, r0, r0, lsl #11
10001004:	10005cb9 			; <UNDEFINED> instruction: 0x10005cb9
10001008:	ffffffff 			; <UNDEFINED> instruction: 0xffffffff
1000100c:	ffffffff 			; <UNDEFINED> instruction: 0xffffffff
10001010:	ffffffff 			; <UNDEFINED> instruction: 0xffffffff
10001014:	00000008 	andeq	r0, r0, r8

10001018 <CoreDictionaryAnfang>:
10001018:	1000146c 	andne	r1, r0, ip, ror #8
1000101c:	2d1effff 	ldccs	15, cr15, [lr, #-1020]	; 0xfffffc04
10001020:	4d202d2d 	stcmi	13, cr2, [r0, #-180]!	; 0xffffff4c
10001024:	69726365 	ldmdbvs	r2!, {r0, r2, r5, r6, r8, r9, sp, lr}^
10001028:	532d7073 	teqpl	sp, #115	; 0x73
1000102c:	6c6c6574 	cfstr64vs	mvdx6, [ip], #-464	; 0xfffffe30
10001030:	73697261 	cmnvc	r9, #268435462	; 0x10000006
10001034:	726f4320 	rsbvc	r4, pc, #-2147483648	; 0x80000000
10001038:	2d2d2065 	stccs	0, cr2, [sp, #-404]!	; 0xfffffe6c
1000103c:	b507002d 	strlt	r0, [r7, #-45]	; 0x2d

1000103e <Code_34>:
1000103e:	b507      	push	{r0, r1, r2, lr}
10001040:	4890      	ldr	r0, [pc, #576]	; (10001284 <r0_unfrei+0x18>)
10001042:	2b00      	cmp	r3, #0
10001044:	d009      	beq.n	1000105a <Code_34+0x1c>
10001046:	f000 f83b 	bl	100010c0 <free_5os_element>
1000104a:	f000 f841 	bl	100010d0 <elemente_einen_weiterrutschen_lassen>
1000104e:	f000 f827 	bl	100010a0 <nget_faltkonstante>
10001052:	6042      	str	r2, [r0, #4]
10001054:	2128      	movs	r1, #40	; 0x28
10001056:	6001      	str	r1, [r0, #0]
10001058:	e7f3      	b.n	10001042 <Code_34+0x4>
1000105a:	bd07      	pop	{r0, r1, r2, pc}

1000105c <nfaltkonstanten_aufschwimmen>:
1000105c:	b500      	push	{lr}
1000105e:	4889      	ldr	r0, [pc, #548]	; (10001284 <r0_unfrei+0x18>)
10001060:	2300      	movs	r3, #0
10001062:	6801      	ldr	r1, [r0, #0]
10001064:	2928      	cmp	r1, #40	; 0x28
10001066:	d105      	bne.n	10001074 <nfaltkonstanten_aufschwimmen+0x18>
10001068:	6842      	ldr	r2, [r0, #4]
1000106a:	f000 f804 	bl	10001076 <npush_faltkonstante>
1000106e:	f000 f84c 	bl	1000110a <eliminiere_tos>
10001072:	e7f6      	b.n	10001062 <nfaltkonstanten_aufschwimmen+0x6>
10001074:	bd00      	pop	{pc}

10001076 <npush_faltkonstante>:
10001076:	b503      	push	{r0, r1, lr}
10001078:	3f04      	subs	r7, #4
1000107a:	603e      	str	r6, [r7, #0]
1000107c:	0016      	movs	r6, r2
1000107e:	3f04      	subs	r7, #4
10001080:	603e      	str	r6, [r7, #0]
10001082:	001e      	movs	r6, r3
10001084:	b408      	push	{r3}
10001086:	f000 ffcf 	bl	10002028 <Code_235>
1000108a:	bc08      	pop	{r3}
1000108c:	3301      	adds	r3, #1
1000108e:	3f04      	subs	r7, #4
10001090:	603e      	str	r6, [r7, #0]
10001092:	4e7d      	ldr	r6, [pc, #500]	; (10001288 <r0_unfrei+0x1c>)
10001094:	3f04      	subs	r7, #4
10001096:	603e      	str	r6, [r7, #0]
10001098:	4e7c      	ldr	r6, [pc, #496]	; (1000128c <r0_unfrei+0x20>)
1000109a:	f004 fa4c 	bl	10005536 <add_to_inline_cache>
1000109e:	bd03      	pop	{r0, r1, pc}

100010a0 <nget_faltkonstante>:
100010a0:	b503      	push	{r0, r1, lr}
100010a2:	3b01      	subs	r3, #1
100010a4:	3f04      	subs	r7, #4
100010a6:	603e      	str	r6, [r7, #0]
100010a8:	001e      	movs	r6, r3
100010aa:	b408      	push	{r3}
100010ac:	f000 ffa6 	bl	10001ffc <Code_233>
100010b0:	bc08      	pop	{r3}
100010b2:	0032      	movs	r2, r6
100010b4:	3f04      	subs	r7, #4
100010b6:	603e      	str	r6, [r7, #0]
100010b8:	4e75      	ldr	r6, [pc, #468]	; (10001290 <r0_unfrei+0x24>)
100010ba:	f004 fa3c 	bl	10005536 <add_to_inline_cache>
100010be:	bd03      	pop	{r0, r1, pc}

100010c0 <free_5os_element>:
100010c0:	b503      	push	{r0, r1, lr}
100010c2:	4874      	ldr	r0, [pc, #464]	; (10001294 <r0_unfrei+0x28>)
100010c4:	6801      	ldr	r1, [r0, #0]
100010c6:	291e      	cmp	r1, #30
100010c8:	d001      	beq.n	100010ce <free_5os_element+0xe>
100010ca:	f000 f834 	bl	10001136 <element_to_stack>
100010ce:	bd03      	pop	{r0, r1, pc}

100010d0 <elemente_einen_weiterrutschen_lassen>:
100010d0:	6981      	ldr	r1, [r0, #24]
100010d2:	6201      	str	r1, [r0, #32]
100010d4:	6901      	ldr	r1, [r0, #16]
100010d6:	6181      	str	r1, [r0, #24]
100010d8:	6881      	ldr	r1, [r0, #8]
100010da:	6101      	str	r1, [r0, #16]
100010dc:	6801      	ldr	r1, [r0, #0]
100010de:	6081      	str	r1, [r0, #8]
100010e0:	69c1      	ldr	r1, [r0, #28]
100010e2:	6241      	str	r1, [r0, #36]	; 0x24
100010e4:	6941      	ldr	r1, [r0, #20]
100010e6:	61c1      	str	r1, [r0, #28]
100010e8:	68c1      	ldr	r1, [r0, #12]
100010ea:	6141      	str	r1, [r0, #20]
100010ec:	6841      	ldr	r1, [r0, #4]
100010ee:	60c1      	str	r1, [r0, #12]
100010f0:	211e      	movs	r1, #30
100010f2:	6001      	str	r1, [r0, #0]
100010f4:	4770      	bx	lr

100010f6 <befreie_tos>:
100010f6:	b50f      	push	{r0, r1, r2, r3, lr}
100010f8:	4862      	ldr	r0, [pc, #392]	; (10001284 <r0_unfrei+0x18>)
100010fa:	6801      	ldr	r1, [r0, #0]
100010fc:	291e      	cmp	r1, #30
100010fe:	d003      	beq.n	10001108 <befreie_tos+0x12>
10001100:	f7ff ffde 	bl	100010c0 <free_5os_element>
10001104:	f7ff ffe4 	bl	100010d0 <elemente_einen_weiterrutschen_lassen>
10001108:	bd0f      	pop	{r0, r1, r2, r3, pc}

1000110a <eliminiere_tos>:
1000110a:	b502      	push	{r1, lr}
1000110c:	6881      	ldr	r1, [r0, #8]
1000110e:	6001      	str	r1, [r0, #0]
10001110:	68c1      	ldr	r1, [r0, #12]
10001112:	6041      	str	r1, [r0, #4]
10001114:	e000      	b.n	10001118 <eliminiere_nos+0x2>

10001116 <eliminiere_nos>:
10001116:	b502      	push	{r1, lr}
10001118:	6901      	ldr	r1, [r0, #16]
1000111a:	6081      	str	r1, [r0, #8]
1000111c:	6941      	ldr	r1, [r0, #20]
1000111e:	60c1      	str	r1, [r0, #12]
10001120:	6981      	ldr	r1, [r0, #24]
10001122:	6101      	str	r1, [r0, #16]
10001124:	69c1      	ldr	r1, [r0, #28]
10001126:	6141      	str	r1, [r0, #20]
10001128:	6a01      	ldr	r1, [r0, #32]
1000112a:	6181      	str	r1, [r0, #24]
1000112c:	6a41      	ldr	r1, [r0, #36]	; 0x24
1000112e:	61c1      	str	r1, [r0, #28]
10001130:	211e      	movs	r1, #30
10001132:	6201      	str	r1, [r0, #32]
10001134:	bd02      	pop	{r1, pc}

10001136 <element_to_stack>:
10001136:	b508      	push	{r3, lr}
10001138:	6801      	ldr	r1, [r0, #0]
1000113a:	221e      	movs	r2, #30
1000113c:	6002      	str	r2, [r0, #0]
1000113e:	2908      	cmp	r1, #8
10001140:	d201      	bcs.n	10001146 <element_to_stack+0x10>
10001142:	000b      	movs	r3, r1
10001144:	e004      	b.n	10001150 <element_to_stack+0x1a>
10001146:	2928      	cmp	r1, #40	; 0x28
10001148:	d10d      	bne.n	10001166 <element_to_stack+0x30>
1000114a:	6843      	ldr	r3, [r0, #4]
1000114c:	f000 f85d 	bl	1000120a <generiere_konstante>
10001150:	3f04      	subs	r7, #4
10001152:	603e      	str	r6, [r7, #0]
10001154:	4e50      	ldr	r6, [pc, #320]	; (10001298 <r0_unfrei+0x2c>)
10001156:	f003 f878 	bl	1000424a <Code_836>
1000115a:	3f04      	subs	r7, #4
1000115c:	603e      	str	r6, [r7, #0]
1000115e:	4e4f      	ldr	r6, [pc, #316]	; (1000129c <r0_unfrei+0x30>)
10001160:	431e      	orrs	r6, r3
10001162:	f003 f872 	bl	1000424a <Code_836>
10001166:	bd08      	pop	{r3, pc}

10001168 <tidyup_register_allocator>:
10001168:	b500      	push	{lr}
1000116a:	f000 f809 	bl	10001180 <tidyup_register_allocator_5os>
1000116e:	f000 f80c 	bl	1000118a <tidyup_register_allocator_4os>
10001172:	f000 f80f 	bl	10001194 <tidyup_register_allocator_3os>
10001176:	f000 f812 	bl	1000119e <tidyup_register_allocator_nos>
1000117a:	f000 f815 	bl	100011a8 <tidyup_register_allocator_tos>
1000117e:	bd00      	pop	{pc}

10001180 <tidyup_register_allocator_5os>:
10001180:	b50f      	push	{r0, r1, r2, r3, lr}
10001182:	4844      	ldr	r0, [pc, #272]	; (10001294 <r0_unfrei+0x28>)
10001184:	f7ff ffd7 	bl	10001136 <element_to_stack>
10001188:	bd0f      	pop	{r0, r1, r2, r3, pc}

1000118a <tidyup_register_allocator_4os>:
1000118a:	b50f      	push	{r0, r1, r2, r3, lr}
1000118c:	4844      	ldr	r0, [pc, #272]	; (100012a0 <r0_unfrei+0x34>)
1000118e:	f7ff ffd2 	bl	10001136 <element_to_stack>
10001192:	bd0f      	pop	{r0, r1, r2, r3, pc}

10001194 <tidyup_register_allocator_3os>:
10001194:	b50f      	push	{r0, r1, r2, r3, lr}
10001196:	4843      	ldr	r0, [pc, #268]	; (100012a4 <r0_unfrei+0x38>)
10001198:	f7ff ffcd 	bl	10001136 <element_to_stack>
1000119c:	bd0f      	pop	{r0, r1, r2, r3, pc}

1000119e <tidyup_register_allocator_nos>:
1000119e:	b50f      	push	{r0, r1, r2, r3, lr}
100011a0:	4841      	ldr	r0, [pc, #260]	; (100012a8 <r0_unfrei+0x3c>)
100011a2:	f7ff ffc8 	bl	10001136 <element_to_stack>
100011a6:	bd0f      	pop	{r0, r1, r2, r3, pc}

100011a8 <tidyup_register_allocator_tos>:
100011a8:	b50f      	push	{r0, r1, r2, r3, lr}
100011aa:	4836      	ldr	r0, [pc, #216]	; (10001284 <r0_unfrei+0x18>)
100011ac:	6801      	ldr	r1, [r0, #0]
100011ae:	2206      	movs	r2, #6
100011b0:	6002      	str	r2, [r0, #0]
100011b2:	291e      	cmp	r1, #30
100011b4:	d105      	bne.n	100011c2 <tidyup_register_allocator_tos+0x1a>
100011b6:	3f04      	subs	r7, #4
100011b8:	603e      	str	r6, [r7, #0]
100011ba:	4e3c      	ldr	r6, [pc, #240]	; (100012ac <r0_unfrei+0x40>)
100011bc:	f003 f845 	bl	1000424a <Code_836>
100011c0:	e014      	b.n	100011ec <tidyup_finish>
100011c2:	2928      	cmp	r1, #40	; 0x28
100011c4:	d109      	bne.n	100011da <tidyup_register_allocator_tos+0x32>
100011c6:	6843      	ldr	r3, [r0, #4]
100011c8:	3f04      	subs	r7, #4
100011ca:	603e      	str	r6, [r7, #0]
100011cc:	001e      	movs	r6, r3
100011ce:	3f04      	subs	r7, #4
100011d0:	603e      	str	r6, [r7, #0]
100011d2:	2606      	movs	r6, #6
100011d4:	f002 fc56 	bl	10003a84 <Code_685>
100011d8:	e008      	b.n	100011ec <tidyup_finish>
100011da:	2906      	cmp	r1, #6
100011dc:	d006      	beq.n	100011ec <tidyup_finish>
100011de:	3f04      	subs	r7, #4
100011e0:	603e      	str	r6, [r7, #0]
100011e2:	4e33      	ldr	r6, [pc, #204]	; (100012b0 <r0_unfrei+0x44>)
100011e4:	00c9      	lsls	r1, r1, #3
100011e6:	430e      	orrs	r6, r1
100011e8:	f003 f82f 	bl	1000424a <Code_836>

100011ec <tidyup_finish>:
100011ec:	f000 f801 	bl	100011f2 <init_register_allocator>
100011f0:	bd0f      	pop	{r0, r1, r2, r3, pc}

100011f2 <init_register_allocator>:
100011f2:	4824      	ldr	r0, [pc, #144]	; (10001284 <r0_unfrei+0x18>)
100011f4:	211e      	movs	r1, #30
100011f6:	6201      	str	r1, [r0, #32]
100011f8:	6181      	str	r1, [r0, #24]
100011fa:	6101      	str	r1, [r0, #16]
100011fc:	6081      	str	r1, [r0, #8]
100011fe:	62c1      	str	r1, [r0, #44]	; 0x2c
10001200:	2106      	movs	r1, #6
10001202:	6001      	str	r1, [r0, #0]
10001204:	2100      	movs	r1, #0
10001206:	6281      	str	r1, [r0, #40]	; 0x28
10001208:	4770      	bx	lr

1000120a <generiere_konstante>:
1000120a:	b507      	push	{r0, r1, r2, lr}
1000120c:	3f04      	subs	r7, #4
1000120e:	603e      	str	r6, [r7, #0]
10001210:	001e      	movs	r6, r3
10001212:	f000 f84f 	bl	100012b4 <get_free_register>
10001216:	3f04      	subs	r7, #4
10001218:	603e      	str	r6, [r7, #0]
1000121a:	001e      	movs	r6, r3
1000121c:	f002 fc32 	bl	10003a84 <Code_685>
10001220:	bd07      	pop	{r0, r1, r2, pc}

10001222 <generiere_adresskonstante>:
10001222:	b507      	push	{r0, r1, r2, lr}
10001224:	6ac1      	ldr	r1, [r0, #44]	; 0x2c
10001226:	2928      	cmp	r1, #40	; 0x28
10001228:	d104      	bne.n	10001234 <generiere_adresskonstante+0x12>
1000122a:	6b01      	ldr	r1, [r0, #48]	; 0x30
1000122c:	4299      	cmp	r1, r3
1000122e:	d101      	bne.n	10001234 <generiere_adresskonstante+0x12>
10001230:	2300      	movs	r3, #0
10001232:	bd07      	pop	{r0, r1, r2, pc}
10001234:	6801      	ldr	r1, [r0, #0]
10001236:	2900      	cmp	r1, #0
10001238:	d018      	beq.n	1000126c <r0_unfrei>
1000123a:	6881      	ldr	r1, [r0, #8]
1000123c:	2900      	cmp	r1, #0
1000123e:	d015      	beq.n	1000126c <r0_unfrei>
10001240:	6901      	ldr	r1, [r0, #16]
10001242:	2900      	cmp	r1, #0
10001244:	d012      	beq.n	1000126c <r0_unfrei>
10001246:	6981      	ldr	r1, [r0, #24]
10001248:	2900      	cmp	r1, #0
1000124a:	d00f      	beq.n	1000126c <r0_unfrei>
1000124c:	6a01      	ldr	r1, [r0, #32]
1000124e:	2900      	cmp	r1, #0
10001250:	d00c      	beq.n	1000126c <r0_unfrei>
10001252:	6303      	str	r3, [r0, #48]	; 0x30
10001254:	3f04      	subs	r7, #4
10001256:	603e      	str	r6, [r7, #0]
10001258:	001e      	movs	r6, r3
1000125a:	3f04      	subs	r7, #4
1000125c:	603e      	str	r6, [r7, #0]
1000125e:	2600      	movs	r6, #0
10001260:	f002 fc10 	bl	10003a84 <Code_685>
10001264:	2128      	movs	r1, #40	; 0x28
10001266:	62c1      	str	r1, [r0, #44]	; 0x2c
10001268:	2300      	movs	r3, #0
1000126a:	bd07      	pop	{r0, r1, r2, pc}

1000126c <r0_unfrei>:
1000126c:	3f04      	subs	r7, #4
1000126e:	603e      	str	r6, [r7, #0]
10001270:	001e      	movs	r6, r3
10001272:	f000 f81f 	bl	100012b4 <get_free_register>
10001276:	3f04      	subs	r7, #4
10001278:	603e      	str	r6, [r7, #0]
1000127a:	001e      	movs	r6, r3
1000127c:	f002 fc02 	bl	10003a84 <Code_685>
10001280:	bd07      	pop	{r0, r1, r2, pc}
10001282:	011c0000 	tsteq	ip, r0
10001286:	1dac2000 	stcne	0, cr2, [ip]
1000128a:	02611000 	rsbeq	r1, r1, #0
1000128e:	20000000 	andcs	r0, r0, r0
10001292:	013c0000 	teqeq	ip, r0
10001296:	3f042000 	svccc	0x00042000
1000129a:	60380000 	eorsvs	r0, r8, r0
1000129e:	01340000 	teqeq	r4, r0
100012a2:	012c2000 	teqeq	ip, r0
100012a6:	01242000 	teqeq	r4, r0
100012aa:	cf402000 	svcgt	0x00402000
100012ae:	46060000 	strmi	r0, [r6], -r0
	...

100012b4 <get_free_register>:
100012b4:	b537      	push	{r0, r1, r2, r4, r5, lr}
100012b6:	4836      	ldr	r0, [pc, #216]	; (10001390 <expect_four_elements+0x28>)
100012b8:	6801      	ldr	r1, [r0, #0]
100012ba:	6882      	ldr	r2, [r0, #8]
100012bc:	6903      	ldr	r3, [r0, #16]
100012be:	6984      	ldr	r4, [r0, #24]
100012c0:	6a05      	ldr	r5, [r0, #32]
100012c2:	2006      	movs	r0, #6
100012c4:	f000 f80e 	bl	100012e4 <get_free_register_intern>
100012c8:	2003      	movs	r0, #3
100012ca:	f000 f80b 	bl	100012e4 <get_free_register_intern>
100012ce:	2002      	movs	r0, #2
100012d0:	f000 f808 	bl	100012e4 <get_free_register_intern>
100012d4:	2001      	movs	r0, #1
100012d6:	f000 f805 	bl	100012e4 <get_free_register_intern>
100012da:	2300      	movs	r3, #0
100012dc:	482c      	ldr	r0, [pc, #176]	; (10001390 <expect_four_elements+0x28>)
100012de:	211e      	movs	r1, #30
100012e0:	62c1      	str	r1, [r0, #44]	; 0x2c
100012e2:	bd37      	pop	{r0, r1, r2, r4, r5, pc}

100012e4 <get_free_register_intern>:
100012e4:	4281      	cmp	r1, r0
100012e6:	d009      	beq.n	100012fc <get_free_register_intern+0x18>
100012e8:	4282      	cmp	r2, r0
100012ea:	d007      	beq.n	100012fc <get_free_register_intern+0x18>
100012ec:	4283      	cmp	r3, r0
100012ee:	d005      	beq.n	100012fc <get_free_register_intern+0x18>
100012f0:	4284      	cmp	r4, r0
100012f2:	d003      	beq.n	100012fc <get_free_register_intern+0x18>
100012f4:	4285      	cmp	r5, r0
100012f6:	d001      	beq.n	100012fc <get_free_register_intern+0x18>
100012f8:	0003      	movs	r3, r0
100012fa:	bd37      	pop	{r0, r1, r2, r4, r5, pc}
100012fc:	4770      	bx	lr

100012fe <erstes_element_belegen>:
100012fe:	3f04      	subs	r7, #4
10001300:	603e      	str	r6, [r7, #0]
10001302:	4e24      	ldr	r6, [pc, #144]	; (10001394 <expect_four_elements+0x2c>)

10001304 <element_belegen>:
10001304:	b500      	push	{lr}
10001306:	5881      	ldr	r1, [r0, r2]
10001308:	291e      	cmp	r1, #30
1000130a:	d105      	bne.n	10001318 <element_belegen+0x14>
1000130c:	f7ff ffd2 	bl	100012b4 <get_free_register>
10001310:	5083      	str	r3, [r0, r2]
10001312:	2101      	movs	r1, #1
10001314:	4099      	lsls	r1, r3
10001316:	430e      	orrs	r6, r1
10001318:	bd00      	pop	{pc}

1000131a <expect_one_element>:
1000131a:	b500      	push	{lr}
1000131c:	6801      	ldr	r1, [r0, #0]
1000131e:	291e      	cmp	r1, #30
10001320:	d104      	bne.n	1000132c <expect_one_element+0x12>
10001322:	2200      	movs	r2, #0
10001324:	f7ff ffeb 	bl	100012fe <erstes_element_belegen>
10001328:	f002 ff8f 	bl	1000424a <Code_836>
1000132c:	bd00      	pop	{pc}

1000132e <expect_two_elements>:
1000132e:	b500      	push	{lr}
10001330:	6881      	ldr	r1, [r0, #8]
10001332:	291e      	cmp	r1, #30
10001334:	d107      	bne.n	10001346 <expect_two_elements+0x18>
10001336:	2208      	movs	r2, #8
10001338:	f7ff ffe1 	bl	100012fe <erstes_element_belegen>
1000133c:	2200      	movs	r2, #0
1000133e:	f7ff ffe1 	bl	10001304 <element_belegen>
10001342:	f002 ff82 	bl	1000424a <Code_836>
10001346:	bd00      	pop	{pc}

10001348 <expect_three_elements>:
10001348:	b500      	push	{lr}
1000134a:	6901      	ldr	r1, [r0, #16]
1000134c:	291e      	cmp	r1, #30
1000134e:	d10a      	bne.n	10001366 <expect_three_elements+0x1e>
10001350:	2210      	movs	r2, #16
10001352:	f7ff ffd4 	bl	100012fe <erstes_element_belegen>
10001356:	2208      	movs	r2, #8
10001358:	f7ff ffd4 	bl	10001304 <element_belegen>
1000135c:	2200      	movs	r2, #0
1000135e:	f7ff ffd1 	bl	10001304 <element_belegen>
10001362:	f002 ff72 	bl	1000424a <Code_836>
10001366:	bd00      	pop	{pc}

10001368 <expect_four_elements>:
10001368:	b500      	push	{lr}
1000136a:	6981      	ldr	r1, [r0, #24]
1000136c:	291e      	cmp	r1, #30
1000136e:	d10d      	bne.n	1000138c <expect_four_elements+0x24>
10001370:	2218      	movs	r2, #24
10001372:	f7ff ffc4 	bl	100012fe <erstes_element_belegen>
10001376:	2210      	movs	r2, #16
10001378:	f7ff ffc4 	bl	10001304 <element_belegen>
1000137c:	2208      	movs	r2, #8
1000137e:	f7ff ffc1 	bl	10001304 <element_belegen>
10001382:	2200      	movs	r2, #0
10001384:	f7ff ffbe 	bl	10001304 <element_belegen>
10001388:	f002 ff5f 	bl	1000424a <Code_836>
1000138c:	bd00      	pop	{pc}
1000138e:	011c0000 	tsteq	ip, r0
10001392:	cf002000 	svcgt	0x00002000
	...

10001398 <expect_tos_in_register>:
10001398:	b500      	push	{lr}
1000139a:	6801      	ldr	r1, [r0, #0]
1000139c:	2928      	cmp	r1, #40	; 0x28
1000139e:	d104      	bne.n	100013aa <expect_tos_in_register+0x12>
100013a0:	6843      	ldr	r3, [r0, #4]
100013a2:	f7ff ff32 	bl	1000120a <generiere_konstante>
100013a6:	6003      	str	r3, [r0, #0]
100013a8:	0019      	movs	r1, r3
100013aa:	bd00      	pop	{pc}

100013ac <expect_nos_in_register>:
100013ac:	b500      	push	{lr}
100013ae:	6881      	ldr	r1, [r0, #8]
100013b0:	2928      	cmp	r1, #40	; 0x28
100013b2:	d104      	bne.n	100013be <expect_nos_in_register+0x12>
100013b4:	68c3      	ldr	r3, [r0, #12]
100013b6:	f7ff ff28 	bl	1000120a <generiere_konstante>
100013ba:	6083      	str	r3, [r0, #8]
100013bc:	0019      	movs	r1, r3
100013be:	bd00      	pop	{pc}

100013c0 <expect_3os_in_register>:
100013c0:	b500      	push	{lr}
100013c2:	6901      	ldr	r1, [r0, #16]
100013c4:	2928      	cmp	r1, #40	; 0x28
100013c6:	d104      	bne.n	100013d2 <expect_3os_in_register+0x12>
100013c8:	6943      	ldr	r3, [r0, #20]
100013ca:	f7ff ff1e 	bl	1000120a <generiere_konstante>
100013ce:	6103      	str	r3, [r0, #16]
100013d0:	0019      	movs	r1, r3
100013d2:	bd00      	pop	{pc}

100013d4 <nos_change_tos_away_later>:
100013d4:	b53e      	push	{r1, r2, r3, r4, r5, lr}
100013d6:	6882      	ldr	r2, [r0, #8]
100013d8:	6903      	ldr	r3, [r0, #16]
100013da:	6984      	ldr	r4, [r0, #24]
100013dc:	6a05      	ldr	r5, [r0, #32]
100013de:	429a      	cmp	r2, r3
100013e0:	d003      	beq.n	100013ea <nos_change_tos_away_later+0x16>
100013e2:	42a2      	cmp	r2, r4
100013e4:	d001      	beq.n	100013ea <nos_change_tos_away_later+0x16>
100013e6:	42aa      	cmp	r2, r5
100013e8:	d10a      	bne.n	10001400 <nos_change_tos_away_later+0x2c>
100013ea:	2a07      	cmp	r2, #7
100013ec:	d808      	bhi.n	10001400 <nos_change_tos_away_later+0x2c>
100013ee:	3f04      	subs	r7, #4
100013f0:	603e      	str	r6, [r7, #0]
100013f2:	00d6      	lsls	r6, r2, #3
100013f4:	f7ff ff5e 	bl	100012b4 <get_free_register>
100013f8:	431e      	orrs	r6, r3
100013fa:	6083      	str	r3, [r0, #8]
100013fc:	f002 ff25 	bl	1000424a <Code_836>
10001400:	bd3e      	pop	{r1, r2, r3, r4, r5, pc}

10001402 <make_tos_changeable>:
10001402:	b53e      	push	{r1, r2, r3, r4, r5, lr}
10001404:	6801      	ldr	r1, [r0, #0]
10001406:	6882      	ldr	r2, [r0, #8]
10001408:	6903      	ldr	r3, [r0, #16]
1000140a:	6984      	ldr	r4, [r0, #24]
1000140c:	6a05      	ldr	r5, [r0, #32]
1000140e:	4291      	cmp	r1, r2
10001410:	d006      	beq.n	10001420 <make_tos_changeable+0x1e>
10001412:	4299      	cmp	r1, r3
10001414:	d004      	beq.n	10001420 <make_tos_changeable+0x1e>
10001416:	42a1      	cmp	r1, r4
10001418:	d002      	beq.n	10001420 <make_tos_changeable+0x1e>
1000141a:	42a9      	cmp	r1, r5
1000141c:	d000      	beq.n	10001420 <make_tos_changeable+0x1e>
1000141e:	bd3e      	pop	{r1, r2, r3, r4, r5, pc}
10001420:	3f04      	subs	r7, #4
10001422:	603e      	str	r6, [r7, #0]
10001424:	00ce      	lsls	r6, r1, #3
10001426:	f7ff ff45 	bl	100012b4 <get_free_register>
1000142a:	431e      	orrs	r6, r3
1000142c:	6003      	str	r3, [r0, #0]
1000142e:	f002 ff0c 	bl	1000424a <Code_836>
10001432:	bd3e      	pop	{r1, r2, r3, r4, r5, pc}

10001434 <tos_registerwechsel>:
10001434:	b500      	push	{lr}
10001436:	f7ff fe68 	bl	1000110a <eliminiere_tos>
1000143a:	f7ff fe5c 	bl	100010f6 <befreie_tos>
1000143e:	f7ff ff39 	bl	100012b4 <get_free_register>
10001442:	6003      	str	r3, [r0, #0]
10001444:	bd00      	pop	{pc}

10001446 <push_lr_nachholen>:
10001446:	b501      	push	{r0, lr}
10001448:	4806      	ldr	r0, [pc, #24]	; (10001464 <push_lr_nachholen+0x1e>)
1000144a:	6803      	ldr	r3, [r0, #0]
1000144c:	3301      	adds	r3, #1
1000144e:	d007      	beq.n	10001460 <push_lr_nachholen+0x1a>
10001450:	2300      	movs	r3, #0
10001452:	43db      	mvns	r3, r3
10001454:	6003      	str	r3, [r0, #0]
10001456:	3f04      	subs	r7, #4
10001458:	603e      	str	r6, [r7, #0]
1000145a:	4e03      	ldr	r6, [pc, #12]	; (10001468 <push_lr_nachholen+0x22>)
1000145c:	f002 fef5 	bl	1000424a <Code_836>
10001460:	bd01      	pop	{r0, pc}
10001462:	3fd80000 	svccc	0x00d80000
10001466:	b5002000 	strlt	r2, [r0]
	...

1000146c <Dictionary_74>:
1000146c:	10001490 	mulne	r0, r0, r4
10001470:	32040242 	andcc	r0, r4, #536870916	; 0x20000004
10001474:	00707564 	rsbseq	r7, r0, r4, ror #10

10001478 <Code_74>:
10001478:	6838      	ldr	r0, [r7, #0]
1000147a:	3f04      	subs	r7, #4
1000147c:	603e      	str	r6, [r7, #0]
1000147e:	3f04      	subs	r7, #4
10001480:	6038      	str	r0, [r7, #0]
10001482:	4770      	bx	lr
10001484:	b500      	push	{lr}
10001486:	f000 fce3 	bl	10001e50 <over_allocator>
1000148a:	f000 fce1 	bl	10001e50 <over_allocator>
1000148e:	bd00      	pop	{pc}

10001490 <Dictionary_76>:
10001490:	100014b0 			; <UNDEFINED> instruction: 0x100014b0
10001494:	32050262 	andcc	r0, r5, #536870918	; 0x20000006
10001498:	706f7264 	rsbvc	r7, pc, r4, ror #4

1000149c <Code_76>:
1000149c:	3704      	adds	r7, #4
1000149e:	cf40      	ldmia	r7!, {r6}
100014a0:	4770      	bx	lr
100014a2:	b500      	push	{lr}
100014a4:	f000 fc84 	bl	10001db0 <drop_allocator>
100014a8:	f000 fc82 	bl	10001db0 <drop_allocator>
100014ac:	bd00      	pop	{pc}
100014ae:	46c0      	nop			; (mov r8, r8)

100014b0 <Dictionary_78>:
100014b0:	100014f8 	strdne	r1, [r0], -r8
100014b4:	32050244 	andcc	r0, r5, #1073741828	; 0x40000004
100014b8:	70617773 	rsbvc	r7, r1, r3, ror r7

100014bc <Code_78>:
100014bc:	cf07      	ldmia	r7!, {r0, r1, r2}
100014be:	3f04      	subs	r7, #4
100014c0:	6038      	str	r0, [r7, #0]
100014c2:	3f04      	subs	r7, #4
100014c4:	603e      	str	r6, [r7, #0]
100014c6:	3f04      	subs	r7, #4
100014c8:	603a      	str	r2, [r7, #0]
100014ca:	000e      	movs	r6, r1
100014cc:	4770      	bx	lr

100014ce <dswap_allocator>:
100014ce:	b500      	push	{lr}
100014d0:	f7ff ff4a 	bl	10001368 <expect_four_elements>
100014d4:	6802      	ldr	r2, [r0, #0]
100014d6:	6903      	ldr	r3, [r0, #16]
100014d8:	6003      	str	r3, [r0, #0]
100014da:	6102      	str	r2, [r0, #16]
100014dc:	6842      	ldr	r2, [r0, #4]
100014de:	6943      	ldr	r3, [r0, #20]
100014e0:	6043      	str	r3, [r0, #4]
100014e2:	6142      	str	r2, [r0, #20]
100014e4:	6882      	ldr	r2, [r0, #8]
100014e6:	6983      	ldr	r3, [r0, #24]
100014e8:	6083      	str	r3, [r0, #8]
100014ea:	6182      	str	r2, [r0, #24]
100014ec:	68c2      	ldr	r2, [r0, #12]
100014ee:	69c3      	ldr	r3, [r0, #28]
100014f0:	60c3      	str	r3, [r0, #12]
100014f2:	61c2      	str	r2, [r0, #28]
100014f4:	bd00      	pop	{pc}
100014f6:	46c0      	nop			; (mov r8, r8)

100014f8 <Dictionary_80>:
100014f8:	10001520 	andne	r1, r0, r0, lsr #10
100014fc:	32040262 	andcc	r0, r4, #536870918	; 0x20000006
10001500:	0070696e 	rsbseq	r6, r0, lr, ror #18

10001504 <Code_80>:
10001504:	cf07      	ldmia	r7!, {r0, r1, r2}
10001506:	3f04      	subs	r7, #4
10001508:	6038      	str	r0, [r7, #0]
1000150a:	4770      	bx	lr
1000150c:	b500      	push	{lr}
1000150e:	f7ff ff2b 	bl	10001368 <expect_four_elements>
10001512:	f7ff ffdc 	bl	100014ce <dswap_allocator>
10001516:	f7ff fdf8 	bl	1000110a <eliminiere_tos>
1000151a:	f7ff fdf6 	bl	1000110a <eliminiere_tos>
1000151e:	bd00      	pop	{pc}

10001520 <Dictionary_81>:
10001520:	1000153c 	andne	r1, r0, ip, lsr r5
10001524:	32050044 	andcc	r0, r5, #68	; 0x44
10001528:	7265766f 	rsbvc	r7, r5, #116391936	; 0x6f00000

1000152c <Code_81>:
1000152c:	68b8      	ldr	r0, [r7, #8]
1000152e:	3f04      	subs	r7, #4
10001530:	603e      	str	r6, [r7, #0]
10001532:	3f04      	subs	r7, #4
10001534:	6038      	str	r0, [r7, #0]
10001536:	68fe      	ldr	r6, [r7, #12]
10001538:	4770      	bx	lr
1000153a:	46c0      	nop			; (mov r8, r8)

1000153c <Dictionary_83>:
1000153c:	10001560 	andne	r1, r0, r0, ror #10
10001540:	32050044 	andcc	r0, r5, #68	; 0x44
10001544:	6b637574 	blvs	118deb1c <FlashDictionaryEnde+0x18cdb1c>

10001548 <Code_83>:
10001548:	cf07      	ldmia	r7!, {r0, r1, r2}
1000154a:	3f04      	subs	r7, #4
1000154c:	6038      	str	r0, [r7, #0]
1000154e:	3f04      	subs	r7, #4
10001550:	603e      	str	r6, [r7, #0]
10001552:	3f04      	subs	r7, #4
10001554:	603a      	str	r2, [r7, #0]
10001556:	3f04      	subs	r7, #4
10001558:	6039      	str	r1, [r7, #0]
1000155a:	3f04      	subs	r7, #4
1000155c:	6038      	str	r0, [r7, #0]
1000155e:	4770      	bx	lr

10001560 <Dictionary_85>:
10001560:	10001584 	andne	r1, r0, r4, lsl #11
10001564:	32040046 	andcc	r0, r4, #70	; 0x46
10001568:	00746f72 	rsbseq	r6, r4, r2, ror pc

1000156c <Code_85>:
1000156c:	6838      	ldr	r0, [r7, #0]
1000156e:	68b9      	ldr	r1, [r7, #8]
10001570:	693a      	ldr	r2, [r7, #16]
10001572:	60b8      	str	r0, [r7, #8]
10001574:	6139      	str	r1, [r7, #16]
10001576:	603a      	str	r2, [r7, #0]
10001578:	6879      	ldr	r1, [r7, #4]
1000157a:	607e      	str	r6, [r7, #4]
1000157c:	68fe      	ldr	r6, [r7, #12]
1000157e:	60f9      	str	r1, [r7, #12]
10001580:	4770      	bx	lr
10001582:	46c0      	nop			; (mov r8, r8)

10001584 <Dictionary_86>:
10001584:	100015a8 	andne	r1, r0, r8, lsr #11
10001588:	32050046 	andcc	r0, r5, #70	; 0x46
1000158c:	746f722d 	strbtvc	r7, [pc], #-557	; 10001594 <Code_86+0x4>

10001590 <Code_86>:
10001590:	6838      	ldr	r0, [r7, #0]
10001592:	68b9      	ldr	r1, [r7, #8]
10001594:	693a      	ldr	r2, [r7, #16]
10001596:	6138      	str	r0, [r7, #16]
10001598:	6039      	str	r1, [r7, #0]
1000159a:	60ba      	str	r2, [r7, #8]
1000159c:	68f9      	ldr	r1, [r7, #12]
1000159e:	60fe      	str	r6, [r7, #12]
100015a0:	687e      	ldr	r6, [r7, #4]
100015a2:	6079      	str	r1, [r7, #4]
100015a4:	4770      	bx	lr
100015a6:	46c0      	nop			; (mov r8, r8)

100015a8 <Dictionary_87>:
100015a8:	100015d0 	ldrdne	r1, [r0], -r0
100015ac:	32030220 	andcc	r0, r3, #2
100015b0:	cf01723e 	svcgt	0x0001723e

100015b2 <Code_87>:
100015b2:	cf01      	ldmia	r7!, {r0}
100015b4:	b401      	push	{r0}
100015b6:	b440      	push	{r6}
100015b8:	cf40      	ldmia	r7!, {r6}
100015ba:	4770      	bx	lr
100015bc:	b500      	push	{lr}
100015be:	f7ff ff42 	bl	10001446 <push_lr_nachholen>
100015c2:	f000 fc19 	bl	10001df8 <swap_allocator>
100015c6:	f000 fcbb 	bl	10001f40 <allocator_to_r>
100015ca:	f000 fcb9 	bl	10001f40 <allocator_to_r>
100015ce:	bd00      	pop	{pc}

100015d0 <Dictionary_88>:
100015d0:	100015fc 	strdne	r1, [r0], -ip
100015d4:	32030220 	andcc	r0, r3, #2
100015d8:	3f043e72 	svccc	0x00043e72

100015da <Code_88>:
100015da:	3f04      	subs	r7, #4
100015dc:	603e      	str	r6, [r7, #0]
100015de:	bc40      	pop	{r6}
100015e0:	bc01      	pop	{r0}
100015e2:	3f04      	subs	r7, #4
100015e4:	6038      	str	r0, [r7, #0]
100015e6:	4770      	bx	lr
100015e8:	b500      	push	{lr}
100015ea:	f7ff ff2c 	bl	10001446 <push_lr_nachholen>
100015ee:	f000 fcc2 	bl	10001f76 <allocator_r_from>
100015f2:	f000 fcc0 	bl	10001f76 <allocator_r_from>
100015f6:	f000 fbff 	bl	10001df8 <swap_allocator>
100015fa:	bd00      	pop	{pc}

100015fc <Dictionary_90>:
100015fc:	1000162c 	andne	r1, r0, ip, lsr #12
10001600:	32030220 	andcc	r0, r3, #2
10001604:	3f044072 	svccc	0x00044072

10001606 <Code_90>:
10001606:	3f04      	subs	r7, #4
10001608:	603e      	str	r6, [r7, #0]
1000160a:	9e01      	ldr	r6, [sp, #4]
1000160c:	3f04      	subs	r7, #4
1000160e:	603e      	str	r6, [r7, #0]
10001610:	9e00      	ldr	r6, [sp, #0]
10001612:	4770      	bx	lr
10001614:	b500      	push	{lr}
10001616:	f7ff ff16 	bl	10001446 <push_lr_nachholen>
1000161a:	3f04      	subs	r7, #4
1000161c:	603e      	str	r6, [r7, #0]
1000161e:	4e0c      	ldr	r6, [pc, #48]	; (10001650 <Code_95+0x16>)
10001620:	f003 fb3b 	bl	10004c9a <loop_j_allocator>
10001624:	f003 fb36 	bl	10004c94 <rfetch_allocator>
10001628:	bd00      	pop	{pc}
1000162a:	46c0      	nop			; (mov r8, r8)

1000162c <Dictionary_95>:
1000162c:	10001658 	andne	r1, r0, r8, asr r6
10001630:	32060220 	andcc	r0, r6, #2
10001634:	6f726472 	svcvs	0x00726472
10001638:	b0020070 	andlt	r0, r2, r0, ror r0

1000163a <Code_95>:
1000163a:	b002      	add	sp, #8
1000163c:	4770      	bx	lr
1000163e:	b500      	push	{lr}
10001640:	f7ff ff01 	bl	10001446 <push_lr_nachholen>
10001644:	3f04      	subs	r7, #4
10001646:	603e      	str	r6, [r7, #0]
10001648:	4e02      	ldr	r6, [pc, #8]	; (10001654 <Code_95+0x1a>)
1000164a:	f002 fdfe 	bl	1000424a <Code_836>
1000164e:	bd00      	pop	{pc}
10001650:	00009801 	andeq	r9, r0, r1, lsl #16
10001654:	0000b002 	andeq	fp, r0, r2

10001658 <Dictionary_98>:
10001658:	10001670 	andne	r1, r0, r0, ror r6
1000165c:	64030042 	strvs	r0, [r3], #-66	; 0x42
10001660:	68382f32 	ldmdavs	r8!, {r1, r4, r5, r8, r9, sl, fp, sp}

10001662 <Code_98>:
10001662:	6838      	ldr	r0, [r7, #0]
10001664:	07f1      	lsls	r1, r6, #31
10001666:	1076      	asrs	r6, r6, #1
10001668:	0840      	lsrs	r0, r0, #1
1000166a:	4308      	orrs	r0, r1
1000166c:	6038      	str	r0, [r7, #0]
1000166e:	4770      	bx	lr

10001670 <Dictionary_99>:
10001670:	10001688 	andne	r1, r0, r8, lsl #13
10001674:	64030262 	strvs	r0, [r3], #-610	; 0x262
10001678:	68382a32 	ldmdavs	r8!, {r1, r4, r5, r9, fp, sp}

1000167a <Code_99>:
1000167a:	6838      	ldr	r0, [r7, #0]
1000167c:	1800      	adds	r0, r0, r0
1000167e:	4176      	adcs	r6, r6
10001680:	6038      	str	r0, [r7, #0]
10001682:	4770      	bx	lr
10001684:	e019      	b.n	100016ba <Code_101+0xa>
10001686:	46c0      	nop			; (mov r8, r8)

10001688 <Dictionary_100>:
10001688:	100016a4 	andne	r1, r0, r4, lsr #13
1000168c:	64040042 	strvs	r0, [r4], #-66	; 0x42
10001690:	00726873 	rsbseq	r6, r2, r3, ror r8

10001694 <Code_100>:
10001694:	6838      	ldr	r0, [r7, #0]
10001696:	07f1      	lsls	r1, r6, #31
10001698:	0876      	lsrs	r6, r6, #1
1000169a:	0840      	lsrs	r0, r0, #1
1000169c:	4308      	orrs	r0, r1
1000169e:	6038      	str	r0, [r7, #0]
100016a0:	4770      	bx	lr
100016a2:	46c0      	nop			; (mov r8, r8)

100016a4 <Dictionary_101>:
100016a4:	100016f0 	strdne	r1, [r0], -r0
100016a8:	64040262 	strvs	r0, [r4], #-610	; 0x262
100016ac:	006c6873 	rsbeq	r6, ip, r3, ror r8

100016b0 <Code_101>:
100016b0:	6838      	ldr	r0, [r7, #0]
100016b2:	1800      	adds	r0, r0, r0
100016b4:	4176      	adcs	r6, r6
100016b6:	6038      	str	r0, [r7, #0]
100016b8:	4770      	bx	lr
100016ba:	b500      	push	{lr}
100016bc:	f7ff fe37 	bl	1000132e <expect_two_elements>
100016c0:	f7ff fe6a 	bl	10001398 <expect_tos_in_register>
100016c4:	f7ff fe9d 	bl	10001402 <make_tos_changeable>
100016c8:	f000 fb96 	bl	10001df8 <swap_allocator>
100016cc:	f7ff fe64 	bl	10001398 <expect_tos_in_register>
100016d0:	f7ff fe97 	bl	10001402 <make_tos_changeable>
100016d4:	3f04      	subs	r7, #4
100016d6:	603e      	str	r6, [r7, #0]
100016d8:	2640      	movs	r6, #64	; 0x40
100016da:	f001 fccf 	bl	1000307c <smalltworegisters>
100016de:	f000 fb8b 	bl	10001df8 <swap_allocator>
100016e2:	3f04      	subs	r7, #4
100016e4:	603e      	str	r6, [r7, #0]
100016e6:	4e40      	ldr	r6, [pc, #256]	; (100017e8 <Code_114+0x1e>)
100016e8:	f001 fcc8 	bl	1000307c <smalltworegisters>
100016ec:	bd00      	pop	{pc}
100016ee:	46c0      	nop			; (mov r8, r8)

100016f0 <Dictionary_106>:
100016f0:	10001704 	andne	r1, r0, r4, lsl #14
100016f4:	64040042 	strvs	r0, [r4], #-66	; 0x42
100016f8:	00736261 	rsbseq	r6, r3, r1, ror #4

100016fc <Code_106>:
100016fc:	2e00      	cmp	r6, #0
100016fe:	d408      	bmi.n	10001712 <Code_107>
10001700:	4770      	bx	lr
10001702:	46c0      	nop			; (mov r8, r8)

10001704 <Dictionary_107>:
10001704:	10001724 	andne	r1, r0, r4, lsr #14
10001708:	64070042 	strvs	r0, [r7], #-66	; 0x42
1000170c:	6167656e 	cmnvs	r7, lr, ror #10
10001710:	68386574 	ldmdavs	r8!, {r2, r4, r5, r6, r8, sl, sp, lr}

10001712 <Code_107>:
10001712:	6838      	ldr	r0, [r7, #0]
10001714:	2100      	movs	r1, #0
10001716:	43c0      	mvns	r0, r0
10001718:	43f6      	mvns	r6, r6
1000171a:	3001      	adds	r0, #1
1000171c:	414e      	adcs	r6, r1
1000171e:	6038      	str	r0, [r7, #0]
10001720:	4770      	bx	lr
10001722:	46c0      	nop			; (mov r8, r8)

10001724 <Dictionary_108>:
10001724:	10001774 	andne	r1, r0, r4, ror r7
10001728:	64020264 	strvs	r0, [r2], #-612	; 0x264
1000172c:	cf07002d 	svcgt	0x0007002d

1000172e <Code_108>:
1000172e:	cf07      	ldmia	r7!, {r0, r1, r2}
10001730:	1a12      	subs	r2, r2, r0
10001732:	41b1      	sbcs	r1, r6
10001734:	000e      	movs	r6, r1
10001736:	3f04      	subs	r7, #4
10001738:	603a      	str	r2, [r7, #0]
1000173a:	4770      	bx	lr
1000173c:	b500      	push	{lr}
1000173e:	f7ff fe13 	bl	10001368 <expect_four_elements>
10001742:	f000 fbae 	bl	10001ea2 <rot_allocator>
10001746:	f7ff fe27 	bl	10001398 <expect_tos_in_register>
1000174a:	f7ff fe5a 	bl	10001402 <make_tos_changeable>
1000174e:	f000 fb53 	bl	10001df8 <swap_allocator>
10001752:	f7ff fe21 	bl	10001398 <expect_tos_in_register>
10001756:	f7ff fe54 	bl	10001402 <make_tos_changeable>
1000175a:	f7ff feb8 	bl	100014ce <dswap_allocator>
1000175e:	f001 fc18 	bl	10002f92 <minus_allocator>
10001762:	f000 fbbb 	bl	10001edc <minusrot_allocator>
10001766:	3f04      	subs	r7, #4
10001768:	603e      	str	r6, [r7, #0]
1000176a:	4e20      	ldr	r6, [pc, #128]	; (100017ec <Code_114+0x22>)
1000176c:	f000 fd3f 	bl	100021ee <alloc_unkommutativ>
10001770:	bd00      	pop	{pc}
10001772:	46c0      	nop			; (mov r8, r8)

10001774 <Dictionary_111>:
10001774:	100017c0 	andne	r1, r0, r0, asr #15
10001778:	64020264 	strvs	r0, [r2], #-612	; 0x264
1000177c:	cf07002b 	svcgt	0x0007002b

1000177e <Code_111>:
1000177e:	cf07      	ldmia	r7!, {r0, r1, r2}
10001780:	1812      	adds	r2, r2, r0
10001782:	414e      	adcs	r6, r1
10001784:	3f04      	subs	r7, #4
10001786:	603a      	str	r2, [r7, #0]
10001788:	4770      	bx	lr
1000178a:	b500      	push	{lr}
1000178c:	f7ff fdec 	bl	10001368 <expect_four_elements>
10001790:	f000 fb87 	bl	10001ea2 <rot_allocator>
10001794:	f7ff fe00 	bl	10001398 <expect_tos_in_register>
10001798:	f7ff fe33 	bl	10001402 <make_tos_changeable>
1000179c:	f000 fb2c 	bl	10001df8 <swap_allocator>
100017a0:	f7ff fdfa 	bl	10001398 <expect_tos_in_register>
100017a4:	f7ff fe2d 	bl	10001402 <make_tos_changeable>
100017a8:	f7ff fe91 	bl	100014ce <dswap_allocator>
100017ac:	f001 fbdb 	bl	10002f66 <plus_allocator>
100017b0:	f000 fb94 	bl	10001edc <minusrot_allocator>
100017b4:	3f04      	subs	r7, #4
100017b6:	603e      	str	r6, [r7, #0]
100017b8:	4e0b      	ldr	r6, [pc, #44]	; (100017e8 <Code_114+0x1e>)
100017ba:	f000 fd1c 	bl	100021f6 <alloc_kommutativ>
100017be:	bd00      	pop	{pc}

100017c0 <Dictionary_114>:
100017c0:	100017f4 	strdne	r1, [r0], -r4
100017c4:	73030261 	movwvc	r0, #12897	; 0x3261
100017c8:	3f04643e 	svccc	0x0004643e

100017ca <Code_114>:
100017ca:	3f04      	subs	r7, #4
100017cc:	603e      	str	r6, [r7, #0]
100017ce:	17f6      	asrs	r6, r6, #31
100017d0:	4770      	bx	lr
100017d2:	b500      	push	{lr}
100017d4:	f000 fada 	bl	10001d8c <dup_allocator>
100017d8:	f7ff fe13 	bl	10001402 <make_tos_changeable>
100017dc:	3f04      	subs	r7, #4
100017de:	603e      	str	r6, [r7, #0]
100017e0:	4e03      	ldr	r6, [pc, #12]	; (100017f0 <Code_114+0x26>)
100017e2:	f001 fc4b 	bl	1000307c <smalltworegisters>
100017e6:	bd00      	pop	{pc}
100017e8:	00004140 	andeq	r4, r0, r0, asr #2
100017ec:	00004180 	andeq	r4, r0, r0, lsl #3
100017f0:	000017c0 	andeq	r1, r0, r0, asr #15

100017f4 <Dictionary_118>:
100017f4:	10001820 	andne	r1, r0, r0, lsr #16
100017f8:	75030042 	strvc	r0, [r3, #-66]	; 0x42
100017fc:	68382a6d 	ldmdavs	r8!, {r0, r2, r3, r5, r6, r9, fp, sp}

100017fe <Code_118>:
100017fe:	6838      	ldr	r0, [r7, #0]
10001800:	0003      	movs	r3, r0
10001802:	4373      	muls	r3, r6
10001804:	603b      	str	r3, [r7, #0]
10001806:	0c01      	lsrs	r1, r0, #16
10001808:	0c32      	lsrs	r2, r6, #16
1000180a:	000b      	movs	r3, r1
1000180c:	4353      	muls	r3, r2
1000180e:	b2b6      	uxth	r6, r6
10001810:	b280      	uxth	r0, r0
10001812:	434e      	muls	r6, r1
10001814:	4350      	muls	r0, r2
10001816:	1836      	adds	r6, r6, r0
10001818:	0c36      	lsrs	r6, r6, #16
1000181a:	18f6      	adds	r6, r6, r3
1000181c:	4770      	bx	lr
1000181e:	46c0      	nop			; (mov r8, r8)

10001820 <Dictionary_119>:
10001820:	10001850 	andne	r1, r0, r0, asr r8
10001824:	6d020042 	stcvs	0, cr0, [r2, #-264]	; 0xfffffef8
10001828:	6838002a 	ldmdavs	r8!, {r1, r3, r5}

1000182a <Code_119>:
1000182a:	6838      	ldr	r0, [r7, #0]
1000182c:	17c1      	asrs	r1, r0, #31
1000182e:	d005      	beq.n	1000183c <Code_119+0x12>
10001830:	4240      	negs	r0, r0
10001832:	6038      	str	r0, [r7, #0]
10001834:	17f0      	asrs	r0, r6, #31
10001836:	d004      	beq.n	10001842 <Code_119+0x18>
10001838:	4276      	negs	r6, r6
1000183a:	e7e0      	b.n	100017fe <Code_118>
1000183c:	17f0      	asrs	r0, r6, #31
1000183e:	d0de      	beq.n	100017fe <Code_118>
10001840:	4276      	negs	r6, r6
10001842:	b500      	push	{lr}
10001844:	f7ff ffdb 	bl	100017fe <Code_118>
10001848:	f7ff ff63 	bl	10001712 <Code_107>
1000184c:	bd00      	pop	{pc}
1000184e:	46c0      	nop			; (mov r8, r8)

10001850 <Dictionary_120>:
10001850:	10001890 	mulne	r0, r0, r8
10001854:	75030044 	strvc	r0, [r3, #-68]	; 0x44
10001858:	cf072a64 	svcgt	0x00072a64

1000185a <Code_120>:
1000185a:	cf07      	ldmia	r7!, {r0, r1, r2}
1000185c:	4356      	muls	r6, r2
1000185e:	4341      	muls	r1, r0
10001860:	1876      	adds	r6, r6, r1
10001862:	0c01      	lsrs	r1, r0, #16
10001864:	0c13      	lsrs	r3, r2, #16
10001866:	4359      	muls	r1, r3
10001868:	1876      	adds	r6, r6, r1
1000186a:	0c01      	lsrs	r1, r0, #16
1000186c:	b280      	uxth	r0, r0
1000186e:	b292      	uxth	r2, r2
10001870:	4351      	muls	r1, r2
10001872:	4343      	muls	r3, r0
10001874:	4350      	muls	r0, r2
10001876:	2200      	movs	r2, #0
10001878:	18c9      	adds	r1, r1, r3
1000187a:	4152      	adcs	r2, r2
1000187c:	0412      	lsls	r2, r2, #16
1000187e:	18b6      	adds	r6, r6, r2
10001880:	040a      	lsls	r2, r1, #16
10001882:	0c09      	lsrs	r1, r1, #16
10001884:	1880      	adds	r0, r0, r2
10001886:	414e      	adcs	r6, r1
10001888:	3f04      	subs	r7, #4
1000188a:	6038      	str	r0, [r7, #0]
1000188c:	4770      	bx	lr
1000188e:	46c0      	nop			; (mov r8, r8)

10001890 <Dictionary_121>:
10001890:	10001924 	andne	r1, r0, r4, lsr #18
10001894:	75040044 	strvc	r0, [r4, #-68]	; 0x44
10001898:	002a6d64 	eoreq	r6, sl, r4, ror #26

1000189c <Code_121>:
1000189c:	b510      	push	{r4, lr}
1000189e:	2400      	movs	r4, #0
100018a0:	3f04      	subs	r7, #4
100018a2:	603e      	str	r6, [r7, #0]
100018a4:	687e      	ldr	r6, [r7, #4]
100018a6:	3f04      	subs	r7, #4
100018a8:	603e      	str	r6, [r7, #0]
100018aa:	693e      	ldr	r6, [r7, #16]
100018ac:	f7ff ffa7 	bl	100017fe <Code_118>
100018b0:	0031      	movs	r1, r6
100018b2:	cf40      	ldmia	r7!, {r6}
100018b4:	0030      	movs	r0, r6
100018b6:	cf40      	ldmia	r7!, {r6}
100018b8:	3f04      	subs	r7, #4
100018ba:	603e      	str	r6, [r7, #0]
100018bc:	683e      	ldr	r6, [r7, #0]
100018be:	3f04      	subs	r7, #4
100018c0:	603e      	str	r6, [r7, #0]
100018c2:	68fe      	ldr	r6, [r7, #12]
100018c4:	b403      	push	{r0, r1}
100018c6:	f7ff ff9a 	bl	100017fe <Code_118>
100018ca:	bc03      	pop	{r0, r1}
100018cc:	0033      	movs	r3, r6
100018ce:	cf40      	ldmia	r7!, {r6}
100018d0:	0032      	movs	r2, r6
100018d2:	cf40      	ldmia	r7!, {r6}
100018d4:	3f04      	subs	r7, #4
100018d6:	603e      	str	r6, [r7, #0]
100018d8:	683e      	ldr	r6, [r7, #0]
100018da:	3f04      	subs	r7, #4
100018dc:	603e      	str	r6, [r7, #0]
100018de:	693e      	ldr	r6, [r7, #16]
100018e0:	b40f      	push	{r0, r1, r2, r3}
100018e2:	f7ff ff8c 	bl	100017fe <Code_118>
100018e6:	bc0f      	pop	{r0, r1, r2, r3}
100018e8:	1992      	adds	r2, r2, r6
100018ea:	4163      	adcs	r3, r4
100018ec:	cf40      	ldmia	r7!, {r6}
100018ee:	1989      	adds	r1, r1, r6
100018f0:	4162      	adcs	r2, r4
100018f2:	4163      	adcs	r3, r4
100018f4:	cf40      	ldmia	r7!, {r6}
100018f6:	3f04      	subs	r7, #4
100018f8:	603e      	str	r6, [r7, #0]
100018fa:	687e      	ldr	r6, [r7, #4]
100018fc:	3f04      	subs	r7, #4
100018fe:	603e      	str	r6, [r7, #0]
10001900:	68fe      	ldr	r6, [r7, #12]
10001902:	b40f      	push	{r0, r1, r2, r3}
10001904:	f7ff ff7b 	bl	100017fe <Code_118>
10001908:	bc0f      	pop	{r0, r1, r2, r3}
1000190a:	1992      	adds	r2, r2, r6
1000190c:	4163      	adcs	r3, r4
1000190e:	cf40      	ldmia	r7!, {r6}
10001910:	1989      	adds	r1, r1, r6
10001912:	4162      	adcs	r2, r4
10001914:	4163      	adcs	r3, r4
10001916:	cf40      	ldmia	r7!, {r6}
10001918:	001e      	movs	r6, r3
1000191a:	603a      	str	r2, [r7, #0]
1000191c:	6079      	str	r1, [r7, #4]
1000191e:	60b8      	str	r0, [r7, #8]
10001920:	bd10      	pop	{r4, pc}
10001922:	46c0      	nop			; (mov r8, r8)

10001924 <Dictionary_138>:
10001924:	10001948 	andne	r1, r0, r8, asr #18
10001928:	2a020043 	bcs	10081a3c <FlashDictionaryEnde+0x70a3c>
1000192c:	b500002f 	strlt	r0, [r0, #-47]	; 0x2f

1000192e <Code_138>:
1000192e:	b500      	push	{lr}
10001930:	b440      	push	{r6}
10001932:	cf40      	ldmia	r7!, {r6}
10001934:	f7ff ff79 	bl	1000182a <Code_119>
10001938:	3f04      	subs	r7, #4
1000193a:	603e      	str	r6, [r7, #0]
1000193c:	bc40      	pop	{r6}
1000193e:	f000 f84f 	bl	100019e0 <Code_161>
10001942:	3704      	adds	r7, #4
10001944:	bd00      	pop	{pc}
10001946:	46c0      	nop			; (mov r8, r8)

10001948 <Dictionary_143>:
10001948:	1000196c 	andne	r1, r0, ip, ror #18
1000194c:	2a050043 	bcs	10141a60 <FlashDictionaryEnde+0x130a60>
10001950:	646f6d2f 	strbtvs	r6, [pc], #-3375	; 10001958 <Code_143+0x4>

10001954 <Code_143>:
10001954:	b500      	push	{lr}
10001956:	b440      	push	{r6}
10001958:	cf40      	ldmia	r7!, {r6}
1000195a:	f7ff ff66 	bl	1000182a <Code_119>
1000195e:	3f04      	subs	r7, #4
10001960:	603e      	str	r6, [r7, #0]
10001962:	bc40      	pop	{r6}
10001964:	f000 f83c 	bl	100019e0 <Code_161>
10001968:	bd00      	pop	{pc}
1000196a:	46c0      	nop			; (mov r8, r8)

1000196c <Dictionary_147>:
1000196c:	10001990 	mulne	r0, r0, r9
10001970:	75030043 	strvc	r0, [r3, #-67]	; 0x43
10001974:	b5002f2a 	strlt	r2, [r0, #-3882]	; 0xf2a

10001976 <Code_147>:
10001976:	b500      	push	{lr}
10001978:	b440      	push	{r6}
1000197a:	cf40      	ldmia	r7!, {r6}
1000197c:	f7ff ff3f 	bl	100017fe <Code_118>
10001980:	3f04      	subs	r7, #4
10001982:	603e      	str	r6, [r7, #0]
10001984:	bc40      	pop	{r6}
10001986:	f000 f81c 	bl	100019c2 <Code_156>
1000198a:	3704      	adds	r7, #4
1000198c:	bd00      	pop	{pc}
1000198e:	46c0      	nop			; (mov r8, r8)

10001990 <Dictionary_152>:
10001990:	100019b4 			; <UNDEFINED> instruction: 0x100019b4
10001994:	75060043 	strvc	r0, [r6, #-67]	; 0x43
10001998:	6f6d2f2a 	svcvs	0x006d2f2a
1000199c:	b5000064 	strlt	r0, [r0, #-100]	; 0x64

1000199e <Code_152>:
1000199e:	b500      	push	{lr}
100019a0:	b440      	push	{r6}
100019a2:	cf40      	ldmia	r7!, {r6}
100019a4:	f7ff ff2b 	bl	100017fe <Code_118>
100019a8:	3f04      	subs	r7, #4
100019aa:	603e      	str	r6, [r7, #0]
100019ac:	bc40      	pop	{r6}
100019ae:	f000 f808 	bl	100019c2 <Code_156>
100019b2:	bd00      	pop	{pc}

100019b4 <Dictionary_156>:
100019b4:	100019d4 	ldrdne	r1, [r0], -r4
100019b8:	75060043 	strvc	r0, [r6, #-67]	; 0x43
100019bc:	6f6d2f6d 	svcvs	0x006d2f6d
100019c0:	b5000064 	strlt	r0, [r0, #-100]	; 0x64

100019c2 <Code_156>:
100019c2:	b500      	push	{lr}
100019c4:	3f04      	subs	r7, #4
100019c6:	603e      	str	r6, [r7, #0]
100019c8:	2600      	movs	r6, #0
100019ca:	f000 f81a 	bl	10001a02 <Code_165>
100019ce:	cf40      	ldmia	r7!, {r6}
100019d0:	3704      	adds	r7, #4
100019d2:	bd00      	pop	{pc}

100019d4 <Dictionary_161>:
100019d4:	100019f4 	strdne	r1, [r0], -r4
100019d8:	6d050043 	stcvs	0, cr0, [r5, #-268]	; 0xfffffef4
100019dc:	646f6d2f 	strbtvs	r6, [pc], #-3375	; 100019e4 <Code_161+0x4>

100019e0 <Code_161>:
100019e0:	b500      	push	{lr}
100019e2:	3f04      	subs	r7, #4
100019e4:	603e      	str	r6, [r7, #0]
100019e6:	17f6      	asrs	r6, r6, #31
100019e8:	f000 f834 	bl	10001a54 <Code_167>
100019ec:	cf40      	ldmia	r7!, {r6}
100019ee:	3704      	adds	r7, #4
100019f0:	bd00      	pop	{pc}
100019f2:	46c0      	nop			; (mov r8, r8)

100019f4 <Dictionary_165>:
100019f4:	10001a48 	andne	r1, r0, r8, asr #20
100019f8:	75060044 	strvc	r0, [r6, #-68]	; 0x44
100019fc:	6f6d2f64 	svcvs	0x006d2f64
10001a00:	b4300064 	ldrtlt	r0, [r0], #-100	; 0x64

10001a02 <Code_165>:
10001a02:	b430      	push	{r4, r5}
10001a04:	2300      	movs	r3, #0
10001a06:	2200      	movs	r2, #0
10001a08:	6879      	ldr	r1, [r7, #4]
10001a0a:	68b8      	ldr	r0, [r7, #8]

10001a0c <ud_slash_mod_internal>:
10001a0c:	0035      	movs	r5, r6
10001a0e:	683c      	ldr	r4, [r7, #0]
10001a10:	2640      	movs	r6, #64	; 0x40
10001a12:	0040      	lsls	r0, r0, #1
10001a14:	4149      	adcs	r1, r1
10001a16:	4152      	adcs	r2, r2
10001a18:	415b      	adcs	r3, r3
10001a1a:	42ab      	cmp	r3, r5
10001a1c:	d802      	bhi.n	10001a24 <ud_slash_mod_internal+0x18>
10001a1e:	d304      	bcc.n	10001a2a <ud_slash_mod_internal+0x1e>
10001a20:	42a2      	cmp	r2, r4
10001a22:	d302      	bcc.n	10001a2a <ud_slash_mod_internal+0x1e>
10001a24:	1b12      	subs	r2, r2, r4
10001a26:	41ab      	sbcs	r3, r5
10001a28:	3001      	adds	r0, #1
10001a2a:	3e01      	subs	r6, #1
10001a2c:	d1f1      	bne.n	10001a12 <ud_slash_mod_internal+0x6>
10001a2e:	000e      	movs	r6, r1
10001a30:	6038      	str	r0, [r7, #0]
10001a32:	607b      	str	r3, [r7, #4]
10001a34:	60ba      	str	r2, [r7, #8]
10001a36:	bc30      	pop	{r4, r5}
10001a38:	4770      	bx	lr

10001a3a <uf_slash_mod>:
10001a3a:	b430      	push	{r4, r5}
10001a3c:	2300      	movs	r3, #0
10001a3e:	687a      	ldr	r2, [r7, #4]
10001a40:	68b9      	ldr	r1, [r7, #8]
10001a42:	2000      	movs	r0, #0
10001a44:	e7e2      	b.n	10001a0c <ud_slash_mod_internal>
10001a46:	46c0      	nop			; (mov r8, r8)

10001a48 <Dictionary_167>:
10001a48:	10001ac0 	andne	r1, r0, r0, asr #21
10001a4c:	64050044 	strvs	r0, [r5], #-68	; 0x44
10001a50:	646f6d2f 	strbtvs	r6, [pc], #-3375	; 10001a58 <Code_167+0x4>

10001a54 <Code_167>:
10001a54:	b500      	push	{lr}
10001a56:	17f0      	asrs	r0, r6, #31
10001a58:	d019      	beq.n	10001a8e <Code_167+0x3a>
10001a5a:	f7ff fe5a 	bl	10001712 <Code_107>
10001a5e:	f7ff fd2d 	bl	100014bc <Code_78>
10001a62:	17f0      	asrs	r0, r6, #31
10001a64:	d00c      	beq.n	10001a80 <Code_167+0x2c>
10001a66:	f7ff fe54 	bl	10001712 <Code_107>
10001a6a:	f7ff fd27 	bl	100014bc <Code_78>
10001a6e:	f7ff ffc8 	bl	10001a02 <Code_165>
10001a72:	f7ff fd23 	bl	100014bc <Code_78>
10001a76:	f7ff fe4c 	bl	10001712 <Code_107>
10001a7a:	f7ff fd1f 	bl	100014bc <Code_78>
10001a7e:	bd00      	pop	{pc}
10001a80:	f7ff fd1c 	bl	100014bc <Code_78>
10001a84:	f7ff ffbd 	bl	10001a02 <Code_165>
10001a88:	f7ff fe43 	bl	10001712 <Code_107>
10001a8c:	bd00      	pop	{pc}
10001a8e:	f7ff fd15 	bl	100014bc <Code_78>
10001a92:	17f0      	asrs	r0, r6, #31
10001a94:	d00e      	beq.n	10001ab4 <Code_167+0x60>
10001a96:	f7ff fe3c 	bl	10001712 <Code_107>
10001a9a:	f7ff fd0f 	bl	100014bc <Code_78>
10001a9e:	f7ff ffb0 	bl	10001a02 <Code_165>
10001aa2:	f7ff fe36 	bl	10001712 <Code_107>
10001aa6:	f7ff fd09 	bl	100014bc <Code_78>
10001aaa:	f7ff fe32 	bl	10001712 <Code_107>
10001aae:	f7ff fd05 	bl	100014bc <Code_78>
10001ab2:	bd00      	pop	{pc}
10001ab4:	f7ff fd02 	bl	100014bc <Code_78>
10001ab8:	f7ff ffa3 	bl	10001a02 <Code_165>
10001abc:	bd00      	pop	{pc}
10001abe:	46c0      	nop			; (mov r8, r8)

10001ac0 <Dictionary_168>:
10001ac0:	10001ad8 	ldrdne	r1, [r0], -r8
10001ac4:	64020044 	strvs	r0, [r2], #-68	; 0x44
10001ac8:	b500002f 	strlt	r0, [r0, #-47]	; 0x2f

10001aca <Code_168>:
10001aca:	b500      	push	{lr}
10001acc:	f7ff ffc2 	bl	10001a54 <Code_167>
10001ad0:	f7ff fd18 	bl	10001504 <Code_80>
10001ad4:	bd00      	pop	{pc}
10001ad6:	46c0      	nop			; (mov r8, r8)

10001ad8 <Dictionary_169>:
10001ad8:	10001b20 	andne	r1, r0, r0, lsr #22
10001adc:	66020044 	strvs	r0, [r2], -r4, asr #32
10001ae0:	b500002a 	strlt	r0, [r0, #-42]	; 0x2a

10001ae2 <Code_169>:
10001ae2:	b500      	push	{lr}
10001ae4:	17f0      	asrs	r0, r6, #31
10001ae6:	d00d      	beq.n	10001b04 <Code_169+0x22>
10001ae8:	f7ff fe13 	bl	10001712 <Code_107>
10001aec:	f7ff fce6 	bl	100014bc <Code_78>
10001af0:	17f0      	asrs	r0, r6, #31
10001af2:	d00d      	beq.n	10001b10 <Code_169+0x2e>
10001af4:	f7ff fe0d 	bl	10001712 <Code_107>
10001af8:	f7ff fed0 	bl	1000189c <Code_121>
10001afc:	cf40      	ldmia	r7!, {r6}
10001afe:	cf01      	ldmia	r7!, {r0}
10001b00:	6038      	str	r0, [r7, #0]
10001b02:	bd00      	pop	{pc}
10001b04:	f7ff fcda 	bl	100014bc <Code_78>
10001b08:	17f0      	asrs	r0, r6, #31
10001b0a:	d0f5      	beq.n	10001af8 <Code_169+0x16>
10001b0c:	f7ff fe01 	bl	10001712 <Code_107>
10001b10:	f7ff fec4 	bl	1000189c <Code_121>
10001b14:	cf40      	ldmia	r7!, {r6}
10001b16:	cf01      	ldmia	r7!, {r0}
10001b18:	6038      	str	r0, [r7, #0]
10001b1a:	f7ff fdfa 	bl	10001712 <Code_107>
10001b1e:	bd00      	pop	{pc}

10001b20 <Dictionary_172>:
10001b20:	10001b6c 	andne	r1, r0, ip, ror #22
10001b24:	66020044 	strvs	r0, [r2], -r4, asr #32
10001b28:	b500002f 	strlt	r0, [r0, #-47]	; 0x2f

10001b2a <Code_172>:
10001b2a:	b500      	push	{lr}
10001b2c:	17f0      	asrs	r0, r6, #31
10001b2e:	d00e      	beq.n	10001b4e <Code_172+0x24>
10001b30:	f7ff fdef 	bl	10001712 <Code_107>
10001b34:	f7ff fcc2 	bl	100014bc <Code_78>
10001b38:	17f0      	asrs	r0, r6, #31
10001b3a:	d00e      	beq.n	10001b5a <Code_172+0x30>
10001b3c:	f7ff fde9 	bl	10001712 <Code_107>
10001b40:	f7ff fcbc 	bl	100014bc <Code_78>
10001b44:	f7ff ff79 	bl	10001a3a <uf_slash_mod>
10001b48:	f7ff fcdc 	bl	10001504 <Code_80>
10001b4c:	bd00      	pop	{pc}
10001b4e:	f7ff fcb5 	bl	100014bc <Code_78>
10001b52:	17f0      	asrs	r0, r6, #31
10001b54:	d0f4      	beq.n	10001b40 <Code_172+0x16>
10001b56:	f7ff fddc 	bl	10001712 <Code_107>
10001b5a:	f7ff fcaf 	bl	100014bc <Code_78>
10001b5e:	f7ff ff6c 	bl	10001a3a <uf_slash_mod>
10001b62:	f7ff fdd6 	bl	10001712 <Code_107>
10001b66:	f7ff fccd 	bl	10001504 <Code_80>
10001b6a:	bd00      	pop	{pc}

10001b6c <Dictionary_173>:
10001b6c:	10001bb4 			; <UNDEFINED> instruction: 0x10001bb4
10001b70:	32020220 	andcc	r0, r2, #2
10001b74:	cf060021 	svcgt	0x00060021

10001b76 <Code_173>:
10001b76:	cf06      	ldmia	r7!, {r1, r2}
10001b78:	6031      	str	r1, [r6, #0]
10001b7a:	6072      	str	r2, [r6, #4]
10001b7c:	cf40      	ldmia	r7!, {r6}
10001b7e:	4770      	bx	lr
10001b80:	b500      	push	{lr}
10001b82:	f7ff fbe1 	bl	10001348 <expect_three_elements>
10001b86:	6801      	ldr	r1, [r0, #0]
10001b88:	6842      	ldr	r2, [r0, #4]
10001b8a:	b406      	push	{r1, r2}
10001b8c:	f000 fdd2 	bl	10002734 <allocator_4store>
10001b90:	f7ff fab1 	bl	100010f6 <befreie_tos>
10001b94:	bc06      	pop	{r1, r2}
10001b96:	6001      	str	r1, [r0, #0]
10001b98:	2928      	cmp	r1, #40	; 0x28
10001b9a:	d005      	beq.n	10001ba8 <Code_173+0x32>
10001b9c:	3f04      	subs	r7, #4
10001b9e:	603e      	str	r6, [r7, #0]
10001ba0:	4e61      	ldr	r6, [pc, #388]	; (10001d28 <dgleichungleich_common+0x1c>)
10001ba2:	f000 fdca 	bl	1000273a <allocator_4store_anderer_opcode>
10001ba6:	bd00      	pop	{pc}
10001ba8:	3204      	adds	r2, #4
10001baa:	6042      	str	r2, [r0, #4]
10001bac:	f000 fdc2 	bl	10002734 <allocator_4store>
10001bb0:	bd00      	pop	{pc}
10001bb2:	46c0      	nop			; (mov r8, r8)

10001bb4 <Dictionary_177>:
10001bb4:	10001bfc 	strdne	r1, [r0], -ip
10001bb8:	32020220 	andcc	r0, r2, #2
10001bbc:	3f040040 	svccc	0x00040040

10001bbe <Code_177>:
10001bbe:	3f04      	subs	r7, #4
10001bc0:	6870      	ldr	r0, [r6, #4]
10001bc2:	6038      	str	r0, [r7, #0]
10001bc4:	6836      	ldr	r6, [r6, #0]
10001bc6:	4770      	bx	lr
10001bc8:	b500      	push	{lr}
10001bca:	f000 f8df 	bl	10001d8c <dup_allocator>
10001bce:	6801      	ldr	r1, [r0, #0]
10001bd0:	2928      	cmp	r1, #40	; 0x28
10001bd2:	d009      	beq.n	10001be8 <Code_177+0x2a>
10001bd4:	3f04      	subs	r7, #4
10001bd6:	603e      	str	r6, [r7, #0]
10001bd8:	4e54      	ldr	r6, [pc, #336]	; (10001d2c <dgleichungleich_common+0x20>)
10001bda:	f000 fd8c 	bl	100026f6 <allocator_4fetch_anderer_opcode>
10001bde:	f000 f90b 	bl	10001df8 <swap_allocator>
10001be2:	f000 fd85 	bl	100026f0 <allocator_4fetch>
10001be6:	bd00      	pop	{pc}
10001be8:	6841      	ldr	r1, [r0, #4]
10001bea:	3104      	adds	r1, #4
10001bec:	6041      	str	r1, [r0, #4]
10001bee:	f000 fd7f 	bl	100026f0 <allocator_4fetch>
10001bf2:	f000 f901 	bl	10001df8 <swap_allocator>
10001bf6:	f000 fd7b 	bl	100026f0 <allocator_4fetch>
10001bfa:	bd00      	pop	{pc}

10001bfc <Dictionary_180>:
10001bfc:	10001c1c 	andne	r1, r0, ip, lsl ip
10001c00:	64030044 	strvs	r0, [r3], #-68	; 0x44
10001c04:	cf073c75 	svcgt	0x00073c75

10001c06 <Code_180>:
10001c06:	cf07      	ldmia	r7!, {r0, r1, r2}
10001c08:	428e      	cmp	r6, r1
10001c0a:	d804      	bhi.n	10001c16 <Code_180+0x10>
10001c0c:	d101      	bne.n	10001c12 <Code_180+0xc>
10001c0e:	4290      	cmp	r0, r2
10001c10:	d801      	bhi.n	10001c16 <Code_180+0x10>
10001c12:	2600      	movs	r6, #0
10001c14:	4770      	bx	lr
10001c16:	2600      	movs	r6, #0
10001c18:	43f6      	mvns	r6, r6
10001c1a:	4770      	bx	lr

10001c1c <Dictionary_181>:
10001c1c:	10001c3c 	andne	r1, r0, ip, lsr ip
10001c20:	64030044 	strvs	r0, [r3], #-68	; 0x44
10001c24:	cf073e75 	svcgt	0x00073e75

10001c26 <Code_181>:
10001c26:	cf07      	ldmia	r7!, {r0, r1, r2}
10001c28:	42b1      	cmp	r1, r6
10001c2a:	d804      	bhi.n	10001c36 <Code_181+0x10>
10001c2c:	d101      	bne.n	10001c32 <Code_181+0xc>
10001c2e:	4282      	cmp	r2, r0
10001c30:	d801      	bhi.n	10001c36 <Code_181+0x10>
10001c32:	2600      	movs	r6, #0
10001c34:	4770      	bx	lr
10001c36:	2600      	movs	r6, #0
10001c38:	43f6      	mvns	r6, r6
10001c3a:	4770      	bx	lr

10001c3c <Dictionary_182>:
10001c3c:	10001c5c 	andne	r1, r0, ip, asr ip
10001c40:	64020044 	strvs	r0, [r2], #-68	; 0x44
10001c44:	cf07003c 	svcgt	0x0007003c

10001c46 <Code_182>:
10001c46:	cf07      	ldmia	r7!, {r0, r1, r2}
10001c48:	428e      	cmp	r6, r1
10001c4a:	dc04      	bgt.n	10001c56 <Code_182+0x10>
10001c4c:	d101      	bne.n	10001c52 <Code_182+0xc>
10001c4e:	4290      	cmp	r0, r2
10001c50:	dc01      	bgt.n	10001c56 <Code_182+0x10>
10001c52:	2600      	movs	r6, #0
10001c54:	4770      	bx	lr
10001c56:	2600      	movs	r6, #0
10001c58:	43f6      	mvns	r6, r6
10001c5a:	4770      	bx	lr

10001c5c <Dictionary_183>:
10001c5c:	10001c7c 	andne	r1, r0, ip, ror ip
10001c60:	64020044 	strvs	r0, [r2], #-68	; 0x44
10001c64:	cf07003e 	svcgt	0x0007003e

10001c66 <Code_183>:
10001c66:	cf07      	ldmia	r7!, {r0, r1, r2}
10001c68:	42b1      	cmp	r1, r6
10001c6a:	dc04      	bgt.n	10001c76 <Code_183+0x10>
10001c6c:	d101      	bne.n	10001c72 <Code_183+0xc>
10001c6e:	4282      	cmp	r2, r0
10001c70:	dc01      	bgt.n	10001c76 <Code_183+0x10>
10001c72:	2600      	movs	r6, #0
10001c74:	4770      	bx	lr
10001c76:	2600      	movs	r6, #0
10001c78:	43f6      	mvns	r6, r6
10001c7a:	4770      	bx	lr

10001c7c <Dictionary_184>:
10001c7c:	10001c98 	mulne	r0, r8, ip
10001c80:	64030262 	strvs	r0, [r3], #-610	; 0x262
10001c84:	37043c30 	smladxcc	r4, r0, ip, r3

10001c86 <Code_184>:
10001c86:	3704      	adds	r7, #4
10001c88:	17f6      	asrs	r6, r6, #31
10001c8a:	4770      	bx	lr
10001c8c:	b500      	push	{lr}
10001c8e:	f000 f8c6 	bl	10001e1e <nip_allocator>
10001c92:	f000 fb10 	bl	100022b6 <alloc_nullkleiner>
10001c96:	bd00      	pop	{pc}

10001c98 <Dictionary_185>:
10001c98:	10001cc0 	andne	r1, r0, r0, asr #25
10001c9c:	64030262 	strvs	r0, [r3], #-610	; 0x262
10001ca0:	cf013d30 	svcgt	0x00013d30

10001ca2 <Code_185>:
10001ca2:	cf01      	ldmia	r7!, {r0}
10001ca4:	4306      	orrs	r6, r0
10001ca6:	3e01      	subs	r6, #1
10001ca8:	41b6      	sbcs	r6, r6
10001caa:	4770      	bx	lr
10001cac:	b500      	push	{lr}
10001cae:	3f04      	subs	r7, #4
10001cb0:	603e      	str	r6, [r7, #0]
10001cb2:	4e1f      	ldr	r6, [pc, #124]	; (10001d30 <dgleichungleich_common+0x24>)
10001cb4:	f000 fa9f 	bl	100021f6 <alloc_kommutativ>
10001cb8:	f000 fad8 	bl	1000226c <allocator_equal_zero>
10001cbc:	bd00      	pop	{pc}
10001cbe:	46c0      	nop			; (mov r8, r8)

10001cc0 <Dictionary_188>:
10001cc0:	10001ce8 	andne	r1, r0, r8, ror #25
10001cc4:	64030244 	strvs	r0, [r3], #-580	; 0x244
10001cc8:	cf073e3c 	svcgt	0x00073e3c

10001cca <Code_188>:
10001cca:	cf07      	ldmia	r7!, {r0, r1, r2}
10001ccc:	4050      	eors	r0, r2
10001cce:	404e      	eors	r6, r1
10001cd0:	4306      	orrs	r6, r0
10001cd2:	3e01      	subs	r6, #1
10001cd4:	41b6      	sbcs	r6, r6
10001cd6:	43f6      	mvns	r6, r6
10001cd8:	4770      	bx	lr
10001cda:	b500      	push	{lr}
10001cdc:	f000 f816 	bl	10001d0c <dgleichungleich_common>
10001ce0:	f000 fad7 	bl	10002292 <allocator_unequal_zero>
10001ce4:	bd00      	pop	{pc}
10001ce6:	46c0      	nop			; (mov r8, r8)

10001ce8 <Dictionary_189>:
10001ce8:	10001d34 	andne	r1, r0, r4, lsr sp
10001cec:	64020244 	strvs	r0, [r2], #-580	; 0x244
10001cf0:	cf07003d 	svcgt	0x0007003d

10001cf2 <Code_189>:
10001cf2:	cf07      	ldmia	r7!, {r0, r1, r2}
10001cf4:	4050      	eors	r0, r2
10001cf6:	404e      	eors	r6, r1
10001cf8:	4306      	orrs	r6, r0
10001cfa:	3e01      	subs	r6, #1
10001cfc:	41b6      	sbcs	r6, r6
10001cfe:	4770      	bx	lr
10001d00:	b500      	push	{lr}
10001d02:	f000 f803 	bl	10001d0c <dgleichungleich_common>
10001d06:	f000 fab1 	bl	1000226c <allocator_equal_zero>
10001d0a:	bd00      	pop	{pc}

10001d0c <dgleichungleich_common>:
10001d0c:	b500      	push	{lr}
10001d0e:	f7ff fb2b 	bl	10001368 <expect_four_elements>
10001d12:	f000 f8c6 	bl	10001ea2 <rot_allocator>
10001d16:	f000 f9cf 	bl	100020b8 <xor_allocator>
10001d1a:	f000 f8df 	bl	10001edc <minusrot_allocator>
10001d1e:	f000 f9cb 	bl	100020b8 <xor_allocator>
10001d22:	f000 f9bd 	bl	100020a0 <or_allocator>
10001d26:	bd00      	pop	{pc}
10001d28:	00006040 	andeq	r6, r0, r0, asr #32
10001d2c:	00006840 	andeq	r6, r0, r0, asr #16
10001d30:	00004300 	andeq	r4, r0, r0, lsl #6

10001d34 <Dictionary_190>:
10001d34:	10001d48 	andne	r1, r0, r8, asr #26
10001d38:	73030020 	movwvc	r0, #12320	; 0x3020
10001d3c:	3f044070 	svccc	0x00044070

10001d3e <Code_190>:
10001d3e:	3f04      	subs	r7, #4
10001d40:	603e      	str	r6, [r7, #0]
10001d42:	003e      	movs	r6, r7
10001d44:	4770      	bx	lr
10001d46:	46c0      	nop			; (mov r8, r8)

10001d48 <Dictionary_192>:
10001d48:	10001d58 	andne	r1, r0, r8, asr sp
10001d4c:	73030020 	movwvc	r0, #12320	; 0x3020
10001d50:	00372170 	eorseq	r2, r7, r0, ror r1

10001d52 <Code_192>:
10001d52:	0037      	movs	r7, r6
10001d54:	cf40      	ldmia	r7!, {r6}
10001d56:	4770      	bx	lr

10001d58 <Dictionary_193>:
10001d58:	10001d6c 	andne	r1, r0, ip, ror #26
10001d5c:	72030020 	andvc	r0, r3, #32
10001d60:	3f044070 	svccc	0x00044070

10001d62 <Code_193>:
10001d62:	3f04      	subs	r7, #4
10001d64:	603e      	str	r6, [r7, #0]
10001d66:	466e      	mov	r6, sp
10001d68:	4770      	bx	lr
10001d6a:	46c0      	nop			; (mov r8, r8)

10001d6c <Dictionary_195>:
10001d6c:	10001d7c 	andne	r1, r0, ip, ror sp
10001d70:	72030020 	andvc	r0, r3, #32
10001d74:	46b52170 			; <UNDEFINED> instruction: 0x46b52170

10001d76 <Code_195>:
10001d76:	46b5      	mov	sp, r6
10001d78:	cf40      	ldmia	r7!, {r6}
10001d7a:	4770      	bx	lr

10001d7c <Dictionary_196>:
10001d7c:	10001da0 	andne	r1, r0, r0, lsr #27
10001d80:	64030261 	strvs	r0, [r3], #-609	; 0x261
10001d84:	3f047075 	svccc	0x00047075

10001d86 <Code_196>:
10001d86:	3f04      	subs	r7, #4
10001d88:	603e      	str	r6, [r7, #0]
10001d8a:	4770      	bx	lr

10001d8c <dup_allocator>:
10001d8c:	b506      	push	{r1, r2, lr}
10001d8e:	f7ff fac4 	bl	1000131a <expect_one_element>
10001d92:	6801      	ldr	r1, [r0, #0]
10001d94:	6842      	ldr	r2, [r0, #4]
10001d96:	f7ff f9ae 	bl	100010f6 <befreie_tos>
10001d9a:	6001      	str	r1, [r0, #0]
10001d9c:	6042      	str	r2, [r0, #4]
10001d9e:	bd06      	pop	{r1, r2, pc}

10001da0 <Dictionary_199>:
10001da0:	10001dcc 	andne	r1, r0, ip, asr #27
10001da4:	64040261 	strvs	r0, [r4], #-609	; 0x261
10001da8:	00706f72 	rsbseq	r6, r0, r2, ror pc

10001dac <Code_199>:
10001dac:	cf40      	ldmia	r7!, {r6}
10001dae:	4770      	bx	lr

10001db0 <drop_allocator>:
10001db0:	b500      	push	{lr}
10001db2:	6801      	ldr	r1, [r0, #0]
10001db4:	291e      	cmp	r1, #30
10001db6:	d105      	bne.n	10001dc4 <drop_allocator+0x14>
10001db8:	3f04      	subs	r7, #4
10001dba:	603e      	str	r6, [r7, #0]
10001dbc:	4ea1      	ldr	r6, [pc, #644]	; (10002044 <Code_235+0x1c>)
10001dbe:	f002 fa44 	bl	1000424a <Code_836>
10001dc2:	bd00      	pop	{pc}
10001dc4:	f7ff f9a1 	bl	1000110a <eliminiere_tos>
10001dc8:	bd00      	pop	{pc}
10001dca:	46c0      	nop			; (mov r8, r8)

10001dcc <Dictionary_203>:
10001dcc:	10001de4 	andne	r1, r0, r4, ror #27
10001dd0:	3f040061 	svccc	0x00040061
10001dd4:	00707564 	rsbseq	r7, r0, r4, ror #10

10001dd8 <Code_203>:
10001dd8:	2e00      	cmp	r6, #0
10001dda:	d001      	beq.n	10001de0 <Code_203+0x8>
10001ddc:	3f04      	subs	r7, #4
10001dde:	603e      	str	r6, [r7, #0]
10001de0:	4770      	bx	lr
10001de2:	46c0      	nop			; (mov r8, r8)

10001de4 <Dictionary_205>:
10001de4:	10001e10 	andne	r1, r0, r0, lsl lr
10001de8:	73040262 	movwvc	r0, #16994	; 0x4262
10001dec:	00706177 	rsbseq	r6, r0, r7, ror r1

10001df0 <Code_205>:
10001df0:	6839      	ldr	r1, [r7, #0]
10001df2:	603e      	str	r6, [r7, #0]
10001df4:	000e      	movs	r6, r1
10001df6:	4770      	bx	lr

10001df8 <swap_allocator>:
10001df8:	b50c      	push	{r2, r3, lr}
10001dfa:	f7ff fa98 	bl	1000132e <expect_two_elements>
10001dfe:	6802      	ldr	r2, [r0, #0]
10001e00:	6883      	ldr	r3, [r0, #8]
10001e02:	6003      	str	r3, [r0, #0]
10001e04:	6082      	str	r2, [r0, #8]
10001e06:	6842      	ldr	r2, [r0, #4]
10001e08:	68c3      	ldr	r3, [r0, #12]
10001e0a:	6043      	str	r3, [r0, #4]
10001e0c:	60c2      	str	r2, [r0, #12]
10001e0e:	bd0c      	pop	{r2, r3, pc}

10001e10 <Dictionary_206>:
10001e10:	10001e3c 	andne	r1, r0, ip, lsr lr
10001e14:	6e030262 	cdpvs	2, 0, cr0, cr3, cr2, {3}
10001e18:	37047069 	strcc	r7, [r4, -r9, rrx]

10001e1a <Code_206>:
10001e1a:	3704      	adds	r7, #4
10001e1c:	4770      	bx	lr

10001e1e <nip_allocator>:
10001e1e:	b500      	push	{lr}
10001e20:	f7ff fa7b 	bl	1000131a <expect_one_element>
10001e24:	6881      	ldr	r1, [r0, #8]
10001e26:	291e      	cmp	r1, #30
10001e28:	d002      	beq.n	10001e30 <nip_allocator+0x12>
10001e2a:	f7ff f974 	bl	10001116 <eliminiere_nos>
10001e2e:	bd00      	pop	{pc}
10001e30:	3f04      	subs	r7, #4
10001e32:	603e      	str	r6, [r7, #0]
10001e34:	4e83      	ldr	r6, [pc, #524]	; (10002044 <Code_235+0x1c>)
10001e36:	f002 fa08 	bl	1000424a <Code_836>
10001e3a:	bd00      	pop	{pc}

10001e3c <Dictionary_210>:
10001e3c:	10001e64 	andne	r1, r0, r4, ror #28
10001e40:	6f040262 	svcvs	0x00040262
10001e44:	00726576 	rsbseq	r6, r2, r6, ror r5

10001e48 <Code_210>:
10001e48:	3f04      	subs	r7, #4
10001e4a:	603e      	str	r6, [r7, #0]
10001e4c:	687e      	ldr	r6, [r7, #4]
10001e4e:	4770      	bx	lr

10001e50 <over_allocator>:
10001e50:	b500      	push	{lr}
10001e52:	f7ff fa6c 	bl	1000132e <expect_two_elements>
10001e56:	6881      	ldr	r1, [r0, #8]
10001e58:	68c2      	ldr	r2, [r0, #12]
10001e5a:	f7ff f94c 	bl	100010f6 <befreie_tos>
10001e5e:	6001      	str	r1, [r0, #0]
10001e60:	6042      	str	r2, [r0, #4]
10001e62:	bd00      	pop	{pc}

10001e64 <Dictionary_212>:
10001e64:	10001e8c 	andne	r1, r0, ip, lsl #29
10001e68:	74040262 	strvc	r0, [r4], #-610	; 0x262
10001e6c:	006b6375 	rsbeq	r6, fp, r5, ror r3

10001e70 <Code_212>:
10001e70:	cf01      	ldmia	r7!, {r0}
10001e72:	3f08      	subs	r7, #8
10001e74:	607e      	str	r6, [r7, #4]
10001e76:	6038      	str	r0, [r7, #0]
10001e78:	4770      	bx	lr
10001e7a:	b500      	push	{lr}
10001e7c:	f7ff fa57 	bl	1000132e <expect_two_elements>
10001e80:	f7ff ff84 	bl	10001d8c <dup_allocator>
10001e84:	f000 f82a 	bl	10001edc <minusrot_allocator>
10001e88:	bd00      	pop	{pc}
10001e8a:	46c0      	nop			; (mov r8, r8)

10001e8c <Dictionary_213>:
10001e8c:	10001ec4 	andne	r1, r0, r4, asr #29
10001e90:	72030263 	andvc	r0, r3, #805306374	; 0x30000006
10001e94:	cf03746f 	svcgt	0x0003746f

10001e96 <Code_213>:
10001e96:	cf03      	ldmia	r7!, {r0, r1}
10001e98:	3f08      	subs	r7, #8
10001e9a:	6078      	str	r0, [r7, #4]
10001e9c:	603e      	str	r6, [r7, #0]
10001e9e:	000e      	movs	r6, r1
10001ea0:	4770      	bx	lr

10001ea2 <rot_allocator>:
10001ea2:	b50e      	push	{r1, r2, r3, lr}
10001ea4:	f7ff fa50 	bl	10001348 <expect_three_elements>
10001ea8:	6801      	ldr	r1, [r0, #0]
10001eaa:	6882      	ldr	r2, [r0, #8]
10001eac:	6903      	ldr	r3, [r0, #16]
10001eae:	6081      	str	r1, [r0, #8]
10001eb0:	6102      	str	r2, [r0, #16]
10001eb2:	6003      	str	r3, [r0, #0]
10001eb4:	6841      	ldr	r1, [r0, #4]
10001eb6:	68c2      	ldr	r2, [r0, #12]
10001eb8:	6943      	ldr	r3, [r0, #20]
10001eba:	60c1      	str	r1, [r0, #12]
10001ebc:	6142      	str	r2, [r0, #20]
10001ebe:	6043      	str	r3, [r0, #4]
10001ec0:	bd0e      	pop	{r1, r2, r3, pc}
10001ec2:	46c0      	nop			; (mov r8, r8)

10001ec4 <Dictionary_214>:
10001ec4:	10001ee8 	andne	r1, r0, r8, ror #29
10001ec8:	2d040263 	sfmcs	f0, 4, [r4, #-396]	; 0xfffffe74
10001ecc:	00746f72 	rsbseq	r6, r4, r2, ror pc

10001ed0 <Code_214>:
10001ed0:	cf03      	ldmia	r7!, {r0, r1}
10001ed2:	3f08      	subs	r7, #8
10001ed4:	607e      	str	r6, [r7, #4]
10001ed6:	6039      	str	r1, [r7, #0]
10001ed8:	0006      	movs	r6, r0
10001eda:	4770      	bx	lr

10001edc <minusrot_allocator>:
10001edc:	b500      	push	{lr}
10001ede:	f7ff ffe0 	bl	10001ea2 <rot_allocator>
10001ee2:	f7ff ffde 	bl	10001ea2 <rot_allocator>
10001ee6:	bd00      	pop	{pc}

10001ee8 <Dictionary_215>:
10001ee8:	10001efc 	strdne	r1, [r0], -ip
10001eec:	70040020 	andvc	r0, r4, r0, lsr #32
10001ef0:	006b6369 	rsbeq	r6, fp, r9, ror #6

10001ef4 <Code_215>:
10001ef4:	00b0      	lsls	r0, r6, #2
10001ef6:	583e      	ldr	r6, [r7, r0]
10001ef8:	4770      	bx	lr
10001efa:	46c0      	nop			; (mov r8, r8)

10001efc <Dictionary_216>:
10001efc:	10001f14 	andne	r1, r0, r4, lsl pc
10001f00:	64050000 	strvs	r0, [r5]
10001f04:	68747065 	ldmdavs	r4!, {r0, r2, r5, r6, ip, sp, lr}^

10001f08 <Code_216>:
10001f08:	494f      	ldr	r1, [pc, #316]	; (10002048 <Code_235+0x20>)
10001f0a:	1bc9      	subs	r1, r1, r7
10001f0c:	3f04      	subs	r7, #4
10001f0e:	603e      	str	r6, [r7, #0]
10001f10:	088e      	lsrs	r6, r1, #2
10001f12:	4770      	bx	lr

10001f14 <Dictionary_218>:
10001f14:	10001f30 	andne	r1, r0, r0, lsr pc
10001f18:	72060000 	andvc	r0, r6, #0
10001f1c:	74706564 	ldrbtvc	r6, [r0], #-1380	; 0x564
10001f20:	3f040068 	svccc	0x00040068

10001f22 <Code_218>:
10001f22:	3f04      	subs	r7, #4
10001f24:	603e      	str	r6, [r7, #0]
10001f26:	466e      	mov	r6, sp
10001f28:	4948      	ldr	r1, [pc, #288]	; (1000204c <Code_235+0x24>)
10001f2a:	1b89      	subs	r1, r1, r6
10001f2c:	088e      	lsrs	r6, r1, #2
10001f2e:	4770      	bx	lr

10001f30 <Dictionary_220>:
10001f30:	10001f64 	andne	r1, r0, r4, ror #30
10001f34:	3e020220 	cdpcc	2, 0, cr0, cr2, cr0, {1}
10001f38:	b4400072 	strblt	r0, [r0], #-114	; 0x72

10001f3a <Code_220>:
10001f3a:	b440      	push	{r6}
10001f3c:	cf40      	ldmia	r7!, {r6}
10001f3e:	4770      	bx	lr

10001f40 <allocator_to_r>:
10001f40:	b500      	push	{lr}
10001f42:	f7ff fa80 	bl	10001446 <push_lr_nachholen>
10001f46:	f7ff f9e8 	bl	1000131a <expect_one_element>
10001f4a:	f7ff fa25 	bl	10001398 <expect_tos_in_register>
10001f4e:	3f04      	subs	r7, #4
10001f50:	603e      	str	r6, [r7, #0]
10001f52:	4e3f      	ldr	r6, [pc, #252]	; (10002050 <Code_235+0x28>)
10001f54:	2201      	movs	r2, #1
10001f56:	408a      	lsls	r2, r1
10001f58:	4316      	orrs	r6, r2
10001f5a:	f002 f976 	bl	1000424a <Code_836>
10001f5e:	f7ff f8d4 	bl	1000110a <eliminiere_tos>
10001f62:	bd00      	pop	{pc}

10001f64 <Dictionary_223>:
10001f64:	10001f98 	mulne	r0, r8, pc	; <UNPREDICTABLE>
10001f68:	72020220 	andvc	r0, r2, #2
10001f6c:	3f04003e 	svccc	0x0004003e

10001f6e <Code_223>:
10001f6e:	3f04      	subs	r7, #4
10001f70:	603e      	str	r6, [r7, #0]
10001f72:	bc40      	pop	{r6}
10001f74:	4770      	bx	lr

10001f76 <allocator_r_from>:
10001f76:	b500      	push	{lr}
10001f78:	f7ff fa65 	bl	10001446 <push_lr_nachholen>
10001f7c:	f7ff f8bb 	bl	100010f6 <befreie_tos>
10001f80:	f7ff f998 	bl	100012b4 <get_free_register>
10001f84:	6003      	str	r3, [r0, #0]
10001f86:	3f04      	subs	r7, #4
10001f88:	603e      	str	r6, [r7, #0]
10001f8a:	4e32      	ldr	r6, [pc, #200]	; (10002054 <Code_235+0x2c>)
10001f8c:	2201      	movs	r2, #1
10001f8e:	409a      	lsls	r2, r3
10001f90:	4316      	orrs	r6, r2
10001f92:	f002 f95a 	bl	1000424a <Code_836>
10001f96:	bd00      	pop	{pc}

10001f98 <Dictionary_227>:
10001f98:	10001fb8 			; <UNDEFINED> instruction: 0x10001fb8
10001f9c:	72020220 	andvc	r0, r2, #2
10001fa0:	3f040040 	svccc	0x00040040

10001fa2 <Code_227>:
10001fa2:	3f04      	subs	r7, #4
10001fa4:	603e      	str	r6, [r7, #0]
10001fa6:	9e00      	ldr	r6, [sp, #0]
10001fa8:	4770      	bx	lr
10001faa:	b500      	push	{lr}
10001fac:	f7ff fa4b 	bl	10001446 <push_lr_nachholen>
10001fb0:	f002 fe70 	bl	10004c94 <rfetch_allocator>
10001fb4:	bd00      	pop	{pc}
10001fb6:	46c0      	nop			; (mov r8, r8)

10001fb8 <Dictionary_229>:
10001fb8:	10001fdc 	ldrdne	r1, [r0], -ip
10001fbc:	72050220 	andvc	r0, r5, #2
10001fc0:	706f7264 	rsbvc	r7, pc, r4, ror #4

10001fc4 <Code_229>:
10001fc4:	b001      	add	sp, #4
10001fc6:	4770      	bx	lr
10001fc8:	b500      	push	{lr}
10001fca:	f7ff fa3c 	bl	10001446 <push_lr_nachholen>
10001fce:	3f04      	subs	r7, #4
10001fd0:	603e      	str	r6, [r7, #0]
10001fd2:	4e21      	ldr	r6, [pc, #132]	; (10002058 <Code_235+0x30>)
10001fd4:	f002 f939 	bl	1000424a <Code_836>
10001fd8:	bd00      	pop	{pc}
10001fda:	46c0      	nop			; (mov r8, r8)

10001fdc <Dictionary_232>:
10001fdc:	10001ff0 	strdne	r1, [r0], -r0
10001fe0:	72050020 	andvc	r0, r5, #32
10001fe4:	6b636970 	blvs	118dc5ac <FlashDictionaryEnde+0x18cb5ac>

10001fe8 <Code_232>:
10001fe8:	00b6      	lsls	r6, r6, #2
10001fea:	446e      	add	r6, sp
10001fec:	6836      	ldr	r6, [r6, #0]
10001fee:	4770      	bx	lr

10001ff0 <Dictionary_233>:
10001ff0:	1000201c 	andne	r2, r0, ip, lsl r0
10001ff4:	72040000 	andvc	r0, r4, #0
10001ff8:	006c6c6f 	rsbeq	r6, ip, pc, ror #24

10001ffc <Code_233>:
10001ffc:	2e00      	cmp	r6, #0
10001ffe:	d101      	bne.n	10002004 <Code_233+0x8>
10002000:	cf40      	ldmia	r7!, {r6}
10002002:	4770      	bx	lr
10002004:	00b0      	lsls	r0, r6, #2
10002006:	5839      	ldr	r1, [r7, r0]
10002008:	19c0      	adds	r0, r0, r7
1000200a:	1f03      	subs	r3, r0, #4
1000200c:	681a      	ldr	r2, [r3, #0]
1000200e:	6002      	str	r2, [r0, #0]
10002010:	3804      	subs	r0, #4
10002012:	3e01      	subs	r6, #1
10002014:	d1f9      	bne.n	1000200a <Code_233+0xe>
10002016:	3704      	adds	r7, #4
10002018:	000e      	movs	r6, r1
1000201a:	4770      	bx	lr

1000201c <Dictionary_235>:
1000201c:	1000205c 	andne	r2, r0, ip, asr r0
10002020:	2d050000 	stccs	0, cr0, [r5]
10002024:	6c6c6f72 	stclvs	15, cr6, [ip], #-456	; 0xfffffe38

10002028 <Code_235>:
10002028:	2e00      	cmp	r6, #0
1000202a:	d101      	bne.n	10002030 <Code_235+0x8>
1000202c:	cf40      	ldmia	r7!, {r6}
1000202e:	4770      	bx	lr
10002030:	6838      	ldr	r0, [r7, #0]
10002032:	4639      	mov	r1, r7
10002034:	684a      	ldr	r2, [r1, #4]
10002036:	600a      	str	r2, [r1, #0]
10002038:	3104      	adds	r1, #4
1000203a:	3e01      	subs	r6, #1
1000203c:	d1fa      	bne.n	10002034 <Code_235+0xc>
1000203e:	6008      	str	r0, [r1, #0]
10002040:	cf40      	ldmia	r7!, {r6}
10002042:	4770      	bx	lr
10002044:	00003704 	andeq	r3, r0, r4, lsl #14
10002048:	20000480 	andcs	r0, r0, r0, lsl #9
1000204c:	20000580 	andcs	r0, r0, r0, lsl #11
10002050:	0000b400 	andeq	fp, r0, r0, lsl #8
10002054:	0000bc00 	andeq	fp, r0, r0, lsl #24
10002058:	0000b001 	andeq	fp, r0, r1

1000205c <Dictionary_238>:
1000205c:	10002074 	andne	r2, r0, r4, ror r0
10002060:	61030262 	tstvs	r3, r2, ror #4
10002064:	cf01646e 	svcgt	0x0001646e

10002066 <Code_238>:
10002066:	cf01      	ldmia	r7!, {r0}
10002068:	4006      	ands	r6, r0
1000206a:	4770      	bx	lr
1000206c:	3f04      	subs	r7, #4
1000206e:	603e      	str	r6, [r7, #0]
10002070:	4e6f      	ldr	r6, [pc, #444]	; (10002230 <alloc_logic_gemeinsam+0x20>)
10002072:	e0c0      	b.n	100021f6 <alloc_kommutativ>

10002074 <Dictionary_241>:
10002074:	10002090 	mulne	r0, r0, r0
10002078:	62030262 	andvs	r0, r3, #536870918	; 0x20000006
1000207c:	cf016369 	svcgt	0x00016369

1000207e <Code_241>:
1000207e:	cf01      	ldmia	r7!, {r0}
10002080:	43b0      	bics	r0, r6
10002082:	0006      	movs	r6, r0
10002084:	4770      	bx	lr
10002086:	3f04      	subs	r7, #4
10002088:	603e      	str	r6, [r7, #0]
1000208a:	4e6a      	ldr	r6, [pc, #424]	; (10002234 <alloc_logic_gemeinsam+0x24>)
1000208c:	e0af      	b.n	100021ee <alloc_unkommutativ>
1000208e:	46c0      	nop			; (mov r8, r8)

10002090 <Dictionary_244>:
10002090:	100020a8 	andne	r2, r0, r8, lsr #1
10002094:	6f020262 	svcvs	0x00020262
10002098:	cf010072 	svcgt	0x00010072

1000209a <Code_244>:
1000209a:	cf01      	ldmia	r7!, {r0}
1000209c:	4306      	orrs	r6, r0
1000209e:	4770      	bx	lr

100020a0 <or_allocator>:
100020a0:	3f04      	subs	r7, #4
100020a2:	603e      	str	r6, [r7, #0]
100020a4:	4e64      	ldr	r6, [pc, #400]	; (10002238 <alloc_logic_gemeinsam+0x28>)
100020a6:	e0a6      	b.n	100021f6 <alloc_kommutativ>

100020a8 <Dictionary_247>:
100020a8:	100020c0 	andne	r2, r0, r0, asr #1
100020ac:	78030262 	stmdavc	r3, {r1, r5, r6, r9}
100020b0:	cf01726f 	svcgt	0x0001726f

100020b2 <Code_247>:
100020b2:	cf01      	ldmia	r7!, {r0}
100020b4:	4046      	eors	r6, r0
100020b6:	4770      	bx	lr

100020b8 <xor_allocator>:
100020b8:	3f04      	subs	r7, #4
100020ba:	603e      	str	r6, [r7, #0]
100020bc:	4e5f      	ldr	r6, [pc, #380]	; (1000223c <alloc_logic_gemeinsam+0x2c>)
100020be:	e09a      	b.n	100021f6 <alloc_kommutativ>

100020c0 <Dictionary_250>:
100020c0:	100020d8 	ldrdne	r2, [r0], -r8
100020c4:	2a010262 	bcs	10042a54 <FlashDictionaryEnde+0x31a54>

100020c8 <Code_250>:
100020c8:	cf01      	ldmia	r7!, {r0}
100020ca:	4346      	muls	r6, r0
100020cc:	4770      	bx	lr
100020ce:	3f04      	subs	r7, #4
100020d0:	603e      	str	r6, [r7, #0]
100020d2:	4e5b      	ldr	r6, [pc, #364]	; (10002240 <alloc_logic_gemeinsam+0x30>)
100020d4:	e08f      	b.n	100021f6 <alloc_kommutativ>
100020d6:	46c0      	nop			; (mov r8, r8)

100020d8 <Dictionary_253>:
100020d8:	100020f8 	strdne	r2, [r0], -r8
100020dc:	63030041 	movwvs	r0, #12353	; 0x3041
100020e0:	00307a6c 	eorseq	r7, r0, ip, ror #20

100020e2 <Code_253>:
100020e2:	0030      	movs	r0, r6
100020e4:	d006      	beq.n	100020f4 <Code_253+0x12>
100020e6:	2600      	movs	r6, #0
100020e8:	0040      	lsls	r0, r0, #1
100020ea:	d002      	beq.n	100020f2 <Code_253+0x10>
100020ec:	d201      	bcs.n	100020f2 <Code_253+0x10>
100020ee:	3601      	adds	r6, #1
100020f0:	e7fa      	b.n	100020e8 <Code_253+0x6>
100020f2:	4770      	bx	lr
100020f4:	2620      	movs	r6, #32
100020f6:	4770      	bx	lr

100020f8 <Dictionary_254>:
100020f8:	10002108 	andne	r2, r0, r8, lsl #2
100020fc:	72030061 	andvc	r0, r3, #97	; 0x61
10002100:	2001726f 	andcs	r7, r1, pc, ror #4

10002102 <Code_254>:
10002102:	2001      	movs	r0, #1
10002104:	41c6      	rors	r6, r0
10002106:	4770      	bx	lr

10002108 <Dictionary_255>:
10002108:	1000211c 	andne	r2, r0, ip, lsl r1
1000210c:	72030061 	andvc	r0, r3, #97	; 0x61
10002110:	20006c6f 	andcs	r6, r0, pc, ror #24

10002112 <Code_255>:
10002112:	2000      	movs	r0, #0
10002114:	19b6      	adds	r6, r6, r6
10002116:	4146      	adcs	r6, r0
10002118:	4770      	bx	lr
1000211a:	46c0      	nop			; (mov r8, r8)

1000211c <Dictionary_256>:
1000211c:	10002150 	andne	r2, r0, r0, asr r1
10002120:	61070262 	tstvs	r7, r2, ror #4
10002124:	69687372 	stmdbvs	r8!, {r1, r4, r5, r6, r8, r9, ip, sp, lr}^
10002128:	cf017466 	svcgt	0x00017466

1000212a <Code_256>:
1000212a:	cf01      	ldmia	r7!, {r0}
1000212c:	4130      	asrs	r0, r6
1000212e:	0006      	movs	r6, r0
10002130:	4770      	bx	lr
10002132:	b500      	push	{lr}
10002134:	3f04      	subs	r7, #4
10002136:	603e      	str	r6, [r7, #0]
10002138:	4e42      	ldr	r6, [pc, #264]	; (10002244 <alloc_logic_gemeinsam+0x34>)
1000213a:	3f04      	subs	r7, #4
1000213c:	603e      	str	r6, [r7, #0]
1000213e:	4e42      	ldr	r6, [pc, #264]	; (10002248 <alloc_logic_gemeinsam+0x38>)
10002140:	f7ff f8f5 	bl	1000132e <expect_two_elements>
10002144:	6841      	ldr	r1, [r0, #4]
10002146:	291f      	cmp	r1, #31
10002148:	d928      	bls.n	1000219c <Code_266+0x16>
1000214a:	211f      	movs	r1, #31
1000214c:	6041      	str	r1, [r0, #4]
1000214e:	e025      	b.n	1000219c <Code_266+0x16>

10002150 <Dictionary_261>:
10002150:	10002178 	andne	r2, r0, r8, ror r1
10002154:	72060262 	andvc	r0, r6, #536870918	; 0x20000006
10002158:	66696873 			; <UNDEFINED> instruction: 0x66696873
1000215c:	cf010074 	svcgt	0x00010074

1000215e <Code_261>:
1000215e:	cf01      	ldmia	r7!, {r0}
10002160:	40f0      	lsrs	r0, r6
10002162:	0006      	movs	r6, r0
10002164:	4770      	bx	lr
10002166:	b500      	push	{lr}
10002168:	3f04      	subs	r7, #4
1000216a:	603e      	str	r6, [r7, #0]
1000216c:	4e37      	ldr	r6, [pc, #220]	; (1000224c <alloc_logic_gemeinsam+0x3c>)
1000216e:	3f04      	subs	r7, #4
10002170:	603e      	str	r6, [r7, #0]
10002172:	4e37      	ldr	r6, [pc, #220]	; (10002250 <alloc_logic_gemeinsam+0x40>)
10002174:	e012      	b.n	1000219c <Code_266+0x16>
10002176:	46c0      	nop			; (mov r8, r8)

10002178 <Dictionary_266>:
10002178:	1000225c 	andne	r2, r0, ip, asr r2
1000217c:	6c060262 	sfmvs	f0, 4, [r6], {98}	; 0x62
10002180:	66696873 			; <UNDEFINED> instruction: 0x66696873
10002184:	cf010074 	svcgt	0x00010074

10002186 <Code_266>:
10002186:	cf01      	ldmia	r7!, {r0}
10002188:	40b0      	lsls	r0, r6
1000218a:	0006      	movs	r6, r0
1000218c:	4770      	bx	lr
1000218e:	b500      	push	{lr}
10002190:	3f04      	subs	r7, #4
10002192:	603e      	str	r6, [r7, #0]
10002194:	4e2f      	ldr	r6, [pc, #188]	; (10002254 <alloc_logic_gemeinsam+0x44>)
10002196:	3f04      	subs	r7, #4
10002198:	603e      	str	r6, [r7, #0]
1000219a:	2600      	movs	r6, #0
1000219c:	f7ff f8c7 	bl	1000132e <expect_two_elements>
100021a0:	6801      	ldr	r1, [r0, #0]
100021a2:	2928      	cmp	r1, #40	; 0x28
100021a4:	d003      	beq.n	100021ae <Code_266+0x28>
100021a6:	cf40      	ldmia	r7!, {r6}
100021a8:	f000 f821 	bl	100021ee <alloc_unkommutativ>
100021ac:	bd00      	pop	{pc}
100021ae:	3704      	adds	r7, #4
100021b0:	6841      	ldr	r1, [r0, #4]
100021b2:	f7fe ffaa 	bl	1000110a <eliminiere_tos>
100021b6:	2900      	cmp	r1, #0
100021b8:	d101      	bne.n	100021be <Code_266+0x38>
100021ba:	cf40      	ldmia	r7!, {r6}
100021bc:	bd00      	pop	{pc}
100021be:	291f      	cmp	r1, #31
100021c0:	d80a      	bhi.n	100021d8 <Code_266+0x52>
100021c2:	0189      	lsls	r1, r1, #6
100021c4:	430e      	orrs	r6, r1
100021c6:	6802      	ldr	r2, [r0, #0]
100021c8:	00d2      	lsls	r2, r2, #3
100021ca:	4316      	orrs	r6, r2
100021cc:	f7ff f932 	bl	10001434 <tos_registerwechsel>
100021d0:	431e      	orrs	r6, r3
100021d2:	f002 f83a 	bl	1000424a <Code_836>
100021d6:	bd00      	pop	{pc}
100021d8:	cf40      	ldmia	r7!, {r6}
100021da:	f7ff f92b 	bl	10001434 <tos_registerwechsel>
100021de:	3f04      	subs	r7, #4
100021e0:	603e      	str	r6, [r7, #0]
100021e2:	4e1d      	ldr	r6, [pc, #116]	; (10002258 <alloc_logic_gemeinsam+0x48>)
100021e4:	021b      	lsls	r3, r3, #8
100021e6:	431e      	orrs	r6, r3
100021e8:	f002 f82f 	bl	1000424a <Code_836>
100021ec:	bd00      	pop	{pc}

100021ee <alloc_unkommutativ>:
100021ee:	b50f      	push	{r0, r1, r2, r3, lr}

100021f0 <alloc_unkommutativ_ohneregister>:
100021f0:	f7ff f89d 	bl	1000132e <expect_two_elements>
100021f4:	e00c      	b.n	10002210 <alloc_logic_gemeinsam>

100021f6 <alloc_kommutativ>:
100021f6:	b50f      	push	{r0, r1, r2, r3, lr}

100021f8 <alloc_kommutativ_ohneregister>:
100021f8:	f7ff f899 	bl	1000132e <expect_two_elements>
100021fc:	6801      	ldr	r1, [r0, #0]
100021fe:	2906      	cmp	r1, #6
10002200:	d101      	bne.n	10002206 <alloc_kommutativ_ohneregister+0xe>
10002202:	f7ff fdf9 	bl	10001df8 <swap_allocator>
10002206:	6882      	ldr	r2, [r0, #8]
10002208:	2a28      	cmp	r2, #40	; 0x28
1000220a:	d101      	bne.n	10002210 <alloc_logic_gemeinsam>
1000220c:	f7ff fdf4 	bl	10001df8 <swap_allocator>

10002210 <alloc_logic_gemeinsam>:
10002210:	f7ff f8cc 	bl	100013ac <expect_nos_in_register>
10002214:	f7ff f8de 	bl	100013d4 <nos_change_tos_away_later>
10002218:	f7ff f8be 	bl	10001398 <expect_tos_in_register>
1000221c:	00c9      	lsls	r1, r1, #3
1000221e:	6882      	ldr	r2, [r0, #8]
10002220:	430e      	orrs	r6, r1
10002222:	4316      	orrs	r6, r2
10002224:	f002 f811 	bl	1000424a <Code_836>
10002228:	f7fe ff6f 	bl	1000110a <eliminiere_tos>
1000222c:	bd0f      	pop	{r0, r1, r2, r3, pc}
1000222e:	40000000 	andmi	r0, r0, r0
10002232:	43800000 	orrmi	r0, r0, #0
10002236:	43000000 	movwmi	r0, #0
1000223a:	40400000 	submi	r0, r0, r0
1000223e:	43400000 	movtmi	r0, #0
10002242:	41000000 	mrsmi	r0, (UNDEF: 0)
10002246:	10000000 	andne	r0, r0, r0
1000224a:	40c00000 	sbcmi	r0, r0, r0
1000224e:	08000000 	stmdaeq	r0, {}	; <UNPREDICTABLE>
10002252:	40800000 	addmi	r0, r0, r0
10002256:	20000000 	andcs	r0, r0, r0
	...

1000225c <Dictionary_277>:
1000225c:	10002280 	andne	r2, r0, r0, lsl #5
10002260:	30020261 	andcc	r0, r2, r1, ror #4
10002264:	3e01003d 	mcrcc	0, 0, r0, cr1, cr13, {1}

10002266 <Code_277>:
10002266:	3e01      	subs	r6, #1
10002268:	41b6      	sbcs	r6, r6
1000226a:	4770      	bx	lr

1000226c <allocator_equal_zero>:
1000226c:	b500      	push	{lr}
1000226e:	f000 f903 	bl	10002478 <prepare_single_compare>
10002272:	f000 fec2 	bl	10002ffa <allocator_one_minus>
10002276:	f7fe ff48 	bl	1000110a <eliminiere_tos>
1000227a:	4973      	ldr	r1, [pc, #460]	; (10002448 <Code_331+0x18>)
1000227c:	6281      	str	r1, [r0, #40]	; 0x28
1000227e:	bd00      	pop	{pc}

10002280 <Dictionary_278>:
10002280:	100022a8 	andne	r2, r0, r8, lsr #5
10002284:	30030261 	andcc	r0, r3, r1, ror #4
10002288:	3e013e3c 	mcrcc	14, 0, r3, cr1, cr12, {1}

1000228a <Code_278>:
1000228a:	3e01      	subs	r6, #1
1000228c:	41b6      	sbcs	r6, r6
1000228e:	43f6      	mvns	r6, r6
10002290:	4770      	bx	lr

10002292 <allocator_unequal_zero>:
10002292:	b500      	push	{lr}
10002294:	f000 f8f0 	bl	10002478 <prepare_single_compare>
10002298:	f000 feaf 	bl	10002ffa <allocator_one_minus>
1000229c:	f7fe ff35 	bl	1000110a <eliminiere_tos>
100022a0:	496a      	ldr	r1, [pc, #424]	; (1000244c <Code_331+0x1c>)
100022a2:	6281      	str	r1, [r0, #40]	; 0x28
100022a4:	bd00      	pop	{pc}
100022a6:	46c0      	nop			; (mov r8, r8)

100022a8 <Dictionary_279>:
100022a8:	100022cc 	andne	r2, r0, ip, asr #5
100022ac:	30020261 	andcc	r0, r2, r1, ror #4
100022b0:	17f6003c 			; <UNDEFINED> instruction: 0x17f6003c

100022b2 <Code_279>:
100022b2:	17f6      	asrs	r6, r6, #31
100022b4:	4770      	bx	lr

100022b6 <alloc_nullkleiner>:
100022b6:	b500      	push	{lr}
100022b8:	f000 f8de 	bl	10002478 <prepare_single_compare>
100022bc:	3f04      	subs	r7, #4
100022be:	603e      	str	r6, [r7, #0]
100022c0:	4e63      	ldr	r6, [pc, #396]	; (10002450 <Code_331+0x20>)
100022c2:	f000 fedb 	bl	1000307c <smalltworegisters>
100022c6:	4963      	ldr	r1, [pc, #396]	; (10002454 <Code_331+0x24>)
100022c8:	6281      	str	r1, [r0, #40]	; 0x28
100022ca:	bd00      	pop	{pc}

100022cc <Dictionary_282>:
100022cc:	100022e4 	andne	r2, r0, r4, ror #5
100022d0:	74040060 	strvc	r0, [r4], #-96	; 0x60
100022d4:	00657572 	rsbeq	r7, r5, r2, ror r5

100022d8 <Code_282>:
100022d8:	3f04      	subs	r7, #4
100022da:	603e      	str	r6, [r7, #0]

100022dc <generate_true>:
100022dc:	2600      	movs	r6, #0
100022de:	43f6      	mvns	r6, r6
100022e0:	4770      	bx	lr
100022e2:	46c0      	nop			; (mov r8, r8)

100022e4 <Dictionary_284>:
100022e4:	100022f8 	strdne	r2, [r0], -r8
100022e8:	66050060 	strvs	r0, [r5], -r0, rrx
100022ec:	65736c61 	ldrbvs	r6, [r3, #-3169]!	; 0xc61

100022f0 <Code_284>:
100022f0:	3f04      	subs	r7, #4
100022f2:	603e      	str	r6, [r7, #0]
100022f4:	2600      	movs	r6, #0
100022f6:	4770      	bx	lr

100022f8 <Dictionary_286>:
100022f8:	1000231c 	andne	r2, r0, ip, lsl r3
100022fc:	3e020242 	cdpcc	2, 0, cr0, cr2, cr2, {2}
10002300:	cf01003d 	svcgt	0x0001003d

10002302 <Code_286>:
10002302:	cf01      	ldmia	r7!, {r0}
10002304:	42b0      	cmp	r0, r6
10002306:	dae9      	bge.n	100022dc <generate_true>
10002308:	2600      	movs	r6, #0
1000230a:	4770      	bx	lr
1000230c:	3f04      	subs	r7, #4
1000230e:	603e      	str	r6, [r7, #0]
10002310:	4e51      	ldr	r6, [pc, #324]	; (10002458 <Code_331+0x28>)
10002312:	3f04      	subs	r7, #4
10002314:	603e      	str	r6, [r7, #0]
10002316:	4e51      	ldr	r6, [pc, #324]	; (1000245c <Code_331+0x2c>)
10002318:	e0ba      	b.n	10002490 <prepare_compare>
1000231a:	46c0      	nop			; (mov r8, r8)

1000231c <Dictionary_291>:
1000231c:	10002340 	andne	r2, r0, r0, asr #6
10002320:	3c020242 	sfmcc	f0, 4, [r2], {66}	; 0x42
10002324:	cf01003d 	svcgt	0x0001003d

10002326 <Code_291>:
10002326:	cf01      	ldmia	r7!, {r0}
10002328:	42b0      	cmp	r0, r6
1000232a:	ddd7      	ble.n	100022dc <generate_true>
1000232c:	2600      	movs	r6, #0
1000232e:	4770      	bx	lr
10002330:	3f04      	subs	r7, #4
10002332:	603e      	str	r6, [r7, #0]
10002334:	4e4a      	ldr	r6, [pc, #296]	; (10002460 <Code_331+0x30>)
10002336:	3f04      	subs	r7, #4
10002338:	603e      	str	r6, [r7, #0]
1000233a:	4e4a      	ldr	r6, [pc, #296]	; (10002464 <Code_331+0x34>)
1000233c:	e0a8      	b.n	10002490 <prepare_compare>
1000233e:	46c0      	nop			; (mov r8, r8)

10002340 <Dictionary_296>:
10002340:	10002360 	andne	r2, r0, r0, ror #6
10002344:	3c010242 	sfmcc	f0, 4, [r1], {66}	; 0x42

10002348 <Code_296>:
10002348:	cf01      	ldmia	r7!, {r0}
1000234a:	42b0      	cmp	r0, r6
1000234c:	dbc6      	blt.n	100022dc <generate_true>
1000234e:	2600      	movs	r6, #0
10002350:	4770      	bx	lr
10002352:	3f04      	subs	r7, #4
10002354:	603e      	str	r6, [r7, #0]
10002356:	4e41      	ldr	r6, [pc, #260]	; (1000245c <Code_331+0x2c>)
10002358:	3f04      	subs	r7, #4
1000235a:	603e      	str	r6, [r7, #0]
1000235c:	4e3e      	ldr	r6, [pc, #248]	; (10002458 <Code_331+0x28>)
1000235e:	e097      	b.n	10002490 <prepare_compare>

10002360 <Dictionary_301>:
10002360:	10002380 	andne	r2, r0, r0, lsl #7
10002364:	3e010242 	cdpcc	2, 0, cr0, cr1, cr2, {2}

10002368 <Code_301>:
10002368:	cf01      	ldmia	r7!, {r0}
1000236a:	42b0      	cmp	r0, r6
1000236c:	dcb6      	bgt.n	100022dc <generate_true>
1000236e:	2600      	movs	r6, #0
10002370:	4770      	bx	lr
10002372:	3f04      	subs	r7, #4
10002374:	603e      	str	r6, [r7, #0]
10002376:	4e3b      	ldr	r6, [pc, #236]	; (10002464 <Code_331+0x34>)
10002378:	3f04      	subs	r7, #4
1000237a:	603e      	str	r6, [r7, #0]
1000237c:	4e38      	ldr	r6, [pc, #224]	; (10002460 <Code_331+0x30>)
1000237e:	e087      	b.n	10002490 <prepare_compare>

10002380 <Dictionary_306>:
10002380:	100023a4 	andne	r2, r0, r4, lsr #7
10002384:	75030262 	strvc	r0, [r3, #-610]	; 0x262
10002388:	cf013d3e 	svcgt	0x00013d3e

1000238a <Code_306>:
1000238a:	cf01      	ldmia	r7!, {r0}
1000238c:	1b86      	subs	r6, r0, r6
1000238e:	41b6      	sbcs	r6, r6
10002390:	43f6      	mvns	r6, r6
10002392:	4770      	bx	lr
10002394:	3f04      	subs	r7, #4
10002396:	603e      	str	r6, [r7, #0]
10002398:	4e2c      	ldr	r6, [pc, #176]	; (1000244c <Code_331+0x1c>)
1000239a:	3f04      	subs	r7, #4
1000239c:	603e      	str	r6, [r7, #0]
1000239e:	4e2a      	ldr	r6, [pc, #168]	; (10002448 <Code_331+0x18>)
100023a0:	e076      	b.n	10002490 <prepare_compare>
100023a2:	46c0      	nop			; (mov r8, r8)

100023a4 <Dictionary_311>:
100023a4:	100023c8 	andne	r2, r0, r8, asr #7
100023a8:	75030262 	strvc	r0, [r3, #-610]	; 0x262
100023ac:	cf013d3c 	svcgt	0x00013d3c

100023ae <Code_311>:
100023ae:	cf01      	ldmia	r7!, {r0}
100023b0:	1a36      	subs	r6, r6, r0
100023b2:	41b6      	sbcs	r6, r6
100023b4:	43f6      	mvns	r6, r6
100023b6:	4770      	bx	lr
100023b8:	3f04      	subs	r7, #4
100023ba:	603e      	str	r6, [r7, #0]
100023bc:	4e2a      	ldr	r6, [pc, #168]	; (10002468 <Code_331+0x38>)
100023be:	3f04      	subs	r7, #4
100023c0:	603e      	str	r6, [r7, #0]
100023c2:	4e2a      	ldr	r6, [pc, #168]	; (1000246c <Code_331+0x3c>)
100023c4:	e064      	b.n	10002490 <prepare_compare>
100023c6:	46c0      	nop			; (mov r8, r8)

100023c8 <Dictionary_316>:
100023c8:	100023e8 	andne	r2, r0, r8, ror #7
100023cc:	75020262 	strvc	r0, [r2, #-610]	; 0x262
100023d0:	cf01003c 	svcgt	0x0001003c

100023d2 <Code_316>:
100023d2:	cf01      	ldmia	r7!, {r0}
100023d4:	1b86      	subs	r6, r0, r6
100023d6:	41b6      	sbcs	r6, r6
100023d8:	4770      	bx	lr
100023da:	3f04      	subs	r7, #4
100023dc:	603e      	str	r6, [r7, #0]
100023de:	4e1a      	ldr	r6, [pc, #104]	; (10002448 <Code_331+0x18>)
100023e0:	3f04      	subs	r7, #4
100023e2:	603e      	str	r6, [r7, #0]
100023e4:	4e19      	ldr	r6, [pc, #100]	; (1000244c <Code_331+0x1c>)
100023e6:	e053      	b.n	10002490 <prepare_compare>

100023e8 <Dictionary_321>:
100023e8:	10002408 	andne	r2, r0, r8, lsl #8
100023ec:	75020262 	strvc	r0, [r2, #-610]	; 0x262
100023f0:	cf01003e 	svcgt	0x0001003e

100023f2 <Code_321>:
100023f2:	cf01      	ldmia	r7!, {r0}
100023f4:	1a36      	subs	r6, r6, r0
100023f6:	41b6      	sbcs	r6, r6
100023f8:	4770      	bx	lr
100023fa:	3f04      	subs	r7, #4
100023fc:	603e      	str	r6, [r7, #0]
100023fe:	4e1b      	ldr	r6, [pc, #108]	; (1000246c <Code_331+0x3c>)
10002400:	3f04      	subs	r7, #4
10002402:	603e      	str	r6, [r7, #0]
10002404:	4e18      	ldr	r6, [pc, #96]	; (10002468 <Code_331+0x38>)
10002406:	e043      	b.n	10002490 <prepare_compare>

10002408 <Dictionary_326>:
10002408:	10002428 	andne	r2, r0, r8, lsr #8
1000240c:	3c020262 	sfmcc	f0, 4, [r2], {98}	; 0x62
10002410:	cf01003e 	svcgt	0x0001003e

10002412 <Code_326>:
10002412:	cf01      	ldmia	r7!, {r0}
10002414:	1b81      	subs	r1, r0, r6
10002416:	1a36      	subs	r6, r6, r0
10002418:	430e      	orrs	r6, r1
1000241a:	4770      	bx	lr
1000241c:	3f04      	subs	r7, #4
1000241e:	603e      	str	r6, [r7, #0]
10002420:	4e13      	ldr	r6, [pc, #76]	; (10002470 <Code_331+0x40>)
10002422:	3f04      	subs	r7, #4
10002424:	603e      	str	r6, [r7, #0]
10002426:	e033      	b.n	10002490 <prepare_compare>

10002428 <Dictionary_331>:
10002428:	10002584 	andne	r2, r0, r4, lsl #11
1000242c:	3d010262 	sfmcc	f0, 4, [r1, #-392]	; 0xfffffe78

10002430 <Code_331>:
10002430:	cf01      	ldmia	r7!, {r0}
10002432:	1a36      	subs	r6, r6, r0
10002434:	3e01      	subs	r6, #1
10002436:	41b6      	sbcs	r6, r6
10002438:	4770      	bx	lr
1000243a:	3f04      	subs	r7, #4
1000243c:	603e      	str	r6, [r7, #0]
1000243e:	4e0d      	ldr	r6, [pc, #52]	; (10002474 <Code_331+0x44>)
10002440:	3f04      	subs	r7, #4
10002442:	603e      	str	r6, [r7, #0]
10002444:	e024      	b.n	10002490 <prepare_compare>
10002446:	d2000000 	andle	r0, r0, #0
1000244a:	d3000000 	movwle	r0, #0
1000244e:	17c00000 	strbne	r0, [r0, r0]
10002452:	d5000000 	strle	r0, [r0]
10002456:	db000000 	blle	1000245e <Code_331+0x2e>
1000245a:	da000000 	ble	10002462 <Code_331+0x32>
1000245e:	dc000000 	stcle	0, cr0, [r0], {0}
10002462:	dd000000 	stcle	0, cr0, [r0]
10002466:	d8000000 	stmdale	r0, {}	; <UNPREDICTABLE>
1000246a:	d9000000 	stmdble	r0, {}	; <UNPREDICTABLE>
1000246e:	d0000000 	andle	r0, r0, r0
10002472:	d1000000 	mrsle	r0, (UNDEF: 0)
	...

10002478 <prepare_single_compare>:
10002478:	b500      	push	{lr}
1000247a:	f7fe ff4e 	bl	1000131a <expect_one_element>
1000247e:	f7fe fe7f 	bl	10001180 <tidyup_register_allocator_5os>
10002482:	f7fe fe82 	bl	1000118a <tidyup_register_allocator_4os>
10002486:	f7fe fe85 	bl	10001194 <tidyup_register_allocator_3os>
1000248a:	f7fe ff8f 	bl	100013ac <expect_nos_in_register>
1000248e:	bd00      	pop	{pc}

10002490 <prepare_compare>:
10002490:	b500      	push	{lr}
10002492:	f7fe ff4c 	bl	1000132e <expect_two_elements>
10002496:	f7fe fe73 	bl	10001180 <tidyup_register_allocator_5os>
1000249a:	f7fe fe76 	bl	1000118a <tidyup_register_allocator_4os>
1000249e:	f7fe ff8f 	bl	100013c0 <expect_3os_in_register>
100024a2:	6882      	ldr	r2, [r0, #8]
100024a4:	2a28      	cmp	r2, #40	; 0x28
100024a6:	d104      	bne.n	100024b2 <prepare_compare+0x22>
100024a8:	f7ff fca6 	bl	10001df8 <swap_allocator>
100024ac:	6839      	ldr	r1, [r7, #0]
100024ae:	603e      	str	r6, [r7, #0]
100024b0:	460e      	mov	r6, r1
100024b2:	cf40      	ldmia	r7!, {r6}
100024b4:	6801      	ldr	r1, [r0, #0]
100024b6:	2928      	cmp	r1, #40	; 0x28
100024b8:	d109      	bne.n	100024ce <prepare_compare+0x3e>
100024ba:	6841      	ldr	r1, [r0, #4]
100024bc:	29ff      	cmp	r1, #255	; 0xff
100024be:	d806      	bhi.n	100024ce <prepare_compare+0x3e>
100024c0:	3f04      	subs	r7, #4
100024c2:	603e      	str	r6, [r7, #0]
100024c4:	4e63      	ldr	r6, [pc, #396]	; (10002654 <alloc_minmax+0x5c>)
100024c6:	430e      	orrs	r6, r1
100024c8:	6881      	ldr	r1, [r0, #8]
100024ca:	0209      	lsls	r1, r1, #8
100024cc:	e006      	b.n	100024dc <prepare_compare+0x4c>
100024ce:	f7fe ff63 	bl	10001398 <expect_tos_in_register>
100024d2:	3f04      	subs	r7, #4
100024d4:	603e      	str	r6, [r7, #0]
100024d6:	4e60      	ldr	r6, [pc, #384]	; (10002658 <alloc_minmax+0x60>)
100024d8:	00c9      	lsls	r1, r1, #3
100024da:	4316      	orrs	r6, r2
100024dc:	430e      	orrs	r6, r1
100024de:	f001 feb4 	bl	1000424a <Code_836>
100024e2:	f7fe fe12 	bl	1000110a <eliminiere_tos>
100024e6:	f7fe fe10 	bl	1000110a <eliminiere_tos>
100024ea:	6286      	str	r6, [r0, #40]	; 0x28
100024ec:	cf40      	ldmia	r7!, {r6}
100024ee:	bd00      	pop	{pc}

100024f0 <sprungschreiber_flaggenerator>:
100024f0:	b50f      	push	{r0, r1, r2, r3, lr}
100024f2:	485a      	ldr	r0, [pc, #360]	; (1000265c <alloc_minmax+0x64>)
100024f4:	6a81      	ldr	r1, [r0, #40]	; 0x28
100024f6:	2900      	cmp	r1, #0
100024f8:	d030      	beq.n	1000255c <sprungschreiber_flaggenerator+0x6c>
100024fa:	3f04      	subs	r7, #4
100024fc:	603e      	str	r6, [r7, #0]
100024fe:	6a86      	ldr	r6, [r0, #40]	; 0x28
10002500:	2100      	movs	r1, #0
10002502:	6281      	str	r1, [r0, #40]	; 0x28
10002504:	0a31      	lsrs	r1, r6, #8
10002506:	29d5      	cmp	r1, #213	; 0xd5
10002508:	d101      	bne.n	1000250e <sprungschreiber_flaggenerator+0x1e>
1000250a:	cf40      	ldmia	r7!, {r6}
1000250c:	bd0f      	pop	{r0, r1, r2, r3, pc}
1000250e:	f7fe fdf2 	bl	100010f6 <befreie_tos>
10002512:	f7fe fecf 	bl	100012b4 <get_free_register>
10002516:	6003      	str	r3, [r0, #0]
10002518:	29d2      	cmp	r1, #210	; 0xd2
1000251a:	d103      	bne.n	10002524 <sprungschreiber_flaggenerator+0x34>
1000251c:	4e50      	ldr	r6, [pc, #320]	; (10002660 <alloc_minmax+0x68>)
1000251e:	f000 fdad 	bl	1000307c <smalltworegisters>
10002522:	bd0f      	pop	{r0, r1, r2, r3, pc}
10002524:	29d3      	cmp	r1, #211	; 0xd3
10002526:	d105      	bne.n	10002534 <sprungschreiber_flaggenerator+0x44>
10002528:	4e4d      	ldr	r6, [pc, #308]	; (10002660 <alloc_minmax+0x68>)
1000252a:	f000 fda7 	bl	1000307c <smalltworegisters>
1000252e:	f000 fdb8 	bl	100030a2 <allocator_not>
10002532:	bd0f      	pop	{r0, r1, r2, r3, pc}
10002534:	3602      	adds	r6, #2
10002536:	f001 fe88 	bl	1000424a <Code_836>
1000253a:	3f04      	subs	r7, #4
1000253c:	603e      	str	r6, [r7, #0]
1000253e:	4e49      	ldr	r6, [pc, #292]	; (10002664 <alloc_minmax+0x6c>)
10002540:	f000 f80d 	bl	1000255e <smallplusminus>
10002544:	f000 fdad 	bl	100030a2 <allocator_not>
10002548:	3f04      	subs	r7, #4
1000254a:	603e      	str	r6, [r7, #0]
1000254c:	4e46      	ldr	r6, [pc, #280]	; (10002668 <alloc_minmax+0x70>)
1000254e:	f001 fe7c 	bl	1000424a <Code_836>
10002552:	3f04      	subs	r7, #4
10002554:	603e      	str	r6, [r7, #0]
10002556:	4e43      	ldr	r6, [pc, #268]	; (10002664 <alloc_minmax+0x6c>)
10002558:	f000 f801 	bl	1000255e <smallplusminus>
1000255c:	bd0f      	pop	{r0, r1, r2, r3, pc}

1000255e <smallplusminus>:
1000255e:	b500      	push	{lr}
10002560:	f7fe fedb 	bl	1000131a <expect_one_element>
10002564:	f7fe ff4d 	bl	10001402 <make_tos_changeable>
10002568:	6801      	ldr	r1, [r0, #0]
1000256a:	0209      	lsls	r1, r1, #8
1000256c:	430e      	orrs	r6, r1
1000256e:	f001 fe6c 	bl	1000424a <Code_836>
10002572:	bd00      	pop	{pc}

10002574 <eliminiere_tos_wenn_bmi>:
10002574:	b500      	push	{lr}
10002576:	6a81      	ldr	r1, [r0, #40]	; 0x28
10002578:	0a09      	lsrs	r1, r1, #8
1000257a:	29d5      	cmp	r1, #213	; 0xd5
1000257c:	d101      	bne.n	10002582 <eliminiere_tos_wenn_bmi+0xe>
1000257e:	f7fe fdc4 	bl	1000110a <eliminiere_tos>
10002582:	bd00      	pop	{pc}

10002584 <Dictionary_351>:
10002584:	100025a0 	andne	r2, r0, r0, lsr #11
10002588:	6d030262 	sfmvs	f0, 4, [r3, #-392]	; 0xfffffe78
1000258c:	cf016e69 	svcgt	0x00016e69

1000258e <Code_351>:
1000258e:	cf01      	ldmia	r7!, {r0}
10002590:	42b0      	cmp	r0, r6
10002592:	dc00      	bgt.n	10002596 <Code_351+0x8>
10002594:	0006      	movs	r6, r0
10002596:	4770      	bx	lr
10002598:	3f04      	subs	r7, #4
1000259a:	603e      	str	r6, [r7, #0]
1000259c:	4e33      	ldr	r6, [pc, #204]	; (1000266c <alloc_minmax+0x74>)
1000259e:	e02b      	b.n	100025f8 <alloc_minmax>

100025a0 <Dictionary_354>:
100025a0:	100025bc 			; <UNDEFINED> instruction: 0x100025bc
100025a4:	6d030262 	sfmvs	f0, 4, [r3, #-392]	; 0xfffffe78
100025a8:	cf017861 	svcgt	0x00017861

100025aa <Code_354>:
100025aa:	cf01      	ldmia	r7!, {r0}
100025ac:	42b0      	cmp	r0, r6
100025ae:	db00      	blt.n	100025b2 <Code_354+0x8>
100025b0:	0006      	movs	r6, r0
100025b2:	4770      	bx	lr
100025b4:	3f04      	subs	r7, #4
100025b6:	603e      	str	r6, [r7, #0]
100025b8:	4e2d      	ldr	r6, [pc, #180]	; (10002670 <alloc_minmax+0x78>)
100025ba:	e01d      	b.n	100025f8 <alloc_minmax>

100025bc <Dictionary_357>:
100025bc:	100025dc 	ldrdne	r2, [r0], -ip
100025c0:	75040262 	strvc	r0, [r4, #-610]	; 0x262
100025c4:	0078616d 	rsbseq	r6, r8, sp, ror #2

100025c8 <Code_357>:
100025c8:	cf01      	ldmia	r7!, {r0}
100025ca:	42b0      	cmp	r0, r6
100025cc:	d300      	bcc.n	100025d0 <Code_357+0x8>
100025ce:	0006      	movs	r6, r0
100025d0:	4770      	bx	lr
100025d2:	3f04      	subs	r7, #4
100025d4:	603e      	str	r6, [r7, #0]
100025d6:	4e27      	ldr	r6, [pc, #156]	; (10002674 <alloc_minmax+0x7c>)
100025d8:	e00e      	b.n	100025f8 <alloc_minmax>
100025da:	46c0      	nop			; (mov r8, r8)

100025dc <Dictionary_360>:
100025dc:	10002680 	andne	r2, r0, r0, lsl #13
100025e0:	75040262 	strvc	r0, [r4, #-610]	; 0x262
100025e4:	006e696d 	rsbeq	r6, lr, sp, ror #18

100025e8 <Code_360>:
100025e8:	cf01      	ldmia	r7!, {r0}
100025ea:	42b0      	cmp	r0, r6
100025ec:	d800      	bhi.n	100025f0 <Code_360+0x8>
100025ee:	0006      	movs	r6, r0
100025f0:	4770      	bx	lr
100025f2:	3f04      	subs	r7, #4
100025f4:	603e      	str	r6, [r7, #0]
100025f6:	4e20      	ldr	r6, [pc, #128]	; (10002678 <alloc_minmax+0x80>)

100025f8 <alloc_minmax>:
100025f8:	b500      	push	{lr}
100025fa:	f7fe fe98 	bl	1000132e <expect_two_elements>
100025fe:	6801      	ldr	r1, [r0, #0]
10002600:	6882      	ldr	r2, [r0, #8]
10002602:	4291      	cmp	r1, r2
10002604:	d103      	bne.n	1000260e <alloc_minmax+0x16>
10002606:	cf40      	ldmia	r7!, {r6}
10002608:	f7fe fd85 	bl	10001116 <eliminiere_nos>
1000260c:	bd00      	pop	{pc}
1000260e:	2a06      	cmp	r2, #6
10002610:	d101      	bne.n	10002616 <alloc_minmax+0x1e>
10002612:	f7ff fbf1 	bl	10001df8 <swap_allocator>
10002616:	6801      	ldr	r1, [r0, #0]
10002618:	2928      	cmp	r1, #40	; 0x28
1000261a:	d101      	bne.n	10002620 <alloc_minmax+0x28>
1000261c:	f7ff fbec 	bl	10001df8 <swap_allocator>
10002620:	f7fe feef 	bl	10001402 <make_tos_changeable>
10002624:	f7fe fec2 	bl	100013ac <expect_nos_in_register>
10002628:	00c9      	lsls	r1, r1, #3
1000262a:	6802      	ldr	r2, [r0, #0]
1000262c:	3f04      	subs	r7, #4
1000262e:	603e      	str	r6, [r7, #0]
10002630:	4e09      	ldr	r6, [pc, #36]	; (10002658 <alloc_minmax+0x60>)
10002632:	430e      	orrs	r6, r1
10002634:	4316      	orrs	r6, r2
10002636:	f001 fe08 	bl	1000424a <Code_836>
1000263a:	f001 fe06 	bl	1000424a <Code_836>
1000263e:	3f04      	subs	r7, #4
10002640:	603e      	str	r6, [r7, #0]
10002642:	4e0e      	ldr	r6, [pc, #56]	; (1000267c <alloc_minmax+0x84>)
10002644:	430e      	orrs	r6, r1
10002646:	4316      	orrs	r6, r2
10002648:	f001 fdff 	bl	1000424a <Code_836>
1000264c:	f7fe fd63 	bl	10001116 <eliminiere_nos>
10002650:	bd00      	pop	{pc}
10002652:	28000000 	stmdacs	r0, {}	; <UNPREDICTABLE>
10002656:	42800000 	addmi	r0, r0, #0
1000265a:	011c0000 	tsteq	ip, r0
1000265e:	41802000 	orrmi	r2, r0, r0
10002662:	20000000 	andcs	r0, r0, r0
10002666:	e0000000 	and	r0, r0, r0
1000266a:	db000000 	blle	10002672 <alloc_minmax+0x7a>
1000266e:	dc000000 	stcle	0, cr0, [r0], {0}
10002672:	d8000000 	stmdale	r0, {}	; <UNPREDICTABLE>
10002676:	d3000000 	movwle	r0, #0
1000267a:	46000000 	strmi	r0, [r0], -r0
	...

10002680 <Dictionary_368>:
10002680:	100026c0 	andne	r2, r0, r0, asr #13
10002684:	6d040000 	stcvs	0, cr0, [r4]
10002688:	0065766f 	rsbeq	r7, r5, pc, ror #12

1000268c <Code_368>:
1000268c:	b507      	push	{r0, r1, r2, lr}
1000268e:	0031      	movs	r1, r6
10002690:	cf40      	ldmia	r7!, {r6}
10002692:	0032      	movs	r2, r6
10002694:	cf40      	ldmia	r7!, {r6}
10002696:	2900      	cmp	r1, #0
10002698:	d00f      	beq.n	100026ba <Code_368+0x2e>
1000269a:	42b2      	cmp	r2, r6
1000269c:	d00d      	beq.n	100026ba <Code_368+0x2e>
1000269e:	d306      	bcc.n	100026ae <Code_368+0x22>
100026a0:	3e01      	subs	r6, #1
100026a2:	3a01      	subs	r2, #1
100026a4:	5c70      	ldrb	r0, [r6, r1]
100026a6:	5450      	strb	r0, [r2, r1]
100026a8:	3901      	subs	r1, #1
100026aa:	d1fb      	bne.n	100026a4 <Code_368+0x18>
100026ac:	e005      	b.n	100026ba <Code_368+0x2e>
100026ae:	7830      	ldrb	r0, [r6, #0]
100026b0:	7010      	strb	r0, [r2, #0]
100026b2:	3601      	adds	r6, #1
100026b4:	3201      	adds	r2, #1
100026b6:	3901      	subs	r1, #1
100026b8:	d1f9      	bne.n	100026ae <Code_368+0x22>
100026ba:	cf40      	ldmia	r7!, {r6}
100026bc:	bd07      	pop	{r0, r1, r2, pc}
100026be:	46c0      	nop			; (mov r8, r8)

100026c0 <Dictionary_372>:
100026c0:	100026e4 	andne	r2, r0, r4, ror #13
100026c4:	66040000 	strvs	r0, [r4], -r0
100026c8:	006c6c69 	rsbeq	r6, ip, r9, ror #24

100026cc <Code_372>:
100026cc:	0030      	movs	r0, r6
100026ce:	cf40      	ldmia	r7!, {r6}
100026d0:	0031      	movs	r1, r6
100026d2:	cf40      	ldmia	r7!, {r6}
100026d4:	2900      	cmp	r1, #0
100026d6:	d002      	beq.n	100026de <Code_372+0x12>
100026d8:	3901      	subs	r1, #1
100026da:	5470      	strb	r0, [r6, r1]
100026dc:	d1fc      	bne.n	100026d8 <Code_372+0xc>
100026de:	cf40      	ldmia	r7!, {r6}
100026e0:	4770      	bx	lr
100026e2:	46c0      	nop			; (mov r8, r8)

100026e4 <Dictionary_376>:
100026e4:	10002724 	andne	r2, r0, r4, lsr #14
100026e8:	40010220 	andmi	r0, r1, r0, lsr #4

100026ec <Code_376>:
100026ec:	6836      	ldr	r6, [r6, #0]
100026ee:	4770      	bx	lr

100026f0 <allocator_4fetch>:
100026f0:	3f04      	subs	r7, #4
100026f2:	603e      	str	r6, [r7, #0]
100026f4:	4e99      	ldr	r6, [pc, #612]	; (1000295c <Code_396+0x2e>)

100026f6 <allocator_4fetch_anderer_opcode>:
100026f6:	b500      	push	{lr}
100026f8:	f7fe fe0f 	bl	1000131a <expect_one_element>
100026fc:	6803      	ldr	r3, [r0, #0]
100026fe:	2b28      	cmp	r3, #40	; 0x28
10002700:	d108      	bne.n	10002714 <allocator_4fetch_anderer_opcode+0x1e>
10002702:	6843      	ldr	r3, [r0, #4]
10002704:	217c      	movs	r1, #124	; 0x7c
10002706:	4019      	ands	r1, r3
10002708:	0109      	lsls	r1, r1, #4
1000270a:	430e      	orrs	r6, r1
1000270c:	217c      	movs	r1, #124	; 0x7c
1000270e:	438b      	bics	r3, r1
10002710:	f7fe fd87 	bl	10001222 <generiere_adresskonstante>
10002714:	00db      	lsls	r3, r3, #3
10002716:	431e      	orrs	r6, r3
10002718:	f7fe fe8c 	bl	10001434 <tos_registerwechsel>
1000271c:	431e      	orrs	r6, r3
1000271e:	f001 fd94 	bl	1000424a <Code_836>
10002722:	bd00      	pop	{pc}

10002724 <Dictionary_379>:
10002724:	1000277c 	andne	r2, r0, ip, ror r7
10002728:	21010220 	tstcs	r1, r0, lsr #4

1000272c <Code_379>:
1000272c:	cf03      	ldmia	r7!, {r0, r1}
1000272e:	6030      	str	r0, [r6, #0]
10002730:	000e      	movs	r6, r1
10002732:	4770      	bx	lr

10002734 <allocator_4store>:
10002734:	3f04      	subs	r7, #4
10002736:	603e      	str	r6, [r7, #0]
10002738:	4e89      	ldr	r6, [pc, #548]	; (10002960 <Code_396+0x32>)

1000273a <allocator_4store_anderer_opcode>:
1000273a:	b500      	push	{lr}
1000273c:	f7fe fdf7 	bl	1000132e <expect_two_elements>
10002740:	6803      	ldr	r3, [r0, #0]
10002742:	2b28      	cmp	r3, #40	; 0x28
10002744:	d109      	bne.n	1000275a <allocator_4store_anderer_opcode+0x20>
10002746:	6843      	ldr	r3, [r0, #4]
10002748:	217c      	movs	r1, #124	; 0x7c
1000274a:	4019      	ands	r1, r3
1000274c:	0109      	lsls	r1, r1, #4
1000274e:	430e      	orrs	r6, r1
10002750:	217c      	movs	r1, #124	; 0x7c
10002752:	438b      	bics	r3, r1
10002754:	f7fe fd65 	bl	10001222 <generiere_adresskonstante>
10002758:	6003      	str	r3, [r0, #0]
1000275a:	00db      	lsls	r3, r3, #3
1000275c:	431e      	orrs	r6, r3
1000275e:	6883      	ldr	r3, [r0, #8]
10002760:	2b28      	cmp	r3, #40	; 0x28
10002762:	d102      	bne.n	1000276a <allocator_4store_anderer_opcode+0x30>
10002764:	68c3      	ldr	r3, [r0, #12]
10002766:	f7fe fd50 	bl	1000120a <generiere_konstante>
1000276a:	431e      	orrs	r6, r3
1000276c:	f001 fd6d 	bl	1000424a <Code_836>
10002770:	f7fe fccb 	bl	1000110a <eliminiere_tos>
10002774:	f7fe fcc9 	bl	1000110a <eliminiere_tos>
10002778:	bd00      	pop	{pc}
1000277a:	46c0      	nop			; (mov r8, r8)

1000277c <Dictionary_382>:
1000277c:	100027b4 			; <UNDEFINED> instruction: 0x100027b4
10002780:	2b020220 	blcs	10083008 <FlashDictionaryEnde+0x72008>
10002784:	cf030021 	svcgt	0x00030021

10002786 <Code_382>:
10002786:	cf03      	ldmia	r7!, {r0, r1}
10002788:	6832      	ldr	r2, [r6, #0]
1000278a:	1812      	adds	r2, r2, r0
1000278c:	6032      	str	r2, [r6, #0]
1000278e:	000e      	movs	r6, r1
10002790:	4770      	bx	lr
10002792:	b500      	push	{lr}
10002794:	f7fe fdcb 	bl	1000132e <expect_two_elements>
10002798:	f7ff faf8 	bl	10001d8c <dup_allocator>
1000279c:	f7ff ffa8 	bl	100026f0 <allocator_4fetch>
100027a0:	f7ff fb7f 	bl	10001ea2 <rot_allocator>
100027a4:	f000 fbdf 	bl	10002f66 <plus_allocator>
100027a8:	f7ff fb26 	bl	10001df8 <swap_allocator>
100027ac:	f7ff ffc2 	bl	10002734 <allocator_4store>
100027b0:	bd00      	pop	{pc}
100027b2:	46c0      	nop			; (mov r8, r8)

100027b4 <Dictionary_383>:
100027b4:	100027f8 	strdne	r2, [r0], -r8
100027b8:	68020220 	stmdavs	r2, {r5, r9}
100027bc:	88360040 	ldmdahi	r6!, {r6}

100027be <Code_383>:
100027be:	8836      	ldrh	r6, [r6, #0]
100027c0:	4770      	bx	lr

100027c2 <allocator_2fetch>:
100027c2:	b500      	push	{lr}
100027c4:	f7fe fda9 	bl	1000131a <expect_one_element>
100027c8:	3f04      	subs	r7, #4
100027ca:	603e      	str	r6, [r7, #0]
100027cc:	4e65      	ldr	r6, [pc, #404]	; (10002964 <Code_396+0x36>)
100027ce:	6803      	ldr	r3, [r0, #0]
100027d0:	2b28      	cmp	r3, #40	; 0x28
100027d2:	d108      	bne.n	100027e6 <allocator_2fetch+0x24>
100027d4:	6843      	ldr	r3, [r0, #4]
100027d6:	213e      	movs	r1, #62	; 0x3e
100027d8:	4019      	ands	r1, r3
100027da:	0149      	lsls	r1, r1, #5
100027dc:	430e      	orrs	r6, r1
100027de:	213e      	movs	r1, #62	; 0x3e
100027e0:	438b      	bics	r3, r1
100027e2:	f7fe fd1e 	bl	10001222 <generiere_adresskonstante>
100027e6:	00db      	lsls	r3, r3, #3
100027e8:	431e      	orrs	r6, r3
100027ea:	f7fe fe23 	bl	10001434 <tos_registerwechsel>
100027ee:	431e      	orrs	r6, r3
100027f0:	f001 fd2b 	bl	1000424a <Code_836>
100027f4:	bd00      	pop	{pc}
100027f6:	46c0      	nop			; (mov r8, r8)

100027f8 <Dictionary_386>:
100027f8:	10002850 	andne	r2, r0, r0, asr r8
100027fc:	68020220 	stmdavs	r2, {r5, r9}
10002800:	cf030021 	svcgt	0x00030021

10002802 <Code_386>:
10002802:	cf03      	ldmia	r7!, {r0, r1}
10002804:	8030      	strh	r0, [r6, #0]
10002806:	000e      	movs	r6, r1
10002808:	4770      	bx	lr

1000280a <allocator_2store>:
1000280a:	b500      	push	{lr}
1000280c:	f7fe fd8f 	bl	1000132e <expect_two_elements>
10002810:	3f04      	subs	r7, #4
10002812:	603e      	str	r6, [r7, #0]
10002814:	4e54      	ldr	r6, [pc, #336]	; (10002968 <Code_396+0x3a>)
10002816:	6803      	ldr	r3, [r0, #0]
10002818:	2b28      	cmp	r3, #40	; 0x28
1000281a:	d109      	bne.n	10002830 <allocator_2store+0x26>
1000281c:	6843      	ldr	r3, [r0, #4]
1000281e:	213e      	movs	r1, #62	; 0x3e
10002820:	4019      	ands	r1, r3
10002822:	0149      	lsls	r1, r1, #5
10002824:	430e      	orrs	r6, r1
10002826:	213e      	movs	r1, #62	; 0x3e
10002828:	438b      	bics	r3, r1
1000282a:	f7fe fcfa 	bl	10001222 <generiere_adresskonstante>
1000282e:	6003      	str	r3, [r0, #0]
10002830:	00db      	lsls	r3, r3, #3
10002832:	431e      	orrs	r6, r3
10002834:	6883      	ldr	r3, [r0, #8]
10002836:	2b28      	cmp	r3, #40	; 0x28
10002838:	d102      	bne.n	10002840 <allocator_2store+0x36>
1000283a:	68c3      	ldr	r3, [r0, #12]
1000283c:	f7fe fce5 	bl	1000120a <generiere_konstante>
10002840:	431e      	orrs	r6, r3
10002842:	f001 fd02 	bl	1000424a <Code_836>
10002846:	f7fe fc60 	bl	1000110a <eliminiere_tos>
1000284a:	f7fe fc5e 	bl	1000110a <eliminiere_tos>
1000284e:	bd00      	pop	{pc}

10002850 <Dictionary_389>:
10002850:	10002888 	andne	r2, r0, r8, lsl #17
10002854:	68030220 	stmdavs	r3, {r5, r9}
10002858:	cf03212b 	svcgt	0x0003212b

1000285a <Code_389>:
1000285a:	cf03      	ldmia	r7!, {r0, r1}
1000285c:	8832      	ldrh	r2, [r6, #0]
1000285e:	1812      	adds	r2, r2, r0
10002860:	8032      	strh	r2, [r6, #0]
10002862:	000e      	movs	r6, r1
10002864:	4770      	bx	lr
10002866:	b500      	push	{lr}
10002868:	f7fe fd61 	bl	1000132e <expect_two_elements>
1000286c:	f7ff fa8e 	bl	10001d8c <dup_allocator>
10002870:	f7ff ffa7 	bl	100027c2 <allocator_2fetch>
10002874:	f7ff fb15 	bl	10001ea2 <rot_allocator>
10002878:	f000 fb75 	bl	10002f66 <plus_allocator>
1000287c:	f7ff fabc 	bl	10001df8 <swap_allocator>
10002880:	f7ff ffc3 	bl	1000280a <allocator_2store>
10002884:	bd00      	pop	{pc}
10002886:	46c0      	nop			; (mov r8, r8)

10002888 <Dictionary_390>:
10002888:	100028cc 	andne	r2, r0, ip, asr #17
1000288c:	63020220 	movwvs	r0, #8736	; 0x2220
10002890:	78360040 	ldmdavc	r6!, {r6}

10002892 <Code_390>:
10002892:	7836      	ldrb	r6, [r6, #0]
10002894:	4770      	bx	lr

10002896 <allocator_1fetch>:
10002896:	b500      	push	{lr}
10002898:	f7fe fd3f 	bl	1000131a <expect_one_element>
1000289c:	3f04      	subs	r7, #4
1000289e:	603e      	str	r6, [r7, #0]
100028a0:	4e32      	ldr	r6, [pc, #200]	; (1000296c <Code_396+0x3e>)
100028a2:	6803      	ldr	r3, [r0, #0]
100028a4:	2b28      	cmp	r3, #40	; 0x28
100028a6:	d108      	bne.n	100028ba <allocator_1fetch+0x24>
100028a8:	6843      	ldr	r3, [r0, #4]
100028aa:	211f      	movs	r1, #31
100028ac:	4019      	ands	r1, r3
100028ae:	0189      	lsls	r1, r1, #6
100028b0:	430e      	orrs	r6, r1
100028b2:	211f      	movs	r1, #31
100028b4:	438b      	bics	r3, r1
100028b6:	f7fe fcb4 	bl	10001222 <generiere_adresskonstante>
100028ba:	00db      	lsls	r3, r3, #3
100028bc:	431e      	orrs	r6, r3
100028be:	f7fe fdb9 	bl	10001434 <tos_registerwechsel>
100028c2:	431e      	orrs	r6, r3
100028c4:	f001 fcc1 	bl	1000424a <Code_836>
100028c8:	bd00      	pop	{pc}
100028ca:	46c0      	nop			; (mov r8, r8)

100028cc <Dictionary_393>:
100028cc:	10002924 	andne	r2, r0, r4, lsr #18
100028d0:	63020220 	movwvs	r0, #8736	; 0x2220
100028d4:	cf030021 	svcgt	0x00030021

100028d6 <Code_393>:
100028d6:	cf03      	ldmia	r7!, {r0, r1}
100028d8:	7030      	strb	r0, [r6, #0]
100028da:	000e      	movs	r6, r1
100028dc:	4770      	bx	lr

100028de <allocator_1store>:
100028de:	b500      	push	{lr}
100028e0:	f7fe fd25 	bl	1000132e <expect_two_elements>
100028e4:	3f04      	subs	r7, #4
100028e6:	603e      	str	r6, [r7, #0]
100028e8:	4e21      	ldr	r6, [pc, #132]	; (10002970 <Code_396+0x42>)
100028ea:	6803      	ldr	r3, [r0, #0]
100028ec:	2b28      	cmp	r3, #40	; 0x28
100028ee:	d109      	bne.n	10002904 <allocator_1store+0x26>
100028f0:	6843      	ldr	r3, [r0, #4]
100028f2:	211f      	movs	r1, #31
100028f4:	4019      	ands	r1, r3
100028f6:	0189      	lsls	r1, r1, #6
100028f8:	430e      	orrs	r6, r1
100028fa:	211f      	movs	r1, #31
100028fc:	438b      	bics	r3, r1
100028fe:	f7fe fc90 	bl	10001222 <generiere_adresskonstante>
10002902:	6003      	str	r3, [r0, #0]
10002904:	00db      	lsls	r3, r3, #3
10002906:	431e      	orrs	r6, r3
10002908:	6883      	ldr	r3, [r0, #8]
1000290a:	2b28      	cmp	r3, #40	; 0x28
1000290c:	d102      	bne.n	10002914 <allocator_1store+0x36>
1000290e:	68c3      	ldr	r3, [r0, #12]
10002910:	f7fe fc7b 	bl	1000120a <generiere_konstante>
10002914:	431e      	orrs	r6, r3
10002916:	f001 fc98 	bl	1000424a <Code_836>
1000291a:	f7fe fbf6 	bl	1000110a <eliminiere_tos>
1000291e:	f7fe fbf4 	bl	1000110a <eliminiere_tos>
10002922:	bd00      	pop	{pc}

10002924 <Dictionary_396>:
10002924:	10002974 	andne	r2, r0, r4, ror r9
10002928:	63030220 	movwvs	r0, #12832	; 0x3220
1000292c:	cf03212b 	svcgt	0x0003212b

1000292e <Code_396>:
1000292e:	cf03      	ldmia	r7!, {r0, r1}
10002930:	7832      	ldrb	r2, [r6, #0]
10002932:	1812      	adds	r2, r2, r0
10002934:	7032      	strb	r2, [r6, #0]
10002936:	000e      	movs	r6, r1
10002938:	4770      	bx	lr
1000293a:	b500      	push	{lr}
1000293c:	f7fe fcf7 	bl	1000132e <expect_two_elements>
10002940:	f7ff fa24 	bl	10001d8c <dup_allocator>
10002944:	f7ff ffa7 	bl	10002896 <allocator_1fetch>
10002948:	f7ff faab 	bl	10001ea2 <rot_allocator>
1000294c:	f000 fb0b 	bl	10002f66 <plus_allocator>
10002950:	f7ff fa52 	bl	10001df8 <swap_allocator>
10002954:	f7ff ffc3 	bl	100028de <allocator_1store>
10002958:	bd00      	pop	{pc}
1000295a:	68000000 	stmdavs	r0, {}	; <UNPREDICTABLE>
1000295e:	60000000 	andvs	r0, r0, r0
10002962:	88000000 	stmdahi	r0, {}	; <UNPREDICTABLE>
10002966:	80000000 	andhi	r0, r0, r0
1000296a:	78000000 	stmdavc	r0, {}	; <UNPREDICTABLE>
1000296e:	70000000 	andvc	r0, r0, r0
	...

10002974 <Dictionary_397>:
10002974:	100029b4 			; <UNDEFINED> instruction: 0x100029b4
10002978:	62040220 	andvs	r0, r4, #2
1000297c:	00217369 	eoreq	r7, r1, r9, ror #6

10002980 <Code_397>:
10002980:	cf03      	ldmia	r7!, {r0, r1}
10002982:	6832      	ldr	r2, [r6, #0]
10002984:	4302      	orrs	r2, r0
10002986:	6032      	str	r2, [r6, #0]
10002988:	000e      	movs	r6, r1
1000298a:	4770      	bx	lr
1000298c:	b500      	push	{lr}
1000298e:	f7fe fcce 	bl	1000132e <expect_two_elements>
10002992:	f7ff f9fb 	bl	10001d8c <dup_allocator>
10002996:	f7ff feab 	bl	100026f0 <allocator_4fetch>
1000299a:	f7ff fa82 	bl	10001ea2 <rot_allocator>
1000299e:	3f04      	subs	r7, #4
100029a0:	603e      	str	r6, [r7, #0]
100029a2:	4eab      	ldr	r6, [pc, #684]	; (10002c50 <Code_430+0x28>)
100029a4:	f7ff fc27 	bl	100021f6 <alloc_kommutativ>
100029a8:	f7ff fa26 	bl	10001df8 <swap_allocator>
100029ac:	f7ff fec2 	bl	10002734 <allocator_4store>
100029b0:	bd00      	pop	{pc}
100029b2:	46c0      	nop			; (mov r8, r8)

100029b4 <Dictionary_400>:
100029b4:	100029f4 	strdne	r2, [r0], -r4
100029b8:	62040220 	andvs	r0, r4, #2
100029bc:	00216369 	eoreq	r6, r1, r9, ror #6

100029c0 <Code_400>:
100029c0:	cf03      	ldmia	r7!, {r0, r1}
100029c2:	6832      	ldr	r2, [r6, #0]
100029c4:	4382      	bics	r2, r0
100029c6:	6032      	str	r2, [r6, #0]
100029c8:	000e      	movs	r6, r1
100029ca:	4770      	bx	lr
100029cc:	b500      	push	{lr}
100029ce:	f7fe fcae 	bl	1000132e <expect_two_elements>
100029d2:	f7ff f9db 	bl	10001d8c <dup_allocator>
100029d6:	f7ff fe8b 	bl	100026f0 <allocator_4fetch>
100029da:	f7ff fa62 	bl	10001ea2 <rot_allocator>
100029de:	3f04      	subs	r7, #4
100029e0:	603e      	str	r6, [r7, #0]
100029e2:	4e9c      	ldr	r6, [pc, #624]	; (10002c54 <Code_430+0x2c>)
100029e4:	f7ff fc03 	bl	100021ee <alloc_unkommutativ>
100029e8:	f7ff fa06 	bl	10001df8 <swap_allocator>
100029ec:	f7ff fea2 	bl	10002734 <allocator_4store>
100029f0:	bd00      	pop	{pc}
100029f2:	46c0      	nop			; (mov r8, r8)

100029f4 <Dictionary_403>:
100029f4:	10002a34 	andne	r2, r0, r4, lsr sl
100029f8:	78040220 	stmdavc	r4, {r5, r9}
100029fc:	0021726f 	eoreq	r7, r1, pc, ror #4

10002a00 <Code_403>:
10002a00:	cf03      	ldmia	r7!, {r0, r1}
10002a02:	6832      	ldr	r2, [r6, #0]
10002a04:	4042      	eors	r2, r0
10002a06:	6032      	str	r2, [r6, #0]
10002a08:	000e      	movs	r6, r1
10002a0a:	4770      	bx	lr
10002a0c:	b500      	push	{lr}
10002a0e:	f7fe fc8e 	bl	1000132e <expect_two_elements>
10002a12:	f7ff f9bb 	bl	10001d8c <dup_allocator>
10002a16:	f7ff fe6b 	bl	100026f0 <allocator_4fetch>
10002a1a:	f7ff fa42 	bl	10001ea2 <rot_allocator>
10002a1e:	3f04      	subs	r7, #4
10002a20:	603e      	str	r6, [r7, #0]
10002a22:	4e8d      	ldr	r6, [pc, #564]	; (10002c58 <Code_430+0x30>)
10002a24:	f7ff fbe7 	bl	100021f6 <alloc_kommutativ>
10002a28:	f7ff f9e6 	bl	10001df8 <swap_allocator>
10002a2c:	f7ff fe82 	bl	10002734 <allocator_4store>
10002a30:	bd00      	pop	{pc}
10002a32:	46c0      	nop			; (mov r8, r8)

10002a34 <Dictionary_406>:
10002a34:	10002a68 	andne	r2, r0, r8, ror #20
10002a38:	62040220 	andvs	r0, r4, #2
10002a3c:	00407469 	subeq	r7, r0, r9, ror #8

10002a40 <Code_406>:
10002a40:	cf01      	ldmia	r7!, {r0}
10002a42:	6836      	ldr	r6, [r6, #0]
10002a44:	4006      	ands	r6, r0
10002a46:	3e01      	subs	r6, #1
10002a48:	41b6      	sbcs	r6, r6
10002a4a:	43f6      	mvns	r6, r6
10002a4c:	4770      	bx	lr
10002a4e:	b500      	push	{lr}
10002a50:	f7fe fc6d 	bl	1000132e <expect_two_elements>
10002a54:	f7ff fe4c 	bl	100026f0 <allocator_4fetch>
10002a58:	3f04      	subs	r7, #4
10002a5a:	603e      	str	r6, [r7, #0]
10002a5c:	4e7f      	ldr	r6, [pc, #508]	; (10002c5c <Code_430+0x34>)
10002a5e:	f7ff fbca 	bl	100021f6 <alloc_kommutativ>
10002a62:	f7ff fc16 	bl	10002292 <allocator_unequal_zero>
10002a66:	bd00      	pop	{pc}

10002a68 <Dictionary_409>:
10002a68:	10002aa8 	andne	r2, r0, r8, lsr #21
10002a6c:	68050220 	stmdavs	r5, {r5, r9}
10002a70:	21736962 	cmncs	r3, r2, ror #18

10002a74 <Code_409>:
10002a74:	cf03      	ldmia	r7!, {r0, r1}
10002a76:	8832      	ldrh	r2, [r6, #0]
10002a78:	4302      	orrs	r2, r0
10002a7a:	8032      	strh	r2, [r6, #0]
10002a7c:	000e      	movs	r6, r1
10002a7e:	4770      	bx	lr
10002a80:	b500      	push	{lr}
10002a82:	f7fe fc54 	bl	1000132e <expect_two_elements>
10002a86:	f7ff f981 	bl	10001d8c <dup_allocator>
10002a8a:	f7ff fe9a 	bl	100027c2 <allocator_2fetch>
10002a8e:	f7ff fa08 	bl	10001ea2 <rot_allocator>
10002a92:	3f04      	subs	r7, #4
10002a94:	603e      	str	r6, [r7, #0]
10002a96:	4e6e      	ldr	r6, [pc, #440]	; (10002c50 <Code_430+0x28>)
10002a98:	f7ff fbad 	bl	100021f6 <alloc_kommutativ>
10002a9c:	f7ff f9ac 	bl	10001df8 <swap_allocator>
10002aa0:	f7ff feb3 	bl	1000280a <allocator_2store>
10002aa4:	bd00      	pop	{pc}
10002aa6:	46c0      	nop			; (mov r8, r8)

10002aa8 <Dictionary_412>:
10002aa8:	10002ae8 	andne	r2, r0, r8, ror #21
10002aac:	68050220 	stmdavs	r5, {r5, r9}
10002ab0:	21636962 	cmncs	r3, r2, ror #18

10002ab4 <Code_412>:
10002ab4:	cf03      	ldmia	r7!, {r0, r1}
10002ab6:	8832      	ldrh	r2, [r6, #0]
10002ab8:	4382      	bics	r2, r0
10002aba:	8032      	strh	r2, [r6, #0]
10002abc:	000e      	movs	r6, r1
10002abe:	4770      	bx	lr
10002ac0:	b500      	push	{lr}
10002ac2:	f7fe fc34 	bl	1000132e <expect_two_elements>
10002ac6:	f7ff f961 	bl	10001d8c <dup_allocator>
10002aca:	f7ff fe7a 	bl	100027c2 <allocator_2fetch>
10002ace:	f7ff f9e8 	bl	10001ea2 <rot_allocator>
10002ad2:	3f04      	subs	r7, #4
10002ad4:	603e      	str	r6, [r7, #0]
10002ad6:	4e5f      	ldr	r6, [pc, #380]	; (10002c54 <Code_430+0x2c>)
10002ad8:	f7ff fb89 	bl	100021ee <alloc_unkommutativ>
10002adc:	f7ff f98c 	bl	10001df8 <swap_allocator>
10002ae0:	f7ff fe93 	bl	1000280a <allocator_2store>
10002ae4:	bd00      	pop	{pc}
10002ae6:	46c0      	nop			; (mov r8, r8)

10002ae8 <Dictionary_415>:
10002ae8:	10002b28 	andne	r2, r0, r8, lsr #22
10002aec:	68050220 	stmdavs	r5, {r5, r9}
10002af0:	21726f78 	cmncs	r2, r8, ror pc

10002af4 <Code_415>:
10002af4:	cf03      	ldmia	r7!, {r0, r1}
10002af6:	8832      	ldrh	r2, [r6, #0]
10002af8:	4042      	eors	r2, r0
10002afa:	8032      	strh	r2, [r6, #0]
10002afc:	000e      	movs	r6, r1
10002afe:	4770      	bx	lr
10002b00:	b500      	push	{lr}
10002b02:	f7fe fc14 	bl	1000132e <expect_two_elements>
10002b06:	f7ff f941 	bl	10001d8c <dup_allocator>
10002b0a:	f7ff fe5a 	bl	100027c2 <allocator_2fetch>
10002b0e:	f7ff f9c8 	bl	10001ea2 <rot_allocator>
10002b12:	3f04      	subs	r7, #4
10002b14:	603e      	str	r6, [r7, #0]
10002b16:	4e50      	ldr	r6, [pc, #320]	; (10002c58 <Code_430+0x30>)
10002b18:	f7ff fb6d 	bl	100021f6 <alloc_kommutativ>
10002b1c:	f7ff f96c 	bl	10001df8 <swap_allocator>
10002b20:	f7ff fe73 	bl	1000280a <allocator_2store>
10002b24:	bd00      	pop	{pc}
10002b26:	46c0      	nop			; (mov r8, r8)

10002b28 <Dictionary_418>:
10002b28:	10002b5c 	andne	r2, r0, ip, asr fp
10002b2c:	68050220 	stmdavs	r5, {r5, r9}
10002b30:	40746962 	rsbsmi	r6, r4, r2, ror #18

10002b34 <Code_418>:
10002b34:	cf01      	ldmia	r7!, {r0}
10002b36:	8836      	ldrh	r6, [r6, #0]
10002b38:	4006      	ands	r6, r0
10002b3a:	3e01      	subs	r6, #1
10002b3c:	41b6      	sbcs	r6, r6
10002b3e:	43f6      	mvns	r6, r6
10002b40:	4770      	bx	lr
10002b42:	b500      	push	{lr}
10002b44:	f7fe fbf3 	bl	1000132e <expect_two_elements>
10002b48:	f7ff fe3b 	bl	100027c2 <allocator_2fetch>
10002b4c:	3f04      	subs	r7, #4
10002b4e:	603e      	str	r6, [r7, #0]
10002b50:	4e42      	ldr	r6, [pc, #264]	; (10002c5c <Code_430+0x34>)
10002b52:	f7ff fb50 	bl	100021f6 <alloc_kommutativ>
10002b56:	f7ff fb9c 	bl	10002292 <allocator_unequal_zero>
10002b5a:	bd00      	pop	{pc}

10002b5c <Dictionary_421>:
10002b5c:	10002b9c 	mulne	r0, ip, fp
10002b60:	63050220 	movwvs	r0, #21024	; 0x5220
10002b64:	21736962 	cmncs	r3, r2, ror #18

10002b68 <Code_421>:
10002b68:	cf03      	ldmia	r7!, {r0, r1}
10002b6a:	7832      	ldrb	r2, [r6, #0]
10002b6c:	4302      	orrs	r2, r0
10002b6e:	7032      	strb	r2, [r6, #0]
10002b70:	000e      	movs	r6, r1
10002b72:	4770      	bx	lr
10002b74:	b500      	push	{lr}
10002b76:	f7fe fbda 	bl	1000132e <expect_two_elements>
10002b7a:	f7ff f907 	bl	10001d8c <dup_allocator>
10002b7e:	f7ff fe8a 	bl	10002896 <allocator_1fetch>
10002b82:	f7ff f98e 	bl	10001ea2 <rot_allocator>
10002b86:	3f04      	subs	r7, #4
10002b88:	603e      	str	r6, [r7, #0]
10002b8a:	4e31      	ldr	r6, [pc, #196]	; (10002c50 <Code_430+0x28>)
10002b8c:	f7ff fb33 	bl	100021f6 <alloc_kommutativ>
10002b90:	f7ff f932 	bl	10001df8 <swap_allocator>
10002b94:	f7ff fea3 	bl	100028de <allocator_1store>
10002b98:	bd00      	pop	{pc}
10002b9a:	46c0      	nop			; (mov r8, r8)

10002b9c <Dictionary_424>:
10002b9c:	10002bdc 	ldrdne	r2, [r0], -ip
10002ba0:	63050220 	movwvs	r0, #21024	; 0x5220
10002ba4:	21636962 	cmncs	r3, r2, ror #18

10002ba8 <Code_424>:
10002ba8:	cf03      	ldmia	r7!, {r0, r1}
10002baa:	7832      	ldrb	r2, [r6, #0]
10002bac:	4382      	bics	r2, r0
10002bae:	7032      	strb	r2, [r6, #0]
10002bb0:	000e      	movs	r6, r1
10002bb2:	4770      	bx	lr
10002bb4:	b500      	push	{lr}
10002bb6:	f7fe fbba 	bl	1000132e <expect_two_elements>
10002bba:	f7ff f8e7 	bl	10001d8c <dup_allocator>
10002bbe:	f7ff fe6a 	bl	10002896 <allocator_1fetch>
10002bc2:	f7ff f96e 	bl	10001ea2 <rot_allocator>
10002bc6:	3f04      	subs	r7, #4
10002bc8:	603e      	str	r6, [r7, #0]
10002bca:	4e22      	ldr	r6, [pc, #136]	; (10002c54 <Code_430+0x2c>)
10002bcc:	f7ff fb0f 	bl	100021ee <alloc_unkommutativ>
10002bd0:	f7ff f912 	bl	10001df8 <swap_allocator>
10002bd4:	f7ff fe83 	bl	100028de <allocator_1store>
10002bd8:	bd00      	pop	{pc}
10002bda:	46c0      	nop			; (mov r8, r8)

10002bdc <Dictionary_427>:
10002bdc:	10002c1c 	andne	r2, r0, ip, lsl ip
10002be0:	63050220 	movwvs	r0, #21024	; 0x5220
10002be4:	21726f78 	cmncs	r2, r8, ror pc

10002be8 <Code_427>:
10002be8:	cf03      	ldmia	r7!, {r0, r1}
10002bea:	7832      	ldrb	r2, [r6, #0]
10002bec:	4042      	eors	r2, r0
10002bee:	7032      	strb	r2, [r6, #0]
10002bf0:	000e      	movs	r6, r1
10002bf2:	4770      	bx	lr
10002bf4:	b500      	push	{lr}
10002bf6:	f7fe fb9a 	bl	1000132e <expect_two_elements>
10002bfa:	f7ff f8c7 	bl	10001d8c <dup_allocator>
10002bfe:	f7ff fe4a 	bl	10002896 <allocator_1fetch>
10002c02:	f7ff f94e 	bl	10001ea2 <rot_allocator>
10002c06:	3f04      	subs	r7, #4
10002c08:	603e      	str	r6, [r7, #0]
10002c0a:	4e13      	ldr	r6, [pc, #76]	; (10002c58 <Code_430+0x30>)
10002c0c:	f7ff faf3 	bl	100021f6 <alloc_kommutativ>
10002c10:	f7ff f8f2 	bl	10001df8 <swap_allocator>
10002c14:	f7ff fe63 	bl	100028de <allocator_1store>
10002c18:	bd00      	pop	{pc}
10002c1a:	46c0      	nop			; (mov r8, r8)

10002c1c <Dictionary_430>:
10002c1c:	10002c88 	andne	r2, r0, r8, lsl #25
10002c20:	63050220 	movwvs	r0, #21024	; 0x5220
10002c24:	40746962 	rsbsmi	r6, r4, r2, ror #18

10002c28 <Code_430>:
10002c28:	cf01      	ldmia	r7!, {r0}
10002c2a:	7836      	ldrb	r6, [r6, #0]
10002c2c:	4006      	ands	r6, r0
10002c2e:	3e01      	subs	r6, #1
10002c30:	41b6      	sbcs	r6, r6
10002c32:	43f6      	mvns	r6, r6
10002c34:	4770      	bx	lr
10002c36:	b500      	push	{lr}
10002c38:	f7fe fb79 	bl	1000132e <expect_two_elements>
10002c3c:	f7ff fe2b 	bl	10002896 <allocator_1fetch>
10002c40:	3f04      	subs	r7, #4
10002c42:	603e      	str	r6, [r7, #0]
10002c44:	4e05      	ldr	r6, [pc, #20]	; (10002c5c <Code_430+0x34>)
10002c46:	f7ff fad6 	bl	100021f6 <alloc_kommutativ>
10002c4a:	f7ff fb22 	bl	10002292 <allocator_unequal_zero>
10002c4e:	bd00      	pop	{pc}
10002c50:	00004300 	andeq	r4, r0, r0, lsl #6
10002c54:	00004380 	andeq	r4, r0, r0, lsl #7
10002c58:	00004040 	andeq	r4, r0, r0, asr #32
10002c5c:	00004000 	andeq	r4, r0, r0

10002c60 <hexflashstore_fehler>:
10002c60:	f000 fdc2 	bl	100037e8 <dotgaensefuesschen>
10002c64:	616c461e 	cmnvs	ip, lr, lsl r6
10002c68:	63206873 	teqvs	r0, #7536640	; 0x730000
10002c6c:	6f6e6e61 	svcvs	0x006e6e61
10002c70:	65622074 	strbvs	r2, [r2, #-116]!	; 0x74
10002c74:	69727720 	ldmdbvs	r2!, {r5, r8, r9, sl, ip, sp, lr}^
10002c78:	6e657474 	mcrvs	4, 3, r7, cr5, cr4, {3}
10002c7c:	69777420 	ldmdbvs	r7!, {r5, sl, ip, sp, lr}^
10002c80:	000a6563 	andeq	r6, sl, r3, ror #10
10002c84:	f002 fd66 	bl	10005754 <Code_1247>

10002c88 <Dictionary_434>:
10002c88:	10002d08 	andne	r2, r0, r8, lsl #26
10002c8c:	31080000 	mrscc	r0, (UNDEF: 8)
10002c90:	616c6636 	cmnvs	ip, r6, lsr r6
10002c94:	00216873 	eoreq	r6, r1, r3, ror r8

10002c98 <Code_434>:
10002c98:	b50f      	push	{r0, r1, r2, r3, lr}
10002c9a:	200f      	movs	r0, #15
10002c9c:	4030      	ands	r0, r6
10002c9e:	d015      	beq.n	10002ccc <Code_434+0x34>
10002ca0:	f000 fda2 	bl	100037e8 <dotgaensefuesschen>
10002ca4:	66363122 	ldrtvs	r3, [r6], -r2, lsr #2
10002ca8:	6873616c 	ldmdavs	r3!, {r2, r3, r5, r6, r8, sp, lr}^
10002cac:	656e2021 	strbvs	r2, [lr, #-33]!	; 0x21
10002cb0:	20736465 	rsbscs	r6, r3, r5, ror #8
10002cb4:	612d3631 	teqvs	sp, r1, lsr r6
10002cb8:	6e67696c 	cdpvs	9, 6, cr6, cr7, cr12, {3}
10002cbc:	61206465 	teqvs	r0, r5, ror #8
10002cc0:	65726464 	ldrbvs	r6, [r2, #-1124]!	; 0x464
10002cc4:	000a7373 	andeq	r7, sl, r3, ror r3
10002cc8:	f002 fd44 	bl	10005754 <Code_1247>
10002ccc:	6830      	ldr	r0, [r6, #0]
10002cce:	3001      	adds	r0, #1
10002cd0:	d1c6      	bne.n	10002c60 <hexflashstore_fehler>
10002cd2:	6870      	ldr	r0, [r6, #4]
10002cd4:	3001      	adds	r0, #1
10002cd6:	d1c3      	bne.n	10002c60 <hexflashstore_fehler>
10002cd8:	68b0      	ldr	r0, [r6, #8]
10002cda:	3001      	adds	r0, #1
10002cdc:	d1c0      	bne.n	10002c60 <hexflashstore_fehler>
10002cde:	68f0      	ldr	r0, [r6, #12]
10002ce0:	3001      	adds	r0, #1
10002ce2:	d1bd      	bne.n	10002c60 <hexflashstore_fehler>
10002ce4:	483c      	ldr	r0, [pc, #240]	; (10002dd8 <Code_447+0x6>)
10002ce6:	2191      	movs	r1, #145	; 0x91
10002ce8:	6001      	str	r1, [r0, #0]
10002cea:	cf08      	ldmia	r7!, {r3}
10002cec:	cf04      	ldmia	r7!, {r2}
10002cee:	cf02      	ldmia	r7!, {r1}
10002cf0:	cf01      	ldmia	r7!, {r0}
10002cf2:	6030      	str	r0, [r6, #0]
10002cf4:	6071      	str	r1, [r6, #4]
10002cf6:	60b2      	str	r2, [r6, #8]
10002cf8:	60f3      	str	r3, [r6, #12]
10002cfa:	4a38      	ldr	r2, [pc, #224]	; (10002ddc <Code_447+0xa>)
10002cfc:	6813      	ldr	r3, [r2, #0]
10002cfe:	2001      	movs	r0, #1
10002d00:	4018      	ands	r0, r3
10002d02:	d1fb      	bne.n	10002cfc <Code_434+0x64>
10002d04:	cf40      	ldmia	r7!, {r6}
10002d06:	bd0f      	pop	{r0, r1, r2, r3, pc}

10002d08 <Dictionary_437>:
10002d08:	10002d40 	andne	r2, r0, r0, asr #26
10002d0c:	660e0000 	strvs	r0, [lr], -r0
10002d10:	6873616c 	ldmdavs	r3!, {r2, r3, r5, r6, r8, sp, lr}^
10002d14:	65676170 	strbvs	r6, [r7, #-368]!	; 0x170
10002d18:	73617265 	cmnvc	r1, #1342177286	; 0x50000006
10002d1c:	b50f0065 	strlt	r0, [pc, #-101]	; 10002cbf <Code_434+0x27>

10002d1e <Code_437>:
10002d1e:	b50f      	push	{r0, r1, r2, r3, lr}
10002d20:	0030      	movs	r0, r6
10002d22:	cf40      	ldmia	r7!, {r6}
10002d24:	4b2e      	ldr	r3, [pc, #184]	; (10002de0 <Code_447+0xe>)
10002d26:	4298      	cmp	r0, r3
10002d28:	d308      	bcc.n	10002d3c <Code_437+0x1e>
10002d2a:	4b2b      	ldr	r3, [pc, #172]	; (10002dd8 <Code_447+0x6>)
10002d2c:	2192      	movs	r1, #146	; 0x92
10002d2e:	6019      	str	r1, [r3, #0]
10002d30:	6000      	str	r0, [r0, #0]
10002d32:	4a2a      	ldr	r2, [pc, #168]	; (10002ddc <Code_447+0xa>)
10002d34:	6813      	ldr	r3, [r2, #0]
10002d36:	2001      	movs	r0, #1
10002d38:	4018      	ands	r0, r3
10002d3a:	d1fb      	bne.n	10002d34 <Code_437+0x16>
10002d3c:	bd0f      	pop	{r0, r1, r2, r3, pc}
10002d3e:	46c0      	nop			; (mov r8, r8)

10002d40 <Dictionary_439>:
10002d40:	10002dbc 			; <UNDEFINED> instruction: 0x10002dbc
10002d44:	650a0000 	strvs	r0, [sl]
10002d48:	65736172 	ldrbvs	r6, [r3, #-370]!	; 0x172
10002d4c:	73616c66 	cmnvc	r1, #26112	; 0x6600
10002d50:	48230068 	stmdami	r3!, {r3, r5, r6}

10002d52 <Code_439>:
10002d52:	4823      	ldr	r0, [pc, #140]	; (10002de0 <Code_447+0xe>)

10002d54 <eraseflash_intern>:
10002d54:	b672      	cpsid	i
10002d56:	4923      	ldr	r1, [pc, #140]	; (10002de4 <Code_447+0x12>)
10002d58:	4a23      	ldr	r2, [pc, #140]	; (10002de8 <Code_447+0x16>)
10002d5a:	8803      	ldrh	r3, [r0, #0]
10002d5c:	4293      	cmp	r3, r2
10002d5e:	d01c      	beq.n	10002d9a <eraseflash_intern+0x46>
10002d60:	3f04      	subs	r7, #4
10002d62:	603e      	str	r6, [r7, #0]
10002d64:	0006      	movs	r6, r0
10002d66:	3f04      	subs	r7, #4
10002d68:	603e      	str	r6, [r7, #0]
10002d6a:	f000 fd3d 	bl	100037e8 <dotgaensefuesschen>
10002d6e:	61724510 	cmnvs	r2, r0, lsl r5
10002d72:	62206573 	eorvs	r6, r0, #482344960	; 0x1cc00000
10002d76:	6b636f6c 	blvs	118deb2e <FlashDictionaryEnde+0x18cdb2e>
10002d7a:	20746120 	rsbscs	r6, r4, r0, lsr #2
10002d7e:	f0000020 			; <UNDEFINED> instruction: 0xf0000020
10002d82:	fdaa f000 	stc2	0, cr15, [sl]
10002d86:	fd30 200c 	ldc2	0, cr2, [r0, #-48]!	; 0xffffffd0
10002d8a:	6d6f7266 	sfmvs	f7, 2, [pc, #-408]!	; 10002bf8 <Code_427+0x10>
10002d8e:	616c4620 	cmnvs	ip, r0, lsr #12
10002d92:	000a6873 	andeq	r6, sl, r3, ror r8
10002d96:	f7ff ffc2 	bl	10002d1e <Code_437>
10002d9a:	3002      	adds	r0, #2
10002d9c:	4288      	cmp	r0, r1
10002d9e:	d1dc      	bne.n	10002d5a <eraseflash_intern+0x6>
10002da0:	f000 fd22 	bl	100037e8 <dotgaensefuesschen>
10002da4:	6e694612 	mcrvs	6, 3, r4, cr9, cr2, {0}
10002da8:	65687369 	strbvs	r7, [r8, #-873]!	; 0x369
10002dac:	52202e64 	eorpl	r2, r0, #1600	; 0x640
10002db0:	74657365 	strbtvc	r7, [r5], #-869	; 0x365
10002db4:	000a2120 	andeq	r2, sl, r0, lsr #2
10002db8:	f002 fd6a 	bl	10005890 <Code_1260>

10002dbc <Dictionary_447>:
10002dbc:	10002dec 	andne	r2, r0, ip, ror #27
10002dc0:	650e0000 	strvs	r0, [lr]
10002dc4:	65736172 	ldrbvs	r6, [r3, #-370]!	; 0x172
10002dc8:	73616c66 	cmnvc	r1, #26112	; 0x6600
10002dcc:	6f726668 	svcvs	0x00726668
10002dd0:	0030006d 	eorseq	r0, r0, sp, rrx

10002dd2 <Code_447>:
10002dd2:	0030      	movs	r0, r6
10002dd4:	cf40      	ldmia	r7!, {r6}
10002dd6:	e7bd      	b.n	10002d54 <eraseflash_intern>
10002dd8:	40050004 	andmi	r0, r5, r4
10002ddc:	40050000 	andmi	r0, r5, r0
10002de0:	10006000 	andne	r6, r0, r0
10002de4:	10011000 	andne	r1, r1, r0
10002de8:	0000ffff 	strdeq	pc, [r0], -pc	; <UNPREDICTABLE>

10002dec <Dictionary_449>:
10002dec:	10002e0c 	andne	r2, r0, ip, lsl #28
10002df0:	69090000 	stmdbvs	r9, {}	; <UNPREDICTABLE>
10002df4:	6674696e 	ldrbtvs	r6, [r4], -lr, ror #18
10002df8:	6873616c 	ldmdavs	r3!, {r2, r3, r5, r6, r8, sp, lr}^

10002dfc <Code_449>:
10002dfc:	4853      	ldr	r0, [pc, #332]	; (10002f4c <flushblock+0x2a>)
10002dfe:	4954      	ldr	r1, [pc, #336]	; (10002f50 <flushblock+0x2e>)
10002e00:	2200      	movs	r2, #0
10002e02:	7002      	strb	r2, [r0, #0]
10002e04:	3001      	adds	r0, #1
10002e06:	3901      	subs	r1, #1
10002e08:	d1fb      	bne.n	10002e02 <Code_449+0x6>
10002e0a:	4770      	bx	lr

10002e0c <Dictionary_450>:
10002e0c:	10002ef4 	strdne	r2, [r0], -r4
10002e10:	68070000 	stmdavs	r7, {}	; <UNPREDICTABLE>
10002e14:	73616c66 	cmnvc	r1, #26112	; 0x6600
10002e18:	b5302168 	ldrlt	r2, [r0, #-360]!	; 0x168

10002e1a <Code_450>:
10002e1a:	b530      	push	{r4, r5, lr}
10002e1c:	0032      	movs	r2, r6
10002e1e:	cf40      	ldmia	r7!, {r6}
10002e20:	0850      	lsrs	r0, r2, #1
10002e22:	d313      	bcc.n	10002e4c <Code_450+0x32>
10002e24:	f000 fce0 	bl	100037e8 <dotgaensefuesschen>
10002e28:	6c66681e 	stclvs	8, cr6, [r6], #-120	; 0xffffff88
10002e2c:	21687361 	cmncs	r8, r1, ror #6
10002e30:	65656e20 	strbvs	r6, [r5, #-3616]!	; 0xe20
10002e34:	65207364 	strvs	r7, [r0, #-868]!	; 0x364
10002e38:	206e6576 	rsbcs	r6, lr, r6, ror r5
10002e3c:	72646461 	rsbvc	r6, r4, #1627389952	; 0x61000000
10002e40:	65737365 	ldrbvs	r7, [r3, #-869]!	; 0x365
10002e44:	000a2e73 	andeq	r2, sl, r3, ror lr
10002e48:	f002 fc84 	bl	10005754 <Code_1247>
10002e4c:	4b41      	ldr	r3, [pc, #260]	; (10002f54 <flushblock+0x32>)
10002e4e:	429a      	cmp	r2, r3
10002e50:	d210      	bcs.n	10002e74 <Code_450+0x5a>
10002e52:	f000 fcc9 	bl	100037e8 <dotgaensefuesschen>
10002e56:	6e614319 	mcrvs	3, 3, r4, cr1, cr9, {0}
10002e5a:	20746f6e 	rsbscs	r6, r4, lr, ror #30
10002e5e:	74697277 	strbtvc	r7, [r9], #-631	; 0x277
10002e62:	6e692065 	cdpvs	0, 6, cr2, cr9, cr5, {3}
10002e66:	63206f74 	teqvs	r0, #464	; 0x1d0
10002e6a:	2065726f 	rsbcs	r7, r5, pc, ror #4
10002e6e:	f0020a21 			; <UNDEFINED> instruction: 0xf0020a21
10002e72:	fc70 0913 	ldc2l	9, cr0, [r0], #-76	; 0xffffffb4
10002e76:	4835      	ldr	r0, [pc, #212]	; (10002f4c <flushblock+0x2a>)
10002e78:	2120      	movs	r1, #32
10002e7a:	6804      	ldr	r4, [r0, #0]
10002e7c:	0924      	lsrs	r4, r4, #4
10002e7e:	429c      	cmp	r4, r3
10002e80:	d026      	beq.n	10002ed0 <hflashstoreemulation_gefunden>
10002e82:	3014      	adds	r0, #20
10002e84:	3901      	subs	r1, #1
10002e86:	d1f8      	bne.n	10002e7a <Code_450+0x60>
10002e88:	4830      	ldr	r0, [pc, #192]	; (10002f4c <flushblock+0x2a>)
10002e8a:	2120      	movs	r1, #32
10002e8c:	6804      	ldr	r4, [r0, #0]
10002e8e:	2c00      	cmp	r4, #0
10002e90:	d017      	beq.n	10002ec2 <hflashstoreemulation_leerestelle>
10002e92:	3014      	adds	r0, #20
10002e94:	3901      	subs	r1, #1
10002e96:	d1f9      	bne.n	10002e8c <Code_450+0x72>
10002e98:	f000 fca6 	bl	100037e8 <dotgaensefuesschen>
10002e9c:	6f6f5421 	svcvs	0x006f5421
10002ea0:	6e616d20 	cdpvs	13, 6, cr6, cr1, cr0, {1}
10002ea4:	63732079 	cmnvs	r3, #121	; 0x79
10002ea8:	65747461 	ldrbvs	r7, [r4, #-1121]!	; 0x461
10002eac:	20646572 	rsbcs	r6, r4, r2, ror r5
10002eb0:	73616c46 	cmnvc	r1, #17920	; 0x4600
10002eb4:	72772068 	rsbsvc	r2, r7, #104	; 0x68
10002eb8:	73657469 	cmnvc	r5, #1761607680	; 0x69000000
10002ebc:	f0020a2e 			; <UNDEFINED> instruction: 0xf0020a2e
10002ec0:	fc49 011b 	mcrr2	1, 1, r0, r9, cr11

10002ec2 <hflashstoreemulation_leerestelle>:
10002ec2:	011b      	lsls	r3, r3, #4
10002ec4:	6003      	str	r3, [r0, #0]
10002ec6:	3901      	subs	r1, #1
10002ec8:	6041      	str	r1, [r0, #4]
10002eca:	6081      	str	r1, [r0, #8]
10002ecc:	60c1      	str	r1, [r0, #12]
10002ece:	6101      	str	r1, [r0, #16]

10002ed0 <hflashstoreemulation_gefunden>:
10002ed0:	210f      	movs	r1, #15
10002ed2:	4011      	ands	r1, r2
10002ed4:	3104      	adds	r1, #4
10002ed6:	5246      	strh	r6, [r0, r1]
10002ed8:	cf40      	ldmia	r7!, {r6}
10002eda:	6801      	ldr	r1, [r0, #0]
10002edc:	3101      	adds	r1, #1
10002ede:	6001      	str	r1, [r0, #0]
10002ee0:	220f      	movs	r2, #15
10002ee2:	4011      	ands	r1, r2
10002ee4:	2908      	cmp	r1, #8
10002ee6:	d103      	bne.n	10002ef0 <hflashstoreemulation_fertig>
10002ee8:	f000 f81b 	bl	10002f22 <flushblock>
10002eec:	f7ff fed4 	bl	10002c98 <Code_434>

10002ef0 <hflashstoreemulation_fertig>:
10002ef0:	bd30      	pop	{r4, r5, pc}
10002ef2:	46c0      	nop			; (mov r8, r8)

10002ef4 <Dictionary_456>:
10002ef4:	10002f58 	andne	r2, r0, r8, asr pc
10002ef8:	660a0000 	strvs	r0, [sl], -r0
10002efc:	6873756c 	ldmdavs	r3!, {r2, r3, r5, r6, r8, sl, ip, sp, lr}^
10002f00:	73616c66 	cmnvc	r1, #26112	; 0x6600
10002f04:	b5000068 	strlt	r0, [r0, #-104]	; 0x68

10002f06 <Code_456>:
10002f06:	b500      	push	{lr}
10002f08:	4810      	ldr	r0, [pc, #64]	; (10002f4c <flushblock+0x2a>)
10002f0a:	2120      	movs	r1, #32
10002f0c:	6802      	ldr	r2, [r0, #0]
10002f0e:	2a00      	cmp	r2, #0
10002f10:	d003      	beq.n	10002f1a <Code_456+0x14>
10002f12:	f000 f806 	bl	10002f22 <flushblock>
10002f16:	f7ff febf 	bl	10002c98 <Code_434>
10002f1a:	3014      	adds	r0, #20
10002f1c:	3901      	subs	r1, #1
10002f1e:	d1f5      	bne.n	10002f0c <Code_456+0x6>
10002f20:	bd00      	pop	{pc}

10002f22 <flushblock>:
10002f22:	3f04      	subs	r7, #4
10002f24:	603e      	str	r6, [r7, #0]
10002f26:	6846      	ldr	r6, [r0, #4]
10002f28:	3f04      	subs	r7, #4
10002f2a:	603e      	str	r6, [r7, #0]
10002f2c:	6886      	ldr	r6, [r0, #8]
10002f2e:	3f04      	subs	r7, #4
10002f30:	603e      	str	r6, [r7, #0]
10002f32:	68c6      	ldr	r6, [r0, #12]
10002f34:	3f04      	subs	r7, #4
10002f36:	603e      	str	r6, [r7, #0]
10002f38:	6906      	ldr	r6, [r0, #16]
10002f3a:	3f04      	subs	r7, #4
10002f3c:	603e      	str	r6, [r7, #0]
10002f3e:	260f      	movs	r6, #15
10002f40:	43f6      	mvns	r6, r6
10002f42:	6802      	ldr	r2, [r0, #0]
10002f44:	4016      	ands	r6, r2
10002f46:	2200      	movs	r2, #0
10002f48:	6002      	str	r2, [r0, #0]
10002f4a:	4770      	bx	lr
10002f4c:	20000580 	andcs	r0, r0, r0, lsl #11
10002f50:	00000280 	andeq	r0, r0, r0, lsl #5
10002f54:	10006000 	andne	r6, r0, r0

10002f58 <Dictionary_462>:
10002f58:	10002f84 	andne	r2, r0, r4, lsl #31
10002f5c:	2b010262 	blcs	100438ec <FlashDictionaryEnde+0x328ec>

10002f60 <Code_462>:
10002f60:	cf01      	ldmia	r7!, {r0}
10002f62:	1836      	adds	r6, r6, r0
10002f64:	4770      	bx	lr

10002f66 <plus_allocator>:
10002f66:	b500      	push	{lr}
10002f68:	f7fe f9e1 	bl	1000132e <expect_two_elements>
10002f6c:	3f04      	subs	r7, #4
10002f6e:	603e      	str	r6, [r7, #0]
10002f70:	4ecc      	ldr	r6, [pc, #816]	; (100032a4 <Code_544+0xa>)
10002f72:	3f04      	subs	r7, #4
10002f74:	603e      	str	r6, [r7, #0]
10002f76:	4ecc      	ldr	r6, [pc, #816]	; (100032a8 <Code_544+0xe>)
10002f78:	6881      	ldr	r1, [r0, #8]
10002f7a:	2928      	cmp	r1, #40	; 0x28
10002f7c:	d112      	bne.n	10002fa4 <minus_allocator+0x12>
10002f7e:	f7fe ff3b 	bl	10001df8 <swap_allocator>
10002f82:	e00f      	b.n	10002fa4 <minus_allocator+0x12>

10002f84 <Dictionary_467>:
10002f84:	10002fec 	andne	r2, r0, ip, ror #31
10002f88:	2d010262 	sfmcs	f0, 4, [r1, #-392]	; 0xfffffe78

10002f8c <Code_467>:
10002f8c:	cf01      	ldmia	r7!, {r0}
10002f8e:	1b86      	subs	r6, r0, r6
10002f90:	4770      	bx	lr

10002f92 <minus_allocator>:
10002f92:	b500      	push	{lr}
10002f94:	f7fe f9cb 	bl	1000132e <expect_two_elements>
10002f98:	3f04      	subs	r7, #4
10002f9a:	603e      	str	r6, [r7, #0]
10002f9c:	4ec3      	ldr	r6, [pc, #780]	; (100032ac <Code_544+0x12>)
10002f9e:	3f04      	subs	r7, #4
10002fa0:	603e      	str	r6, [r7, #0]
10002fa2:	4ec3      	ldr	r6, [pc, #780]	; (100032b0 <Code_544+0x16>)
10002fa4:	f7fe fa02 	bl	100013ac <expect_nos_in_register>
10002fa8:	6801      	ldr	r1, [r0, #0]
10002faa:	2928      	cmp	r1, #40	; 0x28
10002fac:	d10e      	bne.n	10002fcc <minus_allocator+0x3a>
10002fae:	6841      	ldr	r1, [r0, #4]
10002fb0:	29ff      	cmp	r1, #255	; 0xff
10002fb2:	d80b      	bhi.n	10002fcc <minus_allocator+0x3a>
10002fb4:	cf40      	ldmia	r7!, {r6}
10002fb6:	f7fe fa0d 	bl	100013d4 <nos_change_tos_away_later>
10002fba:	430e      	orrs	r6, r1
10002fbc:	6881      	ldr	r1, [r0, #8]
10002fbe:	0209      	lsls	r1, r1, #8
10002fc0:	430e      	orrs	r6, r1
10002fc2:	f001 f942 	bl	1000424a <Code_836>
10002fc6:	f7fe f8a0 	bl	1000110a <eliminiere_tos>
10002fca:	bd00      	pop	{pc}
10002fcc:	3704      	adds	r7, #4
10002fce:	f7fe f9e3 	bl	10001398 <expect_tos_in_register>
10002fd2:	0189      	lsls	r1, r1, #6
10002fd4:	6882      	ldr	r2, [r0, #8]
10002fd6:	00d2      	lsls	r2, r2, #3
10002fd8:	430e      	orrs	r6, r1
10002fda:	4316      	orrs	r6, r2
10002fdc:	f7fe f895 	bl	1000110a <eliminiere_tos>
10002fe0:	f7fe fa28 	bl	10001434 <tos_registerwechsel>
10002fe4:	431e      	orrs	r6, r3
10002fe6:	f001 f930 	bl	1000424a <Code_836>
10002fea:	bd00      	pop	{pc}

10002fec <Dictionary_474>:
10002fec:	10003004 	andne	r3, r0, r4
10002ff0:	31020261 	tstcc	r2, r1, ror #4
10002ff4:	3e01002d 	cdpcc	0, 0, cr0, cr1, cr13, {1}

10002ff6 <Code_474>:
10002ff6:	3e01      	subs	r6, #1
10002ff8:	4770      	bx	lr

10002ffa <allocator_one_minus>:
10002ffa:	3f04      	subs	r7, #4
10002ffc:	603e      	str	r6, [r7, #0]
10002ffe:	4ead      	ldr	r6, [pc, #692]	; (100032b4 <Code_544+0x1a>)
10003000:	e03c      	b.n	1000307c <smalltworegisters>
10003002:	46c0      	nop			; (mov r8, r8)

10003004 <Dictionary_477>:
10003004:	1000301c 	andne	r3, r0, ip, lsl r0
10003008:	31020261 	tstcc	r2, r1, ror #4
1000300c:	3601002b 	strcc	r0, [r1], -fp, lsr #32

1000300e <Code_477>:
1000300e:	3601      	adds	r6, #1
10003010:	4770      	bx	lr
10003012:	3f04      	subs	r7, #4
10003014:	603e      	str	r6, [r7, #0]
10003016:	4ea8      	ldr	r6, [pc, #672]	; (100032b8 <Code_544+0x1e>)
10003018:	e030      	b.n	1000307c <smalltworegisters>
1000301a:	46c0      	nop			; (mov r8, r8)

1000301c <Dictionary_480>:
1000301c:	10003034 	andne	r3, r0, r4, lsr r0
10003020:	32020261 	andcc	r0, r2, #268435462	; 0x10000006
10003024:	3e02002d 	cdpcc	0, 0, cr0, cr2, cr13, {1}

10003026 <Code_480>:
10003026:	3e02      	subs	r6, #2
10003028:	4770      	bx	lr
1000302a:	3f04      	subs	r7, #4
1000302c:	603e      	str	r6, [r7, #0]
1000302e:	4ea3      	ldr	r6, [pc, #652]	; (100032bc <Code_544+0x22>)
10003030:	e024      	b.n	1000307c <smalltworegisters>
10003032:	46c0      	nop			; (mov r8, r8)

10003034 <Dictionary_483>:
10003034:	1000304c 	andne	r3, r0, ip, asr #32
10003038:	32020261 	andcc	r0, r2, #268435462	; 0x10000006
1000303c:	3602002b 	strcc	r0, [r2], -fp, lsr #32

1000303e <Code_483>:
1000303e:	3602      	adds	r6, #2
10003040:	4770      	bx	lr
10003042:	3f04      	subs	r7, #4
10003044:	603e      	str	r6, [r7, #0]
10003046:	4e9e      	ldr	r6, [pc, #632]	; (100032c0 <Code_544+0x26>)
10003048:	e018      	b.n	1000307c <smalltworegisters>
1000304a:	46c0      	nop			; (mov r8, r8)

1000304c <Dictionary_486>:
1000304c:	10003064 	andne	r3, r0, r4, rrx
10003050:	63050261 	movwvs	r0, #21089	; 0x5261
10003054:	2b6c6c65 	blcs	11b1e1f0 <FlashDictionaryEnde+0x1b0d1f0>

10003058 <Code_486>:
10003058:	3604      	adds	r6, #4
1000305a:	4770      	bx	lr
1000305c:	3f04      	subs	r7, #4
1000305e:	603e      	str	r6, [r7, #0]
10003060:	4e98      	ldr	r6, [pc, #608]	; (100032c4 <Code_544+0x2a>)
10003062:	e00b      	b.n	1000307c <smalltworegisters>

10003064 <Dictionary_489>:
10003064:	10003094 	mulne	r0, r4, r0
10003068:	6e060261 	cdpvs	2, 0, cr0, cr6, cr1, {3}
1000306c:	74616765 	strbtvc	r6, [r1], #-1893	; 0x765
10003070:	42760065 	rsbsmi	r0, r6, #101	; 0x65

10003072 <Code_489>:
10003072:	4276      	negs	r6, r6
10003074:	4770      	bx	lr

10003076 <allocator_negate>:
10003076:	3f04      	subs	r7, #4
10003078:	603e      	str	r6, [r7, #0]
1000307a:	4e93      	ldr	r6, [pc, #588]	; (100032c8 <Code_544+0x2e>)

1000307c <smalltworegisters>:
1000307c:	b500      	push	{lr}
1000307e:	f7fe f94c 	bl	1000131a <expect_one_element>
10003082:	6801      	ldr	r1, [r0, #0]
10003084:	00c9      	lsls	r1, r1, #3
10003086:	430e      	orrs	r6, r1
10003088:	f7fe f9d4 	bl	10001434 <tos_registerwechsel>
1000308c:	431e      	orrs	r6, r3
1000308e:	f001 f8dc 	bl	1000424a <Code_836>
10003092:	bd00      	pop	{pc}

10003094 <Dictionary_492>:
10003094:	100030ac 	andne	r3, r0, ip, lsr #1
10003098:	6e030261 	cdpvs	2, 0, cr0, cr3, cr1, {3}
1000309c:	43f6746f 	mvnsmi	r7, #1862270976	; 0x6f000000

1000309e <Code_492>:
1000309e:	43f6      	mvns	r6, r6
100030a0:	4770      	bx	lr

100030a2 <allocator_not>:
100030a2:	3f04      	subs	r7, #4
100030a4:	603e      	str	r6, [r7, #0]
100030a6:	4e89      	ldr	r6, [pc, #548]	; (100032cc <Code_544+0x32>)
100030a8:	e7e8      	b.n	1000307c <smalltworegisters>
100030aa:	46c0      	nop			; (mov r8, r8)

100030ac <Dictionary_495>:
100030ac:	100030c4 	andne	r3, r0, r4, asr #1
100030b0:	73030261 	movwvc	r0, #12897	; 0x3261
100030b4:	08767268 	ldmdaeq	r6!, {r3, r5, r6, r9, ip, sp, lr}^

100030b6 <Code_495>:
100030b6:	0876      	lsrs	r6, r6, #1
100030b8:	4770      	bx	lr
100030ba:	3f04      	subs	r7, #4
100030bc:	603e      	str	r6, [r7, #0]
100030be:	4e84      	ldr	r6, [pc, #528]	; (100032d0 <Code_544+0x36>)
100030c0:	e7dc      	b.n	1000307c <smalltworegisters>
100030c2:	46c0      	nop			; (mov r8, r8)

100030c4 <Dictionary_498>:
100030c4:	100030d4 	ldrdne	r3, [r0], -r4
100030c8:	73030261 	movwvc	r0, #12897	; 0x3261
100030cc:	00766c68 	rsbseq	r6, r6, r8, ror #24

100030ce <Code_498>:
100030ce:	0076      	lsls	r6, r6, #1
100030d0:	4770      	bx	lr
100030d2:	e006      	b.n	100030e2 <Code_499+0x4>

100030d4 <Dictionary_499>:
100030d4:	100030ec 	andne	r3, r0, ip, ror #1
100030d8:	32020261 	andcc	r0, r2, #268435462	; 0x10000006
100030dc:	0076002a 	rsbseq	r0, r6, sl, lsr #32

100030de <Code_499>:
100030de:	0076      	lsls	r6, r6, #1
100030e0:	4770      	bx	lr
100030e2:	3f04      	subs	r7, #4
100030e4:	603e      	str	r6, [r7, #0]
100030e6:	2640      	movs	r6, #64	; 0x40
100030e8:	e7c8      	b.n	1000307c <smalltworegisters>
100030ea:	46c0      	nop			; (mov r8, r8)

100030ec <Dictionary_502>:
100030ec:	10003104 	andne	r3, r0, r4, lsl #2
100030f0:	63050261 	movwvs	r0, #21089	; 0x5261
100030f4:	736c6c65 	cmnvc	ip, #25856	; 0x6500

100030f8 <Code_502>:
100030f8:	00b6      	lsls	r6, r6, #2
100030fa:	4770      	bx	lr
100030fc:	3f04      	subs	r7, #4
100030fe:	603e      	str	r6, [r7, #0]
10003100:	2680      	movs	r6, #128	; 0x80
10003102:	e7bb      	b.n	1000307c <smalltworegisters>

10003104 <Dictionary_505>:
10003104:	1000311c 	andne	r3, r0, ip, lsl r1
10003108:	32020261 	andcc	r0, r2, #268435462	; 0x10000006
1000310c:	1076002f 	rsbsne	r0, r6, pc, lsr #32

1000310e <Code_505>:
1000310e:	1076      	asrs	r6, r6, #1
10003110:	4770      	bx	lr
10003112:	3f04      	subs	r7, #4
10003114:	603e      	str	r6, [r7, #0]
10003116:	4e6f      	ldr	r6, [pc, #444]	; (100032d4 <Code_544+0x3a>)
10003118:	e7b0      	b.n	1000307c <smalltworegisters>
1000311a:	46c0      	nop			; (mov r8, r8)

1000311c <Dictionary_508>:
1000311c:	10003154 	andne	r3, r0, r4, asr r1
10003120:	61030261 	tstvs	r3, r1, ror #4
10003124:	17f07362 	ldrbne	r7, [r0, r2, ror #6]!

10003126 <Code_508>:
10003126:	17f0      	asrs	r0, r6, #31
10003128:	1836      	adds	r6, r6, r0
1000312a:	4046      	eors	r6, r0
1000312c:	4770      	bx	lr
1000312e:	b500      	push	{lr}
10003130:	f7fe f8f3 	bl	1000131a <expect_one_element>
10003134:	3f04      	subs	r7, #4
10003136:	603e      	str	r6, [r7, #0]
10003138:	4e67      	ldr	r6, [pc, #412]	; (100032d8 <Code_544+0x3e>)
1000313a:	6801      	ldr	r1, [r0, #0]
1000313c:	0209      	lsls	r1, r1, #8
1000313e:	430e      	orrs	r6, r1
10003140:	f001 f883 	bl	1000424a <Code_836>
10003144:	3f04      	subs	r7, #4
10003146:	603e      	str	r6, [r7, #0]
10003148:	4e64      	ldr	r6, [pc, #400]	; (100032dc <Code_544+0x42>)
1000314a:	f001 f87e 	bl	1000424a <Code_836>
1000314e:	f7ff ff92 	bl	10003076 <allocator_negate>
10003152:	bd00      	pop	{pc}

10003154 <Dictionary_513>:
10003154:	1000319c 	mulne	r0, ip, r1
10003158:	75050042 	strvc	r0, [r5, #-66]	; 0x42
1000315c:	646f6d2f 	strbtvs	r6, [pc], #-3375	; 10003164 <Code_513+0x4>

10003160 <Code_513>:
10003160:	0031      	movs	r1, r6
10003162:	cf40      	ldmia	r7!, {r6}
10003164:	2900      	cmp	r1, #0
10003166:	d103      	bne.n	10003170 <Code_513+0x10>
10003168:	3f04      	subs	r7, #4
1000316a:	603e      	str	r6, [r7, #0]
1000316c:	2600      	movs	r6, #0
1000316e:	4770      	bx	lr
10003170:	2201      	movs	r2, #1
10003172:	2300      	movs	r3, #0
10003174:	428e      	cmp	r6, r1
10003176:	d906      	bls.n	10003186 <Code_513+0x26>
10003178:	3100      	adds	r1, #0
1000317a:	d404      	bmi.n	10003186 <Code_513+0x26>
1000317c:	0052      	lsls	r2, r2, #1
1000317e:	0049      	lsls	r1, r1, #1
10003180:	d401      	bmi.n	10003186 <Code_513+0x26>
10003182:	428e      	cmp	r6, r1
10003184:	d8fa      	bhi.n	1000317c <Code_513+0x1c>
10003186:	428e      	cmp	r6, r1
10003188:	d301      	bcc.n	1000318e <Code_513+0x2e>
1000318a:	1a76      	subs	r6, r6, r1
1000318c:	4313      	orrs	r3, r2
1000318e:	0849      	lsrs	r1, r1, #1
10003190:	0852      	lsrs	r2, r2, #1
10003192:	d1f8      	bne.n	10003186 <Code_513+0x26>
10003194:	3f04      	subs	r7, #4
10003196:	603e      	str	r6, [r7, #0]
10003198:	001e      	movs	r6, r3
1000319a:	4770      	bx	lr

1000319c <Dictionary_519>:
1000319c:	1000320c 	andne	r3, r0, ip, lsl #4
100031a0:	2f040042 	svccs	0x00040042
100031a4:	00646f6d 	rsbeq	r6, r4, sp, ror #30

100031a8 <Code_519>:
100031a8:	b500      	push	{lr}
100031aa:	0030      	movs	r0, r6
100031ac:	cf40      	ldmia	r7!, {r6}
100031ae:	2e00      	cmp	r6, #0
100031b0:	da1c      	bge.n	100031ec <divmod_plus>
100031b2:	4276      	negs	r6, r6

100031b4 <divmod_minus>:
100031b4:	2800      	cmp	r0, #0
100031b6:	da0c      	bge.n	100031d2 <divmod_minus_plus>

100031b8 <divmod_minus_minus>:
100031b8:	4240      	negs	r0, r0
100031ba:	3f04      	subs	r7, #4
100031bc:	603e      	str	r6, [r7, #0]
100031be:	0006      	movs	r6, r0
100031c0:	f7ff ffce 	bl	10003160 <Code_513>
100031c4:	0030      	movs	r0, r6
100031c6:	cf40      	ldmia	r7!, {r6}
100031c8:	4276      	negs	r6, r6
100031ca:	3f04      	subs	r7, #4
100031cc:	603e      	str	r6, [r7, #0]
100031ce:	0006      	movs	r6, r0
100031d0:	bd00      	pop	{pc}

100031d2 <divmod_minus_plus>:
100031d2:	3f04      	subs	r7, #4
100031d4:	603e      	str	r6, [r7, #0]
100031d6:	0006      	movs	r6, r0
100031d8:	f7ff ffc2 	bl	10003160 <Code_513>
100031dc:	0030      	movs	r0, r6
100031de:	cf40      	ldmia	r7!, {r6}
100031e0:	4240      	negs	r0, r0
100031e2:	4276      	negs	r6, r6
100031e4:	3f04      	subs	r7, #4
100031e6:	603e      	str	r6, [r7, #0]
100031e8:	0006      	movs	r6, r0
100031ea:	bd00      	pop	{pc}

100031ec <divmod_plus>:
100031ec:	2800      	cmp	r0, #0
100031ee:	da07      	bge.n	10003200 <divmod_plus_plus>

100031f0 <divmod_plus_minus>:
100031f0:	4240      	negs	r0, r0
100031f2:	3f04      	subs	r7, #4
100031f4:	603e      	str	r6, [r7, #0]
100031f6:	0006      	movs	r6, r0
100031f8:	f7ff ffb2 	bl	10003160 <Code_513>
100031fc:	4276      	negs	r6, r6
100031fe:	bd00      	pop	{pc}

10003200 <divmod_plus_plus>:
10003200:	3f04      	subs	r7, #4
10003202:	603e      	str	r6, [r7, #0]
10003204:	0006      	movs	r6, r0
10003206:	f7ff ffab 	bl	10003160 <Code_513>
1000320a:	bd00      	pop	{pc}

1000320c <Dictionary_535>:
1000320c:	10003220 	andne	r3, r0, r0, lsr #4
10003210:	6d030042 	stcvs	0, cr0, [r3, #-264]	; 0xfffffef8
10003214:	b500646f 	strlt	r6, [r0, #-1135]	; 0x46f

10003216 <Code_535>:
10003216:	b500      	push	{lr}
10003218:	f7ff ffc6 	bl	100031a8 <Code_519>
1000321c:	cf40      	ldmia	r7!, {r6}
1000321e:	bd00      	pop	{pc}

10003220 <Dictionary_537>:
10003220:	10003234 	andne	r3, r0, r4, lsr r2
10003224:	2f010042 	svccs	0x00010042

10003228 <Code_537>:
10003228:	b500      	push	{lr}
1000322a:	f7ff ffbd 	bl	100031a8 <Code_519>
1000322e:	3704      	adds	r7, #4
10003230:	bd00      	pop	{pc}
10003232:	46c0      	nop			; (mov r8, r8)

10003234 <Dictionary_538>:
10003234:	10003248 	andne	r3, r0, r8, asr #4
10003238:	65040061 	strvs	r0, [r4, #-97]	; 0x61
1000323c:	006e6576 	rsbeq	r6, lr, r6, ror r5

10003240 <Code_538>:
10003240:	2001      	movs	r0, #1
10003242:	4030      	ands	r0, r6
10003244:	1836      	adds	r6, r6, r0
10003246:	4770      	bx	lr

10003248 <Dictionary_539>:
10003248:	10003260 	andne	r3, r0, r0, ror #4
1000324c:	62040081 	andvs	r0, r4, #129	; 0x81
10003250:	00657361 	rsbeq	r7, r5, r1, ror #6

10003254 <Code_539>:
10003254:	3f04      	subs	r7, #4
10003256:	603e      	str	r6, [r7, #0]
10003258:	4e21      	ldr	r6, [pc, #132]	; (100032e0 <Code_544+0x46>)
1000325a:	4770      	bx	lr
1000325c:	0000000a 	andeq	r0, r0, sl

10003260 <Dictionary_542>:
10003260:	10003278 	andne	r3, r0, r8, ror r2
10003264:	62060000 	andvs	r0, r6, #0
10003268:	72616e69 	rsbvc	r6, r1, #1680	; 0x690
1000326c:	481c0079 	ldmdami	ip, {r0, r3, r4, r5, r6}

1000326e <Code_542>:
1000326e:	481c      	ldr	r0, [pc, #112]	; (100032e0 <Code_544+0x46>)
10003270:	2102      	movs	r1, #2
10003272:	6001      	str	r1, [r0, #0]
10003274:	4770      	bx	lr
10003276:	46c0      	nop			; (mov r8, r8)

10003278 <Dictionary_543>:
10003278:	10003290 	mulne	r0, r0, r2
1000327c:	64070000 	strvs	r0, [r7]
10003280:	6d696365 	stclvs	3, cr6, [r9, #-404]!	; 0xfffffe6c
10003284:	48166c61 	ldmdami	r6, {r0, r5, r6, sl, fp, sp, lr}

10003286 <Code_543>:
10003286:	4816      	ldr	r0, [pc, #88]	; (100032e0 <Code_544+0x46>)
10003288:	210a      	movs	r1, #10
1000328a:	6001      	str	r1, [r0, #0]
1000328c:	4770      	bx	lr
1000328e:	46c0      	nop			; (mov r8, r8)

10003290 <Dictionary_544>:
10003290:	10003334 	andne	r3, r0, r4, lsr r3
10003294:	68030000 	stmdavs	r3, {}	; <UNPREDICTABLE>
10003298:	48117865 	ldmdami	r1, {r0, r2, r5, r6, fp, ip, sp, lr}

1000329a <Code_544>:
1000329a:	4811      	ldr	r0, [pc, #68]	; (100032e0 <Code_544+0x46>)
1000329c:	2110      	movs	r1, #16
1000329e:	6001      	str	r1, [r0, #0]
100032a0:	4770      	bx	lr
100032a2:	30000000 	andcc	r0, r0, r0
100032a6:	18000000 	stmdane	r0, {}	; <UNPREDICTABLE>
100032aa:	38000000 	stmdacc	r0, {}	; <UNPREDICTABLE>
100032ae:	1a000000 	bne	100032b6 <Code_544+0x1c>
100032b2:	1e400000 	cdpne	0, 4, cr0, cr0, cr0, {0}
100032b6:	1c400000 	marne	acc0, r0, r0
100032ba:	1e800000 	cdpne	0, 8, cr0, cr0, cr0, {0}
100032be:	1c800000 	stcne	0, cr0, [r0], {0}
100032c2:	1d000000 	stcne	0, cr0, [r0]
100032c6:	42400000 	submi	r0, r0, #0
100032ca:	43c00000 	bicmi	r0, r0, #0
100032ce:	08400000 	stmdaeq	r0, {}^	; <UNPREDICTABLE>
100032d2:	10400000 	subne	r0, r0, r0
100032d6:	28000000 	stmdacs	r0, {}	; <UNPREDICTABLE>
100032da:	d5000000 	strle	r0, [r0]
100032de:	3ffc0000 	svccc	0x00fc0000
100032e2:	487e2000 	ldmdami	lr!, {sp}^

100032e4 <uart_init>:
100032e4:	487e      	ldr	r0, [pc, #504]	; (100034e0 <Code_574+0x1a>)
100032e6:	2100      	movs	r1, #0
100032e8:	6001      	str	r1, [r0, #0]
100032ea:	487e      	ldr	r0, [pc, #504]	; (100034e4 <Code_574+0x1e>)
100032ec:	2103      	movs	r1, #3
100032ee:	6001      	str	r1, [r0, #0]
100032f0:	487d      	ldr	r0, [pc, #500]	; (100034e8 <Code_574+0x22>)
100032f2:	497e      	ldr	r1, [pc, #504]	; (100034ec <Code_574+0x26>)
100032f4:	6001      	str	r1, [r0, #0]
100032f6:	487e      	ldr	r0, [pc, #504]	; (100034f0 <Code_574+0x2a>)
100032f8:	497e      	ldr	r1, [pc, #504]	; (100034f4 <Code_574+0x2e>)
100032fa:	6001      	str	r1, [r0, #0]
100032fc:	487e      	ldr	r0, [pc, #504]	; (100034f8 <Code_574+0x32>)
100032fe:	497f      	ldr	r1, [pc, #508]	; (100034fc <Code_574+0x36>)
10003300:	6001      	str	r1, [r0, #0]
10003302:	487f      	ldr	r0, [pc, #508]	; (10003500 <Code_574+0x3a>)
10003304:	497f      	ldr	r1, [pc, #508]	; (10003504 <Code_574+0x3e>)
10003306:	6001      	str	r1, [r0, #0]
10003308:	487f      	ldr	r0, [pc, #508]	; (10003508 <Code_574+0x42>)
1000330a:	4980      	ldr	r1, [pc, #512]	; (1000350c <Code_574+0x46>)
1000330c:	6001      	str	r1, [r0, #0]
1000330e:	4880      	ldr	r0, [pc, #512]	; (10003510 <Code_574+0x4a>)
10003310:	2100      	movs	r1, #0
10003312:	6001      	str	r1, [r0, #0]
10003314:	487f      	ldr	r0, [pc, #508]	; (10003514 <Code_574+0x4e>)
10003316:	2106      	movs	r1, #6
10003318:	6001      	str	r1, [r0, #0]
1000331a:	487f      	ldr	r0, [pc, #508]	; (10003518 <Code_574+0x52>)
1000331c:	497f      	ldr	r1, [pc, #508]	; (1000351c <Code_574+0x56>)
1000331e:	6001      	str	r1, [r0, #0]
10003320:	487f      	ldr	r0, [pc, #508]	; (10003520 <Code_574+0x5a>)
10003322:	4980      	ldr	r1, [pc, #512]	; (10003524 <Code_574+0x5e>)
10003324:	6001      	str	r1, [r0, #0]
10003326:	4880      	ldr	r0, [pc, #512]	; (10003528 <Code_574+0x62>)
10003328:	4980      	ldr	r1, [pc, #512]	; (1000352c <Code_574+0x66>)
1000332a:	6001      	str	r1, [r0, #0]
1000332c:	4880      	ldr	r0, [pc, #512]	; (10003530 <Code_574+0x6a>)
1000332e:	2102      	movs	r1, #2
10003330:	6001      	str	r1, [r0, #0]
10003332:	4770      	bx	lr

10003334 <Dictionary_545>:
10003334:	10003350 	andne	r3, r0, r0, asr r3
10003338:	68090081 	stmdavs	r9, {r0, r7}
1000333c:	2d6b6f6f 	stclcs	15, cr6, [fp, #-444]!	; 0xfffffe44
10003340:	74696d65 	strbtvc	r6, [r9], #-3429	; 0xd65

10003344 <Code_545>:
10003344:	3f04      	subs	r7, #4
10003346:	603e      	str	r6, [r7, #0]
10003348:	4e7a      	ldr	r6, [pc, #488]	; (10003534 <Code_574+0x6e>)
1000334a:	4770      	bx	lr
1000334c:	10003446 	andne	r3, r0, r6, asr #8

10003350 <Dictionary_548>:
10003350:	1000336c 	andne	r3, r0, ip, ror #6
10003354:	68080081 	stmdavs	r8, {r0, r7}
10003358:	2d6b6f6f 	stclcs	15, cr6, [fp, #-444]!	; 0xfffffe44
1000335c:	0079656b 	rsbseq	r6, r9, fp, ror #10

10003360 <Code_548>:
10003360:	3f04      	subs	r7, #4
10003362:	603e      	str	r6, [r7, #0]
10003364:	4e74      	ldr	r6, [pc, #464]	; (10003538 <Code_574+0x72>)
10003366:	4770      	bx	lr
10003368:	1000346e 	andne	r3, r0, lr, ror #8

1000336c <Dictionary_551>:
1000336c:	1000338c 	andne	r3, r0, ip, lsl #7
10003370:	680a0081 	stmdavs	sl, {r0, r7}
10003374:	2d6b6f6f 	stclcs	15, cr6, [fp, #-444]!	; 0xfffffe44
10003378:	74696d65 	strbtvc	r6, [r9], #-3429	; 0xd65
1000337c:	3f04003f 	svccc	0x0004003f

1000337e <Code_551>:
1000337e:	3f04      	subs	r7, #4
10003380:	603e      	str	r6, [r7, #0]
10003382:	4e6e      	ldr	r6, [pc, #440]	; (1000353c <Code_574+0x76>)
10003384:	4770      	bx	lr
10003386:	10003498 	mulne	r0, r8, r4
1000338a:	33a846c0 			; <UNDEFINED> instruction: 0x33a846c0

1000338c <Dictionary_554>:
1000338c:	100033a8 	andne	r3, r0, r8, lsr #7
10003390:	68090081 	stmdavs	r9, {r0, r7}
10003394:	2d6b6f6f 	stclcs	15, cr6, [fp, #-444]!	; 0xfffffe44
10003398:	3f79656b 	svccc	0x0079656b

1000339c <Code_554>:
1000339c:	3f04      	subs	r7, #4
1000339e:	603e      	str	r6, [r7, #0]
100033a0:	4e67      	ldr	r6, [pc, #412]	; (10003540 <Code_574+0x7a>)
100033a2:	4770      	bx	lr
100033a4:	100034c6 	andne	r3, r0, r6, asr #9

100033a8 <Dictionary_557>:
100033a8:	100033c8 	andne	r3, r0, r8, asr #7
100033ac:	680a0081 	stmdavs	sl, {r0, r7}
100033b0:	2d6b6f6f 	stclcs	15, cr6, [fp, #-444]!	; 0xfffffe44
100033b4:	73756170 	cmnvc	r5, #28
100033b8:	3f040065 	svccc	0x00040065

100033ba <Code_557>:
100033ba:	3f04      	subs	r7, #4
100033bc:	603e      	str	r6, [r7, #0]
100033be:	4e61      	ldr	r6, [pc, #388]	; (10003544 <Code_574+0x7e>)
100033c0:	4770      	bx	lr
100033c2:	1000583e 	andne	r5, r0, lr, lsr r8
100033c6:	33e046c0 	mvncc	r4, #201326592	; 0xc000000

100033c8 <Dictionary_560>:
100033c8:	100033e0 	andne	r3, r0, r0, ror #7
100033cc:	65040000 	strvs	r0, [r4]
100033d0:	0074696d 	rsbseq	r6, r4, sp, ror #18

100033d4 <Code_560>:
100033d4:	b50f      	push	{r0, r1, r2, r3, lr}
100033d6:	4857      	ldr	r0, [pc, #348]	; (10003534 <Code_574+0x6e>)
100033d8:	f000 f829 	bl	1000342e <hook_intern>
100033dc:	bd0f      	pop	{r0, r1, r2, r3, pc}
100033de:	46c0      	nop			; (mov r8, r8)

100033e0 <Dictionary_561>:
100033e0:	100033f4 	strdne	r3, [r0], -r4
100033e4:	6b030000 	blvs	100c33ec <FlashDictionaryEnde+0xb23ec>
100033e8:	b50f7965 	strlt	r7, [pc, #-2405]	; 10002a8b <Code_409+0x17>

100033ea <Code_561>:
100033ea:	b50f      	push	{r0, r1, r2, r3, lr}
100033ec:	4852      	ldr	r0, [pc, #328]	; (10003538 <Code_574+0x72>)
100033ee:	f000 f81e 	bl	1000342e <hook_intern>
100033f2:	bd0f      	pop	{r0, r1, r2, r3, pc}

100033f4 <Dictionary_562>:
100033f4:	10003408 	andne	r3, r0, r8, lsl #8
100033f8:	65050000 	strvs	r0, [r5]
100033fc:	3f74696d 	svccc	0x0074696d

10003400 <Code_562>:
10003400:	484e      	ldr	r0, [pc, #312]	; (1000353c <Code_574+0x76>)
10003402:	6800      	ldr	r0, [r0, #0]
10003404:	4687      	mov	pc, r0
10003406:	46c0      	nop			; (mov r8, r8)

10003408 <Dictionary_563>:
10003408:	1000341c 	andne	r3, r0, ip, lsl r4
1000340c:	6b040000 	blvs	10103414 <FlashDictionaryEnde+0xf2414>
10003410:	003f7965 	eorseq	r7, pc, r5, ror #18

10003414 <Code_563>:
10003414:	484a      	ldr	r0, [pc, #296]	; (10003540 <Code_574+0x7a>)
10003416:	6800      	ldr	r0, [r0, #0]
10003418:	4687      	mov	pc, r0
1000341a:	46c0      	nop			; (mov r8, r8)

1000341c <Dictionary_564>:
1000341c:	10003434 	andne	r3, r0, r4, lsr r4
10003420:	70050000 	andvc	r0, r5, r0
10003424:	65737561 	ldrbvs	r7, [r3, #-1377]!	; 0x561

10003428 <Code_564>:
10003428:	4846      	ldr	r0, [pc, #280]	; (10003544 <Code_574+0x7e>)
1000342a:	6800      	ldr	r0, [r0, #0]
1000342c:	4687      	mov	pc, r0

1000342e <hook_intern>:
1000342e:	6800      	ldr	r0, [r0, #0]
10003430:	4687      	mov	pc, r0
10003432:	46c0      	nop			; (mov r8, r8)

10003434 <Dictionary_565>:
10003434:	1000345c 	andne	r3, r0, ip, asr r4
10003438:	730b0000 	movwvc	r0, #45056	; 0xb000
1000343c:	61697265 	cmnvs	r9, r5, ror #4
10003440:	6d652d6c 	stclvs	13, cr2, [r5, #-432]!	; 0xfffffe50
10003444:	b5007469 	strlt	r7, [r0, #-1129]	; 0x469

10003446 <Code_565>:
10003446:	b500      	push	{lr}
10003448:	f000 f826 	bl	10003498 <Code_571>
1000344c:	2e00      	cmp	r6, #0
1000344e:	cf40      	ldmia	r7!, {r6}
10003450:	d0fa      	beq.n	10003448 <Code_565+0x2>
10003452:	483d      	ldr	r0, [pc, #244]	; (10003548 <Code_574+0x82>)
10003454:	7006      	strb	r6, [r0, #0]
10003456:	cf40      	ldmia	r7!, {r6}
10003458:	bd00      	pop	{pc}
1000345a:	46c0      	nop			; (mov r8, r8)

1000345c <Dictionary_568>:
1000345c:	10003484 	andne	r3, r0, r4, lsl #9
10003460:	730a0000 	movwvc	r0, #40960	; 0xa000
10003464:	61697265 	cmnvs	r9, r5, ror #4
10003468:	656b2d6c 	strbvs	r2, [fp, #-3436]!	; 0xd6c
1000346c:	b5000079 	strlt	r0, [r0, #-121]	; 0x79

1000346e <Code_568>:
1000346e:	b500      	push	{lr}
10003470:	f000 f829 	bl	100034c6 <Code_574>
10003474:	2e00      	cmp	r6, #0
10003476:	cf40      	ldmia	r7!, {r6}
10003478:	d0fa      	beq.n	10003470 <Code_568+0x2>
1000347a:	3f04      	subs	r7, #4
1000347c:	603e      	str	r6, [r7, #0]
1000347e:	4e33      	ldr	r6, [pc, #204]	; (1000354c <Code_574+0x86>)
10003480:	7836      	ldrb	r6, [r6, #0]
10003482:	bd00      	pop	{pc}

10003484 <Dictionary_571>:
10003484:	100034b4 			; <UNDEFINED> instruction: 0x100034b4
10003488:	730c0000 	movwvc	r0, #49152	; 0xc000
1000348c:	61697265 	cmnvs	r9, r5, ror #4
10003490:	6d652d6c 	stclvs	13, cr2, [r5, #-432]!	; 0xfffffe50
10003494:	003f7469 	eorseq	r7, pc, r9, ror #8

10003498 <Code_571>:
10003498:	b500      	push	{lr}
1000349a:	f7ff ffc5 	bl	10003428 <Code_564>
1000349e:	3f04      	subs	r7, #4
100034a0:	603e      	str	r6, [r7, #0]
100034a2:	2600      	movs	r6, #0
100034a4:	482a      	ldr	r0, [pc, #168]	; (10003550 <Code_574+0x8a>)
100034a6:	4a2b      	ldr	r2, [pc, #172]	; (10003554 <Code_574+0x8e>)
100034a8:	6801      	ldr	r1, [r0, #0]
100034aa:	4011      	ands	r1, r2
100034ac:	d100      	bne.n	100034b0 <Code_571+0x18>
100034ae:	43f6      	mvns	r6, r6
100034b0:	bd00      	pop	{pc}
100034b2:	46c0      	nop			; (mov r8, r8)

100034b4 <Dictionary_574>:
100034b4:	1000355c 	andne	r3, r0, ip, asr r5
100034b8:	730b0000 	movwvc	r0, #45056	; 0xb000
100034bc:	61697265 	cmnvs	r9, r5, ror #4
100034c0:	656b2d6c 	strbvs	r2, [fp, #-3436]!	; 0xd6c
100034c4:	b5003f79 	strlt	r3, [r0, #-3961]	; 0xf79

100034c6 <Code_574>:
100034c6:	b500      	push	{lr}
100034c8:	f7ff ffae 	bl	10003428 <Code_564>
100034cc:	3f04      	subs	r7, #4
100034ce:	603e      	str	r6, [r7, #0]
100034d0:	2600      	movs	r6, #0
100034d2:	4821      	ldr	r0, [pc, #132]	; (10003558 <Code_574+0x92>)
100034d4:	2208      	movs	r2, #8
100034d6:	6801      	ldr	r1, [r0, #0]
100034d8:	4011      	ands	r1, r2
100034da:	d100      	bne.n	100034de <Code_574+0x18>
100034dc:	43f6      	mvns	r6, r6
100034de:	bd00      	pop	{pc}
100034e0:	40040260 	andmi	r0, r4, r0, ror #4
100034e4:	4800000c 	stmdami	r0, {r2, r3}
100034e8:	48000010 	stmdami	r0, {r4}
100034ec:	0000823f 	andeq	r8, r0, pc, lsr r2
100034f0:	48000014 	stmdami	r0, {r2, r4}
100034f4:	00032400 	andeq	r2, r3, r0, lsl #8
100034f8:	48000034 	stmdami	r0, {r2, r4, r5}
100034fc:	07070102 	streq	r0, [r7, -r2, lsl #2]
10003500:	48000038 	stmdami	r0, {r3, r4, r5}
10003504:	00000500 	andeq	r0, r0, r0, lsl #10
10003508:	4800003c 	stmdami	r0, {r2, r3, r4, r5}
1000350c:	00020901 	andeq	r0, r2, r1, lsl #18
10003510:	48000028 	stmdami	r0, {r3, r5}
10003514:	4800001c 	stmdami	r0, {r2, r3, r4}
10003518:	4800010c 	stmdami	r0, {r2, r3, r8}
1000351c:	05000020 	streq	r0, [r0, #-32]
10003520:	48000108 	stmdami	r0, {r3, r8}
10003524:	05000000 	streq	r0, [r0]
10003528:	40040210 	andmi	r0, r4, r0, lsl r2
1000352c:	0000b000 	andeq	fp, r0, r0
10003530:	48000040 	stmdami	r0, {r6}
10003534:	20003ff8 	strdcs	r3, [r0], -r8
10003538:	20003ff4 	strdcs	r3, [r0], -r4
1000353c:	20003ff0 	strdcs	r3, [r0], -r0
10003540:	20003fec 	andcs	r3, r0, ip, ror #31
10003544:	20003fe8 	andcs	r3, r0, r8, ror #31
10003548:	48000180 	stmdami	r0, {r7, r8}
1000354c:	4800011c 	stmdami	r0, {r2, r3, r4, r8}
10003550:	48000048 	stmdami	r0, {r3, r6}
10003554:	00000200 	andeq	r0, r0, r0, lsl #4
10003558:	48000114 	stmdami	r0, {r2, r4, r8}

1000355c <Dictionary_577>:
1000355c:	10003580 	andne	r3, r0, r0, lsl #11
10003560:	63070000 	movwvs	r0, #28672	; 0x7000
10003564:	65707865 	ldrbvs	r7, [r0, #-2149]!	; 0x865
10003568:	b5007463 	strlt	r7, [r0, #-1123]	; 0x463

1000356a <Code_577>:
1000356a:	b500      	push	{lr}
1000356c:	6838      	ldr	r0, [r7, #0]
1000356e:	b401      	push	{r0}
10003570:	3001      	adds	r0, #1
10003572:	6038      	str	r0, [r7, #0]
10003574:	f000 f80b 	bl	1000358e <Code_579>
10003578:	bc01      	pop	{r0}
1000357a:	7006      	strb	r6, [r0, #0]
1000357c:	cf40      	ldmia	r7!, {r6}
1000357e:	bd00      	pop	{pc}

10003580 <Dictionary_579>:
10003580:	100035f8 	strdne	r3, [r0], -r8
10003584:	61060000 	mrsvs	r0, (UNDEF: 6)
10003588:	70656363 	rsbvc	r6, r5, r3, ror #6
1000358c:	b5000074 	strlt	r0, [r0, #-116]	; 0x74

1000358e <Code_579>:
1000358e:	b500      	push	{lr}
10003590:	cf02      	ldmia	r7!, {r1}
10003592:	3901      	subs	r1, #1
10003594:	2200      	movs	r2, #0
10003596:	f7ff ff28 	bl	100033ea <Code_561>
1000359a:	0030      	movs	r0, r6
1000359c:	cf40      	ldmia	r7!, {r6}
1000359e:	287f      	cmp	r0, #127	; 0x7f
100035a0:	d009      	beq.n	100035b6 <Code_579+0x28>
100035a2:	2820      	cmp	r0, #32
100035a4:	d219      	bcs.n	100035da <Code_579+0x4c>
100035a6:	2809      	cmp	r0, #9
100035a8:	d016      	beq.n	100035d8 <Code_579+0x4a>
100035aa:	280a      	cmp	r0, #10
100035ac:	d01f      	beq.n	100035ee <Code_579+0x60>
100035ae:	280d      	cmp	r0, #13
100035b0:	d01d      	beq.n	100035ee <Code_579+0x60>
100035b2:	2808      	cmp	r0, #8
100035b4:	d1ef      	bne.n	10003596 <Code_579+0x8>
100035b6:	2a00      	cmp	r2, #0
100035b8:	d0ed      	beq.n	10003596 <Code_579+0x8>
100035ba:	f000 f915 	bl	100037e8 <dotgaensefuesschen>
100035be:	08200803 	stmdaeq	r0!, {r0, r1, fp}
100035c2:	2a00      	cmp	r2, #0
100035c4:	d0e7      	beq.n	10003596 <Code_579+0x8>
100035c6:	5c88      	ldrb	r0, [r1, r2]
100035c8:	3a01      	subs	r2, #1
100035ca:	2380      	movs	r3, #128	; 0x80
100035cc:	4003      	ands	r3, r0
100035ce:	d0e2      	beq.n	10003596 <Code_579+0x8>
100035d0:	2340      	movs	r3, #64	; 0x40
100035d2:	4003      	ands	r3, r0
100035d4:	d0f5      	beq.n	100035c2 <Code_579+0x34>
100035d6:	e7de      	b.n	10003596 <Code_579+0x8>
100035d8:	2020      	movs	r0, #32
100035da:	42b2      	cmp	r2, r6
100035dc:	d2db      	bcs.n	10003596 <Code_579+0x8>
100035de:	3f04      	subs	r7, #4
100035e0:	603e      	str	r6, [r7, #0]
100035e2:	0006      	movs	r6, r0
100035e4:	f7ff fef6 	bl	100033d4 <Code_560>
100035e8:	3201      	adds	r2, #1
100035ea:	5488      	strb	r0, [r1, r2]
100035ec:	e7d3      	b.n	10003596 <Code_579+0x8>
100035ee:	0016      	movs	r6, r2
100035f0:	f000 f8a8 	bl	10003744 <Code_610>
100035f4:	bd00      	pop	{pc}
100035f6:	46c0      	nop			; (mov r8, r8)

100035f8 <Dictionary_583>:
100035f8:	1000360c 	andne	r3, r0, ip, lsl #12
100035fc:	74030040 	strvc	r0, [r3], #-64	; 0x40
10003600:	3f046269 	svccc	0x00046269

10003602 <Code_583>:
10003602:	3f04      	subs	r7, #4
10003604:	603e      	str	r6, [r7, #0]
10003606:	4e2b      	ldr	r6, [pc, #172]	; (100036b4 <Code_595+0x20>)
10003608:	4770      	bx	lr
1000360a:	46c0      	nop			; (mov r8, r8)

1000360c <Dictionary_585>:
1000360c:	10003624 	andne	r3, r0, r4, lsr #12
10003610:	3e030081 	cdpcc	0, 0, cr0, cr3, cr1, {4}
10003614:	3f046e69 	svccc	0x00046e69

10003616 <Code_585>:
10003616:	3f04      	subs	r7, #4
10003618:	603e      	str	r6, [r7, #0]
1000361a:	4e27      	ldr	r6, [pc, #156]	; (100036b8 <Code_595+0x24>)
1000361c:	4770      	bx	lr
1000361e:	00000000 	andeq	r0, r0, r0
10003622:	364c46c0 	strbcc	r4, [ip], -r0, asr #13

10003624 <Dictionary_588>:
10003624:	1000364c 	andne	r3, r0, ip, asr #12
10003628:	630e0082 	movwvs	r0, #57474	; 0xe082
1000362c:	65727275 	ldrbvs	r7, [r2, #-629]!	; 0x275
10003630:	732d746e 	teqvc	sp, #1845493760	; 0x6e000000
10003634:	6372756f 	cmnvs	r2, #465567744	; 0x1bc00000
10003638:	3f040065 	svccc	0x00040065

1000363a <Code_588>:
1000363a:	3f04      	subs	r7, #4
1000363c:	603e      	str	r6, [r7, #0]
1000363e:	4e1f      	ldr	r6, [pc, #124]	; (100036bc <Code_595+0x28>)
10003640:	4770      	bx	lr
10003642:	00000000 	andeq	r0, r0, r0
10003646:	200001b8 			; <UNDEFINED> instruction: 0x200001b8
1000364a:	366846c0 	strbtcc	r4, [r8], -r0, asr #13

1000364c <Dictionary_591>:
1000364c:	10003668 	andne	r3, r0, r8, ror #12
10003650:	73090000 	movwvc	r0, #36864	; 0x9000
10003654:	6f737465 	svcvs	0x00737465
10003658:	65637275 	strbvs	r7, [r3, #-629]!	; 0x275

1000365c <Code_591>:
1000365c:	4817      	ldr	r0, [pc, #92]	; (100036bc <Code_595+0x28>)
1000365e:	cf02      	ldmia	r7!, {r1}
10003660:	6006      	str	r6, [r0, #0]
10003662:	6041      	str	r1, [r0, #4]
10003664:	cf40      	ldmia	r7!, {r6}
10003666:	4770      	bx	lr

10003668 <Dictionary_593>:
10003668:	10003688 	andne	r3, r0, r8, lsl #13
1000366c:	73060000 	movwvc	r0, #24576	; 0x6000
10003670:	6372756f 	cmnvs	r2, #465567744	; 0x1bc00000
10003674:	3f040065 	svccc	0x00040065

10003676 <Code_593>:
10003676:	3f04      	subs	r7, #4
10003678:	603e      	str	r6, [r7, #0]
1000367a:	4e10      	ldr	r6, [pc, #64]	; (100036bc <Code_595+0x28>)
1000367c:	3f04      	subs	r7, #4
1000367e:	6870      	ldr	r0, [r6, #4]
10003680:	6038      	str	r0, [r7, #0]
10003682:	6836      	ldr	r6, [r6, #0]
10003684:	4770      	bx	lr
10003686:	46c0      	nop			; (mov r8, r8)

10003688 <Dictionary_595>:
10003688:	100036c0 	andne	r3, r0, r0, asr #13
1000368c:	71050000 	mrsvc	r0, (UNDEF: 5)
10003690:	79726575 	ldmdbvc	r2!, {r0, r2, r4, r5, r6, r8, sl, sp, lr}^

10003694 <Code_595>:
10003694:	b50f      	push	{r0, r1, r2, r3, lr}
10003696:	4808      	ldr	r0, [pc, #32]	; (100036b8 <Code_595+0x24>)
10003698:	2100      	movs	r1, #0
1000369a:	6001      	str	r1, [r0, #0]
1000369c:	f7ff ffb1 	bl	10003602 <Code_583>
100036a0:	3f04      	subs	r7, #4
100036a2:	603e      	str	r6, [r7, #0]
100036a4:	3f04      	subs	r7, #4
100036a6:	603e      	str	r6, [r7, #0]
100036a8:	26c8      	movs	r6, #200	; 0xc8
100036aa:	f7ff ff70 	bl	1000358e <Code_579>
100036ae:	f7ff ffd5 	bl	1000365c <Code_591>
100036b2:	bd0f      	pop	{r0, r1, r2, r3, pc}
100036b4:	200001b8 			; <UNDEFINED> instruction: 0x200001b8
100036b8:	20003fe4 	andcs	r3, r0, r4, ror #31
100036bc:	20003fdc 	ldrdcs	r3, [r0], -ip

100036c0 <Dictionary_600>:
100036c0:	10003710 	andne	r3, r0, r0, lsl r7
100036c4:	63070000 	movwvs	r0, #28672	; 0x7000
100036c8:	61706d6f 	cmnvs	r0, pc, ror #26
100036cc:	b50f6572 	strlt	r6, [pc, #-1394]	; 10003162 <Code_513+0x2>

100036ce <Code_600>:
100036ce:	b50f      	push	{r0, r1, r2, r3, lr}
100036d0:	0031      	movs	r1, r6
100036d2:	cf40      	ldmia	r7!, {r6}
100036d4:	cf01      	ldmia	r7!, {r0}
100036d6:	4288      	cmp	r0, r1
100036d8:	d002      	beq.n	100036e0 <Code_600+0x12>
100036da:	cf40      	ldmia	r7!, {r6}
100036dc:	2600      	movs	r6, #0
100036de:	bd0f      	pop	{r0, r1, r2, r3, pc}
100036e0:	cf02      	ldmia	r7!, {r1}
100036e2:	2800      	cmp	r0, #0
100036e4:	d010      	beq.n	10003708 <Code_600+0x3a>
100036e6:	3801      	subs	r0, #1
100036e8:	5c0a      	ldrb	r2, [r1, r0]
100036ea:	5c33      	ldrb	r3, [r6, r0]
100036ec:	2a41      	cmp	r2, #65	; 0x41
100036ee:	d302      	bcc.n	100036f6 <Code_600+0x28>
100036f0:	2a5b      	cmp	r2, #91	; 0x5b
100036f2:	d200      	bcs.n	100036f6 <Code_600+0x28>
100036f4:	3220      	adds	r2, #32
100036f6:	2b41      	cmp	r3, #65	; 0x41
100036f8:	d302      	bcc.n	10003700 <Code_600+0x32>
100036fa:	2b5b      	cmp	r3, #91	; 0x5b
100036fc:	d200      	bcs.n	10003700 <Code_600+0x32>
100036fe:	3320      	adds	r3, #32
10003700:	429a      	cmp	r2, r3
10003702:	d0ee      	beq.n	100036e2 <Code_600+0x14>
10003704:	2600      	movs	r6, #0
10003706:	bd0f      	pop	{r0, r1, r2, r3, pc}
10003708:	2600      	movs	r6, #0
1000370a:	43f6      	mvns	r6, r6
1000370c:	bd0f      	pop	{r0, r1, r2, r3, pc}
1000370e:	46c0      	nop			; (mov r8, r8)

10003710 <Dictionary_605>:
10003710:	10003724 	andne	r3, r0, r4, lsr #14
10003714:	63020000 	movwvs	r0, #8192	; 0x2000
10003718:	b5000072 	strlt	r0, [r0, #-114]	; 0x72

1000371a <Code_605>:
1000371a:	b500      	push	{lr}
1000371c:	f000 f864 	bl	100037e8 <dotgaensefuesschen>
10003720:	bd000a01 	vstrlt	s0, [r0, #-4]

10003724 <Dictionary_607>:
10003724:	10003738 	andne	r3, r0, r8, lsr r7
10003728:	62020000 	andvs	r0, r2, #0
1000372c:	3f04006c 	svccc	0x0004006c

1000372e <Code_607>:
1000372e:	3f04      	subs	r7, #4
10003730:	603e      	str	r6, [r7, #0]
10003732:	2620      	movs	r6, #32
10003734:	4770      	bx	lr
10003736:	46c0      	nop			; (mov r8, r8)

10003738 <Dictionary_610>:
10003738:	1000374c 	andne	r3, r0, ip, asr #14
1000373c:	73050000 	movwvc	r0, #20480	; 0x5000
10003740:	65636170 	strbvs	r6, [r3, #-368]!	; 0x170

10003744 <Code_610>:
10003744:	3f04      	subs	r7, #4
10003746:	603e      	str	r6, [r7, #0]
10003748:	2620      	movs	r6, #32
1000374a:	e643      	b.n	100033d4 <Code_560>

1000374c <Dictionary_613>:
1000374c:	1000376c 	andne	r3, r0, ip, ror #14
10003750:	73060000 	movwvc	r0, #24576	; 0x6000
10003754:	65636170 	strbvs	r6, [r3, #-368]!	; 0x170
10003758:	b5000073 	strlt	r0, [r0, #-115]	; 0x73

1000375a <Code_613>:
1000375a:	b500      	push	{lr}
1000375c:	2e00      	cmp	r6, #0
1000375e:	dd03      	ble.n	10003768 <Code_613+0xe>
10003760:	f7ff fff0 	bl	10003744 <Code_610>
10003764:	3e01      	subs	r6, #1
10003766:	d1fb      	bne.n	10003760 <Code_613+0x6>
10003768:	cf40      	ldmia	r7!, {r6}
1000376a:	bd00      	pop	{pc}

1000376c <Dictionary_615>:
1000376c:	1000377c 	andne	r3, r0, ip, ror r7
10003770:	5b060050 	blpl	101838b8 <FlashDictionaryEnde+0x1728b8>
10003774:	72616863 	rsbvc	r6, r1, #6488064	; 0x630000
10003778:	e005005d 	and	r0, r5, sp, asr r0

1000377a <Code_615>:
1000377a:	e005      	b.n	10003788 <Code_616>

1000377c <Dictionary_616>:
1000377c:	10003794 	mulne	r0, r4, r7
10003780:	63040000 	movwvs	r0, #16384	; 0x4000
10003784:	00726168 	rsbseq	r6, r2, r8, ror #2

10003788 <Code_616>:
10003788:	b500      	push	{lr}
1000378a:	f001 fc65 	bl	10005058 <Code_1120>
1000378e:	cf40      	ldmia	r7!, {r6}
10003790:	7836      	ldrb	r6, [r6, #0]
10003792:	bd00      	pop	{pc}

10003794 <Dictionary_618>:
10003794:	100037a4 	andne	r3, r0, r4, lsr #15
10003798:	28010450 	stmdacs	r1, {r4, r6, sl}

1000379c <Code_618>:
1000379c:	3f04      	subs	r7, #4
1000379e:	603e      	str	r6, [r7, #0]
100037a0:	2629      	movs	r6, #41	; 0x29
100037a2:	e006      	b.n	100037b2 <Code_621+0x6>

100037a4 <Dictionary_621>:
100037a4:	100037c0 	andne	r3, r0, r0, asr #15
100037a8:	5c010450 	cfstrspl	mvf0, [r1], {80}	; 0x50

100037ac <Code_621>:
100037ac:	3f04      	subs	r7, #4
100037ae:	603e      	str	r6, [r7, #0]
100037b0:	2600      	movs	r6, #0
100037b2:	b500      	push	{lr}
100037b4:	f001 fc5a 	bl	1000506c <Code_1122>
100037b8:	3704      	adds	r7, #4
100037ba:	cf40      	ldmia	r7!, {r6}
100037bc:	bd00      	pop	{pc}
100037be:	46c0      	nop			; (mov r8, r8)

100037c0 <Dictionary_626>:
100037c0:	10003808 	andne	r3, r0, r8, lsl #16
100037c4:	2e020010 	mcrcs	0, 0, r0, cr2, cr0, {0}
100037c8:	489f0022 	ldmmi	pc, {r1, r5}	; <UNPREDICTABLE>

100037ca <Code_626>:
100037ca:	489f      	ldr	r0, [pc, #636]	; (10003a48 <Code_665+0x94>)
100037cc:	b500      	push	{lr}
100037ce:	3f04      	subs	r7, #4
100037d0:	603e      	str	r6, [r7, #0]
100037d2:	0006      	movs	r6, r0
100037d4:	f000 f9f8 	bl	10003bc8 <Code_712>
100037d8:	3f04      	subs	r7, #4
100037da:	603e      	str	r6, [r7, #0]
100037dc:	2622      	movs	r6, #34	; 0x22
100037de:	f001 fc45 	bl	1000506c <Code_1122>
100037e2:	f000 fd72 	bl	100042ca <Code_848>
100037e6:	bd00      	pop	{pc}

100037e8 <dotgaensefuesschen>:
100037e8:	b40a      	push	{r1, r3}
100037ea:	3f04      	subs	r7, #4
100037ec:	603e      	str	r6, [r7, #0]
100037ee:	4676      	mov	r6, lr
100037f0:	3e01      	subs	r6, #1
100037f2:	7833      	ldrb	r3, [r6, #0]
100037f4:	2101      	movs	r1, #1
100037f6:	3301      	adds	r3, #1
100037f8:	4019      	ands	r1, r3
100037fa:	185b      	adds	r3, r3, r1
100037fc:	4671      	mov	r1, lr
100037fe:	18c9      	adds	r1, r1, r3
10003800:	468e      	mov	lr, r1
10003802:	bc0a      	pop	{r1, r3}
10003804:	e03c      	b.n	10003880 <Code_641>
10003806:	46c0      	nop			; (mov r8, r8)

10003808 <Dictionary_632>:
10003808:	10003830 	andne	r3, r0, r0, lsr r8
1000380c:	63020010 	movwvs	r0, #8208	; 0x2010
10003810:	488e0022 	stmmi	lr, {r1, r5}

10003812 <Code_632>:
10003812:	488e      	ldr	r0, [pc, #568]	; (10003a4c <Code_665+0x98>)
10003814:	e7da      	b.n	100037cc <Code_626+0x2>

10003816 <dotcfuesschen>:
10003816:	3f04      	subs	r7, #4
10003818:	603e      	str	r6, [r7, #0]
1000381a:	4676      	mov	r6, lr
1000381c:	3e01      	subs	r6, #1
1000381e:	7833      	ldrb	r3, [r6, #0]
10003820:	2101      	movs	r1, #1
10003822:	3301      	adds	r3, #1
10003824:	4019      	ands	r1, r3
10003826:	185b      	adds	r3, r3, r1
10003828:	4671      	mov	r1, lr
1000382a:	18c9      	adds	r1, r1, r3
1000382c:	468e      	mov	lr, r1
1000382e:	4770      	bx	lr

10003830 <Dictionary_634>:
10003830:	1000385c 	andne	r3, r0, ip, asr r8
10003834:	73020010 	movwvc	r0, #8208	; 0x2010
10003838:	48850022 	stmmi	r5, {r1, r5}

1000383a <Code_634>:
1000383a:	4885      	ldr	r0, [pc, #532]	; (10003a50 <Code_665+0x9c>)
1000383c:	e7c6      	b.n	100037cc <Code_626+0x2>

1000383e <dotsfuesschen>:
1000383e:	3f04      	subs	r7, #4
10003840:	603e      	str	r6, [r7, #0]
10003842:	4676      	mov	r6, lr
10003844:	3f04      	subs	r7, #4
10003846:	603e      	str	r6, [r7, #0]
10003848:	3e01      	subs	r6, #1
1000384a:	7836      	ldrb	r6, [r6, #0]
1000384c:	2101      	movs	r1, #1
1000384e:	1c73      	adds	r3, r6, #1
10003850:	4019      	ands	r1, r3
10003852:	185b      	adds	r3, r3, r1
10003854:	4671      	mov	r1, lr
10003856:	18c9      	adds	r1, r1, r3
10003858:	468e      	mov	lr, r1
1000385a:	4770      	bx	lr

1000385c <Dictionary_638>:
1000385c:	10003874 	andne	r3, r0, r4, ror r8
10003860:	63050000 	movwvs	r0, #20480	; 0x5000
10003864:	746e756f 	strbtvc	r7, [lr], #-1391	; 0x56f

10003868 <Code_638>:
10003868:	3601      	adds	r6, #1
1000386a:	3f04      	subs	r7, #4
1000386c:	603e      	str	r6, [r7, #0]
1000386e:	3e01      	subs	r6, #1
10003870:	7836      	ldrb	r6, [r6, #0]
10003872:	4770      	bx	lr

10003874 <Dictionary_641>:
10003874:	1000389c 	mulne	r0, ip, r8
10003878:	63050000 	movwvs	r0, #20480	; 0x5000
1000387c:	65707974 	ldrbvs	r7, [r0, #-2420]!	; 0x974

10003880 <Code_641>:
10003880:	b501      	push	{r0, lr}
10003882:	7830      	ldrb	r0, [r6, #0]
10003884:	2800      	cmp	r0, #0
10003886:	d007      	beq.n	10003898 <Code_641+0x18>
10003888:	3601      	adds	r6, #1
1000388a:	3f04      	subs	r7, #4
1000388c:	603e      	str	r6, [r7, #0]
1000388e:	7836      	ldrb	r6, [r6, #0]
10003890:	f7ff fda0 	bl	100033d4 <Code_560>
10003894:	3801      	subs	r0, #1
10003896:	d1f7      	bne.n	10003888 <Code_641+0x8>
10003898:	cf40      	ldmia	r7!, {r6}
1000389a:	bd01      	pop	{r0, pc}

1000389c <Dictionary_645>:
1000389c:	100038cc 	andne	r3, r0, ip, asr #17
100038a0:	74040000 	strvc	r0, [r4]
100038a4:	00657079 	rsbeq	r7, r5, r9, ror r0

100038a8 <Code_645>:
100038a8:	0031      	movs	r1, r6
100038aa:	cf40      	ldmia	r7!, {r6}
100038ac:	0030      	movs	r0, r6
100038ae:	cf40      	ldmia	r7!, {r6}

100038b0 <stype_addr_r0_len_r1>:
100038b0:	b500      	push	{lr}
100038b2:	2900      	cmp	r1, #0
100038b4:	d008      	beq.n	100038c8 <stype_addr_r0_len_r1+0x18>
100038b6:	2200      	movs	r2, #0
100038b8:	3f04      	subs	r7, #4
100038ba:	603e      	str	r6, [r7, #0]
100038bc:	5c86      	ldrb	r6, [r0, r2]
100038be:	f7ff fd89 	bl	100033d4 <Code_560>
100038c2:	3201      	adds	r2, #1
100038c4:	4291      	cmp	r1, r2
100038c6:	d1f7      	bne.n	100038b8 <stype_addr_r0_len_r1+0x8>
100038c8:	bd00      	pop	{pc}
100038ca:	46c0      	nop			; (mov r8, r8)

100038cc <Dictionary_649>:
100038cc:	10003908 	andne	r3, r0, r8, lsl #18
100038d0:	68040000 	stmdavs	r4, {}	; <UNPREDICTABLE>
100038d4:	002e7865 	eoreq	r7, lr, r5, ror #16

100038d8 <Code_649>:
100038d8:	b507      	push	{r0, r1, r2, lr}
100038da:	0031      	movs	r1, r6
100038dc:	cf40      	ldmia	r7!, {r6}
100038de:	2020      	movs	r0, #32
100038e0:	220f      	movs	r2, #15
100038e2:	3804      	subs	r0, #4
100038e4:	3f04      	subs	r7, #4
100038e6:	603e      	str	r6, [r7, #0]
100038e8:	000e      	movs	r6, r1
100038ea:	40c6      	lsrs	r6, r0
100038ec:	4016      	ands	r6, r2
100038ee:	2e09      	cmp	r6, #9
100038f0:	d901      	bls.n	100038f6 <Code_649+0x1e>
100038f2:	3637      	adds	r6, #55	; 0x37
100038f4:	e000      	b.n	100038f8 <Code_649+0x20>
100038f6:	3630      	adds	r6, #48	; 0x30
100038f8:	f7ff fd6c 	bl	100033d4 <Code_560>
100038fc:	2800      	cmp	r0, #0
100038fe:	d1f0      	bne.n	100038e2 <Code_649+0xa>
10003900:	f7ff ff20 	bl	10003744 <Code_610>
10003904:	bd07      	pop	{r0, r1, r2, pc}
10003906:	46c0      	nop			; (mov r8, r8)

10003908 <Dictionary_652>:
10003908:	10003918 	andne	r3, r0, r8, lsl r9
1000390c:	68030000 	stmdavs	r3, {}	; <UNPREDICTABLE>
10003910:	b51f732e 	ldrlt	r7, [pc, #-814]	; 100035ea <Code_579+0x5c>

10003912 <Code_652>:
10003912:	b51f      	push	{r0, r1, r2, r3, r4, lr}
10003914:	4c4f      	ldr	r4, [pc, #316]	; (10003a54 <Code_665+0xa0>)
10003916:	e00e      	b.n	10003936 <Code_654+0x4>

10003918 <Dictionary_653>:
10003918:	10003928 	andne	r3, r0, r8, lsr #18
1000391c:	75030000 	strvc	r0, [r3]
10003920:	b51f732e 	ldrlt	r7, [pc, #-814]	; 100035fa <Dictionary_583+0x2>

10003922 <Code_653>:
10003922:	b51f      	push	{r0, r1, r2, r3, r4, lr}
10003924:	4c4c      	ldr	r4, [pc, #304]	; (10003a58 <Code_665+0xa4>)
10003926:	e006      	b.n	10003936 <Code_654+0x4>

10003928 <Dictionary_654>:
10003928:	100039a8 	andne	r3, r0, r8, lsr #19
1000392c:	2e020000 	cdpcs	0, 0, cr0, cr2, cr0, {0}
10003930:	b51f0073 	ldrlt	r0, [pc, #-115]	; 100038c5 <stype_addr_r0_len_r1+0x15>

10003932 <Code_654>:
10003932:	b51f      	push	{r0, r1, r2, r3, r4, lr}
10003934:	4c49      	ldr	r4, [pc, #292]	; (10003a5c <Code_665+0xa8>)
10003936:	494a      	ldr	r1, [pc, #296]	; (10003a60 <Code_665+0xac>)
10003938:	1bc9      	subs	r1, r1, r7
1000393a:	0889      	lsrs	r1, r1, #2
1000393c:	4a49      	ldr	r2, [pc, #292]	; (10003a64 <Code_665+0xb0>)
1000393e:	6810      	ldr	r0, [r2, #0]
10003940:	b403      	push	{r0, r1}
10003942:	200a      	movs	r0, #10
10003944:	6010      	str	r0, [r2, #0]
10003946:	f7ff ff4f 	bl	100037e8 <dotgaensefuesschen>
1000394a:	61745308 	cmnvs	r4, r8, lsl #6
1000394e:	203a6b63 	eorscs	r6, sl, r3, ror #22
10003952:	3f04005b 	svccc	0x0004005b
10003956:	603e      	str	r6, [r7, #0]
10003958:	000e      	movs	r6, r1
1000395a:	f001 fd65 	bl	10005428 <Code_1188>
1000395e:	f7ff ff43 	bl	100037e8 <dotgaensefuesschen>
10003962:	00205d02 	eoreq	r5, r0, r2, lsl #26
10003966:	bc03      	pop	{r0, r1}
10003968:	4a3e      	ldr	r2, [pc, #248]	; (10003a64 <Code_665+0xb0>)
1000396a:	6010      	str	r0, [r2, #0]
1000396c:	2900      	cmp	r1, #0
1000396e:	d00a      	beq.n	10003986 <Code_654+0x54>
10003970:	4a3d      	ldr	r2, [pc, #244]	; (10003a68 <Code_665+0xb4>)
10003972:	6810      	ldr	r0, [r2, #0]
10003974:	b406      	push	{r1, r2}
10003976:	3f04      	subs	r7, #4
10003978:	603e      	str	r6, [r7, #0]
1000397a:	0006      	movs	r6, r0
1000397c:	47a0      	blx	r4
1000397e:	bc06      	pop	{r1, r2}
10003980:	3a04      	subs	r2, #4
10003982:	3901      	subs	r1, #1
10003984:	d1f5      	bne.n	10003972 <Code_654+0x40>
10003986:	f7ff ff2f 	bl	100037e8 <dotgaensefuesschen>
1000398a:	4f542006 	svcmi	0x00542006
1000398e:	00203a53 	eoreq	r3, r0, r3, asr sl
10003992:	3f04      	subs	r7, #4
10003994:	603e      	str	r6, [r7, #0]
10003996:	0036      	movs	r6, r6
10003998:	47a0      	blx	r4
1000399a:	f7ff ff25 	bl	100037e8 <dotgaensefuesschen>
1000399e:	3e2a2004 	cdpcc	0, 2, cr2, cr10, cr4, {0}
100039a2:	bd1f000a 	ldclt	0, cr0, [pc, #-40]	; 10003980 <Code_654+0x4e>
100039a6:	46c0      	nop			; (mov r8, r8)

100039a8 <Dictionary_665>:
100039a8:	10003a6c 	andne	r3, r0, ip, ror #20
100039ac:	77050000 	strvc	r0, [r5, -r0]
100039b0:	7364726f 	cmnvc	r4, #-268435450	; 0xf0000006

100039b4 <Code_665>:
100039b4:	b500      	push	{lr}
100039b6:	f7ff ff17 	bl	100037e8 <dotgaensefuesschen>
100039ba:	f0000a01 			; <UNDEFINED> instruction: 0xf0000a01
100039be:	fed1 f7ff 	mrc2	7, 6, pc, cr1, cr15, {7}
100039c2:	ff12 4109 	vrhadd.u16	d4, d2, d9
100039c6:	65726464 	ldrbvs	r6, [r2, #-1124]!	; 0x464
100039ca:	203a7373 	eorscs	r7, sl, r3, ror r3
100039ce:	3f04      	subs	r7, #4
100039d0:	603e      	str	r6, [r7, #0]
100039d2:	f7ff ff81 	bl	100038d8 <Code_649>
100039d6:	f7ff ff07 	bl	100037e8 <dotgaensefuesschen>
100039da:	6e694c06 	cdpvs	12, 6, cr4, cr9, cr6, {0}
100039de:	00203a6b 	eoreq	r3, r0, fp, ror #20
100039e2:	3f04      	subs	r7, #4
100039e4:	603e      	str	r6, [r7, #0]
100039e6:	6836      	ldr	r6, [r6, #0]
100039e8:	f7ff ff76 	bl	100038d8 <Code_649>
100039ec:	f7ff fefc 	bl	100037e8 <dotgaensefuesschen>
100039f0:	616c4607 	cmnvs	ip, r7, lsl #12
100039f4:	203a7367 	eorscs	r7, sl, r7, ror #6
100039f8:	3f04      	subs	r7, #4
100039fa:	603e      	str	r6, [r7, #0]
100039fc:	88b6      	ldrh	r6, [r6, #4]
100039fe:	f7ff ff6b 	bl	100038d8 <Code_649>
10003a02:	f7ff fef1 	bl	100037e8 <dotgaensefuesschen>
10003a06:	646f4306 	strbtvs	r4, [pc], #-774	; 10003a0e <Code_665+0x5a>
10003a0a:	00203a65 	eoreq	r3, r0, r5, ror #20
10003a0e:	1db0      	adds	r0, r6, #6
10003a10:	f000 fee2 	bl	100047d8 <skipstring>
10003a14:	3f04      	subs	r7, #4
10003a16:	603e      	str	r6, [r7, #0]
10003a18:	0006      	movs	r6, r0
10003a1a:	f7ff ff5d 	bl	100038d8 <Code_649>
10003a1e:	f7ff fee3 	bl	100037e8 <dotgaensefuesschen>
10003a22:	6d614e06 	stclvs	14, cr4, [r1, #-24]!	; 0xffffffe8
10003a26:	00203a65 	eoreq	r3, r0, r5, ror #20
10003a2a:	3f04      	subs	r7, #4
10003a2c:	603e      	str	r6, [r7, #0]
10003a2e:	3606      	adds	r6, #6
10003a30:	f7ff ff26 	bl	10003880 <Code_641>
10003a34:	f7ff fed8 	bl	100037e8 <dotgaensefuesschen>
10003a38:	f0000a01 			; <UNDEFINED> instruction: 0xf0000a01
10003a3c:	feaa 0030 	mcr2	0, 5, r0, cr10, cr0, {1}
10003a40:	cf40      	ldmia	r7!, {r6}
10003a42:	d0bd      	beq.n	100039c0 <Code_665+0xc>
10003a44:	cf40      	ldmia	r7!, {r6}
10003a46:	bd00      	pop	{pc}
10003a48:	100037e8 	andne	r3, r0, r8, ror #15
10003a4c:	10003816 	andne	r3, r0, r6, lsl r8
10003a50:	1000383e 	andne	r3, r0, lr, lsr r8
10003a54:	100038d9 	ldrdne	r3, [r0], -r9
10003a58:	10005417 	andne	r5, r0, r7, lsl r4
10003a5c:	10005429 	andne	r5, r0, r9, lsr #8
10003a60:	20000480 	andcs	r0, r0, r0, lsl #9
10003a64:	20003ffc 	strdcs	r3, [r0], -ip
10003a68:	2000047c 	andcs	r0, r0, ip, ror r4

10003a6c <Dictionary_685>:
10003a6c:	10003bbc 			; <UNDEFINED> instruction: 0x10003bbc
10003a70:	72100000 	andsvc	r0, r0, #0
10003a74:	73696765 	cmnvc	r9, #26476544	; 0x1940000
10003a78:	6c726574 	cfldr64vs	mvdx6, [r2], #-464	; 0xfffffe30
10003a7c:	72657469 	rsbvc	r7, r5, #1761607680	; 0x69000000
10003a80:	002c6c61 	eoreq	r6, ip, r1, ror #24

10003a84 <Code_685>:
10003a84:	b53f      	push	{r0, r1, r2, r3, r4, r5, lr}
10003a86:	4bb8      	ldr	r3, [pc, #736]	; (10003d68 <builds_ram+0x2c>)
10003a88:	6838      	ldr	r0, [r7, #0]
10003a8a:	4018      	ands	r0, r3
10003a8c:	4298      	cmp	r0, r3
10003a8e:	d10f      	bne.n	10003ab0 <Code_685+0x2c>
10003a90:	6838      	ldr	r0, [r7, #0]
10003a92:	43c0      	mvns	r0, r0
10003a94:	6038      	str	r0, [r7, #0]
10003a96:	b440      	push	{r6}
10003a98:	f000 f80d 	bl	10003ab6 <registerliteralkomma_intern>
10003a9c:	3f04      	subs	r7, #4
10003a9e:	603e      	str	r6, [r7, #0]
10003aa0:	4eb2      	ldr	r6, [pc, #712]	; (10003d6c <builds_ram+0x30>)
10003aa2:	bc01      	pop	{r0}
10003aa4:	4306      	orrs	r6, r0
10003aa6:	00c0      	lsls	r0, r0, #3
10003aa8:	4306      	orrs	r6, r0
10003aaa:	f000 fbce 	bl	1000424a <Code_836>
10003aae:	bd3f      	pop	{r0, r1, r2, r3, r4, r5, pc}
10003ab0:	f000 f801 	bl	10003ab6 <registerliteralkomma_intern>
10003ab4:	bd3f      	pop	{r0, r1, r2, r3, r4, r5, pc}

10003ab6 <registerliteralkomma_intern>:
10003ab6:	b500      	push	{lr}
10003ab8:	0035      	movs	r5, r6
10003aba:	cf40      	ldmia	r7!, {r6}
10003abc:	0029      	movs	r1, r5
10003abe:	00c9      	lsls	r1, r1, #3
10003ac0:	4329      	orrs	r1, r5
10003ac2:	022d      	lsls	r5, r5, #8
10003ac4:	48aa      	ldr	r0, [pc, #680]	; (10003d70 <builds_ram+0x34>)
10003ac6:	4305      	orrs	r5, r0
10003ac8:	23ff      	movs	r3, #255	; 0xff
10003aca:	2200      	movs	r2, #0
10003acc:	0030      	movs	r0, r6
10003ace:	40d0      	lsrs	r0, r2
10003ad0:	4398      	bics	r0, r3
10003ad2:	d001      	beq.n	10003ad8 <registerliteralkomma_intern+0x22>
10003ad4:	3201      	adds	r2, #1
10003ad6:	e7f9      	b.n	10003acc <registerliteralkomma_intern+0x16>
10003ad8:	0030      	movs	r0, r6
10003ada:	40d0      	lsrs	r0, r2
10003adc:	4018      	ands	r0, r3
10003ade:	4328      	orrs	r0, r5
10003ae0:	3f04      	subs	r7, #4
10003ae2:	603e      	str	r6, [r7, #0]
10003ae4:	0006      	movs	r6, r0
10003ae6:	f000 fbb0 	bl	1000424a <Code_836>
10003aea:	48a2      	ldr	r0, [pc, #648]	; (10003d74 <builds_ram+0x38>)
10003aec:	4305      	orrs	r5, r0
10003aee:	0018      	movs	r0, r3
10003af0:	4090      	lsls	r0, r2
10003af2:	4386      	bics	r6, r0
10003af4:	d010      	beq.n	10003b18 <registerliteralkomma_intern+0x62>
10003af6:	2400      	movs	r4, #0
10003af8:	0030      	movs	r0, r6
10003afa:	40e0      	lsrs	r0, r4
10003afc:	4398      	bics	r0, r3
10003afe:	d001      	beq.n	10003b04 <registerliteralkomma_intern+0x4e>
10003b00:	3401      	adds	r4, #1
10003b02:	e7f9      	b.n	10003af8 <registerliteralkomma_intern+0x42>
10003b04:	1b10      	subs	r0, r2, r4
10003b06:	3f04      	subs	r7, #4
10003b08:	603e      	str	r6, [r7, #0]
10003b0a:	000e      	movs	r6, r1
10003b0c:	0180      	lsls	r0, r0, #6
10003b0e:	4306      	orrs	r6, r0
10003b10:	f000 fb9b 	bl	1000424a <Code_836>
10003b14:	0022      	movs	r2, r4
10003b16:	e7df      	b.n	10003ad8 <registerliteralkomma_intern+0x22>
10003b18:	2a00      	cmp	r2, #0
10003b1a:	d006      	beq.n	10003b2a <registerliteralkomma_intern+0x74>
10003b1c:	3f04      	subs	r7, #4
10003b1e:	603e      	str	r6, [r7, #0]
10003b20:	000e      	movs	r6, r1
10003b22:	0192      	lsls	r2, r2, #6
10003b24:	4316      	orrs	r6, r2
10003b26:	f000 fb90 	bl	1000424a <Code_836>
10003b2a:	cf40      	ldmia	r7!, {r6}
10003b2c:	bd00      	pop	{pc}

10003b2e <registerliteralkommalang>:
10003b2e:	b51f      	push	{r0, r1, r2, r3, r4, lr}
10003b30:	0031      	movs	r1, r6
10003b32:	cf40      	ldmia	r7!, {r6}
10003b34:	4c90      	ldr	r4, [pc, #576]	; (10003d78 <builds_ram+0x3c>)
10003b36:	430c      	orrs	r4, r1
10003b38:	00c9      	lsls	r1, r1, #3
10003b3a:	430c      	orrs	r4, r1
10003b3c:	0149      	lsls	r1, r1, #5
10003b3e:	0030      	movs	r0, r6
10003b40:	cf40      	ldmia	r7!, {r6}
10003b42:	0e02      	lsrs	r2, r0, #24
10003b44:	23ff      	movs	r3, #255	; 0xff
10003b46:	401a      	ands	r2, r3
10003b48:	4b89      	ldr	r3, [pc, #548]	; (10003d70 <builds_ram+0x34>)
10003b4a:	430b      	orrs	r3, r1
10003b4c:	4313      	orrs	r3, r2
10003b4e:	3f04      	subs	r7, #4
10003b50:	603e      	str	r6, [r7, #0]
10003b52:	001e      	movs	r6, r3
10003b54:	f000 fb79 	bl	1000424a <Code_836>
10003b58:	3f04      	subs	r7, #4
10003b5a:	603e      	str	r6, [r7, #0]
10003b5c:	0026      	movs	r6, r4
10003b5e:	f000 fb74 	bl	1000424a <Code_836>
10003b62:	0c02      	lsrs	r2, r0, #16
10003b64:	23ff      	movs	r3, #255	; 0xff
10003b66:	401a      	ands	r2, r3
10003b68:	4b84      	ldr	r3, [pc, #528]	; (10003d7c <builds_ram+0x40>)
10003b6a:	430b      	orrs	r3, r1
10003b6c:	4313      	orrs	r3, r2
10003b6e:	3f04      	subs	r7, #4
10003b70:	603e      	str	r6, [r7, #0]
10003b72:	001e      	movs	r6, r3
10003b74:	f000 fb69 	bl	1000424a <Code_836>
10003b78:	3f04      	subs	r7, #4
10003b7a:	603e      	str	r6, [r7, #0]
10003b7c:	0026      	movs	r6, r4
10003b7e:	f000 fb64 	bl	1000424a <Code_836>
10003b82:	0a02      	lsrs	r2, r0, #8
10003b84:	23ff      	movs	r3, #255	; 0xff
10003b86:	401a      	ands	r2, r3
10003b88:	4b7c      	ldr	r3, [pc, #496]	; (10003d7c <builds_ram+0x40>)
10003b8a:	430b      	orrs	r3, r1
10003b8c:	4313      	orrs	r3, r2
10003b8e:	3f04      	subs	r7, #4
10003b90:	603e      	str	r6, [r7, #0]
10003b92:	001e      	movs	r6, r3
10003b94:	f000 fb59 	bl	1000424a <Code_836>
10003b98:	3f04      	subs	r7, #4
10003b9a:	603e      	str	r6, [r7, #0]
10003b9c:	0026      	movs	r6, r4
10003b9e:	f000 fb54 	bl	1000424a <Code_836>
10003ba2:	0002      	movs	r2, r0
10003ba4:	23ff      	movs	r3, #255	; 0xff
10003ba6:	401a      	ands	r2, r3
10003ba8:	4b74      	ldr	r3, [pc, #464]	; (10003d7c <builds_ram+0x40>)
10003baa:	430b      	orrs	r3, r1
10003bac:	4313      	orrs	r3, r2
10003bae:	3f04      	subs	r7, #4
10003bb0:	603e      	str	r6, [r7, #0]
10003bb2:	001e      	movs	r6, r3
10003bb4:	f000 fb49 	bl	1000424a <Code_836>
10003bb8:	bd1f      	pop	{r0, r1, r2, r3, r4, pc}
10003bba:	46c0      	nop			; (mov r8, r8)

10003bbc <Dictionary_712>:
10003bbc:	10003c2c 	andne	r3, r0, ip, lsr #24
10003bc0:	63050000 	movwvs	r0, #20480	; 0x5000
10003bc4:	2c6c6c61 	stclcs	12, cr6, [ip], #-388	; 0xfffffe7c

10003bc8 <Code_712>:
10003bc8:	b50f      	push	{r0, r1, r2, r3, lr}
10003bca:	0033      	movs	r3, r6
10003bcc:	f000 feaa 	bl	10004924 <Code_954>
10003bd0:	0030      	movs	r0, r6
10003bd2:	cf40      	ldmia	r7!, {r6}
10003bd4:	1a1b      	subs	r3, r3, r0
10003bd6:	3b04      	subs	r3, #4
10003bd8:	4969      	ldr	r1, [pc, #420]	; (10003d80 <builds_ram+0x44>)
10003bda:	4019      	ands	r1, r3
10003bdc:	2900      	cmp	r1, #0
10003bde:	d00e      	beq.n	10003bfe <Code_712+0x36>
10003be0:	4a68      	ldr	r2, [pc, #416]	; (10003d84 <builds_ram+0x48>)
10003be2:	4291      	cmp	r1, r2
10003be4:	d00b      	beq.n	10003bfe <Code_712+0x36>
10003be6:	3601      	adds	r6, #1
10003be8:	3f04      	subs	r7, #4
10003bea:	603e      	str	r6, [r7, #0]
10003bec:	2600      	movs	r6, #0
10003bee:	f7ff ff49 	bl	10003a84 <Code_685>
10003bf2:	3f04      	subs	r7, #4
10003bf4:	603e      	str	r6, [r7, #0]
10003bf6:	4e64      	ldr	r6, [pc, #400]	; (10003d88 <builds_ram+0x4c>)
10003bf8:	f000 fb27 	bl	1000424a <Code_836>
10003bfc:	bd0f      	pop	{r0, r1, r2, r3, pc}
10003bfe:	cf40      	ldmia	r7!, {r6}
10003c00:	085b      	lsrs	r3, r3, #1
10003c02:	4862      	ldr	r0, [pc, #392]	; (10003d8c <builds_ram+0x50>)
10003c04:	4962      	ldr	r1, [pc, #392]	; (10003d90 <builds_ram+0x54>)
10003c06:	4019      	ands	r1, r3
10003c08:	4308      	orrs	r0, r1
10003c0a:	0adb      	lsrs	r3, r3, #11
10003c0c:	4961      	ldr	r1, [pc, #388]	; (10003d94 <builds_ram+0x58>)
10003c0e:	4019      	ands	r1, r3
10003c10:	0409      	lsls	r1, r1, #16
10003c12:	4308      	orrs	r0, r1
10003c14:	0a9b      	lsrs	r3, r3, #10
10003c16:	2101      	movs	r1, #1
10003c18:	4019      	ands	r1, r3
10003c1a:	0689      	lsls	r1, r1, #26
10003c1c:	4308      	orrs	r0, r1
10003c1e:	3f04      	subs	r7, #4
10003c20:	603e      	str	r6, [r7, #0]
10003c22:	0006      	movs	r6, r0
10003c24:	f000 fb41 	bl	100042aa <Code_845>
10003c28:	bd0f      	pop	{r0, r1, r2, r3, pc}
10003c2a:	46c0      	nop			; (mov r8, r8)

10003c2c <Dictionary_721>:
10003c2c:	10003c60 	andne	r3, r0, r0, ror #24
10003c30:	6c080000 	stcvs	0, cr0, [r8], {0}
10003c34:	72657469 	rsbvc	r7, r5, #1761607680	; 0x69000000
10003c38:	002c6c61 	eoreq	r6, ip, r1, ror #24

10003c3c <Code_721>:
10003c3c:	b500      	push	{lr}
10003c3e:	3f04      	subs	r7, #4
10003c40:	603e      	str	r6, [r7, #0]
10003c42:	4e55      	ldr	r6, [pc, #340]	; (10003d98 <builds_ram+0x5c>)
10003c44:	f000 fb01 	bl	1000424a <Code_836>
10003c48:	3f04      	subs	r7, #4
10003c4a:	603e      	str	r6, [r7, #0]
10003c4c:	4e53      	ldr	r6, [pc, #332]	; (10003d9c <builds_ram+0x60>)
10003c4e:	f000 fafc 	bl	1000424a <Code_836>
10003c52:	3f04      	subs	r7, #4
10003c54:	603e      	str	r6, [r7, #0]
10003c56:	2606      	movs	r6, #6
10003c58:	f7ff ff14 	bl	10003a84 <Code_685>
10003c5c:	bd00      	pop	{pc}
10003c5e:	46c0      	nop			; (mov r8, r8)

10003c60 <Dictionary_728>:
10003c60:	10003c90 	mulne	r0, r0, ip
10003c64:	63060000 	movwvs	r0, #24576	; 0x6000
10003c68:	74616572 	strbtvc	r6, [r1], #-1394	; 0x572
10003c6c:	b5000065 	strlt	r0, [r0, #-101]	; 0x65

10003c6e <Code_728>:
10003c6e:	b500      	push	{lr}
10003c70:	f000 f84f 	bl	10003d12 <Code_737>
10003c74:	2010      	movs	r0, #16
10003c76:	0200      	lsls	r0, r0, #8
10003c78:	3000      	adds	r0, #0
10003c7a:	0200      	lsls	r0, r0, #8
10003c7c:	303c      	adds	r0, #60	; 0x3c
10003c7e:	0200      	lsls	r0, r0, #8
10003c80:	30b7      	adds	r0, #183	; 0xb7
10003c82:	4780      	blx	r0
10003c84:	3f04      	subs	r7, #4
10003c86:	603e      	str	r6, [r7, #0]
10003c88:	4676      	mov	r6, lr
10003c8a:	3e01      	subs	r6, #1
10003c8c:	bd00      	pop	{pc}
10003c8e:	46c0      	nop			; (mov r8, r8)

10003c90 <Dictionary_730>:
10003c90:	10003d04 	andne	r3, r0, r4, lsl #26
10003c94:	64050020 	strvs	r0, [r5], #-32
10003c98:	3e73656f 	cdpcc	5, 7, cr6, cr3, cr15, {3}

10003c9c <Code_730>:
10003c9c:	2010      	movs	r0, #16
10003c9e:	0200      	lsls	r0, r0, #8
10003ca0:	3000      	adds	r0, #0
10003ca2:	0200      	lsls	r0, r0, #8
10003ca4:	303c      	adds	r0, #60	; 0x3c
10003ca6:	0200      	lsls	r0, r0, #8
10003ca8:	30b7      	adds	r0, #183	; 0xb7
10003caa:	4780      	blx	r0
10003cac:	3f04      	subs	r7, #4
10003cae:	603e      	str	r6, [r7, #0]
10003cb0:	4676      	mov	r6, lr
10003cb2:	3e01      	subs	r6, #1
10003cb4:	4770      	bx	lr

10003cb6 <dodoes>:
10003cb6:	3f04      	subs	r7, #4
10003cb8:	603e      	str	r6, [r7, #0]
10003cba:	4676      	mov	r6, lr
10003cbc:	3e01      	subs	r6, #1
10003cbe:	4a38      	ldr	r2, [pc, #224]	; (10003da0 <builds_ram+0x64>)
10003cc0:	6813      	ldr	r3, [r2, #0]
10003cc2:	4938      	ldr	r1, [pc, #224]	; (10003da4 <builds_ram+0x68>)
10003cc4:	6809      	ldr	r1, [r1, #0]
10003cc6:	4838      	ldr	r0, [pc, #224]	; (10003da8 <builds_ram+0x6c>)
10003cc8:	4283      	cmp	r3, r0
10003cca:	d205      	bcs.n	10003cd8 <dodoes_ram>
10003ccc:	200f      	movs	r0, #15
10003cce:	4008      	ands	r0, r1
10003cd0:	280e      	cmp	r0, #14
10003cd2:	d005      	beq.n	10003ce0 <dodoes_ram+0x8>
10003cd4:	3102      	adds	r1, #2
10003cd6:	e7f9      	b.n	10003ccc <dodoes+0x16>

10003cd8 <dodoes_ram>:
10003cd8:	2002      	movs	r0, #2
10003cda:	4008      	ands	r0, r1
10003cdc:	d100      	bne.n	10003ce0 <dodoes_ram+0x8>
10003cde:	3102      	adds	r1, #2
10003ce0:	3102      	adds	r1, #2
10003ce2:	6011      	str	r1, [r2, #0]
10003ce4:	3601      	adds	r6, #1
10003ce6:	3f04      	subs	r7, #4
10003ce8:	603e      	str	r6, [r7, #0]
10003cea:	2600      	movs	r6, #0
10003cec:	f7ff ff1f 	bl	10003b2e <registerliteralkommalang>
10003cf0:	3f04      	subs	r7, #4
10003cf2:	603e      	str	r6, [r7, #0]
10003cf4:	4e24      	ldr	r6, [pc, #144]	; (10003d88 <builds_ram+0x4c>)
10003cf6:	f000 faa8 	bl	1000424a <Code_836>
10003cfa:	6013      	str	r3, [r2, #0]
10003cfc:	f000 f9ff 	bl	100040fe <Code_820>
10003d00:	bd00      	pop	{pc}
10003d02:	46c0      	nop			; (mov r8, r8)

10003d04 <Dictionary_737>:
10003d04:	10003db0 			; <UNDEFINED> instruction: 0x10003db0
10003d08:	3c070000 	stccc	0, cr0, [r7], {0}
10003d0c:	6c697562 	cfstr64vs	mvdx7, [r9], #-392	; 0xfffffe78
10003d10:	b5007364 	strlt	r7, [r0, #-868]	; 0x364

10003d12 <Code_737>:
10003d12:	b500      	push	{lr}
10003d14:	f000 fba8 	bl	10004468 <Code_867>
10003d18:	4821      	ldr	r0, [pc, #132]	; (10003da0 <builds_ram+0x64>)
10003d1a:	6801      	ldr	r1, [r0, #0]
10003d1c:	4a22      	ldr	r2, [pc, #136]	; (10003da8 <builds_ram+0x6c>)
10003d1e:	4291      	cmp	r1, r2
10003d20:	d20c      	bcs.n	10003d3c <builds_ram>
10003d22:	f000 fdff 	bl	10004924 <Code_954>
10003d26:	200f      	movs	r0, #15
10003d28:	4006      	ands	r6, r0
10003d2a:	2e0e      	cmp	r6, #14
10003d2c:	cf40      	ldmia	r7!, {r6}
10003d2e:	d010      	beq.n	10003d52 <builds_ram+0x16>
10003d30:	3f04      	subs	r7, #4
10003d32:	603e      	str	r6, [r7, #0]
10003d34:	2636      	movs	r6, #54	; 0x36
10003d36:	f000 fa88 	bl	1000424a <Code_836>
10003d3a:	e7f2      	b.n	10003d22 <Code_737+0x10>

10003d3c <builds_ram>:
10003d3c:	f000 fdf2 	bl	10004924 <Code_954>
10003d40:	2002      	movs	r0, #2
10003d42:	4006      	ands	r6, r0
10003d44:	cf40      	ldmia	r7!, {r6}
10003d46:	d104      	bne.n	10003d52 <builds_ram+0x16>
10003d48:	3f04      	subs	r7, #4
10003d4a:	603e      	str	r6, [r7, #0]
10003d4c:	2636      	movs	r6, #54	; 0x36
10003d4e:	f000 fa7c 	bl	1000424a <Code_836>
10003d52:	3f04      	subs	r7, #4
10003d54:	603e      	str	r6, [r7, #0]
10003d56:	4e15      	ldr	r6, [pc, #84]	; (10003dac <builds_ram+0x70>)
10003d58:	f000 fa77 	bl	1000424a <Code_836>
10003d5c:	3f04      	subs	r7, #4
10003d5e:	603e      	str	r6, [r7, #0]
10003d60:	2610      	movs	r6, #16
10003d62:	f000 fae5 	bl	10004330 <Code_856>
10003d66:	bd00      	pop	{pc}
10003d68:	ffff0000 			; <UNDEFINED> instruction: 0xffff0000
10003d6c:	000043c0 	andeq	r4, r0, r0, asr #7
10003d70:	00002000 	andeq	r2, r0, r0
10003d74:	00001000 	andeq	r1, r0, r0
10003d78:	00000200 	andeq	r0, r0, r0, lsl #4
10003d7c:	00003000 	andeq	r3, r0, r0
10003d80:	ffc00001 			; <UNDEFINED> instruction: 0xffc00001
10003d84:	ffc00000 			; <UNDEFINED> instruction: 0xffc00000
10003d88:	00004780 	andeq	r4, r0, r0, lsl #15
10003d8c:	f000f800 			; <UNDEFINED> instruction: 0xf000f800
10003d90:	000007ff 	strdeq	r0, [r0], -pc	; <UNPREDICTABLE>
10003d94:	000003ff 	strdeq	r0, [r0], -pc	; <UNPREDICTABLE>
10003d98:	00003f04 	andeq	r3, r0, r4, lsl #30
10003d9c:	0000603e 	andeq	r6, r0, lr, lsr r0
10003da0:	200000f4 	strdcs	r0, [r0], -r4
10003da4:	20000108 	andcs	r0, r0, r8, lsl #2
10003da8:	200000f4 	strdcs	r0, [r0], -r4
10003dac:	0000b500 	andeq	fp, r0, r0, lsl #10

10003db0 <Dictionary_748>:
10003db0:	10003dbc 			; <UNDEFINED> instruction: 0x10003dbc
10003db4:	5b030050 	blpl	100c3efc <FlashDictionaryEnde+0xb2efc>
10003db8:	e0035d27 	and	r5, r3, r7, lsr #26

10003dba <Code_748>:
10003dba:	e003      	b.n	10003dc4 <Code_749>

10003dbc <Dictionary_749>:
10003dbc:	10003dd4 	ldrdne	r3, [r0], -r4
10003dc0:	27010000 	strcs	r0, [r1, -r0]

10003dc4 <Code_749>:
10003dc4:	b500      	push	{lr}
10003dc6:	f001 f947 	bl	10005058 <Code_1120>
10003dca:	f000 fd44 	bl	10004856 <find_not_found>
10003dce:	0030      	movs	r0, r6
10003dd0:	cf40      	ldmia	r7!, {r6}
10003dd2:	bd00      	pop	{pc}

10003dd4 <Dictionary_751>:
10003dd4:	10003e0c 	andne	r3, r0, ip, lsl #28
10003dd8:	70080030 	andvc	r0, r8, r0, lsr r0
10003ddc:	7074736f 	rsbsvc	r7, r4, pc, ror #6
10003de0:	00656e6f 	rsbeq	r6, r5, pc, ror #28

10003de4 <Code_751>:
10003de4:	b500      	push	{lr}
10003de6:	f7ff ffed 	bl	10003dc4 <Code_749>
10003dea:	3f04      	subs	r7, #4
10003dec:	603e      	str	r6, [r7, #0]
10003dee:	0006      	movs	r6, r0
10003df0:	6839      	ldr	r1, [r7, #0]
10003df2:	603e      	str	r6, [r7, #0]
10003df4:	460e      	mov	r6, r1
10003df6:	f7ff ff21 	bl	10003c3c <Code_721>
10003dfa:	f7ff ff1f 	bl	10003c3c <Code_721>
10003dfe:	3f04      	subs	r7, #4
10003e00:	603e      	str	r6, [r7, #0]
10003e02:	4ee5      	ldr	r6, [pc, #916]	; (10004198 <setflags_ram+0x1c>)
10003e04:	f7ff fee0 	bl	10003bc8 <Code_712>
10003e08:	bd00      	pop	{pc}
10003e0a:	46c0      	nop			; (mov r8, r8)

10003e0c <Dictionary_756>:
10003e0c:	10003e58 	andne	r3, r0, r8, asr lr
10003e10:	69070000 	stmdbvs	r7, {}	; <UNPREDICTABLE>
10003e14:	6e696c6e 	cdpvs	12, 6, cr6, cr9, cr14, {3}
10003e18:	b5002c65 	strlt	r2, [r0, #-3173]	; 0xc65

10003e1a <Code_756>:
10003e1a:	b500      	push	{lr}
10003e1c:	49df      	ldr	r1, [pc, #892]	; (1000419c <setflags_ram+0x20>)
10003e1e:	4ae0      	ldr	r2, [pc, #896]	; (100041a0 <setflags_ram+0x24>)
10003e20:	4be0      	ldr	r3, [pc, #896]	; (100041a4 <setflags_ram+0x28>)
10003e22:	8830      	ldrh	r0, [r6, #0]
10003e24:	4288      	cmp	r0, r1
10003e26:	d008      	beq.n	10003e3a <Code_756+0x20>
10003e28:	4290      	cmp	r0, r2
10003e2a:	d008      	beq.n	10003e3e <Code_756+0x24>
10003e2c:	4298      	cmp	r0, r3
10003e2e:	d006      	beq.n	10003e3e <Code_756+0x24>
10003e30:	3f04      	subs	r7, #4
10003e32:	603e      	str	r6, [r7, #0]
10003e34:	0006      	movs	r6, r0
10003e36:	f000 fa08 	bl	1000424a <Code_836>
10003e3a:	3602      	adds	r6, #2
10003e3c:	e7f1      	b.n	10003e22 <Code_756+0x8>
10003e3e:	cf40      	ldmia	r7!, {r6}
10003e40:	bd00      	pop	{pc}

10003e42 <suchedefinitionsende>:
10003e42:	b40e      	push	{r1, r2, r3}
10003e44:	4ad6      	ldr	r2, [pc, #856]	; (100041a0 <setflags_ram+0x24>)
10003e46:	4bd7      	ldr	r3, [pc, #860]	; (100041a4 <setflags_ram+0x28>)
10003e48:	8801      	ldrh	r1, [r0, #0]
10003e4a:	3002      	adds	r0, #2
10003e4c:	4291      	cmp	r1, r2
10003e4e:	d001      	beq.n	10003e54 <suchedefinitionsende+0x12>
10003e50:	4299      	cmp	r1, r3
10003e52:	d1f9      	bne.n	10003e48 <suchedefinitionsende+0x6>
10003e54:	bc0e      	pop	{r1, r2, r3}
10003e56:	4770      	bx	lr

10003e58 <Dictionary_760>:
10003e58:	10003e6c 	andne	r3, r0, ip, ror #28
10003e5c:	72040000 	andvc	r0, r4, #0
10003e60:	002c7465 	eoreq	r7, ip, r5, ror #8

10003e64 <Code_760>:
10003e64:	3f04      	subs	r7, #4
10003e66:	603e      	str	r6, [r7, #0]
10003e68:	4ecd      	ldr	r6, [pc, #820]	; (100041a0 <setflags_ram+0x24>)
10003e6a:	e1ee      	b.n	1000424a <Code_836>

10003e6c <Dictionary_763>:
10003e6c:	10003e7c 	andne	r3, r0, ip, ror lr
10003e70:	65040030 	strvs	r0, [r4, #-48]	; 0x30
10003e74:	00746978 	rsbseq	r6, r4, r8, ror r9

10003e78 <Code_763>:
10003e78:	e7f4      	b.n	10003e64 <Code_760>
10003e7a:	46c0      	nop			; (mov r8, r8)

10003e7c <Dictionary_764>:
10003e7c:	10003e94 	mulne	r0, r4, lr
10003e80:	72070030 	andvc	r0, r7, #48	; 0x30
10003e84:	72756365 	rsbsvc	r6, r5, #-1811939327	; 0x94000001
10003e88:	3f046573 	svccc	0x00046573

10003e8a <Code_764>:
10003e8a:	3f04      	subs	r7, #4
10003e8c:	603e      	str	r6, [r7, #0]
10003e8e:	4ec6      	ldr	r6, [pc, #792]	; (100041a8 <setflags_ram+0x2c>)
10003e90:	6836      	ldr	r6, [r6, #0]
10003e92:	e699      	b.n	10003bc8 <Code_712>

10003e94 <Dictionary_766>:
10003e94:	10003eac 	andne	r3, r0, ip, lsr #29
10003e98:	73050081 	movwvc	r0, #20609	; 0x5081
10003e9c:	65746174 	ldrbvs	r6, [r4, #-372]!	; 0x174

10003ea0 <Code_766>:
10003ea0:	3f04      	subs	r7, #4
10003ea2:	603e      	str	r6, [r7, #0]
10003ea4:	4ec1      	ldr	r6, [pc, #772]	; (100041ac <setflags_ram+0x30>)
10003ea6:	4770      	bx	lr
10003ea8:	00000000 	andeq	r0, r0, r0

10003eac <Dictionary_769>:
10003eac:	10003ec0 	andne	r3, r0, r0, asr #29
10003eb0:	5d010000 	stcpl	0, cr0, [r1]

10003eb4 <Code_769>:
10003eb4:	48bd      	ldr	r0, [pc, #756]	; (100041ac <setflags_ram+0x30>)
10003eb6:	2100      	movs	r1, #0
10003eb8:	43c9      	mvns	r1, r1
10003eba:	6001      	str	r1, [r0, #0]
10003ebc:	4770      	bx	lr
10003ebe:	46c0      	nop			; (mov r8, r8)

10003ec0 <Dictionary_770>:
10003ec0:	10003ed0 	ldrdne	r3, [r0], -r0
10003ec4:	5b010010 	blpl	10043f0c <FlashDictionaryEnde+0x32f0c>

10003ec8 <Code_770>:
10003ec8:	48b8      	ldr	r0, [pc, #736]	; (100041ac <setflags_ram+0x30>)
10003eca:	2100      	movs	r1, #0
10003ecc:	6001      	str	r1, [r0, #0]
10003ece:	4770      	bx	lr

10003ed0 <Dictionary_771>:
10003ed0:	10003ef0 	strdne	r3, [r0], -r0
10003ed4:	3a010000 	bcc	10043edc <FlashDictionaryEnde+0x32edc>

10003ed8 <Code_771>:
10003ed8:	b500      	push	{lr}
10003eda:	48b5      	ldr	r0, [pc, #724]	; (100041b0 <setflags_ram+0x34>)
10003edc:	6007      	str	r7, [r0, #0]
10003ede:	f000 fac3 	bl	10004468 <Code_867>
10003ee2:	48b2      	ldr	r0, [pc, #712]	; (100041ac <setflags_ram+0x30>)
10003ee4:	2101      	movs	r1, #1
10003ee6:	6001      	str	r1, [r0, #0]
10003ee8:	48b2      	ldr	r0, [pc, #712]	; (100041b4 <setflags_ram+0x38>)
10003eea:	2100      	movs	r1, #0
10003eec:	6001      	str	r1, [r0, #0]
10003eee:	bd00      	pop	{pc}

10003ef0 <Dictionary_772>:
10003ef0:	10003f5c 	andne	r3, r0, ip, asr pc
10003ef4:	3b010830 	blcc	10045fbc <FlashDictionaryEnde+0x34fbc>

10003ef8 <Code_772>:
10003ef8:	b500      	push	{lr}
10003efa:	48ad      	ldr	r0, [pc, #692]	; (100041b0 <setflags_ram+0x34>)
10003efc:	6801      	ldr	r1, [r0, #0]
10003efe:	42b9      	cmp	r1, r7
10003f00:	d00e      	beq.n	10003f20 <Code_772+0x28>
10003f02:	f7ff fc71 	bl	100037e8 <dotgaensefuesschen>
10003f06:	74532015 	ldrbvc	r2, [r3], #-21
10003f0a:	206b6361 	rsbcs	r6, fp, r1, ror #6
10003f0e:	20746f6e 	rsbscs	r6, r4, lr, ror #30
10003f12:	616c6162 	cmnvs	ip, r2, ror #2
10003f16:	6465636e 	strbtvs	r6, [r5], #-878	; 0x36e
10003f1a:	f0010a2e 			; <UNDEFINED> instruction: 0xf0010a2e
10003f1e:	fc1a 48a2 	ldc2	8, cr4, [sl], {162}	; 0xa2
10003f22:	6800      	ldr	r0, [r0, #0]
10003f24:	1c41      	adds	r1, r0, #1
10003f26:	d00e      	beq.n	10003f46 <Code_772+0x4e>
10003f28:	280b      	cmp	r0, #11
10003f2a:	d804      	bhi.n	10003f36 <Code_772+0x3e>
10003f2c:	3f04      	subs	r7, #4
10003f2e:	603e      	str	r6, [r7, #0]
10003f30:	4ea1      	ldr	r6, [pc, #644]	; (100041b8 <setflags_ram+0x3c>)
10003f32:	f000 f917 	bl	10004164 <Code_826>
10003f36:	3f04      	subs	r7, #4
10003f38:	603e      	str	r6, [r7, #0]
10003f3a:	4e9a      	ldr	r6, [pc, #616]	; (100041a4 <setflags_ram+0x28>)
10003f3c:	f000 f985 	bl	1000424a <Code_836>
10003f40:	f001 fb0f 	bl	10005562 <inline_cache_schreiben>
10003f44:	e004      	b.n	10003f50 <Code_772+0x58>
10003f46:	3f04      	subs	r7, #4
10003f48:	603e      	str	r6, [r7, #0]
10003f4a:	4e95      	ldr	r6, [pc, #596]	; (100041a0 <setflags_ram+0x24>)
10003f4c:	f000 f97d 	bl	1000424a <Code_836>
10003f50:	f000 f8d5 	bl	100040fe <Code_820>
10003f54:	4895      	ldr	r0, [pc, #596]	; (100041ac <setflags_ram+0x30>)
10003f56:	2100      	movs	r1, #0
10003f58:	6001      	str	r1, [r0, #0]
10003f5a:	bd00      	pop	{pc}

10003f5c <Dictionary_780>:
10003f5c:	10003f70 	andne	r3, r0, r0, ror pc
10003f60:	65070000 	strvs	r0, [r7]
10003f64:	75636578 	strbvc	r6, [r3, #-1400]!	; 0x578
10003f68:	00306574 	eorseq	r6, r0, r4, ror r5

10003f6a <Code_780>:
10003f6a:	0030      	movs	r0, r6
10003f6c:	cf40      	ldmia	r7!, {r6}
10003f6e:	4687      	mov	pc, r0

10003f70 <Dictionary_782>:
10003f70:	10003f88 	andne	r3, r0, r8, lsl #31
10003f74:	69090010 	stmdbvs	r9, {r4}
10003f78:	64656d6d 	strbtvs	r6, [r5], #-3437	; 0xd6d
10003f7c:	65746169 	ldrbvs	r6, [r4, #-361]!	; 0x169

10003f80 <Code_782>:
10003f80:	3f04      	subs	r7, #4
10003f82:	603e      	str	r6, [r7, #0]
10003f84:	2610      	movs	r6, #16
10003f86:	e0ed      	b.n	10004164 <Code_826>

10003f88 <Dictionary_785>:
10003f88:	10003fa0 	andne	r3, r0, r0, lsr #31
10003f8c:	69060050 	stmdbvs	r6, {r4, r6}
10003f90:	6e696c6e 	cdpvs	12, 6, cr6, cr9, cr14, {3}
10003f94:	3f040065 	svccc	0x00040065

10003f96 <Code_785>:
10003f96:	3f04      	subs	r7, #4
10003f98:	603e      	str	r6, [r7, #0]
10003f9a:	2620      	movs	r6, #32
10003f9c:	e0e2      	b.n	10004164 <Code_826>
10003f9e:	46c0      	nop			; (mov r8, r8)

10003fa0 <Dictionary_788>:
10003fa0:	10003fbc 			; <UNDEFINED> instruction: 0x10003fbc
10003fa4:	630b0010 	movwvs	r0, #45072	; 0xb010
10003fa8:	69706d6f 	ldmdbvs	r0!, {r0, r1, r2, r3, r5, r6, r8, sl, fp, sp, lr}^
10003fac:	6e6f656c 	cdpvs	5, 6, cr6, cr15, cr12, {3}
10003fb0:	3f04796c 	svccc	0x0004796c

10003fb2 <Code_788>:
10003fb2:	3f04      	subs	r7, #4
10003fb4:	603e      	str	r6, [r7, #0]
10003fb6:	2630      	movs	r6, #48	; 0x30
10003fb8:	e0d4      	b.n	10004164 <Code_826>
10003fba:	46c0      	nop			; (mov r8, r8)

10003fbc <Dictionary_791>:
10003fbc:	10003fd8 	ldrdne	r3, [r0], -r8
10003fc0:	300a0050 	andcc	r0, sl, r0, asr r0
10003fc4:	6c6f662d 	stclvs	6, cr6, [pc], #-180	; 10003f18 <Code_772+0x20>
10003fc8:	6c626164 	stfvse	f6, [r2], #-400	; 0xfffffe70
10003fcc:	3f040065 	svccc	0x00040065

10003fce <Code_791>:
10003fce:	3f04      	subs	r7, #4
10003fd0:	603e      	str	r6, [r7, #0]
10003fd2:	2640      	movs	r6, #64	; 0x40
10003fd4:	e0c6      	b.n	10004164 <Code_826>
10003fd6:	46c0      	nop			; (mov r8, r8)

10003fd8 <Dictionary_794>:
10003fd8:	10003ff4 	strdne	r3, [r0], -r4
10003fdc:	310a0050 	qaddcc	r0, r0, sl
10003fe0:	6c6f662d 	stclvs	6, cr6, [pc], #-180	; 10003f34 <Code_772+0x3c>
10003fe4:	6c626164 	stfvse	f6, [r2], #-400	; 0xfffffe70
10003fe8:	3f040065 	svccc	0x00040065

10003fea <Code_794>:
10003fea:	3f04      	subs	r7, #4
10003fec:	603e      	str	r6, [r7, #0]
10003fee:	2641      	movs	r6, #65	; 0x41
10003ff0:	e0b8      	b.n	10004164 <Code_826>
10003ff2:	46c0      	nop			; (mov r8, r8)

10003ff4 <Dictionary_797>:
10003ff4:	10004010 	andne	r4, r0, r0, lsl r0
10003ff8:	320a0050 	andcc	r0, sl, #80	; 0x50
10003ffc:	6c6f662d 	stclvs	6, cr6, [pc], #-180	; 10003f50 <Code_772+0x58>
10004000:	6c626164 	stfvse	f6, [r2], #-400	; 0xfffffe70
10004004:	3f040065 	svccc	0x00040065

10004006 <Code_797>:
10004006:	3f04      	subs	r7, #4
10004008:	603e      	str	r6, [r7, #0]
1000400a:	2642      	movs	r6, #66	; 0x42
1000400c:	e0aa      	b.n	10004164 <Code_826>
1000400e:	46c0      	nop			; (mov r8, r8)

10004010 <Dictionary_800>:
10004010:	1000402c 	andne	r4, r0, ip, lsr #32
10004014:	330a0050 	movwcc	r0, #41040	; 0xa050
10004018:	6c6f662d 	stclvs	6, cr6, [pc], #-180	; 10003f6c <Code_780+0x2>
1000401c:	6c626164 	stfvse	f6, [r2], #-400	; 0xfffffe70
10004020:	3f040065 	svccc	0x00040065

10004022 <Code_800>:
10004022:	3f04      	subs	r7, #4
10004024:	603e      	str	r6, [r7, #0]
10004026:	2643      	movs	r6, #67	; 0x43
10004028:	e09c      	b.n	10004164 <Code_826>
1000402a:	46c0      	nop			; (mov r8, r8)

1000402c <Dictionary_803>:
1000402c:	10004048 	andne	r4, r0, r8, asr #32
10004030:	340a0050 	strcc	r0, [sl], #-80	; 0x50
10004034:	6c6f662d 	stclvs	6, cr6, [pc], #-180	; 10003f88 <Dictionary_785>
10004038:	6c626164 	stfvse	f6, [r2], #-400	; 0xfffffe70
1000403c:	3f040065 	svccc	0x00040065

1000403e <Code_803>:
1000403e:	3f04      	subs	r7, #4
10004040:	603e      	str	r6, [r7, #0]
10004042:	2644      	movs	r6, #68	; 0x44
10004044:	e08e      	b.n	10004164 <Code_826>
10004046:	46c0      	nop			; (mov r8, r8)

10004048 <Dictionary_806>:
10004048:	10004064 	andne	r4, r0, r4, rrx
1000404c:	350a0050 	strcc	r0, [sl, #-80]	; 0x50
10004050:	6c6f662d 	stclvs	6, cr6, [pc], #-180	; 10003fa4 <Dictionary_788+0x4>
10004054:	6c626164 	stfvse	f6, [r2], #-400	; 0xfffffe70
10004058:	3f040065 	svccc	0x00040065

1000405a <Code_806>:
1000405a:	3f04      	subs	r7, #4
1000405c:	603e      	str	r6, [r7, #0]
1000405e:	2645      	movs	r6, #69	; 0x45
10004060:	e080      	b.n	10004164 <Code_826>
10004062:	46c0      	nop			; (mov r8, r8)

10004064 <Dictionary_809>:
10004064:	10004080 	andne	r4, r0, r0, lsl #1
10004068:	360a0050 			; <UNDEFINED> instruction: 0x360a0050
1000406c:	6c6f662d 	stclvs	6, cr6, [pc], #-180	; 10003fc0 <Dictionary_791+0x4>
10004070:	6c626164 	stfvse	f6, [r2], #-400	; 0xfffffe70
10004074:	3f040065 	svccc	0x00040065

10004076 <Code_809>:
10004076:	3f04      	subs	r7, #4
10004078:	603e      	str	r6, [r7, #0]
1000407a:	2646      	movs	r6, #70	; 0x46
1000407c:	e072      	b.n	10004164 <Code_826>
1000407e:	46c0      	nop			; (mov r8, r8)

10004080 <Dictionary_812>:
10004080:	1000409c 	mulne	r0, ip, r0
10004084:	370a0050 	smlsdcc	sl, r0, r0, r0
10004088:	6c6f662d 	stclvs	6, cr6, [pc], #-180	; 10003fdc <Dictionary_794+0x4>
1000408c:	6c626164 	stfvse	f6, [r2], #-400	; 0xfffffe70
10004090:	3f040065 	svccc	0x00040065

10004092 <Code_812>:
10004092:	3f04      	subs	r7, #4
10004094:	603e      	str	r6, [r7, #0]
10004096:	2647      	movs	r6, #71	; 0x47
10004098:	e064      	b.n	10004164 <Code_826>
1000409a:	46c0      	nop			; (mov r8, r8)

1000409c <Dictionary_815>:
1000409c:	100040cc 	andne	r4, r0, ip, asr #1
100040a0:	63080000 	movwvs	r0, #32768	; 0x8000
100040a4:	74736e6f 	ldrbtvc	r6, [r3], #-3695	; 0xe6f
100040a8:	00746e61 	rsbseq	r6, r4, r1, ror #28

100040ac <Code_815>:
100040ac:	b500      	push	{lr}
100040ae:	f000 f9db 	bl	10004468 <Code_867>
100040b2:	f7ff fdc3 	bl	10003c3c <Code_721>
100040b6:	3f04      	subs	r7, #4
100040b8:	603e      	str	r6, [r7, #0]
100040ba:	4e3a      	ldr	r6, [pc, #232]	; (100041a4 <setflags_ram+0x28>)
100040bc:	f000 f8c5 	bl	1000424a <Code_836>
100040c0:	f7ff ff85 	bl	10003fce <Code_791>
100040c4:	f000 f81b 	bl	100040fe <Code_820>
100040c8:	bd00      	pop	{pc}
100040ca:	46c0      	nop			; (mov r8, r8)

100040cc <Dictionary_818>:
100040cc:	100040f0 	strdne	r4, [r0], -r0
100040d0:	32090000 	andcc	r0, r9, #0
100040d4:	736e6f63 	cmnvc	lr, #396	; 0x18c
100040d8:	746e6174 	strbtvc	r6, [lr], #-372	; 0x174

100040dc <Code_818>:
100040dc:	b500      	push	{lr}
100040de:	f000 f9c3 	bl	10004468 <Code_867>
100040e2:	6839      	ldr	r1, [r7, #0]
100040e4:	603e      	str	r6, [r7, #0]
100040e6:	460e      	mov	r6, r1
100040e8:	f7ff fda8 	bl	10003c3c <Code_721>
100040ec:	e7e1      	b.n	100040b2 <Code_815+0x6>
100040ee:	46c0      	nop			; (mov r8, r8)

100040f0 <Dictionary_820>:
100040f0:	10004154 	andne	r4, r0, r4, asr r1
100040f4:	73060000 	movwvc	r0, #24576	; 0x6000
100040f8:	6764756d 	strbvs	r7, [r4, -sp, ror #10]!
100040fc:	b5000065 	strlt	r0, [r0, #-101]	; 0x65

100040fe <Code_820>:
100040fe:	b500      	push	{lr}
10004100:	482e      	ldr	r0, [pc, #184]	; (100041bc <setflags_ram+0x40>)
10004102:	6801      	ldr	r1, [r0, #0]
10004104:	4a2e      	ldr	r2, [pc, #184]	; (100041c0 <setflags_ram+0x44>)
10004106:	4291      	cmp	r1, r2
10004108:	d21e      	bcs.n	10004148 <smudge_ram>
1000410a:	3902      	subs	r1, #2
1000410c:	880a      	ldrh	r2, [r1, #0]
1000410e:	4b2d      	ldr	r3, [pc, #180]	; (100041c4 <setflags_ram+0x48>)
10004110:	429a      	cmp	r2, r3
10004112:	d104      	bne.n	1000411e <Code_820+0x20>
10004114:	3f04      	subs	r7, #4
10004116:	603e      	str	r6, [r7, #0]
10004118:	4e2b      	ldr	r6, [pc, #172]	; (100041c8 <setflags_ram+0x4c>)
1000411a:	f000 f896 	bl	1000424a <Code_836>
1000411e:	f000 f86d 	bl	100041fc <Code_830>
10004122:	f000 f87f 	bl	10004224 <Code_833>
10004126:	4829      	ldr	r0, [pc, #164]	; (100041cc <setflags_ram+0x50>)
10004128:	6800      	ldr	r0, [r0, #0]
1000412a:	3f04      	subs	r7, #4
1000412c:	603e      	str	r6, [r7, #0]
1000412e:	0006      	movs	r6, r0
10004130:	4927      	ldr	r1, [pc, #156]	; (100041d0 <setflags_ram+0x54>)
10004132:	6809      	ldr	r1, [r1, #0]
10004134:	3104      	adds	r1, #4
10004136:	4a21      	ldr	r2, [pc, #132]	; (100041bc <setflags_ram+0x40>)
10004138:	6813      	ldr	r3, [r2, #0]
1000413a:	6011      	str	r1, [r2, #0]
1000413c:	f000 f885 	bl	1000424a <Code_836>
10004140:	6013      	str	r3, [r2, #0]
10004142:	f7fe fee0 	bl	10002f06 <Code_456>
10004146:	bd00      	pop	{pc}

10004148 <smudge_ram>:
10004148:	f000 f858 	bl	100041fc <Code_830>
1000414c:	3f04      	subs	r7, #4
1000414e:	603e      	str	r6, [r7, #0]
10004150:	2600      	movs	r6, #0
10004152:	e008      	b.n	10004166 <setflags_intern>

10004154 <Dictionary_826>:
10004154:	100041d4 	ldrdne	r4, [r0], -r4	; <UNPREDICTABLE>
10004158:	73080000 	movwvc	r0, #32768	; 0x8000
1000415c:	6c667465 	cfstrdvs	mvd7, [r6], #-404	; 0xfffffe6c
10004160:	00736761 	rsbseq	r6, r3, r1, ror #14

10004164 <Code_826>:
10004164:	b500      	push	{lr}

10004166 <setflags_intern>:
10004166:	4815      	ldr	r0, [pc, #84]	; (100041bc <setflags_ram+0x40>)
10004168:	6801      	ldr	r1, [r0, #0]
1000416a:	4a15      	ldr	r2, [pc, #84]	; (100041c0 <setflags_ram+0x44>)
1000416c:	4291      	cmp	r1, r2
1000416e:	d205      	bcs.n	1000417c <setflags_ram>
10004170:	4816      	ldr	r0, [pc, #88]	; (100041cc <setflags_ram+0x50>)
10004172:	6801      	ldr	r1, [r0, #0]
10004174:	4331      	orrs	r1, r6
10004176:	6001      	str	r1, [r0, #0]
10004178:	cf40      	ldmia	r7!, {r6}
1000417a:	bd00      	pop	{pc}

1000417c <setflags_ram>:
1000417c:	0032      	movs	r2, r6
1000417e:	cf40      	ldmia	r7!, {r6}
10004180:	4813      	ldr	r0, [pc, #76]	; (100041d0 <setflags_ram+0x54>)
10004182:	6800      	ldr	r0, [r0, #0]
10004184:	3004      	adds	r0, #4
10004186:	8801      	ldrh	r1, [r0, #0]
10004188:	4b0e      	ldr	r3, [pc, #56]	; (100041c4 <setflags_ram+0x48>)
1000418a:	4299      	cmp	r1, r3
1000418c:	d101      	bne.n	10004192 <setflags_ram+0x16>
1000418e:	0011      	movs	r1, r2
10004190:	e000      	b.n	10004194 <setflags_ram+0x18>
10004192:	4311      	orrs	r1, r2
10004194:	8001      	strh	r1, [r0, #0]
10004196:	bd00      	pop	{pc}
10004198:	10005466 	andne	r5, r0, r6, ror #8
1000419c:	0000b500 	andeq	fp, r0, r0, lsl #10
100041a0:	0000bd00 	andeq	fp, r0, r0, lsl #26
100041a4:	00004770 	andeq	r4, r0, r0, ror r7
100041a8:	20000108 	andcs	r0, r0, r8, lsl #2
100041ac:	20003fd8 	ldrdcs	r3, [r0], -r8
100041b0:	20000104 	andcs	r0, r0, r4, lsl #2
100041b4:	20000150 	andcs	r0, r0, r0, asr r1
100041b8:	00000820 	andeq	r0, r0, r0, lsr #16
100041bc:	200000f4 	strdcs	r0, [r0], -r4
100041c0:	200000f4 	strdcs	r0, [r0], -r4
100041c4:	0000ffff 	strdeq	pc, [r0], -pc	; <UNPREDICTABLE>
100041c8:	00000000 	andeq	r0, r0, r0
100041cc:	20000114 	andcs	r0, r0, r4, lsl r1
100041d0:	200000f8 	strdcs	r0, [r0], -r8

100041d4 <Dictionary_829>:
100041d4:	100041f0 	strdne	r4, [r0], -r0
100041d8:	61070041 	tstvs	r7, r1, asr #32
100041dc:	6e67696c 	cdpvs	9, 6, cr6, cr7, cr12, {3}
100041e0:	20016465 	andcs	r6, r1, r5, ror #8

100041e2 <Code_829>:
100041e2:	2001      	movs	r0, #1
100041e4:	4030      	ands	r0, r6
100041e6:	1836      	adds	r6, r6, r0
100041e8:	2002      	movs	r0, #2
100041ea:	4030      	ands	r0, r6
100041ec:	1836      	adds	r6, r6, r0
100041ee:	4770      	bx	lr

100041f0 <Dictionary_830>:
100041f0:	10004214 	andne	r4, r0, r4, lsl r2
100041f4:	61050000 	mrsvs	r0, (UNDEF: 5)
100041f8:	6e67696c 	cdpvs	9, 6, cr6, cr7, cr12, {3}

100041fc <Code_830>:
100041fc:	b500      	push	{lr}
100041fe:	488e      	ldr	r0, [pc, #568]	; (10004438 <Zweitpointertausch+0x4e>)
10004200:	6801      	ldr	r1, [r0, #0]
10004202:	2002      	movs	r0, #2
10004204:	4001      	ands	r1, r0
10004206:	d004      	beq.n	10004212 <Code_830+0x16>
10004208:	3f04      	subs	r7, #4
1000420a:	603e      	str	r6, [r7, #0]
1000420c:	2600      	movs	r6, #0
1000420e:	f000 f81c 	bl	1000424a <Code_836>
10004212:	bd00      	pop	{pc}

10004214 <Dictionary_833>:
10004214:	10004240 	andne	r4, r0, r0, asr #4
10004218:	61080000 	mrsvs	r0, (UNDEF: 8)
1000421c:	6e67696c 	cdpvs	9, 6, cr6, cr7, cr12, {3}
10004220:	002c3631 	eoreq	r3, ip, r1, lsr r6

10004224 <Code_833>:
10004224:	b500      	push	{lr}
10004226:	4884      	ldr	r0, [pc, #528]	; (10004438 <Zweitpointertausch+0x4e>)
10004228:	6801      	ldr	r1, [r0, #0]
1000422a:	200f      	movs	r0, #15
1000422c:	4001      	ands	r1, r0
1000422e:	d005      	beq.n	1000423c <Code_833+0x18>
10004230:	3f04      	subs	r7, #4
10004232:	603e      	str	r6, [r7, #0]
10004234:	2600      	movs	r6, #0
10004236:	f000 f808 	bl	1000424a <Code_836>
1000423a:	e7f4      	b.n	10004226 <Code_833+0x2>
1000423c:	bd00      	pop	{pc}
1000423e:	46c0      	nop			; (mov r8, r8)

10004240 <Dictionary_836>:
10004240:	10004284 	andne	r4, r0, r4, lsl #5
10004244:	68020000 	stmdavs	r2, {}	; <UNPREDICTABLE>
10004248:	b50f002c 	strlt	r0, [pc, #-44]	; 10004224 <Code_833>

1000424a <Code_836>:
1000424a:	b50f      	push	{r0, r1, r2, r3, lr}
1000424c:	b2b6      	uxth	r6, r6
1000424e:	487b      	ldr	r0, [pc, #492]	; (1000443c <Zweitpointertausch+0x52>)
10004250:	6801      	ldr	r1, [r0, #0]
10004252:	2900      	cmp	r1, #0
10004254:	d002      	beq.n	1000425c <Code_836+0x12>
10004256:	3101      	adds	r1, #1
10004258:	d000      	beq.n	1000425c <Code_836+0x12>
1000425a:	6001      	str	r1, [r0, #0]
1000425c:	4876      	ldr	r0, [pc, #472]	; (10004438 <Zweitpointertausch+0x4e>)
1000425e:	6801      	ldr	r1, [r0, #0]
10004260:	4a77      	ldr	r2, [pc, #476]	; (10004440 <Zweitpointertausch+0x56>)
10004262:	4291      	cmp	r1, r2
10004264:	d205      	bcs.n	10004272 <hkomma_ram>
10004266:	3f04      	subs	r7, #4
10004268:	603e      	str	r6, [r7, #0]
1000426a:	000e      	movs	r6, r1
1000426c:	f7fe fdd5 	bl	10002e1a <Code_450>
10004270:	e002      	b.n	10004278 <hkomma_fertig>

10004272 <hkomma_ram>:
10004272:	0032      	movs	r2, r6
10004274:	cf40      	ldmia	r7!, {r6}
10004276:	800a      	strh	r2, [r1, #0]

10004278 <hkomma_fertig>:
10004278:	3f04      	subs	r7, #4
1000427a:	603e      	str	r6, [r7, #0]
1000427c:	2602      	movs	r6, #2
1000427e:	f000 f857 	bl	10004330 <Code_856>
10004282:	bd0f      	pop	{r0, r1, r2, r3, pc}

10004284 <Dictionary_842>:
10004284:	100042a0 	andne	r4, r0, r0, lsr #5
10004288:	2c010000 	stccs	0, cr0, [r1], {0}

1000428c <Code_842>:
1000428c:	b500      	push	{lr}
1000428e:	3f04      	subs	r7, #4
10004290:	603e      	str	r6, [r7, #0]
10004292:	f7ff ffda 	bl	1000424a <Code_836>
10004296:	0c36      	lsrs	r6, r6, #16
10004298:	f7ff ffd7 	bl	1000424a <Code_836>
1000429c:	bd00      	pop	{pc}
1000429e:	46c0      	nop			; (mov r8, r8)

100042a0 <Dictionary_845>:
100042a0:	100042bc 			; <UNDEFINED> instruction: 0x100042bc
100042a4:	3e030000 	cdpcc	0, 0, cr0, cr3, cr0, {0}
100042a8:	b5002c3c 	strlt	r2, [r0, #-3132]	; 0xc3c

100042aa <Code_845>:
100042aa:	b500      	push	{lr}
100042ac:	3f04      	subs	r7, #4
100042ae:	603e      	str	r6, [r7, #0]
100042b0:	0c36      	lsrs	r6, r6, #16
100042b2:	f7ff ffca 	bl	1000424a <Code_836>
100042b6:	f7ff ffc8 	bl	1000424a <Code_836>
100042ba:	bd00      	pop	{pc}

100042bc <Dictionary_848>:
100042bc:	10004324 	andne	r4, r0, r4, lsr #6
100042c0:	73070000 	movwvc	r0, #28672	; 0x7000
100042c4:	6e697274 	mcrvs	2, 3, r7, cr9, cr4, {3}
100042c8:	b5072c67 	strlt	r2, [r7, #-3175]	; 0xc67

100042ca <Code_848>:
100042ca:	b507      	push	{r0, r1, r2, lr}
100042cc:	21ff      	movs	r1, #255	; 0xff
100042ce:	4031      	ands	r1, r6
100042d0:	cf40      	ldmia	r7!, {r6}
100042d2:	0030      	movs	r0, r6
100042d4:	cf40      	ldmia	r7!, {r6}
100042d6:	2900      	cmp	r1, #0
100042d8:	d105      	bne.n	100042e6 <Code_848+0x1c>
100042da:	3f04      	subs	r7, #4
100042dc:	603e      	str	r6, [r7, #0]
100042de:	2600      	movs	r6, #0
100042e0:	f7ff ffb3 	bl	1000424a <Code_836>
100042e4:	bd07      	pop	{r0, r1, r2, pc}
100042e6:	3f04      	subs	r7, #4
100042e8:	603e      	str	r6, [r7, #0]
100042ea:	7806      	ldrb	r6, [r0, #0]
100042ec:	0236      	lsls	r6, r6, #8
100042ee:	430e      	orrs	r6, r1
100042f0:	f7ff ffab 	bl	1000424a <Code_836>
100042f4:	3001      	adds	r0, #1
100042f6:	3901      	subs	r1, #1
100042f8:	2902      	cmp	r1, #2
100042fa:	d30a      	bcc.n	10004312 <Code_848+0x48>
100042fc:	3f04      	subs	r7, #4
100042fe:	603e      	str	r6, [r7, #0]
10004300:	7846      	ldrb	r6, [r0, #1]
10004302:	0236      	lsls	r6, r6, #8
10004304:	7802      	ldrb	r2, [r0, #0]
10004306:	4316      	orrs	r6, r2
10004308:	f7ff ff9f 	bl	1000424a <Code_836>
1000430c:	3002      	adds	r0, #2
1000430e:	3902      	subs	r1, #2
10004310:	e7f2      	b.n	100042f8 <Code_848+0x2e>
10004312:	2900      	cmp	r1, #0
10004314:	d100      	bne.n	10004318 <Code_848+0x4e>
10004316:	bd07      	pop	{r0, r1, r2, pc}
10004318:	3f04      	subs	r7, #4
1000431a:	603e      	str	r6, [r7, #0]
1000431c:	7806      	ldrb	r6, [r0, #0]
1000431e:	f7ff ff94 	bl	1000424a <Code_836>
10004322:	bd07      	pop	{r0, r1, r2, pc}

10004324 <Dictionary_856>:
10004324:	10004380 	andne	r4, r0, r0, lsl #7
10004328:	61050000 	mrsvs	r0, (UNDEF: 5)
1000432c:	746f6c6c 	strbtvc	r6, [pc], #-3180	; 10004334 <Code_856+0x4>

10004330 <Code_856>:
10004330:	4841      	ldr	r0, [pc, #260]	; (10004438 <Zweitpointertausch+0x4e>)
10004332:	6801      	ldr	r1, [r0, #0]
10004334:	4a42      	ldr	r2, [pc, #264]	; (10004440 <Zweitpointertausch+0x56>)
10004336:	4291      	cmp	r1, r2
10004338:	d20f      	bcs.n	1000435a <allot_ram>
1000433a:	0032      	movs	r2, r6
1000433c:	cf40      	ldmia	r7!, {r6}
1000433e:	1889      	adds	r1, r1, r2
10004340:	4a40      	ldr	r2, [pc, #256]	; (10004444 <Zweitpointertausch+0x5a>)
10004342:	4291      	cmp	r1, r2
10004344:	d319      	bcc.n	1000437a <allot_ok>
10004346:	f7ff fa4f 	bl	100037e8 <dotgaensefuesschen>
1000434a:	616c460b 	cmnvs	ip, fp, lsl #12
1000434e:	66206873 			; <UNDEFINED> instruction: 0x66206873
10004352:	0a6c6c75 	beq	11b1f52e <FlashDictionaryEnde+0x1b0e52e>
10004356:	f001 f9fd 	bl	10005754 <Code_1247>

1000435a <allot_ram>:
1000435a:	0032      	movs	r2, r6
1000435c:	cf40      	ldmia	r7!, {r6}
1000435e:	1889      	adds	r1, r1, r2
10004360:	4a39      	ldr	r2, [pc, #228]	; (10004448 <Zweitpointertausch+0x5e>)
10004362:	6812      	ldr	r2, [r2, #0]
10004364:	4291      	cmp	r1, r2
10004366:	d308      	bcc.n	1000437a <allot_ok>
10004368:	f7ff fa3e 	bl	100037e8 <dotgaensefuesschen>
1000436c:	6d615209 	sfmvs	f5, 2, [r1, #-36]!	; 0xffffffdc
10004370:	6c756620 	ldclvs	6, cr6, [r5], #-128	; 0xffffff80
10004374:	f0010a6c 			; <UNDEFINED> instruction: 0xf0010a6c
10004378:	f9ed 6001 	vld1.8	{d22[0]}, [sp], r1

1000437a <allot_ok>:
1000437a:	6001      	str	r1, [r0, #0]
1000437c:	4770      	bx	lr
1000437e:	46c0      	nop			; (mov r8, r8)

10004380 <Dictionary_861>:
10004380:	100043a8 	andne	r4, r0, r8, lsr #7
10004384:	630d0000 	movwvs	r0, #53248	; 0xd000
10004388:	69706d6f 	ldmdbvs	r0!, {r0, r1, r2, r3, r5, r6, r8, sl, fp, sp, lr}^
1000438c:	6f74656c 	svcvs	0x0074656c
10004390:	3f6d6172 	svccc	0x006d6172

10004394 <Code_861>:
10004394:	3f04      	subs	r7, #4
10004396:	603e      	str	r6, [r7, #0]
10004398:	2600      	movs	r6, #0
1000439a:	4827      	ldr	r0, [pc, #156]	; (10004438 <Zweitpointertausch+0x4e>)
1000439c:	6800      	ldr	r0, [r0, #0]
1000439e:	4928      	ldr	r1, [pc, #160]	; (10004440 <Zweitpointertausch+0x56>)
100043a0:	4288      	cmp	r0, r1
100043a2:	d348      	bcc.n	10004436 <Zweitpointertausch+0x4c>
100043a4:	43f6      	mvns	r6, r6
100043a6:	4770      	bx	lr

100043a8 <Dictionary_864>:
100043a8:	100043c8 	andne	r4, r0, r8, asr #7
100043ac:	630c0000 	movwvs	r0, #49152	; 0xc000
100043b0:	69706d6f 	ldmdbvs	r0!, {r0, r1, r2, r3, r5, r6, r8, sl, fp, sp, lr}^
100043b4:	6f74656c 	svcvs	0x0074656c
100043b8:	006d6172 	rsbeq	r6, sp, r2, ror r1

100043bc <Code_864>:
100043bc:	481e      	ldr	r0, [pc, #120]	; (10004438 <Zweitpointertausch+0x4e>)
100043be:	6800      	ldr	r0, [r0, #0]
100043c0:	491f      	ldr	r1, [pc, #124]	; (10004440 <Zweitpointertausch+0x56>)
100043c2:	4288      	cmp	r0, r1
100043c4:	d311      	bcc.n	100043ea <Zweitpointertausch>
100043c6:	4770      	bx	lr

100043c8 <Dictionary_865>:
100043c8:	10004458 	andne	r4, r0, r8, asr r4
100043cc:	630e0000 	movwvs	r0, #57344	; 0xe000
100043d0:	69706d6f 	ldmdbvs	r0!, {r0, r1, r2, r3, r5, r6, r8, sl, fp, sp, lr}^
100043d4:	6f74656c 	svcvs	0x0074656c
100043d8:	73616c66 	cmnvc	r1, #26112	; 0x6600
100043dc:	48160068 	ldmdami	r6, {r3, r5, r6}

100043de <Code_865>:
100043de:	4816      	ldr	r0, [pc, #88]	; (10004438 <Zweitpointertausch+0x4e>)
100043e0:	6800      	ldr	r0, [r0, #0]
100043e2:	4917      	ldr	r1, [pc, #92]	; (10004440 <Zweitpointertausch+0x56>)
100043e4:	4288      	cmp	r0, r1
100043e6:	d200      	bcs.n	100043ea <Zweitpointertausch>
100043e8:	4770      	bx	lr

100043ea <Zweitpointertausch>:
100043ea:	4818      	ldr	r0, [pc, #96]	; (1000444c <Zweitpointertausch+0x62>)
100043ec:	4918      	ldr	r1, [pc, #96]	; (10004450 <Zweitpointertausch+0x66>)
100043ee:	6802      	ldr	r2, [r0, #0]
100043f0:	680b      	ldr	r3, [r1, #0]
100043f2:	600a      	str	r2, [r1, #0]
100043f4:	6003      	str	r3, [r0, #0]
100043f6:	4810      	ldr	r0, [pc, #64]	; (10004438 <Zweitpointertausch+0x4e>)
100043f8:	4916      	ldr	r1, [pc, #88]	; (10004454 <Zweitpointertausch+0x6a>)
100043fa:	6802      	ldr	r2, [r0, #0]
100043fc:	680b      	ldr	r3, [r1, #0]
100043fe:	600a      	str	r2, [r1, #0]
10004400:	6003      	str	r3, [r0, #0]
10004402:	4811      	ldr	r0, [pc, #68]	; (10004448 <Zweitpointertausch+0x5e>)
10004404:	6800      	ldr	r0, [r0, #0]
10004406:	4283      	cmp	r3, r0
10004408:	d315      	bcc.n	10004436 <Zweitpointertausch+0x4c>
1000440a:	b500      	push	{lr}
1000440c:	f7ff f9ec 	bl	100037e8 <dotgaensefuesschen>
10004410:	61562023 	cmpvs	r6, r3, lsr #32
10004414:	62616972 	rsbvs	r6, r1, #1867776	; 0x1c8000
10004418:	2073656c 	rsbscs	r6, r3, ip, ror #10
1000441c:	6c6c6f63 	stclvs	15, cr6, [ip], #-396	; 0xfffffe74
10004420:	20656469 	rsbcs	r6, r5, r9, ror #8
10004424:	68746977 	ldmdavs	r4!, {r0, r1, r2, r4, r5, r6, r8, fp, sp, lr}^
10004428:	63696420 	cmnvs	r9, #536870912	; 0x20000000
1000442c:	6e6f6974 	mcrvs	9, 3, r6, cr15, cr4, {3}
10004430:	0a797261 	beq	11e60dbc <FlashDictionaryEnde+0x1e4fdbc>
10004434:	bd00      	pop	{pc}
10004436:	4770      	bx	lr
10004438:	200000f4 	strdcs	r0, [r0], -r4
1000443c:	20003fd8 	ldrdcs	r3, [r0], -r8
10004440:	200000f4 	strdcs	r0, [r0], -r4
10004444:	10011000 	andne	r1, r1, r0
10004448:	20000118 	andcs	r0, r0, r8, lsl r1
1000444c:	200000f8 	strdcs	r0, [r0], -r8
10004450:	20000110 	andcs	r0, r0, r0, lsl r1
10004454:	2000010c 	andcs	r0, r0, ip, lsl #2

10004458 <Dictionary_867>:
10004458:	10004554 	andne	r4, r0, r4, asr r5
1000445c:	28080000 	stmdacs	r8, {}	; <UNPREDICTABLE>
10004460:	61657263 	cmnvs	r5, r3, ror #4
10004464:	00296574 	eoreq	r6, r9, r4, ror r5

10004468 <Code_867>:
10004468:	b500      	push	{lr}
1000446a:	f000 fdf5 	bl	10005058 <Code_1120>
1000446e:	2e00      	cmp	r6, #0
10004470:	d10e      	bne.n	10004490 <Code_867+0x28>
10004472:	f7ff f9b9 	bl	100037e8 <dotgaensefuesschen>
10004476:	72432015 	subvc	r2, r3, #21
1000447a:	65746165 	ldrbvs	r6, [r4, #-357]!	; 0x165
1000447e:	65656e20 	strbvs	r6, [r5, #-3616]!	; 0xe20
10004482:	6e207364 	cdpvs	3, 2, cr7, cr0, cr4, {3}
10004486:	20656d61 	rsbcs	r6, r5, r1, ror #26
1000448a:	f0010a21 			; <UNDEFINED> instruction: 0xf0010a21
1000448e:	f962 6838 	vld2.8	{d22-d23}, [r2 :256], r8
10004492:	3f04      	subs	r7, #4
10004494:	603e      	str	r6, [r7, #0]
10004496:	3f04      	subs	r7, #4
10004498:	6038      	str	r0, [r7, #0]
1000449a:	f000 f9ad 	bl	100047f8 <Code_932>
1000449e:	cf40      	ldmia	r7!, {r6}
100044a0:	2e00      	cmp	r6, #0
100044a2:	cf40      	ldmia	r7!, {r6}
100044a4:	d011      	beq.n	100044ca <Code_867+0x62>
100044a6:	6838      	ldr	r0, [r7, #0]
100044a8:	3f04      	subs	r7, #4
100044aa:	603e      	str	r6, [r7, #0]
100044ac:	3f04      	subs	r7, #4
100044ae:	6038      	str	r0, [r7, #0]
100044b0:	f7ff f99a 	bl	100037e8 <dotgaensefuesschen>
100044b4:	64655209 	strbtvs	r5, [r5], #-521	; 0x209
100044b8:	6e696665 	cdpvs	6, 6, cr6, cr9, cr5, {3}
100044bc:	f7ff2065 			; <UNDEFINED> instruction: 0xf7ff2065
100044c0:	f9f3 f7ff 	ldr??.w	pc, [r3, #2047]	; 0x7ff
100044c4:	f991 2e02 	ldrsb.w	r2, [r1, #3586]	; 0xe02
100044c8:	f7ff000a 			; <UNDEFINED> instruction: 0xf7ff000a
100044cc:	fe97 4892 	mrc2	8, 4, r4, cr7, cr2, {4}
100044d0:	6800      	ldr	r0, [r0, #0]
100044d2:	4992      	ldr	r1, [pc, #584]	; (1000471c <rambuffer_ram+0x48>)
100044d4:	4288      	cmp	r0, r1
100044d6:	d225      	bcs.n	10004524 <create_ram>
100044d8:	4891      	ldr	r0, [pc, #580]	; (10004720 <rambuffer_ram+0x4c>)
100044da:	2100      	movs	r1, #0
100044dc:	6001      	str	r1, [r0, #0]
100044de:	f7ff fea1 	bl	10004224 <Code_833>
100044e2:	3f04      	subs	r7, #4
100044e4:	603e      	str	r6, [r7, #0]
100044e6:	260c      	movs	r6, #12
100044e8:	f7ff ff22 	bl	10004330 <Code_856>
100044ec:	f000 fa1a 	bl	10004924 <Code_954>
100044f0:	3f04      	subs	r7, #4
100044f2:	603e      	str	r6, [r7, #0]
100044f4:	2606      	movs	r6, #6
100044f6:	f7ff ff1b 	bl	10004330 <Code_856>
100044fa:	f7fd fce9 	bl	10001ed0 <Code_214>
100044fe:	f7ff fee4 	bl	100042ca <Code_848>
10004502:	4888      	ldr	r0, [pc, #544]	; (10004724 <rambuffer_ram+0x50>)
10004504:	6801      	ldr	r1, [r0, #0]
10004506:	680a      	ldr	r2, [r1, #0]
10004508:	4b87      	ldr	r3, [pc, #540]	; (10004728 <rambuffer_ram+0x54>)
1000450a:	429a      	cmp	r2, r3
1000450c:	d107      	bne.n	1000451e <Code_867+0xb6>
1000450e:	4a82      	ldr	r2, [pc, #520]	; (10004718 <rambuffer_ram+0x44>)
10004510:	6813      	ldr	r3, [r2, #0]
10004512:	6011      	str	r1, [r2, #0]
10004514:	3f04      	subs	r7, #4
10004516:	603e      	str	r6, [r7, #0]
10004518:	f7ff feb8 	bl	1000428c <Code_842>
1000451c:	6013      	str	r3, [r2, #0]
1000451e:	6006      	str	r6, [r0, #0]
10004520:	cf40      	ldmia	r7!, {r6}
10004522:	e012      	b.n	1000454a <create_ende>

10004524 <create_ram>:
10004524:	f000 f9fe 	bl	10004924 <Code_954>
10004528:	487e      	ldr	r0, [pc, #504]	; (10004724 <rambuffer_ram+0x50>)
1000452a:	3f04      	subs	r7, #4
1000452c:	603e      	str	r6, [r7, #0]
1000452e:	6806      	ldr	r6, [r0, #0]
10004530:	f7ff feac 	bl	1000428c <Code_842>
10004534:	3f04      	subs	r7, #4
10004536:	603e      	str	r6, [r7, #0]
10004538:	4e7c      	ldr	r6, [pc, #496]	; (1000472c <rambuffer_ram+0x58>)
1000453a:	f7ff fe86 	bl	1000424a <Code_836>
1000453e:	4879      	ldr	r0, [pc, #484]	; (10004724 <rambuffer_ram+0x50>)
10004540:	0031      	movs	r1, r6
10004542:	cf40      	ldmia	r7!, {r6}
10004544:	6001      	str	r1, [r0, #0]
10004546:	f7ff fec0 	bl	100042ca <Code_848>

1000454a <create_ende>:
1000454a:	4873      	ldr	r0, [pc, #460]	; (10004718 <rambuffer_ram+0x44>)
1000454c:	6801      	ldr	r1, [r0, #0]
1000454e:	4878      	ldr	r0, [pc, #480]	; (10004730 <rambuffer_ram+0x5c>)
10004550:	6001      	str	r1, [r0, #0]
10004552:	bd00      	pop	{pc}

10004554 <Dictionary_887>:
10004554:	1000456c 	andne	r4, r0, ip, ror #10
10004558:	76080000 	strvc	r0, [r8], -r0
1000455c:	61697261 	cmnvs	r9, r1, ror #4
10004560:	00656c62 	rsbeq	r6, r5, r2, ror #24

10004564 <Code_887>:
10004564:	3f04      	subs	r7, #4
10004566:	603e      	str	r6, [r7, #0]
10004568:	2601      	movs	r6, #1
1000456a:	e013      	b.n	10004594 <Code_893>

1000456c <Dictionary_890>:
1000456c:	10004584 	andne	r4, r0, r4, lsl #11
10004570:	32090000 	andcc	r0, r9, #0
10004574:	69726176 	ldmdbvs	r2!, {r1, r2, r4, r5, r6, r8, sp, lr}^
10004578:	656c6261 	strbvs	r6, [ip, #-609]!	; 0x261

1000457c <Code_890>:
1000457c:	3f04      	subs	r7, #4
1000457e:	603e      	str	r6, [r7, #0]
10004580:	2602      	movs	r6, #2
10004582:	e007      	b.n	10004594 <Code_893>

10004584 <Dictionary_893>:
10004584:	1000465c 	andne	r4, r0, ip, asr r6
10004588:	6e090000 	cdpvs	0, 0, cr0, cr9, cr0, {0}
1000458c:	69726176 	ldmdbvs	r2!, {r1, r2, r4, r5, r6, r8, sp, lr}^
10004590:	656c6261 	strbvs	r6, [ip, #-609]!	; 0x261

10004594 <Code_893>:
10004594:	b500      	push	{lr}
10004596:	f7ff ff67 	bl	10004468 <Code_867>
1000459a:	485f      	ldr	r0, [pc, #380]	; (10004718 <rambuffer_ram+0x44>)
1000459c:	6801      	ldr	r1, [r0, #0]
1000459e:	4a5f      	ldr	r2, [pc, #380]	; (1000471c <rambuffer_ram+0x48>)
100045a0:	4291      	cmp	r1, r2
100045a2:	d233      	bcs.n	1000460c <variable_ram>
100045a4:	200f      	movs	r0, #15
100045a6:	4006      	ands	r6, r0
100045a8:	00b2      	lsls	r2, r6, #2
100045aa:	4862      	ldr	r0, [pc, #392]	; (10004734 <rambuffer_ram+0x60>)
100045ac:	6801      	ldr	r1, [r0, #0]
100045ae:	1a89      	subs	r1, r1, r2
100045b0:	4a61      	ldr	r2, [pc, #388]	; (10004738 <rambuffer_ram+0x64>)
100045b2:	4291      	cmp	r1, r2
100045b4:	d20b      	bcs.n	100045ce <Code_893+0x3a>
100045b6:	f7ff f917 	bl	100037e8 <dotgaensefuesschen>
100045ba:	746f4e0f 	strbtvc	r4, [pc], #-3599	; 100045c2 <Code_893+0x2e>
100045be:	6f6e6520 	svcvs	0x006e6520
100045c2:	20686775 	rsbcs	r6, r8, r5, ror r7
100045c6:	0a4d4152 	beq	11354b16 <FlashDictionaryEnde+0x1343b16>
100045ca:	f001 f8c3 	bl	10005754 <Code_1247>
100045ce:	6001      	str	r1, [r0, #0]
100045d0:	3f04      	subs	r7, #4
100045d2:	603e      	str	r6, [r7, #0]
100045d4:	000e      	movs	r6, r1
100045d6:	f7ff fb31 	bl	10003c3c <Code_721>
100045da:	3f04      	subs	r7, #4
100045dc:	603e      	str	r6, [r7, #0]
100045de:	4e57      	ldr	r6, [pc, #348]	; (1000473c <rambuffer_ram+0x68>)
100045e0:	f7ff fe33 	bl	1000424a <Code_836>
100045e4:	0030      	movs	r0, r6
100045e6:	cf40      	ldmia	r7!, {r6}
100045e8:	0002      	movs	r2, r0
100045ea:	2800      	cmp	r0, #0
100045ec:	d005      	beq.n	100045fa <Code_893+0x66>
100045ee:	600e      	str	r6, [r1, #0]
100045f0:	3104      	adds	r1, #4
100045f2:	f7ff fe4b 	bl	1000428c <Code_842>
100045f6:	3801      	subs	r0, #1
100045f8:	d1f9      	bne.n	100045ee <Code_893+0x5a>
100045fa:	3f04      	subs	r7, #4
100045fc:	603e      	str	r6, [r7, #0]
100045fe:	2680      	movs	r6, #128	; 0x80
10004600:	4316      	orrs	r6, r2
10004602:	f7ff fdaf 	bl	10004164 <Code_826>
10004606:	f7ff fd7a 	bl	100040fe <Code_820>
1000460a:	bd00      	pop	{pc}

1000460c <variable_ram>:
1000460c:	f000 f98a 	bl	10004924 <Code_954>
10004610:	2002      	movs	r0, #2
10004612:	4006      	ands	r6, r0
10004614:	cf40      	ldmia	r7!, {r6}
10004616:	d104      	bne.n	10004622 <variable_ram+0x16>
10004618:	3f04      	subs	r7, #4
1000461a:	603e      	str	r6, [r7, #0]
1000461c:	2636      	movs	r6, #54	; 0x36
1000461e:	f7ff fe14 	bl	1000424a <Code_836>
10004622:	3f04      	subs	r7, #4
10004624:	603e      	str	r6, [r7, #0]
10004626:	4e46      	ldr	r6, [pc, #280]	; (10004740 <rambuffer_ram+0x6c>)
10004628:	f7ff fe3f 	bl	100042aa <Code_845>
1000462c:	3f04      	subs	r7, #4
1000462e:	603e      	str	r6, [r7, #0]
10004630:	4e44      	ldr	r6, [pc, #272]	; (10004744 <rambuffer_ram+0x70>)
10004632:	f7ff fe3a 	bl	100042aa <Code_845>
10004636:	3f04      	subs	r7, #4
10004638:	603e      	str	r6, [r7, #0]
1000463a:	4e40      	ldr	r6, [pc, #256]	; (1000473c <rambuffer_ram+0x68>)
1000463c:	f7ff fe05 	bl	1000424a <Code_836>
10004640:	0030      	movs	r0, r6
10004642:	cf40      	ldmia	r7!, {r6}
10004644:	2800      	cmp	r0, #0
10004646:	d003      	beq.n	10004650 <variable_ram+0x44>
10004648:	f7ff fe20 	bl	1000428c <Code_842>
1000464c:	3801      	subs	r0, #1
1000464e:	d1fb      	bne.n	10004648 <variable_ram+0x3c>
10004650:	f7ff fcbd 	bl	10003fce <Code_791>
10004654:	f7ff fd53 	bl	100040fe <Code_820>
10004658:	bd00      	pop	{pc}
1000465a:	46c0      	nop			; (mov r8, r8)

1000465c <Dictionary_910>:
1000465c:	1000474c 	andne	r4, r0, ip, asr #14
10004660:	62070000 	andvs	r0, r7, #0
10004664:	65666675 	strbvs	r6, [r6, #-1653]!	; 0x675
10004668:	b5003a72 	strlt	r3, [r0, #-2674]	; 0xa72

1000466a <Code_910>:
1000466a:	b500      	push	{lr}
1000466c:	f7ff fefc 	bl	10004468 <Code_867>
10004670:	2001      	movs	r0, #1
10004672:	4030      	ands	r0, r6
10004674:	1836      	adds	r6, r6, r0
10004676:	2002      	movs	r0, #2
10004678:	4030      	ands	r0, r6
1000467a:	1836      	adds	r6, r6, r0
1000467c:	4826      	ldr	r0, [pc, #152]	; (10004718 <rambuffer_ram+0x44>)
1000467e:	6801      	ldr	r1, [r0, #0]
10004680:	4a26      	ldr	r2, [pc, #152]	; (1000471c <rambuffer_ram+0x48>)
10004682:	4291      	cmp	r1, r2
10004684:	d226      	bcs.n	100046d4 <rambuffer_ram>
10004686:	482b      	ldr	r0, [pc, #172]	; (10004734 <rambuffer_ram+0x60>)
10004688:	6801      	ldr	r1, [r0, #0]
1000468a:	1b89      	subs	r1, r1, r6
1000468c:	4a2a      	ldr	r2, [pc, #168]	; (10004738 <rambuffer_ram+0x64>)
1000468e:	4291      	cmp	r1, r2
10004690:	d20b      	bcs.n	100046aa <Code_910+0x40>
10004692:	f7ff f8a9 	bl	100037e8 <dotgaensefuesschen>
10004696:	746f4e0f 	strbtvc	r4, [pc], #-3599	; 1000469e <Code_910+0x34>
1000469a:	6f6e6520 	svcvs	0x006e6520
1000469e:	20686775 	rsbcs	r6, r8, r5, ror r7
100046a2:	0a4d4152 	beq	11354bf2 <FlashDictionaryEnde+0x1343bf2>
100046a6:	f001 f855 	bl	10005754 <Code_1247>
100046aa:	6001      	str	r1, [r0, #0]
100046ac:	3f04      	subs	r7, #4
100046ae:	603e      	str	r6, [r7, #0]
100046b0:	000e      	movs	r6, r1
100046b2:	f7ff fac3 	bl	10003c3c <Code_721>
100046b6:	3f04      	subs	r7, #4
100046b8:	603e      	str	r6, [r7, #0]
100046ba:	4e20      	ldr	r6, [pc, #128]	; (1000473c <rambuffer_ram+0x68>)
100046bc:	f7ff fdc5 	bl	1000424a <Code_836>
100046c0:	f7ff fde4 	bl	1000428c <Code_842>
100046c4:	3f04      	subs	r7, #4
100046c6:	603e      	str	r6, [r7, #0]
100046c8:	4e1f      	ldr	r6, [pc, #124]	; (10004748 <rambuffer_ram+0x74>)
100046ca:	f7ff fd4b 	bl	10004164 <Code_826>
100046ce:	f7ff fd16 	bl	100040fe <Code_820>
100046d2:	bd00      	pop	{pc}

100046d4 <rambuffer_ram>:
100046d4:	f000 f926 	bl	10004924 <Code_954>
100046d8:	2002      	movs	r0, #2
100046da:	4006      	ands	r6, r0
100046dc:	cf40      	ldmia	r7!, {r6}
100046de:	d104      	bne.n	100046ea <rambuffer_ram+0x16>
100046e0:	3f04      	subs	r7, #4
100046e2:	603e      	str	r6, [r7, #0]
100046e4:	2636      	movs	r6, #54	; 0x36
100046e6:	f7ff fdb0 	bl	1000424a <Code_836>
100046ea:	3f04      	subs	r7, #4
100046ec:	603e      	str	r6, [r7, #0]
100046ee:	4e14      	ldr	r6, [pc, #80]	; (10004740 <rambuffer_ram+0x6c>)
100046f0:	f7ff fddb 	bl	100042aa <Code_845>
100046f4:	3f04      	subs	r7, #4
100046f6:	603e      	str	r6, [r7, #0]
100046f8:	4e12      	ldr	r6, [pc, #72]	; (10004744 <rambuffer_ram+0x70>)
100046fa:	f7ff fdd6 	bl	100042aa <Code_845>
100046fe:	3f04      	subs	r7, #4
10004700:	603e      	str	r6, [r7, #0]
10004702:	4e0e      	ldr	r6, [pc, #56]	; (1000473c <rambuffer_ram+0x68>)
10004704:	f7ff fda1 	bl	1000424a <Code_836>
10004708:	f7ff fe12 	bl	10004330 <Code_856>
1000470c:	f7ff fc5f 	bl	10003fce <Code_791>
10004710:	f7ff fcf5 	bl	100040fe <Code_820>
10004714:	bd00      	pop	{pc}
10004716:	00f40000 	rscseq	r0, r4, r0
1000471a:	00f42000 	rscseq	r2, r4, r0
1000471e:	01142000 	tsteq	r4, r0
10004722:	00f82000 	rscseq	r2, r8, r0
10004726:	ffff2000 			; <UNDEFINED> instruction: 0xffff2000
1000472a:	ffffffff 			; <UNDEFINED> instruction: 0xffffffff
1000472e:	01080000 	mrseq	r0, (UNDEF: 8)
10004732:	01182000 	tsteq	r8, r0
10004736:	08242000 	stmdaeq	r4!, {sp}
1000473a:	47702000 	ldrbmi	r2, [r0, -r0]!
1000473e:	603e0000 	eorsvs	r0, lr, r0
10004742:	36023f04 	strcc	r3, [r2], -r4, lsl #30
10004746:	0140467e 	hvceq	1134	; 0x46e
	...

1000474c <Dictionary_925>:
1000474c:	1000477c 	andne	r4, r0, ip, ror r7
10004750:	640f0000 	strvs	r0, [pc], #0	; 10004758 <Dictionary_925+0xc>
10004754:	69746369 	ldmdbvs	r4!, {r0, r3, r5, r6, r8, r9, sp, lr}^
10004758:	72616e6f 	rsbvc	r6, r1, #1776	; 0x6f0
1000475c:	61747379 	cmnvs	r4, r9, ror r3
10004760:	48427472 	stmdami	r2, {r1, r4, r5, r6, sl, ip, sp, lr}^

10004762 <Code_925>:
10004762:	4842      	ldr	r0, [pc, #264]	; (1000486c <find_not_found+0x16>)
10004764:	6800      	ldr	r0, [r0, #0]
10004766:	4942      	ldr	r1, [pc, #264]	; (10004870 <find_not_found+0x1a>)
10004768:	3f04      	subs	r7, #4
1000476a:	603e      	str	r6, [r7, #0]
1000476c:	4288      	cmp	r0, r1
1000476e:	d201      	bcs.n	10004774 <Code_925+0x12>
10004770:	4e40      	ldr	r6, [pc, #256]	; (10004874 <find_not_found+0x1e>)
10004772:	4770      	bx	lr
10004774:	4e40      	ldr	r6, [pc, #256]	; (10004878 <find_not_found+0x22>)
10004776:	6836      	ldr	r6, [r6, #0]
10004778:	4770      	bx	lr
1000477a:	46c0      	nop			; (mov r8, r8)

1000477c <Dictionary_927>:
1000477c:	100047b8 			; <UNDEFINED> instruction: 0x100047b8
10004780:	640e0000 	strvs	r0, [lr]
10004784:	69746369 	ldmdbvs	r4!, {r0, r3, r5, r6, r8, r9, sp, lr}^
10004788:	72616e6f 	rsbvc	r6, r1, #1776	; 0x6f0
1000478c:	78656e79 	stmdavc	r5!, {r0, r3, r4, r5, r6, r9, sl, fp, sp, lr}^
10004790:	b5030074 	strlt	r0, [r3, #-116]	; 0x74

10004792 <Code_927>:
10004792:	b503      	push	{r0, r1, lr}
10004794:	6831      	ldr	r1, [r6, #0]
10004796:	4839      	ldr	r0, [pc, #228]	; (1000487c <find_not_found+0x26>)
10004798:	4281      	cmp	r1, r0
1000479a:	d007      	beq.n	100047ac <Code_927+0x1a>
1000479c:	7988      	ldrb	r0, [r1, #6]
1000479e:	28ff      	cmp	r0, #255	; 0xff
100047a0:	d004      	beq.n	100047ac <Code_927+0x1a>
100047a2:	000e      	movs	r6, r1
100047a4:	3f04      	subs	r7, #4
100047a6:	603e      	str	r6, [r7, #0]
100047a8:	2600      	movs	r6, #0
100047aa:	bd03      	pop	{r0, r1, pc}
100047ac:	3f04      	subs	r7, #4
100047ae:	603e      	str	r6, [r7, #0]
100047b0:	2600      	movs	r6, #0
100047b2:	43f6      	mvns	r6, r6
100047b4:	bd03      	pop	{r0, r1, pc}
100047b6:	46c0      	nop			; (mov r8, r8)

100047b8 <Dictionary_931>:
100047b8:	100047ec 	andne	r4, r0, ip, ror #15
100047bc:	730a0000 	movwvc	r0, #40960	; 0xa000
100047c0:	7370696b 	cmnvc	r0, #1753088	; 0x1ac000
100047c4:	6e697274 	mcrvs	2, 3, r7, cr9, cr4, {3}
100047c8:	78310067 	ldmdavc	r1!, {r0, r1, r2, r5, r6}

100047ca <Code_931>:
100047ca:	7831      	ldrb	r1, [r6, #0]
100047cc:	3101      	adds	r1, #1
100047ce:	2201      	movs	r2, #1
100047d0:	400a      	ands	r2, r1
100047d2:	1889      	adds	r1, r1, r2
100047d4:	1876      	adds	r6, r6, r1
100047d6:	4770      	bx	lr

100047d8 <skipstring>:
100047d8:	b406      	push	{r1, r2}
100047da:	7801      	ldrb	r1, [r0, #0]
100047dc:	3101      	adds	r1, #1
100047de:	2201      	movs	r2, #1
100047e0:	400a      	ands	r2, r1
100047e2:	1889      	adds	r1, r1, r2
100047e4:	1840      	adds	r0, r0, r1
100047e6:	bc06      	pop	{r1, r2}
100047e8:	4770      	bx	lr
100047ea:	46c0      	nop			; (mov r8, r8)

100047ec <Dictionary_932>:
100047ec:	10004884 	andne	r4, r0, r4, lsl #17
100047f0:	66040000 	strvs	r0, [r4], -r0
100047f4:	00646e69 	rsbeq	r6, r4, r9, ror #28

100047f8 <Code_932>:
100047f8:	b53f      	push	{r0, r1, r2, r3, r4, r5, lr}
100047fa:	2200      	movs	r2, #0
100047fc:	2300      	movs	r3, #0
100047fe:	0035      	movs	r5, r6
10004800:	cf40      	ldmia	r7!, {r6}
10004802:	0034      	movs	r4, r6
10004804:	cf40      	ldmia	r7!, {r6}
10004806:	f7ff ffac 	bl	10004762 <Code_925>
1000480a:	481d      	ldr	r0, [pc, #116]	; (10004880 <find_not_found+0x2a>)
1000480c:	88b1      	ldrh	r1, [r6, #4]
1000480e:	4288      	cmp	r0, r1
10004810:	d017      	beq.n	10004842 <Code_932+0x4a>
10004812:	3f04      	subs	r7, #4
10004814:	603e      	str	r6, [r7, #0]
10004816:	3606      	adds	r6, #6
10004818:	f7ff f826 	bl	10003868 <Code_638>
1000481c:	3f04      	subs	r7, #4
1000481e:	603e      	str	r6, [r7, #0]
10004820:	0026      	movs	r6, r4
10004822:	3f04      	subs	r7, #4
10004824:	603e      	str	r6, [r7, #0]
10004826:	002e      	movs	r6, r5
10004828:	f7fe ff51 	bl	100036ce <Code_600>
1000482c:	2e00      	cmp	r6, #0
1000482e:	cf40      	ldmia	r7!, {r6}
10004830:	d007      	beq.n	10004842 <Code_932+0x4a>
10004832:	1db0      	adds	r0, r6, #6
10004834:	f7ff ffd0 	bl	100047d8 <skipstring>
10004838:	0002      	movs	r2, r0
1000483a:	000b      	movs	r3, r1
1000483c:	480c      	ldr	r0, [pc, #48]	; (10004870 <find_not_found+0x1a>)
1000483e:	4282      	cmp	r2, r0
10004840:	d204      	bcs.n	1000484c <Code_932+0x54>
10004842:	f7ff ffa6 	bl	10004792 <Code_927>
10004846:	0030      	movs	r0, r6
10004848:	cf40      	ldmia	r7!, {r6}
1000484a:	d0de      	beq.n	1000480a <Code_932+0x12>
1000484c:	0016      	movs	r6, r2
1000484e:	3f04      	subs	r7, #4
10004850:	603e      	str	r6, [r7, #0]
10004852:	001e      	movs	r6, r3
10004854:	bd3f      	pop	{r0, r1, r2, r3, r4, r5, pc}

10004856 <find_not_found>:
10004856:	b500      	push	{lr}
10004858:	0031      	movs	r1, r6
1000485a:	6838      	ldr	r0, [r7, #0]
1000485c:	f7ff ffcc 	bl	100047f8 <Code_932>
10004860:	683a      	ldr	r2, [r7, #0]
10004862:	2a00      	cmp	r2, #0
10004864:	d101      	bne.n	1000486a <find_not_found+0x14>
10004866:	f000 ff29 	bl	100056bc <not_found_addr_r0_len_r1>
1000486a:	bd00      	pop	{pc}
1000486c:	200000f4 	strdcs	r0, [r0], -r4
10004870:	200000f4 	strdcs	r0, [r0], -r4
10004874:	10001018 	andne	r1, r0, r8, lsl r0
10004878:	200000f8 	strdcs	r0, [r0], -r8
1000487c:	ffffffff 			; <UNDEFINED> instruction: 0xffffffff
10004880:	0000ffff 	strdeq	pc, [r0], -pc	; <UNPREDICTABLE>

10004884 <Dictionary_945>:
10004884:	100048e0 	andne	r4, r0, r0, ror #17
10004888:	63060000 	movwvs	r0, #24576	; 0x6000
1000488c:	706d756a 	rsbvc	r7, sp, sl, ror #10
10004890:	0032002c 	eorseq	r0, r2, ip, lsr #32

10004892 <Code_945>:
10004892:	0032      	movs	r2, r6
10004894:	cf40      	ldmia	r7!, {r6}
10004896:	0031      	movs	r1, r6
10004898:	cf40      	ldmia	r7!, {r6}
1000489a:	1b8b      	subs	r3, r1, r6
1000489c:	3b04      	subs	r3, #4
1000489e:	49e5      	ldr	r1, [pc, #916]	; (10004c34 <Code_1024+0x10>)
100048a0:	4019      	ands	r1, r3
100048a2:	2900      	cmp	r1, #0
100048a4:	d00d      	beq.n	100048c2 <jump_too_far+0x16>
100048a6:	48e4      	ldr	r0, [pc, #912]	; (10004c38 <Code_1024+0x14>)
100048a8:	4281      	cmp	r1, r0
100048aa:	d00a      	beq.n	100048c2 <jump_too_far+0x16>

100048ac <jump_too_far>:
100048ac:	f7fe ff9c 	bl	100037e8 <dotgaensefuesschen>
100048b0:	6d754a0d 	vldmdbvs	r5!, {s9-s21}
100048b4:	6f742070 	svcvs	0x00742070
100048b8:	6166206f 	cmnvs	r6, pc, rrx
100048bc:	f0000a72 			; <UNDEFINED> instruction: 0xf0000a72
100048c0:	ff49 105b 	vqadd.u8	<illegal reg q8.5>, <illegal reg q4.5>, <illegal reg q5.5>
100048c4:	21ff      	movs	r1, #255	; 0xff
100048c6:	400b      	ands	r3, r1
100048c8:	4313      	orrs	r3, r2
100048ca:	0030      	movs	r0, r6
100048cc:	001e      	movs	r6, r3

100048ce <sprungbefehl_einfuegen>:
100048ce:	b500      	push	{lr}
100048d0:	4ada      	ldr	r2, [pc, #872]	; (10004c3c <Code_1024+0x18>)
100048d2:	6813      	ldr	r3, [r2, #0]
100048d4:	6010      	str	r0, [r2, #0]
100048d6:	f7ff fcb8 	bl	1000424a <Code_836>
100048da:	6013      	str	r3, [r2, #0]
100048dc:	bd00      	pop	{pc}
100048de:	46c0      	nop			; (mov r8, r8)

100048e0 <Dictionary_949>:
100048e0:	10004918 	andne	r4, r0, r8, lsl r9
100048e4:	6a050000 	bvs	101448ec <FlashDictionaryEnde+0x1338ec>
100048e8:	2c706d75 	ldclcs	13, cr6, [r0], #-468	; 0xfffffe2c

100048ec <Code_949>:
100048ec:	0031      	movs	r1, r6
100048ee:	cf40      	ldmia	r7!, {r6}
100048f0:	0030      	movs	r0, r6
100048f2:	cf40      	ldmia	r7!, {r6}
100048f4:	1a0b      	subs	r3, r1, r0
100048f6:	3b04      	subs	r3, #4
100048f8:	49d1      	ldr	r1, [pc, #836]	; (10004c40 <Code_1024+0x1c>)
100048fa:	4019      	ands	r1, r3
100048fc:	2900      	cmp	r1, #0
100048fe:	d002      	beq.n	10004906 <Code_949+0x1a>
10004900:	4ad0      	ldr	r2, [pc, #832]	; (10004c44 <Code_1024+0x20>)
10004902:	4291      	cmp	r1, r2
10004904:	d1d2      	bne.n	100048ac <jump_too_far>
10004906:	105b      	asrs	r3, r3, #1
10004908:	4acf      	ldr	r2, [pc, #828]	; (10004c48 <Code_1024+0x24>)
1000490a:	4013      	ands	r3, r2
1000490c:	4acf      	ldr	r2, [pc, #828]	; (10004c4c <Code_1024+0x28>)
1000490e:	4313      	orrs	r3, r2
10004910:	3f04      	subs	r7, #4
10004912:	603e      	str	r6, [r7, #0]
10004914:	001e      	movs	r6, r3
10004916:	e7da      	b.n	100048ce <sprungbefehl_einfuegen>

10004918 <Dictionary_954>:
10004918:	10004930 	andne	r4, r0, r0, lsr r9
1000491c:	68040000 	stmdavs	r4, {}	; <UNPREDICTABLE>
10004920:	00657265 	rsbeq	r7, r5, r5, ror #4

10004924 <Code_954>:
10004924:	3f04      	subs	r7, #4
10004926:	603e      	str	r6, [r7, #0]
10004928:	4ec4      	ldr	r6, [pc, #784]	; (10004c3c <Code_1024+0x18>)
1000492a:	6836      	ldr	r6, [r6, #0]
1000492c:	4770      	bx	lr
1000492e:	46c0      	nop			; (mov r8, r8)

10004930 <Dictionary_956>:
10004930:	10004a58 	andne	r4, r0, r8, asr sl
10004934:	660d0000 	strvs	r0, [sp], -r0
10004938:	6873616c 	ldmdavs	r3!, {r2, r3, r5, r6, r8, sp, lr}^
1000493c:	2d726176 	ldfcse	f6, [r2, #-472]!	; 0xfffffe28
10004940:	65726568 	ldrbvs	r6, [r2, #-1384]!	; 0x568

10004944 <Code_956>:
10004944:	3f04      	subs	r7, #4
10004946:	603e      	str	r6, [r7, #0]
10004948:	4ec1      	ldr	r6, [pc, #772]	; (10004c50 <Code_1024+0x2c>)
1000494a:	6836      	ldr	r6, [r6, #0]
1000494c:	4770      	bx	lr

1000494e <nullprobekomma>:
1000494e:	b500      	push	{lr}
10004950:	3f04      	subs	r7, #4
10004952:	603e      	str	r6, [r7, #0]
10004954:	4ebf      	ldr	r6, [pc, #764]	; (10004c54 <Code_1024+0x30>)
10004956:	f7ff fc78 	bl	1000424a <Code_836>
1000495a:	3f04      	subs	r7, #4
1000495c:	603e      	str	r6, [r7, #0]
1000495e:	4ebe      	ldr	r6, [pc, #760]	; (10004c58 <Code_1024+0x34>)
10004960:	f7ff fc73 	bl	1000424a <Code_836>
10004964:	bd00      	pop	{pc}

10004966 <branch_r>:
10004966:	e7dd      	b.n	10004924 <Code_954>

10004968 <r_branch_jne>:
10004968:	b500      	push	{lr}
1000496a:	f000 f837 	bl	100049dc <branch_v>
1000496e:	6839      	ldr	r1, [r7, #0]
10004970:	603e      	str	r6, [r7, #0]
10004972:	460e      	mov	r6, r1
10004974:	3f04      	subs	r7, #4
10004976:	603e      	str	r6, [r7, #0]
10004978:	4eb8      	ldr	r6, [pc, #736]	; (10004c5c <Code_1024+0x38>)
1000497a:	f7ff ff8a 	bl	10004892 <Code_945>
1000497e:	bd00      	pop	{pc}

10004980 <r_branch_jvc>:
10004980:	b500      	push	{lr}
10004982:	f000 f82b 	bl	100049dc <branch_v>
10004986:	6839      	ldr	r1, [r7, #0]
10004988:	603e      	str	r6, [r7, #0]
1000498a:	460e      	mov	r6, r1
1000498c:	3f04      	subs	r7, #4
1000498e:	603e      	str	r6, [r7, #0]
10004990:	4eb3      	ldr	r6, [pc, #716]	; (10004c60 <Code_1024+0x3c>)
10004992:	f7ff ff7e 	bl	10004892 <Code_945>
10004996:	bd00      	pop	{pc}

10004998 <r_nullbranch>:
10004998:	b500      	push	{lr}
1000499a:	f7ff ffd8 	bl	1000494e <nullprobekomma>
1000499e:	f000 f81d 	bl	100049dc <branch_v>
100049a2:	6839      	ldr	r1, [r7, #0]
100049a4:	603e      	str	r6, [r7, #0]
100049a6:	460e      	mov	r6, r1
100049a8:	3f04      	subs	r7, #4
100049aa:	603e      	str	r6, [r7, #0]
100049ac:	4ead      	ldr	r6, [pc, #692]	; (10004c64 <Code_1024+0x40>)
100049ae:	f7ff ff70 	bl	10004892 <Code_945>
100049b2:	bd00      	pop	{pc}

100049b4 <r_branch>:
100049b4:	b500      	push	{lr}
100049b6:	f000 f811 	bl	100049dc <branch_v>
100049ba:	6839      	ldr	r1, [r7, #0]
100049bc:	603e      	str	r6, [r7, #0]
100049be:	460e      	mov	r6, r1
100049c0:	f7ff ff94 	bl	100048ec <Code_949>
100049c4:	bd00      	pop	{pc}

100049c6 <nullbranch_v>:
100049c6:	b500      	push	{lr}
100049c8:	f7ff ffc1 	bl	1000494e <nullprobekomma>
100049cc:	f7ff ffaa 	bl	10004924 <Code_954>
100049d0:	3f04      	subs	r7, #4
100049d2:	603e      	str	r6, [r7, #0]
100049d4:	2602      	movs	r6, #2
100049d6:	f7ff fcab 	bl	10004330 <Code_856>
100049da:	bd00      	pop	{pc}

100049dc <branch_v>:
100049dc:	b500      	push	{lr}
100049de:	f7ff ffa1 	bl	10004924 <Code_954>
100049e2:	3f04      	subs	r7, #4
100049e4:	603e      	str	r6, [r7, #0]
100049e6:	2602      	movs	r6, #2
100049e8:	f7ff fca2 	bl	10004330 <Code_856>
100049ec:	bd00      	pop	{pc}

100049ee <v_branch>:
100049ee:	b500      	push	{lr}
100049f0:	f7ff ff98 	bl	10004924 <Code_954>
100049f4:	f7ff ff7a 	bl	100048ec <Code_949>
100049f8:	bd00      	pop	{pc}

100049fa <v_nullbranch>:
100049fa:	b500      	push	{lr}
100049fc:	f7ff ff92 	bl	10004924 <Code_954>
10004a00:	3f04      	subs	r7, #4
10004a02:	603e      	str	r6, [r7, #0]
10004a04:	4e97      	ldr	r6, [pc, #604]	; (10004c64 <Code_1024+0x40>)
10004a06:	f7ff ff44 	bl	10004892 <Code_945>
10004a0a:	bd00      	pop	{pc}

10004a0c <v_casebranch>:
10004a0c:	b500      	push	{lr}
10004a0e:	f7ff ff89 	bl	10004924 <Code_954>
10004a12:	3f04      	subs	r7, #4
10004a14:	603e      	str	r6, [r7, #0]
10004a16:	4e91      	ldr	r6, [pc, #580]	; (10004c5c <Code_1024+0x38>)
10004a18:	f7ff ff3b 	bl	10004892 <Code_945>
10004a1c:	bd00      	pop	{pc}

10004a1e <allocator_nullsprungprobe>:
10004a1e:	b500      	push	{lr}
10004a20:	f7fc fc7b 	bl	1000131a <expect_one_element>
10004a24:	f7fc fbac 	bl	10001180 <tidyup_register_allocator_5os>
10004a28:	f7fc fbaf 	bl	1000118a <tidyup_register_allocator_4os>
10004a2c:	f7fc fbb2 	bl	10001194 <tidyup_register_allocator_3os>
10004a30:	6881      	ldr	r1, [r0, #8]
10004a32:	2928      	cmp	r1, #40	; 0x28
10004a34:	d101      	bne.n	10004a3a <allocator_nullsprungprobe+0x1c>
10004a36:	f7fc fcb9 	bl	100013ac <expect_nos_in_register>
10004a3a:	f7fc fcad 	bl	10001398 <expect_tos_in_register>
10004a3e:	3f04      	subs	r7, #4
10004a40:	603e      	str	r6, [r7, #0]
10004a42:	4e89      	ldr	r6, [pc, #548]	; (10004c68 <Code_1024+0x44>)
10004a44:	0209      	lsls	r1, r1, #8
10004a46:	430e      	orrs	r6, r1
10004a48:	f7ff fbff 	bl	1000424a <Code_836>
10004a4c:	f7fc fb5d 	bl	1000110a <eliminiere_tos>
10004a50:	f7fc fb8a 	bl	10001168 <tidyup_register_allocator>
10004a54:	bd00      	pop	{pc}
10004a56:	46c0      	nop			; (mov r8, r8)

10004a58 <Dictionary_982>:
10004a58:	10004ac8 	andne	r4, r0, r8, asr #21
10004a5c:	69020630 	stmdbvs	r2, {r4, r5, r9, sl}
10004a60:	b5000066 	strlt	r0, [r0, #-102]	; 0x66

10004a62 <Code_982>:
10004a62:	b500      	push	{lr}
10004a64:	f7ff ffaf 	bl	100049c6 <nullbranch_v>
10004a68:	3f04      	subs	r7, #4
10004a6a:	603e      	str	r6, [r7, #0]
10004a6c:	4e7d      	ldr	r6, [pc, #500]	; (10004c64 <Code_1024+0x40>)
10004a6e:	3f04      	subs	r7, #4
10004a70:	603e      	str	r6, [r7, #0]
10004a72:	2602      	movs	r6, #2
10004a74:	bd00      	pop	{pc}

10004a76 <struktur_if_allokator>:
10004a76:	b500      	push	{lr}
10004a78:	f7fc fce5 	bl	10001446 <push_lr_nachholen>
10004a7c:	f7fd fd7a 	bl	10002574 <eliminiere_tos_wenn_bmi>
10004a80:	6a81      	ldr	r1, [r0, #40]	; 0x28
10004a82:	2900      	cmp	r1, #0
10004a84:	d010      	beq.n	10004aa8 <struktur_if_allokator+0x32>
10004a86:	b402      	push	{r1}
10004a88:	f7fc fb6e 	bl	10001168 <tidyup_register_allocator>
10004a8c:	f7ff ff4a 	bl	10004924 <Code_954>
10004a90:	3f04      	subs	r7, #4
10004a92:	603e      	str	r6, [r7, #0]
10004a94:	2602      	movs	r6, #2
10004a96:	f7ff fc4b 	bl	10004330 <Code_856>
10004a9a:	3f04      	subs	r7, #4
10004a9c:	603e      	str	r6, [r7, #0]
10004a9e:	bc40      	pop	{r6}
10004aa0:	3f04      	subs	r7, #4
10004aa2:	603e      	str	r6, [r7, #0]
10004aa4:	2602      	movs	r6, #2
10004aa6:	bd00      	pop	{pc}
10004aa8:	f7ff ffb9 	bl	10004a1e <allocator_nullsprungprobe>
10004aac:	f7ff ff3a 	bl	10004924 <Code_954>
10004ab0:	3f04      	subs	r7, #4
10004ab2:	603e      	str	r6, [r7, #0]
10004ab4:	2602      	movs	r6, #2
10004ab6:	f7ff fc3b 	bl	10004330 <Code_856>
10004aba:	3f04      	subs	r7, #4
10004abc:	603e      	str	r6, [r7, #0]
10004abe:	4e69      	ldr	r6, [pc, #420]	; (10004c64 <Code_1024+0x40>)
10004ac0:	3f04      	subs	r7, #4
10004ac2:	603e      	str	r6, [r7, #0]
10004ac4:	2602      	movs	r6, #2
10004ac6:	bd00      	pop	{pc}

10004ac8 <Dictionary_998>:
10004ac8:	10004afc 	strdne	r4, [r0], -ip
10004acc:	65040030 	strvs	r0, [r4, #-48]	; 0x30
10004ad0:	0065736c 	rsbeq	r7, r5, ip, ror #6

10004ad4 <Code_998>:
10004ad4:	b500      	push	{lr}
10004ad6:	2e02      	cmp	r6, #2
10004ad8:	d126      	bne.n	10004b28 <strukturen_passen_nicht>
10004ada:	cf40      	ldmia	r7!, {r6}
10004adc:	f7ff ff7e 	bl	100049dc <branch_v>
10004ae0:	f7fd f9f6 	bl	10001ed0 <Code_214>
10004ae4:	f7ff ff1e 	bl	10004924 <Code_954>
10004ae8:	6839      	ldr	r1, [r7, #0]
10004aea:	603e      	str	r6, [r7, #0]
10004aec:	460e      	mov	r6, r1
10004aee:	f7ff fed0 	bl	10004892 <Code_945>
10004af2:	3f04      	subs	r7, #4
10004af4:	603e      	str	r6, [r7, #0]
10004af6:	2605      	movs	r6, #5
10004af8:	bd00      	pop	{pc}
10004afa:	46c0      	nop			; (mov r8, r8)

10004afc <Dictionary_1003>:
10004afc:	10004b48 	andne	r4, r0, r8, asr #22
10004b00:	74040030 	strvc	r0, [r4], #-48	; 0x30
10004b04:	006e6568 	rsbeq	r6, lr, r8, ror #10

10004b08 <Code_1003>:
10004b08:	2e05      	cmp	r6, #5
10004b0a:	d101      	bne.n	10004b10 <Code_1003+0x8>
10004b0c:	cf40      	ldmia	r7!, {r6}
10004b0e:	e76e      	b.n	100049ee <v_branch>
10004b10:	2e02      	cmp	r6, #2
10004b12:	d109      	bne.n	10004b28 <strukturen_passen_nicht>
10004b14:	cf40      	ldmia	r7!, {r6}
10004b16:	b500      	push	{lr}
10004b18:	f7ff ff04 	bl	10004924 <Code_954>
10004b1c:	6839      	ldr	r1, [r7, #0]
10004b1e:	603e      	str	r6, [r7, #0]
10004b20:	460e      	mov	r6, r1
10004b22:	f7ff feb6 	bl	10004892 <Code_945>
10004b26:	bd00      	pop	{pc}

10004b28 <strukturen_passen_nicht>:
10004b28:	f7fe fe5e 	bl	100037e8 <dotgaensefuesschen>
10004b2c:	72745317 	rsbsvc	r5, r4, #1543503872	; 0x5c000000
10004b30:	75746375 	ldrbvc	r6, [r4, #-885]!	; 0x375
10004b34:	20736572 	rsbscs	r6, r3, r2, ror r5
10004b38:	276e6f64 	strbcs	r6, [lr, -r4, ror #30]!
10004b3c:	616d2074 	smcvs	53764	; 0xd204
10004b40:	0a686374 	beq	11a1d918 <FlashDictionaryEnde+0x1a0c918>
10004b44:	f000 fe06 	bl	10005754 <Code_1247>

10004b48 <Dictionary_1008>:
10004b48:	10004b78 	andne	r4, r0, r8, ror fp
10004b4c:	72060030 	andvc	r0, r6, #48	; 0x30
10004b50:	61657065 	cmnvs	r5, r5, rrx
10004b54:	2e040074 	mcrcs	0, 0, r0, cr4, cr4, {3}

10004b56 <Code_1008>:
10004b56:	2e04      	cmp	r6, #4
10004b58:	d1e6      	bne.n	10004b28 <strukturen_passen_nicht>
10004b5a:	cf40      	ldmia	r7!, {r6}
10004b5c:	b500      	push	{lr}
10004b5e:	f7fd f99a 	bl	10001e96 <Code_213>
10004b62:	f7ff ff27 	bl	100049b4 <r_branch>
10004b66:	f7ff fedd 	bl	10004924 <Code_954>
10004b6a:	6839      	ldr	r1, [r7, #0]
10004b6c:	603e      	str	r6, [r7, #0]
10004b6e:	460e      	mov	r6, r1
10004b70:	f7ff fe8f 	bl	10004892 <Code_945>
10004b74:	bd00      	pop	{pc}
10004b76:	46c0      	nop			; (mov r8, r8)

10004b78 <Dictionary_1011>:
10004b78:	10004ba4 	andne	r4, r0, r4, lsr #23
10004b7c:	77050630 	smladxvc	r5, r0, r6, r0
10004b80:	656c6968 	strbvs	r6, [ip, #-2408]!	; 0x968

10004b84 <Code_1011>:
10004b84:	2e01      	cmp	r6, #1
10004b86:	d1cf      	bne.n	10004b28 <strukturen_passen_nicht>
10004b88:	cf40      	ldmia	r7!, {r6}
10004b8a:	b500      	push	{lr}
10004b8c:	f7ff ff69 	bl	10004a62 <Code_982>
10004b90:	3602      	adds	r6, #2
10004b92:	bd00      	pop	{pc}
10004b94:	2e01      	cmp	r6, #1
10004b96:	d1c7      	bne.n	10004b28 <strukturen_passen_nicht>
10004b98:	cf40      	ldmia	r7!, {r6}
10004b9a:	b500      	push	{lr}
10004b9c:	f7ff ff6b 	bl	10004a76 <struktur_if_allokator>
10004ba0:	3602      	adds	r6, #2
10004ba2:	bd00      	pop	{pc}

10004ba4 <Dictionary_1014>:
10004ba4:	10004c04 	andne	r4, r0, r4, lsl #24
10004ba8:	75050630 	strvc	r0, [r5, #-1584]	; 0x630
10004bac:	6c69746e 	cfstrdvs	mvd7, [r9], #-440	; 0xfffffe48

10004bb0 <Code_1014>:
10004bb0:	2e01      	cmp	r6, #1
10004bb2:	d1b9      	bne.n	10004b28 <strukturen_passen_nicht>
10004bb4:	cf40      	ldmia	r7!, {r6}
10004bb6:	e6ef      	b.n	10004998 <r_nullbranch>
10004bb8:	4770      	bx	lr
10004bba:	2e01      	cmp	r6, #1
10004bbc:	d1b4      	bne.n	10004b28 <strukturen_passen_nicht>
10004bbe:	cf40      	ldmia	r7!, {r6}
10004bc0:	b500      	push	{lr}
10004bc2:	f7fd fcd7 	bl	10002574 <eliminiere_tos_wenn_bmi>
10004bc6:	6a81      	ldr	r1, [r0, #40]	; 0x28
10004bc8:	2900      	cmp	r1, #0
10004bca:	d00d      	beq.n	10004be8 <Code_1014+0x38>
10004bcc:	b402      	push	{r1}
10004bce:	f7fc facb 	bl	10001168 <tidyup_register_allocator>
10004bd2:	f7ff ff03 	bl	100049dc <branch_v>
10004bd6:	6839      	ldr	r1, [r7, #0]
10004bd8:	603e      	str	r6, [r7, #0]
10004bda:	460e      	mov	r6, r1
10004bdc:	3f04      	subs	r7, #4
10004bde:	603e      	str	r6, [r7, #0]
10004be0:	bc40      	pop	{r6}
10004be2:	f7ff fe56 	bl	10004892 <Code_945>
10004be6:	bd00      	pop	{pc}
10004be8:	f7ff ff19 	bl	10004a1e <allocator_nullsprungprobe>
10004bec:	f7ff fef6 	bl	100049dc <branch_v>
10004bf0:	6839      	ldr	r1, [r7, #0]
10004bf2:	603e      	str	r6, [r7, #0]
10004bf4:	460e      	mov	r6, r1
10004bf6:	3f04      	subs	r7, #4
10004bf8:	603e      	str	r6, [r7, #0]
10004bfa:	4e1a      	ldr	r6, [pc, #104]	; (10004c64 <Code_1024+0x40>)
10004bfc:	f7ff fe49 	bl	10004892 <Code_945>
10004c00:	bd00      	pop	{pc}
10004c02:	46c0      	nop			; (mov r8, r8)

10004c04 <Dictionary_1022>:
10004c04:	10004c18 	andne	r4, r0, r8, lsl ip
10004c08:	61050030 	tstvs	r5, r0, lsr r0
10004c0c:	6e696167 	powvsez	f6, f1, f7

10004c10 <Code_1022>:
10004c10:	2e01      	cmp	r6, #1
10004c12:	d189      	bne.n	10004b28 <strukturen_passen_nicht>
10004c14:	cf40      	ldmia	r7!, {r6}
10004c16:	e6cd      	b.n	100049b4 <r_branch>

10004c18 <Dictionary_1024>:
10004c18:	10004c6c 	andne	r4, r0, ip, ror #24
10004c1c:	62050030 	andvs	r0, r5, #48	; 0x30
10004c20:	6e696765 	cdpvs	7, 6, cr6, cr9, cr5, {3}

10004c24 <Code_1024>:
10004c24:	b500      	push	{lr}
10004c26:	f7ff fe9e 	bl	10004966 <branch_r>
10004c2a:	3f04      	subs	r7, #4
10004c2c:	603e      	str	r6, [r7, #0]
10004c2e:	2601      	movs	r6, #1
10004c30:	bd00      	pop	{pc}
10004c32:	ff010000 			; <UNDEFINED> instruction: 0xff010000
10004c36:	ff00ffff 			; <UNDEFINED> instruction: 0xff00ffff
10004c3a:	00f4ffff 	ldrshteq	pc, [r4], #255	; 0xff	; <UNPREDICTABLE>
10004c3e:	f8012000 			; <UNDEFINED> instruction: 0xf8012000
10004c42:	f800ffff 			; <UNDEFINED> instruction: 0xf800ffff
10004c46:	07ffffff 			; <UNDEFINED> instruction: 0x07ffffff
10004c4a:	e0000000 	and	r0, r0, r0
10004c4e:	01180000 	tsteq	r8, r0
10004c52:	2e002000 	cdpcs	0, 0, cr2, cr0, cr0, {0}
10004c56:	cf400000 	svcgt	0x00400000
10004c5a:	d1000000 	mrsle	r0, (UNDEF: 0)
10004c5e:	d7000000 	strle	r0, [r0, -r0]
10004c62:	d0000000 	andle	r0, r0, r0
10004c66:	28000000 	stmdacs	r0, {}	; <UNPREDICTABLE>
	...

10004c6c <Dictionary_1027>:
10004c6c:	10004c84 	andne	r4, r0, r4, lsl #25
10004c70:	6b010220 	blvs	100454f8 <FlashDictionaryEnde+0x344f8>

10004c74 <Code_1027>:
10004c74:	3f04      	subs	r7, #4
10004c76:	603e      	str	r6, [r7, #0]
10004c78:	9e02      	ldr	r6, [sp, #8]
10004c7a:	4770      	bx	lr
10004c7c:	3f04      	subs	r7, #4
10004c7e:	603e      	str	r6, [r7, #0]
10004c80:	4e8e      	ldr	r6, [pc, #568]	; (10004ebc <gemeinsame_schleifenoptimierung+0x7a>)
10004c82:	e00a      	b.n	10004c9a <loop_j_allocator>

10004c84 <Dictionary_1031>:
10004c84:	10004cb0 			; <UNDEFINED> instruction: 0x10004cb0
10004c88:	6a010220 	bvs	10045510 <FlashDictionaryEnde+0x34510>

10004c8c <Code_1031>:
10004c8c:	3f04      	subs	r7, #4
10004c8e:	603e      	str	r6, [r7, #0]
10004c90:	9e00      	ldr	r6, [sp, #0]
10004c92:	4770      	bx	lr

10004c94 <rfetch_allocator>:
10004c94:	3f04      	subs	r7, #4
10004c96:	603e      	str	r6, [r7, #0]
10004c98:	4e89      	ldr	r6, [pc, #548]	; (10004ec0 <gemeinsame_schleifenoptimierung+0x7e>)

10004c9a <loop_j_allocator>:
10004c9a:	b500      	push	{lr}
10004c9c:	f7fc fa2b 	bl	100010f6 <befreie_tos>
10004ca0:	f7fc fb08 	bl	100012b4 <get_free_register>
10004ca4:	6003      	str	r3, [r0, #0]
10004ca6:	021b      	lsls	r3, r3, #8
10004ca8:	431e      	orrs	r6, r3
10004caa:	f7ff face 	bl	1000424a <Code_836>
10004cae:	bd00      	pop	{pc}

10004cb0 <Dictionary_1035>:
10004cb0:	10004cdc 	ldrdne	r4, [r0], -ip
10004cb4:	69010220 	stmdbvs	r1, {r5, r9}

10004cb8 <Code_1035>:
10004cb8:	3f04      	subs	r7, #4
10004cba:	603e      	str	r6, [r7, #0]
10004cbc:	0026      	movs	r6, r4
10004cbe:	4770      	bx	lr
10004cc0:	b500      	push	{lr}
10004cc2:	3f04      	subs	r7, #4
10004cc4:	603e      	str	r6, [r7, #0]
10004cc6:	4e7f      	ldr	r6, [pc, #508]	; (10004ec4 <gemeinsame_schleifenoptimierung+0x82>)
10004cc8:	f7fc fa15 	bl	100010f6 <befreie_tos>
10004ccc:	f7fc faf2 	bl	100012b4 <get_free_register>
10004cd0:	6003      	str	r3, [r0, #0]
10004cd2:	431e      	orrs	r6, r3
10004cd4:	f7ff fab9 	bl	1000424a <Code_836>
10004cd8:	bd00      	pop	{pc}
10004cda:	46c0      	nop			; (mov r8, r8)

10004cdc <Dictionary_1040>:
10004cdc:	10004d1c 	andne	r4, r0, ip, lsl sp
10004ce0:	6c050030 	stcvs	0, cr0, [r5], {48}	; 0x30
10004ce4:	65766165 	ldrbvs	r6, [r6, #-357]!	; 0x165

10004ce8 <Code_1040>:
10004ce8:	b500      	push	{lr}
10004cea:	4877      	ldr	r0, [pc, #476]	; (10004ec8 <gemeinsame_schleifenoptimierung+0x86>)
10004cec:	6801      	ldr	r1, [r0, #0]
10004cee:	003b      	movs	r3, r7
10004cf0:	3f04      	subs	r7, #4
10004cf2:	681a      	ldr	r2, [r3, #0]
10004cf4:	3b04      	subs	r3, #4
10004cf6:	601a      	str	r2, [r3, #0]
10004cf8:	3308      	adds	r3, #8
10004cfa:	428b      	cmp	r3, r1
10004cfc:	d1f9      	bne.n	10004cf2 <Code_1040+0xa>
10004cfe:	b403      	push	{r0, r1}
10004d00:	f7ff fe6c 	bl	100049dc <branch_v>
10004d04:	bc03      	pop	{r0, r1}
10004d06:	0033      	movs	r3, r6
10004d08:	cf40      	ldmia	r7!, {r6}
10004d0a:	3904      	subs	r1, #4
10004d0c:	600b      	str	r3, [r1, #0]
10004d0e:	6001      	str	r1, [r0, #0]
10004d10:	3904      	subs	r1, #4
10004d12:	680a      	ldr	r2, [r1, #0]
10004d14:	3201      	adds	r2, #1
10004d16:	600a      	str	r2, [r1, #0]
10004d18:	bd00      	pop	{pc}
10004d1a:	46c0      	nop			; (mov r8, r8)

10004d1c <Dictionary_1042>:
10004d1c:	10004d30 	andne	r4, r0, r0, lsr sp
10004d20:	75060020 	strvc	r0, [r6, #-32]
10004d24:	6f6f6c6e 	svcvs	0x006f6c6e
10004d28:	bc300070 	ldclt	0, cr0, [r0], #-448	; 0xfffffe40

10004d2a <Code_1042>:
10004d2a:	bc30      	pop	{r4, r5}
10004d2c:	4770      	bx	lr
10004d2e:	46c0      	nop			; (mov r8, r8)

10004d30 <Dictionary_1043>:
10004d30:	10004d68 	andne	r4, r0, r8, ror #26
10004d34:	2b050030 	blcs	10144dfc <FlashDictionaryEnde+0x133dfc>
10004d38:	706f6f6c 	rsbvc	r6, pc, ip, ror #30

10004d3c <Code_1043>:
10004d3c:	2e03      	cmp	r6, #3
10004d3e:	d000      	beq.n	10004d42 <Code_1043+0x6>
10004d40:	e6f2      	b.n	10004b28 <strukturen_passen_nicht>
10004d42:	cf40      	ldmia	r7!, {r6}
10004d44:	b500      	push	{lr}
10004d46:	3f04      	subs	r7, #4
10004d48:	603e      	str	r6, [r7, #0]
10004d4a:	4e60      	ldr	r6, [pc, #384]	; (10004ecc <gemeinsame_schleifenoptimierung+0x8a>)
10004d4c:	f7ff f865 	bl	10003e1a <Code_756>
10004d50:	f7ff fe16 	bl	10004980 <r_branch_jvc>
10004d54:	e01a      	b.n	10004d8c <loop_intern>

10004d56 <struktur_plusloop>:
10004d56:	2080      	movs	r0, #128	; 0x80
10004d58:	0600      	lsls	r0, r0, #24
10004d5a:	1900      	adds	r0, r0, r4
10004d5c:	19a4      	adds	r4, r4, r6
10004d5e:	1b40      	subs	r0, r0, r5
10004d60:	1980      	adds	r0, r0, r6
10004d62:	cf40      	ldmia	r7!, {r6}
10004d64:	4770      	bx	lr
10004d66:	46c0      	nop			; (mov r8, r8)

10004d68 <Dictionary_1047>:
10004d68:	10004dac 	andne	r4, r0, ip, lsr #27
10004d6c:	6c040030 	stcvs	0, cr0, [r4], {48}	; 0x30
10004d70:	00706f6f 	rsbseq	r6, r0, pc, ror #30

10004d74 <Code_1047>:
10004d74:	2e03      	cmp	r6, #3
10004d76:	d000      	beq.n	10004d7a <Code_1047+0x6>
10004d78:	e6d6      	b.n	10004b28 <strukturen_passen_nicht>
10004d7a:	cf40      	ldmia	r7!, {r6}
10004d7c:	b500      	push	{lr}
10004d7e:	3f04      	subs	r7, #4
10004d80:	603e      	str	r6, [r7, #0]
10004d82:	4e53      	ldr	r6, [pc, #332]	; (10004ed0 <gemeinsame_schleifenoptimierung+0x8e>)
10004d84:	f7ff f849 	bl	10003e1a <Code_756>
10004d88:	f7ff fdee 	bl	10004968 <r_branch_jne>

10004d8c <loop_intern>:
10004d8c:	f000 f94a 	bl	10005024 <spruenge_einpflegen>
10004d90:	484d      	ldr	r0, [pc, #308]	; (10004ec8 <gemeinsame_schleifenoptimierung+0x86>)
10004d92:	0031      	movs	r1, r6
10004d94:	cf40      	ldmia	r7!, {r6}
10004d96:	6001      	str	r1, [r0, #0]
10004d98:	3f04      	subs	r7, #4
10004d9a:	603e      	str	r6, [r7, #0]
10004d9c:	4e4d      	ldr	r6, [pc, #308]	; (10004ed4 <gemeinsame_schleifenoptimierung+0x92>)
10004d9e:	f7ff f83c 	bl	10003e1a <Code_756>
10004da2:	bd00      	pop	{pc}

10004da4 <struktur_loop>:
10004da4:	3401      	adds	r4, #1
10004da6:	42ac      	cmp	r4, r5
10004da8:	4770      	bx	lr
10004daa:	46c0      	nop			; (mov r8, r8)

10004dac <Dictionary_1052>:
10004dac:	10004df4 	strdne	r4, [r0], -r4	; <UNPREDICTABLE>
10004db0:	64020230 	strvs	r0, [r2], #-560	; 0x230
10004db4:	b500006f 	strlt	r0, [r0, #-111]	; 0x6f

10004db6 <Code_1052>:
10004db6:	b500      	push	{lr}
10004db8:	3f04      	subs	r7, #4
10004dba:	603e      	str	r6, [r7, #0]
10004dbc:	4e46      	ldr	r6, [pc, #280]	; (10004ed8 <gemeinsame_schleifenoptimierung+0x96>)
10004dbe:	f7ff f82c 	bl	10003e1a <Code_756>

10004dc2 <do_rest_der_schleifenstruktur>:
10004dc2:	4841      	ldr	r0, [pc, #260]	; (10004ec8 <gemeinsame_schleifenoptimierung+0x86>)
10004dc4:	6801      	ldr	r1, [r0, #0]
10004dc6:	3f04      	subs	r7, #4
10004dc8:	603e      	str	r6, [r7, #0]
10004dca:	000e      	movs	r6, r1
10004dcc:	3f04      	subs	r7, #4
10004dce:	603e      	str	r6, [r7, #0]
10004dd0:	2600      	movs	r6, #0
10004dd2:	6007      	str	r7, [r0, #0]
10004dd4:	f7ff fdc7 	bl	10004966 <branch_r>
10004dd8:	3f04      	subs	r7, #4
10004dda:	603e      	str	r6, [r7, #0]
10004ddc:	2603      	movs	r6, #3
10004dde:	bd00      	pop	{pc}
10004de0:	b500      	push	{lr}
10004de2:	f000 f82e 	bl	10004e42 <gemeinsame_schleifenoptimierung>
10004de6:	e7ec      	b.n	10004dc2 <do_rest_der_schleifenstruktur>

10004de8 <struktur_do>:
10004de8:	b430      	push	{r4, r5}
10004dea:	0034      	movs	r4, r6
10004dec:	cf40      	ldmia	r7!, {r6}
10004dee:	0035      	movs	r5, r6
10004df0:	cf40      	ldmia	r7!, {r6}
10004df2:	4770      	bx	lr

10004df4 <Dictionary_1062>:
10004df4:	10004eec 	andne	r4, r0, ip, ror #29
10004df8:	3f030230 	svccc	0x00030230
10004dfc:	b5006f64 	strlt	r6, [r0, #-3940]	; 0xf64

10004dfe <Code_1062>:
10004dfe:	b500      	push	{lr}
10004e00:	3f04      	subs	r7, #4
10004e02:	603e      	str	r6, [r7, #0]
10004e04:	4e34      	ldr	r6, [pc, #208]	; (10004ed8 <gemeinsame_schleifenoptimierung+0x96>)
10004e06:	f7ff f808 	bl	10003e1a <Code_756>

10004e0a <qdo_rest_der_schleifenstruktur>:
10004e0a:	3f04      	subs	r7, #4
10004e0c:	603e      	str	r6, [r7, #0]
10004e0e:	4e33      	ldr	r6, [pc, #204]	; (10004edc <gemeinsame_schleifenoptimierung+0x9a>)
10004e10:	f7ff fa1b 	bl	1000424a <Code_836>
10004e14:	482c      	ldr	r0, [pc, #176]	; (10004ec8 <gemeinsame_schleifenoptimierung+0x86>)
10004e16:	6801      	ldr	r1, [r0, #0]
10004e18:	3f04      	subs	r7, #4
10004e1a:	603e      	str	r6, [r7, #0]
10004e1c:	000e      	movs	r6, r1
10004e1e:	f7ff fddd 	bl	100049dc <branch_v>
10004e22:	3601      	adds	r6, #1
10004e24:	3f04      	subs	r7, #4
10004e26:	603e      	str	r6, [r7, #0]
10004e28:	2601      	movs	r6, #1
10004e2a:	4827      	ldr	r0, [pc, #156]	; (10004ec8 <gemeinsame_schleifenoptimierung+0x86>)
10004e2c:	6007      	str	r7, [r0, #0]
10004e2e:	f7ff fd9a 	bl	10004966 <branch_r>
10004e32:	3f04      	subs	r7, #4
10004e34:	603e      	str	r6, [r7, #0]
10004e36:	2603      	movs	r6, #3
10004e38:	bd00      	pop	{pc}
10004e3a:	b500      	push	{lr}
10004e3c:	f000 f801 	bl	10004e42 <gemeinsame_schleifenoptimierung>
10004e40:	e7e3      	b.n	10004e0a <qdo_rest_der_schleifenstruktur>

10004e42 <gemeinsame_schleifenoptimierung>:
10004e42:	b500      	push	{lr}
10004e44:	f7fc faff 	bl	10001446 <push_lr_nachholen>
10004e48:	f7fc fa71 	bl	1000132e <expect_two_elements>
10004e4c:	f7fc f998 	bl	10001180 <tidyup_register_allocator_5os>
10004e50:	f7fc f99b 	bl	1000118a <tidyup_register_allocator_4os>
10004e54:	f7fc f99e 	bl	10001194 <tidyup_register_allocator_3os>
10004e58:	3f04      	subs	r7, #4
10004e5a:	603e      	str	r6, [r7, #0]
10004e5c:	4e20      	ldr	r6, [pc, #128]	; (10004ee0 <gemeinsame_schleifenoptimierung+0x9e>)
10004e5e:	f7ff f9f4 	bl	1000424a <Code_836>
10004e62:	6801      	ldr	r1, [r0, #0]
10004e64:	2928      	cmp	r1, #40	; 0x28
10004e66:	d007      	beq.n	10004e78 <gemeinsame_schleifenoptimierung+0x36>
10004e68:	3f04      	subs	r7, #4
10004e6a:	603e      	str	r6, [r7, #0]
10004e6c:	4e1d      	ldr	r6, [pc, #116]	; (10004ee4 <gemeinsame_schleifenoptimierung+0xa2>)
10004e6e:	00c9      	lsls	r1, r1, #3
10004e70:	430e      	orrs	r6, r1
10004e72:	f7ff f9ea 	bl	1000424a <Code_836>
10004e76:	e007      	b.n	10004e88 <gemeinsame_schleifenoptimierung+0x46>
10004e78:	3f04      	subs	r7, #4
10004e7a:	603e      	str	r6, [r7, #0]
10004e7c:	6846      	ldr	r6, [r0, #4]
10004e7e:	3f04      	subs	r7, #4
10004e80:	603e      	str	r6, [r7, #0]
10004e82:	2604      	movs	r6, #4
10004e84:	f7fe fdfe 	bl	10003a84 <Code_685>
10004e88:	6881      	ldr	r1, [r0, #8]
10004e8a:	2928      	cmp	r1, #40	; 0x28
10004e8c:	d007      	beq.n	10004e9e <gemeinsame_schleifenoptimierung+0x5c>
10004e8e:	3f04      	subs	r7, #4
10004e90:	603e      	str	r6, [r7, #0]
10004e92:	4e15      	ldr	r6, [pc, #84]	; (10004ee8 <gemeinsame_schleifenoptimierung+0xa6>)
10004e94:	00c9      	lsls	r1, r1, #3
10004e96:	430e      	orrs	r6, r1
10004e98:	f7ff f9d7 	bl	1000424a <Code_836>
10004e9c:	e007      	b.n	10004eae <gemeinsame_schleifenoptimierung+0x6c>
10004e9e:	3f04      	subs	r7, #4
10004ea0:	603e      	str	r6, [r7, #0]
10004ea2:	68c6      	ldr	r6, [r0, #12]
10004ea4:	3f04      	subs	r7, #4
10004ea6:	603e      	str	r6, [r7, #0]
10004ea8:	2605      	movs	r6, #5
10004eaa:	f7fe fdeb 	bl	10003a84 <Code_685>
10004eae:	f7fc f92c 	bl	1000110a <eliminiere_tos>
10004eb2:	f7fc f92a 	bl	1000110a <eliminiere_tos>
10004eb6:	f7fc f977 	bl	100011a8 <tidyup_register_allocator_tos>
10004eba:	bd00      	pop	{pc}
10004ebc:	00009802 	andeq	r9, r0, r2, lsl #16
10004ec0:	00009800 	andeq	r9, r0, r0, lsl #16
10004ec4:	00000020 	andeq	r0, r0, r0, lsr #32
10004ec8:	20000100 	andcs	r0, r0, r0, lsl #2
10004ecc:	10004d56 	andne	r4, r0, r6, asr sp
10004ed0:	10004da4 	andne	r4, r0, r4, lsr #27
10004ed4:	10004d2a 	andne	r4, r0, sl, lsr #26
10004ed8:	10004de8 	andne	r4, r0, r8, ror #27
10004edc:	000042ac 	andeq	r4, r0, ip, lsr #5
10004ee0:	0000b430 	andeq	fp, r0, r0, lsr r4
10004ee4:	00000004 	andeq	r0, r0, r4
10004ee8:	00000005 	andeq	r0, r0, r5

10004eec <Dictionary_1084>:
10004eec:	10004f0c 	andne	r4, r0, ip, lsl #30
10004ef0:	63040030 	movwvs	r0, #16432	; 0x4030
10004ef4:	00657361 	rsbeq	r7, r5, r1, ror #6

10004ef8 <Code_1084>:
10004ef8:	b500      	push	{lr}
10004efa:	f7fc faa4 	bl	10001446 <push_lr_nachholen>
10004efe:	3f04      	subs	r7, #4
10004f00:	603e      	str	r6, [r7, #0]
10004f02:	2600      	movs	r6, #0
10004f04:	3f04      	subs	r7, #4
10004f06:	603e      	str	r6, [r7, #0]
10004f08:	2608      	movs	r6, #8
10004f0a:	bd00      	pop	{pc}

10004f0c <Dictionary_1089>:
10004f0c:	10004f24 	andne	r4, r0, r4, lsr #30
10004f10:	3f030030 	svccc	0x00030030
10004f14:	4868666f 	stmdami	r8!, {r0, r1, r2, r3, r5, r6, r9, sl, sp, lr}^

10004f16 <Code_1089>:
10004f16:	4868      	ldr	r0, [pc, #416]	; (100050b8 <Code_1122+0x4c>)
10004f18:	e00a      	b.n	10004f30 <of_inneneinsprung>

10004f1a <struktur_qof>:
10004f1a:	3e01      	subs	r6, #1
10004f1c:	41b6      	sbcs	r6, r6
10004f1e:	cf40      	ldmia	r7!, {r6}
10004f20:	4770      	bx	lr
10004f22:	46c0      	nop			; (mov r8, r8)

10004f24 <Dictionary_1091>:
10004f24:	10004fc4 	andne	r4, r0, r4, asr #31
10004f28:	6f020230 	svcvs	0x00020230
10004f2c:	48630066 	stmdami	r3!, {r1, r2, r5, r6}^

10004f2e <Code_1091>:
10004f2e:	4863      	ldr	r0, [pc, #396]	; (100050bc <Code_1122+0x50>)

10004f30 <of_inneneinsprung>:
10004f30:	2e08      	cmp	r6, #8
10004f32:	d000      	beq.n	10004f36 <of_inneneinsprung+0x6>
10004f34:	e5f8      	b.n	10004b28 <strukturen_passen_nicht>
10004f36:	cf40      	ldmia	r7!, {r6}
10004f38:	b500      	push	{lr}
10004f3a:	3f04      	subs	r7, #4
10004f3c:	603e      	str	r6, [r7, #0]
10004f3e:	0006      	movs	r6, r0
10004f40:	f7fe ff6b 	bl	10003e1a <Code_756>

10004f44 <of_opcodiereinsprung>:
10004f44:	f7ff fd4a 	bl	100049dc <branch_v>
10004f48:	6839      	ldr	r1, [r7, #0]
10004f4a:	603e      	str	r6, [r7, #0]
10004f4c:	460e      	mov	r6, r1
10004f4e:	3601      	adds	r6, #1
10004f50:	3f04      	subs	r7, #4
10004f52:	603e      	str	r6, [r7, #0]
10004f54:	2609      	movs	r6, #9
10004f56:	3f04      	subs	r7, #4
10004f58:	603e      	str	r6, [r7, #0]
10004f5a:	4e59      	ldr	r6, [pc, #356]	; (100050c0 <Code_1122+0x54>)
10004f5c:	f7ff f975 	bl	1000424a <Code_836>
10004f60:	bd00      	pop	{pc}
10004f62:	2e08      	cmp	r6, #8
10004f64:	d000      	beq.n	10004f68 <of_opcodiereinsprung+0x24>
10004f66:	e5df      	b.n	10004b28 <strukturen_passen_nicht>
10004f68:	cf40      	ldmia	r7!, {r6}
10004f6a:	b500      	push	{lr}
10004f6c:	f7fc f9df 	bl	1000132e <expect_two_elements>
10004f70:	f7fc f906 	bl	10001180 <tidyup_register_allocator_5os>
10004f74:	f7fc f909 	bl	1000118a <tidyup_register_allocator_4os>
10004f78:	f7fc f90c 	bl	10001194 <tidyup_register_allocator_3os>
10004f7c:	3f04      	subs	r7, #4
10004f7e:	603e      	str	r6, [r7, #0]
10004f80:	4e50      	ldr	r6, [pc, #320]	; (100050c4 <Code_1122+0x58>)
10004f82:	f7fc fa13 	bl	100013ac <expect_nos_in_register>
10004f86:	430e      	orrs	r6, r1
10004f88:	6802      	ldr	r2, [r0, #0]
10004f8a:	2a28      	cmp	r2, #40	; 0x28
10004f8c:	d10d      	bne.n	10004faa <of_opcodiereinsprung+0x66>
10004f8e:	6842      	ldr	r2, [r0, #4]
10004f90:	2aff      	cmp	r2, #255	; 0xff
10004f92:	d807      	bhi.n	10004fa4 <of_opcodiereinsprung+0x60>
10004f94:	cf40      	ldmia	r7!, {r6}
10004f96:	3f04      	subs	r7, #4
10004f98:	603e      	str	r6, [r7, #0]
10004f9a:	4e4b      	ldr	r6, [pc, #300]	; (100050c8 <Code_1122+0x5c>)
10004f9c:	4316      	orrs	r6, r2
10004f9e:	0209      	lsls	r1, r1, #8
10004fa0:	430e      	orrs	r6, r1
10004fa2:	e004      	b.n	10004fae <of_opcodiereinsprung+0x6a>
10004fa4:	f7fc f9f8 	bl	10001398 <expect_tos_in_register>
10004fa8:	000a      	movs	r2, r1
10004faa:	00d2      	lsls	r2, r2, #3
10004fac:	4316      	orrs	r6, r2
10004fae:	f7ff f94c 	bl	1000424a <Code_836>
10004fb2:	f7fc f8aa 	bl	1000110a <eliminiere_tos>
10004fb6:	f7fc f8f7 	bl	100011a8 <tidyup_register_allocator_tos>
10004fba:	e7c3      	b.n	10004f44 <of_opcodiereinsprung>

10004fbc <struktur_of>:
10004fbc:	0030      	movs	r0, r6
10004fbe:	cf40      	ldmia	r7!, {r6}
10004fc0:	42b0      	cmp	r0, r6
10004fc2:	4770      	bx	lr

10004fc4 <Dictionary_1107>:
10004fc4:	10004ffc 	strdne	r4, [r0], -ip
10004fc8:	65050030 	strvs	r0, [r5, #-48]	; 0x30
10004fcc:	666f646e 	strbtvs	r6, [pc], -lr, ror #8

10004fd0 <Code_1107>:
10004fd0:	2e09      	cmp	r6, #9
10004fd2:	d000      	beq.n	10004fd6 <Code_1107+0x6>
10004fd4:	e5a8      	b.n	10004b28 <strukturen_passen_nicht>
10004fd6:	cf40      	ldmia	r7!, {r6}
10004fd8:	b500      	push	{lr}
10004fda:	b440      	push	{r6}
10004fdc:	cf40      	ldmia	r7!, {r6}
10004fde:	f7ff fcfd 	bl	100049dc <branch_v>
10004fe2:	6839      	ldr	r1, [r7, #0]
10004fe4:	603e      	str	r6, [r7, #0]
10004fe6:	460e      	mov	r6, r1
10004fe8:	f7ff fd10 	bl	10004a0c <v_casebranch>
10004fec:	3f04      	subs	r7, #4
10004fee:	603e      	str	r6, [r7, #0]
10004ff0:	bc40      	pop	{r6}
10004ff2:	3f04      	subs	r7, #4
10004ff4:	603e      	str	r6, [r7, #0]
10004ff6:	2608      	movs	r6, #8
10004ff8:	bd00      	pop	{pc}
10004ffa:	46c0      	nop			; (mov r8, r8)

10004ffc <Dictionary_1115>:
10004ffc:	1000504c 	andne	r5, r0, ip, asr #32
10005000:	65070030 	strvs	r0, [r7, #-48]	; 0x30
10005004:	6163646e 	cmnvs	r3, lr, ror #8
10005008:	2e086573 	cfrshl64cs	mvdx8, mvdx3, r6

1000500a <Code_1115>:
1000500a:	2e08      	cmp	r6, #8
1000500c:	d000      	beq.n	10005010 <Code_1115+0x6>
1000500e:	e58b      	b.n	10004b28 <strukturen_passen_nicht>
10005010:	cf40      	ldmia	r7!, {r6}
10005012:	b500      	push	{lr}
10005014:	3f04      	subs	r7, #4
10005016:	603e      	str	r6, [r7, #0]
10005018:	4e29      	ldr	r6, [pc, #164]	; (100050c0 <Code_1122+0x54>)
1000501a:	f7ff f916 	bl	1000424a <Code_836>
1000501e:	f000 f801 	bl	10005024 <spruenge_einpflegen>
10005022:	bd00      	pop	{pc}

10005024 <spruenge_einpflegen>:
10005024:	b500      	push	{lr}
10005026:	0030      	movs	r0, r6
10005028:	cf40      	ldmia	r7!, {r6}
1000502a:	2800      	cmp	r0, #0
1000502c:	d00d      	beq.n	1000504a <spruenge_einpflegen+0x26>
1000502e:	b403      	push	{r0, r1}
10005030:	2101      	movs	r1, #1
10005032:	4031      	ands	r1, r6
10005034:	2900      	cmp	r1, #0
10005036:	d003      	beq.n	10005040 <spruenge_einpflegen+0x1c>
10005038:	3e01      	subs	r6, #1
1000503a:	f7ff fcde 	bl	100049fa <v_nullbranch>
1000503e:	e001      	b.n	10005044 <spruenge_einpflegen+0x20>
10005040:	f7ff fcd5 	bl	100049ee <v_branch>
10005044:	bc03      	pop	{r0, r1}
10005046:	3801      	subs	r0, #1
10005048:	e7ef      	b.n	1000502a <spruenge_einpflegen+0x6>
1000504a:	bd00      	pop	{pc}

1000504c <Dictionary_1120>:
1000504c:	10005060 	andne	r5, r0, r0, rrx
10005050:	74050000 	strvc	r0, [r5]
10005054:	6e656b6f 	vnmulvs.f64	d22, d5, d31

10005058 <Code_1120>:
10005058:	3f04      	subs	r7, #4
1000505a:	603e      	str	r6, [r7, #0]
1000505c:	2620      	movs	r6, #32
1000505e:	e005      	b.n	1000506c <Code_1122>

10005060 <Dictionary_1122>:
10005060:	100050d0 	ldrdne	r5, [r0], -r0
10005064:	70050000 	andvc	r0, r5, r0
10005068:	65737261 	ldrbvs	r7, [r3, #-609]!	; 0x261

1000506c <Code_1122>:
1000506c:	b510      	push	{r4, lr}
1000506e:	f7fe fb02 	bl	10003676 <Code_593>
10005072:	0031      	movs	r1, r6
10005074:	cf40      	ldmia	r7!, {r6}
10005076:	0030      	movs	r0, r6
10005078:	cf40      	ldmia	r7!, {r6}
1000507a:	4a14      	ldr	r2, [pc, #80]	; (100050cc <Code_1122+0x60>)
1000507c:	6812      	ldr	r2, [r2, #0]
1000507e:	1884      	adds	r4, r0, r2
10005080:	2e20      	cmp	r6, #32
10005082:	d107      	bne.n	10005094 <Code_1122+0x28>
10005084:	4291      	cmp	r1, r2
10005086:	d00f      	beq.n	100050a8 <Code_1122+0x3c>
10005088:	5c83      	ldrb	r3, [r0, r2]
1000508a:	42b3      	cmp	r3, r6
1000508c:	d102      	bne.n	10005094 <Code_1122+0x28>
1000508e:	3201      	adds	r2, #1
10005090:	1884      	adds	r4, r0, r2
10005092:	e7f7      	b.n	10005084 <Code_1122+0x18>
10005094:	4291      	cmp	r1, r2
10005096:	d007      	beq.n	100050a8 <Code_1122+0x3c>
10005098:	5c83      	ldrb	r3, [r0, r2]
1000509a:	3201      	adds	r2, #1
1000509c:	42b3      	cmp	r3, r6
1000509e:	d1f9      	bne.n	10005094 <Code_1122+0x28>
100050a0:	1886      	adds	r6, r0, r2
100050a2:	1b36      	subs	r6, r6, r4
100050a4:	3e01      	subs	r6, #1
100050a6:	e001      	b.n	100050ac <Code_1122+0x40>
100050a8:	1886      	adds	r6, r0, r2
100050aa:	1b36      	subs	r6, r6, r4
100050ac:	3f04      	subs	r7, #4
100050ae:	603c      	str	r4, [r7, #0]
100050b0:	4806      	ldr	r0, [pc, #24]	; (100050cc <Code_1122+0x60>)
100050b2:	6002      	str	r2, [r0, #0]
100050b4:	bd10      	pop	{r4, pc}
100050b6:	4f1a0000 	svcmi	0x001a0000
100050ba:	4fbc1000 	svcmi	0x00bc1000
100050be:	cf401000 	svcgt	0x00401000
100050c2:	42800000 	addmi	r0, r0, #0
100050c6:	28000000 	stmdacs	r0, {}	; <UNPREDICTABLE>
100050ca:	3fe40000 	svccc	0x00e40000
100050ce:	51102000 	tstpl	r0, r0

100050d0 <Dictionary_1125>:
100050d0:	10005110 	andne	r5, r0, r0, lsl r1
100050d4:	64050000 	strvs	r0, [r5]
100050d8:	74696769 	strbtvc	r6, [r9], #-1897	; 0x769

100050dc <Code_1125>:
100050dc:	4bd4      	ldr	r3, [pc, #848]	; (10005430 <Code_1188+0x8>)
100050de:	681b      	ldr	r3, [r3, #0]

100050e0 <digit_base_r3>:
100050e0:	3e30      	subs	r6, #48	; 0x30
100050e2:	d30b      	bcc.n	100050fc <digit_base_r3+0x1c>
100050e4:	2e0a      	cmp	r6, #10
100050e6:	d30b      	bcc.n	10005100 <digit_base_r3+0x20>
100050e8:	3e07      	subs	r6, #7
100050ea:	2e0a      	cmp	r6, #10
100050ec:	d306      	bcc.n	100050fc <digit_base_r3+0x1c>
100050ee:	2e24      	cmp	r6, #36	; 0x24
100050f0:	d306      	bcc.n	10005100 <digit_base_r3+0x20>
100050f2:	3e20      	subs	r6, #32
100050f4:	2e0a      	cmp	r6, #10
100050f6:	d301      	bcc.n	100050fc <digit_base_r3+0x1c>
100050f8:	2e24      	cmp	r6, #36	; 0x24
100050fa:	d301      	bcc.n	10005100 <digit_base_r3+0x20>
100050fc:	2600      	movs	r6, #0
100050fe:	4770      	bx	lr
10005100:	429e      	cmp	r6, r3
10005102:	d2fb      	bcs.n	100050fc <digit_base_r3+0x1c>
10005104:	3f04      	subs	r7, #4
10005106:	603e      	str	r6, [r7, #0]
10005108:	2600      	movs	r6, #0
1000510a:	43f6      	mvns	r6, r6
1000510c:	4770      	bx	lr
1000510e:	46c0      	nop			; (mov r8, r8)

10005110 <Dictionary_1127>:
10005110:	1000521c 	andne	r5, r0, ip, lsl r2
10005114:	6e060000 	cdpvs	0, 0, cr0, cr6, cr0, {0}
10005118:	65626d75 	strbvs	r6, [r2, #-3445]!	; 0xd75
1000511c:	b53f0072 	ldrlt	r0, [pc, #-114]!	; 100050b2 <Code_1122+0x46>

1000511e <Code_1127>:
1000511e:	b53f      	push	{r0, r1, r2, r3, r4, r5, lr}
10005120:	0031      	movs	r1, r6
10005122:	cf40      	ldmia	r7!, {r6}
10005124:	1e70      	subs	r0, r6, #1
10005126:	2601      	movs	r6, #1
10005128:	2201      	movs	r2, #1
1000512a:	b404      	push	{r2}
1000512c:	4bc0      	ldr	r3, [pc, #768]	; (10005430 <Code_1188+0x8>)
1000512e:	681b      	ldr	r3, [r3, #0]
10005130:	2400      	movs	r4, #0
10005132:	2500      	movs	r5, #0
10005134:	2900      	cmp	r1, #0
10005136:	d03c      	beq.n	100051b2 <Code_1127+0x94>
10005138:	3001      	adds	r0, #1
1000513a:	3901      	subs	r1, #1
1000513c:	7802      	ldrb	r2, [r0, #0]
1000513e:	2a2d      	cmp	r2, #45	; 0x2d
10005140:	d104      	bne.n	1000514c <Code_1127+0x2e>
10005142:	b001      	add	sp, #4
10005144:	2200      	movs	r2, #0
10005146:	43d2      	mvns	r2, r2
10005148:	b404      	push	{r2}
1000514a:	e7f3      	b.n	10005134 <Code_1127+0x16>
1000514c:	2a23      	cmp	r2, #35	; 0x23
1000514e:	d101      	bne.n	10005154 <Code_1127+0x36>
10005150:	230a      	movs	r3, #10
10005152:	e7ef      	b.n	10005134 <Code_1127+0x16>
10005154:	2a24      	cmp	r2, #36	; 0x24
10005156:	d101      	bne.n	1000515c <Code_1127+0x3e>
10005158:	2310      	movs	r3, #16
1000515a:	e7eb      	b.n	10005134 <Code_1127+0x16>
1000515c:	2a25      	cmp	r2, #37	; 0x25
1000515e:	d101      	bne.n	10005164 <Code_1127+0x46>
10005160:	2302      	movs	r3, #2
10005162:	e7e7      	b.n	10005134 <Code_1127+0x16>
10005164:	2a2e      	cmp	r2, #46	; 0x2e
10005166:	d101      	bne.n	1000516c <Code_1127+0x4e>
10005168:	2602      	movs	r6, #2
1000516a:	e7e3      	b.n	10005134 <Code_1127+0x16>
1000516c:	2a2c      	cmp	r2, #44	; 0x2c
1000516e:	d036      	beq.n	100051de <number_nachkommastellen>
10005170:	3f04      	subs	r7, #4
10005172:	603e      	str	r6, [r7, #0]
10005174:	0016      	movs	r6, r2
10005176:	f7ff ffb3 	bl	100050e0 <digit_base_r3>
1000517a:	2e00      	cmp	r6, #0
1000517c:	cf40      	ldmia	r7!, {r6}
1000517e:	d02b      	beq.n	100051d8 <Code_1127+0xba>
10005180:	3f04      	subs	r7, #4
10005182:	603e      	str	r6, [r7, #0]
10005184:	0026      	movs	r6, r4
10005186:	3f04      	subs	r7, #4
10005188:	603e      	str	r6, [r7, #0]
1000518a:	002e      	movs	r6, r5
1000518c:	3f04      	subs	r7, #4
1000518e:	603e      	str	r6, [r7, #0]
10005190:	001e      	movs	r6, r3
10005192:	3f04      	subs	r7, #4
10005194:	603e      	str	r6, [r7, #0]
10005196:	2600      	movs	r6, #0
10005198:	b40f      	push	{r0, r1, r2, r3}
1000519a:	f7fc fb5e 	bl	1000185a <Code_120>
1000519e:	bc0f      	pop	{r0, r1, r2, r3}
100051a0:	0035      	movs	r5, r6
100051a2:	cf40      	ldmia	r7!, {r6}
100051a4:	0034      	movs	r4, r6
100051a6:	cf40      	ldmia	r7!, {r6}
100051a8:	2200      	movs	r2, #0
100051aa:	19a4      	adds	r4, r4, r6
100051ac:	4155      	adcs	r5, r2
100051ae:	cf40      	ldmia	r7!, {r6}
100051b0:	e7c0      	b.n	10005134 <Code_1127+0x16>
100051b2:	bc04      	pop	{r2}
100051b4:	2a00      	cmp	r2, #0
100051b6:	d504      	bpl.n	100051c2 <Code_1127+0xa4>
100051b8:	2200      	movs	r2, #0
100051ba:	43e4      	mvns	r4, r4
100051bc:	43ed      	mvns	r5, r5
100051be:	3401      	adds	r4, #1
100051c0:	4155      	adcs	r5, r2
100051c2:	0033      	movs	r3, r6
100051c4:	0026      	movs	r6, r4
100051c6:	2b01      	cmp	r3, #1
100051c8:	d002      	beq.n	100051d0 <Code_1127+0xb2>
100051ca:	3f04      	subs	r7, #4
100051cc:	603e      	str	r6, [r7, #0]
100051ce:	002e      	movs	r6, r5
100051d0:	3f04      	subs	r7, #4
100051d2:	603e      	str	r6, [r7, #0]
100051d4:	001e      	movs	r6, r3
100051d6:	bd3f      	pop	{r0, r1, r2, r3, r4, r5, pc}
100051d8:	b001      	add	sp, #4
100051da:	2600      	movs	r6, #0
100051dc:	bd3f      	pop	{r0, r1, r2, r3, r4, r5, pc}

100051de <number_nachkommastellen>:
100051de:	0025      	movs	r5, r4
100051e0:	2400      	movs	r4, #0
100051e2:	2602      	movs	r6, #2
100051e4:	2900      	cmp	r1, #0
100051e6:	d0e4      	beq.n	100051b2 <Code_1127+0x94>
100051e8:	5c42      	ldrb	r2, [r0, r1]
100051ea:	3901      	subs	r1, #1
100051ec:	2a2e      	cmp	r2, #46	; 0x2e
100051ee:	d0f9      	beq.n	100051e4 <number_nachkommastellen+0x6>
100051f0:	3f04      	subs	r7, #4
100051f2:	603e      	str	r6, [r7, #0]
100051f4:	0016      	movs	r6, r2
100051f6:	f7ff ff73 	bl	100050e0 <digit_base_r3>
100051fa:	2e00      	cmp	r6, #0
100051fc:	cf40      	ldmia	r7!, {r6}
100051fe:	d0eb      	beq.n	100051d8 <Code_1127+0xba>
10005200:	3f04      	subs	r7, #4
10005202:	603c      	str	r4, [r7, #0]
10005204:	3f04      	subs	r7, #4
10005206:	603e      	str	r6, [r7, #0]
10005208:	001e      	movs	r6, r3
1000520a:	b40f      	push	{r0, r1, r2, r3}
1000520c:	f7fc fbd9 	bl	100019c2 <Code_156>
10005210:	bc0f      	pop	{r0, r1, r2, r3}
10005212:	0034      	movs	r4, r6
10005214:	cf40      	ldmia	r7!, {r6}
10005216:	cf40      	ldmia	r7!, {r6}
10005218:	e7e4      	b.n	100051e4 <number_nachkommastellen+0x6>
1000521a:	46c0      	nop			; (mov r8, r8)

1000521c <Dictionary_1154>:
1000521c:	10005240 	andne	r5, r0, r0, asr #4
10005220:	2e060000 	cdpcs	0, 0, cr0, cr6, cr0, {0}
10005224:	69676964 	stmdbvs	r7!, {r2, r5, r6, r8, fp, sp, lr}^
10005228:	2e0a0074 	mcrcs	0, 0, r0, cr10, cr4, {3}

1000522a <Code_1154>:
1000522a:	2e0a      	cmp	r6, #10
1000522c:	d201      	bcs.n	10005232 <Code_1154+0x8>
1000522e:	3630      	adds	r6, #48	; 0x30
10005230:	4770      	bx	lr
10005232:	2e24      	cmp	r6, #36	; 0x24
10005234:	d201      	bcs.n	1000523a <Code_1154+0x10>
10005236:	3637      	adds	r6, #55	; 0x37
10005238:	4770      	bx	lr
1000523a:	2623      	movs	r6, #35	; 0x23
1000523c:	4770      	bx	lr
1000523e:	46c0      	nop			; (mov r8, r8)

10005240 <Dictionary_1155>:
10005240:	10005278 	andne	r5, r0, r8, ror r2
10005244:	68040000 	stmdavs	r4, {}	; <UNPREDICTABLE>
10005248:	00646c6f 	rsbeq	r6, r4, pc, ror #24

1000524c <Code_1155>:
1000524c:	0033      	movs	r3, r6
1000524e:	cf40      	ldmia	r7!, {r6}
10005250:	4878      	ldr	r0, [pc, #480]	; (10005434 <Code_1188+0xc>)
10005252:	7801      	ldrb	r1, [r0, #0]
10005254:	293f      	cmp	r1, #63	; 0x3f
10005256:	d20d      	bcs.n	10005274 <Code_1155+0x28>
10005258:	3101      	adds	r1, #1
1000525a:	7001      	strb	r1, [r0, #0]
1000525c:	1840      	adds	r0, r0, r1
1000525e:	2901      	cmp	r1, #1
10005260:	d007      	beq.n	10005272 <Code_1155+0x26>
10005262:	3801      	subs	r0, #1
10005264:	7802      	ldrb	r2, [r0, #0]
10005266:	3001      	adds	r0, #1
10005268:	7002      	strb	r2, [r0, #0]
1000526a:	3801      	subs	r0, #1
1000526c:	3901      	subs	r1, #1
1000526e:	2901      	cmp	r1, #1
10005270:	d1f7      	bne.n	10005262 <Code_1155+0x16>
10005272:	7003      	strb	r3, [r0, #0]
10005274:	4770      	bx	lr
10005276:	46c0      	nop			; (mov r8, r8)

10005278 <Dictionary_1157>:
10005278:	10005298 	mulne	r0, r8, r2
1000527c:	68050000 	stmdavs	r5, {}	; <UNPREDICTABLE>
10005280:	3c646c6f 	stclcc	12, cr6, [r4], #-444	; 0xfffffe44

10005284 <Code_1157>:
10005284:	0033      	movs	r3, r6
10005286:	cf40      	ldmia	r7!, {r6}
10005288:	486a      	ldr	r0, [pc, #424]	; (10005434 <Code_1188+0xc>)
1000528a:	7801      	ldrb	r1, [r0, #0]
1000528c:	293f      	cmp	r1, #63	; 0x3f
1000528e:	d202      	bcs.n	10005296 <Code_1157+0x12>
10005290:	3101      	adds	r1, #1
10005292:	7001      	strb	r1, [r0, #0]
10005294:	5443      	strb	r3, [r0, r1]
10005296:	4770      	bx	lr

10005298 <Dictionary_1159>:
10005298:	100052b0 			; <UNDEFINED> instruction: 0x100052b0
1000529c:	73040000 	movwvc	r0, #16384	; 0x4000
100052a0:	006e6769 	rsbeq	r6, lr, r9, ror #14

100052a4 <Code_1159>:
100052a4:	2e00      	cmp	r6, #0
100052a6:	d401      	bmi.n	100052ac <Code_1159+0x8>
100052a8:	cf40      	ldmia	r7!, {r6}
100052aa:	4770      	bx	lr
100052ac:	262d      	movs	r6, #45	; 0x2d
100052ae:	e7cd      	b.n	1000524c <Code_1155>

100052b0 <Dictionary_1161>:
100052b0:	100052c4 	andne	r5, r0, r4, asr #5
100052b4:	23020000 	movwcs	r0, #8192	; 0x2000
100052b8:	485e003e 	ldmdami	lr, {r1, r2, r3, r4, r5}^

100052ba <Code_1161>:
100052ba:	485e      	ldr	r0, [pc, #376]	; (10005434 <Code_1188+0xc>)
100052bc:	7806      	ldrb	r6, [r0, #0]
100052be:	3001      	adds	r0, #1
100052c0:	6038      	str	r0, [r7, #0]
100052c2:	4770      	bx	lr

100052c4 <Dictionary_1162>:
100052c4:	100052dc 	ldrdne	r5, [r0], -ip
100052c8:	66030000 	strvs	r0, [r3], -r0
100052cc:	b5105323 	ldrlt	r5, [r0, #-803]	; 0x323

100052ce <Code_1162>:
100052ce:	b510      	push	{r4, lr}
100052d0:	2420      	movs	r4, #32
100052d2:	f000 f808 	bl	100052e6 <Code_1163>
100052d6:	3c01      	subs	r4, #1
100052d8:	d1fb      	bne.n	100052d2 <Code_1162+0x4>
100052da:	bd10      	pop	{r4, pc}

100052dc <Dictionary_1163>:
100052dc:	10005300 	andne	r5, r0, r0, lsl #6
100052e0:	66020000 	strvs	r0, [r2], -r0
100052e4:	b5000023 	strlt	r0, [r0, #-35]	; 0x23

100052e6 <Code_1163>:
100052e6:	b500      	push	{lr}
100052e8:	3f04      	subs	r7, #4
100052ea:	603e      	str	r6, [r7, #0]
100052ec:	4e50      	ldr	r6, [pc, #320]	; (10005430 <Code_1188+0x8>)
100052ee:	6836      	ldr	r6, [r6, #0]
100052f0:	f7fc fa85 	bl	100017fe <Code_118>
100052f4:	f7ff ff99 	bl	1000522a <Code_1154>
100052f8:	f7ff ffc4 	bl	10005284 <Code_1157>
100052fc:	bd00      	pop	{pc}
100052fe:	46c0      	nop			; (mov r8, r8)

10005300 <Dictionary_1165>:
10005300:	1000531c 	andne	r5, r0, ip, lsl r3
10005304:	23020000 	movwcs	r0, #8192	; 0x2000
10005308:	b5000053 	strlt	r0, [r0, #-83]	; 0x53

1000530a <Code_1165>:
1000530a:	b500      	push	{lr}
1000530c:	f000 f80a 	bl	10005324 <Code_1166>
10005310:	2e00      	cmp	r6, #0
10005312:	d1fb      	bne.n	1000530c <Code_1165+0x2>
10005314:	6838      	ldr	r0, [r7, #0]
10005316:	2800      	cmp	r0, #0
10005318:	d1f8      	bne.n	1000530c <Code_1165+0x2>
1000531a:	bd00      	pop	{pc}

1000531c <Dictionary_1166>:
1000531c:	10005348 	andne	r5, r0, r8, asr #6
10005320:	23010000 	movwcs	r0, #4096	; 0x1000

10005324 <Code_1166>:
10005324:	b500      	push	{lr}
10005326:	3f04      	subs	r7, #4
10005328:	603e      	str	r6, [r7, #0]
1000532a:	4e41      	ldr	r6, [pc, #260]	; (10005430 <Code_1188+0x8>)
1000532c:	6836      	ldr	r6, [r6, #0]
1000532e:	3f04      	subs	r7, #4
10005330:	603e      	str	r6, [r7, #0]
10005332:	2600      	movs	r6, #0
10005334:	f7fc fb65 	bl	10001a02 <Code_165>
10005338:	f7fc f8c0 	bl	100014bc <Code_78>
1000533c:	cf40      	ldmia	r7!, {r6}
1000533e:	f7ff ff74 	bl	1000522a <Code_1154>
10005342:	f7ff ff83 	bl	1000524c <Code_1155>
10005346:	bd00      	pop	{pc}

10005348 <Dictionary_1171>:
10005348:	1000535c 	andne	r5, r0, ip, asr r3
1000534c:	3c020000 	stccc	0, cr0, [r2], {0}
10005350:	48380023 	ldmdami	r8!, {r0, r1, r5}

10005352 <Code_1171>:
10005352:	4838      	ldr	r0, [pc, #224]	; (10005434 <Code_1188+0xc>)
10005354:	2100      	movs	r1, #0
10005356:	7001      	strb	r1, [r0, #0]
10005358:	4770      	bx	lr
1000535a:	46c0      	nop			; (mov r8, r8)

1000535c <Dictionary_1172>:
1000535c:	10005370 	andne	r5, r0, r0, ror r3
10005360:	66020000 	strvs	r0, [r2], -r0
10005364:	3f04002e 	svccc	0x0004002e

10005366 <Code_1172>:
10005366:	3f04      	subs	r7, #4
10005368:	603e      	str	r6, [r7, #0]
1000536a:	2620      	movs	r6, #32
1000536c:	e005      	b.n	1000537a <Code_1175>
1000536e:	46c0      	nop			; (mov r8, r8)

10005370 <Dictionary_1175>:
10005370:	100053c0 	andne	r5, r0, r0, asr #7
10005374:	66030000 	strvs	r0, [r3], -r0
10005378:	b5006e2e 	strlt	r6, [r0, #-3630]	; 0xe2e

1000537a <Code_1175>:
1000537a:	b500      	push	{lr}
1000537c:	b410      	push	{r4}
1000537e:	0034      	movs	r4, r6
10005380:	cf40      	ldmia	r7!, {r6}
10005382:	f7fc fd75 	bl	10001e70 <Code_212>
10005386:	f7fc f9b9 	bl	100016fc <Code_106>
1000538a:	3f04      	subs	r7, #4
1000538c:	603e      	str	r6, [r7, #0]
1000538e:	2600      	movs	r6, #0
10005390:	f7ff ffdf 	bl	10005352 <Code_1171>
10005394:	f7ff ffb9 	bl	1000530a <Code_1165>
10005398:	cf40      	ldmia	r7!, {r6}
1000539a:	262c      	movs	r6, #44	; 0x2c
1000539c:	f7ff ff72 	bl	10005284 <Code_1157>
100053a0:	2c00      	cmp	r4, #0
100053a2:	d003      	beq.n	100053ac <Code_1175+0x32>
100053a4:	f7ff ff9f 	bl	100052e6 <Code_1163>
100053a8:	3c01      	subs	r4, #1
100053aa:	d1fb      	bne.n	100053a4 <Code_1175+0x2a>
100053ac:	bc10      	pop	{r4}
100053ae:	cf40      	ldmia	r7!, {r6}
100053b0:	f7ff ff78 	bl	100052a4 <Code_1159>
100053b4:	3f04      	subs	r7, #4
100053b6:	603e      	str	r6, [r7, #0]
100053b8:	3f04      	subs	r7, #4
100053ba:	603e      	str	r6, [r7, #0]
100053bc:	e01e      	b.n	100053fc <abschluss_zahlenausgabe>
100053be:	46c0      	nop			; (mov r8, r8)

100053c0 <Dictionary_1183>:
100053c0:	100053d8 	ldrdne	r5, [r0], -r8
100053c4:	75030000 	strvc	r0, [r3]
100053c8:	b5002e64 	strlt	r2, [r0, #-3684]	; 0xe64

100053ca <Code_1183>:
100053ca:	b500      	push	{lr}
100053cc:	f7ff ffc1 	bl	10005352 <Code_1171>
100053d0:	f7ff ff9b 	bl	1000530a <Code_1165>
100053d4:	e012      	b.n	100053fc <abschluss_zahlenausgabe>
100053d6:	46c0      	nop			; (mov r8, r8)

100053d8 <Dictionary_1184>:
100053d8:	1000540c 	andne	r5, r0, ip, lsl #8
100053dc:	64020000 	strvs	r0, [r2]
100053e0:	b500002e 	strlt	r0, [r0, #-46]	; 0x2e

100053e2 <Code_1184>:
100053e2:	b500      	push	{lr}
100053e4:	f7fc fd44 	bl	10001e70 <Code_212>
100053e8:	f7fc f988 	bl	100016fc <Code_106>
100053ec:	f7ff ffb1 	bl	10005352 <Code_1171>
100053f0:	f7ff ff8b 	bl	1000530a <Code_1165>
100053f4:	f7fc fd4f 	bl	10001e96 <Code_213>
100053f8:	f7ff ff54 	bl	100052a4 <Code_1159>

100053fc <abschluss_zahlenausgabe>:
100053fc:	f7ff ff5d 	bl	100052ba <Code_1161>
10005400:	f7fe fa52 	bl	100038a8 <Code_645>
10005404:	f7fe f99e 	bl	10003744 <Code_610>
10005408:	bd00      	pop	{pc}
1000540a:	46c0      	nop			; (mov r8, r8)

1000540c <Dictionary_1185>:
1000540c:	10005420 	andne	r5, r0, r0, lsr #8
10005410:	75020000 	strvc	r0, [r2]
10005414:	3f04002e 	svccc	0x0004002e

10005416 <Code_1185>:
10005416:	3f04      	subs	r7, #4
10005418:	603e      	str	r6, [r7, #0]
1000541a:	2600      	movs	r6, #0
1000541c:	e7d5      	b.n	100053ca <Code_1183>
1000541e:	46c0      	nop			; (mov r8, r8)

10005420 <Dictionary_1188>:
10005420:	100055e8 	andne	r5, r0, r8, ror #11
10005424:	2e010000 	cdpcs	0, 0, cr0, cr1, cr0, {0}

10005428 <Code_1188>:
10005428:	3f04      	subs	r7, #4
1000542a:	603e      	str	r6, [r7, #0]
1000542c:	17f6      	asrs	r6, r6, #31
1000542e:	e7d8      	b.n	100053e2 <Code_1184>
10005430:	20003ffc 	strdcs	r3, [r0], -ip
10005434:	20000178 	andcs	r0, r0, r8, ror r1

10005438 <konstantenfaltungszeiger_setzen>:
10005438:	b530      	push	{r4, r5, lr}
1000543a:	4cd7      	ldr	r4, [pc, #860]	; (10005798 <quit_innenschleife+0x14>)
1000543c:	6825      	ldr	r5, [r4, #0]
1000543e:	2d00      	cmp	r5, #0
10005440:	d101      	bne.n	10005446 <konstantenfaltungszeiger_setzen+0xe>
10005442:	003d      	movs	r5, r7
10005444:	6025      	str	r5, [r4, #0]
10005446:	bd30      	pop	{r4, r5, pc}

10005448 <konstantenfaltungszeiger_neusetzen>:
10005448:	b530      	push	{r4, r5, lr}
1000544a:	4cd3      	ldr	r4, [pc, #844]	; (10005798 <quit_innenschleife+0x14>)
1000544c:	003d      	movs	r5, r7
1000544e:	6025      	str	r5, [r4, #0]
10005450:	bd30      	pop	{r4, r5, pc}

10005452 <konstantenfaltungszeiger_loeschen>:
10005452:	b530      	push	{r4, r5, lr}
10005454:	4cd0      	ldr	r4, [pc, #832]	; (10005798 <quit_innenschleife+0x14>)
10005456:	2500      	movs	r5, #0
10005458:	6025      	str	r5, [r4, #0]
1000545a:	bd30      	pop	{r4, r5, pc}

1000545c <wievielefaltkonstanten>:
1000545c:	4bce      	ldr	r3, [pc, #824]	; (10005798 <quit_innenschleife+0x14>)
1000545e:	681b      	ldr	r3, [r3, #0]
10005460:	1bdb      	subs	r3, r3, r7
10005462:	089b      	lsrs	r3, r3, #2
10005464:	4770      	bx	lr

10005466 <kompilator>:
10005466:	b500      	push	{lr}
10005468:	0031      	movs	r1, r6
1000546a:	cf40      	ldmia	r7!, {r6}
1000546c:	48cb      	ldr	r0, [pc, #812]	; (1000579c <quit_innenschleife+0x18>)
1000546e:	4008      	ands	r0, r1
10005470:	d002      	beq.n	10005478 <kompilator+0x12>
10005472:	f000 f8a1 	bl	100055b8 <inline_cache_parser>
10005476:	bd00      	pop	{pc}
10005478:	48c9      	ldr	r0, [pc, #804]	; (100057a0 <quit_innenschleife+0x1c>)
1000547a:	4008      	ands	r0, r1
1000547c:	d101      	bne.n	10005482 <kompilator+0x1c>
1000547e:	f7fd f837 	bl	100024f0 <sprungschreiber_flaggenerator>
10005482:	0032      	movs	r2, r6
10005484:	cf40      	ldmia	r7!, {r6}
10005486:	f7ff ffd7 	bl	10005438 <konstantenfaltungszeiger_setzen>
1000548a:	48c6      	ldr	r0, [pc, #792]	; (100057a4 <quit_innenschleife+0x20>)
1000548c:	4008      	ands	r0, r1
1000548e:	d003      	beq.n	10005498 <kompilator+0x32>
10005490:	3f04      	subs	r7, #4
10005492:	603e      	str	r6, [r7, #0]
10005494:	0016      	movs	r6, r2
10005496:	bd00      	pop	{pc}
10005498:	f7ff ffe0 	bl	1000545c <wievielefaltkonstanten>
1000549c:	2080      	movs	r0, #128	; 0x80
1000549e:	4008      	ands	r0, r1
100054a0:	d106      	bne.n	100054b0 <.interpret_faltoptimierung>
100054a2:	2040      	movs	r0, #64	; 0x40
100054a4:	4008      	ands	r0, r1
100054a6:	d009      	beq.n	100054bc <.interpret_allocator>

100054a8 <.interpret_genugkonstanten>:
100054a8:	200f      	movs	r0, #15
100054aa:	4008      	ands	r0, r1
100054ac:	4283      	cmp	r3, r0
100054ae:	d305      	bcc.n	100054bc <.interpret_allocator>

100054b0 <.interpret_faltoptimierung>:
100054b0:	3f04      	subs	r7, #4
100054b2:	603e      	str	r6, [r7, #0]
100054b4:	0016      	movs	r6, r2
100054b6:	f7fe fd58 	bl	10003f6a <Code_780>
100054ba:	bd00      	pop	{pc}

100054bc <.interpret_allocator>:
100054bc:	48ba      	ldr	r0, [pc, #744]	; (100057a8 <quit_innenschleife+0x24>)
100054be:	4008      	ands	r0, r1
100054c0:	d014      	beq.n	100054ec <.interpret_allocator_finished>
100054c2:	f7fb fdbc 	bl	1000103e <Code_34>
100054c6:	3f04      	subs	r7, #4
100054c8:	603e      	str	r6, [r7, #0]
100054ca:	0016      	movs	r6, r2
100054cc:	3f04      	subs	r7, #4
100054ce:	603e      	str	r6, [r7, #0]
100054d0:	000e      	movs	r6, r1
100054d2:	f000 f830 	bl	10005536 <add_to_inline_cache>
100054d6:	0010      	movs	r0, r2
100054d8:	f7fe fcb3 	bl	10003e42 <suchedefinitionsende>
100054dc:	1c42      	adds	r2, r0, #1
100054de:	48b3      	ldr	r0, [pc, #716]	; (100057ac <quit_innenschleife+0x28>)
100054e0:	4790      	blx	r2
100054e2:	f7ff ffb1 	bl	10005448 <konstantenfaltungszeiger_neusetzen>
100054e6:	f7fb fdb9 	bl	1000105c <nfaltkonstanten_aufschwimmen>
100054ea:	bd00      	pop	{pc}

100054ec <.interpret_allocator_finished>:
100054ec:	f7fb fda7 	bl	1000103e <Code_34>
100054f0:	3f04      	subs	r7, #4
100054f2:	603e      	str	r6, [r7, #0]
100054f4:	0016      	movs	r6, r2
100054f6:	3f04      	subs	r7, #4
100054f8:	603e      	str	r6, [r7, #0]
100054fa:	000e      	movs	r6, r1
100054fc:	f000 f81b 	bl	10005536 <add_to_inline_cache>
10005500:	f7fb fe32 	bl	10001168 <tidyup_register_allocator>
10005504:	f7ff ffa5 	bl	10005452 <konstantenfaltungszeiger_loeschen>
10005508:	48a9      	ldr	r0, [pc, #676]	; (100057b0 <quit_innenschleife+0x2c>)
1000550a:	4008      	ands	r0, r1
1000550c:	d101      	bne.n	10005512 <.prepared_for_classic>
1000550e:	f7fb ff9a 	bl	10001446 <push_lr_nachholen>

10005512 <.prepared_for_classic>:
10005512:	3f04      	subs	r7, #4
10005514:	603e      	str	r6, [r7, #0]
10005516:	0016      	movs	r6, r2
10005518:	2210      	movs	r2, #16
1000551a:	400a      	ands	r2, r1
1000551c:	d002      	beq.n	10005524 <.prepared_for_classic+0x12>
1000551e:	f7fe fd24 	bl	10003f6a <Code_780>
10005522:	bd00      	pop	{pc}
10005524:	2220      	movs	r2, #32
10005526:	400a      	ands	r2, r1
10005528:	d002      	beq.n	10005530 <.prepared_for_classic+0x1e>
1000552a:	f7fe fc76 	bl	10003e1a <Code_756>
1000552e:	bd00      	pop	{pc}
10005530:	f7fe fb4a 	bl	10003bc8 <Code_712>
10005534:	bd00      	pop	{pc}

10005536 <add_to_inline_cache>:
10005536:	b50f      	push	{r0, r1, r2, r3, lr}
10005538:	0032      	movs	r2, r6
1000553a:	cf40      	ldmia	r7!, {r6}
1000553c:	0033      	movs	r3, r6
1000553e:	cf40      	ldmia	r7!, {r6}
10005540:	489c      	ldr	r0, [pc, #624]	; (100057b4 <quit_innenschleife+0x30>)
10005542:	6801      	ldr	r1, [r0, #0]
10005544:	2906      	cmp	r1, #6
10005546:	d207      	bcs.n	10005558 <add_to_inline_cache+0x22>
10005548:	2006      	movs	r0, #6
1000554a:	4341      	muls	r1, r0
1000554c:	489a      	ldr	r0, [pc, #616]	; (100057b8 <quit_innenschleife+0x34>)
1000554e:	1840      	adds	r0, r0, r1
10005550:	8003      	strh	r3, [r0, #0]
10005552:	0c1b      	lsrs	r3, r3, #16
10005554:	8043      	strh	r3, [r0, #2]
10005556:	8082      	strh	r2, [r0, #4]
10005558:	4896      	ldr	r0, [pc, #600]	; (100057b4 <quit_innenschleife+0x30>)
1000555a:	6801      	ldr	r1, [r0, #0]
1000555c:	3101      	adds	r1, #1
1000555e:	6001      	str	r1, [r0, #0]
10005560:	bd0f      	pop	{r0, r1, r2, r3, pc}

10005562 <inline_cache_schreiben>:
10005562:	b50f      	push	{r0, r1, r2, r3, lr}
10005564:	4893      	ldr	r0, [pc, #588]	; (100057b4 <quit_innenschleife+0x30>)
10005566:	6801      	ldr	r1, [r0, #0]
10005568:	2906      	cmp	r1, #6
1000556a:	d81e      	bhi.n	100055aa <inline_cache_schreiben+0x48>
1000556c:	4892      	ldr	r0, [pc, #584]	; (100057b8 <quit_innenschleife+0x34>)
1000556e:	3901      	subs	r1, #1
10005570:	d01c      	beq.n	100055ac <inline_cache_schreiben+0x4a>
10005572:	3f04      	subs	r7, #4
10005574:	603e      	str	r6, [r7, #0]
10005576:	000e      	movs	r6, r1
10005578:	f7fe fe67 	bl	1000424a <Code_836>
1000557c:	3f04      	subs	r7, #4
1000557e:	603e      	str	r6, [r7, #0]
10005580:	8806      	ldrh	r6, [r0, #0]
10005582:	f7fe fe62 	bl	1000424a <Code_836>
10005586:	3f04      	subs	r7, #4
10005588:	603e      	str	r6, [r7, #0]
1000558a:	8846      	ldrh	r6, [r0, #2]
1000558c:	f7fe fe5d 	bl	1000424a <Code_836>
10005590:	3f04      	subs	r7, #4
10005592:	603e      	str	r6, [r7, #0]
10005594:	8886      	ldrh	r6, [r0, #4]
10005596:	f7fe fe58 	bl	1000424a <Code_836>
1000559a:	3006      	adds	r0, #6
1000559c:	3901      	subs	r1, #1
1000559e:	d1ed      	bne.n	1000557c <inline_cache_schreiben+0x1a>
100055a0:	3f04      	subs	r7, #4
100055a2:	603e      	str	r6, [r7, #0]
100055a4:	4e7d      	ldr	r6, [pc, #500]	; (1000579c <quit_innenschleife+0x18>)
100055a6:	f7fe fddd 	bl	10004164 <Code_826>
100055aa:	bd0f      	pop	{r0, r1, r2, r3, pc}
100055ac:	3f04      	subs	r7, #4
100055ae:	603e      	str	r6, [r7, #0]
100055b0:	2640      	movs	r6, #64	; 0x40
100055b2:	f7fe fdd7 	bl	10004164 <Code_826>
100055b6:	bd0f      	pop	{r0, r1, r2, r3, pc}

100055b8 <inline_cache_parser>:
100055b8:	b500      	push	{lr}
100055ba:	0030      	movs	r0, r6
100055bc:	cf40      	ldmia	r7!, {r6}
100055be:	f7fe fc40 	bl	10003e42 <suchedefinitionsende>
100055c2:	8801      	ldrh	r1, [r0, #0]
100055c4:	3002      	adds	r0, #2
100055c6:	3f04      	subs	r7, #4
100055c8:	603e      	str	r6, [r7, #0]
100055ca:	8806      	ldrh	r6, [r0, #0]
100055cc:	8842      	ldrh	r2, [r0, #2]
100055ce:	0412      	lsls	r2, r2, #16
100055d0:	4316      	orrs	r6, r2
100055d2:	3f04      	subs	r7, #4
100055d4:	603e      	str	r6, [r7, #0]
100055d6:	8886      	ldrh	r6, [r0, #4]
100055d8:	b403      	push	{r0, r1}
100055da:	f7ff ff44 	bl	10005466 <kompilator>
100055de:	bc03      	pop	{r0, r1}
100055e0:	3006      	adds	r0, #6
100055e2:	3901      	subs	r1, #1
100055e4:	d1ef      	bne.n	100055c6 <inline_cache_parser+0xe>
100055e6:	bd00      	pop	{pc}

100055e8 <Dictionary_1220>:
100055e8:	10005630 	andne	r5, r0, r0, lsr r6
100055ec:	65080000 	strvs	r0, [r8]
100055f0:	756c6176 	strbvc	r6, [ip, #-374]!	; 0x176
100055f4:	00657461 	rsbeq	r7, r5, r1, ror #8

100055f8 <Code_1220>:
100055f8:	b500      	push	{lr}
100055fa:	f7fe f83c 	bl	10003676 <Code_593>
100055fe:	cf01      	ldmia	r7!, {r0}
10005600:	b401      	push	{r0}
10005602:	b440      	push	{r6}
10005604:	cf40      	ldmia	r7!, {r6}
10005606:	486d      	ldr	r0, [pc, #436]	; (100057bc <quit_innenschleife+0x38>)
10005608:	6801      	ldr	r1, [r0, #0]
1000560a:	b402      	push	{r1}
1000560c:	2100      	movs	r1, #0
1000560e:	6001      	str	r1, [r0, #0]
10005610:	f7fe f824 	bl	1000365c <Code_591>
10005614:	f000 f814 	bl	10005640 <Code_1222>
10005618:	4868      	ldr	r0, [pc, #416]	; (100057bc <quit_innenschleife+0x38>)
1000561a:	bc02      	pop	{r1}
1000561c:	6001      	str	r1, [r0, #0]
1000561e:	3f04      	subs	r7, #4
10005620:	603e      	str	r6, [r7, #0]
10005622:	bc40      	pop	{r6}
10005624:	bc01      	pop	{r0}
10005626:	3f04      	subs	r7, #4
10005628:	6038      	str	r0, [r7, #0]
1000562a:	f7fe f817 	bl	1000365c <Code_591>
1000562e:	bd00      	pop	{pc}

10005630 <Dictionary_1222>:
10005630:	1000572c 	andne	r5, r0, ip, lsr #14
10005634:	69090000 	stmdbvs	r9, {}	; <UNPREDICTABLE>
10005638:	7265746e 	rsbvc	r7, r5, #1845493760	; 0x6e000000
1000563c:	74657270 	strbtvc	r7, [r5], #-624	; 0x270

10005640 <Code_1222>:
10005640:	b500      	push	{lr}
10005642:	485f      	ldr	r0, [pc, #380]	; (100057c0 <quit_innenschleife+0x3c>)
10005644:	4287      	cmp	r7, r0
10005646:	d90b      	bls.n	10005660 <Code_1222+0x20>
10005648:	f7fe f8ce 	bl	100037e8 <dotgaensefuesschen>
1000564c:	61745310 	cmnvs	r4, r0, lsl r3
10005650:	75206b63 	strvc	r6, [r0, #-2915]!	; 0xb63
10005654:	7265646e 	rsbvc	r6, r5, #1845493760	; 0x6e000000
10005658:	776f6c66 	strbvc	r6, [pc, -r6, ror #24]!
1000565c:	e079000a 	rsbs	r0, r9, sl
10005660:	4858      	ldr	r0, [pc, #352]	; (100057c4 <quit_innenschleife+0x40>)
10005662:	4287      	cmp	r7, r0
10005664:	d20a      	bcs.n	1000567c <Code_1222+0x3c>
10005666:	f7fe f8bf 	bl	100037e8 <dotgaensefuesschen>
1000566a:	6174530f 	cmnvs	r4, pc, lsl #6
1000566e:	6f206b63 	svcvs	0x00206b63
10005672:	66726576 			; <UNDEFINED> instruction: 0x66726576
10005676:	0a776f6c 	beq	11de142e <FlashDictionaryEnde+0x1dd042e>
1000567a:	e06b      	b.n	10005754 <Code_1247>
1000567c:	f7ff fedc 	bl	10005438 <konstantenfaltungszeiger_setzen>
10005680:	f7ff fcea 	bl	10005058 <Code_1120>
10005684:	2e00      	cmp	r6, #0
10005686:	d102      	bne.n	1000568e <Code_1222+0x4e>
10005688:	3704      	adds	r7, #4
1000568a:	cf40      	ldmia	r7!, {r6}
1000568c:	bd00      	pop	{pc}
1000568e:	6838      	ldr	r0, [r7, #0]
10005690:	3f04      	subs	r7, #4
10005692:	603e      	str	r6, [r7, #0]
10005694:	3f04      	subs	r7, #4
10005696:	6038      	str	r0, [r7, #0]
10005698:	f7ff f8ae 	bl	100047f8 <Code_932>
1000569c:	0031      	movs	r1, r6
1000569e:	cf40      	ldmia	r7!, {r6}
100056a0:	0032      	movs	r2, r6
100056a2:	cf40      	ldmia	r7!, {r6}
100056a4:	2a00      	cmp	r2, #0
100056a6:	d115      	bne.n	100056d4 <.interpret_token_found>
100056a8:	6838      	ldr	r0, [r7, #0]
100056aa:	0031      	movs	r1, r6
100056ac:	f7fc ff20 	bl	100024f0 <sprungschreiber_flaggenerator>
100056b0:	f7ff fd35 	bl	1000511e <Code_1127>
100056b4:	0032      	movs	r2, r6
100056b6:	cf40      	ldmia	r7!, {r6}
100056b8:	2a00      	cmp	r2, #0
100056ba:	d1c2      	bne.n	10005642 <Code_1222+0x2>

100056bc <not_found_addr_r0_len_r1>:
100056bc:	f7fe f8f8 	bl	100038b0 <stype_addr_r0_len_r1>
100056c0:	f7fe f892 	bl	100037e8 <dotgaensefuesschen>
100056c4:	6f6e200c 	svcvs	0x006e200c
100056c8:	6f662074 	svcvs	0x00662074
100056cc:	2e646e75 	mcrcs	14, 3, r6, cr4, cr5, {3}
100056d0:	e03f000a 	eors	r0, pc, sl

100056d4 <.interpret_token_found>:
100056d4:	4b3c      	ldr	r3, [pc, #240]	; (100057c8 <quit_innenschleife+0x44>)
100056d6:	681b      	ldr	r3, [r3, #0]
100056d8:	2b00      	cmp	r3, #0
100056da:	d11c      	bne.n	10005716 <.ausfuehren+0x10>
100056dc:	f7ff feb9 	bl	10005452 <konstantenfaltungszeiger_loeschen>
100056e0:	2330      	movs	r3, #48	; 0x30
100056e2:	400b      	ands	r3, r1
100056e4:	2b30      	cmp	r3, #48	; 0x30
100056e6:	d10e      	bne.n	10005706 <.ausfuehren>
100056e8:	f7fe f8de 	bl	100038a8 <Code_645>
100056ec:	f7fe f87c 	bl	100037e8 <dotgaensefuesschen>
100056f0:	73692012 	cmnvc	r9, #18
100056f4:	6d6f6320 	stclvs	3, cr6, [pc, #-128]!	; 1000567c <Code_1222+0x3c>
100056f8:	656c6970 	strbvs	r6, [ip, #-2416]!	; 0x970
100056fc:	6c6e6f2d 	stclvs	15, cr6, [lr], #-180	; 0xffffff4c
10005700:	000a2e79 	andeq	r2, sl, r9, ror lr
10005704:	e026      	b.n	10005754 <Code_1247>

10005706 <.ausfuehren>:
10005706:	3704      	adds	r7, #4
10005708:	cf40      	ldmia	r7!, {r6}
1000570a:	3f04      	subs	r7, #4
1000570c:	603e      	str	r6, [r7, #0]
1000570e:	0016      	movs	r6, r2
10005710:	f7fe fc2b 	bl	10003f6a <Code_780>
10005714:	e795      	b.n	10005642 <Code_1222+0x2>
10005716:	3704      	adds	r7, #4
10005718:	cf40      	ldmia	r7!, {r6}
1000571a:	3f04      	subs	r7, #4
1000571c:	603e      	str	r6, [r7, #0]
1000571e:	0016      	movs	r6, r2
10005720:	3f04      	subs	r7, #4
10005722:	603e      	str	r6, [r7, #0]
10005724:	000e      	movs	r6, r1
10005726:	f7ff fe9e 	bl	10005466 <kompilator>
1000572a:	e78a      	b.n	10005642 <Code_1222+0x2>

1000572c <Dictionary_1244>:
1000572c:	10005748 	andne	r5, r0, r8, asr #14
10005730:	68090081 	stmdavs	r9, {r0, r7}
10005734:	2d6b6f6f 	stclcs	15, cr6, [fp, #-444]!	; 0xfffffe44
10005738:	74697571 	strbtvc	r7, [r9], #-1393	; 0x571

1000573c <Code_1244>:
1000573c:	3f04      	subs	r7, #4
1000573e:	603e      	str	r6, [r7, #0]
10005740:	4e22      	ldr	r6, [pc, #136]	; (100057cc <quit_innenschleife+0x48>)
10005742:	4770      	bx	lr
10005744:	10005784 	andne	r5, r0, r4, lsl #15

10005748 <Dictionary_1247>:
10005748:	100057e0 	andne	r5, r0, r0, ror #15
1000574c:	71040000 	mrsvc	r0, (UNDEF: 4)
10005750:	00746975 	rsbseq	r6, r4, r5, ror r9

10005754 <Code_1247>:
10005754:	481e      	ldr	r0, [pc, #120]	; (100057d0 <quit_innenschleife+0x4c>)
10005756:	4685      	mov	sp, r0
10005758:	4f19      	ldr	r7, [pc, #100]	; (100057c0 <quit_innenschleife+0x3c>)
1000575a:	f7fd fb4f 	bl	10002dfc <Code_449>
1000575e:	481d      	ldr	r0, [pc, #116]	; (100057d4 <quit_innenschleife+0x50>)
10005760:	210a      	movs	r1, #10
10005762:	6001      	str	r1, [r0, #0]
10005764:	4818      	ldr	r0, [pc, #96]	; (100057c8 <quit_innenschleife+0x44>)
10005766:	2100      	movs	r1, #0
10005768:	6001      	str	r1, [r0, #0]
1000576a:	480b      	ldr	r0, [pc, #44]	; (10005798 <quit_innenschleife+0x14>)
1000576c:	6001      	str	r1, [r0, #0]
1000576e:	f7fb fd40 	bl	100011f2 <init_register_allocator>
10005772:	4812      	ldr	r0, [pc, #72]	; (100057bc <quit_innenschleife+0x38>)
10005774:	6001      	str	r1, [r0, #0]
10005776:	4818      	ldr	r0, [pc, #96]	; (100057d8 <quit_innenschleife+0x54>)
10005778:	6001      	str	r1, [r0, #0]
1000577a:	4918      	ldr	r1, [pc, #96]	; (100057dc <quit_innenschleife+0x58>)
1000577c:	6041      	str	r1, [r0, #4]

1000577e <quit_intern>:
1000577e:	4813      	ldr	r0, [pc, #76]	; (100057cc <quit_innenschleife+0x48>)
10005780:	6800      	ldr	r0, [r0, #0]
10005782:	4687      	mov	pc, r0

10005784 <quit_innenschleife>:
10005784:	f7fd ff86 	bl	10003694 <Code_595>
10005788:	f7ff ff5a 	bl	10005640 <Code_1222>
1000578c:	f7fe f82c 	bl	100037e8 <dotgaensefuesschen>
10005790:	6b6f2005 	blvs	11bcd7ac <FlashDictionaryEnde+0x1bbc7ac>
10005794:	e7f50a2e 	ldrb	r0, [r5, lr, lsr #20]!
10005798:	200000fc 	strdcs	r0, [r0], -ip
1000579c:	00001000 	andeq	r1, r0, r0
100057a0:	00000400 	andeq	r0, r0, r0, lsl #8
100057a4:	00002000 	andeq	r2, r0, r0
100057a8:	00000200 	andeq	r0, r0, r0, lsl #4
100057ac:	2000011c 	andcs	r0, r0, ip, lsl r1
100057b0:	00000800 	andeq	r0, r0, r0, lsl #16
100057b4:	20000150 	andcs	r0, r0, r0, asr r1
100057b8:	20000154 	andcs	r0, r0, r4, asr r1
100057bc:	20003fe4 	andcs	r3, r0, r4, ror #31
100057c0:	20000480 	andcs	r0, r0, r0, lsl #9
100057c4:	20000280 	andcs	r0, r0, r0, lsl #5
100057c8:	20003fd8 	ldrdcs	r3, [r0], -r8
100057cc:	20003fd4 	ldrdcs	r3, [r0], -r4
100057d0:	20000580 	andcs	r0, r0, r0, lsl #11
100057d4:	20003ffc 	strdcs	r3, [r0], -ip
100057d8:	20003fdc 	ldrdcs	r3, [r0], -ip
100057dc:	200001b8 			; <UNDEFINED> instruction: 0x200001b8

100057e0 <Dictionary_1249>:
100057e0:	100057fc 	strdne	r5, [r0], -ip
100057e4:	65050000 	strvs	r0, [r5]
100057e8:	3f746e69 	svccc	0x00746e69

100057ec <Code_1249>:
100057ec:	3f04      	subs	r7, #4
100057ee:	603e      	str	r6, [r7, #0]
100057f0:	f3ef 8610 	mrs	r6, PRIMASK
100057f4:	3e01      	subs	r6, #1
100057f6:	41b6      	sbcs	r6, r6
100057f8:	4770      	bx	lr
100057fa:	46c0      	nop			; (mov r8, r8)

100057fc <Dictionary_1251>:
100057fc:	1000580c 	andne	r5, r0, ip, lsl #16
10005800:	65040020 	strvs	r0, [r4, #-32]
10005804:	00746e69 	rsbseq	r6, r4, r9, ror #28

10005808 <Code_1251>:
10005808:	b662      	cpsie	i
1000580a:	4770      	bx	lr

1000580c <Dictionary_1252>:
1000580c:	1000581c 	andne	r5, r0, ip, lsl r8
10005810:	64040020 	strvs	r0, [r4], #-32
10005814:	00746e69 	rsbseq	r6, r4, r9, ror #28

10005818 <Code_1252>:
10005818:	b672      	cpsid	i
1000581a:	4770      	bx	lr

1000581c <Dictionary_1253>:
1000581c:	10005834 	andne	r5, r0, r4, lsr r8
10005820:	69040020 	stmdbvs	r4, {r5}
10005824:	00727370 	rsbseq	r7, r2, r0, ror r3

10005828 <Code_1253>:
10005828:	3f04      	subs	r7, #4
1000582a:	603e      	str	r6, [r7, #0]
1000582c:	f3ef 8605 	mrs	r6, IPSR
10005830:	4770      	bx	lr
10005832:	46c0      	nop			; (mov r8, r8)

10005834 <Dictionary_1255>:
10005834:	10005840 	andne	r5, r0, r0, asr #16
10005838:	6e030000 	cdpvs	0, 0, cr0, cr3, cr0, {0}
1000583c:	4770706f 	ldrbmi	r7, [r0, -pc, rrx]!

1000583e <Code_1255>:
1000583e:	4770      	bx	lr

10005840 <Dictionary_1256>:
10005840:	10005884 	andne	r5, r0, r4, lsl #17
10005844:	75090000 	strvc	r0, [r9]
10005848:	6e61686e 	cdpvs	8, 6, cr6, cr1, cr14, {3}
1000584c:	64656c64 	strbtvs	r6, [r5], #-3172	; 0xc64

10005850 <Code_1256>:
10005850:	b500      	push	{lr}
10005852:	f7fd ffc9 	bl	100037e8 <dotgaensefuesschen>
10005856:	686e5514 	stmdavs	lr!, {r2, r4, r8, sl, ip, lr}^
1000585a:	6c646e61 	stclvs	14, cr6, [r4], #-388	; 0xfffffe7c
1000585e:	49206465 	stmdbmi	r0!, {r0, r2, r5, r6, sl, sp, lr}
10005862:	7265746e 	rsbvc	r7, r5, #1845493760	; 0x6e000000
10005866:	74707572 	ldrbtvc	r7, [r0], #-1394	; 0x572
1000586a:	3f040020 	svccc	0x00040020
1000586e:	603e      	str	r6, [r7, #0]
10005870:	f3ef 8605 	mrs	r6, IPSR
10005874:	f7fe f830 	bl	100038d8 <Code_649>
10005878:	f7fd ffb6 	bl	100037e8 <dotgaensefuesschen>
1000587c:	000a2102 	andeq	r2, sl, r2, lsl #2
10005880:	bd00      	pop	{pc}
10005882:	46c0      	nop			; (mov r8, r8)

10005884 <Dictionary_1260>:
10005884:	10005898 	mulne	r0, r8, r8
10005888:	72050000 	andvc	r0, r5, #0
1000588c:	74657365 	strbtvc	r7, [r5], #-869	; 0x365

10005890 <Code_1260>:
10005890:	481d      	ldr	r0, [pc, #116]	; (10005908 <nullhandler+0x6>)
10005892:	491e      	ldr	r1, [pc, #120]	; (1000590c <nullhandler+0xa>)
10005894:	6001      	str	r1, [r0, #0]
10005896:	46c0      	nop			; (mov r8, r8)

10005898 <Dictionary_1262>:
10005898:	100058bc 			; <UNDEFINED> instruction: 0x100058bc
1000589c:	690b0081 	stmdbvs	fp, {r0, r7}
100058a0:	732d7172 	teqvc	sp, #-2147483620	; 0x8000001c
100058a4:	69747379 	ldmdbvs	r4!, {r0, r3, r4, r5, r6, r8, r9, ip, sp, lr}^
100058a8:	3f046b63 	svccc	0x00046b63

100058aa <Code_1262>:
100058aa:	3f04      	subs	r7, #4
100058ac:	603e      	str	r6, [r7, #0]
100058ae:	4e18      	ldr	r6, [pc, #96]	; (10005910 <nullhandler+0xe>)
100058b0:	4770      	bx	lr
100058b2:	10005850 	andne	r5, r0, r0, asr r8

100058b6 <irq_vektor_systick>:
100058b6:	4816      	ldr	r0, [pc, #88]	; (10005910 <nullhandler+0xe>)
100058b8:	6800      	ldr	r0, [r0, #0]
100058ba:	4687      	mov	pc, r0

100058bc <Dictionary_1266>:
100058bc:	100058e0 	andne	r5, r0, r0, ror #17
100058c0:	69090081 	stmdbvs	r9, {r0, r7}
100058c4:	662d7172 			; <UNDEFINED> instruction: 0x662d7172
100058c8:	746c7561 	strbtvc	r7, [ip], #-1377	; 0x561

100058cc <Code_1266>:
100058cc:	3f04      	subs	r7, #4
100058ce:	603e      	str	r6, [r7, #0]
100058d0:	4e10      	ldr	r6, [pc, #64]	; (10005914 <nullhandler+0x12>)
100058d2:	4770      	bx	lr
100058d4:	10005850 	andne	r5, r0, r0, asr r8

100058d8 <faulthandler>:
100058d8:	480e      	ldr	r0, [pc, #56]	; (10005914 <nullhandler+0x12>)
100058da:	6800      	ldr	r0, [r0, #0]
100058dc:	4687      	mov	pc, r0
100058de:	46c0      	nop			; (mov r8, r8)

100058e0 <Dictionary_1270>:
100058e0:	10005a10 	andne	r5, r0, r0, lsl sl
100058e4:	690e0081 	stmdbvs	lr, {r0, r7}
100058e8:	632d7172 	teqvs	sp, #-2147483620	; 0x8000001c
100058ec:	656c6c6f 	strbvs	r6, [ip, #-3183]!	; 0xc6f
100058f0:	6f697463 	svcvs	0x00697463
100058f4:	3f04006e 	svccc	0x0004006e

100058f6 <Code_1270>:
100058f6:	3f04      	subs	r7, #4
100058f8:	603e      	str	r6, [r7, #0]
100058fa:	4e07      	ldr	r6, [pc, #28]	; (10005918 <nullhandler+0x16>)
100058fc:	4770      	bx	lr
100058fe:	10005850 	andne	r5, r0, r0, asr r8

10005902 <nullhandler>:
10005902:	4805      	ldr	r0, [pc, #20]	; (10005918 <nullhandler+0x16>)
10005904:	6800      	ldr	r0, [r0, #0]
10005906:	4687      	mov	pc, r0
10005908:	e000ed0c 	and	lr, r0, ip, lsl #26
1000590c:	05fa0004 	ldrbeq	r0, [sl, #4]!
10005910:	20003fd0 	ldrdcs	r3, [r0], -r0
10005914:	20003fcc 	andcs	r3, r0, ip, asr #31
10005918:	20003fc8 	andcs	r3, r0, r8, asr #31

1000591c <irq_entry>:
1000591c:	6800      	ldr	r0, [r0, #0]
1000591e:	4687      	mov	pc, r0
10005920:	46c0      	nop			; (mov r8, r8)
10005922:	46c0      	nop			; (mov r8, r8)
10005924:	46c0      	nop			; (mov r8, r8)
10005926:	46c0      	nop			; (mov r8, r8)
10005928:	4800      	ldr	r0, [pc, #0]	; (1000592c <irq_entry+0x10>)
1000592a:	e7f7      	b.n	1000591c <irq_entry>
1000592c:	20003fcc 	andcs	r3, r0, ip, asr #31
10005930:	46c0      	nop			; (mov r8, r8)
10005932:	46c0      	nop			; (mov r8, r8)
10005934:	46c0      	nop			; (mov r8, r8)
10005936:	46c0      	nop			; (mov r8, r8)
10005938:	46c0      	nop			; (mov r8, r8)
1000593a:	46c0      	nop			; (mov r8, r8)
1000593c:	46c0      	nop			; (mov r8, r8)
1000593e:	46c0      	nop			; (mov r8, r8)
10005940:	46c0      	nop			; (mov r8, r8)
10005942:	46c0      	nop			; (mov r8, r8)
10005944:	46c0      	nop			; (mov r8, r8)
10005946:	46c0      	nop			; (mov r8, r8)
10005948:	481d      	ldr	r0, [pc, #116]	; (100059c0 <irq_entry+0xa4>)
1000594a:	e7e7      	b.n	1000591c <irq_entry>
1000594c:	46c0      	nop			; (mov r8, r8)
1000594e:	46c0      	nop			; (mov r8, r8)
10005950:	46c0      	nop			; (mov r8, r8)
10005952:	46c0      	nop			; (mov r8, r8)
10005954:	481a      	ldr	r0, [pc, #104]	; (100059c0 <irq_entry+0xa4>)
10005956:	e7e1      	b.n	1000591c <irq_entry>
10005958:	481a      	ldr	r0, [pc, #104]	; (100059c4 <irq_entry+0xa8>)
1000595a:	e7df      	b.n	1000591c <irq_entry>
1000595c:	481a      	ldr	r0, [pc, #104]	; (100059c8 <irq_entry+0xac>)
1000595e:	e7dd      	b.n	1000591c <irq_entry>
10005960:	481a      	ldr	r0, [pc, #104]	; (100059cc <irq_entry+0xb0>)
10005962:	e7db      	b.n	1000591c <irq_entry>
10005964:	46c0      	nop			; (mov r8, r8)
10005966:	46c0      	nop			; (mov r8, r8)
10005968:	4819      	ldr	r0, [pc, #100]	; (100059d0 <irq_entry+0xb4>)
1000596a:	e7d7      	b.n	1000591c <irq_entry>
1000596c:	4819      	ldr	r0, [pc, #100]	; (100059d4 <irq_entry+0xb8>)
1000596e:	e7d5      	b.n	1000591c <irq_entry>
10005970:	4819      	ldr	r0, [pc, #100]	; (100059d8 <irq_entry+0xbc>)
10005972:	e7d3      	b.n	1000591c <irq_entry>
10005974:	4819      	ldr	r0, [pc, #100]	; (100059dc <irq_entry+0xc0>)
10005976:	e7d1      	b.n	1000591c <irq_entry>
10005978:	46c0      	nop			; (mov r8, r8)
1000597a:	46c0      	nop			; (mov r8, r8)
1000597c:	46c0      	nop			; (mov r8, r8)
1000597e:	46c0      	nop			; (mov r8, r8)
10005980:	4817      	ldr	r0, [pc, #92]	; (100059e0 <irq_entry+0xc4>)
10005982:	e7cb      	b.n	1000591c <irq_entry>
10005984:	4817      	ldr	r0, [pc, #92]	; (100059e4 <irq_entry+0xc8>)
10005986:	e7c9      	b.n	1000591c <irq_entry>
10005988:	4817      	ldr	r0, [pc, #92]	; (100059e8 <irq_entry+0xcc>)
1000598a:	e7c7      	b.n	1000591c <irq_entry>
1000598c:	4817      	ldr	r0, [pc, #92]	; (100059ec <irq_entry+0xd0>)
1000598e:	e7c5      	b.n	1000591c <irq_entry>
10005990:	4817      	ldr	r0, [pc, #92]	; (100059f0 <irq_entry+0xd4>)
10005992:	e7c3      	b.n	1000591c <irq_entry>
10005994:	4817      	ldr	r0, [pc, #92]	; (100059f4 <irq_entry+0xd8>)
10005996:	e7c1      	b.n	1000591c <irq_entry>
10005998:	4817      	ldr	r0, [pc, #92]	; (100059f8 <irq_entry+0xdc>)
1000599a:	e7bf      	b.n	1000591c <irq_entry>
1000599c:	4817      	ldr	r0, [pc, #92]	; (100059fc <irq_entry+0xe0>)
1000599e:	e7bd      	b.n	1000591c <irq_entry>
100059a0:	46c0      	nop			; (mov r8, r8)
100059a2:	46c0      	nop			; (mov r8, r8)
100059a4:	46c0      	nop			; (mov r8, r8)
100059a6:	46c0      	nop			; (mov r8, r8)
100059a8:	46c0      	nop			; (mov r8, r8)
100059aa:	46c0      	nop			; (mov r8, r8)
100059ac:	46c0      	nop			; (mov r8, r8)
100059ae:	46c0      	nop			; (mov r8, r8)
100059b0:	4813      	ldr	r0, [pc, #76]	; (10005a00 <irq_entry+0xe4>)
100059b2:	e7b3      	b.n	1000591c <irq_entry>
100059b4:	4813      	ldr	r0, [pc, #76]	; (10005a04 <irq_entry+0xe8>)
100059b6:	e7b1      	b.n	1000591c <irq_entry>
100059b8:	4813      	ldr	r0, [pc, #76]	; (10005a08 <irq_entry+0xec>)
100059ba:	e7af      	b.n	1000591c <irq_entry>
100059bc:	4813      	ldr	r0, [pc, #76]	; (10005a0c <irq_entry+0xf0>)
100059be:	e7ad      	b.n	1000591c <irq_entry>
100059c0:	20003fc8 	andcs	r3, r0, r8, asr #31
100059c4:	20003fd0 	ldrdcs	r3, [r0], -r0
100059c8:	20003fc4 	andcs	r3, r0, r4, asr #31
100059cc:	20003fc0 	andcs	r3, r0, r0, asr #31
100059d0:	20003fbc 			; <UNDEFINED> instruction: 0x20003fbc
100059d4:	20003fb8 			; <UNDEFINED> instruction: 0x20003fb8
100059d8:	20003fb4 			; <UNDEFINED> instruction: 0x20003fb4
100059dc:	20003fb0 			; <UNDEFINED> instruction: 0x20003fb0
100059e0:	20003fac 	andcs	r3, r0, ip, lsr #31
100059e4:	20003fa8 	andcs	r3, r0, r8, lsr #31
100059e8:	20003fa4 	andcs	r3, r0, r4, lsr #31
100059ec:	20003fa0 	andcs	r3, r0, r0, lsr #31
100059f0:	20003f9c 	mulcs	r0, ip, pc	; <UNPREDICTABLE>
100059f4:	20003f98 	mulcs	r0, r8, pc	; <UNPREDICTABLE>
100059f8:	20003f94 	mulcs	r0, r4, pc	; <UNPREDICTABLE>
100059fc:	20003f90 	mulcs	r0, r0, pc	; <UNPREDICTABLE>
10005a00:	20003f8c 	andcs	r3, r0, ip, lsl #31
10005a04:	20003f88 	andcs	r3, r0, r8, lsl #31
10005a08:	20003f84 	andcs	r3, r0, r4, lsl #31
10005a0c:	20003f80 	andcs	r3, r0, r0, lsl #31

10005a10 <Dictionary_1274>:
10005a10:	10005a34 	andne	r5, r0, r4, lsr sl
10005a14:	69080081 	stmdbvs	r8, {r0, r7}
10005a18:	732d7172 	teqvc	sp, #-2147483620	; 0x8000001c
10005a1c:	00307563 	eorseq	r7, r0, r3, ror #10

10005a20 <Code_1274>:
10005a20:	3f04      	subs	r7, #4
10005a22:	603e      	str	r6, [r7, #0]
10005a24:	4ef0      	ldr	r6, [pc, #960]	; (10005de8 <init_name+0x6>)
10005a26:	4770      	bx	lr
10005a28:	10005850 	andne	r5, r0, r0, asr r8

10005a2c <irq_vektor_scu0>:
10005a2c:	48ee      	ldr	r0, [pc, #952]	; (10005de8 <init_name+0x6>)
10005a2e:	6800      	ldr	r0, [r0, #0]
10005a30:	4687      	mov	pc, r0
10005a32:	46c0      	nop			; (mov r8, r8)

10005a34 <Dictionary_1278>:
10005a34:	10005a58 	andne	r5, r0, r8, asr sl
10005a38:	69080081 	stmdbvs	r8, {r0, r7}
10005a3c:	732d7172 	teqvc	sp, #-2147483620	; 0x8000001c
10005a40:	00317563 	eorseq	r7, r1, r3, ror #10

10005a44 <Code_1278>:
10005a44:	3f04      	subs	r7, #4
10005a46:	603e      	str	r6, [r7, #0]
10005a48:	4ee8      	ldr	r6, [pc, #928]	; (10005dec <init_name+0xa>)
10005a4a:	4770      	bx	lr
10005a4c:	10005850 	andne	r5, r0, r0, asr r8

10005a50 <irq_vektor_scu1>:
10005a50:	48e6      	ldr	r0, [pc, #920]	; (10005dec <init_name+0xa>)
10005a52:	6800      	ldr	r0, [r0, #0]
10005a54:	4687      	mov	pc, r0
10005a56:	46c0      	nop			; (mov r8, r8)

10005a58 <Dictionary_1282>:
10005a58:	10005a7c 	andne	r5, r0, ip, ror sl
10005a5c:	69080081 	stmdbvs	r8, {r0, r7}
10005a60:	652d7172 	strvs	r7, [sp, #-370]!	; 0x172
10005a64:	00307572 	eorseq	r7, r0, r2, ror r5

10005a68 <Code_1282>:
10005a68:	3f04      	subs	r7, #4
10005a6a:	603e      	str	r6, [r7, #0]
10005a6c:	4ee0      	ldr	r6, [pc, #896]	; (10005df0 <init_name+0xe>)
10005a6e:	4770      	bx	lr
10005a70:	10005850 	andne	r5, r0, r0, asr r8

10005a74 <irq_vektor_eru0>:
10005a74:	48de      	ldr	r0, [pc, #888]	; (10005df0 <init_name+0xe>)
10005a76:	6800      	ldr	r0, [r0, #0]
10005a78:	4687      	mov	pc, r0
10005a7a:	46c0      	nop			; (mov r8, r8)

10005a7c <Dictionary_1286>:
10005a7c:	10005aa0 	andne	r5, r0, r0, lsr #21
10005a80:	69080081 	stmdbvs	r8, {r0, r7}
10005a84:	652d7172 	strvs	r7, [sp, #-370]!	; 0x172
10005a88:	00317572 	eorseq	r7, r1, r2, ror r5

10005a8c <Code_1286>:
10005a8c:	3f04      	subs	r7, #4
10005a8e:	603e      	str	r6, [r7, #0]
10005a90:	4ed8      	ldr	r6, [pc, #864]	; (10005df4 <init_name+0x12>)
10005a92:	4770      	bx	lr
10005a94:	10005850 	andne	r5, r0, r0, asr r8

10005a98 <irq_vektor_eru1>:
10005a98:	48d6      	ldr	r0, [pc, #856]	; (10005df4 <init_name+0x12>)
10005a9a:	6800      	ldr	r0, [r0, #0]
10005a9c:	4687      	mov	pc, r0
10005a9e:	46c0      	nop			; (mov r8, r8)

10005aa0 <Dictionary_1290>:
10005aa0:	10005ac4 	andne	r5, r0, r4, asr #21
10005aa4:	69080081 	stmdbvs	r8, {r0, r7}
10005aa8:	652d7172 	strvs	r7, [sp, #-370]!	; 0x172
10005aac:	00327572 	eorseq	r7, r2, r2, ror r5

10005ab0 <Code_1290>:
10005ab0:	3f04      	subs	r7, #4
10005ab2:	603e      	str	r6, [r7, #0]
10005ab4:	4ed0      	ldr	r6, [pc, #832]	; (10005df8 <init_name+0x16>)
10005ab6:	4770      	bx	lr
10005ab8:	10005850 	andne	r5, r0, r0, asr r8

10005abc <irq_vektor_eru2>:
10005abc:	48ce      	ldr	r0, [pc, #824]	; (10005df8 <init_name+0x16>)
10005abe:	6800      	ldr	r0, [r0, #0]
10005ac0:	4687      	mov	pc, r0
10005ac2:	46c0      	nop			; (mov r8, r8)

10005ac4 <Dictionary_1294>:
10005ac4:	10005ae8 	andne	r5, r0, r8, ror #21
10005ac8:	69080081 	stmdbvs	r8, {r0, r7}
10005acc:	652d7172 	strvs	r7, [sp, #-370]!	; 0x172
10005ad0:	00337572 	eorseq	r7, r3, r2, ror r5

10005ad4 <Code_1294>:
10005ad4:	3f04      	subs	r7, #4
10005ad6:	603e      	str	r6, [r7, #0]
10005ad8:	4ec8      	ldr	r6, [pc, #800]	; (10005dfc <init_name+0x1a>)
10005ada:	4770      	bx	lr
10005adc:	10005850 	andne	r5, r0, r0, asr r8

10005ae0 <irq_vektor_eru3>:
10005ae0:	48c6      	ldr	r0, [pc, #792]	; (10005dfc <init_name+0x1a>)
10005ae2:	6800      	ldr	r0, [r0, #0]
10005ae4:	4687      	mov	pc, r0
10005ae6:	46c0      	nop			; (mov r8, r8)

10005ae8 <Dictionary_1298>:
10005ae8:	10005b0c 	andne	r5, r0, ip, lsl #22
10005aec:	69080081 	stmdbvs	r8, {r0, r7}
10005af0:	752d7172 	strvc	r7, [sp, #-370]!	; 0x172
10005af4:	00306973 	eorseq	r6, r0, r3, ror r9

10005af8 <Code_1298>:
10005af8:	3f04      	subs	r7, #4
10005afa:	603e      	str	r6, [r7, #0]
10005afc:	4ec0      	ldr	r6, [pc, #768]	; (10005e00 <init_name+0x1e>)
10005afe:	4770      	bx	lr
10005b00:	10005850 	andne	r5, r0, r0, asr r8

10005b04 <irq_vektor_usi0>:
10005b04:	48be      	ldr	r0, [pc, #760]	; (10005e00 <init_name+0x1e>)
10005b06:	6800      	ldr	r0, [r0, #0]
10005b08:	4687      	mov	pc, r0
10005b0a:	46c0      	nop			; (mov r8, r8)

10005b0c <Dictionary_1302>:
10005b0c:	10005b30 	andne	r5, r0, r0, lsr fp
10005b10:	69080081 	stmdbvs	r8, {r0, r7}
10005b14:	752d7172 	strvc	r7, [sp, #-370]!	; 0x172
10005b18:	00316973 	eorseq	r6, r1, r3, ror r9

10005b1c <Code_1302>:
10005b1c:	3f04      	subs	r7, #4
10005b1e:	603e      	str	r6, [r7, #0]
10005b20:	4eb8      	ldr	r6, [pc, #736]	; (10005e04 <init_name+0x22>)
10005b22:	4770      	bx	lr
10005b24:	10005850 	andne	r5, r0, r0, asr r8

10005b28 <irq_vektor_usi1>:
10005b28:	48b6      	ldr	r0, [pc, #728]	; (10005e04 <init_name+0x22>)
10005b2a:	6800      	ldr	r0, [r0, #0]
10005b2c:	4687      	mov	pc, r0
10005b2e:	46c0      	nop			; (mov r8, r8)

10005b30 <Dictionary_1306>:
10005b30:	10005b54 	andne	r5, r0, r4, asr fp
10005b34:	69080081 	stmdbvs	r8, {r0, r7}
10005b38:	752d7172 	strvc	r7, [sp, #-370]!	; 0x172
10005b3c:	00326973 	eorseq	r6, r2, r3, ror r9

10005b40 <Code_1306>:
10005b40:	3f04      	subs	r7, #4
10005b42:	603e      	str	r6, [r7, #0]
10005b44:	4eb0      	ldr	r6, [pc, #704]	; (10005e08 <init_name+0x26>)
10005b46:	4770      	bx	lr
10005b48:	10005850 	andne	r5, r0, r0, asr r8

10005b4c <irq_vektor_usi2>:
10005b4c:	48ae      	ldr	r0, [pc, #696]	; (10005e08 <init_name+0x26>)
10005b4e:	6800      	ldr	r0, [r0, #0]
10005b50:	4687      	mov	pc, r0
10005b52:	46c0      	nop			; (mov r8, r8)

10005b54 <Dictionary_1310>:
10005b54:	10005b78 	andne	r5, r0, r8, ror fp
10005b58:	69080081 	stmdbvs	r8, {r0, r7}
10005b5c:	752d7172 	strvc	r7, [sp, #-370]!	; 0x172
10005b60:	00336973 	eorseq	r6, r3, r3, ror r9

10005b64 <Code_1310>:
10005b64:	3f04      	subs	r7, #4
10005b66:	603e      	str	r6, [r7, #0]
10005b68:	4ea8      	ldr	r6, [pc, #672]	; (10005e0c <init_name+0x2a>)
10005b6a:	4770      	bx	lr
10005b6c:	10005850 	andne	r5, r0, r0, asr r8

10005b70 <irq_vektor_usi3>:
10005b70:	48a6      	ldr	r0, [pc, #664]	; (10005e0c <init_name+0x2a>)
10005b72:	6800      	ldr	r0, [r0, #0]
10005b74:	4687      	mov	pc, r0
10005b76:	46c0      	nop			; (mov r8, r8)

10005b78 <Dictionary_1314>:
10005b78:	10005b9c 	mulne	r0, ip, fp
10005b7c:	69080081 	stmdbvs	r8, {r0, r7}
10005b80:	752d7172 	strvc	r7, [sp, #-370]!	; 0x172
10005b84:	00346973 	eorseq	r6, r4, r3, ror r9

10005b88 <Code_1314>:
10005b88:	3f04      	subs	r7, #4
10005b8a:	603e      	str	r6, [r7, #0]
10005b8c:	4ea0      	ldr	r6, [pc, #640]	; (10005e10 <init_name+0x2e>)
10005b8e:	4770      	bx	lr
10005b90:	10005850 	andne	r5, r0, r0, asr r8

10005b94 <irq_vektor_usi4>:
10005b94:	489e      	ldr	r0, [pc, #632]	; (10005e10 <init_name+0x2e>)
10005b96:	6800      	ldr	r0, [r0, #0]
10005b98:	4687      	mov	pc, r0
10005b9a:	46c0      	nop			; (mov r8, r8)

10005b9c <Dictionary_1318>:
10005b9c:	10005bc0 	andne	r5, r0, r0, asr #23
10005ba0:	69080081 	stmdbvs	r8, {r0, r7}
10005ba4:	752d7172 	strvc	r7, [sp, #-370]!	; 0x172
10005ba8:	00356973 	eorseq	r6, r5, r3, ror r9

10005bac <Code_1318>:
10005bac:	3f04      	subs	r7, #4
10005bae:	603e      	str	r6, [r7, #0]
10005bb0:	4e98      	ldr	r6, [pc, #608]	; (10005e14 <init_name+0x32>)
10005bb2:	4770      	bx	lr
10005bb4:	10005850 	andne	r5, r0, r0, asr r8

10005bb8 <irq_vektor_usi5>:
10005bb8:	4896      	ldr	r0, [pc, #600]	; (10005e14 <init_name+0x32>)
10005bba:	6800      	ldr	r0, [r0, #0]
10005bbc:	4687      	mov	pc, r0
10005bbe:	46c0      	nop			; (mov r8, r8)

10005bc0 <Dictionary_1322>:
10005bc0:	10005be4 	andne	r5, r0, r4, ror #23
10005bc4:	69080081 	stmdbvs	r8, {r0, r7}
10005bc8:	612d7172 	teqvs	sp, r2, ror r1
10005bcc:	00306364 	eorseq	r6, r0, r4, ror #6

10005bd0 <Code_1322>:
10005bd0:	3f04      	subs	r7, #4
10005bd2:	603e      	str	r6, [r7, #0]
10005bd4:	4e90      	ldr	r6, [pc, #576]	; (10005e18 <init_name+0x36>)
10005bd6:	4770      	bx	lr
10005bd8:	10005850 	andne	r5, r0, r0, asr r8

10005bdc <irq_vektor_adc0>:
10005bdc:	488e      	ldr	r0, [pc, #568]	; (10005e18 <init_name+0x36>)
10005bde:	6800      	ldr	r0, [r0, #0]
10005be0:	4687      	mov	pc, r0
10005be2:	46c0      	nop			; (mov r8, r8)

10005be4 <Dictionary_1326>:
10005be4:	10005c08 	andne	r5, r0, r8, lsl #24
10005be8:	69080081 	stmdbvs	r8, {r0, r7}
10005bec:	612d7172 	teqvs	sp, r2, ror r1
10005bf0:	00316364 	eorseq	r6, r1, r4, ror #6

10005bf4 <Code_1326>:
10005bf4:	3f04      	subs	r7, #4
10005bf6:	603e      	str	r6, [r7, #0]
10005bf8:	4e88      	ldr	r6, [pc, #544]	; (10005e1c <init_name+0x3a>)
10005bfa:	4770      	bx	lr
10005bfc:	10005850 	andne	r5, r0, r0, asr r8

10005c00 <irq_vektor_adc1>:
10005c00:	4886      	ldr	r0, [pc, #536]	; (10005e1c <init_name+0x3a>)
10005c02:	6800      	ldr	r0, [r0, #0]
10005c04:	4687      	mov	pc, r0
10005c06:	46c0      	nop			; (mov r8, r8)

10005c08 <Dictionary_1330>:
10005c08:	10005c2c 	andne	r5, r0, ip, lsr #24
10005c0c:	69080081 	stmdbvs	r8, {r0, r7}
10005c10:	632d7172 	teqvs	sp, #-2147483620	; 0x8000001c
10005c14:	00307563 	eorseq	r7, r0, r3, ror #10

10005c18 <Code_1330>:
10005c18:	3f04      	subs	r7, #4
10005c1a:	603e      	str	r6, [r7, #0]
10005c1c:	4e80      	ldr	r6, [pc, #512]	; (10005e20 <init_name+0x3e>)
10005c1e:	4770      	bx	lr
10005c20:	10005850 	andne	r5, r0, r0, asr r8

10005c24 <irq_vektor_ccu0>:
10005c24:	487e      	ldr	r0, [pc, #504]	; (10005e20 <init_name+0x3e>)
10005c26:	6800      	ldr	r0, [r0, #0]
10005c28:	4687      	mov	pc, r0
10005c2a:	46c0      	nop			; (mov r8, r8)

10005c2c <Dictionary_1334>:
10005c2c:	10005c50 	andne	r5, r0, r0, asr ip
10005c30:	69080081 	stmdbvs	r8, {r0, r7}
10005c34:	632d7172 	teqvs	sp, #-2147483620	; 0x8000001c
10005c38:	00317563 	eorseq	r7, r1, r3, ror #10

10005c3c <Code_1334>:
10005c3c:	3f04      	subs	r7, #4
10005c3e:	603e      	str	r6, [r7, #0]
10005c40:	4e78      	ldr	r6, [pc, #480]	; (10005e24 <init_name+0x42>)
10005c42:	4770      	bx	lr
10005c44:	10005850 	andne	r5, r0, r0, asr r8

10005c48 <irq_vektor_ccu1>:
10005c48:	4876      	ldr	r0, [pc, #472]	; (10005e24 <init_name+0x42>)
10005c4a:	6800      	ldr	r0, [r0, #0]
10005c4c:	4687      	mov	pc, r0
10005c4e:	46c0      	nop			; (mov r8, r8)

10005c50 <Dictionary_1338>:
10005c50:	10005c74 	andne	r5, r0, r4, ror ip
10005c54:	69080081 	stmdbvs	r8, {r0, r7}
10005c58:	632d7172 	teqvs	sp, #-2147483620	; 0x8000001c
10005c5c:	00327563 	eorseq	r7, r2, r3, ror #10

10005c60 <Code_1338>:
10005c60:	3f04      	subs	r7, #4
10005c62:	603e      	str	r6, [r7, #0]
10005c64:	4e70      	ldr	r6, [pc, #448]	; (10005e28 <init_name+0x46>)
10005c66:	4770      	bx	lr
10005c68:	10005850 	andne	r5, r0, r0, asr r8

10005c6c <irq_vektor_ccu2>:
10005c6c:	486e      	ldr	r0, [pc, #440]	; (10005e28 <init_name+0x46>)
10005c6e:	6800      	ldr	r0, [r0, #0]
10005c70:	4687      	mov	pc, r0
10005c72:	46c0      	nop			; (mov r8, r8)

10005c74 <Dictionary_1342>:
10005c74:	10005c98 	mulne	r0, r8, ip
10005c78:	69080081 	stmdbvs	r8, {r0, r7}
10005c7c:	632d7172 	teqvs	sp, #-2147483620	; 0x8000001c
10005c80:	00337563 	eorseq	r7, r3, r3, ror #10

10005c84 <Code_1342>:
10005c84:	3f04      	subs	r7, #4
10005c86:	603e      	str	r6, [r7, #0]
10005c88:	4e68      	ldr	r6, [pc, #416]	; (10005e2c <init_name+0x4a>)
10005c8a:	4770      	bx	lr
10005c8c:	10005850 	andne	r5, r0, r0, asr r8

10005c90 <irq_vektor_ccu3>:
10005c90:	4866      	ldr	r0, [pc, #408]	; (10005e2c <init_name+0x4a>)
10005c92:	6800      	ldr	r0, [r0, #0]
10005c94:	4687      	mov	pc, r0
10005c96:	46c0      	nop			; (mov r8, r8)

10005c98 <Dictionary_1345>:
10005c98:	1000600c 	andne	r6, r0, ip
10005c9c:	2d18ffff 	ldccs	15, cr15, [r8, #-1020]	; 0xfffffc04
10005ca0:	46202d2d 	strtmi	r2, [r0], -sp, lsr #26
10005ca4:	6873616c 	ldmdavs	r3!, {r2, r3, r5, r6, r8, sp, lr}^
10005ca8:	63694420 	cmnvs	r9, #536870912	; 0x20000000
10005cac:	6e6f6974 	mcrvs	9, 3, r6, cr15, cr4, {3}
10005cb0:	20797261 	rsbscs	r7, r9, r1, ror #4
10005cb4:	002d2d2d 	eoreq	r2, sp, sp, lsr #26

10005cb8 <Code_1345>:
10005cb8:	f7fd fb14 	bl	100032e4 <uart_init>
10005cbc:	4f5c      	ldr	r7, [pc, #368]	; (10005e30 <init_name+0x4e>)
10005cbe:	3f04      	subs	r7, #4
10005cc0:	603e      	str	r6, [r7, #0]
10005cc2:	4e5c      	ldr	r6, [pc, #368]	; (10005e34 <init_name+0x52>)
10005cc4:	3f04      	subs	r7, #4
10005cc6:	603e      	str	r6, [r7, #0]
10005cc8:	4e5b      	ldr	r6, [pc, #364]	; (10005e38 <init_name+0x56>)
10005cca:	3f04      	subs	r7, #4
10005ccc:	603e      	str	r6, [r7, #0]
10005cce:	26f4      	movs	r6, #244	; 0xf4
10005cd0:	f7fc fcdc 	bl	1000268c <Code_368>
10005cd4:	4859      	ldr	r0, [pc, #356]	; (10005e3c <init_name+0x5a>)
10005cd6:	4685      	mov	sp, r0
10005cd8:	4f55      	ldr	r7, [pc, #340]	; (10005e30 <init_name+0x4e>)
10005cda:	262a      	movs	r6, #42	; 0x2a
10005cdc:	4858      	ldr	r0, [pc, #352]	; (10005e40 <init_name+0x5e>)
10005cde:	4959      	ldr	r1, [pc, #356]	; (10005e44 <init_name+0x62>)
10005ce0:	6001      	str	r1, [r0, #0]
10005ce2:	4859      	ldr	r0, [pc, #356]	; (10005e48 <init_name+0x66>)
10005ce4:	4959      	ldr	r1, [pc, #356]	; (10005e4c <init_name+0x6a>)
10005ce6:	6001      	str	r1, [r0, #0]
10005ce8:	3f04      	subs	r7, #4
10005cea:	603e      	str	r6, [r7, #0]
10005cec:	4e57      	ldr	r6, [pc, #348]	; (10005e4c <init_name+0x6a>)
10005cee:	4d58      	ldr	r5, [pc, #352]	; (10005e50 <init_name+0x6e>)

10005cf0 <SucheFlashPointer_Hangelschleife>:
10005cf0:	88b1      	ldrh	r1, [r6, #4]
10005cf2:	4b58      	ldr	r3, [pc, #352]	; (10005e54 <init_name+0x72>)
10005cf4:	4299      	cmp	r1, r3
10005cf6:	d024      	beq.n	10005d42 <Sucheflashpointer_Speicherbelegung_fertig>
10005cf8:	4b57      	ldr	r3, [pc, #348]	; (10005e58 <init_name+0x76>)
10005cfa:	400b      	ands	r3, r1
10005cfc:	d00a      	beq.n	10005d14 <SucheFlashPointer_Hangelschleife+0x24>
10005cfe:	1db0      	adds	r0, r6, #6
10005d00:	f7fe fd6a 	bl	100047d8 <skipstring>
10005d04:	f7fe f89d 	bl	10003e42 <suchedefinitionsende>
10005d08:	8803      	ldrh	r3, [r0, #0]
10005d0a:	8840      	ldrh	r0, [r0, #2]
10005d0c:	0400      	lsls	r0, r0, #16
10005d0e:	4303      	orrs	r3, r0
10005d10:	1aed      	subs	r5, r5, r3
10005d12:	e016      	b.n	10005d42 <Sucheflashpointer_Speicherbelegung_fertig>
10005d14:	2380      	movs	r3, #128	; 0x80
10005d16:	400b      	ands	r3, r1
10005d18:	d013      	beq.n	10005d42 <Sucheflashpointer_Speicherbelegung_fertig>
10005d1a:	230f      	movs	r3, #15
10005d1c:	4019      	ands	r1, r3
10005d1e:	0089      	lsls	r1, r1, #2
10005d20:	1a6d      	subs	r5, r5, r1
10005d22:	1db0      	adds	r0, r6, #6
10005d24:	f7fe fd58 	bl	100047d8 <skipstring>
10005d28:	f7fe f88b 	bl	10003e42 <suchedefinitionsende>
10005d2c:	3f04      	subs	r7, #4
10005d2e:	603e      	str	r6, [r7, #0]
10005d30:	0006      	movs	r6, r0
10005d32:	3f04      	subs	r7, #4
10005d34:	603e      	str	r6, [r7, #0]
10005d36:	002e      	movs	r6, r5
10005d38:	3f04      	subs	r7, #4
10005d3a:	603e      	str	r6, [r7, #0]
10005d3c:	000e      	movs	r6, r1
10005d3e:	f7fc fca5 	bl	1000268c <Code_368>

10005d42 <Sucheflashpointer_Speicherbelegung_fertig>:
10005d42:	f7fe fd26 	bl	10004792 <Code_927>
10005d46:	0030      	movs	r0, r6
10005d48:	cf40      	ldmia	r7!, {r6}
10005d4a:	d0d1      	beq.n	10005cf0 <SucheFlashPointer_Hangelschleife>
10005d4c:	4843      	ldr	r0, [pc, #268]	; (10005e5c <init_name+0x7a>)
10005d4e:	6006      	str	r6, [r0, #0]
10005d50:	cf40      	ldmia	r7!, {r6}
10005d52:	4843      	ldr	r0, [pc, #268]	; (10005e60 <init_name+0x7e>)
10005d54:	6005      	str	r5, [r0, #0]
10005d56:	4843      	ldr	r0, [pc, #268]	; (10005e64 <init_name+0x82>)
10005d58:	4943      	ldr	r1, [pc, #268]	; (10005e68 <init_name+0x86>)
10005d5a:	4a3e      	ldr	r2, [pc, #248]	; (10005e54 <init_name+0x72>)
10005d5c:	4288      	cmp	r0, r1
10005d5e:	d004      	beq.n	10005d6a <Sucheflashpointer_Speicherbelegung_fertig+0x28>
10005d60:	3802      	subs	r0, #2
10005d62:	8803      	ldrh	r3, [r0, #0]
10005d64:	4293      	cmp	r3, r2
10005d66:	d0f9      	beq.n	10005d5c <Sucheflashpointer_Speicherbelegung_fertig+0x1a>
10005d68:	3002      	adds	r0, #2
10005d6a:	4940      	ldr	r1, [pc, #256]	; (10005e6c <init_name+0x8a>)
10005d6c:	6008      	str	r0, [r1, #0]
10005d6e:	f7fd f845 	bl	10002dfc <Code_449>
10005d72:	f7fd fd39 	bl	100037e8 <dotgaensefuesschen>
10005d76:	63654d45 	cmnvs	r5, #4416	; 0x1140
10005d7a:	70736972 	rsbsvc	r6, r3, r2, ror r9
10005d7e:	6574532d 	ldrbvs	r5, [r4, #-813]!	; 0x32d
10005d82:	72616c6c 	rsbvc	r6, r1, #27648	; 0x6c00
10005d86:	52207369 	eorpl	r7, r0, #-1543503871	; 0xa4000001
10005d8a:	2e322041 	cdpcs	0, 3, cr2, cr2, cr1, {2}
10005d8e:	20312e32 	eorscs	r2, r1, r2, lsr lr
10005d92:	68746977 	ldmdavs	r4!, {r0, r1, r2, r4, r5, r6, r8, fp, sp, lr}^
10005d96:	20304d20 	eorscs	r4, r0, r0, lsr #26
10005d9a:	65726f63 	ldrbvs	r6, [r2, #-3939]!	; 0xf63
10005d9e:	726f6620 	rsbvc	r6, pc, #33554432	; 0x2000000
10005da2:	434d5820 	movtmi	r5, #55328	; 0xd820
10005da6:	30303131 	eorscc	r3, r0, r1, lsr r1
10005daa:	20796220 	rsbscs	r6, r9, r0, lsr #4
10005dae:	7474614d 	ldrbtvc	r6, [r4], #-333	; 0x14d
10005db2:	73616968 	cmnvc	r1, #1703936	; 0x1a0000
10005db6:	636f4b20 	cmnvs	pc, #32768	; 0x8000
10005dba:	482c0a68 	stmdami	ip!, {r3, r5, r6, r9, fp}
10005dbe:	2100      	movs	r1, #0
10005dc0:	6001      	str	r1, [r0, #0]
10005dc2:	3f04      	subs	r7, #4
10005dc4:	603e      	str	r6, [r7, #0]
10005dc6:	4e2b      	ldr	r6, [pc, #172]	; (10005e74 <init_name+0x92>)
10005dc8:	3f04      	subs	r7, #4
10005dca:	603e      	str	r6, [r7, #0]
10005dcc:	2604      	movs	r6, #4
10005dce:	f7fe fd13 	bl	100047f8 <Code_932>
10005dd2:	cf40      	ldmia	r7!, {r6}
10005dd4:	2e00      	cmp	r6, #0
10005dd6:	d002      	beq.n	10005dde <Sucheflashpointer_Speicherbelegung_fertig+0x9c>
10005dd8:	f7fe f8c7 	bl	10003f6a <Code_780>
10005ddc:	e4cf      	b.n	1000577e <quit_intern>
10005dde:	cf40      	ldmia	r7!, {r6}
10005de0:	e4b8      	b.n	10005754 <Code_1247>

10005de2 <init_name>:
10005de2:	74696e69 	strbtvc	r6, [r9], #-3689	; 0xe69
10005de6:	3fc40000 	svccc	0x00c40000
10005dea:	3fc02000 	svccc	0x00c02000
10005dee:	3fbc2000 	svccc	0x00bc2000
10005df2:	3fb82000 	svccc	0x00b82000
10005df6:	3fb42000 	svccc	0x00b42000
10005dfa:	3fb02000 	svccc	0x00b02000
10005dfe:	3fac2000 	svccc	0x00ac2000
10005e02:	3fa82000 	svccc	0x00a82000
10005e06:	3fa42000 	svccc	0x00a42000
10005e0a:	3fa02000 	svccc	0x00a02000
10005e0e:	3f9c2000 	svccc	0x009c2000
10005e12:	3f982000 	svccc	0x00982000
10005e16:	3f942000 	svccc	0x00942000
10005e1a:	3f902000 	svccc	0x00902000
10005e1e:	3f8c2000 	svccc	0x008c2000
10005e22:	3f882000 	svccc	0x00882000
10005e26:	3f842000 	svccc	0x00842000
10005e2a:	3f802000 	svccc	0x00802000
10005e2e:	04802000 	streq	r2, [r0]
10005e32:	591c2000 	ldmdbpl	ip, {sp}
10005e36:	00001000 	andeq	r1, r0, r0
10005e3a:	05802000 	streq	r2, [r0]
10005e3e:	00f42000 	rscseq	r2, r4, r0
10005e42:	08242000 	stmdaeq	r4!, {sp}
10005e46:	00f82000 	rscseq	r2, r8, r0
10005e4a:	10182000 	andsne	r2, r8, r0
10005e4e:	40001000 	andmi	r1, r0, r0
10005e52:	ffff2000 			; <UNDEFINED> instruction: 0xffff2000
10005e56:	01000000 	mrseq	r0, (UNDEF: 0)
10005e5a:	01100000 	tsteq	r0, r0
10005e5e:	01182000 	tsteq	r8, r0
10005e62:	10002000 	andne	r2, r0, r0
10005e66:	60001001 	andvs	r1, r0, r1
10005e6a:	010c1000 	mrseq	r1, (UNDEF: 12)
10005e6e:	00fc2000 	rscseq	r2, ip, r0
10005e72:	5de22000 	stclpl	0, cr2, [r2]
10005e76:	Address 0x10005e76 is out of bounds.


Disassembly of section .ARM.attributes:

00000000 <.ARM.attributes>:
   0:	00002241 	andeq	r2, r0, r1, asr #4
   4:	61656100 	cmnvs	r5, r0, lsl #2
   8:	01006962 	tsteq	r0, r2, ror #18
   c:	00000018 	andeq	r0, r0, r8, lsl r0
  10:	726f4305 	rsbvc	r4, pc, #335544320	; 0x14000000
  14:	2d786574 	cfldr64cs	mvdx6, [r8, #-464]!	; 0xfffffe30
  18:	0600304d 	streq	r3, [r0], -sp, asr #32
  1c:	094d070c 	stmdbeq	sp, {r2, r3, r8, r9, sl}^
  20:	Address 0x00000020 is out of bounds.

