
mecrisp-stellaris-stm32l476.elf:     file format elf32-littlearm


Disassembly of section .text:

00000000 <CoreDictionaryAnfang-0x188>:
       0:	2000048c 	andcs	r0, r0, ip, lsl #9
       4:	00004ce9 	andeq	r4, r0, r9, ror #25
       8:	00004aa3 	andeq	r4, r0, r3, lsr #21
       c:	00004aa3 	andeq	r4, r0, r3, lsr #21
      10:	00004aa3 	andeq	r4, r0, r3, lsr #21
      14:	00004aa3 	andeq	r4, r0, r3, lsr #21
      18:	00004aa3 	andeq	r4, r0, r3, lsr #21
	...
      2c:	00004ad1 	ldrdeq	r4, [r0], -r1
      30:	00004ad1 	ldrdeq	r4, [r0], -r1
      34:	00000000 	andeq	r0, r0, r0
      38:	00004ad1 	ldrdeq	r4, [r0], -r1
      3c:	00004a7b 	andeq	r4, r0, fp, ror sl
      40:	00004ad1 	ldrdeq	r4, [r0], -r1
      44:	00004ad1 	ldrdeq	r4, [r0], -r1
      48:	00004ad1 	ldrdeq	r4, [r0], -r1
      4c:	00004ad1 	ldrdeq	r4, [r0], -r1
      50:	00004ad1 	ldrdeq	r4, [r0], -r1
      54:	00004ad1 	ldrdeq	r4, [r0], -r1
      58:	00004af9 	strdeq	r4, [r0], -r9
      5c:	00004b21 	andeq	r4, r0, r1, lsr #22
      60:	00004b49 	andeq	r4, r0, r9, asr #22
      64:	00004b71 	andeq	r4, r0, r1, ror fp
      68:	00004b99 	muleq	r0, r9, fp
      6c:	00004ad1 	ldrdeq	r4, [r0], -r1
      70:	00004ad1 	ldrdeq	r4, [r0], -r1
      74:	00004ad1 	ldrdeq	r4, [r0], -r1
      78:	00004ad1 	ldrdeq	r4, [r0], -r1
      7c:	00004ad1 	ldrdeq	r4, [r0], -r1
      80:	00004ad1 	ldrdeq	r4, [r0], -r1
      84:	00004ad1 	ldrdeq	r4, [r0], -r1
      88:	00004bbf 			; <UNDEFINED> instruction: 0x00004bbf
      8c:	00004ad1 	ldrdeq	r4, [r0], -r1
      90:	00004ad1 	ldrdeq	r4, [r0], -r1
      94:	00004ad1 	ldrdeq	r4, [r0], -r1
      98:	00004ad1 	ldrdeq	r4, [r0], -r1
      9c:	00004ad1 	ldrdeq	r4, [r0], -r1
      a0:	00004ad1 	ldrdeq	r4, [r0], -r1
      a4:	00004ad1 	ldrdeq	r4, [r0], -r1
      a8:	00004ad1 	ldrdeq	r4, [r0], -r1
      ac:	00004ad1 	ldrdeq	r4, [r0], -r1
      b0:	00004be7 	andeq	r4, r0, r7, ror #23
      b4:	00004c0f 	andeq	r4, r0, pc, lsl #24
      b8:	00004c37 	andeq	r4, r0, r7, lsr ip
      bc:	00004ad1 	ldrdeq	r4, [r0], -r1
      c0:	00004ad1 	ldrdeq	r4, [r0], -r1
      c4:	00004ad1 	ldrdeq	r4, [r0], -r1
      c8:	00004ad1 	ldrdeq	r4, [r0], -r1
      cc:	00004ad1 	ldrdeq	r4, [r0], -r1
      d0:	00004ad1 	ldrdeq	r4, [r0], -r1
      d4:	00004ad1 	ldrdeq	r4, [r0], -r1
      d8:	00004ad1 	ldrdeq	r4, [r0], -r1
      dc:	00004ad1 	ldrdeq	r4, [r0], -r1
      e0:	00004ad1 	ldrdeq	r4, [r0], -r1
      e4:	00004ad1 	ldrdeq	r4, [r0], -r1
      e8:	00004ad1 	ldrdeq	r4, [r0], -r1
      ec:	00004ad1 	ldrdeq	r4, [r0], -r1
      f0:	00004ad1 	ldrdeq	r4, [r0], -r1
      f4:	00004ad1 	ldrdeq	r4, [r0], -r1
      f8:	00004ad1 	ldrdeq	r4, [r0], -r1
      fc:	00004ad1 	ldrdeq	r4, [r0], -r1
     100:	00004ad1 	ldrdeq	r4, [r0], -r1
     104:	00004ad1 	ldrdeq	r4, [r0], -r1
     108:	00004ad1 	ldrdeq	r4, [r0], -r1
     10c:	00004ad1 	ldrdeq	r4, [r0], -r1
     110:	00004ad1 	ldrdeq	r4, [r0], -r1
     114:	00004ad1 	ldrdeq	r4, [r0], -r1
     118:	00004ad1 	ldrdeq	r4, [r0], -r1
     11c:	00004ad1 	ldrdeq	r4, [r0], -r1
     120:	00004ad1 	ldrdeq	r4, [r0], -r1
     124:	00004ad1 	ldrdeq	r4, [r0], -r1
     128:	00004ad1 	ldrdeq	r4, [r0], -r1
     12c:	00004ad1 	ldrdeq	r4, [r0], -r1
     130:	00004ad1 	ldrdeq	r4, [r0], -r1
     134:	00004ad1 	ldrdeq	r4, [r0], -r1
     138:	00004ad1 	ldrdeq	r4, [r0], -r1
     13c:	00004ad1 	ldrdeq	r4, [r0], -r1
     140:	00004ad1 	ldrdeq	r4, [r0], -r1
     144:	00004ad1 	ldrdeq	r4, [r0], -r1
     148:	00004ad1 	ldrdeq	r4, [r0], -r1
     14c:	00004ad1 	ldrdeq	r4, [r0], -r1
     150:	00004ad1 	ldrdeq	r4, [r0], -r1
     154:	00004ad1 	ldrdeq	r4, [r0], -r1
     158:	00004ad1 	ldrdeq	r4, [r0], -r1
     15c:	00004ad1 	ldrdeq	r4, [r0], -r1
     160:	00004ad1 	ldrdeq	r4, [r0], -r1
     164:	00004ad1 	ldrdeq	r4, [r0], -r1
     168:	00004ad1 	ldrdeq	r4, [r0], -r1
     16c:	00004ad1 	ldrdeq	r4, [r0], -r1
     170:	00004ad1 	ldrdeq	r4, [r0], -r1
     174:	00004ad1 	ldrdeq	r4, [r0], -r1
     178:	00004ad1 	ldrdeq	r4, [r0], -r1
     17c:	00004ad1 	ldrdeq	r4, [r0], -r1
     180:	00004ad1 	ldrdeq	r4, [r0], -r1
     184:	00004ad1 	ldrdeq	r4, [r0], -r1

00000188 <CoreDictionaryAnfang>:
     188:	000005c4 	andeq	r0, r0, r4, asr #11
     18c:	2d1effff 	ldccs	15, cr15, [lr, #-1020]	; 0xfffffc04
     190:	4d202d2d 	stcmi	13, cr2, [r0, #-180]!	; 0xffffff4c
     194:	69726365 	ldmdbvs	r2!, {r0, r2, r5, r6, r8, r9, sp, lr}^
     198:	532d7073 	teqpl	sp, #115	; 0x73
     19c:	6c6c6574 	cfstr64vs	mvdx6, [ip], #-464	; 0xfffffe30
     1a0:	73697261 	cmnvc	r9, #268435462	; 0x10000006
     1a4:	726f4320 	rsbvc	r4, pc, #-2147483648	; 0x80000000
     1a8:	2d2d2065 	stccs	0, cr2, [sp, #-404]!	; 0xfffffe6c
     1ac:	b507002d 	strlt	r0, [r7, #-45]	; 0x2d

000001ae <Code_34>:
     1ae:	b507      	push	{r0, r1, r2, lr}
     1b0:	488f      	ldr	r0, [pc, #572]	; (3f0 <r0_unfrei+0x18>)
     1b2:	2b00      	cmp	r3, #0
     1b4:	d009      	beq.n	1ca <Code_34+0x1c>
     1b6:	f000 f83b 	bl	230 <free_5os_element>
     1ba:	f000 f841 	bl	240 <elemente_einen_weiterrutschen_lassen>
     1be:	f000 f827 	bl	210 <nget_faltkonstante>
     1c2:	6042      	str	r2, [r0, #4]
     1c4:	2128      	movs	r1, #40	; 0x28
     1c6:	6001      	str	r1, [r0, #0]
     1c8:	e7f3      	b.n	1b2 <Code_34+0x4>
     1ca:	bd07      	pop	{r0, r1, r2, pc}

000001cc <nfaltkonstanten_aufschwimmen>:
     1cc:	b500      	push	{lr}
     1ce:	4888      	ldr	r0, [pc, #544]	; (3f0 <r0_unfrei+0x18>)
     1d0:	2300      	movs	r3, #0
     1d2:	6801      	ldr	r1, [r0, #0]
     1d4:	2928      	cmp	r1, #40	; 0x28
     1d6:	d105      	bne.n	1e4 <nfaltkonstanten_aufschwimmen+0x18>
     1d8:	6842      	ldr	r2, [r0, #4]
     1da:	f000 f804 	bl	1e6 <npush_faltkonstante>
     1de:	f000 f84c 	bl	27a <eliminiere_tos>
     1e2:	e7f6      	b.n	1d2 <nfaltkonstanten_aufschwimmen+0x6>
     1e4:	bd00      	pop	{pc}

000001e6 <npush_faltkonstante>:
     1e6:	b503      	push	{r0, r1, lr}
     1e8:	f847 6d04 	str.w	r6, [r7, #-4]!
     1ec:	0016      	movs	r6, r2
     1ee:	f847 6d04 	str.w	r6, [r7, #-4]!
     1f2:	001e      	movs	r6, r3
     1f4:	b408      	push	{r3}
     1f6:	f000 ffb5 	bl	1164 <Code_234>
     1fa:	bc08      	pop	{r3}
     1fc:	3301      	adds	r3, #1
     1fe:	f847 6d04 	str.w	r6, [r7, #-4]!
     202:	4e7c      	ldr	r6, [pc, #496]	; (3f4 <r0_unfrei+0x1c>)
     204:	f847 6d04 	str.w	r6, [r7, #-4]!
     208:	4e7b      	ldr	r6, [pc, #492]	; (3f8 <r0_unfrei+0x20>)
     20a:	f004 fa78 	bl	46fe <add_to_inline_cache>
     20e:	bd03      	pop	{r0, r1, pc}

00000210 <nget_faltkonstante>:
     210:	b503      	push	{r0, r1, lr}
     212:	3b01      	subs	r3, #1
     214:	f847 6d04 	str.w	r6, [r7, #-4]!
     218:	001e      	movs	r6, r3
     21a:	b408      	push	{r3}
     21c:	f000 ff8c 	bl	1138 <Code_232>
     220:	bc08      	pop	{r3}
     222:	0032      	movs	r2, r6
     224:	f847 6d04 	str.w	r6, [r7, #-4]!
     228:	4e74      	ldr	r6, [pc, #464]	; (3fc <r0_unfrei+0x24>)
     22a:	f004 fa68 	bl	46fe <add_to_inline_cache>
     22e:	bd03      	pop	{r0, r1, pc}

00000230 <free_5os_element>:
     230:	b503      	push	{r0, r1, lr}
     232:	4873      	ldr	r0, [pc, #460]	; (400 <BIT10>)
     234:	6801      	ldr	r1, [r0, #0]
     236:	291e      	cmp	r1, #30
     238:	d001      	beq.n	23e <free_5os_element+0xe>
     23a:	f000 f834 	bl	2a6 <element_to_stack>
     23e:	bd03      	pop	{r0, r1, pc}

00000240 <elemente_einen_weiterrutschen_lassen>:
     240:	6981      	ldr	r1, [r0, #24]
     242:	6201      	str	r1, [r0, #32]
     244:	6901      	ldr	r1, [r0, #16]
     246:	6181      	str	r1, [r0, #24]
     248:	6881      	ldr	r1, [r0, #8]
     24a:	6101      	str	r1, [r0, #16]
     24c:	6801      	ldr	r1, [r0, #0]
     24e:	6081      	str	r1, [r0, #8]
     250:	69c1      	ldr	r1, [r0, #28]
     252:	6241      	str	r1, [r0, #36]	; 0x24
     254:	6941      	ldr	r1, [r0, #20]
     256:	61c1      	str	r1, [r0, #28]
     258:	68c1      	ldr	r1, [r0, #12]
     25a:	6141      	str	r1, [r0, #20]
     25c:	6841      	ldr	r1, [r0, #4]
     25e:	60c1      	str	r1, [r0, #12]
     260:	211e      	movs	r1, #30
     262:	6001      	str	r1, [r0, #0]
     264:	4770      	bx	lr

00000266 <befreie_tos>:
     266:	b50f      	push	{r0, r1, r2, r3, lr}
     268:	4861      	ldr	r0, [pc, #388]	; (3f0 <r0_unfrei+0x18>)
     26a:	6801      	ldr	r1, [r0, #0]
     26c:	291e      	cmp	r1, #30
     26e:	d003      	beq.n	278 <befreie_tos+0x12>
     270:	f7ff ffde 	bl	230 <free_5os_element>
     274:	f7ff ffe4 	bl	240 <elemente_einen_weiterrutschen_lassen>
     278:	bd0f      	pop	{r0, r1, r2, r3, pc}

0000027a <eliminiere_tos>:
     27a:	b502      	push	{r1, lr}
     27c:	6881      	ldr	r1, [r0, #8]
     27e:	6001      	str	r1, [r0, #0]
     280:	68c1      	ldr	r1, [r0, #12]
     282:	6041      	str	r1, [r0, #4]
     284:	e000      	b.n	288 <eliminiere_nos+0x2>

00000286 <eliminiere_nos>:
     286:	b502      	push	{r1, lr}
     288:	6901      	ldr	r1, [r0, #16]
     28a:	6081      	str	r1, [r0, #8]
     28c:	6941      	ldr	r1, [r0, #20]
     28e:	60c1      	str	r1, [r0, #12]
     290:	6981      	ldr	r1, [r0, #24]
     292:	6101      	str	r1, [r0, #16]
     294:	69c1      	ldr	r1, [r0, #28]
     296:	6141      	str	r1, [r0, #20]
     298:	6a01      	ldr	r1, [r0, #32]
     29a:	6181      	str	r1, [r0, #24]
     29c:	6a41      	ldr	r1, [r0, #36]	; 0x24
     29e:	61c1      	str	r1, [r0, #28]
     2a0:	211e      	movs	r1, #30
     2a2:	6201      	str	r1, [r0, #32]
     2a4:	bd02      	pop	{r1, pc}

000002a6 <element_to_stack>:
     2a6:	b508      	push	{r3, lr}
     2a8:	6801      	ldr	r1, [r0, #0]
     2aa:	221e      	movs	r2, #30
     2ac:	6002      	str	r2, [r0, #0]
     2ae:	2908      	cmp	r1, #8
     2b0:	d201      	bcs.n	2b6 <element_to_stack+0x10>
     2b2:	000b      	movs	r3, r1
     2b4:	e004      	b.n	2c0 <element_to_stack+0x1a>
     2b6:	2928      	cmp	r1, #40	; 0x28
     2b8:	d109      	bne.n	2ce <element_to_stack+0x28>
     2ba:	6843      	ldr	r3, [r0, #4]
     2bc:	f000 f85b 	bl	376 <generiere_konstante>
     2c0:	f847 6d04 	str.w	r6, [r7, #-4]!
     2c4:	4e4f      	ldr	r6, [pc, #316]	; (404 <BIT10+0x4>)
     2c6:	ea56 3603 	orrs.w	r6, r6, r3, lsl #12
     2ca:	f003 f8ea 	bl	34a2 <Code_826>
     2ce:	bd08      	pop	{r3, pc}

000002d0 <tidyup_register_allocator>:
     2d0:	b500      	push	{lr}
     2d2:	f000 f809 	bl	2e8 <tidyup_register_allocator_5os>
     2d6:	f000 f80c 	bl	2f2 <tidyup_register_allocator_4os>
     2da:	f000 f80f 	bl	2fc <tidyup_register_allocator_3os>
     2de:	f000 f812 	bl	306 <tidyup_register_allocator_nos>
     2e2:	f000 f815 	bl	310 <tidyup_register_allocator_tos>
     2e6:	bd00      	pop	{pc}

000002e8 <tidyup_register_allocator_5os>:
     2e8:	b50f      	push	{r0, r1, r2, r3, lr}
     2ea:	4845      	ldr	r0, [pc, #276]	; (400 <BIT10>)
     2ec:	f7ff ffdb 	bl	2a6 <element_to_stack>
     2f0:	bd0f      	pop	{r0, r1, r2, r3, pc}

000002f2 <tidyup_register_allocator_4os>:
     2f2:	b50f      	push	{r0, r1, r2, r3, lr}
     2f4:	4844      	ldr	r0, [pc, #272]	; (408 <BIT10+0x8>)
     2f6:	f7ff ffd6 	bl	2a6 <element_to_stack>
     2fa:	bd0f      	pop	{r0, r1, r2, r3, pc}

000002fc <tidyup_register_allocator_3os>:
     2fc:	b50f      	push	{r0, r1, r2, r3, lr}
     2fe:	4843      	ldr	r0, [pc, #268]	; (40c <BIT10+0xc>)
     300:	f7ff ffd1 	bl	2a6 <element_to_stack>
     304:	bd0f      	pop	{r0, r1, r2, r3, pc}

00000306 <tidyup_register_allocator_nos>:
     306:	b50f      	push	{r0, r1, r2, r3, lr}
     308:	4841      	ldr	r0, [pc, #260]	; (410 <BIT10+0x10>)
     30a:	f7ff ffcc 	bl	2a6 <element_to_stack>
     30e:	bd0f      	pop	{r0, r1, r2, r3, pc}

00000310 <tidyup_register_allocator_tos>:
     310:	b50f      	push	{r0, r1, r2, r3, lr}
     312:	4837      	ldr	r0, [pc, #220]	; (3f0 <r0_unfrei+0x18>)
     314:	6801      	ldr	r1, [r0, #0]
     316:	2206      	movs	r2, #6
     318:	6002      	str	r2, [r0, #0]
     31a:	291e      	cmp	r1, #30
     31c:	d106      	bne.n	32c <tidyup_register_allocator_tos+0x1c>
     31e:	f847 6d04 	str.w	r6, [r7, #-4]!
     322:	f64c 7640 	movw	r6, #53056	; 0xcf40
     326:	f003 f88d 	bl	3444 <Code_817>
     32a:	e015      	b.n	358 <tidyup_finish>
     32c:	2928      	cmp	r1, #40	; 0x28
     32e:	d109      	bne.n	344 <tidyup_register_allocator_tos+0x34>
     330:	6843      	ldr	r3, [r0, #4]
     332:	f847 6d04 	str.w	r6, [r7, #-4]!
     336:	001e      	movs	r6, r3
     338:	f847 6d04 	str.w	r6, [r7, #-4]!
     33c:	2606      	movs	r6, #6
     33e:	f002 fd1b 	bl	2d78 <Code_689>
     342:	e009      	b.n	358 <tidyup_finish>
     344:	2906      	cmp	r1, #6
     346:	d007      	beq.n	358 <tidyup_finish>
     348:	f847 6d04 	str.w	r6, [r7, #-4]!
     34c:	f244 6606 	movw	r6, #17926	; 0x4606
     350:	00c9      	lsls	r1, r1, #3
     352:	430e      	orrs	r6, r1
     354:	f003 f876 	bl	3444 <Code_817>

00000358 <tidyup_finish>:
     358:	f000 f801 	bl	35e <init_register_allocator>
     35c:	bd0f      	pop	{r0, r1, r2, r3, pc}

0000035e <init_register_allocator>:
     35e:	4824      	ldr	r0, [pc, #144]	; (3f0 <r0_unfrei+0x18>)
     360:	211e      	movs	r1, #30
     362:	6201      	str	r1, [r0, #32]
     364:	6181      	str	r1, [r0, #24]
     366:	6101      	str	r1, [r0, #16]
     368:	6081      	str	r1, [r0, #8]
     36a:	62c1      	str	r1, [r0, #44]	; 0x2c
     36c:	2106      	movs	r1, #6
     36e:	6001      	str	r1, [r0, #0]
     370:	2100      	movs	r1, #0
     372:	6281      	str	r1, [r0, #40]	; 0x28
     374:	4770      	bx	lr

00000376 <generiere_konstante>:
     376:	b507      	push	{r0, r1, r2, lr}
     378:	f847 6d04 	str.w	r6, [r7, #-4]!
     37c:	001e      	movs	r6, r3
     37e:	f000 f849 	bl	414 <get_free_register>
     382:	f847 6d04 	str.w	r6, [r7, #-4]!
     386:	001e      	movs	r6, r3
     388:	f002 fcf6 	bl	2d78 <Code_689>
     38c:	bd07      	pop	{r0, r1, r2, pc}

0000038e <generiere_adresskonstante>:
     38e:	b507      	push	{r0, r1, r2, lr}
     390:	6ac1      	ldr	r1, [r0, #44]	; 0x2c
     392:	2928      	cmp	r1, #40	; 0x28
     394:	d104      	bne.n	3a0 <generiere_adresskonstante+0x12>
     396:	6b01      	ldr	r1, [r0, #48]	; 0x30
     398:	4299      	cmp	r1, r3
     39a:	d101      	bne.n	3a0 <generiere_adresskonstante+0x12>
     39c:	2300      	movs	r3, #0
     39e:	bd07      	pop	{r0, r1, r2, pc}
     3a0:	6801      	ldr	r1, [r0, #0]
     3a2:	2900      	cmp	r1, #0
     3a4:	d018      	beq.n	3d8 <r0_unfrei>
     3a6:	6881      	ldr	r1, [r0, #8]
     3a8:	2900      	cmp	r1, #0
     3aa:	d015      	beq.n	3d8 <r0_unfrei>
     3ac:	6901      	ldr	r1, [r0, #16]
     3ae:	2900      	cmp	r1, #0
     3b0:	d012      	beq.n	3d8 <r0_unfrei>
     3b2:	6981      	ldr	r1, [r0, #24]
     3b4:	2900      	cmp	r1, #0
     3b6:	d00f      	beq.n	3d8 <r0_unfrei>
     3b8:	6a01      	ldr	r1, [r0, #32]
     3ba:	2900      	cmp	r1, #0
     3bc:	d00c      	beq.n	3d8 <r0_unfrei>
     3be:	6303      	str	r3, [r0, #48]	; 0x30
     3c0:	f847 6d04 	str.w	r6, [r7, #-4]!
     3c4:	001e      	movs	r6, r3
     3c6:	f847 6d04 	str.w	r6, [r7, #-4]!
     3ca:	2600      	movs	r6, #0
     3cc:	f002 fcd4 	bl	2d78 <Code_689>
     3d0:	2128      	movs	r1, #40	; 0x28
     3d2:	62c1      	str	r1, [r0, #44]	; 0x2c
     3d4:	2300      	movs	r3, #0
     3d6:	bd07      	pop	{r0, r1, r2, pc}

000003d8 <r0_unfrei>:
     3d8:	f847 6d04 	str.w	r6, [r7, #-4]!
     3dc:	001e      	movs	r6, r3
     3de:	f000 f819 	bl	414 <get_free_register>
     3e2:	f847 6d04 	str.w	r6, [r7, #-4]!
     3e6:	001e      	movs	r6, r3
     3e8:	f002 fcc6 	bl	2d78 <Code_689>
     3ec:	bd07      	pop	{r0, r1, r2, pc}
     3ee:	00280000 	eoreq	r0, r8, r0
     3f2:	0eec2000 	cdpeq	0, 14, cr2, cr12, cr0, {0}
     3f6:	02610000 	rsbeq	r0, r1, #0
     3fa:	20000000 	andcs	r0, r0, r0
     3fe:	00480000 	subeq	r0, r8, r0
     402:	0d042000 	stceq	0, cr2, [r4]
     406:	0040f847 	subeq	pc, r0, r7, asr #16
     40a:	00382000 	eorseq	r2, r8, r0
     40e:	00302000 	eorseq	r2, r0, r0
     412:	b5372000 	ldrlt	r2, [r7]!

00000414 <get_free_register>:
     414:	b537      	push	{r0, r1, r2, r4, r5, lr}
     416:	4836      	ldr	r0, [pc, #216]	; (4f0 <expect_four_elements+0x26>)
     418:	6801      	ldr	r1, [r0, #0]
     41a:	6882      	ldr	r2, [r0, #8]
     41c:	6903      	ldr	r3, [r0, #16]
     41e:	6984      	ldr	r4, [r0, #24]
     420:	6a05      	ldr	r5, [r0, #32]
     422:	2006      	movs	r0, #6
     424:	f000 f80e 	bl	444 <get_free_register_intern>
     428:	2003      	movs	r0, #3
     42a:	f000 f80b 	bl	444 <get_free_register_intern>
     42e:	2002      	movs	r0, #2
     430:	f000 f808 	bl	444 <get_free_register_intern>
     434:	2001      	movs	r0, #1
     436:	f000 f805 	bl	444 <get_free_register_intern>
     43a:	2300      	movs	r3, #0
     43c:	482c      	ldr	r0, [pc, #176]	; (4f0 <expect_four_elements+0x26>)
     43e:	211e      	movs	r1, #30
     440:	62c1      	str	r1, [r0, #44]	; 0x2c
     442:	bd37      	pop	{r0, r1, r2, r4, r5, pc}

00000444 <get_free_register_intern>:
     444:	4281      	cmp	r1, r0
     446:	d009      	beq.n	45c <get_free_register_intern+0x18>
     448:	4282      	cmp	r2, r0
     44a:	d007      	beq.n	45c <get_free_register_intern+0x18>
     44c:	4283      	cmp	r3, r0
     44e:	d005      	beq.n	45c <get_free_register_intern+0x18>
     450:	4284      	cmp	r4, r0
     452:	d003      	beq.n	45c <get_free_register_intern+0x18>
     454:	4285      	cmp	r5, r0
     456:	d001      	beq.n	45c <get_free_register_intern+0x18>
     458:	0003      	movs	r3, r0
     45a:	bd37      	pop	{r0, r1, r2, r4, r5, pc}
     45c:	4770      	bx	lr

0000045e <erstes_element_belegen>:
     45e:	f847 6d04 	str.w	r6, [r7, #-4]!
     462:	f64c 7600 	movw	r6, #52992	; 0xcf00

00000466 <element_belegen>:
     466:	b500      	push	{lr}
     468:	5881      	ldr	r1, [r0, r2]
     46a:	291e      	cmp	r1, #30
     46c:	d105      	bne.n	47a <element_belegen+0x14>
     46e:	f7ff ffd1 	bl	414 <get_free_register>
     472:	5083      	str	r3, [r0, r2]
     474:	2101      	movs	r1, #1
     476:	4099      	lsls	r1, r3
     478:	430e      	orrs	r6, r1
     47a:	bd00      	pop	{pc}

0000047c <expect_one_element>:
     47c:	b500      	push	{lr}
     47e:	6801      	ldr	r1, [r0, #0]
     480:	291e      	cmp	r1, #30
     482:	d104      	bne.n	48e <expect_one_element+0x12>
     484:	2200      	movs	r2, #0
     486:	f7ff ffea 	bl	45e <erstes_element_belegen>
     48a:	f002 ffdb 	bl	3444 <Code_817>
     48e:	bd00      	pop	{pc}

00000490 <expect_two_elements>:
     490:	b500      	push	{lr}
     492:	6881      	ldr	r1, [r0, #8]
     494:	291e      	cmp	r1, #30
     496:	d107      	bne.n	4a8 <expect_two_elements+0x18>
     498:	2208      	movs	r2, #8
     49a:	f7ff ffe0 	bl	45e <erstes_element_belegen>
     49e:	2200      	movs	r2, #0
     4a0:	f7ff ffe1 	bl	466 <element_belegen>
     4a4:	f002 ffce 	bl	3444 <Code_817>
     4a8:	bd00      	pop	{pc}

000004aa <expect_three_elements>:
     4aa:	b500      	push	{lr}
     4ac:	6901      	ldr	r1, [r0, #16]
     4ae:	291e      	cmp	r1, #30
     4b0:	d10a      	bne.n	4c8 <expect_three_elements+0x1e>
     4b2:	2210      	movs	r2, #16
     4b4:	f7ff ffd3 	bl	45e <erstes_element_belegen>
     4b8:	2208      	movs	r2, #8
     4ba:	f7ff ffd4 	bl	466 <element_belegen>
     4be:	2200      	movs	r2, #0
     4c0:	f7ff ffd1 	bl	466 <element_belegen>
     4c4:	f002 ffbe 	bl	3444 <Code_817>
     4c8:	bd00      	pop	{pc}

000004ca <expect_four_elements>:
     4ca:	b500      	push	{lr}
     4cc:	6981      	ldr	r1, [r0, #24]
     4ce:	291e      	cmp	r1, #30
     4d0:	d10d      	bne.n	4ee <expect_four_elements+0x24>
     4d2:	2218      	movs	r2, #24
     4d4:	f7ff ffc3 	bl	45e <erstes_element_belegen>
     4d8:	2210      	movs	r2, #16
     4da:	f7ff ffc4 	bl	466 <element_belegen>
     4de:	2208      	movs	r2, #8
     4e0:	f7ff ffc1 	bl	466 <element_belegen>
     4e4:	2200      	movs	r2, #0
     4e6:	f7ff ffbe 	bl	466 <element_belegen>
     4ea:	f002 ffab 	bl	3444 <Code_817>
     4ee:	bd00      	pop	{pc}
     4f0:	20000028 	andcs	r0, r0, r8, lsr #32

000004f4 <expect_tos_in_register>:
     4f4:	b500      	push	{lr}
     4f6:	6801      	ldr	r1, [r0, #0]
     4f8:	2928      	cmp	r1, #40	; 0x28
     4fa:	d104      	bne.n	506 <expect_tos_in_register+0x12>
     4fc:	6843      	ldr	r3, [r0, #4]
     4fe:	f7ff ff3a 	bl	376 <generiere_konstante>
     502:	6003      	str	r3, [r0, #0]
     504:	0019      	movs	r1, r3
     506:	bd00      	pop	{pc}

00000508 <expect_nos_in_register>:
     508:	b500      	push	{lr}
     50a:	6881      	ldr	r1, [r0, #8]
     50c:	2928      	cmp	r1, #40	; 0x28
     50e:	d104      	bne.n	51a <expect_nos_in_register+0x12>
     510:	68c3      	ldr	r3, [r0, #12]
     512:	f7ff ff30 	bl	376 <generiere_konstante>
     516:	6083      	str	r3, [r0, #8]
     518:	0019      	movs	r1, r3
     51a:	bd00      	pop	{pc}

0000051c <expect_3os_in_register>:
     51c:	b500      	push	{lr}
     51e:	6901      	ldr	r1, [r0, #16]
     520:	2928      	cmp	r1, #40	; 0x28
     522:	d104      	bne.n	52e <expect_3os_in_register+0x12>
     524:	6943      	ldr	r3, [r0, #20]
     526:	f7ff ff26 	bl	376 <generiere_konstante>
     52a:	6103      	str	r3, [r0, #16]
     52c:	0019      	movs	r1, r3
     52e:	bd00      	pop	{pc}

00000530 <nos_change_tos_away_later>:
     530:	b53e      	push	{r1, r2, r3, r4, r5, lr}
     532:	6882      	ldr	r2, [r0, #8]
     534:	6903      	ldr	r3, [r0, #16]
     536:	6984      	ldr	r4, [r0, #24]
     538:	6a05      	ldr	r5, [r0, #32]
     53a:	429a      	cmp	r2, r3
     53c:	d003      	beq.n	546 <nos_change_tos_away_later+0x16>
     53e:	42a2      	cmp	r2, r4
     540:	d001      	beq.n	546 <nos_change_tos_away_later+0x16>
     542:	42aa      	cmp	r2, r5
     544:	d10a      	bne.n	55c <nos_change_tos_away_later+0x2c>
     546:	2a07      	cmp	r2, #7
     548:	d808      	bhi.n	55c <nos_change_tos_away_later+0x2c>
     54a:	f847 6d04 	str.w	r6, [r7, #-4]!
     54e:	00d6      	lsls	r6, r2, #3
     550:	f7ff ff60 	bl	414 <get_free_register>
     554:	431e      	orrs	r6, r3
     556:	6083      	str	r3, [r0, #8]
     558:	f002 ff74 	bl	3444 <Code_817>
     55c:	bd3e      	pop	{r1, r2, r3, r4, r5, pc}

0000055e <make_tos_changeable>:
     55e:	b53e      	push	{r1, r2, r3, r4, r5, lr}
     560:	6801      	ldr	r1, [r0, #0]
     562:	6882      	ldr	r2, [r0, #8]
     564:	6903      	ldr	r3, [r0, #16]
     566:	6984      	ldr	r4, [r0, #24]
     568:	6a05      	ldr	r5, [r0, #32]
     56a:	4291      	cmp	r1, r2
     56c:	d006      	beq.n	57c <make_tos_changeable+0x1e>
     56e:	4299      	cmp	r1, r3
     570:	d004      	beq.n	57c <make_tos_changeable+0x1e>
     572:	42a1      	cmp	r1, r4
     574:	d002      	beq.n	57c <make_tos_changeable+0x1e>
     576:	42a9      	cmp	r1, r5
     578:	d000      	beq.n	57c <make_tos_changeable+0x1e>
     57a:	bd3e      	pop	{r1, r2, r3, r4, r5, pc}
     57c:	f847 6d04 	str.w	r6, [r7, #-4]!
     580:	00ce      	lsls	r6, r1, #3
     582:	f7ff ff47 	bl	414 <get_free_register>
     586:	431e      	orrs	r6, r3
     588:	6003      	str	r3, [r0, #0]
     58a:	f002 ff5b 	bl	3444 <Code_817>
     58e:	bd3e      	pop	{r1, r2, r3, r4, r5, pc}

00000590 <tos_registerwechsel>:
     590:	b500      	push	{lr}
     592:	f7ff fe72 	bl	27a <eliminiere_tos>
     596:	f7ff fe66 	bl	266 <befreie_tos>
     59a:	f7ff ff3b 	bl	414 <get_free_register>
     59e:	6003      	str	r3, [r0, #0]
     5a0:	bd00      	pop	{pc}

000005a2 <push_lr_nachholen>:
     5a2:	b501      	push	{r0, lr}
     5a4:	4806      	ldr	r0, [pc, #24]	; (5c0 <push_lr_nachholen+0x1e>)
     5a6:	6803      	ldr	r3, [r0, #0]
     5a8:	3301      	adds	r3, #1
     5aa:	d008      	beq.n	5be <push_lr_nachholen+0x1c>
     5ac:	2300      	movs	r3, #0
     5ae:	43db      	mvns	r3, r3
     5b0:	6003      	str	r3, [r0, #0]
     5b2:	f847 6d04 	str.w	r6, [r7, #-4]!
     5b6:	f24b 5600 	movw	r6, #46336	; 0xb500
     5ba:	f002 ff43 	bl	3444 <Code_817>
     5be:	bd01      	pop	{r0, pc}
     5c0:	20017fd8 	ldrdcs	r7, [r1], -r8

000005c4 <Dictionary_71>:
     5c4:	000005e8 	andeq	r0, r0, r8, ror #11
     5c8:	32040242 	andcc	r0, r4, #536870916	; 0x20000004
     5cc:	00707564 	rsbseq	r7, r0, r4, ror #10

000005d0 <Code_71>:
     5d0:	6838      	ldr	r0, [r7, #0]
     5d2:	f847 6d04 	str.w	r6, [r7, #-4]!
     5d6:	3f04      	subs	r7, #4
     5d8:	6038      	str	r0, [r7, #0]
     5da:	4770      	bx	lr
     5dc:	b500      	push	{lr}
     5de:	f000 fcd7 	bl	f90 <over_allocator>
     5e2:	f000 fcd5 	bl	f90 <over_allocator>
     5e6:	bd00      	pop	{pc}

000005e8 <Dictionary_73>:
     5e8:	00000606 	andeq	r0, r0, r6, lsl #12
     5ec:	32050262 	andcc	r0, r5, #536870918	; 0x20000006
     5f0:	706f7264 	rsbvc	r7, pc, r4, ror #4

000005f4 <Code_73>:
     5f4:	3704      	adds	r7, #4
     5f6:	cf40      	ldmia	r7!, {r6}
     5f8:	4770      	bx	lr
     5fa:	b500      	push	{lr}
     5fc:	f000 fc78 	bl	ef0 <drop_allocator>
     600:	f000 fc76 	bl	ef0 <drop_allocator>
     604:	bd00      	pop	{pc}

00000606 <Dictionary_75>:
     606:	0000064c 	andeq	r0, r0, ip, asr #12
     60a:	32050244 	andcc	r0, r5, #1073741828	; 0x40000004
     60e:	70617773 	rsbvc	r7, r1, r3, ror r7

00000612 <Code_75>:
     612:	cf07      	ldmia	r7!, {r0, r1, r2}
     614:	3f04      	subs	r7, #4
     616:	6038      	str	r0, [r7, #0]
     618:	f847 6d04 	str.w	r6, [r7, #-4]!
     61c:	3f04      	subs	r7, #4
     61e:	603a      	str	r2, [r7, #0]
     620:	000e      	movs	r6, r1
     622:	4770      	bx	lr

00000624 <dswap_allocator>:
     624:	b500      	push	{lr}
     626:	f7ff ff50 	bl	4ca <expect_four_elements>
     62a:	6802      	ldr	r2, [r0, #0]
     62c:	6903      	ldr	r3, [r0, #16]
     62e:	6003      	str	r3, [r0, #0]
     630:	6102      	str	r2, [r0, #16]
     632:	6842      	ldr	r2, [r0, #4]
     634:	6943      	ldr	r3, [r0, #20]
     636:	6043      	str	r3, [r0, #4]
     638:	6142      	str	r2, [r0, #20]
     63a:	6882      	ldr	r2, [r0, #8]
     63c:	6983      	ldr	r3, [r0, #24]
     63e:	6083      	str	r3, [r0, #8]
     640:	6182      	str	r2, [r0, #24]
     642:	68c2      	ldr	r2, [r0, #12]
     644:	69c3      	ldr	r3, [r0, #28]
     646:	60c3      	str	r3, [r0, #12]
     648:	61c2      	str	r2, [r0, #28]
     64a:	bd00      	pop	{pc}

0000064c <Dictionary_77>:
     64c:	00000674 	andeq	r0, r0, r4, ror r6
     650:	32040262 	andcc	r0, r4, #536870918	; 0x20000006
     654:	0070696e 	rsbseq	r6, r0, lr, ror #18

00000658 <Code_77>:
     658:	cf07      	ldmia	r7!, {r0, r1, r2}
     65a:	3f04      	subs	r7, #4
     65c:	6038      	str	r0, [r7, #0]
     65e:	4770      	bx	lr
     660:	b500      	push	{lr}
     662:	f7ff ff32 	bl	4ca <expect_four_elements>
     666:	f7ff ffdd 	bl	624 <dswap_allocator>
     66a:	f7ff fe06 	bl	27a <eliminiere_tos>
     66e:	f7ff fe04 	bl	27a <eliminiere_tos>
     672:	bd00      	pop	{pc}

00000674 <Dictionary_78>:
     674:	0000068e 	andeq	r0, r0, lr, lsl #13
     678:	32050044 	andcc	r0, r5, #68	; 0x44
     67c:	7265766f 	rsbvc	r7, r5, #116391936	; 0x6f00000

00000680 <Code_78>:
     680:	68b8      	ldr	r0, [r7, #8]
     682:	f847 6d04 	str.w	r6, [r7, #-4]!
     686:	3f04      	subs	r7, #4
     688:	6038      	str	r0, [r7, #0]
     68a:	68fe      	ldr	r6, [r7, #12]
     68c:	4770      	bx	lr

0000068e <Dictionary_80>:
     68e:	000006b2 			; <UNDEFINED> instruction: 0x000006b2
     692:	32050044 	andcc	r0, r5, #68	; 0x44
     696:	6b637574 	blvs	18ddc6e <BIT24+0x8ddc6e>

0000069a <Code_80>:
     69a:	cf07      	ldmia	r7!, {r0, r1, r2}
     69c:	3f04      	subs	r7, #4
     69e:	6038      	str	r0, [r7, #0]
     6a0:	f847 6d04 	str.w	r6, [r7, #-4]!
     6a4:	3f04      	subs	r7, #4
     6a6:	603a      	str	r2, [r7, #0]
     6a8:	3f04      	subs	r7, #4
     6aa:	6039      	str	r1, [r7, #0]
     6ac:	3f04      	subs	r7, #4
     6ae:	6038      	str	r0, [r7, #0]
     6b0:	4770      	bx	lr

000006b2 <Dictionary_82>:
     6b2:	000006d4 	ldrdeq	r0, [r0], -r4
     6b6:	32040046 	andcc	r0, r4, #70	; 0x46
     6ba:	00746f72 	rsbseq	r6, r4, r2, ror pc

000006be <Code_82>:
     6be:	6838      	ldr	r0, [r7, #0]
     6c0:	68b9      	ldr	r1, [r7, #8]
     6c2:	693a      	ldr	r2, [r7, #16]
     6c4:	60b8      	str	r0, [r7, #8]
     6c6:	6139      	str	r1, [r7, #16]
     6c8:	603a      	str	r2, [r7, #0]
     6ca:	6879      	ldr	r1, [r7, #4]
     6cc:	607e      	str	r6, [r7, #4]
     6ce:	68fe      	ldr	r6, [r7, #12]
     6d0:	60f9      	str	r1, [r7, #12]
     6d2:	4770      	bx	lr

000006d4 <Dictionary_83>:
     6d4:	000006f6 	strdeq	r0, [r0], -r6
     6d8:	32050046 	andcc	r0, r5, #70	; 0x46
     6dc:	746f722d 	strbtvc	r7, [pc], #-557	; 6e4 <Code_83+0x4>

000006e0 <Code_83>:
     6e0:	6838      	ldr	r0, [r7, #0]
     6e2:	68b9      	ldr	r1, [r7, #8]
     6e4:	693a      	ldr	r2, [r7, #16]
     6e6:	6138      	str	r0, [r7, #16]
     6e8:	6039      	str	r1, [r7, #0]
     6ea:	60ba      	str	r2, [r7, #8]
     6ec:	68f9      	ldr	r1, [r7, #12]
     6ee:	60fe      	str	r6, [r7, #12]
     6f0:	687e      	ldr	r6, [r7, #4]
     6f2:	6079      	str	r1, [r7, #4]
     6f4:	4770      	bx	lr

000006f6 <Dictionary_84>:
     6f6:	0000071e 	andeq	r0, r0, lr, lsl r7
     6fa:	32030220 	andcc	r0, r3, #2
     6fe:	cf01723e 	svcgt	0x0001723e

00000700 <Code_84>:
     700:	cf01      	ldmia	r7!, {r0}
     702:	b401      	push	{r0}
     704:	b440      	push	{r6}
     706:	cf40      	ldmia	r7!, {r6}
     708:	4770      	bx	lr
     70a:	b500      	push	{lr}
     70c:	f7ff ff49 	bl	5a2 <push_lr_nachholen>
     710:	f000 fc11 	bl	f36 <swap_allocator>
     714:	f000 fcb1 	bl	107a <allocator_to_r>
     718:	f000 fcaf 	bl	107a <allocator_to_r>
     71c:	bd00      	pop	{pc}

0000071e <Dictionary_85>:
     71e:	0000074a 	andeq	r0, r0, sl, asr #14
     722:	32030220 	andcc	r0, r3, #2
     726:	f8473e72 			; <UNDEFINED> instruction: 0xf8473e72

00000728 <Code_85>:
     728:	f847 6d04 	str.w	r6, [r7, #-4]!
     72c:	bc40      	pop	{r6}
     72e:	bc01      	pop	{r0}
     730:	3f04      	subs	r7, #4
     732:	6038      	str	r0, [r7, #0]
     734:	4770      	bx	lr
     736:	b500      	push	{lr}
     738:	f7ff ff33 	bl	5a2 <push_lr_nachholen>
     73c:	f000 fcb9 	bl	10b2 <allocator_r_from>
     740:	f000 fcb7 	bl	10b2 <allocator_r_from>
     744:	f000 fbf7 	bl	f36 <swap_allocator>
     748:	bd00      	pop	{pc}

0000074a <Dictionary_87>:
     74a:	0000077a 	andeq	r0, r0, sl, ror r7
     74e:	32030220 	andcc	r0, r3, #2
     752:	f8474072 			; <UNDEFINED> instruction: 0xf8474072

00000754 <Code_87>:
     754:	f847 6d04 	str.w	r6, [r7, #-4]!
     758:	9e01      	ldr	r6, [sp, #4]
     75a:	f847 6d04 	str.w	r6, [r7, #-4]!
     75e:	9e00      	ldr	r6, [sp, #0]
     760:	4770      	bx	lr
     762:	b500      	push	{lr}
     764:	f7ff ff1d 	bl	5a2 <push_lr_nachholen>
     768:	f847 6d04 	str.w	r6, [r7, #-4]!
     76c:	f649 0601 	movw	r6, #38913	; 0x9801
     770:	f003 fb7f 	bl	3e72 <loop_j_allocator>
     774:	f003 fb79 	bl	3e6a <rfetch_allocator>
     778:	bd00      	pop	{pc}

0000077a <Dictionary_92>:
     77a:	000007a0 	andeq	r0, r0, r0, lsr #15
     77e:	32060220 	andcc	r0, r6, #2
     782:	6f726472 	svcvs	0x00726472
     786:	b0020070 	andlt	r0, r2, r0, ror r0

00000788 <Code_92>:
     788:	b002      	add	sp, #8
     78a:	4770      	bx	lr
     78c:	b500      	push	{lr}
     78e:	f7ff ff08 	bl	5a2 <push_lr_nachholen>
     792:	f847 6d04 	str.w	r6, [r7, #-4]!
     796:	f24b 0602 	movw	r6, #45058	; 0xb002
     79a:	f002 fe53 	bl	3444 <Code_817>
     79e:	bd00      	pop	{pc}

000007a0 <Dictionary_95>:
     7a0:	000007b8 			; <UNDEFINED> instruction: 0x000007b8
     7a4:	64030042 	strvs	r0, [r3], #-66	; 0x42
     7a8:	68382f32 	ldmdavs	r8!, {r1, r4, r5, r8, r9, sl, fp, sp}

000007aa <Code_95>:
     7aa:	6838      	ldr	r0, [r7, #0]
     7ac:	07f1      	lsls	r1, r6, #31
     7ae:	1076      	asrs	r6, r6, #1
     7b0:	0840      	lsrs	r0, r0, #1
     7b2:	4308      	orrs	r0, r1
     7b4:	6038      	str	r0, [r7, #0]
     7b6:	4770      	bx	lr

000007b8 <Dictionary_96>:
     7b8:	000007ce 	andeq	r0, r0, lr, asr #15
     7bc:	64030262 	strvs	r0, [r3], #-610	; 0x262
     7c0:	68382a32 	ldmdavs	r8!, {r1, r4, r5, r9, fp, sp}

000007c2 <Code_96>:
     7c2:	6838      	ldr	r0, [r7, #0]
     7c4:	1800      	adds	r0, r0, r0
     7c6:	4176      	adcs	r6, r6
     7c8:	6038      	str	r0, [r7, #0]
     7ca:	4770      	bx	lr
     7cc:	e017      	b.n	7fe <Code_98+0xa>

000007ce <Dictionary_97>:
     7ce:	000007e8 	andeq	r0, r0, r8, ror #15
     7d2:	64040042 	strvs	r0, [r4], #-66	; 0x42
     7d6:	00726873 	rsbseq	r6, r2, r3, ror r8

000007da <Code_97>:
     7da:	6838      	ldr	r0, [r7, #0]
     7dc:	07f1      	lsls	r1, r6, #31
     7de:	0876      	lsrs	r6, r6, #1
     7e0:	0840      	lsrs	r0, r0, #1
     7e2:	4308      	orrs	r0, r1
     7e4:	6038      	str	r0, [r7, #0]
     7e6:	4770      	bx	lr

000007e8 <Dictionary_98>:
     7e8:	00000834 	andeq	r0, r0, r4, lsr r8
     7ec:	64040262 	strvs	r0, [r4], #-610	; 0x262
     7f0:	006c6873 	rsbeq	r6, ip, r3, ror r8

000007f4 <Code_98>:
     7f4:	6838      	ldr	r0, [r7, #0]
     7f6:	1800      	adds	r0, r0, r0
     7f8:	4176      	adcs	r6, r6
     7fa:	6038      	str	r0, [r7, #0]
     7fc:	4770      	bx	lr
     7fe:	b500      	push	{lr}
     800:	f7ff fe46 	bl	490 <expect_two_elements>
     804:	f7ff fe76 	bl	4f4 <expect_tos_in_register>
     808:	f7ff fea9 	bl	55e <make_tos_changeable>
     80c:	f000 fb93 	bl	f36 <swap_allocator>
     810:	f7ff fe70 	bl	4f4 <expect_tos_in_register>
     814:	f7ff fea3 	bl	55e <make_tos_changeable>
     818:	f847 6d04 	str.w	r6, [r7, #-4]!
     81c:	2640      	movs	r6, #64	; 0x40
     81e:	f001 fd6d 	bl	22fc <smalltworegisters>
     822:	f000 fb88 	bl	f36 <swap_allocator>
     826:	f847 6d04 	str.w	r6, [r7, #-4]!
     82a:	f244 1640 	movw	r6, #16704	; 0x4140
     82e:	f001 fd65 	bl	22fc <smalltworegisters>
     832:	bd00      	pop	{pc}

00000834 <Dictionary_103>:
     834:	00000846 	andeq	r0, r0, r6, asr #16
     838:	64040042 	strvs	r0, [r4], #-66	; 0x42
     83c:	00736261 	rsbseq	r6, r3, r1, ror #4

00000840 <Code_103>:
     840:	2e00      	cmp	r6, #0
     842:	d407      	bmi.n	854 <Code_104>
     844:	4770      	bx	lr

00000846 <Dictionary_104>:
     846:	00000864 	andeq	r0, r0, r4, ror #16
     84a:	64070042 	strvs	r0, [r7], #-66	; 0x42
     84e:	6167656e 	cmnvs	r7, lr, ror #10
     852:	68386574 	ldmdavs	r8!, {r2, r4, r5, r6, r8, sl, sp, lr}

00000854 <Code_104>:
     854:	6838      	ldr	r0, [r7, #0]
     856:	2100      	movs	r1, #0
     858:	43c0      	mvns	r0, r0
     85a:	43f6      	mvns	r6, r6
     85c:	3001      	adds	r0, #1
     85e:	414e      	adcs	r6, r1
     860:	6038      	str	r0, [r7, #0]
     862:	4770      	bx	lr

00000864 <Dictionary_105>:
     864:	000008b4 			; <UNDEFINED> instruction: 0x000008b4
     868:	64020264 	strvs	r0, [r2], #-612	; 0x264
     86c:	cf07002d 	svcgt	0x0007002d

0000086e <Code_105>:
     86e:	cf07      	ldmia	r7!, {r0, r1, r2}
     870:	1a12      	subs	r2, r2, r0
     872:	41b1      	sbcs	r1, r6
     874:	000e      	movs	r6, r1
     876:	3f04      	subs	r7, #4
     878:	603a      	str	r2, [r7, #0]
     87a:	4770      	bx	lr
     87c:	b500      	push	{lr}
     87e:	f7ff fe24 	bl	4ca <expect_four_elements>
     882:	f000 fbad 	bl	fe0 <rot_allocator>
     886:	f7ff fe35 	bl	4f4 <expect_tos_in_register>
     88a:	f7ff fe68 	bl	55e <make_tos_changeable>
     88e:	f000 fb52 	bl	f36 <swap_allocator>
     892:	f7ff fe2f 	bl	4f4 <expect_tos_in_register>
     896:	f7ff fe62 	bl	55e <make_tos_changeable>
     89a:	f7ff fec3 	bl	624 <dswap_allocator>
     89e:	f001 fc97 	bl	21d0 <minus_allocator>
     8a2:	f000 fbb9 	bl	1018 <minusrot_allocator>
     8a6:	f847 6d04 	str.w	r6, [r7, #-4]!
     8aa:	f244 1680 	movw	r6, #16768	; 0x4180
     8ae:	f000 fd45 	bl	133c <alloc_unkommutativ>
     8b2:	bd00      	pop	{pc}

000008b4 <Dictionary_108>:
     8b4:	00000902 	andeq	r0, r0, r2, lsl #18
     8b8:	64020264 	strvs	r0, [r2], #-612	; 0x264
     8bc:	cf07002b 	svcgt	0x0007002b

000008be <Code_108>:
     8be:	cf07      	ldmia	r7!, {r0, r1, r2}
     8c0:	1812      	adds	r2, r2, r0
     8c2:	414e      	adcs	r6, r1
     8c4:	3f04      	subs	r7, #4
     8c6:	603a      	str	r2, [r7, #0]
     8c8:	4770      	bx	lr
     8ca:	b500      	push	{lr}
     8cc:	f7ff fdfd 	bl	4ca <expect_four_elements>
     8d0:	f000 fb86 	bl	fe0 <rot_allocator>
     8d4:	f7ff fe0e 	bl	4f4 <expect_tos_in_register>
     8d8:	f7ff fe41 	bl	55e <make_tos_changeable>
     8dc:	f000 fb2b 	bl	f36 <swap_allocator>
     8e0:	f7ff fe08 	bl	4f4 <expect_tos_in_register>
     8e4:	f7ff fe3b 	bl	55e <make_tos_changeable>
     8e8:	f7ff fe9c 	bl	624 <dswap_allocator>
     8ec:	f001 fc55 	bl	219a <plus_allocator>
     8f0:	f000 fb92 	bl	1018 <minusrot_allocator>
     8f4:	f847 6d04 	str.w	r6, [r7, #-4]!
     8f8:	f244 1640 	movw	r6, #16704	; 0x4140
     8fc:	f000 fd22 	bl	1344 <alloc_kommutativ>
     900:	bd00      	pop	{pc}

00000902 <Dictionary_111>:
     902:	0000092c 	andeq	r0, r0, ip, lsr #18
     906:	73030261 	movwvc	r0, #12897	; 0x3261
     90a:	f847643e 			; <UNDEFINED> instruction: 0xf847643e

0000090c <Code_111>:
     90c:	f847 6d04 	str.w	r6, [r7, #-4]!
     910:	17f6      	asrs	r6, r6, #31
     912:	4770      	bx	lr
     914:	b500      	push	{lr}
     916:	f000 fad9 	bl	ecc <dup_allocator>
     91a:	f7ff fe20 	bl	55e <make_tos_changeable>
     91e:	f847 6d04 	str.w	r6, [r7, #-4]!
     922:	f241 76c0 	movw	r6, #6080	; 0x17c0
     926:	f001 fce9 	bl	22fc <smalltworegisters>
     92a:	bd00      	pop	{pc}

0000092c <Dictionary_115>:
     92c:	0000098a 	andeq	r0, r0, sl, lsl #19
     930:	75030262 	strvc	r0, [r3, #-610]	; 0x262
     934:	68382a6d 	ldmdavs	r8!, {r0, r2, r3, r5, r6, r9, fp, sp}

00000936 <Code_115>:
     936:	6838      	ldr	r0, [r7, #0]
     938:	fba0 0606 	umull	r0, r6, r0, r6
     93c:	6038      	str	r0, [r7, #0]
     93e:	4770      	bx	lr
     940:	f847 6d04 	str.w	r6, [r7, #-4]!
     944:	f8df 6528 	ldr.w	r6, [pc, #1320]	; e70 <dgleichungleich_common+0x1e>

00000948 <alloc_multiplikation_m3>:
     948:	b500      	push	{lr}
     94a:	f7ff fda1 	bl	490 <expect_two_elements>
     94e:	f7ff fdd1 	bl	4f4 <expect_tos_in_register>
     952:	f7ff fdd9 	bl	508 <expect_nos_in_register>
     956:	6801      	ldr	r1, [r0, #0]
     958:	430e      	orrs	r6, r1
     95a:	6881      	ldr	r1, [r0, #8]
     95c:	ea56 4601 	orrs.w	r6, r6, r1, lsl #16
     960:	f7ff fc8b 	bl	27a <eliminiere_tos>
     964:	f7ff fc89 	bl	27a <eliminiere_tos>
     968:	f7ff fc7d 	bl	266 <befreie_tos>
     96c:	f7ff fd52 	bl	414 <get_free_register>
     970:	6003      	str	r3, [r0, #0]
     972:	ea56 3603 	orrs.w	r6, r6, r3, lsl #12
     976:	f7ff fc76 	bl	266 <befreie_tos>
     97a:	f7ff fd4b 	bl	414 <get_free_register>
     97e:	6003      	str	r3, [r0, #0]
     980:	ea56 2603 	orrs.w	r6, r6, r3, lsl #8
     984:	f002 fd8d 	bl	34a2 <Code_826>
     988:	bd00      	pop	{pc}

0000098a <Dictionary_117>:
     98a:	000009a8 	andeq	r0, r0, r8, lsr #19
     98e:	6d020262 	sfmvs	f0, 4, [r2, #-392]	; 0xfffffe78
     992:	6838002a 	ldmdavs	r8!, {r1, r3, r5}

00000994 <Code_117>:
     994:	6838      	ldr	r0, [r7, #0]
     996:	fb80 0606 	smull	r0, r6, r0, r6
     99a:	6038      	str	r0, [r7, #0]
     99c:	4770      	bx	lr
     99e:	f847 6d04 	str.w	r6, [r7, #-4]!
     9a2:	f8df 64d0 	ldr.w	r6, [pc, #1232]	; e74 <dgleichungleich_common+0x22>
     9a6:	e7cf      	b.n	948 <alloc_multiplikation_m3>

000009a8 <Dictionary_119>:
     9a8:	000009e6 	andeq	r0, r0, r6, ror #19
     9ac:	75030044 	strvc	r0, [r3, #-68]	; 0x44
     9b0:	cf072a64 	svcgt	0x00072a64

000009b2 <Code_119>:
     9b2:	cf07      	ldmia	r7!, {r0, r1, r2}
     9b4:	4356      	muls	r6, r2
     9b6:	4341      	muls	r1, r0
     9b8:	1876      	adds	r6, r6, r1
     9ba:	0c01      	lsrs	r1, r0, #16
     9bc:	0c13      	lsrs	r3, r2, #16
     9be:	4359      	muls	r1, r3
     9c0:	1876      	adds	r6, r6, r1
     9c2:	0c01      	lsrs	r1, r0, #16
     9c4:	b280      	uxth	r0, r0
     9c6:	b292      	uxth	r2, r2
     9c8:	4351      	muls	r1, r2
     9ca:	4343      	muls	r3, r0
     9cc:	4350      	muls	r0, r2
     9ce:	2200      	movs	r2, #0
     9d0:	18c9      	adds	r1, r1, r3
     9d2:	4152      	adcs	r2, r2
     9d4:	0412      	lsls	r2, r2, #16
     9d6:	18b6      	adds	r6, r6, r2
     9d8:	040a      	lsls	r2, r1, #16
     9da:	0c09      	lsrs	r1, r1, #16
     9dc:	1880      	adds	r0, r0, r2
     9de:	414e      	adcs	r6, r1
     9e0:	3f04      	subs	r7, #4
     9e2:	6038      	str	r0, [r7, #0]
     9e4:	4770      	bx	lr

000009e6 <Dictionary_120>:
     9e6:	00000a78 	andeq	r0, r0, r8, ror sl
     9ea:	75040044 	strvc	r0, [r4, #-68]	; 0x44
     9ee:	002a6d64 	eoreq	r6, sl, r4, ror #26

000009f2 <Code_120>:
     9f2:	b510      	push	{r4, lr}
     9f4:	2400      	movs	r4, #0
     9f6:	f847 6d04 	str.w	r6, [r7, #-4]!
     9fa:	687e      	ldr	r6, [r7, #4]
     9fc:	f847 6d04 	str.w	r6, [r7, #-4]!
     a00:	693e      	ldr	r6, [r7, #16]
     a02:	f7ff ff98 	bl	936 <Code_115>
     a06:	0031      	movs	r1, r6
     a08:	cf40      	ldmia	r7!, {r6}
     a0a:	0030      	movs	r0, r6
     a0c:	cf40      	ldmia	r7!, {r6}
     a0e:	f847 6d04 	str.w	r6, [r7, #-4]!
     a12:	683e      	ldr	r6, [r7, #0]
     a14:	f847 6d04 	str.w	r6, [r7, #-4]!
     a18:	68fe      	ldr	r6, [r7, #12]
     a1a:	b403      	push	{r0, r1}
     a1c:	f7ff ff8b 	bl	936 <Code_115>
     a20:	bc03      	pop	{r0, r1}
     a22:	0033      	movs	r3, r6
     a24:	cf40      	ldmia	r7!, {r6}
     a26:	0032      	movs	r2, r6
     a28:	cf40      	ldmia	r7!, {r6}
     a2a:	f847 6d04 	str.w	r6, [r7, #-4]!
     a2e:	683e      	ldr	r6, [r7, #0]
     a30:	f847 6d04 	str.w	r6, [r7, #-4]!
     a34:	693e      	ldr	r6, [r7, #16]
     a36:	b40f      	push	{r0, r1, r2, r3}
     a38:	f7ff ff7d 	bl	936 <Code_115>
     a3c:	bc0f      	pop	{r0, r1, r2, r3}
     a3e:	1992      	adds	r2, r2, r6
     a40:	4163      	adcs	r3, r4
     a42:	cf40      	ldmia	r7!, {r6}
     a44:	1989      	adds	r1, r1, r6
     a46:	4162      	adcs	r2, r4
     a48:	4163      	adcs	r3, r4
     a4a:	cf40      	ldmia	r7!, {r6}
     a4c:	f847 6d04 	str.w	r6, [r7, #-4]!
     a50:	687e      	ldr	r6, [r7, #4]
     a52:	f847 6d04 	str.w	r6, [r7, #-4]!
     a56:	68fe      	ldr	r6, [r7, #12]
     a58:	b40f      	push	{r0, r1, r2, r3}
     a5a:	f7ff ff6c 	bl	936 <Code_115>
     a5e:	bc0f      	pop	{r0, r1, r2, r3}
     a60:	1992      	adds	r2, r2, r6
     a62:	4163      	adcs	r3, r4
     a64:	cf40      	ldmia	r7!, {r6}
     a66:	1989      	adds	r1, r1, r6
     a68:	4162      	adcs	r2, r4
     a6a:	4163      	adcs	r3, r4
     a6c:	cf40      	ldmia	r7!, {r6}
     a6e:	001e      	movs	r6, r3
     a70:	603a      	str	r2, [r7, #0]
     a72:	6079      	str	r1, [r7, #4]
     a74:	60b8      	str	r0, [r7, #8]
     a76:	bd10      	pop	{r4, pc}

00000a78 <Dictionary_137>:
     a78:	00000a9a 	muleq	r0, sl, sl
     a7c:	2a020043 	bcs	80b90 <BIT19+0xb90>
     a80:	b500002f 	strlt	r0, [r0, #-47]	; 0x2f

00000a82 <Code_137>:
     a82:	b500      	push	{lr}
     a84:	b440      	push	{r6}
     a86:	cf40      	ldmia	r7!, {r6}
     a88:	f7ff ff84 	bl	994 <Code_117>
     a8c:	f847 6d04 	str.w	r6, [r7, #-4]!
     a90:	bc40      	pop	{r6}
     a92:	f000 f84c 	bl	b2e <Code_160>
     a96:	3704      	adds	r7, #4
     a98:	bd00      	pop	{pc}

00000a9a <Dictionary_142>:
     a9a:	00000abc 			; <UNDEFINED> instruction: 0x00000abc
     a9e:	2a050043 	bcs	140bb2 <BIT20+0x40bb2>
     aa2:	646f6d2f 	strbtvs	r6, [pc], #-3375	; aaa <Code_142+0x4>

00000aa6 <Code_142>:
     aa6:	b500      	push	{lr}
     aa8:	b440      	push	{r6}
     aaa:	cf40      	ldmia	r7!, {r6}
     aac:	f7ff ff72 	bl	994 <Code_117>
     ab0:	f847 6d04 	str.w	r6, [r7, #-4]!
     ab4:	bc40      	pop	{r6}
     ab6:	f000 f83a 	bl	b2e <Code_160>
     aba:	bd00      	pop	{pc}

00000abc <Dictionary_146>:
     abc:	00000ade 	ldrdeq	r0, [r0], -lr
     ac0:	75030043 	strvc	r0, [r3, #-67]	; 0x43
     ac4:	b5002f2a 	strlt	r2, [r0, #-3882]	; 0xf2a

00000ac6 <Code_146>:
     ac6:	b500      	push	{lr}
     ac8:	b440      	push	{r6}
     aca:	cf40      	ldmia	r7!, {r6}
     acc:	f7ff ff33 	bl	936 <Code_115>
     ad0:	f847 6d04 	str.w	r6, [r7, #-4]!
     ad4:	bc40      	pop	{r6}
     ad6:	f000 f81b 	bl	b10 <Code_155>
     ada:	3704      	adds	r7, #4
     adc:	bd00      	pop	{pc}

00000ade <Dictionary_151>:
     ade:	00000b02 	andeq	r0, r0, r2, lsl #22
     ae2:	75060043 	strvc	r0, [r6, #-67]	; 0x43
     ae6:	6f6d2f2a 	svcvs	0x006d2f2a
     aea:	b5000064 	strlt	r0, [r0, #-100]	; 0x64

00000aec <Code_151>:
     aec:	b500      	push	{lr}
     aee:	b440      	push	{r6}
     af0:	cf40      	ldmia	r7!, {r6}
     af2:	f7ff ff20 	bl	936 <Code_115>
     af6:	f847 6d04 	str.w	r6, [r7, #-4]!
     afa:	bc40      	pop	{r6}
     afc:	f000 f808 	bl	b10 <Code_155>
     b00:	bd00      	pop	{pc}

00000b02 <Dictionary_155>:
     b02:	00000b22 	andeq	r0, r0, r2, lsr #22
     b06:	75060043 	strvc	r0, [r6, #-67]	; 0x43
     b0a:	6f6d2f6d 	svcvs	0x006d2f6d
     b0e:	b5000064 	strlt	r0, [r0, #-100]	; 0x64

00000b10 <Code_155>:
     b10:	b500      	push	{lr}
     b12:	f847 6d04 	str.w	r6, [r7, #-4]!
     b16:	2600      	movs	r6, #0
     b18:	f000 f819 	bl	b4e <Code_164>
     b1c:	cf40      	ldmia	r7!, {r6}
     b1e:	3704      	adds	r7, #4
     b20:	bd00      	pop	{pc}

00000b22 <Dictionary_160>:
     b22:	00000b40 	andeq	r0, r0, r0, asr #22
     b26:	6d050043 	stcvs	0, cr0, [r5, #-268]	; 0xfffffef4
     b2a:	646f6d2f 	strbtvs	r6, [pc], #-3375	; b32 <Code_160+0x4>

00000b2e <Code_160>:
     b2e:	b500      	push	{lr}
     b30:	f847 6d04 	str.w	r6, [r7, #-4]!
     b34:	17f6      	asrs	r6, r6, #31
     b36:	f000 f832 	bl	b9e <Code_166>
     b3a:	cf40      	ldmia	r7!, {r6}
     b3c:	3704      	adds	r7, #4
     b3e:	bd00      	pop	{pc}

00000b40 <Dictionary_164>:
     b40:	00000b92 	muleq	r0, r2, fp
     b44:	75060044 	strvc	r0, [r6, #-68]	; 0x44
     b48:	6f6d2f64 	svcvs	0x006d2f64
     b4c:	b4300064 	ldrtlt	r0, [r0], #-100	; 0x64

00000b4e <Code_164>:
     b4e:	b430      	push	{r4, r5}
     b50:	2300      	movs	r3, #0
     b52:	2200      	movs	r2, #0
     b54:	6879      	ldr	r1, [r7, #4]
     b56:	68b8      	ldr	r0, [r7, #8]

00000b58 <ud_slash_mod_internal>:
     b58:	0035      	movs	r5, r6
     b5a:	683c      	ldr	r4, [r7, #0]
     b5c:	2640      	movs	r6, #64	; 0x40
     b5e:	0040      	lsls	r0, r0, #1
     b60:	4149      	adcs	r1, r1
     b62:	4152      	adcs	r2, r2
     b64:	415b      	adcs	r3, r3
     b66:	42ab      	cmp	r3, r5
     b68:	d802      	bhi.n	b70 <ud_slash_mod_internal+0x18>
     b6a:	d304      	bcc.n	b76 <ud_slash_mod_internal+0x1e>
     b6c:	42a2      	cmp	r2, r4
     b6e:	d302      	bcc.n	b76 <ud_slash_mod_internal+0x1e>
     b70:	1b12      	subs	r2, r2, r4
     b72:	41ab      	sbcs	r3, r5
     b74:	3001      	adds	r0, #1
     b76:	3e01      	subs	r6, #1
     b78:	d1f1      	bne.n	b5e <ud_slash_mod_internal+0x6>
     b7a:	000e      	movs	r6, r1
     b7c:	6038      	str	r0, [r7, #0]
     b7e:	607b      	str	r3, [r7, #4]
     b80:	60ba      	str	r2, [r7, #8]
     b82:	bc30      	pop	{r4, r5}
     b84:	4770      	bx	lr

00000b86 <uf_slash_mod>:
     b86:	b430      	push	{r4, r5}
     b88:	2300      	movs	r3, #0
     b8a:	687a      	ldr	r2, [r7, #4]
     b8c:	68b9      	ldr	r1, [r7, #8]
     b8e:	2000      	movs	r0, #0
     b90:	e7e2      	b.n	b58 <ud_slash_mod_internal>

00000b92 <Dictionary_166>:
     b92:	00000c08 	andeq	r0, r0, r8, lsl #24
     b96:	64050044 	strvs	r0, [r5], #-68	; 0x44
     b9a:	646f6d2f 	strbtvs	r6, [pc], #-3375	; ba2 <Code_166+0x4>

00000b9e <Code_166>:
     b9e:	b500      	push	{lr}
     ba0:	17f0      	asrs	r0, r6, #31
     ba2:	d019      	beq.n	bd8 <Code_166+0x3a>
     ba4:	f7ff fe56 	bl	854 <Code_104>
     ba8:	f7ff fd33 	bl	612 <Code_75>
     bac:	17f0      	asrs	r0, r6, #31
     bae:	d00c      	beq.n	bca <Code_166+0x2c>
     bb0:	f7ff fe50 	bl	854 <Code_104>
     bb4:	f7ff fd2d 	bl	612 <Code_75>
     bb8:	f7ff ffc9 	bl	b4e <Code_164>
     bbc:	f7ff fd29 	bl	612 <Code_75>
     bc0:	f7ff fe48 	bl	854 <Code_104>
     bc4:	f7ff fd25 	bl	612 <Code_75>
     bc8:	bd00      	pop	{pc}
     bca:	f7ff fd22 	bl	612 <Code_75>
     bce:	f7ff ffbe 	bl	b4e <Code_164>
     bd2:	f7ff fe3f 	bl	854 <Code_104>
     bd6:	bd00      	pop	{pc}
     bd8:	f7ff fd1b 	bl	612 <Code_75>
     bdc:	17f0      	asrs	r0, r6, #31
     bde:	d00e      	beq.n	bfe <Code_166+0x60>
     be0:	f7ff fe38 	bl	854 <Code_104>
     be4:	f7ff fd15 	bl	612 <Code_75>
     be8:	f7ff ffb1 	bl	b4e <Code_164>
     bec:	f7ff fe32 	bl	854 <Code_104>
     bf0:	f7ff fd0f 	bl	612 <Code_75>
     bf4:	f7ff fe2e 	bl	854 <Code_104>
     bf8:	f7ff fd0b 	bl	612 <Code_75>
     bfc:	bd00      	pop	{pc}
     bfe:	f7ff fd08 	bl	612 <Code_75>
     c02:	f7ff ffa4 	bl	b4e <Code_164>
     c06:	bd00      	pop	{pc}

00000c08 <Dictionary_167>:
     c08:	00000c1e 	andeq	r0, r0, lr, lsl ip
     c0c:	64020044 	strvs	r0, [r2], #-68	; 0x44
     c10:	b500002f 	strlt	r0, [r0, #-47]	; 0x2f

00000c12 <Code_167>:
     c12:	b500      	push	{lr}
     c14:	f7ff ffc3 	bl	b9e <Code_166>
     c18:	f7ff fd1e 	bl	658 <Code_77>
     c1c:	bd00      	pop	{pc}

00000c1e <Dictionary_168>:
     c1e:	00000c66 	andeq	r0, r0, r6, ror #24
     c22:	66020044 	strvs	r0, [r2], -r4, asr #32
     c26:	b500002a 	strlt	r0, [r0, #-42]	; 0x2a

00000c28 <Code_168>:
     c28:	b500      	push	{lr}
     c2a:	17f0      	asrs	r0, r6, #31
     c2c:	d00d      	beq.n	c4a <Code_168+0x22>
     c2e:	f7ff fe11 	bl	854 <Code_104>
     c32:	f7ff fcee 	bl	612 <Code_75>
     c36:	17f0      	asrs	r0, r6, #31
     c38:	d00d      	beq.n	c56 <Code_168+0x2e>
     c3a:	f7ff fe0b 	bl	854 <Code_104>
     c3e:	f7ff fed8 	bl	9f2 <Code_120>
     c42:	cf40      	ldmia	r7!, {r6}
     c44:	cf01      	ldmia	r7!, {r0}
     c46:	6038      	str	r0, [r7, #0]
     c48:	bd00      	pop	{pc}
     c4a:	f7ff fce2 	bl	612 <Code_75>
     c4e:	17f0      	asrs	r0, r6, #31
     c50:	d0f5      	beq.n	c3e <Code_168+0x16>
     c52:	f7ff fdff 	bl	854 <Code_104>
     c56:	f7ff fecc 	bl	9f2 <Code_120>
     c5a:	cf40      	ldmia	r7!, {r6}
     c5c:	cf01      	ldmia	r7!, {r0}
     c5e:	6038      	str	r0, [r7, #0]
     c60:	f7ff fdf8 	bl	854 <Code_104>
     c64:	bd00      	pop	{pc}

00000c66 <Dictionary_171>:
     c66:	00000cb2 			; <UNDEFINED> instruction: 0x00000cb2
     c6a:	66020044 	strvs	r0, [r2], -r4, asr #32
     c6e:	b500002f 	strlt	r0, [r0, #-47]	; 0x2f

00000c70 <Code_171>:
     c70:	b500      	push	{lr}
     c72:	17f0      	asrs	r0, r6, #31
     c74:	d00e      	beq.n	c94 <Code_171+0x24>
     c76:	f7ff fded 	bl	854 <Code_104>
     c7a:	f7ff fcca 	bl	612 <Code_75>
     c7e:	17f0      	asrs	r0, r6, #31
     c80:	d00e      	beq.n	ca0 <Code_171+0x30>
     c82:	f7ff fde7 	bl	854 <Code_104>
     c86:	f7ff fcc4 	bl	612 <Code_75>
     c8a:	f7ff ff7c 	bl	b86 <uf_slash_mod>
     c8e:	f7ff fce3 	bl	658 <Code_77>
     c92:	bd00      	pop	{pc}
     c94:	f7ff fcbd 	bl	612 <Code_75>
     c98:	17f0      	asrs	r0, r6, #31
     c9a:	d0f4      	beq.n	c86 <Code_171+0x16>
     c9c:	f7ff fdda 	bl	854 <Code_104>
     ca0:	f7ff fcb7 	bl	612 <Code_75>
     ca4:	f7ff ff6f 	bl	b86 <uf_slash_mod>
     ca8:	f7ff fdd4 	bl	854 <Code_104>
     cac:	f7ff fcd4 	bl	658 <Code_77>
     cb0:	bd00      	pop	{pc}

00000cb2 <Dictionary_172>:
     cb2:	00000cfa 	strdeq	r0, [r0], -sl
     cb6:	32020220 	andcc	r0, r2, #2
     cba:	cf060021 	svcgt	0x00060021

00000cbc <Code_172>:
     cbc:	cf06      	ldmia	r7!, {r1, r2}
     cbe:	6031      	str	r1, [r6, #0]
     cc0:	6072      	str	r2, [r6, #4]
     cc2:	cf40      	ldmia	r7!, {r6}
     cc4:	4770      	bx	lr
     cc6:	b500      	push	{lr}
     cc8:	f7ff fbef 	bl	4aa <expect_three_elements>
     ccc:	6801      	ldr	r1, [r0, #0]
     cce:	6842      	ldr	r2, [r0, #4]
     cd0:	b406      	push	{r1, r2}
     cd2:	f000 fe06 	bl	18e2 <allocator_4store>
     cd6:	f7ff fac6 	bl	266 <befreie_tos>
     cda:	bc06      	pop	{r1, r2}
     cdc:	6001      	str	r1, [r0, #0]
     cde:	2928      	cmp	r1, #40	; 0x28
     ce0:	d006      	beq.n	cf0 <Code_172+0x34>
     ce2:	f847 6d04 	str.w	r6, [r7, #-4]!
     ce6:	f246 0640 	movw	r6, #24640	; 0x6040
     cea:	f000 fdfe 	bl	18ea <allocator_4store_anderer_opcode>
     cee:	bd00      	pop	{pc}
     cf0:	3204      	adds	r2, #4
     cf2:	6042      	str	r2, [r0, #4]
     cf4:	f000 fdf5 	bl	18e2 <allocator_4store>
     cf8:	bd00      	pop	{pc}

00000cfa <Dictionary_176>:
     cfa:	00000d44 	andeq	r0, r0, r4, asr #26
     cfe:	32020220 	andcc	r0, r2, #2
     d02:	3f040040 	svccc	0x00040040

00000d04 <Code_176>:
     d04:	3f04      	subs	r7, #4
     d06:	6870      	ldr	r0, [r6, #4]
     d08:	6038      	str	r0, [r7, #0]
     d0a:	6836      	ldr	r6, [r6, #0]
     d0c:	4770      	bx	lr
     d0e:	b500      	push	{lr}
     d10:	f000 f8dc 	bl	ecc <dup_allocator>
     d14:	6801      	ldr	r1, [r0, #0]
     d16:	2928      	cmp	r1, #40	; 0x28
     d18:	d00a      	beq.n	d30 <Code_176+0x2c>
     d1a:	f847 6d04 	str.w	r6, [r7, #-4]!
     d1e:	f646 0640 	movw	r6, #26688	; 0x6840
     d22:	f000 fdbf 	bl	18a4 <allocator_4fetch_anderer_opcode>
     d26:	f000 f906 	bl	f36 <swap_allocator>
     d2a:	f000 fdb7 	bl	189c <allocator_4fetch>
     d2e:	bd00      	pop	{pc}
     d30:	6841      	ldr	r1, [r0, #4]
     d32:	3104      	adds	r1, #4
     d34:	6041      	str	r1, [r0, #4]
     d36:	f000 fdb1 	bl	189c <allocator_4fetch>
     d3a:	f000 f8fc 	bl	f36 <swap_allocator>
     d3e:	f000 fdad 	bl	189c <allocator_4fetch>
     d42:	bd00      	pop	{pc}

00000d44 <Dictionary_179>:
     d44:	00000d64 	andeq	r0, r0, r4, ror #26
     d48:	64030044 	strvs	r0, [r3], #-68	; 0x44
     d4c:	cf073c75 	svcgt	0x00073c75

00000d4e <Code_179>:
     d4e:	cf07      	ldmia	r7!, {r0, r1, r2}
     d50:	428e      	cmp	r6, r1
     d52:	d804      	bhi.n	d5e <Code_179+0x10>
     d54:	d101      	bne.n	d5a <Code_179+0xc>
     d56:	4290      	cmp	r0, r2
     d58:	d801      	bhi.n	d5e <Code_179+0x10>
     d5a:	2600      	movs	r6, #0
     d5c:	4770      	bx	lr
     d5e:	2600      	movs	r6, #0
     d60:	43f6      	mvns	r6, r6
     d62:	4770      	bx	lr

00000d64 <Dictionary_180>:
     d64:	00000d84 	andeq	r0, r0, r4, lsl #27
     d68:	64030044 	strvs	r0, [r3], #-68	; 0x44
     d6c:	cf073e75 	svcgt	0x00073e75

00000d6e <Code_180>:
     d6e:	cf07      	ldmia	r7!, {r0, r1, r2}
     d70:	42b1      	cmp	r1, r6
     d72:	d804      	bhi.n	d7e <Code_180+0x10>
     d74:	d101      	bne.n	d7a <Code_180+0xc>
     d76:	4282      	cmp	r2, r0
     d78:	d801      	bhi.n	d7e <Code_180+0x10>
     d7a:	2600      	movs	r6, #0
     d7c:	4770      	bx	lr
     d7e:	2600      	movs	r6, #0
     d80:	43f6      	mvns	r6, r6
     d82:	4770      	bx	lr

00000d84 <Dictionary_181>:
     d84:	00000da4 	andeq	r0, r0, r4, lsr #27
     d88:	64020044 	strvs	r0, [r2], #-68	; 0x44
     d8c:	cf07003c 	svcgt	0x0007003c

00000d8e <Code_181>:
     d8e:	cf07      	ldmia	r7!, {r0, r1, r2}
     d90:	428e      	cmp	r6, r1
     d92:	dc04      	bgt.n	d9e <Code_181+0x10>
     d94:	d101      	bne.n	d9a <Code_181+0xc>
     d96:	4290      	cmp	r0, r2
     d98:	dc01      	bgt.n	d9e <Code_181+0x10>
     d9a:	2600      	movs	r6, #0
     d9c:	4770      	bx	lr
     d9e:	2600      	movs	r6, #0
     da0:	43f6      	mvns	r6, r6
     da2:	4770      	bx	lr

00000da4 <Dictionary_182>:
     da4:	00000dc4 	andeq	r0, r0, r4, asr #27
     da8:	64020044 	strvs	r0, [r2], #-68	; 0x44
     dac:	cf07003e 	svcgt	0x0007003e

00000dae <Code_182>:
     dae:	cf07      	ldmia	r7!, {r0, r1, r2}
     db0:	42b1      	cmp	r1, r6
     db2:	dc04      	bgt.n	dbe <Code_182+0x10>
     db4:	d101      	bne.n	dba <Code_182+0xc>
     db6:	4282      	cmp	r2, r0
     db8:	dc01      	bgt.n	dbe <Code_182+0x10>
     dba:	2600      	movs	r6, #0
     dbc:	4770      	bx	lr
     dbe:	2600      	movs	r6, #0
     dc0:	43f6      	mvns	r6, r6
     dc2:	4770      	bx	lr

00000dc4 <Dictionary_183>:
     dc4:	00000de0 	andeq	r0, r0, r0, ror #27
     dc8:	64030262 	strvs	r0, [r3], #-610	; 0x262
     dcc:	37043c30 	smladxcc	r4, r0, ip, r3

00000dce <Code_183>:
     dce:	3704      	adds	r7, #4
     dd0:	17f6      	asrs	r6, r6, #31
     dd2:	4770      	bx	lr
     dd4:	b500      	push	{lr}
     dd6:	f000 f8c1 	bl	f5c <nip_allocator>
     dda:	f000 fb3d 	bl	1458 <alloc_nullkleiner>
     dde:	bd00      	pop	{pc}

00000de0 <Dictionary_184>:
     de0:	00000e08 	andeq	r0, r0, r8, lsl #28
     de4:	64030262 	strvs	r0, [r3], #-610	; 0x262
     de8:	cf013d30 	svcgt	0x00013d30

00000dea <Code_184>:
     dea:	cf01      	ldmia	r7!, {r0}
     dec:	4306      	orrs	r6, r0
     dee:	3e01      	subs	r6, #1
     df0:	41b6      	sbcs	r6, r6
     df2:	4770      	bx	lr
     df4:	b500      	push	{lr}
     df6:	f847 6d04 	str.w	r6, [r7, #-4]!
     dfa:	f244 3600 	movw	r6, #17152	; 0x4300
     dfe:	f000 faa1 	bl	1344 <alloc_kommutativ>
     e02:	f000 fb05 	bl	1410 <allocator_equal_zero>
     e06:	bd00      	pop	{pc}

00000e08 <Dictionary_187>:
     e08:	00000e2e 	andeq	r0, r0, lr, lsr #28
     e0c:	64030244 	strvs	r0, [r3], #-580	; 0x244
     e10:	cf073e3c 	svcgt	0x00073e3c

00000e12 <Code_187>:
     e12:	cf07      	ldmia	r7!, {r0, r1, r2}
     e14:	4050      	eors	r0, r2
     e16:	404e      	eors	r6, r1
     e18:	4306      	orrs	r6, r0
     e1a:	3e01      	subs	r6, #1
     e1c:	41b6      	sbcs	r6, r6
     e1e:	43f6      	mvns	r6, r6
     e20:	4770      	bx	lr
     e22:	b500      	push	{lr}
     e24:	f000 f815 	bl	e52 <dgleichungleich_common>
     e28:	f000 fb05 	bl	1436 <allocator_unequal_zero>
     e2c:	bd00      	pop	{pc}

00000e2e <Dictionary_188>:
     e2e:	00000e78 	andeq	r0, r0, r8, ror lr
     e32:	64020244 	strvs	r0, [r2], #-580	; 0x244
     e36:	cf07003d 	svcgt	0x0007003d

00000e38 <Code_188>:
     e38:	cf07      	ldmia	r7!, {r0, r1, r2}
     e3a:	4050      	eors	r0, r2
     e3c:	404e      	eors	r6, r1
     e3e:	4306      	orrs	r6, r0
     e40:	3e01      	subs	r6, #1
     e42:	41b6      	sbcs	r6, r6
     e44:	4770      	bx	lr
     e46:	b500      	push	{lr}
     e48:	f000 f803 	bl	e52 <dgleichungleich_common>
     e4c:	f000 fae0 	bl	1410 <allocator_equal_zero>
     e50:	bd00      	pop	{pc}

00000e52 <dgleichungleich_common>:
     e52:	b500      	push	{lr}
     e54:	f7ff fb39 	bl	4ca <expect_four_elements>
     e58:	f000 f8c2 	bl	fe0 <rot_allocator>
     e5c:	f000 f9c4 	bl	11e8 <xor_allocator>
     e60:	f000 f8da 	bl	1018 <minusrot_allocator>
     e64:	f000 f9c0 	bl	11e8 <xor_allocator>
     e68:	f000 f9b1 	bl	11ce <or_allocator>
     e6c:	bd00      	pop	{pc}
     e6e:	00000000 	andeq	r0, r0, r0
     e72:	0000fba0 	andeq	pc, r0, r0, lsr #23
     e76:	0e8afb80 	vdiveq.f64	d15, d26, d0

00000e78 <Dictionary_189>:
     e78:	00000e8a 	andeq	r0, r0, sl, lsl #29
     e7c:	73030020 	movwvc	r0, #12320	; 0x3020
     e80:	f8474070 			; <UNDEFINED> instruction: 0xf8474070

00000e82 <Code_189>:
     e82:	f847 6d04 	str.w	r6, [r7, #-4]!
     e86:	003e      	movs	r6, r7
     e88:	4770      	bx	lr

00000e8a <Dictionary_191>:
     e8a:	00000e9a 	muleq	r0, sl, lr
     e8e:	73030020 	movwvc	r0, #12320	; 0x3020
     e92:	00372170 	eorseq	r2, r7, r0, ror r1

00000e94 <Code_191>:
     e94:	0037      	movs	r7, r6
     e96:	cf40      	ldmia	r7!, {r6}
     e98:	4770      	bx	lr

00000e9a <Dictionary_192>:
     e9a:	00000eac 	andeq	r0, r0, ip, lsr #29
     e9e:	72030020 	andvc	r0, r3, #32
     ea2:	f8474070 			; <UNDEFINED> instruction: 0xf8474070

00000ea4 <Code_192>:
     ea4:	f847 6d04 	str.w	r6, [r7, #-4]!
     ea8:	466e      	mov	r6, sp
     eaa:	4770      	bx	lr

00000eac <Dictionary_194>:
     eac:	00000ebc 			; <UNDEFINED> instruction: 0x00000ebc
     eb0:	72030020 	andvc	r0, r3, #32
     eb4:	46b52170 			; <UNDEFINED> instruction: 0x46b52170

00000eb6 <Code_194>:
     eb6:	46b5      	mov	sp, r6
     eb8:	cf40      	ldmia	r7!, {r6}
     eba:	4770      	bx	lr

00000ebc <Dictionary_195>:
     ebc:	00000ee0 	andeq	r0, r0, r0, ror #29
     ec0:	64030261 	strvs	r0, [r3], #-609	; 0x261
     ec4:	f8477075 			; <UNDEFINED> instruction: 0xf8477075

00000ec6 <Code_195>:
     ec6:	f847 6d04 	str.w	r6, [r7, #-4]!
     eca:	4770      	bx	lr

00000ecc <dup_allocator>:
     ecc:	b506      	push	{r1, r2, lr}
     ece:	f7ff fad5 	bl	47c <expect_one_element>
     ed2:	6801      	ldr	r1, [r0, #0]
     ed4:	6842      	ldr	r2, [r0, #4]
     ed6:	f7ff f9c6 	bl	266 <befreie_tos>
     eda:	6001      	str	r1, [r0, #0]
     edc:	6042      	str	r2, [r0, #4]
     ede:	bd06      	pop	{r1, r2, pc}

00000ee0 <Dictionary_198>:
     ee0:	00000f0c 	andeq	r0, r0, ip, lsl #30
     ee4:	64040261 	strvs	r0, [r4], #-609	; 0x261
     ee8:	00706f72 	rsbseq	r6, r0, r2, ror pc

00000eec <Code_198>:
     eec:	cf40      	ldmia	r7!, {r6}
     eee:	4770      	bx	lr

00000ef0 <drop_allocator>:
     ef0:	b500      	push	{lr}
     ef2:	6801      	ldr	r1, [r0, #0]
     ef4:	291e      	cmp	r1, #30
     ef6:	d106      	bne.n	f06 <drop_allocator+0x16>
     ef8:	f847 6d04 	str.w	r6, [r7, #-4]!
     efc:	f243 7604 	movw	r6, #14084	; 0x3704
     f00:	f002 faa0 	bl	3444 <Code_817>
     f04:	bd00      	pop	{pc}
     f06:	f7ff f9b8 	bl	27a <eliminiere_tos>
     f0a:	bd00      	pop	{pc}

00000f0c <Dictionary_202>:
     f0c:	00000f22 	andeq	r0, r0, r2, lsr #30
     f10:	3f040061 	svccc	0x00040061
     f14:	00707564 	rsbseq	r7, r0, r4, ror #10

00000f18 <Code_202>:
     f18:	2e00      	cmp	r6, #0
     f1a:	d001      	beq.n	f20 <Code_202+0x8>
     f1c:	f847 6d04 	str.w	r6, [r7, #-4]!
     f20:	4770      	bx	lr

00000f22 <Dictionary_204>:
     f22:	00000f4e 	andeq	r0, r0, lr, asr #30
     f26:	73040262 	movwvc	r0, #16994	; 0x4262
     f2a:	00706177 	rsbseq	r6, r0, r7, ror r1

00000f2e <Code_204>:
     f2e:	6839      	ldr	r1, [r7, #0]
     f30:	603e      	str	r6, [r7, #0]
     f32:	000e      	movs	r6, r1
     f34:	4770      	bx	lr

00000f36 <swap_allocator>:
     f36:	b50c      	push	{r2, r3, lr}
     f38:	f7ff faaa 	bl	490 <expect_two_elements>
     f3c:	6802      	ldr	r2, [r0, #0]
     f3e:	6883      	ldr	r3, [r0, #8]
     f40:	6003      	str	r3, [r0, #0]
     f42:	6082      	str	r2, [r0, #8]
     f44:	6842      	ldr	r2, [r0, #4]
     f46:	68c3      	ldr	r3, [r0, #12]
     f48:	6043      	str	r3, [r0, #4]
     f4a:	60c2      	str	r2, [r0, #12]
     f4c:	bd0c      	pop	{r2, r3, pc}

00000f4e <Dictionary_205>:
     f4e:	00000f7c 	andeq	r0, r0, ip, ror pc
     f52:	6e030262 	cdpvs	2, 0, cr0, cr3, cr2, {3}
     f56:	37047069 	strcc	r7, [r4, -r9, rrx]

00000f58 <Code_205>:
     f58:	3704      	adds	r7, #4
     f5a:	4770      	bx	lr

00000f5c <nip_allocator>:
     f5c:	b500      	push	{lr}
     f5e:	f7ff fa8d 	bl	47c <expect_one_element>
     f62:	6881      	ldr	r1, [r0, #8]
     f64:	291e      	cmp	r1, #30
     f66:	d002      	beq.n	f6e <nip_allocator+0x12>
     f68:	f7ff f98d 	bl	286 <eliminiere_nos>
     f6c:	bd00      	pop	{pc}
     f6e:	f847 6d04 	str.w	r6, [r7, #-4]!
     f72:	f243 7604 	movw	r6, #14084	; 0x3704
     f76:	f002 fa65 	bl	3444 <Code_817>
     f7a:	bd00      	pop	{pc}

00000f7c <Dictionary_209>:
     f7c:	00000fa4 	andeq	r0, r0, r4, lsr #31
     f80:	6f040262 	svcvs	0x00040262
     f84:	00726576 	rsbseq	r6, r2, r6, ror r5

00000f88 <Code_209>:
     f88:	f847 6d04 	str.w	r6, [r7, #-4]!
     f8c:	687e      	ldr	r6, [r7, #4]
     f8e:	4770      	bx	lr

00000f90 <over_allocator>:
     f90:	b500      	push	{lr}
     f92:	f7ff fa7d 	bl	490 <expect_two_elements>
     f96:	6881      	ldr	r1, [r0, #8]
     f98:	68c2      	ldr	r2, [r0, #12]
     f9a:	f7ff f964 	bl	266 <befreie_tos>
     f9e:	6001      	str	r1, [r0, #0]
     fa0:	6042      	str	r2, [r0, #4]
     fa2:	bd00      	pop	{pc}

00000fa4 <Dictionary_211>:
     fa4:	00000fca 	andeq	r0, r0, sl, asr #31
     fa8:	74040262 	strvc	r0, [r4], #-610	; 0x262
     fac:	006b6375 	rsbeq	r6, fp, r5, ror r3

00000fb0 <Code_211>:
     fb0:	cf01      	ldmia	r7!, {r0}
     fb2:	3f08      	subs	r7, #8
     fb4:	607e      	str	r6, [r7, #4]
     fb6:	6038      	str	r0, [r7, #0]
     fb8:	4770      	bx	lr
     fba:	b500      	push	{lr}
     fbc:	f7ff fa68 	bl	490 <expect_two_elements>
     fc0:	f7ff ff84 	bl	ecc <dup_allocator>
     fc4:	f000 f828 	bl	1018 <minusrot_allocator>
     fc8:	bd00      	pop	{pc}

00000fca <Dictionary_212>:
     fca:	00001000 	andeq	r1, r0, r0
     fce:	72030263 	andvc	r0, r3, #805306374	; 0x30000006
     fd2:	cf03746f 	svcgt	0x0003746f

00000fd4 <Code_212>:
     fd4:	cf03      	ldmia	r7!, {r0, r1}
     fd6:	3f08      	subs	r7, #8
     fd8:	6078      	str	r0, [r7, #4]
     fda:	603e      	str	r6, [r7, #0]
     fdc:	000e      	movs	r6, r1
     fde:	4770      	bx	lr

00000fe0 <rot_allocator>:
     fe0:	b50e      	push	{r1, r2, r3, lr}
     fe2:	f7ff fa62 	bl	4aa <expect_three_elements>
     fe6:	6801      	ldr	r1, [r0, #0]
     fe8:	6882      	ldr	r2, [r0, #8]
     fea:	6903      	ldr	r3, [r0, #16]
     fec:	6081      	str	r1, [r0, #8]
     fee:	6102      	str	r2, [r0, #16]
     ff0:	6003      	str	r3, [r0, #0]
     ff2:	6841      	ldr	r1, [r0, #4]
     ff4:	68c2      	ldr	r2, [r0, #12]
     ff6:	6943      	ldr	r3, [r0, #20]
     ff8:	60c1      	str	r1, [r0, #12]
     ffa:	6142      	str	r2, [r0, #20]
     ffc:	6043      	str	r3, [r0, #4]
     ffe:	bd0e      	pop	{r1, r2, r3, pc}

00001000 <Dictionary_213>:
    1000:	00001024 	andeq	r1, r0, r4, lsr #32
    1004:	2d040263 	sfmcs	f0, 4, [r4, #-396]	; 0xfffffe74
    1008:	00746f72 	rsbseq	r6, r4, r2, ror pc

0000100c <Code_213>:
    100c:	cf03      	ldmia	r7!, {r0, r1}
    100e:	3f08      	subs	r7, #8
    1010:	607e      	str	r6, [r7, #4]
    1012:	6039      	str	r1, [r7, #0]
    1014:	0006      	movs	r6, r0
    1016:	4770      	bx	lr

00001018 <minusrot_allocator>:
    1018:	b500      	push	{lr}
    101a:	f7ff ffe1 	bl	fe0 <rot_allocator>
    101e:	f7ff ffdf 	bl	fe0 <rot_allocator>
    1022:	bd00      	pop	{pc}

00001024 <Dictionary_214>:
    1024:	00001036 	andeq	r1, r0, r6, lsr r0
    1028:	70040020 	andvc	r0, r4, r0, lsr #32
    102c:	006b6369 	rsbeq	r6, fp, r9, ror #6

00001030 <Code_214>:
    1030:	f857 6026 	ldr.w	r6, [r7, r6, lsl #2]
    1034:	4770      	bx	lr

00001036 <Dictionary_215>:
    1036:	0000104e 	andeq	r1, r0, lr, asr #32
    103a:	64050000 	strvs	r0, [r5]
    103e:	68747065 	ldmdavs	r4!, {r0, r2, r5, r6, ip, sp, lr}^

00001042 <Code_215>:
    1042:	494f      	ldr	r1, [pc, #316]	; (1180 <Code_234+0x1c>)
    1044:	1bc9      	subs	r1, r1, r7
    1046:	f847 6d04 	str.w	r6, [r7, #-4]!
    104a:	088e      	lsrs	r6, r1, #2
    104c:	4770      	bx	lr

0000104e <Dictionary_217>:
    104e:	0000106a 	andeq	r1, r0, sl, rrx
    1052:	72060000 	andvc	r0, r6, #0
    1056:	74706564 	ldrbtvc	r6, [r0], #-1380	; 0x564
    105a:	f8470068 			; <UNDEFINED> instruction: 0xf8470068

0000105c <Code_217>:
    105c:	f847 6d04 	str.w	r6, [r7, #-4]!
    1060:	466e      	mov	r6, sp
    1062:	4948      	ldr	r1, [pc, #288]	; (1184 <Code_234+0x20>)
    1064:	1b89      	subs	r1, r1, r6
    1066:	088e      	lsrs	r6, r1, #2
    1068:	4770      	bx	lr

0000106a <Dictionary_219>:
    106a:	000010a0 	andeq	r1, r0, r0, lsr #1
    106e:	3e020220 	cdpcc	2, 0, cr0, cr2, cr0, {1}
    1072:	b4400072 	strblt	r0, [r0], #-114	; 0x72

00001074 <Code_219>:
    1074:	b440      	push	{r6}
    1076:	cf40      	ldmia	r7!, {r6}
    1078:	4770      	bx	lr

0000107a <allocator_to_r>:
    107a:	b500      	push	{lr}
    107c:	f7ff fa91 	bl	5a2 <push_lr_nachholen>
    1080:	f7ff f9fc 	bl	47c <expect_one_element>
    1084:	f7ff fa36 	bl	4f4 <expect_tos_in_register>
    1088:	f847 6d04 	str.w	r6, [r7, #-4]!
    108c:	f24b 4600 	movw	r6, #46080	; 0xb400
    1090:	2201      	movs	r2, #1
    1092:	408a      	lsls	r2, r1
    1094:	4316      	orrs	r6, r2
    1096:	f002 f9d5 	bl	3444 <Code_817>
    109a:	f7ff f8ee 	bl	27a <eliminiere_tos>
    109e:	bd00      	pop	{pc}

000010a0 <Dictionary_222>:
    10a0:	000010d6 	ldrdeq	r1, [r0], -r6
    10a4:	72020220 	andvc	r0, r2, #2
    10a8:	f847003e 			; <UNDEFINED> instruction: 0xf847003e

000010aa <Code_222>:
    10aa:	f847 6d04 	str.w	r6, [r7, #-4]!
    10ae:	bc40      	pop	{r6}
    10b0:	4770      	bx	lr

000010b2 <allocator_r_from>:
    10b2:	b500      	push	{lr}
    10b4:	f7ff fa75 	bl	5a2 <push_lr_nachholen>
    10b8:	f7ff f8d5 	bl	266 <befreie_tos>
    10bc:	f7ff f9aa 	bl	414 <get_free_register>
    10c0:	6003      	str	r3, [r0, #0]
    10c2:	f847 6d04 	str.w	r6, [r7, #-4]!
    10c6:	f64b 4600 	movw	r6, #48128	; 0xbc00
    10ca:	2201      	movs	r2, #1
    10cc:	409a      	lsls	r2, r3
    10ce:	4316      	orrs	r6, r2
    10d0:	f002 f9b8 	bl	3444 <Code_817>
    10d4:	bd00      	pop	{pc}

000010d6 <Dictionary_226>:
    10d6:	000010f4 	strdeq	r1, [r0], -r4
    10da:	72020220 	andvc	r0, r2, #2
    10de:	f8470040 			; <UNDEFINED> instruction: 0xf8470040

000010e0 <Code_226>:
    10e0:	f847 6d04 	str.w	r6, [r7, #-4]!
    10e4:	9e00      	ldr	r6, [sp, #0]
    10e6:	4770      	bx	lr
    10e8:	b500      	push	{lr}
    10ea:	f7ff fa5a 	bl	5a2 <push_lr_nachholen>
    10ee:	f002 febc 	bl	3e6a <rfetch_allocator>
    10f2:	bd00      	pop	{pc}

000010f4 <Dictionary_228>:
    10f4:	00001118 	andeq	r1, r0, r8, lsl r1
    10f8:	72050220 	andvc	r0, r5, #2
    10fc:	706f7264 	rsbvc	r7, pc, r4, ror #4

00001100 <Code_228>:
    1100:	b001      	add	sp, #4
    1102:	4770      	bx	lr
    1104:	b500      	push	{lr}
    1106:	f7ff fa4c 	bl	5a2 <push_lr_nachholen>
    110a:	f847 6d04 	str.w	r6, [r7, #-4]!
    110e:	f24b 0601 	movw	r6, #45057	; 0xb001
    1112:	f002 f997 	bl	3444 <Code_817>
    1116:	bd00      	pop	{pc}

00001118 <Dictionary_231>:
    1118:	0000112c 	andeq	r1, r0, ip, lsr #2
    111c:	72050020 	andvc	r0, r5, #32
    1120:	6b636970 	blvs	18db6e8 <BIT24+0x8db6e8>

00001124 <Code_231>:
    1124:	00b6      	lsls	r6, r6, #2
    1126:	446e      	add	r6, sp
    1128:	6836      	ldr	r6, [r6, #0]
    112a:	4770      	bx	lr

0000112c <Dictionary_232>:
    112c:	00001158 	andeq	r1, r0, r8, asr r1
    1130:	72040000 	andvc	r0, r4, #0
    1134:	006c6c6f 	rsbeq	r6, ip, pc, ror #24

00001138 <Code_232>:
    1138:	2e00      	cmp	r6, #0
    113a:	d101      	bne.n	1140 <Code_232+0x8>
    113c:	cf40      	ldmia	r7!, {r6}
    113e:	4770      	bx	lr
    1140:	00b0      	lsls	r0, r6, #2
    1142:	5839      	ldr	r1, [r7, r0]
    1144:	19c0      	adds	r0, r0, r7
    1146:	1f03      	subs	r3, r0, #4
    1148:	681a      	ldr	r2, [r3, #0]
    114a:	6002      	str	r2, [r0, #0]
    114c:	3804      	subs	r0, #4
    114e:	3e01      	subs	r6, #1
    1150:	d1f9      	bne.n	1146 <Code_232+0xe>
    1152:	3704      	adds	r7, #4
    1154:	000e      	movs	r6, r1
    1156:	4770      	bx	lr

00001158 <Dictionary_234>:
    1158:	00001188 	andeq	r1, r0, r8, lsl #3
    115c:	2d050000 	stccs	0, cr0, [r5]
    1160:	6c6c6f72 	stclvs	15, cr6, [ip], #-456	; 0xfffffe38

00001164 <Code_234>:
    1164:	2e00      	cmp	r6, #0
    1166:	d101      	bne.n	116c <Code_234+0x8>
    1168:	cf40      	ldmia	r7!, {r6}
    116a:	4770      	bx	lr
    116c:	6838      	ldr	r0, [r7, #0]
    116e:	4639      	mov	r1, r7
    1170:	684a      	ldr	r2, [r1, #4]
    1172:	600a      	str	r2, [r1, #0]
    1174:	3104      	adds	r1, #4
    1176:	3e01      	subs	r6, #1
    1178:	d1fa      	bne.n	1170 <Code_234+0xc>
    117a:	6008      	str	r0, [r1, #0]
    117c:	cf40      	ldmia	r7!, {r6}
    117e:	4770      	bx	lr
    1180:	2000038c 	andcs	r0, r0, ip, lsl #7
    1184:	2000048c 	andcs	r0, r0, ip, lsl #9

00001188 <Dictionary_237>:
    1188:	000011a2 	andeq	r1, r0, r2, lsr #3
    118c:	61030262 	tstvs	r3, r2, ror #4
    1190:	cf01646e 	svcgt	0x0001646e

00001192 <Code_237>:
    1192:	cf01      	ldmia	r7!, {r0}
    1194:	4006      	ands	r6, r0
    1196:	4770      	bx	lr
    1198:	f847 6d04 	str.w	r6, [r7, #-4]!
    119c:	f244 0600 	movw	r6, #16384	; 0x4000
    11a0:	e0d0      	b.n	1344 <alloc_kommutativ>

000011a2 <Dictionary_240>:
    11a2:	000011be 			; <UNDEFINED> instruction: 0x000011be
    11a6:	62030262 	andvs	r0, r3, #536870918	; 0x20000006
    11aa:	cf016369 	svcgt	0x00016369

000011ac <Code_240>:
    11ac:	cf01      	ldmia	r7!, {r0}
    11ae:	43b0      	bics	r0, r6
    11b0:	0006      	movs	r6, r0
    11b2:	4770      	bx	lr
    11b4:	f847 6d04 	str.w	r6, [r7, #-4]!
    11b8:	f244 3680 	movw	r6, #17280	; 0x4380
    11bc:	e0be      	b.n	133c <alloc_unkommutativ>

000011be <Dictionary_243>:
    11be:	000011d8 	ldrdeq	r1, [r0], -r8
    11c2:	6f020262 	svcvs	0x00020262
    11c6:	cf010072 	svcgt	0x00010072

000011c8 <Code_243>:
    11c8:	cf01      	ldmia	r7!, {r0}
    11ca:	4306      	orrs	r6, r0
    11cc:	4770      	bx	lr

000011ce <or_allocator>:
    11ce:	f847 6d04 	str.w	r6, [r7, #-4]!
    11d2:	f244 3600 	movw	r6, #17152	; 0x4300
    11d6:	e0b5      	b.n	1344 <alloc_kommutativ>

000011d8 <Dictionary_246>:
    11d8:	000011f2 	strdeq	r1, [r0], -r2
    11dc:	78030262 	stmdavc	r3, {r1, r5, r6, r9}
    11e0:	cf01726f 	svcgt	0x0001726f

000011e2 <Code_246>:
    11e2:	cf01      	ldmia	r7!, {r0}
    11e4:	4046      	eors	r6, r0
    11e6:	4770      	bx	lr

000011e8 <xor_allocator>:
    11e8:	f847 6d04 	str.w	r6, [r7, #-4]!
    11ec:	f244 0640 	movw	r6, #16448	; 0x4040
    11f0:	e0a8      	b.n	1344 <alloc_kommutativ>

000011f2 <Dictionary_249>:
    11f2:	0000120a 	andeq	r1, r0, sl, lsl #4
    11f6:	2a010262 	bcs	41b86 <BIT18+0x1b86>

000011fa <Code_249>:
    11fa:	cf01      	ldmia	r7!, {r0}
    11fc:	4346      	muls	r6, r0
    11fe:	4770      	bx	lr
    1200:	f847 6d04 	str.w	r6, [r7, #-4]!
    1204:	f244 3640 	movw	r6, #17216	; 0x4340
    1208:	e09c      	b.n	1344 <alloc_kommutativ>

0000120a <Dictionary_252>:
    120a:	0000123e 	andeq	r1, r0, lr, lsr r2
    120e:	63030261 	movwvs	r0, #12897	; 0x3261
    1212:	fab67a6c 	blx	fed9fbca <BIT31+0x7ed9fbca>

00001214 <Code_252>:
    1214:	fab6 f686 	clz	r6, r6
    1218:	4770      	bx	lr
    121a:	b500      	push	{lr}
    121c:	f7ff f92e 	bl	47c <expect_one_element>
    1220:	f847 6d04 	str.w	r6, [r7, #-4]!
    1224:	4e6f      	ldr	r6, [pc, #444]	; (13e4 <m3_opcodieren+0x26>)
    1226:	f7ff f965 	bl	4f4 <expect_tos_in_register>
    122a:	430e      	orrs	r6, r1
    122c:	ea56 4601 	orrs.w	r6, r6, r1, lsl #16
    1230:	f7ff f9ae 	bl	590 <tos_registerwechsel>
    1234:	ea56 2603 	orrs.w	r6, r6, r3, lsl #8
    1238:	f002 f933 	bl	34a2 <Code_826>
    123c:	bd00      	pop	{pc}

0000123e <Dictionary_254>:
    123e:	0000124e 	andeq	r1, r0, lr, asr #4
    1242:	72030061 	andvc	r0, r3, #97	; 0x61
    1246:	ea5f726f 	b	17ddc0a <BIT24+0x7ddc0a>

00001248 <Code_254>:
    1248:	ea5f 0676 	movs.w	r6, r6, ror #1
    124c:	4770      	bx	lr

0000124e <Dictionary_255>:
    124e:	00001260 	andeq	r1, r0, r0, ror #4
    1252:	72030061 	andvc	r0, r3, #97	; 0x61
    1256:	19b66c6f 	ldmibne	r6!, {r0, r1, r2, r3, r5, r6, sl, fp, sp, lr}

00001258 <Code_255>:
    1258:	19b6      	adds	r6, r6, r6
    125a:	f156 0600 	adcs.w	r6, r6, #0
    125e:	4770      	bx	lr

00001260 <Dictionary_256>:
    1260:	00001298 	muleq	r0, r8, r2
    1264:	61070262 	tstvs	r7, r2, ror #4
    1268:	69687372 	stmdbvs	r8!, {r1, r4, r5, r6, r8, r9, ip, sp, lr}^
    126c:	cf017466 	svcgt	0x00017466

0000126e <Code_256>:
    126e:	cf01      	ldmia	r7!, {r0}
    1270:	4130      	asrs	r0, r6
    1272:	0006      	movs	r6, r0
    1274:	4770      	bx	lr
    1276:	b500      	push	{lr}
    1278:	f847 6d04 	str.w	r6, [r7, #-4]!
    127c:	f244 1600 	movw	r6, #16640	; 0x4100
    1280:	f847 6d04 	str.w	r6, [r7, #-4]!
    1284:	f241 0600 	movw	r6, #4096	; 0x1000
    1288:	f7ff f902 	bl	490 <expect_two_elements>
    128c:	6841      	ldr	r1, [r0, #4]
    128e:	291f      	cmp	r1, #31
    1290:	d92a      	bls.n	12e8 <Code_266+0x18>
    1292:	211f      	movs	r1, #31
    1294:	6041      	str	r1, [r0, #4]
    1296:	e027      	b.n	12e8 <Code_266+0x18>

00001298 <Dictionary_261>:
    1298:	000012c2 	andeq	r1, r0, r2, asr #5
    129c:	72060262 	andvc	r0, r6, #536870918	; 0x20000006
    12a0:	66696873 			; <UNDEFINED> instruction: 0x66696873
    12a4:	cf010074 	svcgt	0x00010074

000012a6 <Code_261>:
    12a6:	cf01      	ldmia	r7!, {r0}
    12a8:	40f0      	lsrs	r0, r6
    12aa:	0006      	movs	r6, r0
    12ac:	4770      	bx	lr
    12ae:	b500      	push	{lr}
    12b0:	f847 6d04 	str.w	r6, [r7, #-4]!
    12b4:	f244 06c0 	movw	r6, #16576	; 0x40c0
    12b8:	f847 6d04 	str.w	r6, [r7, #-4]!
    12bc:	f640 0600 	movw	r6, #2048	; 0x800
    12c0:	e012      	b.n	12e8 <Code_266+0x18>

000012c2 <Dictionary_266>:
    12c2:	00001400 	andeq	r1, r0, r0, lsl #8
    12c6:	6c060262 	sfmvs	f0, 4, [r6], {98}	; 0x62
    12ca:	66696873 			; <UNDEFINED> instruction: 0x66696873
    12ce:	cf010074 	svcgt	0x00010074

000012d0 <Code_266>:
    12d0:	cf01      	ldmia	r7!, {r0}
    12d2:	40b0      	lsls	r0, r6
    12d4:	0006      	movs	r6, r0
    12d6:	4770      	bx	lr
    12d8:	b500      	push	{lr}
    12da:	f847 6d04 	str.w	r6, [r7, #-4]!
    12de:	f244 0680 	movw	r6, #16512	; 0x4080
    12e2:	f847 6d04 	str.w	r6, [r7, #-4]!
    12e6:	2600      	movs	r6, #0
    12e8:	f7ff f8d2 	bl	490 <expect_two_elements>
    12ec:	6801      	ldr	r1, [r0, #0]
    12ee:	2928      	cmp	r1, #40	; 0x28
    12f0:	d003      	beq.n	12fa <Code_266+0x2a>
    12f2:	cf40      	ldmia	r7!, {r6}
    12f4:	f000 f822 	bl	133c <alloc_unkommutativ>
    12f8:	bd00      	pop	{pc}
    12fa:	3704      	adds	r7, #4
    12fc:	6841      	ldr	r1, [r0, #4]
    12fe:	f7fe ffbc 	bl	27a <eliminiere_tos>
    1302:	2900      	cmp	r1, #0
    1304:	d101      	bne.n	130a <Code_266+0x3a>
    1306:	cf40      	ldmia	r7!, {r6}
    1308:	bd00      	pop	{pc}
    130a:	291f      	cmp	r1, #31
    130c:	d80a      	bhi.n	1324 <Code_266+0x54>
    130e:	0189      	lsls	r1, r1, #6
    1310:	430e      	orrs	r6, r1
    1312:	6802      	ldr	r2, [r0, #0]
    1314:	00d2      	lsls	r2, r2, #3
    1316:	4316      	orrs	r6, r2
    1318:	f7ff f93a 	bl	590 <tos_registerwechsel>
    131c:	431e      	orrs	r6, r3
    131e:	f002 f891 	bl	3444 <Code_817>
    1322:	bd00      	pop	{pc}
    1324:	cf40      	ldmia	r7!, {r6}
    1326:	f7ff f933 	bl	590 <tos_registerwechsel>
    132a:	f847 6d04 	str.w	r6, [r7, #-4]!
    132e:	f242 0600 	movw	r6, #8192	; 0x2000
    1332:	021b      	lsls	r3, r3, #8
    1334:	431e      	orrs	r6, r3
    1336:	f002 f885 	bl	3444 <Code_817>
    133a:	bd00      	pop	{pc}

0000133c <alloc_unkommutativ>:
    133c:	b50f      	push	{r0, r1, r2, r3, lr}

0000133e <alloc_unkommutativ_ohneregister>:
    133e:	f7ff f8a7 	bl	490 <expect_two_elements>
    1342:	e00c      	b.n	135e <alloc_logic_gemeinsam>

00001344 <alloc_kommutativ>:
    1344:	b50f      	push	{r0, r1, r2, r3, lr}

00001346 <alloc_kommutativ_ohneregister>:
    1346:	f7ff f8a3 	bl	490 <expect_two_elements>
    134a:	6801      	ldr	r1, [r0, #0]
    134c:	2906      	cmp	r1, #6
    134e:	d101      	bne.n	1354 <alloc_kommutativ_ohneregister+0xe>
    1350:	f7ff fdf1 	bl	f36 <swap_allocator>
    1354:	6882      	ldr	r2, [r0, #8]
    1356:	2a28      	cmp	r2, #40	; 0x28
    1358:	d101      	bne.n	135e <alloc_logic_gemeinsam>
    135a:	f7ff fdec 	bl	f36 <swap_allocator>

0000135e <alloc_logic_gemeinsam>:
    135e:	f7ff f8d3 	bl	508 <expect_nos_in_register>
    1362:	6801      	ldr	r1, [r0, #0]
    1364:	2928      	cmp	r1, #40	; 0x28
    1366:	d11c      	bne.n	13a2 <alloc_logic_gemeinsam+0x44>
    1368:	f847 6d04 	str.w	r6, [r7, #-4]!
    136c:	6846      	ldr	r6, [r0, #4]
    136e:	f001 fc4f 	bl	2c10 <Code_680>
    1372:	cf02      	ldmia	r7!, {r1}
    1374:	2e00      	cmp	r6, #0
    1376:	cf40      	ldmia	r7!, {r6}
    1378:	d013      	beq.n	13a2 <alloc_logic_gemeinsam+0x44>
    137a:	f5b6 4f80 	cmp.w	r6, #16384	; 0x4000
    137e:	d101      	bne.n	1384 <alloc_logic_gemeinsam+0x26>
    1380:	4e19      	ldr	r6, [pc, #100]	; (13e8 <m3_opcodieren+0x2a>)
    1382:	e01c      	b.n	13be <m3_opcodieren>
    1384:	4a19      	ldr	r2, [pc, #100]	; (13ec <m3_opcodieren+0x2e>)
    1386:	4296      	cmp	r6, r2
    1388:	d101      	bne.n	138e <alloc_logic_gemeinsam+0x30>
    138a:	4e19      	ldr	r6, [pc, #100]	; (13f0 <m3_opcodieren+0x32>)
    138c:	e017      	b.n	13be <m3_opcodieren>
    138e:	f5b6 4f86 	cmp.w	r6, #17152	; 0x4300
    1392:	d101      	bne.n	1398 <alloc_logic_gemeinsam+0x3a>
    1394:	4e17      	ldr	r6, [pc, #92]	; (13f4 <m3_opcodieren+0x36>)
    1396:	e012      	b.n	13be <m3_opcodieren>
    1398:	4a17      	ldr	r2, [pc, #92]	; (13f8 <m3_opcodieren+0x3a>)
    139a:	4296      	cmp	r6, r2
    139c:	d101      	bne.n	13a2 <alloc_logic_gemeinsam+0x44>
    139e:	4e17      	ldr	r6, [pc, #92]	; (13fc <m3_opcodieren+0x3e>)
    13a0:	e00d      	b.n	13be <m3_opcodieren>
    13a2:	f7ff f8c5 	bl	530 <nos_change_tos_away_later>
    13a6:	f7ff f8a5 	bl	4f4 <expect_tos_in_register>
    13aa:	00c9      	lsls	r1, r1, #3
    13ac:	6882      	ldr	r2, [r0, #8]
    13ae:	430e      	orrs	r6, r1
    13b0:	4316      	orrs	r6, r2
    13b2:	f002 f847 	bl	3444 <Code_817>
    13b6:	f7fe ff60 	bl	27a <eliminiere_tos>
    13ba:	bd0f      	pop	{r0, r1, r2, r3, pc}

000013bc <m3_opcodieren_anderswo>:
    13bc:	b50f      	push	{r0, r1, r2, r3, lr}

000013be <m3_opcodieren>:
    13be:	430e      	orrs	r6, r1
    13c0:	6881      	ldr	r1, [r0, #8]
    13c2:	ea56 4601 	orrs.w	r6, r6, r1, lsl #16
    13c6:	f7fe ff58 	bl	27a <eliminiere_tos>
    13ca:	f7fe ff56 	bl	27a <eliminiere_tos>
    13ce:	f7fe ff4a 	bl	266 <befreie_tos>
    13d2:	f7ff f81f 	bl	414 <get_free_register>
    13d6:	6003      	str	r3, [r0, #0]
    13d8:	ea56 2603 	orrs.w	r6, r6, r3, lsl #8
    13dc:	f002 f861 	bl	34a2 <Code_826>
    13e0:	bd0f      	pop	{r0, r1, r2, r3, pc}
    13e2:	f0800000 			; <UNDEFINED> instruction: 0xf0800000
    13e6:	0000fab0 			; <UNDEFINED> instruction: 0x0000fab0
    13ea:	4040f010 	submi	pc, r0, r0, lsl r0	; <UNPREDICTABLE>
    13ee:	00000000 	andeq	r0, r0, r0
    13f2:	0000f090 	muleq	r0, r0, r0
    13f6:	4380f050 	orrmi	pc, r0, #80	; 0x50
    13fa:	00000000 	andeq	r0, r0, r0
    13fe:	1424f030 	strtne	pc, [r4], #-48	; 0x30

00001400 <Dictionary_279>:
    1400:	00001424 	andeq	r1, r0, r4, lsr #8
    1404:	30020261 	andcc	r0, r2, r1, ror #4
    1408:	3e01003d 	mcrcc	0, 0, r0, cr1, cr13, {1}

0000140a <Code_279>:
    140a:	3e01      	subs	r6, #1
    140c:	41b6      	sbcs	r6, r6
    140e:	4770      	bx	lr

00001410 <allocator_equal_zero>:
    1410:	b500      	push	{lr}
    1412:	f000 f8fd 	bl	1610 <prepare_single_compare>
    1416:	f000 ff2e 	bl	2276 <allocator_one_minus>
    141a:	f7fe ff2e 	bl	27a <eliminiere_tos>
    141e:	4979      	ldr	r1, [pc, #484]	; (1604 <Code_333+0x18>)
    1420:	6281      	str	r1, [r0, #40]	; 0x28
    1422:	bd00      	pop	{pc}

00001424 <Dictionary_280>:
    1424:	0000144a 	andeq	r1, r0, sl, asr #8
    1428:	30030261 	andcc	r0, r3, r1, ror #4
    142c:	3e013e3c 	mcrcc	14, 0, r3, cr1, cr12, {1}

0000142e <Code_280>:
    142e:	3e01      	subs	r6, #1
    1430:	41b6      	sbcs	r6, r6
    1432:	43f6      	mvns	r6, r6
    1434:	4770      	bx	lr

00001436 <allocator_unequal_zero>:
    1436:	b500      	push	{lr}
    1438:	f000 f8ea 	bl	1610 <prepare_single_compare>
    143c:	f000 ff1b 	bl	2276 <allocator_one_minus>
    1440:	f7fe ff1b 	bl	27a <eliminiere_tos>
    1444:	4970      	ldr	r1, [pc, #448]	; (1608 <Code_333+0x1c>)
    1446:	6281      	str	r1, [r0, #40]	; 0x28
    1448:	bd00      	pop	{pc}

0000144a <Dictionary_281>:
    144a:	00001470 	andeq	r1, r0, r0, ror r4
    144e:	30020261 	andcc	r0, r2, r1, ror #4
    1452:	17f6003c 			; <UNDEFINED> instruction: 0x17f6003c

00001454 <Code_281>:
    1454:	17f6      	asrs	r6, r6, #31
    1456:	4770      	bx	lr

00001458 <alloc_nullkleiner>:
    1458:	b500      	push	{lr}
    145a:	f000 f8d9 	bl	1610 <prepare_single_compare>
    145e:	f847 6d04 	str.w	r6, [r7, #-4]!
    1462:	f241 76c0 	movw	r6, #6080	; 0x17c0
    1466:	f000 ff49 	bl	22fc <smalltworegisters>
    146a:	4968      	ldr	r1, [pc, #416]	; (160c <Code_333+0x20>)
    146c:	6281      	str	r1, [r0, #40]	; 0x28
    146e:	bd00      	pop	{pc}

00001470 <Dictionary_284>:
    1470:	00001486 	andeq	r1, r0, r6, lsl #9
    1474:	74040060 	strvc	r0, [r4], #-96	; 0x60
    1478:	00657572 	rsbeq	r7, r5, r2, ror r5

0000147c <Code_284>:
    147c:	f847 6d04 	str.w	r6, [r7, #-4]!

00001480 <generate_true>:
    1480:	2600      	movs	r6, #0
    1482:	43f6      	mvns	r6, r6
    1484:	4770      	bx	lr

00001486 <Dictionary_286>:
    1486:	0000149a 	muleq	r0, sl, r4
    148a:	66050060 	strvs	r0, [r5], -r0, rrx
    148e:	65736c61 	ldrbvs	r6, [r3, #-3169]!	; 0xc61

00001492 <Code_286>:
    1492:	f847 6d04 	str.w	r6, [r7, #-4]!
    1496:	2600      	movs	r6, #0
    1498:	4770      	bx	lr

0000149a <Dictionary_288>:
    149a:	000014c0 	andeq	r1, r0, r0, asr #9
    149e:	3e020242 	cdpcc	2, 0, cr0, cr2, cr2, {2}
    14a2:	cf01003d 	svcgt	0x0001003d

000014a4 <Code_288>:
    14a4:	cf01      	ldmia	r7!, {r0}
    14a6:	42b0      	cmp	r0, r6
    14a8:	daea      	bge.n	1480 <generate_true>
    14aa:	2600      	movs	r6, #0
    14ac:	4770      	bx	lr
    14ae:	f847 6d04 	str.w	r6, [r7, #-4]!
    14b2:	f64d 3600 	movw	r6, #56064	; 0xdb00
    14b6:	f847 6d04 	str.w	r6, [r7, #-4]!
    14ba:	f64d 2600 	movw	r6, #55808	; 0xda00
    14be:	e0b3      	b.n	1628 <prepare_compare>

000014c0 <Dictionary_293>:
    14c0:	000014e6 	andeq	r1, r0, r6, ror #9
    14c4:	3c020242 	sfmcc	f0, 4, [r2], {66}	; 0x42
    14c8:	cf01003d 	svcgt	0x0001003d

000014ca <Code_293>:
    14ca:	cf01      	ldmia	r7!, {r0}
    14cc:	42b0      	cmp	r0, r6
    14ce:	ddd7      	ble.n	1480 <generate_true>
    14d0:	2600      	movs	r6, #0
    14d2:	4770      	bx	lr
    14d4:	f847 6d04 	str.w	r6, [r7, #-4]!
    14d8:	f64d 4600 	movw	r6, #56320	; 0xdc00
    14dc:	f847 6d04 	str.w	r6, [r7, #-4]!
    14e0:	f64d 5600 	movw	r6, #56576	; 0xdd00
    14e4:	e0a0      	b.n	1628 <prepare_compare>

000014e6 <Dictionary_298>:
    14e6:	0000150a 	andeq	r1, r0, sl, lsl #10
    14ea:	3c010242 	sfmcc	f0, 4, [r1], {66}	; 0x42

000014ee <Code_298>:
    14ee:	cf01      	ldmia	r7!, {r0}
    14f0:	42b0      	cmp	r0, r6
    14f2:	dbc5      	blt.n	1480 <generate_true>
    14f4:	2600      	movs	r6, #0
    14f6:	4770      	bx	lr
    14f8:	f847 6d04 	str.w	r6, [r7, #-4]!
    14fc:	f64d 2600 	movw	r6, #55808	; 0xda00
    1500:	f847 6d04 	str.w	r6, [r7, #-4]!
    1504:	f64d 3600 	movw	r6, #56064	; 0xdb00
    1508:	e08e      	b.n	1628 <prepare_compare>

0000150a <Dictionary_303>:
    150a:	0000152e 	andeq	r1, r0, lr, lsr #10
    150e:	3e010242 	cdpcc	2, 0, cr0, cr1, cr2, {2}

00001512 <Code_303>:
    1512:	cf01      	ldmia	r7!, {r0}
    1514:	42b0      	cmp	r0, r6
    1516:	dcb3      	bgt.n	1480 <generate_true>
    1518:	2600      	movs	r6, #0
    151a:	4770      	bx	lr
    151c:	f847 6d04 	str.w	r6, [r7, #-4]!
    1520:	f64d 5600 	movw	r6, #56576	; 0xdd00
    1524:	f847 6d04 	str.w	r6, [r7, #-4]!
    1528:	f64d 4600 	movw	r6, #56320	; 0xdc00
    152c:	e07c      	b.n	1628 <prepare_compare>

0000152e <Dictionary_308>:
    152e:	00001554 	andeq	r1, r0, r4, asr r5
    1532:	75030262 	strvc	r0, [r3, #-610]	; 0x262
    1536:	cf013d3e 	svcgt	0x00013d3e

00001538 <Code_308>:
    1538:	cf01      	ldmia	r7!, {r0}
    153a:	1b86      	subs	r6, r0, r6
    153c:	41b6      	sbcs	r6, r6
    153e:	43f6      	mvns	r6, r6
    1540:	4770      	bx	lr
    1542:	f847 6d04 	str.w	r6, [r7, #-4]!
    1546:	f24d 3600 	movw	r6, #54016	; 0xd300
    154a:	f847 6d04 	str.w	r6, [r7, #-4]!
    154e:	f24d 2600 	movw	r6, #53760	; 0xd200
    1552:	e069      	b.n	1628 <prepare_compare>

00001554 <Dictionary_313>:
    1554:	0000157a 	andeq	r1, r0, sl, ror r5
    1558:	75030262 	strvc	r0, [r3, #-610]	; 0x262
    155c:	cf013d3c 	svcgt	0x00013d3c

0000155e <Code_313>:
    155e:	cf01      	ldmia	r7!, {r0}
    1560:	1a36      	subs	r6, r6, r0
    1562:	41b6      	sbcs	r6, r6
    1564:	43f6      	mvns	r6, r6
    1566:	4770      	bx	lr
    1568:	f847 6d04 	str.w	r6, [r7, #-4]!
    156c:	f64d 0600 	movw	r6, #55296	; 0xd800
    1570:	f847 6d04 	str.w	r6, [r7, #-4]!
    1574:	f64d 1600 	movw	r6, #55552	; 0xd900
    1578:	e056      	b.n	1628 <prepare_compare>

0000157a <Dictionary_318>:
    157a:	0000159e 	muleq	r0, lr, r5
    157e:	75020262 	strvc	r0, [r2, #-610]	; 0x262
    1582:	cf01003c 	svcgt	0x0001003c

00001584 <Code_318>:
    1584:	cf01      	ldmia	r7!, {r0}
    1586:	1b86      	subs	r6, r0, r6
    1588:	41b6      	sbcs	r6, r6
    158a:	4770      	bx	lr
    158c:	f847 6d04 	str.w	r6, [r7, #-4]!
    1590:	f24d 2600 	movw	r6, #53760	; 0xd200
    1594:	f847 6d04 	str.w	r6, [r7, #-4]!
    1598:	f24d 3600 	movw	r6, #54016	; 0xd300
    159c:	e044      	b.n	1628 <prepare_compare>

0000159e <Dictionary_323>:
    159e:	000015c2 	andeq	r1, r0, r2, asr #11
    15a2:	75020262 	strvc	r0, [r2, #-610]	; 0x262
    15a6:	cf01003e 	svcgt	0x0001003e

000015a8 <Code_323>:
    15a8:	cf01      	ldmia	r7!, {r0}
    15aa:	1a36      	subs	r6, r6, r0
    15ac:	41b6      	sbcs	r6, r6
    15ae:	4770      	bx	lr
    15b0:	f847 6d04 	str.w	r6, [r7, #-4]!
    15b4:	f64d 1600 	movw	r6, #55552	; 0xd900
    15b8:	f847 6d04 	str.w	r6, [r7, #-4]!
    15bc:	f64d 0600 	movw	r6, #55296	; 0xd800
    15c0:	e032      	b.n	1628 <prepare_compare>

000015c2 <Dictionary_328>:
    15c2:	000015e4 	andeq	r1, r0, r4, ror #11
    15c6:	3c020262 	sfmcc	f0, 4, [r2], {98}	; 0x62
    15ca:	cf01003e 	svcgt	0x0001003e

000015cc <Code_328>:
    15cc:	cf01      	ldmia	r7!, {r0}
    15ce:	1b81      	subs	r1, r0, r6
    15d0:	1a36      	subs	r6, r6, r0
    15d2:	430e      	orrs	r6, r1
    15d4:	4770      	bx	lr
    15d6:	f847 6d04 	str.w	r6, [r7, #-4]!
    15da:	f24d 0600 	movw	r6, #53248	; 0xd000
    15de:	f847 6d04 	str.w	r6, [r7, #-4]!
    15e2:	e021      	b.n	1628 <prepare_compare>

000015e4 <Dictionary_333>:
    15e4:	0000174c 	andeq	r1, r0, ip, asr #14
    15e8:	3d010262 	sfmcc	f0, 4, [r1, #-392]	; 0xfffffe78

000015ec <Code_333>:
    15ec:	cf01      	ldmia	r7!, {r0}
    15ee:	1a36      	subs	r6, r6, r0
    15f0:	3e01      	subs	r6, #1
    15f2:	41b6      	sbcs	r6, r6
    15f4:	4770      	bx	lr
    15f6:	f847 6d04 	str.w	r6, [r7, #-4]!
    15fa:	f24d 1600 	movw	r6, #53504	; 0xd100
    15fe:	f847 6d04 	str.w	r6, [r7, #-4]!
    1602:	e011      	b.n	1628 <prepare_compare>
    1604:	0000d200 	andeq	sp, r0, r0, lsl #4
    1608:	0000d300 	andeq	sp, r0, r0, lsl #6
    160c:	0000d500 	andeq	sp, r0, r0, lsl #10

00001610 <prepare_single_compare>:
    1610:	b500      	push	{lr}
    1612:	f7fe ff33 	bl	47c <expect_one_element>
    1616:	f7fe fe67 	bl	2e8 <tidyup_register_allocator_5os>
    161a:	f7fe fe6a 	bl	2f2 <tidyup_register_allocator_4os>
    161e:	f7fe fe6d 	bl	2fc <tidyup_register_allocator_3os>
    1622:	f7fe ff71 	bl	508 <expect_nos_in_register>
    1626:	bd00      	pop	{pc}

00001628 <prepare_compare>:
    1628:	b500      	push	{lr}
    162a:	f7fe ff31 	bl	490 <expect_two_elements>
    162e:	f7fe fe5b 	bl	2e8 <tidyup_register_allocator_5os>
    1632:	f7fe fe5e 	bl	2f2 <tidyup_register_allocator_4os>
    1636:	f7fe ff71 	bl	51c <expect_3os_in_register>
    163a:	6882      	ldr	r2, [r0, #8]
    163c:	2a28      	cmp	r2, #40	; 0x28
    163e:	d104      	bne.n	164a <prepare_compare+0x22>
    1640:	f7ff fc79 	bl	f36 <swap_allocator>
    1644:	6839      	ldr	r1, [r7, #0]
    1646:	603e      	str	r6, [r7, #0]
    1648:	460e      	mov	r6, r1
    164a:	cf40      	ldmia	r7!, {r6}
    164c:	6801      	ldr	r1, [r0, #0]
    164e:	2928      	cmp	r1, #40	; 0x28
    1650:	d11d      	bne.n	168e <prepare_compare+0x66>
    1652:	6841      	ldr	r1, [r0, #4]
    1654:	29ff      	cmp	r1, #255	; 0xff
    1656:	d807      	bhi.n	1668 <prepare_compare+0x40>
    1658:	f847 6d04 	str.w	r6, [r7, #-4]!
    165c:	f642 0600 	movw	r6, #10240	; 0x2800
    1660:	430e      	orrs	r6, r1
    1662:	6881      	ldr	r1, [r0, #8]
    1664:	0209      	lsls	r1, r1, #8
    1666:	e01a      	b.n	169e <prepare_compare+0x76>
    1668:	f847 6d04 	str.w	r6, [r7, #-4]!
    166c:	6846      	ldr	r6, [r0, #4]
    166e:	f001 facf 	bl	2c10 <Code_680>
    1672:	cf02      	ldmia	r7!, {r1}
    1674:	2e00      	cmp	r6, #0
    1676:	cf40      	ldmia	r7!, {r6}
    1678:	d009      	beq.n	168e <prepare_compare+0x66>
    167a:	f847 6d04 	str.w	r6, [r7, #-4]!
    167e:	4e69      	ldr	r6, [pc, #420]	; (1824 <alloc_minmax+0x5e>)
    1680:	430e      	orrs	r6, r1
    1682:	6881      	ldr	r1, [r0, #8]
    1684:	ea56 4601 	orrs.w	r6, r6, r1, lsl #16
    1688:	f001 ff0b 	bl	34a2 <Code_826>
    168c:	e00a      	b.n	16a4 <prepare_compare+0x7c>
    168e:	f7fe ff31 	bl	4f4 <expect_tos_in_register>
    1692:	f847 6d04 	str.w	r6, [r7, #-4]!
    1696:	f244 2680 	movw	r6, #17024	; 0x4280
    169a:	00c9      	lsls	r1, r1, #3
    169c:	4316      	orrs	r6, r2
    169e:	430e      	orrs	r6, r1
    16a0:	f001 fed0 	bl	3444 <Code_817>
    16a4:	f7fe fde9 	bl	27a <eliminiere_tos>
    16a8:	f7fe fde7 	bl	27a <eliminiere_tos>
    16ac:	6286      	str	r6, [r0, #40]	; 0x28
    16ae:	cf40      	ldmia	r7!, {r6}
    16b0:	bd00      	pop	{pc}

000016b2 <sprungschreiber_flaggenerator>:
    16b2:	b50f      	push	{r0, r1, r2, r3, lr}
    16b4:	485c      	ldr	r0, [pc, #368]	; (1828 <alloc_minmax+0x62>)
    16b6:	6a81      	ldr	r1, [r0, #40]	; 0x28
    16b8:	2900      	cmp	r1, #0
    16ba:	d033      	beq.n	1724 <sprungschreiber_flaggenerator+0x72>
    16bc:	f847 6d04 	str.w	r6, [r7, #-4]!
    16c0:	6a86      	ldr	r6, [r0, #40]	; 0x28
    16c2:	2100      	movs	r1, #0
    16c4:	6281      	str	r1, [r0, #40]	; 0x28
    16c6:	0a31      	lsrs	r1, r6, #8
    16c8:	29d5      	cmp	r1, #213	; 0xd5
    16ca:	d101      	bne.n	16d0 <sprungschreiber_flaggenerator+0x1e>
    16cc:	cf40      	ldmia	r7!, {r6}
    16ce:	bd0f      	pop	{r0, r1, r2, r3, pc}
    16d0:	f7fe fdc9 	bl	266 <befreie_tos>
    16d4:	f7fe fe9e 	bl	414 <get_free_register>
    16d8:	6003      	str	r3, [r0, #0]
    16da:	29d2      	cmp	r1, #210	; 0xd2
    16dc:	d103      	bne.n	16e6 <sprungschreiber_flaggenerator+0x34>
    16de:	4e53      	ldr	r6, [pc, #332]	; (182c <alloc_minmax+0x66>)
    16e0:	f000 fe0c 	bl	22fc <smalltworegisters>
    16e4:	bd0f      	pop	{r0, r1, r2, r3, pc}
    16e6:	29d3      	cmp	r1, #211	; 0xd3
    16e8:	d105      	bne.n	16f6 <sprungschreiber_flaggenerator+0x44>
    16ea:	4e50      	ldr	r6, [pc, #320]	; (182c <alloc_minmax+0x66>)
    16ec:	f000 fe06 	bl	22fc <smalltworegisters>
    16f0:	f000 fe17 	bl	2322 <allocator_not>
    16f4:	bd0f      	pop	{r0, r1, r2, r3, pc}
    16f6:	3602      	adds	r6, #2
    16f8:	f001 fea4 	bl	3444 <Code_817>
    16fc:	f847 6d04 	str.w	r6, [r7, #-4]!
    1700:	f242 0600 	movw	r6, #8192	; 0x2000
    1704:	f000 f80f 	bl	1726 <smallplusminus>
    1708:	f000 fe0b 	bl	2322 <allocator_not>
    170c:	f847 6d04 	str.w	r6, [r7, #-4]!
    1710:	f24e 0600 	movw	r6, #57344	; 0xe000
    1714:	f001 fe96 	bl	3444 <Code_817>
    1718:	f847 6d04 	str.w	r6, [r7, #-4]!
    171c:	f242 0600 	movw	r6, #8192	; 0x2000
    1720:	f000 f801 	bl	1726 <smallplusminus>
    1724:	bd0f      	pop	{r0, r1, r2, r3, pc}

00001726 <smallplusminus>:
    1726:	b500      	push	{lr}
    1728:	f7fe fea8 	bl	47c <expect_one_element>
    172c:	f7fe ff17 	bl	55e <make_tos_changeable>
    1730:	6801      	ldr	r1, [r0, #0]
    1732:	0209      	lsls	r1, r1, #8
    1734:	430e      	orrs	r6, r1
    1736:	f001 fe85 	bl	3444 <Code_817>
    173a:	bd00      	pop	{pc}

0000173c <eliminiere_tos_wenn_bmi>:
    173c:	b500      	push	{lr}
    173e:	6a81      	ldr	r1, [r0, #40]	; 0x28
    1740:	0a09      	lsrs	r1, r1, #8
    1742:	29d5      	cmp	r1, #213	; 0xd5
    1744:	d101      	bne.n	174a <eliminiere_tos_wenn_bmi+0xe>
    1746:	f7fe fd98 	bl	27a <eliminiere_tos>
    174a:	bd00      	pop	{pc}

0000174c <Dictionary_356>:
    174c:	0000176a 	andeq	r1, r0, sl, ror #14
    1750:	6d030262 	sfmvs	f0, 4, [r3, #-392]	; 0xfffffe78
    1754:	cf016e69 	svcgt	0x00016e69

00001756 <Code_356>:
    1756:	cf01      	ldmia	r7!, {r0}
    1758:	42b0      	cmp	r0, r6
    175a:	dc00      	bgt.n	175e <Code_356+0x8>
    175c:	0006      	movs	r6, r0
    175e:	4770      	bx	lr
    1760:	f847 6d04 	str.w	r6, [r7, #-4]!
    1764:	f64d 3600 	movw	r6, #56064	; 0xdb00
    1768:	e02d      	b.n	17c6 <alloc_minmax>

0000176a <Dictionary_359>:
    176a:	00001788 	andeq	r1, r0, r8, lsl #15
    176e:	6d030262 	sfmvs	f0, 4, [r3, #-392]	; 0xfffffe78
    1772:	cf017861 	svcgt	0x00017861

00001774 <Code_359>:
    1774:	cf01      	ldmia	r7!, {r0}
    1776:	42b0      	cmp	r0, r6
    1778:	db00      	blt.n	177c <Code_359+0x8>
    177a:	0006      	movs	r6, r0
    177c:	4770      	bx	lr
    177e:	f847 6d04 	str.w	r6, [r7, #-4]!
    1782:	f64d 4600 	movw	r6, #56320	; 0xdc00
    1786:	e01e      	b.n	17c6 <alloc_minmax>

00001788 <Dictionary_362>:
    1788:	000017a8 	andeq	r1, r0, r8, lsr #15
    178c:	75040262 	strvc	r0, [r4, #-610]	; 0x262
    1790:	0078616d 	rsbseq	r6, r8, sp, ror #2

00001794 <Code_362>:
    1794:	cf01      	ldmia	r7!, {r0}
    1796:	42b0      	cmp	r0, r6
    1798:	d300      	bcc.n	179c <Code_362+0x8>
    179a:	0006      	movs	r6, r0
    179c:	4770      	bx	lr
    179e:	f847 6d04 	str.w	r6, [r7, #-4]!
    17a2:	f64d 0600 	movw	r6, #55296	; 0xd800
    17a6:	e00e      	b.n	17c6 <alloc_minmax>

000017a8 <Dictionary_365>:
    17a8:	00001830 	andeq	r1, r0, r0, lsr r8
    17ac:	75040262 	strvc	r0, [r4, #-610]	; 0x262
    17b0:	006e696d 	rsbeq	r6, lr, sp, ror #18

000017b4 <Code_365>:
    17b4:	cf01      	ldmia	r7!, {r0}
    17b6:	42b0      	cmp	r0, r6
    17b8:	d800      	bhi.n	17bc <Code_365+0x8>
    17ba:	0006      	movs	r6, r0
    17bc:	4770      	bx	lr
    17be:	f847 6d04 	str.w	r6, [r7, #-4]!
    17c2:	f24d 3600 	movw	r6, #54016	; 0xd300

000017c6 <alloc_minmax>:
    17c6:	b500      	push	{lr}
    17c8:	f7fe fe62 	bl	490 <expect_two_elements>
    17cc:	6801      	ldr	r1, [r0, #0]
    17ce:	6882      	ldr	r2, [r0, #8]
    17d0:	4291      	cmp	r1, r2
    17d2:	d103      	bne.n	17dc <alloc_minmax+0x16>
    17d4:	cf40      	ldmia	r7!, {r6}
    17d6:	f7fe fd56 	bl	286 <eliminiere_nos>
    17da:	bd00      	pop	{pc}
    17dc:	2a06      	cmp	r2, #6
    17de:	d101      	bne.n	17e4 <alloc_minmax+0x1e>
    17e0:	f7ff fba9 	bl	f36 <swap_allocator>
    17e4:	6801      	ldr	r1, [r0, #0]
    17e6:	2928      	cmp	r1, #40	; 0x28
    17e8:	d101      	bne.n	17ee <alloc_minmax+0x28>
    17ea:	f7ff fba4 	bl	f36 <swap_allocator>
    17ee:	f7fe feb6 	bl	55e <make_tos_changeable>
    17f2:	f7fe fe89 	bl	508 <expect_nos_in_register>
    17f6:	00c9      	lsls	r1, r1, #3
    17f8:	6802      	ldr	r2, [r0, #0]
    17fa:	f847 6d04 	str.w	r6, [r7, #-4]!
    17fe:	f244 2680 	movw	r6, #17024	; 0x4280
    1802:	430e      	orrs	r6, r1
    1804:	4316      	orrs	r6, r2
    1806:	f001 fe1d 	bl	3444 <Code_817>
    180a:	f001 fe1b 	bl	3444 <Code_817>
    180e:	f847 6d04 	str.w	r6, [r7, #-4]!
    1812:	f244 6600 	movw	r6, #17920	; 0x4600
    1816:	430e      	orrs	r6, r1
    1818:	4316      	orrs	r6, r2
    181a:	f001 fe13 	bl	3444 <Code_817>
    181e:	f7fe fd32 	bl	286 <eliminiere_nos>
    1822:	bd00      	pop	{pc}
    1824:	f1b00f00 			; <UNDEFINED> instruction: 0xf1b00f00
    1828:	20000028 	andcs	r0, r0, r8, lsr #32
    182c:	00004180 	andeq	r4, r0, r0, lsl #3

00001830 <Dictionary_373>:
    1830:	0000186e 	andeq	r1, r0, lr, ror #16
    1834:	6d040000 	stcvs	0, cr0, [r4]
    1838:	0065766f 	rsbeq	r7, r5, pc, ror #12

0000183c <Code_373>:
    183c:	b507      	push	{r0, r1, r2, lr}
    183e:	0031      	movs	r1, r6
    1840:	cf40      	ldmia	r7!, {r6}
    1842:	0032      	movs	r2, r6
    1844:	cf40      	ldmia	r7!, {r6}
    1846:	2900      	cmp	r1, #0
    1848:	d00f      	beq.n	186a <Code_373+0x2e>
    184a:	42b2      	cmp	r2, r6
    184c:	d00d      	beq.n	186a <Code_373+0x2e>
    184e:	d306      	bcc.n	185e <Code_373+0x22>
    1850:	3e01      	subs	r6, #1
    1852:	3a01      	subs	r2, #1
    1854:	5c70      	ldrb	r0, [r6, r1]
    1856:	5450      	strb	r0, [r2, r1]
    1858:	3901      	subs	r1, #1
    185a:	d1fb      	bne.n	1854 <Code_373+0x18>
    185c:	e005      	b.n	186a <Code_373+0x2e>
    185e:	7830      	ldrb	r0, [r6, #0]
    1860:	7010      	strb	r0, [r2, #0]
    1862:	3601      	adds	r6, #1
    1864:	3201      	adds	r2, #1
    1866:	3901      	subs	r1, #1
    1868:	d1f9      	bne.n	185e <Code_373+0x22>
    186a:	cf40      	ldmia	r7!, {r6}
    186c:	bd07      	pop	{r0, r1, r2, pc}

0000186e <Dictionary_377>:
    186e:	00001890 	muleq	r0, r0, r8
    1872:	66040000 	strvs	r0, [r4], -r0
    1876:	006c6c69 	rsbeq	r6, ip, r9, ror #24

0000187a <Code_377>:
    187a:	0030      	movs	r0, r6
    187c:	cf40      	ldmia	r7!, {r6}
    187e:	0031      	movs	r1, r6
    1880:	cf40      	ldmia	r7!, {r6}
    1882:	2900      	cmp	r1, #0
    1884:	d002      	beq.n	188c <Code_377+0x12>
    1886:	3901      	subs	r1, #1
    1888:	5470      	strb	r0, [r6, r1]
    188a:	d1fc      	bne.n	1886 <Code_377+0xc>
    188c:	cf40      	ldmia	r7!, {r6}
    188e:	4770      	bx	lr

00001890 <Dictionary_381>:
    1890:	000018d2 	ldrdeq	r1, [r0], -r2
    1894:	40010220 	andmi	r0, r1, r0, lsr #4

00001898 <Code_381>:
    1898:	6836      	ldr	r6, [r6, #0]
    189a:	4770      	bx	lr

0000189c <allocator_4fetch>:
    189c:	f847 6d04 	str.w	r6, [r7, #-4]!
    18a0:	f646 0600 	movw	r6, #26624	; 0x6800

000018a4 <allocator_4fetch_anderer_opcode>:
    18a4:	b500      	push	{lr}
    18a6:	f7fe fde9 	bl	47c <expect_one_element>
    18aa:	6803      	ldr	r3, [r0, #0]
    18ac:	2b28      	cmp	r3, #40	; 0x28
    18ae:	d108      	bne.n	18c2 <allocator_4fetch_anderer_opcode+0x1e>
    18b0:	6843      	ldr	r3, [r0, #4]
    18b2:	217c      	movs	r1, #124	; 0x7c
    18b4:	4019      	ands	r1, r3
    18b6:	0109      	lsls	r1, r1, #4
    18b8:	430e      	orrs	r6, r1
    18ba:	217c      	movs	r1, #124	; 0x7c
    18bc:	438b      	bics	r3, r1
    18be:	f7fe fd66 	bl	38e <generiere_adresskonstante>
    18c2:	00db      	lsls	r3, r3, #3
    18c4:	431e      	orrs	r6, r3
    18c6:	f7fe fe63 	bl	590 <tos_registerwechsel>
    18ca:	431e      	orrs	r6, r3
    18cc:	f001 fdba 	bl	3444 <Code_817>
    18d0:	bd00      	pop	{pc}

000018d2 <Dictionary_384>:
    18d2:	0000192a 	andeq	r1, r0, sl, lsr #18
    18d6:	21010220 	tstcs	r1, r0, lsr #4

000018da <Code_384>:
    18da:	cf03      	ldmia	r7!, {r0, r1}
    18dc:	6030      	str	r0, [r6, #0]
    18de:	000e      	movs	r6, r1
    18e0:	4770      	bx	lr

000018e2 <allocator_4store>:
    18e2:	f847 6d04 	str.w	r6, [r7, #-4]!
    18e6:	f246 0600 	movw	r6, #24576	; 0x6000

000018ea <allocator_4store_anderer_opcode>:
    18ea:	b500      	push	{lr}
    18ec:	f7fe fdd0 	bl	490 <expect_two_elements>
    18f0:	6803      	ldr	r3, [r0, #0]
    18f2:	2b28      	cmp	r3, #40	; 0x28
    18f4:	d109      	bne.n	190a <allocator_4store_anderer_opcode+0x20>
    18f6:	6843      	ldr	r3, [r0, #4]
    18f8:	217c      	movs	r1, #124	; 0x7c
    18fa:	4019      	ands	r1, r3
    18fc:	0109      	lsls	r1, r1, #4
    18fe:	430e      	orrs	r6, r1
    1900:	217c      	movs	r1, #124	; 0x7c
    1902:	438b      	bics	r3, r1
    1904:	f7fe fd43 	bl	38e <generiere_adresskonstante>
    1908:	6003      	str	r3, [r0, #0]
    190a:	00db      	lsls	r3, r3, #3
    190c:	431e      	orrs	r6, r3
    190e:	6883      	ldr	r3, [r0, #8]
    1910:	2b28      	cmp	r3, #40	; 0x28
    1912:	d102      	bne.n	191a <allocator_4store_anderer_opcode+0x30>
    1914:	68c3      	ldr	r3, [r0, #12]
    1916:	f7fe fd2e 	bl	376 <generiere_konstante>
    191a:	431e      	orrs	r6, r3
    191c:	f001 fd92 	bl	3444 <Code_817>
    1920:	f7fe fcab 	bl	27a <eliminiere_tos>
    1924:	f7fe fca9 	bl	27a <eliminiere_tos>
    1928:	bd00      	pop	{pc}

0000192a <Dictionary_387>:
    192a:	00001960 	andeq	r1, r0, r0, ror #18
    192e:	2b020220 	blcs	821b6 <BIT19+0x21b6>
    1932:	cf030021 	svcgt	0x00030021

00001934 <Code_387>:
    1934:	cf03      	ldmia	r7!, {r0, r1}
    1936:	6832      	ldr	r2, [r6, #0]
    1938:	1812      	adds	r2, r2, r0
    193a:	6032      	str	r2, [r6, #0]
    193c:	000e      	movs	r6, r1
    193e:	4770      	bx	lr
    1940:	b500      	push	{lr}
    1942:	f7fe fda5 	bl	490 <expect_two_elements>
    1946:	f7ff fac1 	bl	ecc <dup_allocator>
    194a:	f7ff ffa7 	bl	189c <allocator_4fetch>
    194e:	f7ff fb47 	bl	fe0 <rot_allocator>
    1952:	f000 fc22 	bl	219a <plus_allocator>
    1956:	f7ff faee 	bl	f36 <swap_allocator>
    195a:	f7ff ffc2 	bl	18e2 <allocator_4store>
    195e:	bd00      	pop	{pc}

00001960 <Dictionary_388>:
    1960:	000019a4 	andeq	r1, r0, r4, lsr #19
    1964:	68020220 	stmdavs	r2, {r5, r9}
    1968:	88360040 	ldmdahi	r6!, {r6}

0000196a <Code_388>:
    196a:	8836      	ldrh	r6, [r6, #0]
    196c:	4770      	bx	lr

0000196e <allocator_2fetch>:
    196e:	b500      	push	{lr}
    1970:	f7fe fd84 	bl	47c <expect_one_element>
    1974:	f847 6d04 	str.w	r6, [r7, #-4]!
    1978:	f648 0600 	movw	r6, #34816	; 0x8800
    197c:	6803      	ldr	r3, [r0, #0]
    197e:	2b28      	cmp	r3, #40	; 0x28
    1980:	d108      	bne.n	1994 <allocator_2fetch+0x26>
    1982:	6843      	ldr	r3, [r0, #4]
    1984:	213e      	movs	r1, #62	; 0x3e
    1986:	4019      	ands	r1, r3
    1988:	0149      	lsls	r1, r1, #5
    198a:	430e      	orrs	r6, r1
    198c:	213e      	movs	r1, #62	; 0x3e
    198e:	438b      	bics	r3, r1
    1990:	f7fe fcfd 	bl	38e <generiere_adresskonstante>
    1994:	00db      	lsls	r3, r3, #3
    1996:	431e      	orrs	r6, r3
    1998:	f7fe fdfa 	bl	590 <tos_registerwechsel>
    199c:	431e      	orrs	r6, r3
    199e:	f001 fd51 	bl	3444 <Code_817>
    19a2:	bd00      	pop	{pc}

000019a4 <Dictionary_391>:
    19a4:	000019fe 	strdeq	r1, [r0], -lr
    19a8:	68020220 	stmdavs	r2, {r5, r9}
    19ac:	cf030021 	svcgt	0x00030021

000019ae <Code_391>:
    19ae:	cf03      	ldmia	r7!, {r0, r1}
    19b0:	8030      	strh	r0, [r6, #0]
    19b2:	000e      	movs	r6, r1
    19b4:	4770      	bx	lr

000019b6 <allocator_2store>:
    19b6:	b500      	push	{lr}
    19b8:	f7fe fd6a 	bl	490 <expect_two_elements>
    19bc:	f847 6d04 	str.w	r6, [r7, #-4]!
    19c0:	f248 0600 	movw	r6, #32768	; 0x8000
    19c4:	6803      	ldr	r3, [r0, #0]
    19c6:	2b28      	cmp	r3, #40	; 0x28
    19c8:	d109      	bne.n	19de <allocator_2store+0x28>
    19ca:	6843      	ldr	r3, [r0, #4]
    19cc:	213e      	movs	r1, #62	; 0x3e
    19ce:	4019      	ands	r1, r3
    19d0:	0149      	lsls	r1, r1, #5
    19d2:	430e      	orrs	r6, r1
    19d4:	213e      	movs	r1, #62	; 0x3e
    19d6:	438b      	bics	r3, r1
    19d8:	f7fe fcd9 	bl	38e <generiere_adresskonstante>
    19dc:	6003      	str	r3, [r0, #0]
    19de:	00db      	lsls	r3, r3, #3
    19e0:	431e      	orrs	r6, r3
    19e2:	6883      	ldr	r3, [r0, #8]
    19e4:	2b28      	cmp	r3, #40	; 0x28
    19e6:	d102      	bne.n	19ee <allocator_2store+0x38>
    19e8:	68c3      	ldr	r3, [r0, #12]
    19ea:	f7fe fcc4 	bl	376 <generiere_konstante>
    19ee:	431e      	orrs	r6, r3
    19f0:	f001 fd28 	bl	3444 <Code_817>
    19f4:	f7fe fc41 	bl	27a <eliminiere_tos>
    19f8:	f7fe fc3f 	bl	27a <eliminiere_tos>
    19fc:	bd00      	pop	{pc}

000019fe <Dictionary_394>:
    19fe:	00001a34 	andeq	r1, r0, r4, lsr sl
    1a02:	68030220 	stmdavs	r3, {r5, r9}
    1a06:	cf03212b 	svcgt	0x0003212b

00001a08 <Code_394>:
    1a08:	cf03      	ldmia	r7!, {r0, r1}
    1a0a:	8832      	ldrh	r2, [r6, #0]
    1a0c:	1812      	adds	r2, r2, r0
    1a0e:	8032      	strh	r2, [r6, #0]
    1a10:	000e      	movs	r6, r1
    1a12:	4770      	bx	lr
    1a14:	b500      	push	{lr}
    1a16:	f7fe fd3b 	bl	490 <expect_two_elements>
    1a1a:	f7ff fa57 	bl	ecc <dup_allocator>
    1a1e:	f7ff ffa6 	bl	196e <allocator_2fetch>
    1a22:	f7ff fadd 	bl	fe0 <rot_allocator>
    1a26:	f000 fbb8 	bl	219a <plus_allocator>
    1a2a:	f7ff fa84 	bl	f36 <swap_allocator>
    1a2e:	f7ff ffc2 	bl	19b6 <allocator_2store>
    1a32:	bd00      	pop	{pc}

00001a34 <Dictionary_395>:
    1a34:	00001a78 	andeq	r1, r0, r8, ror sl
    1a38:	63020220 	movwvs	r0, #8736	; 0x2220
    1a3c:	78360040 	ldmdavc	r6!, {r6}

00001a3e <Code_395>:
    1a3e:	7836      	ldrb	r6, [r6, #0]
    1a40:	4770      	bx	lr

00001a42 <allocator_1fetch>:
    1a42:	b500      	push	{lr}
    1a44:	f7fe fd1a 	bl	47c <expect_one_element>
    1a48:	f847 6d04 	str.w	r6, [r7, #-4]!
    1a4c:	f647 0600 	movw	r6, #30720	; 0x7800
    1a50:	6803      	ldr	r3, [r0, #0]
    1a52:	2b28      	cmp	r3, #40	; 0x28
    1a54:	d108      	bne.n	1a68 <allocator_1fetch+0x26>
    1a56:	6843      	ldr	r3, [r0, #4]
    1a58:	211f      	movs	r1, #31
    1a5a:	4019      	ands	r1, r3
    1a5c:	0189      	lsls	r1, r1, #6
    1a5e:	430e      	orrs	r6, r1
    1a60:	211f      	movs	r1, #31
    1a62:	438b      	bics	r3, r1
    1a64:	f7fe fc93 	bl	38e <generiere_adresskonstante>
    1a68:	00db      	lsls	r3, r3, #3
    1a6a:	431e      	orrs	r6, r3
    1a6c:	f7fe fd90 	bl	590 <tos_registerwechsel>
    1a70:	431e      	orrs	r6, r3
    1a72:	f001 fce7 	bl	3444 <Code_817>
    1a76:	bd00      	pop	{pc}

00001a78 <Dictionary_398>:
    1a78:	00001ad2 	ldrdeq	r1, [r0], -r2
    1a7c:	63020220 	movwvs	r0, #8736	; 0x2220
    1a80:	cf030021 	svcgt	0x00030021

00001a82 <Code_398>:
    1a82:	cf03      	ldmia	r7!, {r0, r1}
    1a84:	7030      	strb	r0, [r6, #0]
    1a86:	000e      	movs	r6, r1
    1a88:	4770      	bx	lr

00001a8a <allocator_1store>:
    1a8a:	b500      	push	{lr}
    1a8c:	f7fe fd00 	bl	490 <expect_two_elements>
    1a90:	f847 6d04 	str.w	r6, [r7, #-4]!
    1a94:	f247 0600 	movw	r6, #28672	; 0x7000
    1a98:	6803      	ldr	r3, [r0, #0]
    1a9a:	2b28      	cmp	r3, #40	; 0x28
    1a9c:	d109      	bne.n	1ab2 <allocator_1store+0x28>
    1a9e:	6843      	ldr	r3, [r0, #4]
    1aa0:	211f      	movs	r1, #31
    1aa2:	4019      	ands	r1, r3
    1aa4:	0189      	lsls	r1, r1, #6
    1aa6:	430e      	orrs	r6, r1
    1aa8:	211f      	movs	r1, #31
    1aaa:	438b      	bics	r3, r1
    1aac:	f7fe fc6f 	bl	38e <generiere_adresskonstante>
    1ab0:	6003      	str	r3, [r0, #0]
    1ab2:	00db      	lsls	r3, r3, #3
    1ab4:	431e      	orrs	r6, r3
    1ab6:	6883      	ldr	r3, [r0, #8]
    1ab8:	2b28      	cmp	r3, #40	; 0x28
    1aba:	d102      	bne.n	1ac2 <allocator_1store+0x38>
    1abc:	68c3      	ldr	r3, [r0, #12]
    1abe:	f7fe fc5a 	bl	376 <generiere_konstante>
    1ac2:	431e      	orrs	r6, r3
    1ac4:	f001 fcbe 	bl	3444 <Code_817>
    1ac8:	f7fe fbd7 	bl	27a <eliminiere_tos>
    1acc:	f7fe fbd5 	bl	27a <eliminiere_tos>
    1ad0:	bd00      	pop	{pc}

00001ad2 <Dictionary_401>:
    1ad2:	00001b08 	andeq	r1, r0, r8, lsl #22
    1ad6:	63030220 	movwvs	r0, #12832	; 0x3220
    1ada:	cf03212b 	svcgt	0x0003212b

00001adc <Code_401>:
    1adc:	cf03      	ldmia	r7!, {r0, r1}
    1ade:	7832      	ldrb	r2, [r6, #0]
    1ae0:	1812      	adds	r2, r2, r0
    1ae2:	7032      	strb	r2, [r6, #0]
    1ae4:	000e      	movs	r6, r1
    1ae6:	4770      	bx	lr
    1ae8:	b500      	push	{lr}
    1aea:	f7fe fcd1 	bl	490 <expect_two_elements>
    1aee:	f7ff f9ed 	bl	ecc <dup_allocator>
    1af2:	f7ff ffa6 	bl	1a42 <allocator_1fetch>
    1af6:	f7ff fa73 	bl	fe0 <rot_allocator>
    1afa:	f000 fb4e 	bl	219a <plus_allocator>
    1afe:	f7ff fa1a 	bl	f36 <swap_allocator>
    1b02:	f7ff ffc2 	bl	1a8a <allocator_1store>
    1b06:	bd00      	pop	{pc}

00001b08 <Dictionary_402>:
    1b08:	00001b48 	andeq	r1, r0, r8, asr #22
    1b0c:	62040220 	andvs	r0, r4, #2
    1b10:	00217369 	eoreq	r7, r1, r9, ror #6

00001b14 <Code_402>:
    1b14:	cf03      	ldmia	r7!, {r0, r1}
    1b16:	6832      	ldr	r2, [r6, #0]
    1b18:	4302      	orrs	r2, r0
    1b1a:	6032      	str	r2, [r6, #0]
    1b1c:	000e      	movs	r6, r1
    1b1e:	4770      	bx	lr
    1b20:	b500      	push	{lr}
    1b22:	f7fe fcb5 	bl	490 <expect_two_elements>
    1b26:	f7ff f9d1 	bl	ecc <dup_allocator>
    1b2a:	f7ff feb7 	bl	189c <allocator_4fetch>
    1b2e:	f7ff fa57 	bl	fe0 <rot_allocator>
    1b32:	f847 6d04 	str.w	r6, [r7, #-4]!
    1b36:	f244 3600 	movw	r6, #17152	; 0x4300
    1b3a:	f7ff fc03 	bl	1344 <alloc_kommutativ>
    1b3e:	f7ff f9fa 	bl	f36 <swap_allocator>
    1b42:	f7ff fece 	bl	18e2 <allocator_4store>
    1b46:	bd00      	pop	{pc}

00001b48 <Dictionary_405>:
    1b48:	00001b88 	andeq	r1, r0, r8, lsl #23
    1b4c:	62040220 	andvs	r0, r4, #2
    1b50:	00216369 	eoreq	r6, r1, r9, ror #6

00001b54 <Code_405>:
    1b54:	cf03      	ldmia	r7!, {r0, r1}
    1b56:	6832      	ldr	r2, [r6, #0]
    1b58:	4382      	bics	r2, r0
    1b5a:	6032      	str	r2, [r6, #0]
    1b5c:	000e      	movs	r6, r1
    1b5e:	4770      	bx	lr
    1b60:	b500      	push	{lr}
    1b62:	f7fe fc95 	bl	490 <expect_two_elements>
    1b66:	f7ff f9b1 	bl	ecc <dup_allocator>
    1b6a:	f7ff fe97 	bl	189c <allocator_4fetch>
    1b6e:	f7ff fa37 	bl	fe0 <rot_allocator>
    1b72:	f847 6d04 	str.w	r6, [r7, #-4]!
    1b76:	f244 3680 	movw	r6, #17280	; 0x4380
    1b7a:	f7ff fbdf 	bl	133c <alloc_unkommutativ>
    1b7e:	f7ff f9da 	bl	f36 <swap_allocator>
    1b82:	f7ff feae 	bl	18e2 <allocator_4store>
    1b86:	bd00      	pop	{pc}

00001b88 <Dictionary_408>:
    1b88:	00001bc8 	andeq	r1, r0, r8, asr #23
    1b8c:	78040220 	stmdavc	r4, {r5, r9}
    1b90:	0021726f 	eoreq	r7, r1, pc, ror #4

00001b94 <Code_408>:
    1b94:	cf03      	ldmia	r7!, {r0, r1}
    1b96:	6832      	ldr	r2, [r6, #0]
    1b98:	4042      	eors	r2, r0
    1b9a:	6032      	str	r2, [r6, #0]
    1b9c:	000e      	movs	r6, r1
    1b9e:	4770      	bx	lr
    1ba0:	b500      	push	{lr}
    1ba2:	f7fe fc75 	bl	490 <expect_two_elements>
    1ba6:	f7ff f991 	bl	ecc <dup_allocator>
    1baa:	f7ff fe77 	bl	189c <allocator_4fetch>
    1bae:	f7ff fa17 	bl	fe0 <rot_allocator>
    1bb2:	f847 6d04 	str.w	r6, [r7, #-4]!
    1bb6:	f244 0640 	movw	r6, #16448	; 0x4040
    1bba:	f7ff fbc3 	bl	1344 <alloc_kommutativ>
    1bbe:	f7ff f9ba 	bl	f36 <swap_allocator>
    1bc2:	f7ff fe8e 	bl	18e2 <allocator_4store>
    1bc6:	bd00      	pop	{pc}

00001bc8 <Dictionary_411>:
    1bc8:	00001bfe 	strdeq	r1, [r0], -lr
    1bcc:	62040220 	andvs	r0, r4, #2
    1bd0:	00407469 	subeq	r7, r0, r9, ror #8

00001bd4 <Code_411>:
    1bd4:	cf01      	ldmia	r7!, {r0}
    1bd6:	6836      	ldr	r6, [r6, #0]
    1bd8:	4006      	ands	r6, r0
    1bda:	bf18      	it	ne
    1bdc:	f04f 36ff 	movne.w	r6, #4294967295
    1be0:	4770      	bx	lr
    1be2:	b500      	push	{lr}
    1be4:	f7fe fc54 	bl	490 <expect_two_elements>
    1be8:	f7ff fe58 	bl	189c <allocator_4fetch>
    1bec:	f847 6d04 	str.w	r6, [r7, #-4]!
    1bf0:	f244 0600 	movw	r6, #16384	; 0x4000
    1bf4:	f7ff fba6 	bl	1344 <alloc_kommutativ>
    1bf8:	f7ff fc1d 	bl	1436 <allocator_unequal_zero>
    1bfc:	bd00      	pop	{pc}

00001bfe <Dictionary_414>:
    1bfe:	00001c3e 	andeq	r1, r0, lr, lsr ip
    1c02:	68050220 	stmdavs	r5, {r5, r9}
    1c06:	21736962 	cmncs	r3, r2, ror #18

00001c0a <Code_414>:
    1c0a:	cf03      	ldmia	r7!, {r0, r1}
    1c0c:	8832      	ldrh	r2, [r6, #0]
    1c0e:	4302      	orrs	r2, r0
    1c10:	8032      	strh	r2, [r6, #0]
    1c12:	000e      	movs	r6, r1
    1c14:	4770      	bx	lr
    1c16:	b500      	push	{lr}
    1c18:	f7fe fc3a 	bl	490 <expect_two_elements>
    1c1c:	f7ff f956 	bl	ecc <dup_allocator>
    1c20:	f7ff fea5 	bl	196e <allocator_2fetch>
    1c24:	f7ff f9dc 	bl	fe0 <rot_allocator>
    1c28:	f847 6d04 	str.w	r6, [r7, #-4]!
    1c2c:	f244 3600 	movw	r6, #17152	; 0x4300
    1c30:	f7ff fb88 	bl	1344 <alloc_kommutativ>
    1c34:	f7ff f97f 	bl	f36 <swap_allocator>
    1c38:	f7ff febd 	bl	19b6 <allocator_2store>
    1c3c:	bd00      	pop	{pc}

00001c3e <Dictionary_417>:
    1c3e:	00001c7e 	andeq	r1, r0, lr, ror ip
    1c42:	68050220 	stmdavs	r5, {r5, r9}
    1c46:	21636962 	cmncs	r3, r2, ror #18

00001c4a <Code_417>:
    1c4a:	cf03      	ldmia	r7!, {r0, r1}
    1c4c:	8832      	ldrh	r2, [r6, #0]
    1c4e:	4382      	bics	r2, r0
    1c50:	8032      	strh	r2, [r6, #0]
    1c52:	000e      	movs	r6, r1
    1c54:	4770      	bx	lr
    1c56:	b500      	push	{lr}
    1c58:	f7fe fc1a 	bl	490 <expect_two_elements>
    1c5c:	f7ff f936 	bl	ecc <dup_allocator>
    1c60:	f7ff fe85 	bl	196e <allocator_2fetch>
    1c64:	f7ff f9bc 	bl	fe0 <rot_allocator>
    1c68:	f847 6d04 	str.w	r6, [r7, #-4]!
    1c6c:	f244 3680 	movw	r6, #17280	; 0x4380
    1c70:	f7ff fb64 	bl	133c <alloc_unkommutativ>
    1c74:	f7ff f95f 	bl	f36 <swap_allocator>
    1c78:	f7ff fe9d 	bl	19b6 <allocator_2store>
    1c7c:	bd00      	pop	{pc}

00001c7e <Dictionary_420>:
    1c7e:	00001cbe 			; <UNDEFINED> instruction: 0x00001cbe
    1c82:	68050220 	stmdavs	r5, {r5, r9}
    1c86:	21726f78 	cmncs	r2, r8, ror pc

00001c8a <Code_420>:
    1c8a:	cf03      	ldmia	r7!, {r0, r1}
    1c8c:	8832      	ldrh	r2, [r6, #0]
    1c8e:	4042      	eors	r2, r0
    1c90:	8032      	strh	r2, [r6, #0]
    1c92:	000e      	movs	r6, r1
    1c94:	4770      	bx	lr
    1c96:	b500      	push	{lr}
    1c98:	f7fe fbfa 	bl	490 <expect_two_elements>
    1c9c:	f7ff f916 	bl	ecc <dup_allocator>
    1ca0:	f7ff fe65 	bl	196e <allocator_2fetch>
    1ca4:	f7ff f99c 	bl	fe0 <rot_allocator>
    1ca8:	f847 6d04 	str.w	r6, [r7, #-4]!
    1cac:	f244 0640 	movw	r6, #16448	; 0x4040
    1cb0:	f7ff fb48 	bl	1344 <alloc_kommutativ>
    1cb4:	f7ff f93f 	bl	f36 <swap_allocator>
    1cb8:	f7ff fe7d 	bl	19b6 <allocator_2store>
    1cbc:	bd00      	pop	{pc}

00001cbe <Dictionary_423>:
    1cbe:	00001cf4 	strdeq	r1, [r0], -r4
    1cc2:	68050220 	stmdavs	r5, {r5, r9}
    1cc6:	40746962 	rsbsmi	r6, r4, r2, ror #18

00001cca <Code_423>:
    1cca:	cf01      	ldmia	r7!, {r0}
    1ccc:	8836      	ldrh	r6, [r6, #0]
    1cce:	4006      	ands	r6, r0
    1cd0:	bf18      	it	ne
    1cd2:	f04f 36ff 	movne.w	r6, #4294967295
    1cd6:	4770      	bx	lr
    1cd8:	b500      	push	{lr}
    1cda:	f7fe fbd9 	bl	490 <expect_two_elements>
    1cde:	f7ff fe46 	bl	196e <allocator_2fetch>
    1ce2:	f847 6d04 	str.w	r6, [r7, #-4]!
    1ce6:	f244 0600 	movw	r6, #16384	; 0x4000
    1cea:	f7ff fb2b 	bl	1344 <alloc_kommutativ>
    1cee:	f7ff fba2 	bl	1436 <allocator_unequal_zero>
    1cf2:	bd00      	pop	{pc}

00001cf4 <Dictionary_426>:
    1cf4:	00001d34 	andeq	r1, r0, r4, lsr sp
    1cf8:	63050220 	movwvs	r0, #21024	; 0x5220
    1cfc:	21736962 	cmncs	r3, r2, ror #18

00001d00 <Code_426>:
    1d00:	cf03      	ldmia	r7!, {r0, r1}
    1d02:	7832      	ldrb	r2, [r6, #0]
    1d04:	4302      	orrs	r2, r0
    1d06:	7032      	strb	r2, [r6, #0]
    1d08:	000e      	movs	r6, r1
    1d0a:	4770      	bx	lr
    1d0c:	b500      	push	{lr}
    1d0e:	f7fe fbbf 	bl	490 <expect_two_elements>
    1d12:	f7ff f8db 	bl	ecc <dup_allocator>
    1d16:	f7ff fe94 	bl	1a42 <allocator_1fetch>
    1d1a:	f7ff f961 	bl	fe0 <rot_allocator>
    1d1e:	f847 6d04 	str.w	r6, [r7, #-4]!
    1d22:	f244 3600 	movw	r6, #17152	; 0x4300
    1d26:	f7ff fb0d 	bl	1344 <alloc_kommutativ>
    1d2a:	f7ff f904 	bl	f36 <swap_allocator>
    1d2e:	f7ff feac 	bl	1a8a <allocator_1store>
    1d32:	bd00      	pop	{pc}

00001d34 <Dictionary_429>:
    1d34:	00001d74 	andeq	r1, r0, r4, ror sp
    1d38:	63050220 	movwvs	r0, #21024	; 0x5220
    1d3c:	21636962 	cmncs	r3, r2, ror #18

00001d40 <Code_429>:
    1d40:	cf03      	ldmia	r7!, {r0, r1}
    1d42:	7832      	ldrb	r2, [r6, #0]
    1d44:	4382      	bics	r2, r0
    1d46:	7032      	strb	r2, [r6, #0]
    1d48:	000e      	movs	r6, r1
    1d4a:	4770      	bx	lr
    1d4c:	b500      	push	{lr}
    1d4e:	f7fe fb9f 	bl	490 <expect_two_elements>
    1d52:	f7ff f8bb 	bl	ecc <dup_allocator>
    1d56:	f7ff fe74 	bl	1a42 <allocator_1fetch>
    1d5a:	f7ff f941 	bl	fe0 <rot_allocator>
    1d5e:	f847 6d04 	str.w	r6, [r7, #-4]!
    1d62:	f244 3680 	movw	r6, #17280	; 0x4380
    1d66:	f7ff fae9 	bl	133c <alloc_unkommutativ>
    1d6a:	f7ff f8e4 	bl	f36 <swap_allocator>
    1d6e:	f7ff fe8c 	bl	1a8a <allocator_1store>
    1d72:	bd00      	pop	{pc}

00001d74 <Dictionary_432>:
    1d74:	00001db4 			; <UNDEFINED> instruction: 0x00001db4
    1d78:	63050220 	movwvs	r0, #21024	; 0x5220
    1d7c:	21726f78 	cmncs	r2, r8, ror pc

00001d80 <Code_432>:
    1d80:	cf03      	ldmia	r7!, {r0, r1}
    1d82:	7832      	ldrb	r2, [r6, #0]
    1d84:	4042      	eors	r2, r0
    1d86:	7032      	strb	r2, [r6, #0]
    1d88:	000e      	movs	r6, r1
    1d8a:	4770      	bx	lr
    1d8c:	b500      	push	{lr}
    1d8e:	f7fe fb7f 	bl	490 <expect_two_elements>
    1d92:	f7ff f89b 	bl	ecc <dup_allocator>
    1d96:	f7ff fe54 	bl	1a42 <allocator_1fetch>
    1d9a:	f7ff f921 	bl	fe0 <rot_allocator>
    1d9e:	f847 6d04 	str.w	r6, [r7, #-4]!
    1da2:	f244 0640 	movw	r6, #16448	; 0x4040
    1da6:	f7ff facd 	bl	1344 <alloc_kommutativ>
    1daa:	f7ff f8c4 	bl	f36 <swap_allocator>
    1dae:	f7ff fe6c 	bl	1a8a <allocator_1store>
    1db2:	bd00      	pop	{pc}

00001db4 <Dictionary_435>:
    1db4:	00001e12 	andeq	r1, r0, r2, lsl lr
    1db8:	63050220 	movwvs	r0, #21024	; 0x5220
    1dbc:	40746962 	rsbsmi	r6, r4, r2, ror #18

00001dc0 <Code_435>:
    1dc0:	cf01      	ldmia	r7!, {r0}
    1dc2:	7836      	ldrb	r6, [r6, #0]
    1dc4:	4006      	ands	r6, r0
    1dc6:	bf18      	it	ne
    1dc8:	f04f 36ff 	movne.w	r6, #4294967295
    1dcc:	4770      	bx	lr
    1dce:	b500      	push	{lr}
    1dd0:	f7fe fb5e 	bl	490 <expect_two_elements>
    1dd4:	f7ff fe35 	bl	1a42 <allocator_1fetch>
    1dd8:	f847 6d04 	str.w	r6, [r7, #-4]!
    1ddc:	f244 0600 	movw	r6, #16384	; 0x4000
    1de0:	f7ff fab0 	bl	1344 <alloc_kommutativ>
    1de4:	f7ff fb27 	bl	1436 <allocator_unequal_zero>
    1de8:	bd00      	pop	{pc}

00001dea <hexflashstore_fehler>:
    1dea:	f000 fdcc 	bl	2986 <dotgaensefuesschen>
    1dee:	616c461e 	cmnvs	ip, lr, lsl r6
    1df2:	63206873 	teqvs	r0, #7536640	; 0x730000
    1df6:	6f6e6e61 	svcvs	0x006e6e61
    1dfa:	65622074 	strbvs	r2, [r2, #-116]!	; 0x74
    1dfe:	69727720 	ldmdbvs	r2!, {r5, r8, r9, sl, ip, sp, lr}^
    1e02:	6e657474 	mcrvs	4, 3, r7, cr5, cr4, {3}
    1e06:	69777420 	ldmdbvs	r7!, {r5, sl, ip, sp, lr}^
    1e0a:	000a6563 	andeq	r6, sl, r3, ror #10
    1e0e:	f002 bd86 	b.w	491e <Code_1230>

00001e12 <Dictionary_439>:
    1e12:	00001edc 	ldrdeq	r1, [r0], -ip
    1e16:	31080000 	mrscc	r0, (UNDEF: 8)
    1e1a:	616c6636 	cmnvs	ip, r6, lsr r6
    1e1e:	00216873 	eoreq	r6, r1, r3, ror r8

00001e22 <Code_439>:
    1e22:	b53f      	push	{r0, r1, r2, r3, r4, r5, lr}
    1e24:	200f      	movs	r0, #15
    1e26:	4030      	ands	r0, r6
    1e28:	d015      	beq.n	1e56 <Code_439+0x34>
    1e2a:	f000 fdac 	bl	2986 <dotgaensefuesschen>
    1e2e:	66363122 	ldrtvs	r3, [r6], -r2, lsr #2
    1e32:	6873616c 	ldmdavs	r3!, {r2, r3, r5, r6, r8, sp, lr}^
    1e36:	656e2021 	strbvs	r2, [lr, #-33]!	; 0x21
    1e3a:	20736465 	rsbscs	r6, r3, r5, ror #8
    1e3e:	612d3631 	teqvs	sp, r1, lsr r6
    1e42:	6e67696c 	cdpvs	9, 6, cr6, cr7, cr12, {3}
    1e46:	61206465 	teqvs	r0, r5, ror #8
    1e4a:	65726464 	ldrbvs	r6, [r2, #-1124]!	; 0x464
    1e4e:	000a7373 	andeq	r7, sl, r3, ror r3
    1e52:	f002 bd64 	b.w	491e <Code_1230>
    1e56:	6830      	ldr	r0, [r6, #0]
    1e58:	3001      	adds	r0, #1
    1e5a:	d1c6      	bne.n	1dea <hexflashstore_fehler>
    1e5c:	6870      	ldr	r0, [r6, #4]
    1e5e:	3001      	adds	r0, #1
    1e60:	d1c3      	bne.n	1dea <hexflashstore_fehler>
    1e62:	68b0      	ldr	r0, [r6, #8]
    1e64:	3001      	adds	r0, #1
    1e66:	d1c0      	bne.n	1dea <hexflashstore_fehler>
    1e68:	68f0      	ldr	r0, [r6, #12]
    1e6a:	3001      	adds	r0, #1
    1e6c:	d1bd      	bne.n	1dea <hexflashstore_fehler>
    1e6e:	4a11      	ldr	r2, [pc, #68]	; (1eb4 <Code_439+0x92>)
    1e70:	18b6      	adds	r6, r6, r2
    1e72:	4a11      	ldr	r2, [pc, #68]	; (1eb8 <Code_439+0x96>)
    1e74:	4b11      	ldr	r3, [pc, #68]	; (1ebc <Code_439+0x9a>)
    1e76:	6013      	str	r3, [r2, #0]
    1e78:	4b11      	ldr	r3, [pc, #68]	; (1ec0 <Code_439+0x9e>)
    1e7a:	6013      	str	r3, [r2, #0]
    1e7c:	4a11      	ldr	r2, [pc, #68]	; (1ec4 <Code_439+0xa2>)
    1e7e:	2301      	movs	r3, #1
    1e80:	6013      	str	r3, [r2, #0]
    1e82:	cf08      	ldmia	r7!, {r3}
    1e84:	cf04      	ldmia	r7!, {r2}
    1e86:	cf02      	ldmia	r7!, {r1}
    1e88:	cf01      	ldmia	r7!, {r0}
    1e8a:	c601      	stmia	r6!, {r0}
    1e8c:	c602      	stmia	r6!, {r1}
    1e8e:	f000 f81d 	bl	1ecc <waitflashopcomplete>
    1e92:	c604      	stmia	r6!, {r2}
    1e94:	c608      	stmia	r6!, {r3}
    1e96:	f000 f819 	bl	1ecc <waitflashopcomplete>
    1e9a:	4a0a      	ldr	r2, [pc, #40]	; (1ec4 <Code_439+0xa2>)
    1e9c:	8810      	ldrh	r0, [r2, #0]
    1e9e:	2101      	movs	r1, #1
    1ea0:	4388      	bics	r0, r1
    1ea2:	8010      	strh	r0, [r2, #0]
    1ea4:	4a07      	ldr	r2, [pc, #28]	; (1ec4 <Code_439+0xa2>)
    1ea6:	6810      	ldr	r0, [r2, #0]
    1ea8:	4907      	ldr	r1, [pc, #28]	; (1ec8 <Code_439+0xa6>)
    1eaa:	4308      	orrs	r0, r1
    1eac:	6010      	str	r0, [r2, #0]
    1eae:	cf40      	ldmia	r7!, {r6}
    1eb0:	bd3f      	pop	{r0, r1, r2, r3, r4, r5, pc}
    1eb2:	00000000 	andeq	r0, r0, r0
    1eb6:	20080800 	andcs	r0, r8, r0, lsl #16
    1eba:	01234002 	teqeq	r3, r2
    1ebe:	89ab4567 	stmibhi	fp!, {r0, r1, r2, r5, r6, r8, sl, lr}
    1ec2:	2014cdef 	andscs	ip, r4, pc, ror #27
    1ec6:	00004002 	andeq	r4, r0, r2
    1eca:	b4038000 	strlt	r8, [r3]

00001ecc <waitflashopcomplete>:
    1ecc:	b403      	push	{r0, r1}
    1ece:	491f      	ldr	r1, [pc, #124]	; (1f4c <Code_442+0x5a>)
    1ed0:	8808      	ldrh	r0, [r1, #0]
    1ed2:	2101      	movs	r1, #1
    1ed4:	4008      	ands	r0, r1
    1ed6:	d1fa      	bne.n	1ece <waitflashopcomplete+0x2>
    1ed8:	bc03      	pop	{r0, r1}
    1eda:	4770      	bx	lr

00001edc <Dictionary_442>:
    1edc:	00001f7c 	andeq	r1, r0, ip, ror pc
    1ee0:	660e0000 	strvs	r0, [lr], -r0
    1ee4:	6873616c 	ldmdavs	r3!, {r2, r3, r5, r6, r8, sp, lr}^
    1ee8:	65676170 	strbvs	r6, [r7, #-368]!	; 0x170
    1eec:	73617265 	cmnvc	r1, #1342177286	; 0x50000006
    1ef0:	b50f0065 	strlt	r0, [pc, #-101]	; 1e93 <Code_439+0x71>

00001ef2 <Code_442>:
    1ef2:	b50f      	push	{r0, r1, r2, r3, lr}
    1ef4:	0030      	movs	r0, r6
    1ef6:	cf40      	ldmia	r7!, {r6}
    1ef8:	4b15      	ldr	r3, [pc, #84]	; (1f50 <Code_442+0x5e>)
    1efa:	4298      	cmp	r0, r3
    1efc:	d325      	bcc.n	1f4a <Code_442+0x58>
    1efe:	4a15      	ldr	r2, [pc, #84]	; (1f54 <Code_442+0x62>)
    1f00:	4b15      	ldr	r3, [pc, #84]	; (1f58 <Code_442+0x66>)
    1f02:	6013      	str	r3, [r2, #0]
    1f04:	4b15      	ldr	r3, [pc, #84]	; (1f5c <Code_442+0x6a>)
    1f06:	6013      	str	r3, [r2, #0]
    1f08:	4a15      	ldr	r2, [pc, #84]	; (1f60 <Code_442+0x6e>)
    1f0a:	2302      	movs	r3, #2
    1f0c:	6013      	str	r3, [r2, #0]
    1f0e:	2108      	movs	r1, #8
    1f10:	40c8      	lsrs	r0, r1
    1f12:	4a14      	ldr	r2, [pc, #80]	; (1f64 <Code_442+0x72>)
    1f14:	4010      	ands	r0, r2
    1f16:	2102      	movs	r1, #2
    1f18:	4308      	orrs	r0, r1
    1f1a:	4a11      	ldr	r2, [pc, #68]	; (1f60 <Code_442+0x6e>)
    1f1c:	8010      	strh	r0, [r2, #0]
    1f1e:	2001      	movs	r0, #1
    1f20:	4a11      	ldr	r2, [pc, #68]	; (1f68 <Code_442+0x76>)
    1f22:	8010      	strh	r0, [r2, #0]
    1f24:	4a09      	ldr	r2, [pc, #36]	; (1f4c <Code_442+0x5a>)
    1f26:	8813      	ldrh	r3, [r2, #0]
    1f28:	2001      	movs	r0, #1
    1f2a:	4018      	ands	r0, r3
    1f2c:	d1fb      	bne.n	1f26 <Code_442+0x34>
    1f2e:	4a0f      	ldr	r2, [pc, #60]	; (1f6c <Code_442+0x7a>)
    1f30:	2380      	movs	r3, #128	; 0x80
    1f32:	7013      	strb	r3, [r2, #0]
    1f34:	4a0e      	ldr	r2, [pc, #56]	; (1f70 <Code_442+0x7e>)
    1f36:	6811      	ldr	r1, [r2, #0]
    1f38:	b402      	push	{r1}
    1f3a:	480e      	ldr	r0, [pc, #56]	; (1f74 <Code_442+0x82>)
    1f3c:	4381      	bics	r1, r0
    1f3e:	6011      	str	r1, [r2, #0]
    1f40:	480d      	ldr	r0, [pc, #52]	; (1f78 <Code_442+0x86>)
    1f42:	4301      	orrs	r1, r0
    1f44:	6011      	str	r1, [r2, #0]
    1f46:	bc02      	pop	{r1}
    1f48:	6011      	str	r1, [r2, #0]
    1f4a:	bd0f      	pop	{r0, r1, r2, r3, pc}
    1f4c:	40022012 	andmi	r2, r2, r2, lsl r0
    1f50:	00005000 	andeq	r5, r0, r0
    1f54:	40022008 	andmi	r2, r2, r8
    1f58:	45670123 	strbmi	r0, [r7, #-291]!	; 0x123
    1f5c:	cdef89ab 	stclgt	9, cr8, [pc, #684]!	; 2210 <minus_allocator+0x40>
    1f60:	40022014 	andmi	r2, r2, r4, lsl r0
    1f64:	00000ff8 	strdeq	r0, [r0], -r8
    1f68:	40022016 	andmi	r2, r2, r6, lsl r0
    1f6c:	40022017 	andmi	r2, r2, r7, lsl r0
    1f70:	40022000 	andmi	r2, r2, r0
    1f74:	00000600 	andeq	r0, r0, r0, lsl #12
    1f78:	00001800 	andeq	r1, r0, r0, lsl #16

00001f7c <Dictionary_444>:
    1f7c:	00001ff8 	strdeq	r1, [r0], -r8
    1f80:	650a0000 	strvs	r0, [sl]
    1f84:	65736172 	ldrbvs	r6, [r3, #-370]!	; 0x172
    1f88:	73616c66 	cmnvc	r1, #26112	; 0x6600
    1f8c:	48210068 	stmdami	r1!, {r3, r5, r6}

00001f8e <Code_444>:
    1f8e:	4821      	ldr	r0, [pc, #132]	; (2014 <Code_452+0x6>)

00001f90 <eraseflash_intern>:
    1f90:	b672      	cpsid	i
    1f92:	4921      	ldr	r1, [pc, #132]	; (2018 <Code_452+0xa>)
    1f94:	4a21      	ldr	r2, [pc, #132]	; (201c <Code_452+0xe>)
    1f96:	8803      	ldrh	r3, [r0, #0]
    1f98:	4293      	cmp	r3, r2
    1f9a:	d01c      	beq.n	1fd6 <eraseflash_intern+0x46>
    1f9c:	f847 6d04 	str.w	r6, [r7, #-4]!
    1fa0:	0006      	movs	r6, r0
    1fa2:	f847 6d04 	str.w	r6, [r7, #-4]!
    1fa6:	f000 fcee 	bl	2986 <dotgaensefuesschen>
    1faa:	61724510 	cmnvs	r2, r0, lsl r5
    1fae:	62206573 	eorvs	r6, r0, #482344960	; 0x1cc00000
    1fb2:	6b636f6c 	blvs	18ddd6a <BIT24+0x8ddd6a>
    1fb6:	20746120 	rsbscs	r6, r4, r0, lsr #2
    1fba:	f0000020 			; <UNDEFINED> instruction: 0xf0000020
    1fbe:	fd56 f000 	ldc2l	0, cr15, [r6]
    1fc2:	fce1 200c 	stc2l	0, cr2, [r1], #48	; 0x30
    1fc6:	6d6f7266 	sfmvs	f7, 2, [pc, #-408]!	; 1e34 <Code_439+0x12>
    1fca:	616c4620 	cmnvs	ip, r0, lsr #12
    1fce:	000a6873 	andeq	r6, sl, r3, ror r8
    1fd2:	f7ff ff8e 	bl	1ef2 <Code_442>
    1fd6:	3002      	adds	r0, #2
    1fd8:	4288      	cmp	r0, r1
    1fda:	d1dc      	bne.n	1f96 <eraseflash_intern+0x6>
    1fdc:	f000 fcd3 	bl	2986 <dotgaensefuesschen>
    1fe0:	6e694612 	mcrvs	6, 3, r4, cr9, cr2, {0}
    1fe4:	65687369 	strbvs	r7, [r8, #-873]!	; 0x369
    1fe8:	52202e64 	eorpl	r2, r0, #1600	; 0x640
    1fec:	74657365 	strbtvc	r7, [r5], #-869	; 0x365
    1ff0:	000a2120 	andeq	r2, sl, r0, lsr #2
    1ff4:	f002 fd2f 	bl	4a56 <Code_1243>

00001ff8 <Dictionary_452>:
    1ff8:	00002020 	andeq	r2, r0, r0, lsr #32
    1ffc:	650e0000 	strvs	r0, [lr]
    2000:	65736172 	ldrbvs	r6, [r3, #-370]!	; 0x172
    2004:	73616c66 	cmnvc	r1, #26112	; 0x6600
    2008:	6f726668 	svcvs	0x00726668
    200c:	0030006d 	eorseq	r0, r0, sp, rrx

0000200e <Code_452>:
    200e:	0030      	movs	r0, r6
    2010:	cf40      	ldmia	r7!, {r6}
    2012:	e7bd      	b.n	1f90 <eraseflash_intern>
    2014:	00005000 	andeq	r5, r0, r0
    2018:	00100000 	andseq	r0, r0, r0
    201c:	0000ffff 	strdeq	pc, [r0], -pc	; <UNPREDICTABLE>

00002020 <Dictionary_454>:
    2020:	00002040 	andeq	r2, r0, r0, asr #32
    2024:	69090000 	stmdbvs	r9, {}	; <UNPREDICTABLE>
    2028:	6674696e 	ldrbtvs	r6, [r4], -lr, ror #18
    202c:	6873616c 	ldmdavs	r3!, {r2, r3, r5, r6, r8, sp, lr}^

00002030 <Code_454>:
    2030:	4853      	ldr	r0, [pc, #332]	; (2180 <flushblock+0x2c>)
    2032:	4954      	ldr	r1, [pc, #336]	; (2184 <flushblock+0x30>)
    2034:	2200      	movs	r2, #0
    2036:	7002      	strb	r2, [r0, #0]
    2038:	3001      	adds	r0, #1
    203a:	3901      	subs	r1, #1
    203c:	d1fb      	bne.n	2036 <Code_454+0x6>
    203e:	4770      	bx	lr

00002040 <Dictionary_455>:
    2040:	00002126 	andeq	r2, r0, r6, lsr #2
    2044:	68070000 	stmdavs	r7, {}	; <UNPREDICTABLE>
    2048:	73616c66 	cmnvc	r1, #26112	; 0x6600
    204c:	b5302168 	ldrlt	r2, [r0, #-360]!	; 0x168

0000204e <Code_455>:
    204e:	b530      	push	{r4, r5, lr}
    2050:	0032      	movs	r2, r6
    2052:	cf40      	ldmia	r7!, {r6}
    2054:	0850      	lsrs	r0, r2, #1
    2056:	d313      	bcc.n	2080 <Code_455+0x32>
    2058:	f000 fc95 	bl	2986 <dotgaensefuesschen>
    205c:	6c66681e 	stclvs	8, cr6, [r6], #-120	; 0xffffff88
    2060:	21687361 	cmncs	r8, r1, ror #6
    2064:	65656e20 	strbvs	r6, [r5, #-3616]!	; 0xe20
    2068:	65207364 	strvs	r7, [r0, #-868]!	; 0x364
    206c:	206e6576 	rsbcs	r6, lr, r6, ror r5
    2070:	72646461 	rsbvc	r6, r4, #1627389952	; 0x61000000
    2074:	65737365 	ldrbvs	r7, [r3, #-869]!	; 0x365
    2078:	000a2e73 	andeq	r2, sl, r3, ror lr
    207c:	f002 bc4f 	b.w	491e <Code_1230>
    2080:	4b41      	ldr	r3, [pc, #260]	; (2188 <flushblock+0x34>)
    2082:	429a      	cmp	r2, r3
    2084:	d210      	bcs.n	20a8 <Code_455+0x5a>
    2086:	f000 fc7e 	bl	2986 <dotgaensefuesschen>
    208a:	6e614319 	mcrvs	3, 3, r4, cr1, cr9, {0}
    208e:	20746f6e 	rsbscs	r6, r4, lr, ror #30
    2092:	74697277 	strbtvc	r7, [r9], #-631	; 0x277
    2096:	6e692065 	cdpvs	0, 6, cr2, cr9, cr5, {3}
    209a:	63206f74 	teqvs	r0, #464	; 0x1d0
    209e:	2065726f 	rsbcs	r7, r5, pc, ror #4
    20a2:	f0020a21 			; <UNDEFINED> instruction: 0xf0020a21
    20a6:	bc3b      	pop	{r0, r1, r3, r4, r5}
    20a8:	0913      	lsrs	r3, r2, #4
    20aa:	4835      	ldr	r0, [pc, #212]	; (2180 <flushblock+0x2c>)
    20ac:	2120      	movs	r1, #32
    20ae:	6804      	ldr	r4, [r0, #0]
    20b0:	0924      	lsrs	r4, r4, #4
    20b2:	429c      	cmp	r4, r3
    20b4:	d026      	beq.n	2104 <hflashstoreemulation_gefunden>
    20b6:	3014      	adds	r0, #20
    20b8:	3901      	subs	r1, #1
    20ba:	d1f8      	bne.n	20ae <Code_455+0x60>
    20bc:	4830      	ldr	r0, [pc, #192]	; (2180 <flushblock+0x2c>)
    20be:	2120      	movs	r1, #32
    20c0:	6804      	ldr	r4, [r0, #0]
    20c2:	2c00      	cmp	r4, #0
    20c4:	d017      	beq.n	20f6 <hflashstoreemulation_leerestelle>
    20c6:	3014      	adds	r0, #20
    20c8:	3901      	subs	r1, #1
    20ca:	d1f9      	bne.n	20c0 <Code_455+0x72>
    20cc:	f000 fc5b 	bl	2986 <dotgaensefuesschen>
    20d0:	6f6f5421 	svcvs	0x006f5421
    20d4:	6e616d20 	cdpvs	13, 6, cr6, cr1, cr0, {1}
    20d8:	63732079 	cmnvs	r3, #121	; 0x79
    20dc:	65747461 	ldrbvs	r7, [r4, #-1121]!	; 0x461
    20e0:	20646572 	rsbcs	r6, r4, r2, ror r5
    20e4:	73616c46 	cmnvc	r1, #17920	; 0x4600
    20e8:	72772068 	rsbsvc	r2, r7, #104	; 0x68
    20ec:	73657469 	cmnvc	r5, #1761607680	; 0x69000000
    20f0:	f0020a2e 			; <UNDEFINED> instruction: 0xf0020a2e
    20f4:	bc14      	pop	{r2, r4}

000020f6 <hflashstoreemulation_leerestelle>:
    20f6:	011b      	lsls	r3, r3, #4
    20f8:	6003      	str	r3, [r0, #0]
    20fa:	3901      	subs	r1, #1
    20fc:	6041      	str	r1, [r0, #4]
    20fe:	6081      	str	r1, [r0, #8]
    2100:	60c1      	str	r1, [r0, #12]
    2102:	6101      	str	r1, [r0, #16]

00002104 <hflashstoreemulation_gefunden>:
    2104:	210f      	movs	r1, #15
    2106:	4011      	ands	r1, r2
    2108:	3104      	adds	r1, #4
    210a:	5246      	strh	r6, [r0, r1]
    210c:	cf40      	ldmia	r7!, {r6}
    210e:	6801      	ldr	r1, [r0, #0]
    2110:	3101      	adds	r1, #1
    2112:	6001      	str	r1, [r0, #0]
    2114:	220f      	movs	r2, #15
    2116:	4011      	ands	r1, r2
    2118:	2908      	cmp	r1, #8
    211a:	d103      	bne.n	2124 <hflashstoreemulation_fertig>
    211c:	f000 f81a 	bl	2154 <flushblock>
    2120:	f7ff fe7f 	bl	1e22 <Code_439>

00002124 <hflashstoreemulation_fertig>:
    2124:	bd30      	pop	{r4, r5, pc}

00002126 <Dictionary_461>:
    2126:	0000218c 	andeq	r2, r0, ip, lsl #3
    212a:	660a0000 	strvs	r0, [sl], -r0
    212e:	6873756c 	ldmdavs	r3!, {r2, r3, r5, r6, r8, sl, ip, sp, lr}^
    2132:	73616c66 	cmnvc	r1, #26112	; 0x6600
    2136:	b5000068 	strlt	r0, [r0, #-104]	; 0x68

00002138 <Code_461>:
    2138:	b500      	push	{lr}
    213a:	4811      	ldr	r0, [pc, #68]	; (2180 <flushblock+0x2c>)
    213c:	2120      	movs	r1, #32
    213e:	6802      	ldr	r2, [r0, #0]
    2140:	2a00      	cmp	r2, #0
    2142:	d003      	beq.n	214c <Code_461+0x14>
    2144:	f000 f806 	bl	2154 <flushblock>
    2148:	f7ff fe6b 	bl	1e22 <Code_439>
    214c:	3014      	adds	r0, #20
    214e:	3901      	subs	r1, #1
    2150:	d1f5      	bne.n	213e <Code_461+0x6>
    2152:	bd00      	pop	{pc}

00002154 <flushblock>:
    2154:	f847 6d04 	str.w	r6, [r7, #-4]!
    2158:	6846      	ldr	r6, [r0, #4]
    215a:	f847 6d04 	str.w	r6, [r7, #-4]!
    215e:	6886      	ldr	r6, [r0, #8]
    2160:	f847 6d04 	str.w	r6, [r7, #-4]!
    2164:	68c6      	ldr	r6, [r0, #12]
    2166:	f847 6d04 	str.w	r6, [r7, #-4]!
    216a:	6906      	ldr	r6, [r0, #16]
    216c:	f847 6d04 	str.w	r6, [r7, #-4]!
    2170:	260f      	movs	r6, #15
    2172:	43f6      	mvns	r6, r6
    2174:	6802      	ldr	r2, [r0, #0]
    2176:	4016      	ands	r6, r2
    2178:	2200      	movs	r2, #0
    217a:	6002      	str	r2, [r0, #0]
    217c:	4770      	bx	lr
    217e:	048c0000 	streq	r0, [ip]
    2182:	02802000 	addeq	r2, r0, #0
    2186:	50000000 	andpl	r0, r0, r0
	...

0000218c <Dictionary_467>:
    218c:	000021c2 	andeq	r2, r0, r2, asr #3
    2190:	2b010262 	blcs	42b20 <BIT18+0x2b20>

00002194 <Code_467>:
    2194:	cf01      	ldmia	r7!, {r0}
    2196:	1836      	adds	r6, r6, r0
    2198:	4770      	bx	lr

0000219a <plus_allocator>:
    219a:	b500      	push	{lr}
    219c:	f7fe f978 	bl	490 <expect_two_elements>
    21a0:	f847 6d04 	str.w	r6, [r7, #-4]!
    21a4:	f243 0600 	movw	r6, #12288	; 0x3000
    21a8:	f847 6d04 	str.w	r6, [r7, #-4]!
    21ac:	4ec8      	ldr	r6, [pc, #800]	; (24d0 <Code_539+0x8>)
    21ae:	f847 6d04 	str.w	r6, [r7, #-4]!
    21b2:	f641 0600 	movw	r6, #6144	; 0x1800
    21b6:	6881      	ldr	r1, [r0, #8]
    21b8:	2928      	cmp	r1, #40	; 0x28
    21ba:	d117      	bne.n	21ec <minus_allocator+0x1c>
    21bc:	f7fe febb 	bl	f36 <swap_allocator>
    21c0:	e014      	b.n	21ec <minus_allocator+0x1c>

000021c2 <Dictionary_473>:
    21c2:	00002268 	andeq	r2, r0, r8, ror #4
    21c6:	2d010262 	sfmcs	f0, 4, [r1, #-392]	; 0xfffffe78

000021ca <Code_473>:
    21ca:	cf01      	ldmia	r7!, {r0}
    21cc:	1b86      	subs	r6, r0, r6
    21ce:	4770      	bx	lr

000021d0 <minus_allocator>:
    21d0:	b500      	push	{lr}
    21d2:	f7fe f95d 	bl	490 <expect_two_elements>
    21d6:	f847 6d04 	str.w	r6, [r7, #-4]!
    21da:	f643 0600 	movw	r6, #14336	; 0x3800
    21de:	f847 6d04 	str.w	r6, [r7, #-4]!
    21e2:	4ebc      	ldr	r6, [pc, #752]	; (24d4 <Code_539+0xc>)
    21e4:	f847 6d04 	str.w	r6, [r7, #-4]!
    21e8:	f641 2600 	movw	r6, #6656	; 0x1a00
    21ec:	f7fe f98c 	bl	508 <expect_nos_in_register>
    21f0:	6801      	ldr	r1, [r0, #0]
    21f2:	2928      	cmp	r1, #40	; 0x28
    21f4:	d127      	bne.n	2246 <minus_allocator+0x76>
    21f6:	6841      	ldr	r1, [r0, #4]
    21f8:	29ff      	cmp	r1, #255	; 0xff
    21fa:	d80c      	bhi.n	2216 <minus_allocator+0x46>
    21fc:	cf40      	ldmia	r7!, {r6}
    21fe:	cf40      	ldmia	r7!, {r6}
    2200:	f7fe f996 	bl	530 <nos_change_tos_away_later>
    2204:	430e      	orrs	r6, r1
    2206:	6881      	ldr	r1, [r0, #8]
    2208:	0209      	lsls	r1, r1, #8
    220a:	430e      	orrs	r6, r1
    220c:	f001 f91a 	bl	3444 <Code_817>
    2210:	f7fe f833 	bl	27a <eliminiere_tos>
    2214:	bd00      	pop	{pc}
    2216:	f847 6d04 	str.w	r6, [r7, #-4]!
    221a:	000e      	movs	r6, r1
    221c:	f000 fcf8 	bl	2c10 <Code_680>
    2220:	cf02      	ldmia	r7!, {r1}
    2222:	2e00      	cmp	r6, #0
    2224:	cf40      	ldmia	r7!, {r6}
    2226:	d00e      	beq.n	2246 <minus_allocator+0x76>
    2228:	cf40      	ldmia	r7!, {r6}
    222a:	3704      	adds	r7, #4
    222c:	430e      	orrs	r6, r1
    222e:	6881      	ldr	r1, [r0, #8]
    2230:	ea56 4601 	orrs.w	r6, r6, r1, lsl #16
    2234:	f7fe f821 	bl	27a <eliminiere_tos>
    2238:	f7fe f9aa 	bl	590 <tos_registerwechsel>
    223c:	ea56 2603 	orrs.w	r6, r6, r3, lsl #8
    2240:	f001 f92f 	bl	34a2 <Code_826>
    2244:	bd00      	pop	{pc}
    2246:	3704      	adds	r7, #4
    2248:	3704      	adds	r7, #4
    224a:	f7fe f953 	bl	4f4 <expect_tos_in_register>
    224e:	0189      	lsls	r1, r1, #6
    2250:	6882      	ldr	r2, [r0, #8]
    2252:	00d2      	lsls	r2, r2, #3
    2254:	430e      	orrs	r6, r1
    2256:	4316      	orrs	r6, r2
    2258:	f7fe f80f 	bl	27a <eliminiere_tos>
    225c:	f7fe f998 	bl	590 <tos_registerwechsel>
    2260:	431e      	orrs	r6, r3
    2262:	f001 f8ef 	bl	3444 <Code_817>
    2266:	bd00      	pop	{pc}

00002268 <Dictionary_488>:
    2268:	00002280 	andeq	r2, r0, r0, lsl #5
    226c:	31020261 	tstcc	r2, r1, ror #4
    2270:	3e01002d 	cdpcc	0, 0, cr0, cr1, cr13, {1}

00002272 <Code_488>:
    2272:	3e01      	subs	r6, #1
    2274:	4770      	bx	lr

00002276 <allocator_one_minus>:
    2276:	f847 6d04 	str.w	r6, [r7, #-4]!
    227a:	f641 6640 	movw	r6, #7744	; 0x1e40
    227e:	e03d      	b.n	22fc <smalltworegisters>

00002280 <Dictionary_491>:
    2280:	00002298 	muleq	r0, r8, r2
    2284:	31020261 	tstcc	r2, r1, ror #4
    2288:	3601002b 	strcc	r0, [r1], -fp, lsr #32

0000228a <Code_491>:
    228a:	3601      	adds	r6, #1
    228c:	4770      	bx	lr
    228e:	f847 6d04 	str.w	r6, [r7, #-4]!
    2292:	f641 4640 	movw	r6, #7232	; 0x1c40
    2296:	e031      	b.n	22fc <smalltworegisters>

00002298 <Dictionary_494>:
    2298:	000022b0 			; <UNDEFINED> instruction: 0x000022b0
    229c:	32020261 	andcc	r0, r2, #268435462	; 0x10000006
    22a0:	3e02002d 	cdpcc	0, 0, cr0, cr2, cr13, {1}

000022a2 <Code_494>:
    22a2:	3e02      	subs	r6, #2
    22a4:	4770      	bx	lr
    22a6:	f847 6d04 	str.w	r6, [r7, #-4]!
    22aa:	f641 6680 	movw	r6, #7808	; 0x1e80
    22ae:	e025      	b.n	22fc <smalltworegisters>

000022b0 <Dictionary_497>:
    22b0:	000022c8 	andeq	r2, r0, r8, asr #5
    22b4:	32020261 	andcc	r0, r2, #268435462	; 0x10000006
    22b8:	3602002b 	strcc	r0, [r2], -fp, lsr #32

000022ba <Code_497>:
    22ba:	3602      	adds	r6, #2
    22bc:	4770      	bx	lr
    22be:	f847 6d04 	str.w	r6, [r7, #-4]!
    22c2:	f641 4680 	movw	r6, #7296	; 0x1c80
    22c6:	e019      	b.n	22fc <smalltworegisters>

000022c8 <Dictionary_500>:
    22c8:	000022e2 	andeq	r2, r0, r2, ror #5
    22cc:	63050261 	movwvs	r0, #21089	; 0x5261
    22d0:	2b6c6c65 	blcs	1b1d46c <BIT24+0xb1d46c>

000022d4 <Code_500>:
    22d4:	3604      	adds	r6, #4
    22d6:	4770      	bx	lr
    22d8:	f847 6d04 	str.w	r6, [r7, #-4]!
    22dc:	f641 5600 	movw	r6, #7424	; 0x1d00
    22e0:	e00c      	b.n	22fc <smalltworegisters>

000022e2 <Dictionary_503>:
    22e2:	00002314 	andeq	r2, r0, r4, lsl r3
    22e6:	6e060261 	cdpvs	2, 0, cr0, cr6, cr1, {3}
    22ea:	74616765 	strbtvc	r6, [r1], #-1893	; 0x765
    22ee:	42760065 	rsbsmi	r0, r6, #101	; 0x65

000022f0 <Code_503>:
    22f0:	4276      	negs	r6, r6
    22f2:	4770      	bx	lr

000022f4 <allocator_negate>:
    22f4:	f847 6d04 	str.w	r6, [r7, #-4]!
    22f8:	f244 2640 	movw	r6, #16960	; 0x4240

000022fc <smalltworegisters>:
    22fc:	b500      	push	{lr}
    22fe:	f7fe f8bd 	bl	47c <expect_one_element>
    2302:	6801      	ldr	r1, [r0, #0]
    2304:	00c9      	lsls	r1, r1, #3
    2306:	430e      	orrs	r6, r1
    2308:	f7fe f942 	bl	590 <tos_registerwechsel>
    230c:	431e      	orrs	r6, r3
    230e:	f001 f899 	bl	3444 <Code_817>
    2312:	bd00      	pop	{pc}

00002314 <Dictionary_506>:
    2314:	0000232c 	andeq	r2, r0, ip, lsr #6
    2318:	6e030261 	cdpvs	2, 0, cr0, cr3, cr1, {3}
    231c:	43f6746f 	mvnsmi	r7, #1862270976	; 0x6f000000

0000231e <Code_506>:
    231e:	43f6      	mvns	r6, r6
    2320:	4770      	bx	lr

00002322 <allocator_not>:
    2322:	f847 6d04 	str.w	r6, [r7, #-4]!
    2326:	f244 36c0 	movw	r6, #17344	; 0x43c0
    232a:	e7e7      	b.n	22fc <smalltworegisters>

0000232c <Dictionary_509>:
    232c:	00002344 	andeq	r2, r0, r4, asr #6
    2330:	73030261 	movwvc	r0, #12897	; 0x3261
    2334:	08767268 	ldmdaeq	r6!, {r3, r5, r6, r9, ip, sp, lr}^

00002336 <Code_509>:
    2336:	0876      	lsrs	r6, r6, #1
    2338:	4770      	bx	lr
    233a:	f847 6d04 	str.w	r6, [r7, #-4]!
    233e:	f640 0640 	movw	r6, #2112	; 0x840
    2342:	e7db      	b.n	22fc <smalltworegisters>

00002344 <Dictionary_512>:
    2344:	00002354 	andeq	r2, r0, r4, asr r3
    2348:	73030261 	movwvc	r0, #12897	; 0x3261
    234c:	00766c68 	rsbseq	r6, r6, r8, ror #24

0000234e <Code_512>:
    234e:	0076      	lsls	r6, r6, #1
    2350:	4770      	bx	lr
    2352:	e006      	b.n	2362 <Code_513+0x4>

00002354 <Dictionary_513>:
    2354:	0000236a 	andeq	r2, r0, sl, ror #6
    2358:	32020261 	andcc	r0, r2, #268435462	; 0x10000006
    235c:	0076002a 	rsbseq	r0, r6, sl, lsr #32

0000235e <Code_513>:
    235e:	0076      	lsls	r6, r6, #1
    2360:	4770      	bx	lr
    2362:	f847 6d04 	str.w	r6, [r7, #-4]!
    2366:	2640      	movs	r6, #64	; 0x40
    2368:	e7c8      	b.n	22fc <smalltworegisters>

0000236a <Dictionary_516>:
    236a:	00002382 	andeq	r2, r0, r2, lsl #7
    236e:	63050261 	movwvs	r0, #21089	; 0x5261
    2372:	736c6c65 	cmnvc	ip, #25856	; 0x6500

00002376 <Code_516>:
    2376:	00b6      	lsls	r6, r6, #2
    2378:	4770      	bx	lr
    237a:	f847 6d04 	str.w	r6, [r7, #-4]!
    237e:	2680      	movs	r6, #128	; 0x80
    2380:	e7bc      	b.n	22fc <smalltworegisters>

00002382 <Dictionary_519>:
    2382:	0000239a 	muleq	r0, sl, r3
    2386:	32020261 	andcc	r0, r2, #268435462	; 0x10000006
    238a:	1076002f 	rsbsne	r0, r6, pc, lsr #32

0000238c <Code_519>:
    238c:	1076      	asrs	r6, r6, #1
    238e:	4770      	bx	lr
    2390:	f847 6d04 	str.w	r6, [r7, #-4]!
    2394:	f241 0640 	movw	r6, #4160	; 0x1040
    2398:	e7b0      	b.n	22fc <smalltworegisters>

0000239a <Dictionary_522>:
    239a:	000023d6 	ldrdeq	r2, [r0], -r6
    239e:	61030261 	tstvs	r3, r1, ror #4
    23a2:	17f07362 	ldrbne	r7, [r0, r2, ror #6]!

000023a4 <Code_522>:
    23a4:	17f0      	asrs	r0, r6, #31
    23a6:	1836      	adds	r6, r6, r0
    23a8:	4046      	eors	r6, r0
    23aa:	4770      	bx	lr
    23ac:	b500      	push	{lr}
    23ae:	f7fe f865 	bl	47c <expect_one_element>
    23b2:	f847 6d04 	str.w	r6, [r7, #-4]!
    23b6:	f642 0600 	movw	r6, #10240	; 0x2800
    23ba:	6801      	ldr	r1, [r0, #0]
    23bc:	0209      	lsls	r1, r1, #8
    23be:	430e      	orrs	r6, r1
    23c0:	f001 f840 	bl	3444 <Code_817>
    23c4:	f847 6d04 	str.w	r6, [r7, #-4]!
    23c8:	f24d 5600 	movw	r6, #54528	; 0xd500
    23cc:	f001 f83a 	bl	3444 <Code_817>
    23d0:	f7ff ff90 	bl	22f4 <allocator_negate>
    23d4:	bd00      	pop	{pc}

000023d6 <Dictionary_527>:
    23d6:	000023f4 	strdeq	r2, [r0], -r4
    23da:	75050042 	strvc	r0, [r5, #-66]	; 0x42
    23de:	646f6d2f 	strbtvs	r6, [pc], #-3375	; 23e6 <Code_527+0x4>

000023e2 <Code_527>:
    23e2:	cf01      	ldmia	r7!, {r0}
    23e4:	0031      	movs	r1, r6
    23e6:	fbb0 f6f6 	udiv	r6, r0, r6
    23ea:	4371      	muls	r1, r6
    23ec:	1a40      	subs	r0, r0, r1
    23ee:	3f04      	subs	r7, #4
    23f0:	6038      	str	r0, [r7, #0]
    23f2:	4770      	bx	lr

000023f4 <Dictionary_528>:
    23f4:	00002412 	andeq	r2, r0, r2, lsl r4
    23f8:	2f040042 	svccs	0x00040042
    23fc:	00646f6d 	rsbeq	r6, r4, sp, ror #30

00002400 <Code_528>:
    2400:	cf01      	ldmia	r7!, {r0}
    2402:	0031      	movs	r1, r6
    2404:	fb90 f6f6 	sdiv	r6, r0, r6
    2408:	4371      	muls	r1, r6
    240a:	1a40      	subs	r0, r0, r1
    240c:	3f04      	subs	r7, #4
    240e:	6038      	str	r0, [r7, #0]
    2410:	4770      	bx	lr

00002412 <Dictionary_529>:
    2412:	00002426 	andeq	r2, r0, r6, lsr #8
    2416:	6d030042 	stcvs	0, cr0, [r3, #-264]	; 0xfffffef8
    241a:	b500646f 	strlt	r6, [r0, #-1135]	; 0x46f

0000241c <Code_529>:
    241c:	b500      	push	{lr}
    241e:	f7ff ffef 	bl	2400 <Code_528>
    2422:	cf40      	ldmia	r7!, {r6}
    2424:	bd00      	pop	{pc}

00002426 <Dictionary_531>:
    2426:	00002466 	andeq	r2, r0, r6, ror #8
    242a:	2f010262 	svccs	0x00010262

0000242e <Code_531>:
    242e:	cf01      	ldmia	r7!, {r0}
    2430:	fb90 f6f6 	sdiv	r6, r0, r6
    2434:	4770      	bx	lr
    2436:	b500      	push	{lr}
    2438:	f7fe f82a 	bl	490 <expect_two_elements>
    243c:	f7fe f85a 	bl	4f4 <expect_tos_in_register>
    2440:	f7fe f862 	bl	508 <expect_nos_in_register>
    2444:	f847 6d04 	str.w	r6, [r7, #-4]!
    2448:	4e23      	ldr	r6, [pc, #140]	; (24d8 <Code_539+0x10>)
    244a:	6801      	ldr	r1, [r0, #0]
    244c:	430e      	orrs	r6, r1
    244e:	6881      	ldr	r1, [r0, #8]
    2450:	ea56 4601 	orrs.w	r6, r6, r1, lsl #16
    2454:	f7fd ff11 	bl	27a <eliminiere_tos>
    2458:	f7fe f89a 	bl	590 <tos_registerwechsel>
    245c:	ea56 2603 	orrs.w	r6, r6, r3, lsl #8
    2460:	f001 f81f 	bl	34a2 <Code_826>
    2464:	bd00      	pop	{pc}

00002466 <Dictionary_533>:
    2466:	0000247a 	andeq	r2, r0, sl, ror r4
    246a:	65040061 	strvs	r0, [r4, #-97]	; 0x61
    246e:	006e6576 	rsbeq	r6, lr, r6, ror r5

00002472 <Code_533>:
    2472:	2001      	movs	r0, #1
    2474:	4030      	ands	r0, r6
    2476:	1836      	adds	r6, r6, r0
    2478:	4770      	bx	lr

0000247a <Dictionary_534>:
    247a:	00002492 	muleq	r0, r2, r4
    247e:	62040081 	andvs	r0, r4, #129	; 0x81
    2482:	00657361 	rsbeq	r7, r5, r1, ror #6

00002486 <Code_534>:
    2486:	f847 6d04 	str.w	r6, [r7, #-4]!
    248a:	4e14      	ldr	r6, [pc, #80]	; (24dc <Code_539+0x14>)
    248c:	4770      	bx	lr
    248e:	0000000a 	andeq	r0, r0, sl

00002492 <Dictionary_537>:
    2492:	000024a8 	andeq	r2, r0, r8, lsr #9
    2496:	62060000 	andvs	r0, r6, #0
    249a:	72616e69 	rsbvc	r6, r1, #1680	; 0x690
    249e:	480e0079 	stmdami	lr, {r0, r3, r4, r5, r6}

000024a0 <Code_537>:
    24a0:	480e      	ldr	r0, [pc, #56]	; (24dc <Code_539+0x14>)
    24a2:	2102      	movs	r1, #2
    24a4:	6001      	str	r1, [r0, #0]
    24a6:	4770      	bx	lr

000024a8 <Dictionary_538>:
    24a8:	000024be 			; <UNDEFINED> instruction: 0x000024be
    24ac:	64070000 	strvs	r0, [r7]
    24b0:	6d696365 	stclvs	3, cr6, [r9, #-404]!	; 0xfffffe6c
    24b4:	48096c61 	stmdami	r9, {r0, r5, r6, sl, fp, sp, lr}

000024b6 <Code_538>:
    24b6:	4809      	ldr	r0, [pc, #36]	; (24dc <Code_539+0x14>)
    24b8:	210a      	movs	r1, #10
    24ba:	6001      	str	r1, [r0, #0]
    24bc:	4770      	bx	lr

000024be <Dictionary_539>:
    24be:	00002514 	andeq	r2, r0, r4, lsl r5
    24c2:	68030000 	stmdavs	r3, {}	; <UNPREDICTABLE>
    24c6:	48047865 	stmdami	r4, {r0, r2, r5, r6, fp, ip, sp, lr}

000024c8 <Code_539>:
    24c8:	4804      	ldr	r0, [pc, #16]	; (24dc <Code_539+0x14>)
    24ca:	2110      	movs	r1, #16
    24cc:	6001      	str	r1, [r0, #0]
    24ce:	4770      	bx	lr
    24d0:	f1100000 			; <UNDEFINED> instruction: 0xf1100000
    24d4:	f1b00000 			; <UNDEFINED> instruction: 0xf1b00000
    24d8:	fb90f0f0 	blx	fe43e8a2 <BIT31+0x7e43e8a2>
    24dc:	20017ffc 	strdcs	r7, [r1], -ip

000024e0 <uart_init>:
    24e0:	4973      	ldr	r1, [pc, #460]	; (26b0 <Code_569+0x1a>)
    24e2:	4874      	ldr	r0, [pc, #464]	; (26b4 <Code_569+0x1e>)
    24e4:	6008      	str	r0, [r1, #0]
    24e6:	4974      	ldr	r1, [pc, #464]	; (26b8 <Code_569+0x22>)
    24e8:	4874      	ldr	r0, [pc, #464]	; (26bc <Code_569+0x26>)
    24ea:	6008      	str	r0, [r1, #0]
    24ec:	4974      	ldr	r1, [pc, #464]	; (26c0 <Code_569+0x2a>)
    24ee:	4875      	ldr	r0, [pc, #468]	; (26c4 <Code_569+0x2e>)
    24f0:	6008      	str	r0, [r1, #0]
    24f2:	4975      	ldr	r1, [pc, #468]	; (26c8 <Code_569+0x32>)
    24f4:	4875      	ldr	r0, [pc, #468]	; (26cc <Code_569+0x36>)
    24f6:	6008      	str	r0, [r1, #0]
    24f8:	4975      	ldr	r1, [pc, #468]	; (26d0 <Code_569+0x3a>)
    24fa:	2023      	movs	r0, #35	; 0x23
    24fc:	6008      	str	r0, [r1, #0]
    24fe:	4975      	ldr	r1, [pc, #468]	; (26d4 <Code_569+0x3e>)
    2500:	4875      	ldr	r0, [pc, #468]	; (26d8 <Code_569+0x42>)
    2502:	6008      	str	r0, [r1, #0]
    2504:	4975      	ldr	r1, [pc, #468]	; (26dc <Code_569+0x46>)
    2506:	4876      	ldr	r0, [pc, #472]	; (26e0 <Code_569+0x4a>)
    2508:	6008      	str	r0, [r1, #0]
    250a:	4770      	bx	lr

0000250c <serial_115200_48MHZ>:
    250c:	4870      	ldr	r0, [pc, #448]	; (26d0 <Code_569+0x3a>)
    250e:	4975      	ldr	r1, [pc, #468]	; (26e4 <Code_569+0x4e>)
    2510:	6001      	str	r1, [r0, #0]
    2512:	4770      	bx	lr

00002514 <Dictionary_540>:
    2514:	00002530 	andeq	r2, r0, r0, lsr r5
    2518:	68090081 	stmdavs	r9, {r0, r7}
    251c:	2d6b6f6f 	stclcs	15, cr6, [fp, #-444]!	; 0xfffffe44
    2520:	74696d65 	strbtvc	r6, [r9], #-3429	; 0xd65

00002524 <Code_540>:
    2524:	f847 6d04 	str.w	r6, [r7, #-4]!
    2528:	4e6f      	ldr	r6, [pc, #444]	; (26e8 <Code_569+0x52>)
    252a:	4770      	bx	lr
    252c:	0000261a 	andeq	r2, r0, sl, lsl r6

00002530 <Dictionary_543>:
    2530:	0000254c 	andeq	r2, r0, ip, asr #10
    2534:	68080081 	stmdavs	r8, {r0, r7}
    2538:	2d6b6f6f 	stclcs	15, cr6, [fp, #-444]!	; 0xfffffe44
    253c:	0079656b 	rsbseq	r6, r9, fp, ror #10

00002540 <Code_543>:
    2540:	f847 6d04 	str.w	r6, [r7, #-4]!
    2544:	4e69      	ldr	r6, [pc, #420]	; (26ec <Code_569+0x56>)
    2546:	4770      	bx	lr
    2548:	00002640 	andeq	r2, r0, r0, asr #12

0000254c <Dictionary_546>:
    254c:	0000256a 	andeq	r2, r0, sl, ror #10
    2550:	680a0081 	stmdavs	sl, {r0, r7}
    2554:	2d6b6f6f 	stclcs	15, cr6, [fp, #-444]!	; 0xfffffe44
    2558:	74696d65 	strbtvc	r6, [r9], #-3429	; 0xd65
    255c:	f847003f 			; <UNDEFINED> instruction: 0xf847003f

0000255e <Code_546>:
    255e:	f847 6d04 	str.w	r6, [r7, #-4]!
    2562:	4e63      	ldr	r6, [pc, #396]	; (26f0 <Code_569+0x5a>)
    2564:	4770      	bx	lr
    2566:	0000266a 	andeq	r2, r0, sl, ror #12

0000256a <Dictionary_549>:
    256a:	00002586 	andeq	r2, r0, r6, lsl #11
    256e:	68090081 	stmdavs	r9, {r0, r7}
    2572:	2d6b6f6f 	stclcs	15, cr6, [fp, #-444]!	; 0xfffffe44
    2576:	3f79656b 	svccc	0x0079656b

0000257a <Code_549>:
    257a:	f847 6d04 	str.w	r6, [r7, #-4]!
    257e:	4e5d      	ldr	r6, [pc, #372]	; (26f4 <Code_569+0x5e>)
    2580:	4770      	bx	lr
    2582:	00002696 	muleq	r0, r6, r6

00002586 <Dictionary_552>:
    2586:	000025a4 	andeq	r2, r0, r4, lsr #11
    258a:	680a0081 	stmdavs	sl, {r0, r7}
    258e:	2d6b6f6f 	stclcs	15, cr6, [fp, #-444]!	; 0xfffffe44
    2592:	73756170 	cmnvc	r5, #28
    2596:	f8470065 			; <UNDEFINED> instruction: 0xf8470065

00002598 <Code_552>:
    2598:	f847 6d04 	str.w	r6, [r7, #-4]!
    259c:	4e56      	ldr	r6, [pc, #344]	; (26f8 <Code_569+0x62>)
    259e:	4770      	bx	lr
    25a0:	00004a06 	andeq	r4, r0, r6, lsl #20

000025a4 <Dictionary_555>:
    25a4:	000025ba 			; <UNDEFINED> instruction: 0x000025ba
    25a8:	65040000 	strvs	r0, [r4]
    25ac:	0074696d 	rsbseq	r6, r4, sp, ror #18

000025b0 <Code_555>:
    25b0:	b50f      	push	{r0, r1, r2, r3, lr}
    25b2:	484d      	ldr	r0, [pc, #308]	; (26e8 <Code_569+0x52>)
    25b4:	f000 f826 	bl	2604 <hook_intern>
    25b8:	bd0f      	pop	{r0, r1, r2, r3, pc}

000025ba <Dictionary_556>:
    25ba:	000025ce 	andeq	r2, r0, lr, asr #11
    25be:	6b030000 	blvs	c25c6 <BIT19+0x425c6>
    25c2:	b50f7965 	strlt	r7, [pc, #-2405]	; 1c65 <Code_417+0x1b>

000025c4 <Code_556>:
    25c4:	b50f      	push	{r0, r1, r2, r3, lr}
    25c6:	4849      	ldr	r0, [pc, #292]	; (26ec <Code_569+0x56>)
    25c8:	f000 f81c 	bl	2604 <hook_intern>
    25cc:	bd0f      	pop	{r0, r1, r2, r3, pc}

000025ce <Dictionary_557>:
    25ce:	000025e0 	andeq	r2, r0, r0, ror #11
    25d2:	65050000 	strvs	r0, [r5]
    25d6:	3f74696d 	svccc	0x0074696d

000025da <Code_557>:
    25da:	4845      	ldr	r0, [pc, #276]	; (26f0 <Code_569+0x5a>)
    25dc:	6800      	ldr	r0, [r0, #0]
    25de:	4687      	mov	pc, r0

000025e0 <Dictionary_558>:
    25e0:	000025f2 	strdeq	r2, [r0], -r2	; <UNPREDICTABLE>
    25e4:	6b040000 	blvs	1025ec <BIT20+0x25ec>
    25e8:	003f7965 	eorseq	r7, pc, r5, ror #18

000025ec <Code_558>:
    25ec:	4841      	ldr	r0, [pc, #260]	; (26f4 <Code_569+0x5e>)
    25ee:	6800      	ldr	r0, [r0, #0]
    25f0:	4687      	mov	pc, r0

000025f2 <Dictionary_559>:
    25f2:	00002608 	andeq	r2, r0, r8, lsl #12
    25f6:	70050000 	andvc	r0, r5, r0
    25fa:	65737561 	ldrbvs	r7, [r3, #-1377]!	; 0x561

000025fe <Code_559>:
    25fe:	483e      	ldr	r0, [pc, #248]	; (26f8 <Code_569+0x62>)
    2600:	6800      	ldr	r0, [r0, #0]
    2602:	4687      	mov	pc, r0

00002604 <hook_intern>:
    2604:	6800      	ldr	r0, [r0, #0]
    2606:	4687      	mov	pc, r0

00002608 <Dictionary_560>:
    2608:	0000262e 	andeq	r2, r0, lr, lsr #12
    260c:	730b0000 	movwvc	r0, #45056	; 0xb000
    2610:	61697265 	cmnvs	r9, r5, ror #4
    2614:	6d652d6c 	stclvs	13, cr2, [r5, #-432]!	; 0xfffffe50
    2618:	b5007469 	strlt	r7, [r0, #-1129]	; 0x469

0000261a <Code_560>:
    261a:	b500      	push	{lr}
    261c:	f000 f825 	bl	266a <Code_566>
    2620:	2e00      	cmp	r6, #0
    2622:	cf40      	ldmia	r7!, {r6}
    2624:	d0fa      	beq.n	261c <Code_560+0x2>
    2626:	4a35      	ldr	r2, [pc, #212]	; (26fc <Code_569+0x66>)
    2628:	7016      	strb	r6, [r2, #0]
    262a:	cf40      	ldmia	r7!, {r6}
    262c:	bd00      	pop	{pc}

0000262e <Dictionary_563>:
    262e:	00002656 	andeq	r2, r0, r6, asr r6
    2632:	730a0000 	movwvc	r0, #40960	; 0xa000
    2636:	61697265 	cmnvs	r9, r5, ror #4
    263a:	656b2d6c 	strbvs	r2, [fp, #-3436]!	; 0xd6c
    263e:	b5000079 	strlt	r0, [r0, #-121]	; 0x79

00002640 <Code_563>:
    2640:	b500      	push	{lr}
    2642:	f000 f828 	bl	2696 <Code_569>
    2646:	2e00      	cmp	r6, #0
    2648:	cf40      	ldmia	r7!, {r6}
    264a:	d0fa      	beq.n	2642 <Code_563+0x2>
    264c:	f847 6d04 	str.w	r6, [r7, #-4]!
    2650:	4a2b      	ldr	r2, [pc, #172]	; (2700 <Code_569+0x6a>)
    2652:	7816      	ldrb	r6, [r2, #0]
    2654:	bd00      	pop	{pc}

00002656 <Dictionary_566>:
    2656:	00002684 	andeq	r2, r0, r4, lsl #13
    265a:	730c0000 	movwvc	r0, #49152	; 0xc000
    265e:	61697265 	cmnvs	r9, r5, ror #4
    2662:	6d652d6c 	stclvs	13, cr2, [r5, #-432]!	; 0xfffffe50
    2666:	003f7469 	eorseq	r7, pc, r9, ror #8

0000266a <Code_566>:
    266a:	b500      	push	{lr}
    266c:	f7ff ffc7 	bl	25fe <Code_559>
    2670:	f847 6d04 	str.w	r6, [r7, #-4]!
    2674:	2600      	movs	r6, #0
    2676:	4823      	ldr	r0, [pc, #140]	; (2704 <Code_569+0x6e>)
    2678:	6801      	ldr	r1, [r0, #0]
    267a:	2080      	movs	r0, #128	; 0x80
    267c:	4001      	ands	r1, r0
    267e:	d000      	beq.n	2682 <Code_566+0x18>
    2680:	43f6      	mvns	r6, r6
    2682:	bd00      	pop	{pc}

00002684 <Dictionary_569>:
    2684:	00002708 	andeq	r2, r0, r8, lsl #14
    2688:	730b0000 	movwvc	r0, #45056	; 0xb000
    268c:	61697265 	cmnvs	r9, r5, ror #4
    2690:	656b2d6c 	strbvs	r2, [fp, #-3436]!	; 0xd6c
    2694:	b5003f79 	strlt	r3, [r0, #-3961]	; 0xf79

00002696 <Code_569>:
    2696:	b500      	push	{lr}
    2698:	f7ff ffb1 	bl	25fe <Code_559>
    269c:	f847 6d04 	str.w	r6, [r7, #-4]!
    26a0:	2600      	movs	r6, #0
    26a2:	4818      	ldr	r0, [pc, #96]	; (2704 <Code_569+0x6e>)
    26a4:	6801      	ldr	r1, [r0, #0]
    26a6:	2020      	movs	r0, #32
    26a8:	4001      	ands	r1, r0
    26aa:	d000      	beq.n	26ae <Code_569+0x18>
    26ac:	43f6      	mvns	r6, r6
    26ae:	bd00      	pop	{pc}
    26b0:	4002104c 	andmi	r1, r2, ip, asr #32
    26b4:	000000ff 	strdeq	r0, [r0], -pc	; <UNPREDICTABLE>
    26b8:	40021058 	andmi	r1, r2, r8, asr r0
    26bc:	00020000 	andeq	r0, r2, r0
    26c0:	48000c00 	stmdami	r0, {sl, fp}
    26c4:	ffffebff 			; <UNDEFINED> instruction: 0xffffebff
    26c8:	48000c20 	stmdami	r0, {r5, sl, fp}
    26cc:	07700000 	ldrbeq	r0, [r0, -r0]!
    26d0:	4000440c 	andmi	r4, r0, ip, lsl #8
    26d4:	40004408 	andmi	r4, r0, r8, lsl #8
    26d8:	00001000 	andeq	r1, r0, r0
    26dc:	40004400 	andmi	r4, r0, r0, lsl #8
    26e0:	0000000d 	andeq	r0, r0, sp
    26e4:	000001a1 	andeq	r0, r0, r1, lsr #3
    26e8:	20017ff8 	strdcs	r7, [r1], -r8
    26ec:	20017ff4 	strdcs	r7, [r1], -r4
    26f0:	20017ff0 	strdcs	r7, [r1], -r0
    26f4:	20017fec 	andcs	r7, r1, ip, ror #31
    26f8:	20017fe8 	andcs	r7, r1, r8, ror #31
    26fc:	40004428 	andmi	r4, r0, r8, lsr #8
    2700:	40004424 	andmi	r4, r0, r4, lsr #8
    2704:	4000441c 	andmi	r4, r0, ip, lsl r4

00002708 <Dictionary_572>:
    2708:	0000272c 	andeq	r2, r0, ip, lsr #14
    270c:	63070000 	movwvs	r0, #28672	; 0x7000
    2710:	65707865 	ldrbvs	r7, [r0, #-2149]!	; 0x865
    2714:	b5007463 	strlt	r7, [r0, #-1123]	; 0x463

00002716 <Code_572>:
    2716:	b500      	push	{lr}
    2718:	6838      	ldr	r0, [r7, #0]
    271a:	b401      	push	{r0}
    271c:	3001      	adds	r0, #1
    271e:	6038      	str	r0, [r7, #0]
    2720:	f000 f80b 	bl	273a <Code_574>
    2724:	bc01      	pop	{r0}
    2726:	7006      	strb	r6, [r0, #0]
    2728:	cf40      	ldmia	r7!, {r6}
    272a:	bd00      	pop	{pc}

0000272c <Dictionary_574>:
    272c:	000027a2 	andeq	r2, r0, r2, lsr #15
    2730:	61060000 	mrsvs	r0, (UNDEF: 6)
    2734:	70656363 	rsbvc	r6, r5, r3, ror #6
    2738:	b5000074 	strlt	r0, [r0, #-116]	; 0x74

0000273a <Code_574>:
    273a:	b500      	push	{lr}
    273c:	cf02      	ldmia	r7!, {r1}
    273e:	3901      	subs	r1, #1
    2740:	2200      	movs	r2, #0
    2742:	f7ff ff3f 	bl	25c4 <Code_556>
    2746:	0030      	movs	r0, r6
    2748:	cf40      	ldmia	r7!, {r6}
    274a:	287f      	cmp	r0, #127	; 0x7f
    274c:	d009      	beq.n	2762 <Code_574+0x28>
    274e:	2820      	cmp	r0, #32
    2750:	d219      	bcs.n	2786 <Code_574+0x4c>
    2752:	2809      	cmp	r0, #9
    2754:	d016      	beq.n	2784 <Code_574+0x4a>
    2756:	280a      	cmp	r0, #10
    2758:	d01f      	beq.n	279a <Code_574+0x60>
    275a:	280d      	cmp	r0, #13
    275c:	d01d      	beq.n	279a <Code_574+0x60>
    275e:	2808      	cmp	r0, #8
    2760:	d1ef      	bne.n	2742 <Code_574+0x8>
    2762:	2a00      	cmp	r2, #0
    2764:	d0ed      	beq.n	2742 <Code_574+0x8>
    2766:	f000 f90e 	bl	2986 <dotgaensefuesschen>
    276a:	08200803 	stmdaeq	r0!, {r0, r1, fp}
    276e:	2a00      	cmp	r2, #0
    2770:	d0e7      	beq.n	2742 <Code_574+0x8>
    2772:	5c88      	ldrb	r0, [r1, r2]
    2774:	3a01      	subs	r2, #1
    2776:	2380      	movs	r3, #128	; 0x80
    2778:	4003      	ands	r3, r0
    277a:	d0e2      	beq.n	2742 <Code_574+0x8>
    277c:	2340      	movs	r3, #64	; 0x40
    277e:	4003      	ands	r3, r0
    2780:	d0f5      	beq.n	276e <Code_574+0x34>
    2782:	e7de      	b.n	2742 <Code_574+0x8>
    2784:	2020      	movs	r0, #32
    2786:	42b2      	cmp	r2, r6
    2788:	d2db      	bcs.n	2742 <Code_574+0x8>
    278a:	f847 6d04 	str.w	r6, [r7, #-4]!
    278e:	0006      	movs	r6, r0
    2790:	f7ff ff0e 	bl	25b0 <Code_555>
    2794:	3201      	adds	r2, #1
    2796:	5488      	strb	r0, [r1, r2]
    2798:	e7d3      	b.n	2742 <Code_574+0x8>
    279a:	0016      	movs	r6, r2
    279c:	f000 f8a2 	bl	28e4 <Code_605>
    27a0:	bd00      	pop	{pc}

000027a2 <Dictionary_578>:
    27a2:	000027b4 			; <UNDEFINED> instruction: 0x000027b4
    27a6:	74030040 	strvc	r0, [r3], #-64	; 0x40
    27aa:	f8476269 			; <UNDEFINED> instruction: 0xf8476269

000027ac <Code_578>:
    27ac:	f847 6d04 	str.w	r6, [r7, #-4]!
    27b0:	4e29      	ldr	r6, [pc, #164]	; (2858 <Code_590+0x22>)
    27b2:	4770      	bx	lr

000027b4 <Dictionary_580>:
    27b4:	000027ca 	andeq	r2, r0, sl, asr #15
    27b8:	3e030081 	cdpcc	0, 0, cr0, cr3, cr1, {4}
    27bc:	f8476e69 			; <UNDEFINED> instruction: 0xf8476e69

000027be <Code_580>:
    27be:	f847 6d04 	str.w	r6, [r7, #-4]!
    27c2:	4e26      	ldr	r6, [pc, #152]	; (285c <Code_590+0x26>)
    27c4:	4770      	bx	lr
    27c6:	00000000 	andeq	r0, r0, r0

000027ca <Dictionary_583>:
    27ca:	000027f0 	strdeq	r2, [r0], -r0
    27ce:	630e0082 	movwvs	r0, #57474	; 0xe082
    27d2:	65727275 	ldrbvs	r7, [r2, #-629]!	; 0x275
    27d6:	732d746e 	teqvc	sp, #1845493760	; 0x6e000000
    27da:	6372756f 	cmnvs	r2, #465567744	; 0x1bc00000
    27de:	f8470065 			; <UNDEFINED> instruction: 0xf8470065

000027e0 <Code_583>:
    27e0:	f847 6d04 	str.w	r6, [r7, #-4]!
    27e4:	4e1e      	ldr	r6, [pc, #120]	; (2860 <Code_590+0x2a>)
    27e6:	4770      	bx	lr
    27e8:	00000000 	andeq	r0, r0, r0
    27ec:	200000c4 	andcs	r0, r0, r4, asr #1

000027f0 <Dictionary_586>:
    27f0:	0000280c 	andeq	r2, r0, ip, lsl #16
    27f4:	73090000 	movwvc	r0, #36864	; 0x9000
    27f8:	6f737465 	svcvs	0x00737465
    27fc:	65637275 	strbvs	r7, [r3, #-629]!	; 0x275

00002800 <Code_586>:
    2800:	4817      	ldr	r0, [pc, #92]	; (2860 <Code_590+0x2a>)
    2802:	cf02      	ldmia	r7!, {r1}
    2804:	6006      	str	r6, [r0, #0]
    2806:	6041      	str	r1, [r0, #4]
    2808:	cf40      	ldmia	r7!, {r6}
    280a:	4770      	bx	lr

0000280c <Dictionary_588>:
    280c:	0000282a 	andeq	r2, r0, sl, lsr #16
    2810:	73060000 	movwvc	r0, #24576	; 0x6000
    2814:	6372756f 	cmnvs	r2, #465567744	; 0x1bc00000
    2818:	f8470065 			; <UNDEFINED> instruction: 0xf8470065

0000281a <Code_588>:
    281a:	f847 6d04 	str.w	r6, [r7, #-4]!
    281e:	4e10      	ldr	r6, [pc, #64]	; (2860 <Code_590+0x2a>)
    2820:	3f04      	subs	r7, #4
    2822:	6870      	ldr	r0, [r6, #4]
    2824:	6038      	str	r0, [r7, #0]
    2826:	6836      	ldr	r6, [r6, #0]
    2828:	4770      	bx	lr

0000282a <Dictionary_590>:
    282a:	00002864 	andeq	r2, r0, r4, ror #16
    282e:	71050000 	mrsvc	r0, (UNDEF: 5)
    2832:	79726575 	ldmdbvc	r2!, {r0, r2, r4, r5, r6, r8, sl, sp, lr}^

00002836 <Code_590>:
    2836:	b50f      	push	{r0, r1, r2, r3, lr}
    2838:	4808      	ldr	r0, [pc, #32]	; (285c <Code_590+0x26>)
    283a:	2100      	movs	r1, #0
    283c:	6001      	str	r1, [r0, #0]
    283e:	f7ff ffb5 	bl	27ac <Code_578>
    2842:	f847 6d04 	str.w	r6, [r7, #-4]!
    2846:	f847 6d04 	str.w	r6, [r7, #-4]!
    284a:	26c8      	movs	r6, #200	; 0xc8
    284c:	f7ff ff75 	bl	273a <Code_574>
    2850:	f7ff ffd6 	bl	2800 <Code_586>
    2854:	bd0f      	pop	{r0, r1, r2, r3, pc}
    2856:	00c40000 	sbceq	r0, r4, r0
    285a:	7fe42000 	svcvc	0x00e42000
    285e:	7fdc2001 	svcvc	0x00dc2001
    2862:	28b22001 	ldmcs	r2!, {r0, sp}

00002864 <Dictionary_595>:
    2864:	000028b2 			; <UNDEFINED> instruction: 0x000028b2
    2868:	63070000 	movwvs	r0, #28672	; 0x7000
    286c:	61706d6f 	cmnvs	r0, pc, ror #26
    2870:	b50f6572 	strlt	r6, [pc, #-1394]	; 2306 <smalltworegisters+0xa>

00002872 <Code_595>:
    2872:	b50f      	push	{r0, r1, r2, r3, lr}
    2874:	0031      	movs	r1, r6
    2876:	cf40      	ldmia	r7!, {r6}
    2878:	cf01      	ldmia	r7!, {r0}
    287a:	4288      	cmp	r0, r1
    287c:	d002      	beq.n	2884 <Code_595+0x12>
    287e:	cf40      	ldmia	r7!, {r6}
    2880:	2600      	movs	r6, #0
    2882:	bd0f      	pop	{r0, r1, r2, r3, pc}
    2884:	cf02      	ldmia	r7!, {r1}
    2886:	2800      	cmp	r0, #0
    2888:	d010      	beq.n	28ac <Code_595+0x3a>
    288a:	3801      	subs	r0, #1
    288c:	5c0a      	ldrb	r2, [r1, r0]
    288e:	5c33      	ldrb	r3, [r6, r0]
    2890:	2a41      	cmp	r2, #65	; 0x41
    2892:	d302      	bcc.n	289a <Code_595+0x28>
    2894:	2a5b      	cmp	r2, #91	; 0x5b
    2896:	bf38      	it	cc
    2898:	3220      	addcc	r2, #32
    289a:	2b41      	cmp	r3, #65	; 0x41
    289c:	d302      	bcc.n	28a4 <Code_595+0x32>
    289e:	2b5b      	cmp	r3, #91	; 0x5b
    28a0:	bf38      	it	cc
    28a2:	3320      	addcc	r3, #32
    28a4:	429a      	cmp	r2, r3
    28a6:	d0ee      	beq.n	2886 <Code_595+0x14>
    28a8:	2600      	movs	r6, #0
    28aa:	bd0f      	pop	{r0, r1, r2, r3, pc}
    28ac:	2600      	movs	r6, #0
    28ae:	43f6      	mvns	r6, r6
    28b0:	bd0f      	pop	{r0, r1, r2, r3, pc}

000028b2 <Dictionary_600>:
    28b2:	000028c6 	andeq	r2, r0, r6, asr #17
    28b6:	63020000 	movwvs	r0, #8192	; 0x2000
    28ba:	b5000072 	strlt	r0, [r0, #-114]	; 0x72

000028bc <Code_600>:
    28bc:	b500      	push	{lr}
    28be:	f000 f862 	bl	2986 <dotgaensefuesschen>
    28c2:	bd000a01 	vstrlt	s0, [r0, #-4]

000028c6 <Dictionary_602>:
    28c6:	000028d8 	ldrdeq	r2, [r0], -r8
    28ca:	62020000 	andvs	r0, r2, #0
    28ce:	f847006c 			; <UNDEFINED> instruction: 0xf847006c

000028d0 <Code_602>:
    28d0:	f847 6d04 	str.w	r6, [r7, #-4]!
    28d4:	2620      	movs	r6, #32
    28d6:	4770      	bx	lr

000028d8 <Dictionary_605>:
    28d8:	000028ec 	andeq	r2, r0, ip, ror #17
    28dc:	73050000 	movwvc	r0, #20480	; 0x5000
    28e0:	65636170 	strbvs	r6, [r3, #-368]!	; 0x170

000028e4 <Code_605>:
    28e4:	f847 6d04 	str.w	r6, [r7, #-4]!
    28e8:	2620      	movs	r6, #32
    28ea:	e661      	b.n	25b0 <Code_555>

000028ec <Dictionary_608>:
    28ec:	0000290c 	andeq	r2, r0, ip, lsl #18
    28f0:	73060000 	movwvc	r0, #24576	; 0x6000
    28f4:	65636170 	strbvs	r6, [r3, #-368]!	; 0x170
    28f8:	b5000073 	strlt	r0, [r0, #-115]	; 0x73

000028fa <Code_608>:
    28fa:	b500      	push	{lr}
    28fc:	2e00      	cmp	r6, #0
    28fe:	dd03      	ble.n	2908 <Code_608+0xe>
    2900:	f7ff fff0 	bl	28e4 <Code_605>
    2904:	3e01      	subs	r6, #1
    2906:	d1fb      	bne.n	2900 <Code_608+0x6>
    2908:	cf40      	ldmia	r7!, {r6}
    290a:	bd00      	pop	{pc}

0000290c <Dictionary_610>:
    290c:	0000291c 	andeq	r2, r0, ip, lsl r9
    2910:	5b060050 	blpl	182a58 <BIT20+0x82a58>
    2914:	72616863 	rsbvc	r6, r1, #6488064	; 0x630000
    2918:	e005005d 	and	r0, r5, sp, asr r0

0000291a <Code_610>:
    291a:	e005      	b.n	2928 <Code_611>

0000291c <Dictionary_611>:
    291c:	00002934 	andeq	r2, r0, r4, lsr r9
    2920:	63040000 	movwvs	r0, #16384	; 0x4000
    2924:	00726168 	rsbseq	r6, r2, r8, ror #2

00002928 <Code_611>:
    2928:	b500      	push	{lr}
    292a:	f001 fc87 	bl	423c <Code_1103>
    292e:	cf40      	ldmia	r7!, {r6}
    2930:	7836      	ldrb	r6, [r6, #0]
    2932:	bd00      	pop	{pc}

00002934 <Dictionary_613>:
    2934:	00002944 	andeq	r2, r0, r4, asr #18
    2938:	28010450 	stmdacs	r1, {r4, r6, sl}

0000293c <Code_613>:
    293c:	f847 6d04 	str.w	r6, [r7, #-4]!
    2940:	2629      	movs	r6, #41	; 0x29
    2942:	e006      	b.n	2952 <Code_616+0x6>

00002944 <Dictionary_616>:
    2944:	0000295e 	andeq	r2, r0, lr, asr r9
    2948:	5c010450 	cfstrspl	mvf0, [r1], {80}	; 0x50

0000294c <Code_616>:
    294c:	f847 6d04 	str.w	r6, [r7, #-4]!
    2950:	2600      	movs	r6, #0
    2952:	b500      	push	{lr}
    2954:	f001 fc7c 	bl	4250 <Code_1105>
    2958:	3704      	adds	r7, #4
    295a:	cf40      	ldmia	r7!, {r6}
    295c:	bd00      	pop	{pc}

0000295e <Dictionary_621>:
    295e:	000029a2 	andeq	r2, r0, r2, lsr #19
    2962:	2e020010 	mcrcs	0, 0, r0, cr2, cr0, {0}
    2966:	489b0022 	ldmmi	fp, {r1, r5}

00002968 <Code_621>:
    2968:	489b      	ldr	r0, [pc, #620]	; (2bd8 <Code_660+0x94>)
    296a:	b500      	push	{lr}
    296c:	f847 6d04 	str.w	r6, [r7, #-4]!
    2970:	0006      	movs	r6, r0
    2972:	f000 fa5e 	bl	2e32 <Code_701>
    2976:	f847 6d04 	str.w	r6, [r7, #-4]!
    297a:	2622      	movs	r6, #34	; 0x22
    297c:	f001 fc68 	bl	4250 <Code_1105>
    2980:	f000 fd9f 	bl	34c2 <Code_829>
    2984:	bd00      	pop	{pc}

00002986 <dotgaensefuesschen>:
    2986:	b40a      	push	{r1, r3}
    2988:	f847 6d04 	str.w	r6, [r7, #-4]!
    298c:	4676      	mov	r6, lr
    298e:	3e01      	subs	r6, #1
    2990:	7833      	ldrb	r3, [r6, #0]
    2992:	2101      	movs	r1, #1
    2994:	3301      	adds	r3, #1
    2996:	4019      	ands	r1, r3
    2998:	185b      	adds	r3, r3, r1
    299a:	eb1e 0e03 	adds.w	lr, lr, r3
    299e:	bc0a      	pop	{r1, r3}
    29a0:	e039      	b.n	2a16 <Code_636>

000029a2 <Dictionary_627>:
    29a2:	000029c8 	andeq	r2, r0, r8, asr #19
    29a6:	63020010 	movwvs	r0, #8208	; 0x2010
    29aa:	488b0022 	stmmi	fp, {r1, r5}

000029ac <Code_627>:
    29ac:	488b      	ldr	r0, [pc, #556]	; (2bdc <Code_660+0x98>)
    29ae:	e7dc      	b.n	296a <Code_621+0x2>

000029b0 <dotcfuesschen>:
    29b0:	f847 6d04 	str.w	r6, [r7, #-4]!
    29b4:	4676      	mov	r6, lr
    29b6:	3e01      	subs	r6, #1
    29b8:	7833      	ldrb	r3, [r6, #0]
    29ba:	2101      	movs	r1, #1
    29bc:	3301      	adds	r3, #1
    29be:	4019      	ands	r1, r3
    29c0:	185b      	adds	r3, r3, r1
    29c2:	eb1e 0e03 	adds.w	lr, lr, r3
    29c6:	4770      	bx	lr

000029c8 <Dictionary_629>:
    29c8:	000029f2 	strdeq	r2, [r0], -r2	; <UNPREDICTABLE>
    29cc:	73020010 	movwvc	r0, #8208	; 0x2010
    29d0:	48830022 	stmmi	r3, {r1, r5}

000029d2 <Code_629>:
    29d2:	4883      	ldr	r0, [pc, #524]	; (2be0 <Code_660+0x9c>)
    29d4:	e7c9      	b.n	296a <Code_621+0x2>

000029d6 <dotsfuesschen>:
    29d6:	f847 6d04 	str.w	r6, [r7, #-4]!
    29da:	4676      	mov	r6, lr
    29dc:	f847 6d04 	str.w	r6, [r7, #-4]!
    29e0:	3e01      	subs	r6, #1
    29e2:	7836      	ldrb	r6, [r6, #0]
    29e4:	2101      	movs	r1, #1
    29e6:	1c73      	adds	r3, r6, #1
    29e8:	4019      	ands	r1, r3
    29ea:	185b      	adds	r3, r3, r1
    29ec:	eb1e 0e03 	adds.w	lr, lr, r3
    29f0:	4770      	bx	lr

000029f2 <Dictionary_633>:
    29f2:	00002a0a 	andeq	r2, r0, sl, lsl #20
    29f6:	63050000 	movwvs	r0, #20480	; 0x5000
    29fa:	746e756f 	strbtvc	r7, [lr], #-1391	; 0x56f

000029fe <Code_633>:
    29fe:	3601      	adds	r6, #1
    2a00:	f847 6d04 	str.w	r6, [r7, #-4]!
    2a04:	3e01      	subs	r6, #1
    2a06:	7836      	ldrb	r6, [r6, #0]
    2a08:	4770      	bx	lr

00002a0a <Dictionary_636>:
    2a0a:	00002a32 	andeq	r2, r0, r2, lsr sl
    2a0e:	63050000 	movwvs	r0, #20480	; 0x5000
    2a12:	65707974 	ldrbvs	r7, [r0, #-2420]!	; 0x974

00002a16 <Code_636>:
    2a16:	b501      	push	{r0, lr}
    2a18:	7830      	ldrb	r0, [r6, #0]
    2a1a:	2800      	cmp	r0, #0
    2a1c:	d007      	beq.n	2a2e <Code_636+0x18>
    2a1e:	3601      	adds	r6, #1
    2a20:	f847 6d04 	str.w	r6, [r7, #-4]!
    2a24:	7836      	ldrb	r6, [r6, #0]
    2a26:	f7ff fdc3 	bl	25b0 <Code_555>
    2a2a:	3801      	subs	r0, #1
    2a2c:	d1f7      	bne.n	2a1e <Code_636+0x8>
    2a2e:	cf40      	ldmia	r7!, {r6}
    2a30:	bd01      	pop	{r0, pc}

00002a32 <Dictionary_640>:
    2a32:	00002a60 	andeq	r2, r0, r0, ror #20
    2a36:	74040000 	strvc	r0, [r4]
    2a3a:	00657079 	rsbeq	r7, r5, r9, ror r0

00002a3e <Code_640>:
    2a3e:	0031      	movs	r1, r6
    2a40:	cf40      	ldmia	r7!, {r6}
    2a42:	0030      	movs	r0, r6
    2a44:	cf40      	ldmia	r7!, {r6}

00002a46 <stype_addr_r0_len_r1>:
    2a46:	b500      	push	{lr}
    2a48:	2900      	cmp	r1, #0
    2a4a:	d008      	beq.n	2a5e <stype_addr_r0_len_r1+0x18>
    2a4c:	2200      	movs	r2, #0
    2a4e:	f847 6d04 	str.w	r6, [r7, #-4]!
    2a52:	5c86      	ldrb	r6, [r0, r2]
    2a54:	f7ff fdac 	bl	25b0 <Code_555>
    2a58:	3201      	adds	r2, #1
    2a5a:	4291      	cmp	r1, r2
    2a5c:	d1f7      	bne.n	2a4e <stype_addr_r0_len_r1+0x8>
    2a5e:	bd00      	pop	{pc}

00002a60 <Dictionary_644>:
    2a60:	00002a9a 	muleq	r0, sl, sl
    2a64:	68040000 	stmdavs	r4, {}	; <UNPREDICTABLE>
    2a68:	002e7865 	eoreq	r7, lr, r5, ror #16

00002a6c <Code_644>:
    2a6c:	b507      	push	{r0, r1, r2, lr}
    2a6e:	0031      	movs	r1, r6
    2a70:	cf40      	ldmia	r7!, {r6}
    2a72:	2020      	movs	r0, #32
    2a74:	220f      	movs	r2, #15
    2a76:	3804      	subs	r0, #4
    2a78:	f847 6d04 	str.w	r6, [r7, #-4]!
    2a7c:	000e      	movs	r6, r1
    2a7e:	40c6      	lsrs	r6, r0
    2a80:	4016      	ands	r6, r2
    2a82:	2e09      	cmp	r6, #9
    2a84:	d901      	bls.n	2a8a <Code_644+0x1e>
    2a86:	3637      	adds	r6, #55	; 0x37
    2a88:	e000      	b.n	2a8c <Code_644+0x20>
    2a8a:	3630      	adds	r6, #48	; 0x30
    2a8c:	f7ff fd90 	bl	25b0 <Code_555>
    2a90:	2800      	cmp	r0, #0
    2a92:	d1f0      	bne.n	2a76 <Code_644+0xa>
    2a94:	f7ff ff26 	bl	28e4 <Code_605>
    2a98:	bd07      	pop	{r0, r1, r2, pc}

00002a9a <Dictionary_647>:
    2a9a:	00002aaa 	andeq	r2, r0, sl, lsr #21
    2a9e:	68030000 	stmdavs	r3, {}	; <UNPREDICTABLE>
    2aa2:	b51f732e 	ldrlt	r7, [pc, #-814]	; 277c <Code_574+0x42>

00002aa4 <Code_647>:
    2aa4:	b51f      	push	{r0, r1, r2, r3, r4, lr}
    2aa6:	4c4f      	ldr	r4, [pc, #316]	; (2be4 <Code_660+0xa0>)
    2aa8:	e00e      	b.n	2ac8 <Code_649+0x4>

00002aaa <Dictionary_648>:
    2aaa:	00002aba 			; <UNDEFINED> instruction: 0x00002aba
    2aae:	75030000 	strvc	r0, [r3]
    2ab2:	b51f732e 	ldrlt	r7, [pc, #-814]	; 278c <Code_574+0x52>

00002ab4 <Code_648>:
    2ab4:	b51f      	push	{r0, r1, r2, r3, r4, lr}
    2ab6:	4c4c      	ldr	r4, [pc, #304]	; (2be8 <Code_660+0xa4>)
    2ab8:	e006      	b.n	2ac8 <Code_649+0x4>

00002aba <Dictionary_649>:
    2aba:	00002b38 	andeq	r2, r0, r8, lsr fp
    2abe:	2e020000 	cdpcs	0, 0, cr0, cr2, cr0, {0}
    2ac2:	b51f0073 	ldrlt	r0, [pc, #-115]	; 2a57 <stype_addr_r0_len_r1+0x11>

00002ac4 <Code_649>:
    2ac4:	b51f      	push	{r0, r1, r2, r3, r4, lr}
    2ac6:	4c49      	ldr	r4, [pc, #292]	; (2bec <Code_660+0xa8>)
    2ac8:	4949      	ldr	r1, [pc, #292]	; (2bf0 <Code_660+0xac>)
    2aca:	1bc9      	subs	r1, r1, r7
    2acc:	0889      	lsrs	r1, r1, #2
    2ace:	4a49      	ldr	r2, [pc, #292]	; (2bf4 <Code_660+0xb0>)
    2ad0:	6810      	ldr	r0, [r2, #0]
    2ad2:	b403      	push	{r0, r1}
    2ad4:	200a      	movs	r0, #10
    2ad6:	6010      	str	r0, [r2, #0]
    2ad8:	f7ff ff55 	bl	2986 <dotgaensefuesschen>
    2adc:	61745308 	cmnvs	r4, r8, lsl #6
    2ae0:	203a6b63 	eorscs	r6, sl, r3, ror #22
    2ae4:	f847005b 			; <UNDEFINED> instruction: 0xf847005b
    2ae8:	6d04      	ldr	r4, [r0, #80]	; 0x50
    2aea:	000e      	movs	r6, r1
    2aec:	f001 fd7f 	bl	45ee <Code_1171>
    2af0:	f7ff ff49 	bl	2986 <dotgaensefuesschen>
    2af4:	00205d02 	eoreq	r5, r0, r2, lsl #26
    2af8:	bc03      	pop	{r0, r1}
    2afa:	4a3e      	ldr	r2, [pc, #248]	; (2bf4 <Code_660+0xb0>)
    2afc:	6010      	str	r0, [r2, #0]
    2afe:	2900      	cmp	r1, #0
    2b00:	d00a      	beq.n	2b18 <Code_649+0x54>
    2b02:	4a3d      	ldr	r2, [pc, #244]	; (2bf8 <Code_660+0xb4>)
    2b04:	6810      	ldr	r0, [r2, #0]
    2b06:	b406      	push	{r1, r2}
    2b08:	f847 6d04 	str.w	r6, [r7, #-4]!
    2b0c:	0006      	movs	r6, r0
    2b0e:	47a0      	blx	r4
    2b10:	bc06      	pop	{r1, r2}
    2b12:	3a04      	subs	r2, #4
    2b14:	3901      	subs	r1, #1
    2b16:	d1f5      	bne.n	2b04 <Code_649+0x40>
    2b18:	f7ff ff35 	bl	2986 <dotgaensefuesschen>
    2b1c:	4f542006 	svcmi	0x00542006
    2b20:	00203a53 	eoreq	r3, r0, r3, asr sl
    2b24:	f847 6d04 	str.w	r6, [r7, #-4]!
    2b28:	0036      	movs	r6, r6
    2b2a:	47a0      	blx	r4
    2b2c:	f7ff ff2b 	bl	2986 <dotgaensefuesschen>
    2b30:	3e2a2004 	cdpcc	0, 2, cr2, cr10, cr4, {0}
    2b34:	bd1f000a 	ldclt	0, cr0, [pc, #-40]	; 2b14 <Code_649+0x50>

00002b38 <Dictionary_660>:
    2b38:	00002bfc 	strdeq	r2, [r0], -ip
    2b3c:	77050000 	strvc	r0, [r5, -r0]
    2b40:	7364726f 	cmnvc	r4, #-268435450	; 0xf0000006

00002b44 <Code_660>:
    2b44:	b500      	push	{lr}
    2b46:	f7ff ff1e 	bl	2986 <dotgaensefuesschen>
    2b4a:	f0000a01 			; <UNDEFINED> instruction: 0xf0000a01
    2b4e:	ff01 f7ff 	vaba.u8	<illegal reg q7.5>, <illegal reg q8.5>, <illegal reg q15.5>
    2b52:	ff19 4109 	vrhadd.u16	d4, d9, d9
    2b56:	65726464 	ldrbvs	r6, [r2, #-1124]!	; 0x464
    2b5a:	203a7373 	eorscs	r7, sl, r3, ror r3
    2b5e:	f847 6d04 	str.w	r6, [r7, #-4]!
    2b62:	f7ff ff83 	bl	2a6c <Code_644>
    2b66:	f7ff ff0e 	bl	2986 <dotgaensefuesschen>
    2b6a:	6e694c06 	cdpvs	12, 6, cr4, cr9, cr6, {0}
    2b6e:	00203a6b 	eoreq	r3, r0, fp, ror #20
    2b72:	f847 6d04 	str.w	r6, [r7, #-4]!
    2b76:	6836      	ldr	r6, [r6, #0]
    2b78:	f7ff ff78 	bl	2a6c <Code_644>
    2b7c:	f7ff ff03 	bl	2986 <dotgaensefuesschen>
    2b80:	616c4607 	cmnvs	ip, r7, lsl #12
    2b84:	203a7367 	eorscs	r7, sl, r7, ror #6
    2b88:	f847 6d04 	str.w	r6, [r7, #-4]!
    2b8c:	88b6      	ldrh	r6, [r6, #4]
    2b8e:	f7ff ff6d 	bl	2a6c <Code_644>
    2b92:	f7ff fef8 	bl	2986 <dotgaensefuesschen>
    2b96:	646f4306 	strbtvs	r4, [pc], #-774	; 2b9e <Code_660+0x5a>
    2b9a:	00203a65 	eoreq	r3, r0, r5, ror #20
    2b9e:	1db0      	adds	r0, r6, #6
    2ba0:	f000 ff10 	bl	39c4 <skipstring>
    2ba4:	f847 6d04 	str.w	r6, [r7, #-4]!
    2ba8:	0006      	movs	r6, r0
    2baa:	f7ff ff5f 	bl	2a6c <Code_644>
    2bae:	f7ff feea 	bl	2986 <dotgaensefuesschen>
    2bb2:	6d614e06 	stclvs	14, cr4, [r1, #-24]!	; 0xffffffe8
    2bb6:	00203a65 	eoreq	r3, r0, r5, ror #20
    2bba:	f847 6d04 	str.w	r6, [r7, #-4]!
    2bbe:	3606      	adds	r6, #6
    2bc0:	f7ff ff29 	bl	2a16 <Code_636>
    2bc4:	f7ff fedf 	bl	2986 <dotgaensefuesschen>
    2bc8:	f0000a01 			; <UNDEFINED> instruction: 0xf0000a01
    2bcc:	fed9 0030 	mrc2	0, 6, r0, cr9, cr0, {1}
    2bd0:	cf40      	ldmia	r7!, {r6}
    2bd2:	d0bd      	beq.n	2b50 <Code_660+0xc>
    2bd4:	cf40      	ldmia	r7!, {r6}
    2bd6:	bd00      	pop	{pc}
    2bd8:	00002986 	andeq	r2, r0, r6, lsl #19
    2bdc:	000029b0 			; <UNDEFINED> instruction: 0x000029b0
    2be0:	000029d6 	ldrdeq	r2, [r0], -r6
    2be4:	00002a6d 	andeq	r2, r0, sp, ror #20
    2be8:	000045df 	ldrdeq	r4, [r0], -pc	; <UNPREDICTABLE>
    2bec:	000045ef 	andeq	r4, r0, pc, ror #11
    2bf0:	2000038c 	andcs	r0, r0, ip, lsl #7
    2bf4:	20017ffc 	strdcs	r7, [r1], -ip
    2bf8:	20000388 	andcs	r0, r0, r8, lsl #7

00002bfc <Dictionary_680>:
    2bfc:	00002d60 	andeq	r2, r0, r0, ror #26
    2c00:	310d0000 	mrscc	r0, (UNDEF: 13)
    2c04:	74696232 	strbtvc	r6, [r9], #-562	; 0x232
    2c08:	6f636e65 	svcvs	0x00636e65
    2c0c:	676e6964 	strbvs	r6, [lr, -r4, ror #18]!

00002c10 <Code_680>:
    2c10:	b50f      	push	{r0, r1, r2, r3, lr}
    2c12:	2eff      	cmp	r6, #255	; 0xff
    2c14:	d804      	bhi.n	2c20 <Code_680+0x10>
    2c16:	f847 6d04 	str.w	r6, [r7, #-4]!
    2c1a:	f05f 36ff 	movs.w	r6, #4294967295
    2c1e:	bd0f      	pop	{r0, r1, r2, r3, pc}
    2c20:	f016 10ff 	ands.w	r0, r6, #16711935	; 0xff00ff
    2c24:	42b0      	cmp	r0, r6
    2c26:	d10e      	bne.n	2c46 <Code_680+0x36>
    2c28:	f64f 71ff 	movw	r1, #65535	; 0xffff
    2c2c:	4008      	ands	r0, r1
    2c2e:	0c31      	lsrs	r1, r6, #16
    2c30:	4281      	cmp	r1, r0
    2c32:	d108      	bne.n	2c46 <Code_680+0x36>
    2c34:	f016 06ff 	ands.w	r6, r6, #255	; 0xff
    2c38:	f456 5680 	orrs.w	r6, r6, #4096	; 0x1000
    2c3c:	f847 6d04 	str.w	r6, [r7, #-4]!
    2c40:	f05f 36ff 	movs.w	r6, #4294967295
    2c44:	bd0f      	pop	{r0, r1, r2, r3, pc}
    2c46:	f016 20ff 	ands.w	r0, r6, #4278255360	; 0xff00ff00
    2c4a:	42b0      	cmp	r0, r6
    2c4c:	d10f      	bne.n	2c6e <Code_680+0x5e>
    2c4e:	f64f 71ff 	movw	r1, #65535	; 0xffff
    2c52:	4008      	ands	r0, r1
    2c54:	0c31      	lsrs	r1, r6, #16
    2c56:	4281      	cmp	r1, r0
    2c58:	d109      	bne.n	2c6e <Code_680+0x5e>
    2c5a:	0a36      	lsrs	r6, r6, #8
    2c5c:	f016 06ff 	ands.w	r6, r6, #255	; 0xff
    2c60:	f456 5600 	orrs.w	r6, r6, #8192	; 0x2000
    2c64:	f847 6d04 	str.w	r6, [r7, #-4]!
    2c68:	f05f 36ff 	movs.w	r6, #4294967295
    2c6c:	bd0f      	pop	{r0, r1, r2, r3, pc}
    2c6e:	22ff      	movs	r2, #255	; 0xff
    2c70:	0031      	movs	r1, r6
    2c72:	4011      	ands	r1, r2
    2c74:	0a30      	lsrs	r0, r6, #8
    2c76:	4010      	ands	r0, r2
    2c78:	4288      	cmp	r0, r1
    2c7a:	d110      	bne.n	2c9e <Code_680+0x8e>
    2c7c:	0c30      	lsrs	r0, r6, #16
    2c7e:	4010      	ands	r0, r2
    2c80:	4288      	cmp	r0, r1
    2c82:	d10c      	bne.n	2c9e <Code_680+0x8e>
    2c84:	0e30      	lsrs	r0, r6, #24
    2c86:	4010      	ands	r0, r2
    2c88:	4288      	cmp	r0, r1
    2c8a:	d108      	bne.n	2c9e <Code_680+0x8e>
    2c8c:	f016 06ff 	ands.w	r6, r6, #255	; 0xff
    2c90:	f456 5640 	orrs.w	r6, r6, #12288	; 0x3000
    2c94:	f847 6d04 	str.w	r6, [r7, #-4]!
    2c98:	f05f 36ff 	movs.w	r6, #4294967295
    2c9c:	bd0f      	pop	{r0, r1, r2, r3, pc}
    2c9e:	0030      	movs	r0, r6
    2ca0:	2100      	movs	r1, #0
    2ca2:	3101      	adds	r1, #1
    2ca4:	1800      	adds	r0, r0, r0
    2ca6:	f150 0000 	adcs.w	r0, r0, #0
    2caa:	f07f 027f 	mvns.w	r2, #127	; 0x7f
    2cae:	4002      	ands	r2, r0
    2cb0:	2a80      	cmp	r2, #128	; 0x80
    2cb2:	d005      	beq.n	2cc0 <Code_680+0xb0>
    2cb4:	291f      	cmp	r1, #31
    2cb6:	d3f4      	bcc.n	2ca2 <Code_680+0x92>
    2cb8:	f847 6d04 	str.w	r6, [r7, #-4]!
    2cbc:	2600      	movs	r6, #0
    2cbe:	bd0f      	pop	{r0, r1, r2, r3, pc}
    2cc0:	2908      	cmp	r1, #8
    2cc2:	d3f9      	bcc.n	2cb8 <Code_680+0xa8>
    2cc4:	0006      	movs	r6, r0
    2cc6:	f036 0680 	bics.w	r6, r6, #128	; 0x80
    2cca:	f011 0001 	ands.w	r0, r1, #1
    2cce:	01c0      	lsls	r0, r0, #7
    2cd0:	4306      	orrs	r6, r0
    2cd2:	f011 000e 	ands.w	r0, r1, #14
    2cd6:	02c0      	lsls	r0, r0, #11
    2cd8:	4306      	orrs	r6, r0
    2cda:	f011 0010 	ands.w	r0, r1, #16
    2cde:	0580      	lsls	r0, r0, #22
    2ce0:	4306      	orrs	r6, r0
    2ce2:	f847 6d04 	str.w	r6, [r7, #-4]!
    2ce6:	f05f 36ff 	movs.w	r6, #4294967295
    2cea:	bd0f      	pop	{r0, r1, r2, r3, pc}

00002cec <movwkomma>:
    2cec:	f847 6d04 	str.w	r6, [r7, #-4]!
    2cf0:	f8df 6698 	ldr.w	r6, [pc, #1688]	; 338c <setflags_ram+0x1e>
    2cf4:	f45f 4170 	movs.w	r1, #61440	; 0xf000
    2cf8:	ea10 0201 	ands.w	r2, r0, r1
    2cfc:	0112      	lsls	r2, r2, #4
    2cfe:	4316      	orrs	r6, r2
    2d00:	f45f 6100 	movs.w	r1, #2048	; 0x800
    2d04:	ea10 0201 	ands.w	r2, r0, r1
    2d08:	03d2      	lsls	r2, r2, #15
    2d0a:	4316      	orrs	r6, r2
    2d0c:	f45f 61e0 	movs.w	r1, #1792	; 0x700
    2d10:	ea10 0201 	ands.w	r2, r0, r1
    2d14:	0112      	lsls	r2, r2, #4
    2d16:	4316      	orrs	r6, r2
    2d18:	21ff      	movs	r1, #255	; 0xff
    2d1a:	ea10 0201 	ands.w	r2, r0, r1
    2d1e:	4316      	orrs	r6, r2
    2d20:	431e      	orrs	r6, r3
    2d22:	e3be      	b.n	34a2 <Code_826>

00002d24 <movtkomma>:
    2d24:	f847 6d04 	str.w	r6, [r7, #-4]!
    2d28:	f8df 6664 	ldr.w	r6, [pc, #1636]	; 3390 <setflags_ram+0x22>
    2d2c:	f05f 4170 	movs.w	r1, #4026531840	; 0xf0000000
    2d30:	ea10 0201 	ands.w	r2, r0, r1
    2d34:	0b12      	lsrs	r2, r2, #12
    2d36:	4316      	orrs	r6, r2
    2d38:	f05f 6100 	movs.w	r1, #134217728	; 0x8000000
    2d3c:	ea10 0201 	ands.w	r2, r0, r1
    2d40:	0852      	lsrs	r2, r2, #1
    2d42:	4316      	orrs	r6, r2
    2d44:	f05f 61e0 	movs.w	r1, #117440512	; 0x7000000
    2d48:	ea10 0201 	ands.w	r2, r0, r1
    2d4c:	0b12      	lsrs	r2, r2, #12
    2d4e:	4316      	orrs	r6, r2
    2d50:	f45f 017f 	movs.w	r1, #16711680	; 0xff0000
    2d54:	ea10 0201 	ands.w	r2, r0, r1
    2d58:	0c12      	lsrs	r2, r2, #16
    2d5a:	4316      	orrs	r6, r2
    2d5c:	431e      	orrs	r6, r3
    2d5e:	e3a0      	b.n	34a2 <Code_826>

00002d60 <Dictionary_689>:
    2d60:	00002dc6 	andeq	r2, r0, r6, asr #27
    2d64:	72100000 	andsvc	r0, r0, #0
    2d68:	73696765 	cmnvc	r9, #26476544	; 0x1940000
    2d6c:	6c726574 	cfldr64vs	mvdx6, [r2], #-464	; 0xfffffe30
    2d70:	72657469 	rsbvc	r7, r5, #1761607680	; 0x69000000
    2d74:	002c6c61 	eoreq	r6, ip, r1, ror #24

00002d78 <Code_689>:
    2d78:	b50f      	push	{r0, r1, r2, r3, lr}
    2d7a:	0033      	movs	r3, r6
    2d7c:	cf40      	ldmia	r7!, {r6}
    2d7e:	021b      	lsls	r3, r3, #8
    2d80:	2eff      	cmp	r6, #255	; 0xff
    2d82:	d805      	bhi.n	2d90 <Code_689+0x18>
    2d84:	f456 5600 	orrs.w	r6, r6, #8192	; 0x2000
    2d88:	431e      	orrs	r6, r3
    2d8a:	f000 fb5b 	bl	3444 <Code_817>
    2d8e:	bd0f      	pop	{r0, r1, r2, r3, pc}
    2d90:	f7ff ff3e 	bl	2c10 <Code_680>
    2d94:	2e00      	cmp	r6, #0
    2d96:	cf40      	ldmia	r7!, {r6}
    2d98:	d006      	beq.n	2da8 <Code_689+0x30>
    2d9a:	f8df 05f8 	ldr.w	r0, [pc, #1528]	; 3394 <setflags_ram+0x26>
    2d9e:	4306      	orrs	r6, r0
    2da0:	431e      	orrs	r6, r3
    2da2:	f000 fb7e 	bl	34a2 <Code_826>
    2da6:	bd0f      	pop	{r0, r1, r2, r3, pc}
    2da8:	43f6      	mvns	r6, r6
    2daa:	f7ff ff31 	bl	2c10 <Code_680>
    2dae:	2e00      	cmp	r6, #0
    2db0:	cf40      	ldmia	r7!, {r6}
    2db2:	d006      	beq.n	2dc2 <Code_689+0x4a>
    2db4:	f8df 05e0 	ldr.w	r0, [pc, #1504]	; 3398 <setflags_ram+0x2a>
    2db8:	4306      	orrs	r6, r0
    2dba:	431e      	orrs	r6, r3
    2dbc:	f000 fb71 	bl	34a2 <Code_826>
    2dc0:	bd0f      	pop	{r0, r1, r2, r3, pc}
    2dc2:	43f6      	mvns	r6, r6
    2dc4:	e00b      	b.n	2dde <movwmovt_register_r3>

00002dc6 <Dictionary_693>:
    2dc6:	00002e26 	andeq	r2, r0, r6, lsr #28
    2dca:	6d090000 	stcvs	0, cr0, [r9]
    2dce:	6d77766f 	ldclvs	6, cr7, [r7, #-444]!	; 0xfffffe44
    2dd2:	2c74766f 	ldclcs	6, cr7, [r4], #-444	; 0xfffffe44

00002dd6 <Code_693>:
    2dd6:	b50f      	push	{r0, r1, r2, r3, lr}
    2dd8:	0033      	movs	r3, r6
    2dda:	cf40      	ldmia	r7!, {r6}
    2ddc:	021b      	lsls	r3, r3, #8

00002dde <movwmovt_register_r3>:
    2dde:	0030      	movs	r0, r6
    2de0:	cf40      	ldmia	r7!, {r6}
    2de2:	f7ff ff83 	bl	2cec <movwkomma>
    2de6:	f64f 71ff 	movw	r1, #65535	; 0xffff
    2dea:	ea10 4001 	ands.w	r0, r0, r1, lsl #16
    2dee:	d001      	beq.n	2df4 <movwmovt_register_r3+0x16>
    2df0:	f7ff ff98 	bl	2d24 <movtkomma>
    2df4:	bd0f      	pop	{r0, r1, r2, r3, pc}

00002df6 <callkommalang>:
    2df6:	b50f      	push	{r0, r1, r2, r3, lr}
    2df8:	3601      	adds	r6, #1
    2dfa:	0030      	movs	r0, r6
    2dfc:	cf40      	ldmia	r7!, {r6}
    2dfe:	2300      	movs	r3, #0
    2e00:	f7ff ff74 	bl	2cec <movwkomma>
    2e04:	f7ff ff8e 	bl	2d24 <movtkomma>
    2e08:	e006      	b.n	2e18 <callkommakurz_intern>

00002e0a <callkommakurz>:
    2e0a:	b50f      	push	{r0, r1, r2, r3, lr}
    2e0c:	3601      	adds	r6, #1
    2e0e:	f847 6d04 	str.w	r6, [r7, #-4]!
    2e12:	2600      	movs	r6, #0
    2e14:	f7ff ffb0 	bl	2d78 <Code_689>

00002e18 <callkommakurz_intern>:
    2e18:	f847 6d04 	str.w	r6, [r7, #-4]!
    2e1c:	f244 7680 	movw	r6, #18304	; 0x4780
    2e20:	f000 fb10 	bl	3444 <Code_817>
    2e24:	bd0f      	pop	{r0, r1, r2, r3, pc}

00002e26 <Dictionary_701>:
    2e26:	00002e8c 	andeq	r2, r0, ip, lsl #29
    2e2a:	63050000 	movwvs	r0, #20480	; 0x5000
    2e2e:	2c6c6c61 	stclcs	12, cr6, [ip], #-388	; 0xfffffe7c

00002e32 <Code_701>:
    2e32:	b50f      	push	{r0, r1, r2, r3, lr}
    2e34:	0033      	movs	r3, r6
    2e36:	f000 fe68 	bl	3b0a <Code_935>
    2e3a:	0030      	movs	r0, r6
    2e3c:	cf40      	ldmia	r7!, {r6}
    2e3e:	1a1b      	subs	r3, r3, r0
    2e40:	3b04      	subs	r3, #4
    2e42:	f8df 1558 	ldr.w	r1, [pc, #1368]	; 339c <setflags_ram+0x2e>
    2e46:	4019      	ands	r1, r3
    2e48:	2900      	cmp	r1, #0
    2e4a:	d006      	beq.n	2e5a <Code_701+0x28>
    2e4c:	f8df 2550 	ldr.w	r2, [pc, #1360]	; 33a0 <setflags_ram+0x32>
    2e50:	4291      	cmp	r1, r2
    2e52:	d002      	beq.n	2e5a <Code_701+0x28>
    2e54:	e8bd 400f 	ldmia.w	sp!, {r0, r1, r2, r3, lr}
    2e58:	e7d7      	b.n	2e0a <callkommakurz>
    2e5a:	cf40      	ldmia	r7!, {r6}
    2e5c:	085b      	lsrs	r3, r3, #1
    2e5e:	f8df 0544 	ldr.w	r0, [pc, #1348]	; 33a4 <setflags_ram+0x36>
    2e62:	f240 71ff 	movw	r1, #2047	; 0x7ff
    2e66:	4019      	ands	r1, r3
    2e68:	4308      	orrs	r0, r1
    2e6a:	0adb      	lsrs	r3, r3, #11
    2e6c:	f240 31ff 	movw	r1, #1023	; 0x3ff
    2e70:	4019      	ands	r1, r3
    2e72:	0409      	lsls	r1, r1, #16
    2e74:	4308      	orrs	r0, r1
    2e76:	0a9b      	lsrs	r3, r3, #10
    2e78:	f013 0101 	ands.w	r1, r3, #1
    2e7c:	0689      	lsls	r1, r1, #26
    2e7e:	4308      	orrs	r0, r1
    2e80:	f847 6d04 	str.w	r6, [r7, #-4]!
    2e84:	0006      	movs	r6, r0
    2e86:	f000 fb0c 	bl	34a2 <Code_826>
    2e8a:	bd0f      	pop	{r0, r1, r2, r3, pc}

00002e8c <Dictionary_706>:
    2e8c:	00002ec2 	andeq	r2, r0, r2, asr #29
    2e90:	6c080000 	stcvs	0, cr0, [r8], {0}
    2e94:	72657469 	rsbvc	r7, r5, #1761607680	; 0x69000000
    2e98:	002c6c61 	eoreq	r6, ip, r1, ror #24

00002e9c <Code_706>:
    2e9c:	b508      	push	{r3, lr}
    2e9e:	f847 6d04 	str.w	r6, [r7, #-4]!
    2ea2:	f64f 0647 	movw	r6, #63559	; 0xf847
    2ea6:	f000 facd 	bl	3444 <Code_817>
    2eaa:	f847 6d04 	str.w	r6, [r7, #-4]!
    2eae:	f646 5604 	movw	r6, #27908	; 0x6d04
    2eb2:	f000 fac7 	bl	3444 <Code_817>
    2eb6:	f847 6d04 	str.w	r6, [r7, #-4]!
    2eba:	2606      	movs	r6, #6
    2ebc:	f7ff ff5c 	bl	2d78 <Code_689>
    2ec0:	bd08      	pop	{r3, pc}

00002ec2 <Dictionary_713>:
    2ec2:	00002ee6 	andeq	r2, r0, r6, ror #29
    2ec6:	63060000 	movwvs	r0, #24576	; 0x6000
    2eca:	74616572 	strbtvc	r6, [r1], #-1394	; 0x572
    2ece:	b5000065 	strlt	r0, [r0, #-101]	; 0x65

00002ed0 <Code_713>:
    2ed0:	b500      	push	{lr}
    2ed2:	f000 f83d 	bl	2f50 <Code_718>
    2ed6:	f642 7003 	movw	r0, #12035	; 0x2f03
    2eda:	4780      	blx	r0
    2edc:	f847 6d04 	str.w	r6, [r7, #-4]!
    2ee0:	f1be 0601 	subs.w	r6, lr, #1
    2ee4:	bd00      	pop	{pc}

00002ee6 <Dictionary_715>:
    2ee6:	00002f42 	andeq	r2, r0, r2, asr #30
    2eea:	64050020 	strvs	r0, [r5], #-32
    2eee:	3e73656f 	cdpcc	5, 7, cr6, cr3, cr15, {3}

00002ef2 <Code_715>:
    2ef2:	f642 7003 	movw	r0, #12035	; 0x2f03
    2ef6:	4780      	blx	r0
    2ef8:	f847 6d04 	str.w	r6, [r7, #-4]!
    2efc:	f1be 0601 	subs.w	r6, lr, #1
    2f00:	4770      	bx	lr

00002f02 <dodoes>:
    2f02:	f847 6d04 	str.w	r6, [r7, #-4]!
    2f06:	f1be 0601 	subs.w	r6, lr, #1
    2f0a:	f8df 249c 	ldr.w	r2, [pc, #1180]	; 33a8 <setflags_ram+0x3a>
    2f0e:	6813      	ldr	r3, [r2, #0]
    2f10:	f8df 1498 	ldr.w	r1, [pc, #1176]	; 33ac <setflags_ram+0x3e>
    2f14:	6809      	ldr	r1, [r1, #0]
    2f16:	f8df 0490 	ldr.w	r0, [pc, #1168]	; 33a8 <setflags_ram+0x3a>
    2f1a:	4283      	cmp	r3, r0
    2f1c:	d205      	bcs.n	2f2a <dodoes_ram>
    2f1e:	200f      	movs	r0, #15
    2f20:	4008      	ands	r0, r1
    2f22:	2806      	cmp	r0, #6
    2f24:	d005      	beq.n	2f32 <dodoes_ram+0x8>
    2f26:	3102      	adds	r1, #2
    2f28:	e7f9      	b.n	2f1e <dodoes+0x1c>

00002f2a <dodoes_ram>:
    2f2a:	2002      	movs	r0, #2
    2f2c:	4008      	ands	r0, r1
    2f2e:	d000      	beq.n	2f32 <dodoes_ram+0x8>
    2f30:	3102      	adds	r1, #2
    2f32:	3102      	adds	r1, #2
    2f34:	6011      	str	r1, [r2, #0]
    2f36:	f7ff ff5e 	bl	2df6 <callkommalang>
    2f3a:	6013      	str	r3, [r2, #0]
    2f3c:	f000 f9d8 	bl	32f0 <Code_801>
    2f40:	bd00      	pop	{pc}

00002f42 <Dictionary_718>:
    2f42:	00002fac 	andeq	r2, r0, ip, lsr #31
    2f46:	3c070000 	stccc	0, cr0, [r7], {0}
    2f4a:	6c697562 	cfstr64vs	mvdx7, [r9], #-392	; 0xfffffe78
    2f4e:	b5007364 	strlt	r7, [r0, #-868]	; 0x364

00002f50 <Code_718>:
    2f50:	b500      	push	{lr}
    2f52:	f000 fb83 	bl	365c <Code_848>
    2f56:	f8df 0450 	ldr.w	r0, [pc, #1104]	; 33a8 <setflags_ram+0x3a>
    2f5a:	6801      	ldr	r1, [r0, #0]
    2f5c:	f8df 2448 	ldr.w	r2, [pc, #1096]	; 33a8 <setflags_ram+0x3a>
    2f60:	4291      	cmp	r1, r2
    2f62:	d20c      	bcs.n	2f7e <builds_ram>
    2f64:	f000 fdd1 	bl	3b0a <Code_935>
    2f68:	200f      	movs	r0, #15
    2f6a:	4006      	ands	r6, r0
    2f6c:	2e06      	cmp	r6, #6
    2f6e:	cf40      	ldmia	r7!, {r6}
    2f70:	d010      	beq.n	2f94 <builds_ram+0x16>
    2f72:	f847 6d04 	str.w	r6, [r7, #-4]!
    2f76:	2636      	movs	r6, #54	; 0x36
    2f78:	f000 fa64 	bl	3444 <Code_817>
    2f7c:	e7f2      	b.n	2f64 <Code_718+0x14>

00002f7e <builds_ram>:
    2f7e:	f000 fdc4 	bl	3b0a <Code_935>
    2f82:	2002      	movs	r0, #2
    2f84:	4006      	ands	r6, r0
    2f86:	cf40      	ldmia	r7!, {r6}
    2f88:	d004      	beq.n	2f94 <builds_ram+0x16>
    2f8a:	f847 6d04 	str.w	r6, [r7, #-4]!
    2f8e:	2636      	movs	r6, #54	; 0x36
    2f90:	f000 fa58 	bl	3444 <Code_817>
    2f94:	f847 6d04 	str.w	r6, [r7, #-4]!
    2f98:	f24b 5600 	movw	r6, #46336	; 0xb500
    2f9c:	f000 fa52 	bl	3444 <Code_817>
    2fa0:	f847 6d04 	str.w	r6, [r7, #-4]!
    2fa4:	260a      	movs	r6, #10
    2fa6:	f000 fabf 	bl	3528 <Code_837>
    2faa:	bd00      	pop	{pc}

00002fac <Dictionary_729>:
    2fac:	00002fb8 			; <UNDEFINED> instruction: 0x00002fb8
    2fb0:	5b030050 	blpl	c30f8 <BIT19+0x430f8>
    2fb4:	e0035d27 	and	r5, r3, r7, lsr #26

00002fb6 <Code_729>:
    2fb6:	e003      	b.n	2fc0 <Code_730>

00002fb8 <Dictionary_730>:
    2fb8:	00002fd0 	ldrdeq	r2, [r0], -r0
    2fbc:	27010000 	strcs	r0, [r1, -r0]

00002fc0 <Code_730>:
    2fc0:	b500      	push	{lr}
    2fc2:	f001 f93b 	bl	423c <Code_1103>
    2fc6:	f000 fd3b 	bl	3a40 <find_not_found>
    2fca:	0030      	movs	r0, r6
    2fcc:	cf40      	ldmia	r7!, {r6}
    2fce:	bd00      	pop	{pc}

00002fd0 <Dictionary_732>:
    2fd0:	00003006 	andeq	r3, r0, r6
    2fd4:	70080030 	andvc	r0, r8, r0, lsr r0
    2fd8:	7074736f 	rsbsvc	r7, r4, pc, ror #6
    2fdc:	00656e6f 	rsbeq	r6, r5, pc, ror #28

00002fe0 <Code_732>:
    2fe0:	b500      	push	{lr}
    2fe2:	f7ff ffed 	bl	2fc0 <Code_730>
    2fe6:	f847 6d04 	str.w	r6, [r7, #-4]!
    2fea:	0006      	movs	r6, r0
    2fec:	6839      	ldr	r1, [r7, #0]
    2fee:	603e      	str	r6, [r7, #0]
    2ff0:	460e      	mov	r6, r1
    2ff2:	f7ff ff53 	bl	2e9c <Code_706>
    2ff6:	f7ff ff51 	bl	2e9c <Code_706>
    2ffa:	f847 6d04 	str.w	r6, [r7, #-4]!
    2ffe:	4eec      	ldr	r6, [pc, #944]	; (33b0 <setflags_ram+0x42>)
    3000:	f7ff ff17 	bl	2e32 <Code_701>
    3004:	bd00      	pop	{pc}

00003006 <Dictionary_737>:
    3006:	0000305c 	andeq	r3, r0, ip, asr r0
    300a:	69070000 	stmdbvs	r7, {}	; <UNPREDICTABLE>
    300e:	6e696c6e 	cdpvs	12, 6, cr6, cr9, cr14, {3}
    3012:	b5002c65 	strlt	r2, [r0, #-3173]	; 0xc65

00003014 <Code_737>:
    3014:	b500      	push	{lr}
    3016:	f24b 5100 	movw	r1, #46336	; 0xb500
    301a:	f64b 5200 	movw	r2, #48384	; 0xbd00
    301e:	f244 7370 	movw	r3, #18288	; 0x4770
    3022:	8830      	ldrh	r0, [r6, #0]
    3024:	4288      	cmp	r0, r1
    3026:	d008      	beq.n	303a <Code_737+0x26>
    3028:	4290      	cmp	r0, r2
    302a:	d008      	beq.n	303e <Code_737+0x2a>
    302c:	4298      	cmp	r0, r3
    302e:	d006      	beq.n	303e <Code_737+0x2a>
    3030:	f847 6d04 	str.w	r6, [r7, #-4]!
    3034:	0006      	movs	r6, r0
    3036:	f000 fa05 	bl	3444 <Code_817>
    303a:	3602      	adds	r6, #2
    303c:	e7f1      	b.n	3022 <Code_737+0xe>
    303e:	cf40      	ldmia	r7!, {r6}
    3040:	bd00      	pop	{pc}

00003042 <suchedefinitionsende>:
    3042:	b40e      	push	{r1, r2, r3}
    3044:	f64b 5200 	movw	r2, #48384	; 0xbd00
    3048:	f244 7370 	movw	r3, #18288	; 0x4770
    304c:	8801      	ldrh	r1, [r0, #0]
    304e:	3002      	adds	r0, #2
    3050:	4291      	cmp	r1, r2
    3052:	d001      	beq.n	3058 <suchedefinitionsende+0x16>
    3054:	4299      	cmp	r1, r3
    3056:	d1f9      	bne.n	304c <suchedefinitionsende+0xa>
    3058:	bc0e      	pop	{r1, r2, r3}
    305a:	4770      	bx	lr

0000305c <Dictionary_741>:
    305c:	00003072 	andeq	r3, r0, r2, ror r0
    3060:	72040000 	andvc	r0, r4, #0
    3064:	002c7465 	eoreq	r7, ip, r5, ror #8

00003068 <Code_741>:
    3068:	f847 6d04 	str.w	r6, [r7, #-4]!
    306c:	f64b 5600 	movw	r6, #48384	; 0xbd00
    3070:	e1e8      	b.n	3444 <Code_817>

00003072 <Dictionary_744>:
    3072:	00003080 	andeq	r3, r0, r0, lsl #1
    3076:	65040030 	strvs	r0, [r4, #-48]	; 0x30
    307a:	00746978 	rsbseq	r6, r4, r8, ror r9

0000307e <Code_744>:
    307e:	e7f3      	b.n	3068 <Code_741>

00003080 <Dictionary_745>:
    3080:	00003098 	muleq	r0, r8, r0
    3084:	72070030 	andvc	r0, r7, #48	; 0x30
    3088:	72756365 	rsbsvc	r6, r5, #-1811939327	; 0x94000001
    308c:	f8476573 			; <UNDEFINED> instruction: 0xf8476573

0000308e <Code_745>:
    308e:	f847 6d04 	str.w	r6, [r7, #-4]!
    3092:	4ec6      	ldr	r6, [pc, #792]	; (33ac <setflags_ram+0x3e>)
    3094:	6836      	ldr	r6, [r6, #0]
    3096:	e6cc      	b.n	2e32 <Code_701>

00003098 <Dictionary_747>:
    3098:	000030b0 	strheq	r3, [r0], -r0
    309c:	73050081 	movwvc	r0, #20609	; 0x5081
    30a0:	65746174 	ldrbvs	r6, [r4, #-372]!	; 0x174

000030a4 <Code_747>:
    30a4:	f847 6d04 	str.w	r6, [r7, #-4]!
    30a8:	4ec2      	ldr	r6, [pc, #776]	; (33b4 <setflags_ram+0x46>)
    30aa:	4770      	bx	lr
    30ac:	00000000 	andeq	r0, r0, r0

000030b0 <Dictionary_750>:
    30b0:	000030c2 	andeq	r3, r0, r2, asr #1
    30b4:	5d010000 	stcpl	0, cr0, [r1]

000030b8 <Code_750>:
    30b8:	48be      	ldr	r0, [pc, #760]	; (33b4 <setflags_ram+0x46>)
    30ba:	2100      	movs	r1, #0
    30bc:	43c9      	mvns	r1, r1
    30be:	6001      	str	r1, [r0, #0]
    30c0:	4770      	bx	lr

000030c2 <Dictionary_751>:
    30c2:	000030d2 	ldrdeq	r3, [r0], -r2
    30c6:	5b010010 	blpl	4310e <BIT18+0x310e>

000030ca <Code_751>:
    30ca:	48ba      	ldr	r0, [pc, #744]	; (33b4 <setflags_ram+0x46>)
    30cc:	2100      	movs	r1, #0
    30ce:	6001      	str	r1, [r0, #0]
    30d0:	4770      	bx	lr

000030d2 <Dictionary_752>:
    30d2:	000030f2 	strdeq	r3, [r0], -r2
    30d6:	3a010000 	bcc	430de <BIT18+0x30de>

000030da <Code_752>:
    30da:	b500      	push	{lr}
    30dc:	48b6      	ldr	r0, [pc, #728]	; (33b8 <setflags_ram+0x4a>)
    30de:	6007      	str	r7, [r0, #0]
    30e0:	f000 fabc 	bl	365c <Code_848>
    30e4:	48b3      	ldr	r0, [pc, #716]	; (33b4 <setflags_ram+0x46>)
    30e6:	2101      	movs	r1, #1
    30e8:	6001      	str	r1, [r0, #0]
    30ea:	48b4      	ldr	r0, [pc, #720]	; (33bc <setflags_ram+0x4e>)
    30ec:	2100      	movs	r1, #0
    30ee:	6001      	str	r1, [r0, #0]
    30f0:	bd00      	pop	{pc}

000030f2 <Dictionary_753>:
    30f2:	00003164 	andeq	r3, r0, r4, ror #2
    30f6:	3b010830 	blcc	451be <BIT18+0x51be>

000030fa <Code_753>:
    30fa:	b500      	push	{lr}
    30fc:	48ae      	ldr	r0, [pc, #696]	; (33b8 <setflags_ram+0x4a>)
    30fe:	6801      	ldr	r1, [r0, #0]
    3100:	42b9      	cmp	r1, r7
    3102:	d00e      	beq.n	3122 <Code_753+0x28>
    3104:	f7ff fc3f 	bl	2986 <dotgaensefuesschen>
    3108:	74532015 	ldrbvc	r2, [r3], #-21
    310c:	206b6361 	rsbcs	r6, fp, r1, ror #6
    3110:	20746f6e 	rsbscs	r6, r4, lr, ror #30
    3114:	616c6162 	cmnvs	ip, r2, ror #2
    3118:	6465636e 	strbtvs	r6, [r5], #-878	; 0x36e
    311c:	f0010a2e 			; <UNDEFINED> instruction: 0xf0010a2e
    3120:	bbfe      	cbnz	r6, 31a2 <Code_766+0x4>
    3122:	48a4      	ldr	r0, [pc, #656]	; (33b4 <setflags_ram+0x46>)
    3124:	6800      	ldr	r0, [r0, #0]
    3126:	1c41      	adds	r1, r0, #1
    3128:	d010      	beq.n	314c <Code_753+0x52>
    312a:	280b      	cmp	r0, #11
    312c:	d805      	bhi.n	313a <Code_753+0x40>
    312e:	f847 6d04 	str.w	r6, [r7, #-4]!
    3132:	f640 0620 	movw	r6, #2080	; 0x820
    3136:	f000 f90e 	bl	3356 <Code_807>
    313a:	f847 6d04 	str.w	r6, [r7, #-4]!
    313e:	f244 7670 	movw	r6, #18288	; 0x4770
    3142:	f000 f97f 	bl	3444 <Code_817>
    3146:	f001 faf0 	bl	472a <inline_cache_schreiben>
    314a:	e005      	b.n	3158 <Code_753+0x5e>
    314c:	f847 6d04 	str.w	r6, [r7, #-4]!
    3150:	f64b 5600 	movw	r6, #48384	; 0xbd00
    3154:	f000 f976 	bl	3444 <Code_817>
    3158:	f000 f8ca 	bl	32f0 <Code_801>
    315c:	4895      	ldr	r0, [pc, #596]	; (33b4 <setflags_ram+0x46>)
    315e:	2100      	movs	r1, #0
    3160:	6001      	str	r1, [r0, #0]
    3162:	bd00      	pop	{pc}

00003164 <Dictionary_761>:
    3164:	00003178 	andeq	r3, r0, r8, ror r1
    3168:	65070000 	strvs	r0, [r7]
    316c:	75636578 	strbvc	r6, [r3, #-1400]!	; 0x578
    3170:	00306574 	eorseq	r6, r0, r4, ror r5

00003172 <Code_761>:
    3172:	0030      	movs	r0, r6
    3174:	cf40      	ldmia	r7!, {r6}
    3176:	4687      	mov	pc, r0

00003178 <Dictionary_763>:
    3178:	00003190 	muleq	r0, r0, r1
    317c:	69090010 	stmdbvs	r9, {r4}
    3180:	64656d6d 	strbtvs	r6, [r5], #-3437	; 0xd6d
    3184:	65746169 	ldrbvs	r6, [r4, #-361]!	; 0x169

00003188 <Code_763>:
    3188:	f847 6d04 	str.w	r6, [r7, #-4]!
    318c:	2610      	movs	r6, #16
    318e:	e0e2      	b.n	3356 <Code_807>

00003190 <Dictionary_766>:
    3190:	000031a6 	andeq	r3, r0, r6, lsr #3
    3194:	69060050 	stmdbvs	r6, {r4, r6}
    3198:	6e696c6e 	cdpvs	12, 6, cr6, cr9, cr14, {3}
    319c:	f8470065 			; <UNDEFINED> instruction: 0xf8470065

0000319e <Code_766>:
    319e:	f847 6d04 	str.w	r6, [r7, #-4]!
    31a2:	2620      	movs	r6, #32
    31a4:	e0d7      	b.n	3356 <Code_807>

000031a6 <Dictionary_769>:
    31a6:	000031c0 	andeq	r3, r0, r0, asr #3
    31aa:	630b0010 	movwvs	r0, #45072	; 0xb010
    31ae:	69706d6f 	ldmdbvs	r0!, {r0, r1, r2, r3, r5, r6, r8, sl, fp, sp, lr}^
    31b2:	6e6f656c 	cdpvs	5, 6, cr6, cr15, cr12, {3}
    31b6:	f847796c 			; <UNDEFINED> instruction: 0xf847796c

000031b8 <Code_769>:
    31b8:	f847 6d04 	str.w	r6, [r7, #-4]!
    31bc:	2630      	movs	r6, #48	; 0x30
    31be:	e0ca      	b.n	3356 <Code_807>

000031c0 <Dictionary_772>:
    31c0:	000031da 	ldrdeq	r3, [r0], -sl
    31c4:	300a0050 	andcc	r0, sl, r0, asr r0
    31c8:	6c6f662d 	stclvs	6, cr6, [pc], #-180	; 311c <Code_753+0x22>
    31cc:	6c626164 	stfvse	f6, [r2], #-400	; 0xfffffe70
    31d0:	f8470065 			; <UNDEFINED> instruction: 0xf8470065

000031d2 <Code_772>:
    31d2:	f847 6d04 	str.w	r6, [r7, #-4]!
    31d6:	2640      	movs	r6, #64	; 0x40
    31d8:	e0bd      	b.n	3356 <Code_807>

000031da <Dictionary_775>:
    31da:	000031f4 	strdeq	r3, [r0], -r4
    31de:	310a0050 	qaddcc	r0, r0, sl
    31e2:	6c6f662d 	stclvs	6, cr6, [pc], #-180	; 3134 <Code_753+0x3a>
    31e6:	6c626164 	stfvse	f6, [r2], #-400	; 0xfffffe70
    31ea:	f8470065 			; <UNDEFINED> instruction: 0xf8470065

000031ec <Code_775>:
    31ec:	f847 6d04 	str.w	r6, [r7, #-4]!
    31f0:	2641      	movs	r6, #65	; 0x41
    31f2:	e0b0      	b.n	3356 <Code_807>

000031f4 <Dictionary_778>:
    31f4:	0000320e 	andeq	r3, r0, lr, lsl #4
    31f8:	320a0050 	andcc	r0, sl, #80	; 0x50
    31fc:	6c6f662d 	stclvs	6, cr6, [pc], #-180	; 3150 <Code_753+0x56>
    3200:	6c626164 	stfvse	f6, [r2], #-400	; 0xfffffe70
    3204:	f8470065 			; <UNDEFINED> instruction: 0xf8470065

00003206 <Code_778>:
    3206:	f847 6d04 	str.w	r6, [r7, #-4]!
    320a:	2642      	movs	r6, #66	; 0x42
    320c:	e0a3      	b.n	3356 <Code_807>

0000320e <Dictionary_781>:
    320e:	00003228 	andeq	r3, r0, r8, lsr #4
    3212:	330a0050 	movwcc	r0, #41040	; 0xa050
    3216:	6c6f662d 	stclvs	6, cr6, [pc], #-180	; 3168 <Dictionary_761+0x4>
    321a:	6c626164 	stfvse	f6, [r2], #-400	; 0xfffffe70
    321e:	f8470065 			; <UNDEFINED> instruction: 0xf8470065

00003220 <Code_781>:
    3220:	f847 6d04 	str.w	r6, [r7, #-4]!
    3224:	2643      	movs	r6, #67	; 0x43
    3226:	e096      	b.n	3356 <Code_807>

00003228 <Dictionary_784>:
    3228:	00003242 	andeq	r3, r0, r2, asr #4
    322c:	340a0050 	strcc	r0, [sl], #-80	; 0x50
    3230:	6c6f662d 	stclvs	6, cr6, [pc], #-180	; 3184 <Dictionary_763+0xc>
    3234:	6c626164 	stfvse	f6, [r2], #-400	; 0xfffffe70
    3238:	f8470065 			; <UNDEFINED> instruction: 0xf8470065

0000323a <Code_784>:
    323a:	f847 6d04 	str.w	r6, [r7, #-4]!
    323e:	2644      	movs	r6, #68	; 0x44
    3240:	e089      	b.n	3356 <Code_807>

00003242 <Dictionary_787>:
    3242:	0000325c 	andeq	r3, r0, ip, asr r2
    3246:	350a0050 	strcc	r0, [sl, #-80]	; 0x50
    324a:	6c6f662d 	stclvs	6, cr6, [pc], #-180	; 319c <Dictionary_766+0xc>
    324e:	6c626164 	stfvse	f6, [r2], #-400	; 0xfffffe70
    3252:	f8470065 			; <UNDEFINED> instruction: 0xf8470065

00003254 <Code_787>:
    3254:	f847 6d04 	str.w	r6, [r7, #-4]!
    3258:	2645      	movs	r6, #69	; 0x45
    325a:	e07c      	b.n	3356 <Code_807>

0000325c <Dictionary_790>:
    325c:	00003276 	andeq	r3, r0, r6, ror r2
    3260:	360a0050 			; <UNDEFINED> instruction: 0x360a0050
    3264:	6c6f662d 	stclvs	6, cr6, [pc], #-180	; 31b8 <Code_769>
    3268:	6c626164 	stfvse	f6, [r2], #-400	; 0xfffffe70
    326c:	f8470065 			; <UNDEFINED> instruction: 0xf8470065

0000326e <Code_790>:
    326e:	f847 6d04 	str.w	r6, [r7, #-4]!
    3272:	2646      	movs	r6, #70	; 0x46
    3274:	e06f      	b.n	3356 <Code_807>

00003276 <Dictionary_793>:
    3276:	00003290 	muleq	r0, r0, r2
    327a:	370a0050 	smlsdcc	sl, r0, r0, r0
    327e:	6c6f662d 	stclvs	6, cr6, [pc], #-180	; 31d0 <Dictionary_772+0x10>
    3282:	6c626164 	stfvse	f6, [r2], #-400	; 0xfffffe70
    3286:	f8470065 			; <UNDEFINED> instruction: 0xf8470065

00003288 <Code_793>:
    3288:	f847 6d04 	str.w	r6, [r7, #-4]!
    328c:	2647      	movs	r6, #71	; 0x47
    328e:	e062      	b.n	3356 <Code_807>

00003290 <Dictionary_796>:
    3290:	000032c0 	andeq	r3, r0, r0, asr #5
    3294:	63080000 	movwvs	r0, #32768	; 0x8000
    3298:	74736e6f 	ldrbtvc	r6, [r3], #-3695	; 0xe6f
    329c:	00746e61 	rsbseq	r6, r4, r1, ror #28

000032a0 <Code_796>:
    32a0:	b500      	push	{lr}
    32a2:	f000 f9db 	bl	365c <Code_848>
    32a6:	f7ff fdf9 	bl	2e9c <Code_706>
    32aa:	f847 6d04 	str.w	r6, [r7, #-4]!
    32ae:	f244 7670 	movw	r6, #18288	; 0x4770
    32b2:	f000 f8c7 	bl	3444 <Code_817>
    32b6:	f7ff ff8c 	bl	31d2 <Code_772>
    32ba:	f000 f819 	bl	32f0 <Code_801>
    32be:	bd00      	pop	{pc}

000032c0 <Dictionary_799>:
    32c0:	000032e2 	andeq	r3, r0, r2, ror #5
    32c4:	32090000 	andcc	r0, r9, #0
    32c8:	736e6f63 	cmnvc	lr, #396	; 0x18c
    32cc:	746e6174 	strbtvc	r6, [lr], #-372	; 0x174

000032d0 <Code_799>:
    32d0:	b500      	push	{lr}
    32d2:	f000 f9c3 	bl	365c <Code_848>
    32d6:	6839      	ldr	r1, [r7, #0]
    32d8:	603e      	str	r6, [r7, #0]
    32da:	460e      	mov	r6, r1
    32dc:	f7ff fdde 	bl	2e9c <Code_706>
    32e0:	e7e1      	b.n	32a6 <Code_796+0x6>

000032e2 <Dictionary_801>:
    32e2:	00003346 	andeq	r3, r0, r6, asr #6
    32e6:	73060000 	movwvc	r0, #24576	; 0x6000
    32ea:	6764756d 	strbvs	r7, [r4, -sp, ror #10]!
    32ee:	b5000065 	strlt	r0, [r0, #-101]	; 0x65

000032f0 <Code_801>:
    32f0:	b500      	push	{lr}
    32f2:	482d      	ldr	r0, [pc, #180]	; (33a8 <setflags_ram+0x3a>)
    32f4:	6801      	ldr	r1, [r0, #0]
    32f6:	4a2c      	ldr	r2, [pc, #176]	; (33a8 <setflags_ram+0x3a>)
    32f8:	4291      	cmp	r1, r2
    32fa:	d21e      	bcs.n	333a <smudge_ram>
    32fc:	3902      	subs	r1, #2
    32fe:	880a      	ldrh	r2, [r1, #0]
    3300:	4b2f      	ldr	r3, [pc, #188]	; (33c0 <setflags_ram+0x52>)
    3302:	429a      	cmp	r2, r3
    3304:	d104      	bne.n	3310 <Code_801+0x20>
    3306:	f847 6d04 	str.w	r6, [r7, #-4]!
    330a:	4e2e      	ldr	r6, [pc, #184]	; (33c4 <setflags_ram+0x56>)
    330c:	f000 f89a 	bl	3444 <Code_817>
    3310:	f000 f872 	bl	33f8 <Code_811>
    3314:	f000 f884 	bl	3420 <Code_814>
    3318:	482b      	ldr	r0, [pc, #172]	; (33c8 <setflags_ram+0x5a>)
    331a:	6800      	ldr	r0, [r0, #0]
    331c:	f847 6d04 	str.w	r6, [r7, #-4]!
    3320:	0006      	movs	r6, r0
    3322:	492a      	ldr	r1, [pc, #168]	; (33cc <setflags_ram+0x5e>)
    3324:	6809      	ldr	r1, [r1, #0]
    3326:	3104      	adds	r1, #4
    3328:	4a1f      	ldr	r2, [pc, #124]	; (33a8 <setflags_ram+0x3a>)
    332a:	6813      	ldr	r3, [r2, #0]
    332c:	6011      	str	r1, [r2, #0]
    332e:	f000 f889 	bl	3444 <Code_817>
    3332:	6013      	str	r3, [r2, #0]
    3334:	f7fe ff00 	bl	2138 <Code_461>
    3338:	bd00      	pop	{pc}

0000333a <smudge_ram>:
    333a:	f000 f85d 	bl	33f8 <Code_811>
    333e:	f847 6d04 	str.w	r6, [r7, #-4]!
    3342:	2600      	movs	r6, #0
    3344:	e008      	b.n	3358 <setflags_intern>

00003346 <Dictionary_807>:
    3346:	000033d0 	ldrdeq	r3, [r0], -r0
    334a:	73080000 	movwvc	r0, #32768	; 0x8000
    334e:	6c667465 	cfstrdvs	mvd7, [r6], #-404	; 0xfffffe6c
    3352:	00736761 	rsbseq	r6, r3, r1, ror #14

00003356 <Code_807>:
    3356:	b500      	push	{lr}

00003358 <setflags_intern>:
    3358:	4813      	ldr	r0, [pc, #76]	; (33a8 <setflags_ram+0x3a>)
    335a:	6801      	ldr	r1, [r0, #0]
    335c:	4a12      	ldr	r2, [pc, #72]	; (33a8 <setflags_ram+0x3a>)
    335e:	4291      	cmp	r1, r2
    3360:	d205      	bcs.n	336e <setflags_ram>
    3362:	4819      	ldr	r0, [pc, #100]	; (33c8 <setflags_ram+0x5a>)
    3364:	6801      	ldr	r1, [r0, #0]
    3366:	4331      	orrs	r1, r6
    3368:	6001      	str	r1, [r0, #0]
    336a:	cf40      	ldmia	r7!, {r6}
    336c:	bd00      	pop	{pc}

0000336e <setflags_ram>:
    336e:	0032      	movs	r2, r6
    3370:	cf40      	ldmia	r7!, {r6}
    3372:	4816      	ldr	r0, [pc, #88]	; (33cc <setflags_ram+0x5e>)
    3374:	6800      	ldr	r0, [r0, #0]
    3376:	3004      	adds	r0, #4
    3378:	8801      	ldrh	r1, [r0, #0]
    337a:	4b11      	ldr	r3, [pc, #68]	; (33c0 <setflags_ram+0x52>)
    337c:	4299      	cmp	r1, r3
    337e:	d101      	bne.n	3384 <setflags_ram+0x16>
    3380:	0011      	movs	r1, r2
    3382:	e000      	b.n	3386 <setflags_ram+0x18>
    3384:	4311      	orrs	r1, r2
    3386:	8001      	strh	r1, [r0, #0]
    3388:	bd00      	pop	{pc}
    338a:	00000000 	andeq	r0, r0, r0
    338e:	0000f240 	andeq	pc, r0, r0, asr #4
    3392:	0000f2c0 	andeq	pc, r0, r0, asr #5
    3396:	0000f05f 	andeq	pc, r0, pc, asr r0	; <UNPREDICTABLE>
    339a:	0001f07f 	andeq	pc, r1, pc, ror r0	; <UNPREDICTABLE>
    339e:	0000ffc0 	andeq	pc, r0, r0, asr #31
    33a2:	f800ffc0 			; <UNDEFINED> instruction: 0xf800ffc0
    33a6:	0000f000 	andeq	pc, r0, r0
    33aa:	00142000 	andseq	r2, r4, r0
    33ae:	462e2000 	strtmi	r2, [lr], -r0
    33b2:	7fd80000 	svcvc	0x00d80000
    33b6:	00102001 	andseq	r2, r0, r1
    33ba:	005c2000 	subseq	r2, ip, r0
    33be:	ffff2000 			; <UNDEFINED> instruction: 0xffff2000
    33c2:	00000000 	andeq	r0, r0, r0
    33c6:	00200000 	eoreq	r0, r0, r0
    33ca:	00042000 	andeq	r2, r4, r0
    33ce:	33ec2000 	mvncc	r2, #0

000033d0 <Dictionary_810>:
    33d0:	000033ec 	andeq	r3, r0, ip, ror #7
    33d4:	61070041 	tstvs	r7, r1, asr #32
    33d8:	6e67696c 	cdpvs	9, 6, cr6, cr7, cr12, {3}
    33dc:	20016465 	andcs	r6, r1, r5, ror #8

000033de <Code_810>:
    33de:	2001      	movs	r0, #1
    33e0:	4030      	ands	r0, r6
    33e2:	1836      	adds	r6, r6, r0
    33e4:	2002      	movs	r0, #2
    33e6:	4030      	ands	r0, r6
    33e8:	1836      	adds	r6, r6, r0
    33ea:	4770      	bx	lr

000033ec <Dictionary_811>:
    33ec:	00003410 	andeq	r3, r0, r0, lsl r4
    33f0:	61050000 	mrsvs	r0, (UNDEF: 5)
    33f4:	6e67696c 	cdpvs	9, 6, cr6, cr7, cr12, {3}

000033f8 <Code_811>:
    33f8:	b500      	push	{lr}
    33fa:	488d      	ldr	r0, [pc, #564]	; (3630 <Zweitpointertausch+0x50>)
    33fc:	6801      	ldr	r1, [r0, #0]
    33fe:	2002      	movs	r0, #2
    3400:	4001      	ands	r1, r0
    3402:	d004      	beq.n	340e <Code_811+0x16>
    3404:	f847 6d04 	str.w	r6, [r7, #-4]!
    3408:	2600      	movs	r6, #0
    340a:	f000 f81b 	bl	3444 <Code_817>
    340e:	bd00      	pop	{pc}

00003410 <Dictionary_814>:
    3410:	0000343a 	andeq	r3, r0, sl, lsr r4
    3414:	61080000 	mrsvs	r0, (UNDEF: 8)
    3418:	6e67696c 	cdpvs	9, 6, cr6, cr7, cr12, {3}
    341c:	002c3631 	eoreq	r3, ip, r1, lsr r6

00003420 <Code_814>:
    3420:	b500      	push	{lr}
    3422:	4883      	ldr	r0, [pc, #524]	; (3630 <Zweitpointertausch+0x50>)
    3424:	6801      	ldr	r1, [r0, #0]
    3426:	200f      	movs	r0, #15
    3428:	4001      	ands	r1, r0
    342a:	d005      	beq.n	3438 <Code_814+0x18>
    342c:	f847 6d04 	str.w	r6, [r7, #-4]!
    3430:	2600      	movs	r6, #0
    3432:	f000 f807 	bl	3444 <Code_817>
    3436:	e7f4      	b.n	3422 <Code_814+0x2>
    3438:	bd00      	pop	{pc}

0000343a <Dictionary_817>:
    343a:	0000347e 	andeq	r3, r0, lr, ror r4
    343e:	68020000 	stmdavs	r2, {}	; <UNPREDICTABLE>
    3442:	b50f002c 	strlt	r0, [pc, #-44]	; 341e <Dictionary_814+0xe>

00003444 <Code_817>:
    3444:	b50f      	push	{r0, r1, r2, r3, lr}
    3446:	b2b6      	uxth	r6, r6
    3448:	487a      	ldr	r0, [pc, #488]	; (3634 <Zweitpointertausch+0x54>)
    344a:	6801      	ldr	r1, [r0, #0]
    344c:	2900      	cmp	r1, #0
    344e:	d002      	beq.n	3456 <Code_817+0x12>
    3450:	3101      	adds	r1, #1
    3452:	d000      	beq.n	3456 <Code_817+0x12>
    3454:	6001      	str	r1, [r0, #0]
    3456:	4876      	ldr	r0, [pc, #472]	; (3630 <Zweitpointertausch+0x50>)
    3458:	6801      	ldr	r1, [r0, #0]
    345a:	4a75      	ldr	r2, [pc, #468]	; (3630 <Zweitpointertausch+0x50>)
    345c:	4291      	cmp	r1, r2
    345e:	d205      	bcs.n	346c <hkomma_ram>
    3460:	f847 6d04 	str.w	r6, [r7, #-4]!
    3464:	000e      	movs	r6, r1
    3466:	f7fe fdf2 	bl	204e <Code_455>
    346a:	e002      	b.n	3472 <hkomma_fertig>

0000346c <hkomma_ram>:
    346c:	0032      	movs	r2, r6
    346e:	cf40      	ldmia	r7!, {r6}
    3470:	800a      	strh	r2, [r1, #0]

00003472 <hkomma_fertig>:
    3472:	f847 6d04 	str.w	r6, [r7, #-4]!
    3476:	2602      	movs	r6, #2
    3478:	f000 f856 	bl	3528 <Code_837>
    347c:	bd0f      	pop	{r0, r1, r2, r3, pc}

0000347e <Dictionary_823>:
    347e:	00003498 	muleq	r0, r8, r4
    3482:	2c010000 	stccs	0, cr0, [r1], {0}

00003486 <Code_823>:
    3486:	b500      	push	{lr}
    3488:	f847 6d04 	str.w	r6, [r7, #-4]!
    348c:	f7ff ffda 	bl	3444 <Code_817>
    3490:	0c36      	lsrs	r6, r6, #16
    3492:	f7ff ffd7 	bl	3444 <Code_817>
    3496:	bd00      	pop	{pc}

00003498 <Dictionary_826>:
    3498:	000034b4 			; <UNDEFINED> instruction: 0x000034b4
    349c:	3e030000 	cdpcc	0, 0, cr0, cr3, cr0, {0}
    34a0:	b5002c3c 	strlt	r2, [r0, #-3132]	; 0xc3c

000034a2 <Code_826>:
    34a2:	b500      	push	{lr}
    34a4:	f847 6d04 	str.w	r6, [r7, #-4]!
    34a8:	0c36      	lsrs	r6, r6, #16
    34aa:	f7ff ffcb 	bl	3444 <Code_817>
    34ae:	f7ff ffc9 	bl	3444 <Code_817>
    34b2:	bd00      	pop	{pc}

000034b4 <Dictionary_829>:
    34b4:	0000351c 	andeq	r3, r0, ip, lsl r5
    34b8:	73070000 	movwvc	r0, #28672	; 0x7000
    34bc:	6e697274 	mcrvs	2, 3, r7, cr9, cr4, {3}
    34c0:	b5072c67 	strlt	r2, [r7, #-3175]	; 0xc67

000034c2 <Code_829>:
    34c2:	b507      	push	{r0, r1, r2, lr}
    34c4:	21ff      	movs	r1, #255	; 0xff
    34c6:	4031      	ands	r1, r6
    34c8:	cf40      	ldmia	r7!, {r6}
    34ca:	0030      	movs	r0, r6
    34cc:	cf40      	ldmia	r7!, {r6}
    34ce:	2900      	cmp	r1, #0
    34d0:	d105      	bne.n	34de <Code_829+0x1c>
    34d2:	f847 6d04 	str.w	r6, [r7, #-4]!
    34d6:	2600      	movs	r6, #0
    34d8:	f7ff ffb4 	bl	3444 <Code_817>
    34dc:	bd07      	pop	{r0, r1, r2, pc}
    34de:	f847 6d04 	str.w	r6, [r7, #-4]!
    34e2:	7806      	ldrb	r6, [r0, #0]
    34e4:	0236      	lsls	r6, r6, #8
    34e6:	430e      	orrs	r6, r1
    34e8:	f7ff ffac 	bl	3444 <Code_817>
    34ec:	3001      	adds	r0, #1
    34ee:	3901      	subs	r1, #1
    34f0:	2902      	cmp	r1, #2
    34f2:	d30a      	bcc.n	350a <Code_829+0x48>
    34f4:	f847 6d04 	str.w	r6, [r7, #-4]!
    34f8:	7846      	ldrb	r6, [r0, #1]
    34fa:	0236      	lsls	r6, r6, #8
    34fc:	7802      	ldrb	r2, [r0, #0]
    34fe:	4316      	orrs	r6, r2
    3500:	f7ff ffa0 	bl	3444 <Code_817>
    3504:	3002      	adds	r0, #2
    3506:	3902      	subs	r1, #2
    3508:	e7f2      	b.n	34f0 <Code_829+0x2e>
    350a:	2900      	cmp	r1, #0
    350c:	d100      	bne.n	3510 <Code_829+0x4e>
    350e:	bd07      	pop	{r0, r1, r2, pc}
    3510:	f847 6d04 	str.w	r6, [r7, #-4]!
    3514:	7806      	ldrb	r6, [r0, #0]
    3516:	f7ff ff95 	bl	3444 <Code_817>
    351a:	bd07      	pop	{r0, r1, r2, pc}

0000351c <Dictionary_837>:
    351c:	00003576 	andeq	r3, r0, r6, ror r5
    3520:	61050000 	mrsvs	r0, (UNDEF: 5)
    3524:	746f6c6c 	strbtvc	r6, [pc], #-3180	; 352c <Code_837+0x4>

00003528 <Code_837>:
    3528:	4841      	ldr	r0, [pc, #260]	; (3630 <Zweitpointertausch+0x50>)
    352a:	6801      	ldr	r1, [r0, #0]
    352c:	4a40      	ldr	r2, [pc, #256]	; (3630 <Zweitpointertausch+0x50>)
    352e:	4291      	cmp	r1, r2
    3530:	d20f      	bcs.n	3552 <allot_ram>
    3532:	0032      	movs	r2, r6
    3534:	cf40      	ldmia	r7!, {r6}
    3536:	1889      	adds	r1, r1, r2
    3538:	4a3f      	ldr	r2, [pc, #252]	; (3638 <Zweitpointertausch+0x58>)
    353a:	4291      	cmp	r1, r2
    353c:	d319      	bcc.n	3572 <allot_ok>
    353e:	f7ff fa22 	bl	2986 <dotgaensefuesschen>
    3542:	616c460b 	cmnvs	ip, fp, lsl #12
    3546:	66206873 			; <UNDEFINED> instruction: 0x66206873
    354a:	0a6c6c75 	beq	1b1e726 <BIT24+0xb1e726>
    354e:	f001 b9e6 	b.w	491e <Code_1230>

00003552 <allot_ram>:
    3552:	0032      	movs	r2, r6
    3554:	cf40      	ldmia	r7!, {r6}
    3556:	1889      	adds	r1, r1, r2
    3558:	4a38      	ldr	r2, [pc, #224]	; (363c <Zweitpointertausch+0x5c>)
    355a:	6812      	ldr	r2, [r2, #0]
    355c:	4291      	cmp	r1, r2
    355e:	d308      	bcc.n	3572 <allot_ok>
    3560:	f7ff fa11 	bl	2986 <dotgaensefuesschen>
    3564:	6d615209 	sfmvs	f5, 2, [r1, #-36]!	; 0xffffffdc
    3568:	6c756620 	ldclvs	6, cr6, [r5], #-128	; 0xffffff80
    356c:	f0010a6c 			; <UNDEFINED> instruction: 0xf0010a6c
    3570:	b9d6      	cbnz	r6, 35a8 <Dictionary_845+0xa>

00003572 <allot_ok>:
    3572:	6001      	str	r1, [r0, #0]
    3574:	4770      	bx	lr

00003576 <Dictionary_842>:
    3576:	0000359e 	muleq	r0, lr, r5
    357a:	630d0000 	movwvs	r0, #53248	; 0xd000
    357e:	69706d6f 	ldmdbvs	r0!, {r0, r1, r2, r3, r5, r6, r8, sl, fp, sp, lr}^
    3582:	6f74656c 	svcvs	0x0074656c
    3586:	3f6d6172 	svccc	0x006d6172

0000358a <Code_842>:
    358a:	f847 6d04 	str.w	r6, [r7, #-4]!
    358e:	2600      	movs	r6, #0
    3590:	4827      	ldr	r0, [pc, #156]	; (3630 <Zweitpointertausch+0x50>)
    3592:	6800      	ldr	r0, [r0, #0]
    3594:	4926      	ldr	r1, [pc, #152]	; (3630 <Zweitpointertausch+0x50>)
    3596:	4288      	cmp	r0, r1
    3598:	d348      	bcc.n	362c <Zweitpointertausch+0x4c>
    359a:	43f6      	mvns	r6, r6
    359c:	4770      	bx	lr

0000359e <Dictionary_845>:
    359e:	000035be 			; <UNDEFINED> instruction: 0x000035be
    35a2:	630c0000 	movwvs	r0, #49152	; 0xc000
    35a6:	69706d6f 	ldmdbvs	r0!, {r0, r1, r2, r3, r5, r6, r8, sl, fp, sp, lr}^
    35aa:	6f74656c 	svcvs	0x0074656c
    35ae:	006d6172 	rsbeq	r6, sp, r2, ror r1

000035b2 <Code_845>:
    35b2:	481f      	ldr	r0, [pc, #124]	; (3630 <Zweitpointertausch+0x50>)
    35b4:	6800      	ldr	r0, [r0, #0]
    35b6:	491e      	ldr	r1, [pc, #120]	; (3630 <Zweitpointertausch+0x50>)
    35b8:	4288      	cmp	r0, r1
    35ba:	d311      	bcc.n	35e0 <Zweitpointertausch>
    35bc:	4770      	bx	lr

000035be <Dictionary_846>:
    35be:	0000364c 	andeq	r3, r0, ip, asr #12
    35c2:	630e0000 	movwvs	r0, #57344	; 0xe000
    35c6:	69706d6f 	ldmdbvs	r0!, {r0, r1, r2, r3, r5, r6, r8, sl, fp, sp, lr}^
    35ca:	6f74656c 	svcvs	0x0074656c
    35ce:	73616c66 	cmnvc	r1, #26112	; 0x6600
    35d2:	48160068 	ldmdami	r6, {r3, r5, r6}

000035d4 <Code_846>:
    35d4:	4816      	ldr	r0, [pc, #88]	; (3630 <Zweitpointertausch+0x50>)
    35d6:	6800      	ldr	r0, [r0, #0]
    35d8:	4915      	ldr	r1, [pc, #84]	; (3630 <Zweitpointertausch+0x50>)
    35da:	4288      	cmp	r0, r1
    35dc:	d200      	bcs.n	35e0 <Zweitpointertausch>
    35de:	4770      	bx	lr

000035e0 <Zweitpointertausch>:
    35e0:	4817      	ldr	r0, [pc, #92]	; (3640 <Zweitpointertausch+0x60>)
    35e2:	4918      	ldr	r1, [pc, #96]	; (3644 <Zweitpointertausch+0x64>)
    35e4:	6802      	ldr	r2, [r0, #0]
    35e6:	680b      	ldr	r3, [r1, #0]
    35e8:	600a      	str	r2, [r1, #0]
    35ea:	6003      	str	r3, [r0, #0]
    35ec:	4810      	ldr	r0, [pc, #64]	; (3630 <Zweitpointertausch+0x50>)
    35ee:	4916      	ldr	r1, [pc, #88]	; (3648 <Zweitpointertausch+0x68>)
    35f0:	6802      	ldr	r2, [r0, #0]
    35f2:	680b      	ldr	r3, [r1, #0]
    35f4:	600a      	str	r2, [r1, #0]
    35f6:	6003      	str	r3, [r0, #0]
    35f8:	4810      	ldr	r0, [pc, #64]	; (363c <Zweitpointertausch+0x5c>)
    35fa:	6800      	ldr	r0, [r0, #0]
    35fc:	4283      	cmp	r3, r0
    35fe:	d315      	bcc.n	362c <Zweitpointertausch+0x4c>
    3600:	b500      	push	{lr}
    3602:	f7ff f9c0 	bl	2986 <dotgaensefuesschen>
    3606:	61562023 	cmpvs	r6, r3, lsr #32
    360a:	62616972 	rsbvs	r6, r1, #1867776	; 0x1c8000
    360e:	2073656c 	rsbscs	r6, r3, ip, ror #10
    3612:	6c6c6f63 	stclvs	15, cr6, [ip], #-396	; 0xfffffe74
    3616:	20656469 	rsbcs	r6, r5, r9, ror #8
    361a:	68746977 	ldmdavs	r4!, {r0, r1, r2, r4, r5, r6, r8, fp, sp, lr}^
    361e:	63696420 	cmnvs	r9, #536870912	; 0x20000000
    3622:	6e6f6974 	mcrvs	9, 3, r6, cr15, cr4, {3}
    3626:	0a797261 	beq	1e5ffb2 <BIT24+0xe5ffb2>
    362a:	bd00      	pop	{pc}
    362c:	4770      	bx	lr
    362e:	00000000 	andeq	r0, r0, r0
    3632:	7fd82000 	svcvc	0x00d82000
    3636:	00002001 	andeq	r2, r0, r1
    363a:	00240010 	eoreq	r0, r4, r0, lsl r0
    363e:	00042000 	andeq	r2, r4, r0
    3642:	001c2000 	andseq	r2, ip, r0
    3646:	00182000 	andseq	r2, r8, r0
    364a:	37482000 	strbcc	r2, [r8, -r0]

0000364c <Dictionary_848>:
    364c:	00003748 	andeq	r3, r0, r8, asr #14
    3650:	28080000 	stmdacs	r8, {}	; <UNPREDICTABLE>
    3654:	61657263 	cmnvs	r5, r3, ror #4
    3658:	00296574 	eoreq	r6, r9, r4, ror r5

0000365c <Code_848>:
    365c:	b500      	push	{lr}
    365e:	f000 fded 	bl	423c <Code_1103>
    3662:	2e00      	cmp	r6, #0
    3664:	d10e      	bne.n	3684 <Code_848+0x28>
    3666:	f7ff f98e 	bl	2986 <dotgaensefuesschen>
    366a:	72432015 	subvc	r2, r3, #21
    366e:	65746165 	ldrbvs	r6, [r4, #-357]!	; 0x165
    3672:	65656e20 	strbvs	r6, [r5, #-3616]!	; 0xe20
    3676:	6e207364 	cdpvs	3, 2, cr7, cr0, cr4, {3}
    367a:	20656d61 	rsbcs	r6, r5, r1, ror #26
    367e:	f0010a21 			; <UNDEFINED> instruction: 0xf0010a21
    3682:	b94d      	cbnz	r5, 3698 <Code_848+0x3c>
    3684:	6838      	ldr	r0, [r7, #0]
    3686:	f847 6d04 	str.w	r6, [r7, #-4]!
    368a:	3f04      	subs	r7, #4
    368c:	6038      	str	r0, [r7, #0]
    368e:	f000 f9a8 	bl	39e2 <Code_913>
    3692:	cf40      	ldmia	r7!, {r6}
    3694:	2e00      	cmp	r6, #0
    3696:	cf40      	ldmia	r7!, {r6}
    3698:	d011      	beq.n	36be <Code_848+0x62>
    369a:	6838      	ldr	r0, [r7, #0]
    369c:	f847 6d04 	str.w	r6, [r7, #-4]!
    36a0:	3f04      	subs	r7, #4
    36a2:	6038      	str	r0, [r7, #0]
    36a4:	f7ff f96f 	bl	2986 <dotgaensefuesschen>
    36a8:	64655209 	strbtvs	r5, [r5], #-521	; 0x209
    36ac:	6e696665 	cdpvs	6, 6, cr6, cr9, cr5, {3}
    36b0:	f7ff2065 			; <UNDEFINED> instruction: 0xf7ff2065
    36b4:	f9c4 f7ff 	vst4.16	{d31[3],d33[3],d35[3],d37[3]}, [r4 :64]
    36b8:	f966 2e02 			; <UNDEFINED> instruction: 0xf9662e02
    36bc:	f7ff000a 			; <UNDEFINED> instruction: 0xf7ff000a
    36c0:	fe9b 4894 	mrc2	8, 4, r4, cr11, cr4, {4}
    36c4:	6800      	ldr	r0, [r0, #0]
    36c6:	4993      	ldr	r1, [pc, #588]	; (3914 <rambuffer_ram+0x46>)
    36c8:	4288      	cmp	r0, r1
    36ca:	d225      	bcs.n	3718 <create_ram>
    36cc:	4892      	ldr	r0, [pc, #584]	; (3918 <rambuffer_ram+0x4a>)
    36ce:	2100      	movs	r1, #0
    36d0:	6001      	str	r1, [r0, #0]
    36d2:	f7ff fea5 	bl	3420 <Code_814>
    36d6:	f847 6d04 	str.w	r6, [r7, #-4]!
    36da:	260c      	movs	r6, #12
    36dc:	f7ff ff24 	bl	3528 <Code_837>
    36e0:	f000 fa13 	bl	3b0a <Code_935>
    36e4:	f847 6d04 	str.w	r6, [r7, #-4]!
    36e8:	2606      	movs	r6, #6
    36ea:	f7ff ff1d 	bl	3528 <Code_837>
    36ee:	f7fd fc8d 	bl	100c <Code_213>
    36f2:	f7ff fee6 	bl	34c2 <Code_829>
    36f6:	4889      	ldr	r0, [pc, #548]	; (391c <rambuffer_ram+0x4e>)
    36f8:	6801      	ldr	r1, [r0, #0]
    36fa:	680a      	ldr	r2, [r1, #0]
    36fc:	4b88      	ldr	r3, [pc, #544]	; (3920 <rambuffer_ram+0x52>)
    36fe:	429a      	cmp	r2, r3
    3700:	d107      	bne.n	3712 <Code_848+0xb6>
    3702:	4a84      	ldr	r2, [pc, #528]	; (3914 <rambuffer_ram+0x46>)
    3704:	6813      	ldr	r3, [r2, #0]
    3706:	6011      	str	r1, [r2, #0]
    3708:	f847 6d04 	str.w	r6, [r7, #-4]!
    370c:	f7ff febb 	bl	3486 <Code_823>
    3710:	6013      	str	r3, [r2, #0]
    3712:	6006      	str	r6, [r0, #0]
    3714:	cf40      	ldmia	r7!, {r6}
    3716:	e012      	b.n	373e <create_ende>

00003718 <create_ram>:
    3718:	f000 f9f7 	bl	3b0a <Code_935>
    371c:	487f      	ldr	r0, [pc, #508]	; (391c <rambuffer_ram+0x4e>)
    371e:	f847 6d04 	str.w	r6, [r7, #-4]!
    3722:	6806      	ldr	r6, [r0, #0]
    3724:	f7ff feaf 	bl	3486 <Code_823>
    3728:	f847 6d04 	str.w	r6, [r7, #-4]!
    372c:	4e7d      	ldr	r6, [pc, #500]	; (3924 <rambuffer_ram+0x56>)
    372e:	f7ff fe89 	bl	3444 <Code_817>
    3732:	487a      	ldr	r0, [pc, #488]	; (391c <rambuffer_ram+0x4e>)
    3734:	0031      	movs	r1, r6
    3736:	cf40      	ldmia	r7!, {r6}
    3738:	6001      	str	r1, [r0, #0]
    373a:	f7ff fec2 	bl	34c2 <Code_829>

0000373e <create_ende>:
    373e:	4875      	ldr	r0, [pc, #468]	; (3914 <rambuffer_ram+0x46>)
    3740:	6801      	ldr	r1, [r0, #0]
    3742:	4879      	ldr	r0, [pc, #484]	; (3928 <rambuffer_ram+0x5a>)
    3744:	6001      	str	r1, [r0, #0]
    3746:	bd00      	pop	{pc}

00003748 <Dictionary_868>:
    3748:	00003760 	andeq	r3, r0, r0, ror #14
    374c:	76080000 	strvc	r0, [r8], -r0
    3750:	61697261 	cmnvs	r9, r1, ror #4
    3754:	00656c62 	rsbeq	r6, r5, r2, ror #24

00003758 <Code_868>:
    3758:	f847 6d04 	str.w	r6, [r7, #-4]!
    375c:	2601      	movs	r6, #1
    375e:	e013      	b.n	3788 <Code_874>

00003760 <Dictionary_871>:
    3760:	00003778 	andeq	r3, r0, r8, ror r7
    3764:	32090000 	andcc	r0, r9, #0
    3768:	69726176 	ldmdbvs	r2!, {r1, r2, r4, r5, r6, r8, sp, lr}^
    376c:	656c6261 	strbvs	r6, [ip, #-609]!	; 0x261

00003770 <Code_871>:
    3770:	f847 6d04 	str.w	r6, [r7, #-4]!
    3774:	2602      	movs	r6, #2
    3776:	e007      	b.n	3788 <Code_874>

00003778 <Dictionary_874>:
    3778:	00003852 	andeq	r3, r0, r2, asr r8
    377c:	6e090000 	cdpvs	0, 0, cr0, cr9, cr0, {0}
    3780:	69726176 	ldmdbvs	r2!, {r1, r2, r4, r5, r6, r8, sp, lr}^
    3784:	656c6261 	strbvs	r6, [ip, #-609]!	; 0x261

00003788 <Code_874>:
    3788:	b500      	push	{lr}
    378a:	f7ff ff67 	bl	365c <Code_848>
    378e:	4861      	ldr	r0, [pc, #388]	; (3914 <rambuffer_ram+0x46>)
    3790:	6801      	ldr	r1, [r0, #0]
    3792:	4a60      	ldr	r2, [pc, #384]	; (3914 <rambuffer_ram+0x46>)
    3794:	4291      	cmp	r1, r2
    3796:	d234      	bcs.n	3802 <variable_ram>
    3798:	200f      	movs	r0, #15
    379a:	4006      	ands	r6, r0
    379c:	00b2      	lsls	r2, r6, #2
    379e:	4863      	ldr	r0, [pc, #396]	; (392c <rambuffer_ram+0x5e>)
    37a0:	6801      	ldr	r1, [r0, #0]
    37a2:	1a89      	subs	r1, r1, r2
    37a4:	4a62      	ldr	r2, [pc, #392]	; (3930 <rambuffer_ram+0x62>)
    37a6:	4291      	cmp	r1, r2
    37a8:	d20b      	bcs.n	37c2 <Code_874+0x3a>
    37aa:	f7ff f8ec 	bl	2986 <dotgaensefuesschen>
    37ae:	746f4e0f 	strbtvc	r4, [pc], #-3599	; 37b6 <Code_874+0x2e>
    37b2:	6f6e6520 	svcvs	0x006e6520
    37b6:	20686775 	rsbcs	r6, r8, r5, ror r7
    37ba:	0a4d4152 	beq	1353d0a <BIT24+0x353d0a>
    37be:	f001 b8ae 	b.w	491e <Code_1230>
    37c2:	6001      	str	r1, [r0, #0]
    37c4:	f847 6d04 	str.w	r6, [r7, #-4]!
    37c8:	000e      	movs	r6, r1
    37ca:	f7ff fb67 	bl	2e9c <Code_706>
    37ce:	f847 6d04 	str.w	r6, [r7, #-4]!
    37d2:	f244 7670 	movw	r6, #18288	; 0x4770
    37d6:	f7ff fe35 	bl	3444 <Code_817>
    37da:	0030      	movs	r0, r6
    37dc:	cf40      	ldmia	r7!, {r6}
    37de:	0002      	movs	r2, r0
    37e0:	2800      	cmp	r0, #0
    37e2:	d005      	beq.n	37f0 <Code_874+0x68>
    37e4:	600e      	str	r6, [r1, #0]
    37e6:	3104      	adds	r1, #4
    37e8:	f7ff fe4d 	bl	3486 <Code_823>
    37ec:	3801      	subs	r0, #1
    37ee:	d1f9      	bne.n	37e4 <Code_874+0x5c>
    37f0:	f847 6d04 	str.w	r6, [r7, #-4]!
    37f4:	2680      	movs	r6, #128	; 0x80
    37f6:	4316      	orrs	r6, r2
    37f8:	f7ff fdad 	bl	3356 <Code_807>
    37fc:	f7ff fd78 	bl	32f0 <Code_801>
    3800:	bd00      	pop	{pc}

00003802 <variable_ram>:
    3802:	f000 f982 	bl	3b0a <Code_935>
    3806:	2002      	movs	r0, #2
    3808:	4006      	ands	r6, r0
    380a:	cf40      	ldmia	r7!, {r6}
    380c:	d104      	bne.n	3818 <variable_ram+0x16>
    380e:	f847 6d04 	str.w	r6, [r7, #-4]!
    3812:	2636      	movs	r6, #54	; 0x36
    3814:	f7ff fe16 	bl	3444 <Code_817>
    3818:	f847 6d04 	str.w	r6, [r7, #-4]!
    381c:	4e45      	ldr	r6, [pc, #276]	; (3934 <rambuffer_ram+0x66>)
    381e:	f7ff fe40 	bl	34a2 <Code_826>
    3822:	f847 6d04 	str.w	r6, [r7, #-4]!
    3826:	4e44      	ldr	r6, [pc, #272]	; (3938 <rambuffer_ram+0x6a>)
    3828:	f7ff fe3b 	bl	34a2 <Code_826>
    382c:	f847 6d04 	str.w	r6, [r7, #-4]!
    3830:	f244 7670 	movw	r6, #18288	; 0x4770
    3834:	f7ff fe06 	bl	3444 <Code_817>
    3838:	0030      	movs	r0, r6
    383a:	cf40      	ldmia	r7!, {r6}
    383c:	2800      	cmp	r0, #0
    383e:	d003      	beq.n	3848 <variable_ram+0x46>
    3840:	f7ff fe21 	bl	3486 <Code_823>
    3844:	3801      	subs	r0, #1
    3846:	d1fb      	bne.n	3840 <variable_ram+0x3e>
    3848:	f7ff fcc3 	bl	31d2 <Code_772>
    384c:	f7ff fd50 	bl	32f0 <Code_801>
    3850:	bd00      	pop	{pc}

00003852 <Dictionary_891>:
    3852:	0000393c 	andeq	r3, r0, ip, lsr r9
    3856:	62070000 	andvs	r0, r7, #0
    385a:	65666675 	strbvs	r6, [r6, #-1653]!	; 0x675
    385e:	b5003a72 	strlt	r3, [r0, #-2674]	; 0xa72

00003860 <Code_891>:
    3860:	b500      	push	{lr}
    3862:	f7ff fefb 	bl	365c <Code_848>
    3866:	2001      	movs	r0, #1
    3868:	4030      	ands	r0, r6
    386a:	1836      	adds	r6, r6, r0
    386c:	2002      	movs	r0, #2
    386e:	4030      	ands	r0, r6
    3870:	1836      	adds	r6, r6, r0
    3872:	4828      	ldr	r0, [pc, #160]	; (3914 <rambuffer_ram+0x46>)
    3874:	6801      	ldr	r1, [r0, #0]
    3876:	4a27      	ldr	r2, [pc, #156]	; (3914 <rambuffer_ram+0x46>)
    3878:	4291      	cmp	r1, r2
    387a:	d228      	bcs.n	38ce <rambuffer_ram>
    387c:	482b      	ldr	r0, [pc, #172]	; (392c <rambuffer_ram+0x5e>)
    387e:	6801      	ldr	r1, [r0, #0]
    3880:	1b89      	subs	r1, r1, r6
    3882:	4a2b      	ldr	r2, [pc, #172]	; (3930 <rambuffer_ram+0x62>)
    3884:	4291      	cmp	r1, r2
    3886:	d20b      	bcs.n	38a0 <Code_891+0x40>
    3888:	f7ff f87d 	bl	2986 <dotgaensefuesschen>
    388c:	746f4e0f 	strbtvc	r4, [pc], #-3599	; 3894 <Code_891+0x34>
    3890:	6f6e6520 	svcvs	0x006e6520
    3894:	20686775 	rsbcs	r6, r8, r5, ror r7
    3898:	0a4d4152 	beq	1353de8 <BIT24+0x353de8>
    389c:	f001 b83f 	b.w	491e <Code_1230>
    38a0:	6001      	str	r1, [r0, #0]
    38a2:	f847 6d04 	str.w	r6, [r7, #-4]!
    38a6:	000e      	movs	r6, r1
    38a8:	f7ff faf8 	bl	2e9c <Code_706>
    38ac:	f847 6d04 	str.w	r6, [r7, #-4]!
    38b0:	f244 7670 	movw	r6, #18288	; 0x4770
    38b4:	f7ff fdc6 	bl	3444 <Code_817>
    38b8:	f7ff fde5 	bl	3486 <Code_823>
    38bc:	f847 6d04 	str.w	r6, [r7, #-4]!
    38c0:	f240 1640 	movw	r6, #320	; 0x140
    38c4:	f7ff fd47 	bl	3356 <Code_807>
    38c8:	f7ff fd12 	bl	32f0 <Code_801>
    38cc:	bd00      	pop	{pc}

000038ce <rambuffer_ram>:
    38ce:	f000 f91c 	bl	3b0a <Code_935>
    38d2:	2002      	movs	r0, #2
    38d4:	4006      	ands	r6, r0
    38d6:	cf40      	ldmia	r7!, {r6}
    38d8:	d104      	bne.n	38e4 <rambuffer_ram+0x16>
    38da:	f847 6d04 	str.w	r6, [r7, #-4]!
    38de:	2636      	movs	r6, #54	; 0x36
    38e0:	f7ff fdb0 	bl	3444 <Code_817>
    38e4:	f847 6d04 	str.w	r6, [r7, #-4]!
    38e8:	4e12      	ldr	r6, [pc, #72]	; (3934 <rambuffer_ram+0x66>)
    38ea:	f7ff fdda 	bl	34a2 <Code_826>
    38ee:	f847 6d04 	str.w	r6, [r7, #-4]!
    38f2:	4e11      	ldr	r6, [pc, #68]	; (3938 <rambuffer_ram+0x6a>)
    38f4:	f7ff fdd5 	bl	34a2 <Code_826>
    38f8:	f847 6d04 	str.w	r6, [r7, #-4]!
    38fc:	f244 7670 	movw	r6, #18288	; 0x4770
    3900:	f7ff fda0 	bl	3444 <Code_817>
    3904:	f7ff fe10 	bl	3528 <Code_837>
    3908:	f7ff fc63 	bl	31d2 <Code_772>
    390c:	f7ff fcf0 	bl	32f0 <Code_801>
    3910:	bd00      	pop	{pc}
    3912:	00000000 	andeq	r0, r0, r0
    3916:	00202000 	eoreq	r2, r0, r0
    391a:	00042000 	andeq	r2, r4, r0
    391e:	ffff2000 			; <UNDEFINED> instruction: 0xffff2000
    3922:	ffffffff 			; <UNDEFINED> instruction: 0xffffffff
    3926:	00140000 	andseq	r0, r4, r0
    392a:	00242000 	eoreq	r2, r4, r0
    392e:	07302000 	ldreq	r2, [r0, -r0]!
    3932:	603e2000 	eorsvs	r2, lr, r0
    3936:	36023f04 	strcc	r3, [r2], -r4, lsl #30
    393a:	396a467e 	stmdbcc	sl!, {r1, r2, r3, r4, r5, r6, r9, sl, lr}^

0000393c <Dictionary_906>:
    393c:	0000396a 	andeq	r3, r0, sl, ror #18
    3940:	640f0000 	strvs	r0, [pc], #0	; 3948 <Dictionary_906+0xc>
    3944:	69746369 	ldmdbvs	r4!, {r0, r3, r5, r6, r8, r9, sp, lr}^
    3948:	72616e6f 	rsbvc	r6, r1, #1776	; 0x6f0
    394c:	61747379 	cmnvs	r4, r9, ror r3
    3950:	48417472 	stmdami	r1, {r1, r4, r5, r6, sl, ip, sp, lr}^

00003952 <Code_906>:
    3952:	4841      	ldr	r0, [pc, #260]	; (3a58 <find_not_found+0x18>)
    3954:	6800      	ldr	r0, [r0, #0]
    3956:	4940      	ldr	r1, [pc, #256]	; (3a58 <find_not_found+0x18>)
    3958:	f847 6d04 	str.w	r6, [r7, #-4]!
    395c:	4288      	cmp	r0, r1
    395e:	d201      	bcs.n	3964 <Code_906+0x12>
    3960:	4e3e      	ldr	r6, [pc, #248]	; (3a5c <find_not_found+0x1c>)
    3962:	4770      	bx	lr
    3964:	4e3e      	ldr	r6, [pc, #248]	; (3a60 <find_not_found+0x20>)
    3966:	6836      	ldr	r6, [r6, #0]
    3968:	4770      	bx	lr

0000396a <Dictionary_908>:
    396a:	000039a4 	andeq	r3, r0, r4, lsr #19
    396e:	640e0000 	strvs	r0, [lr]
    3972:	69746369 	ldmdbvs	r4!, {r0, r3, r5, r6, r8, r9, sp, lr}^
    3976:	72616e6f 	rsbvc	r6, r1, #1776	; 0x6f0
    397a:	78656e79 	stmdavc	r5!, {r0, r3, r4, r5, r6, r9, sl, fp, sp, lr}^
    397e:	b5030074 	strlt	r0, [r3, #-116]	; 0x74

00003980 <Code_908>:
    3980:	b503      	push	{r0, r1, lr}
    3982:	6831      	ldr	r1, [r6, #0]
    3984:	4837      	ldr	r0, [pc, #220]	; (3a64 <find_not_found+0x24>)
    3986:	4281      	cmp	r1, r0
    3988:	d007      	beq.n	399a <Code_908+0x1a>
    398a:	7988      	ldrb	r0, [r1, #6]
    398c:	28ff      	cmp	r0, #255	; 0xff
    398e:	d004      	beq.n	399a <Code_908+0x1a>
    3990:	000e      	movs	r6, r1
    3992:	f847 6d04 	str.w	r6, [r7, #-4]!
    3996:	2600      	movs	r6, #0
    3998:	bd03      	pop	{r0, r1, pc}
    399a:	f847 6d04 	str.w	r6, [r7, #-4]!
    399e:	2600      	movs	r6, #0
    39a0:	43f6      	mvns	r6, r6
    39a2:	bd03      	pop	{r0, r1, pc}

000039a4 <Dictionary_912>:
    39a4:	000039d6 	ldrdeq	r3, [r0], -r6
    39a8:	730a0000 	movwvc	r0, #40960	; 0xa000
    39ac:	7370696b 	cmnvc	r0, #1753088	; 0x1ac000
    39b0:	6e697274 	mcrvs	2, 3, r7, cr9, cr4, {3}
    39b4:	78310067 	ldmdavc	r1!, {r0, r1, r2, r5, r6}

000039b6 <Code_912>:
    39b6:	7831      	ldrb	r1, [r6, #0]
    39b8:	3101      	adds	r1, #1
    39ba:	2201      	movs	r2, #1
    39bc:	400a      	ands	r2, r1
    39be:	1889      	adds	r1, r1, r2
    39c0:	1876      	adds	r6, r6, r1
    39c2:	4770      	bx	lr

000039c4 <skipstring>:
    39c4:	b406      	push	{r1, r2}
    39c6:	7801      	ldrb	r1, [r0, #0]
    39c8:	3101      	adds	r1, #1
    39ca:	2201      	movs	r2, #1
    39cc:	400a      	ands	r2, r1
    39ce:	1889      	adds	r1, r1, r2
    39d0:	1840      	adds	r0, r0, r1
    39d2:	bc06      	pop	{r1, r2}
    39d4:	4770      	bx	lr

000039d6 <Dictionary_913>:
    39d6:	00003a6c 	andeq	r3, r0, ip, ror #20
    39da:	66040000 	strvs	r0, [r4], -r0
    39de:	00646e69 	rsbeq	r6, r4, r9, ror #28

000039e2 <Code_913>:
    39e2:	b53f      	push	{r0, r1, r2, r3, r4, r5, lr}
    39e4:	2200      	movs	r2, #0
    39e6:	2300      	movs	r3, #0
    39e8:	0035      	movs	r5, r6
    39ea:	cf40      	ldmia	r7!, {r6}
    39ec:	0034      	movs	r4, r6
    39ee:	cf40      	ldmia	r7!, {r6}
    39f0:	f7ff ffaf 	bl	3952 <Code_906>
    39f4:	481c      	ldr	r0, [pc, #112]	; (3a68 <find_not_found+0x28>)
    39f6:	88b1      	ldrh	r1, [r6, #4]
    39f8:	4288      	cmp	r0, r1
    39fa:	d017      	beq.n	3a2c <Code_913+0x4a>
    39fc:	f847 6d04 	str.w	r6, [r7, #-4]!
    3a00:	3606      	adds	r6, #6
    3a02:	f7fe fffc 	bl	29fe <Code_633>
    3a06:	f847 6d04 	str.w	r6, [r7, #-4]!
    3a0a:	0026      	movs	r6, r4
    3a0c:	f847 6d04 	str.w	r6, [r7, #-4]!
    3a10:	002e      	movs	r6, r5
    3a12:	f7fe ff2e 	bl	2872 <Code_595>
    3a16:	2e00      	cmp	r6, #0
    3a18:	cf40      	ldmia	r7!, {r6}
    3a1a:	d007      	beq.n	3a2c <Code_913+0x4a>
    3a1c:	1db0      	adds	r0, r6, #6
    3a1e:	f7ff ffd1 	bl	39c4 <skipstring>
    3a22:	0002      	movs	r2, r0
    3a24:	000b      	movs	r3, r1
    3a26:	480c      	ldr	r0, [pc, #48]	; (3a58 <find_not_found+0x18>)
    3a28:	4282      	cmp	r2, r0
    3a2a:	d204      	bcs.n	3a36 <Code_913+0x54>
    3a2c:	f7ff ffa8 	bl	3980 <Code_908>
    3a30:	0030      	movs	r0, r6
    3a32:	cf40      	ldmia	r7!, {r6}
    3a34:	d0de      	beq.n	39f4 <Code_913+0x12>
    3a36:	0016      	movs	r6, r2
    3a38:	f847 6d04 	str.w	r6, [r7, #-4]!
    3a3c:	001e      	movs	r6, r3
    3a3e:	bd3f      	pop	{r0, r1, r2, r3, r4, r5, pc}

00003a40 <find_not_found>:
    3a40:	b500      	push	{lr}
    3a42:	0031      	movs	r1, r6
    3a44:	6838      	ldr	r0, [r7, #0]
    3a46:	f7ff ffcc 	bl	39e2 <Code_913>
    3a4a:	683a      	ldr	r2, [r7, #0]
    3a4c:	2a00      	cmp	r2, #0
    3a4e:	d101      	bne.n	3a54 <find_not_found+0x14>
    3a50:	f000 ff19 	bl	4886 <not_found_addr_r0_len_r1>
    3a54:	bd00      	pop	{pc}
    3a56:	00000000 	andeq	r0, r0, r0
    3a5a:	01882000 	orreq	r2, r8, r0
    3a5e:	00040000 	andeq	r0, r4, r0
    3a62:	ffff2000 			; <UNDEFINED> instruction: 0xffff2000
    3a66:	ffffffff 			; <UNDEFINED> instruction: 0xffffffff
	...

00003a6c <Dictionary_926>:
    3a6c:	00003ac6 	andeq	r3, r0, r6, asr #21
    3a70:	63060000 	movwvs	r0, #24576	; 0x6000
    3a74:	706d756a 	rsbvc	r7, sp, sl, ror #10
    3a78:	0032002c 	eorseq	r0, r2, ip, lsr #32

00003a7a <Code_926>:
    3a7a:	0032      	movs	r2, r6
    3a7c:	cf40      	ldmia	r7!, {r6}
    3a7e:	0031      	movs	r1, r6
    3a80:	cf40      	ldmia	r7!, {r6}
    3a82:	1b8b      	subs	r3, r1, r6
    3a84:	3b04      	subs	r3, #4
    3a86:	49e7      	ldr	r1, [pc, #924]	; (3e24 <Code_1005+0xe>)
    3a88:	4019      	ands	r1, r3
    3a8a:	2900      	cmp	r1, #0
    3a8c:	d00d      	beq.n	3aaa <jump_too_far+0x16>
    3a8e:	48e6      	ldr	r0, [pc, #920]	; (3e28 <Code_1005+0x12>)
    3a90:	4281      	cmp	r1, r0
    3a92:	d00a      	beq.n	3aaa <jump_too_far+0x16>

00003a94 <jump_too_far>:
    3a94:	f7fe ff77 	bl	2986 <dotgaensefuesschen>
    3a98:	6d754a0d 	vldmdbvs	r5!, {s9-s21}
    3a9c:	6f742070 	svcvs	0x00742070
    3aa0:	6166206f 	cmnvs	r6, pc, rrx
    3aa4:	f0000a72 			; <UNDEFINED> instruction: 0xf0000a72
    3aa8:	bf3a      	itte	cc
    3aaa:	105b      	asrcc	r3, r3, #1
    3aac:	21ff      	movcc	r1, #255	; 0xff
    3aae:	400b      	andcs	r3, r1
    3ab0:	4313      	orrs	r3, r2
    3ab2:	0030      	movs	r0, r6
    3ab4:	001e      	movs	r6, r3

00003ab6 <sprungbefehl_einfuegen>:
    3ab6:	b500      	push	{lr}
    3ab8:	4adc      	ldr	r2, [pc, #880]	; (3e2c <Code_1005+0x16>)
    3aba:	6813      	ldr	r3, [r2, #0]
    3abc:	6010      	str	r0, [r2, #0]
    3abe:	f7ff fcc1 	bl	3444 <Code_817>
    3ac2:	6013      	str	r3, [r2, #0]
    3ac4:	bd00      	pop	{pc}

00003ac6 <Dictionary_930>:
    3ac6:	00003afe 	strdeq	r3, [r0], -lr
    3aca:	6a050000 	bvs	143ad2 <BIT20+0x43ad2>
    3ace:	2c706d75 	ldclcs	13, cr6, [r0], #-468	; 0xfffffe2c

00003ad2 <Code_930>:
    3ad2:	0031      	movs	r1, r6
    3ad4:	cf40      	ldmia	r7!, {r6}
    3ad6:	0030      	movs	r0, r6
    3ad8:	cf40      	ldmia	r7!, {r6}
    3ada:	1a0b      	subs	r3, r1, r0
    3adc:	3b04      	subs	r3, #4
    3ade:	49d4      	ldr	r1, [pc, #848]	; (3e30 <Code_1005+0x1a>)
    3ae0:	4019      	ands	r1, r3
    3ae2:	2900      	cmp	r1, #0
    3ae4:	d002      	beq.n	3aec <Code_930+0x1a>
    3ae6:	4ad3      	ldr	r2, [pc, #844]	; (3e34 <Code_1005+0x1e>)
    3ae8:	4291      	cmp	r1, r2
    3aea:	d1d3      	bne.n	3a94 <jump_too_far>
    3aec:	105b      	asrs	r3, r3, #1
    3aee:	4ad2      	ldr	r2, [pc, #840]	; (3e38 <Code_1005+0x22>)
    3af0:	4013      	ands	r3, r2
    3af2:	f453 4360 	orrs.w	r3, r3, #57344	; 0xe000
    3af6:	f847 6d04 	str.w	r6, [r7, #-4]!
    3afa:	001e      	movs	r6, r3
    3afc:	e7db      	b.n	3ab6 <sprungbefehl_einfuegen>

00003afe <Dictionary_935>:
    3afe:	00003b14 	andeq	r3, r0, r4, lsl fp
    3b02:	68040000 	stmdavs	r4, {}	; <UNPREDICTABLE>
    3b06:	00657265 	rsbeq	r7, r5, r5, ror #4

00003b0a <Code_935>:
    3b0a:	f847 6d04 	str.w	r6, [r7, #-4]!
    3b0e:	4ec7      	ldr	r6, [pc, #796]	; (3e2c <Code_1005+0x16>)
    3b10:	6836      	ldr	r6, [r6, #0]
    3b12:	4770      	bx	lr

00003b14 <Dictionary_937>:
    3b14:	00003c4a 	andeq	r3, r0, sl, asr #24
    3b18:	660d0000 	strvs	r0, [sp], -r0
    3b1c:	6873616c 	ldmdavs	r3!, {r2, r3, r5, r6, r8, sp, lr}^
    3b20:	2d726176 	ldfcse	f6, [r2, #-472]!	; 0xfffffe28
    3b24:	65726568 	ldrbvs	r6, [r2, #-1384]!	; 0x568

00003b28 <Code_937>:
    3b28:	f847 6d04 	str.w	r6, [r7, #-4]!
    3b2c:	4ec3      	ldr	r6, [pc, #780]	; (3e3c <Code_1005+0x26>)
    3b2e:	6836      	ldr	r6, [r6, #0]
    3b30:	4770      	bx	lr

00003b32 <nullprobekomma>:
    3b32:	b500      	push	{lr}
    3b34:	f847 6d04 	str.w	r6, [r7, #-4]!
    3b38:	f642 6600 	movw	r6, #11776	; 0x2e00
    3b3c:	f7ff fc82 	bl	3444 <Code_817>
    3b40:	f847 6d04 	str.w	r6, [r7, #-4]!
    3b44:	f64c 7640 	movw	r6, #53056	; 0xcf40
    3b48:	f7ff fc7c 	bl	3444 <Code_817>
    3b4c:	bd00      	pop	{pc}

00003b4e <branch_r>:
    3b4e:	e7dc      	b.n	3b0a <Code_935>

00003b50 <r_branch_jne>:
    3b50:	b500      	push	{lr}
    3b52:	f000 f83a 	bl	3bca <branch_v>
    3b56:	6839      	ldr	r1, [r7, #0]
    3b58:	603e      	str	r6, [r7, #0]
    3b5a:	460e      	mov	r6, r1
    3b5c:	f847 6d04 	str.w	r6, [r7, #-4]!
    3b60:	f24d 1600 	movw	r6, #53504	; 0xd100
    3b64:	f7ff ff89 	bl	3a7a <Code_926>
    3b68:	bd00      	pop	{pc}

00003b6a <r_branch_jvc>:
    3b6a:	b500      	push	{lr}
    3b6c:	f000 f82d 	bl	3bca <branch_v>
    3b70:	6839      	ldr	r1, [r7, #0]
    3b72:	603e      	str	r6, [r7, #0]
    3b74:	460e      	mov	r6, r1
    3b76:	f847 6d04 	str.w	r6, [r7, #-4]!
    3b7a:	f24d 7600 	movw	r6, #55040	; 0xd700
    3b7e:	f7ff ff7c 	bl	3a7a <Code_926>
    3b82:	bd00      	pop	{pc}

00003b84 <r_nullbranch>:
    3b84:	b500      	push	{lr}
    3b86:	f7ff ffd4 	bl	3b32 <nullprobekomma>
    3b8a:	f000 f81e 	bl	3bca <branch_v>
    3b8e:	6839      	ldr	r1, [r7, #0]
    3b90:	603e      	str	r6, [r7, #0]
    3b92:	460e      	mov	r6, r1
    3b94:	f847 6d04 	str.w	r6, [r7, #-4]!
    3b98:	f24d 0600 	movw	r6, #53248	; 0xd000
    3b9c:	f7ff ff6d 	bl	3a7a <Code_926>
    3ba0:	bd00      	pop	{pc}

00003ba2 <r_branch>:
    3ba2:	b500      	push	{lr}
    3ba4:	f000 f811 	bl	3bca <branch_v>
    3ba8:	6839      	ldr	r1, [r7, #0]
    3baa:	603e      	str	r6, [r7, #0]
    3bac:	460e      	mov	r6, r1
    3bae:	f7ff ff90 	bl	3ad2 <Code_930>
    3bb2:	bd00      	pop	{pc}

00003bb4 <nullbranch_v>:
    3bb4:	b500      	push	{lr}
    3bb6:	f7ff ffbc 	bl	3b32 <nullprobekomma>
    3bba:	f7ff ffa6 	bl	3b0a <Code_935>
    3bbe:	f847 6d04 	str.w	r6, [r7, #-4]!
    3bc2:	2602      	movs	r6, #2
    3bc4:	f7ff fcb0 	bl	3528 <Code_837>
    3bc8:	bd00      	pop	{pc}

00003bca <branch_v>:
    3bca:	b500      	push	{lr}
    3bcc:	f7ff ff9d 	bl	3b0a <Code_935>
    3bd0:	f847 6d04 	str.w	r6, [r7, #-4]!
    3bd4:	2602      	movs	r6, #2
    3bd6:	f7ff fca7 	bl	3528 <Code_837>
    3bda:	bd00      	pop	{pc}

00003bdc <v_branch>:
    3bdc:	b500      	push	{lr}
    3bde:	f7ff ff94 	bl	3b0a <Code_935>
    3be2:	f7ff ff76 	bl	3ad2 <Code_930>
    3be6:	bd00      	pop	{pc}

00003be8 <v_nullbranch>:
    3be8:	b500      	push	{lr}
    3bea:	f7ff ff8e 	bl	3b0a <Code_935>
    3bee:	f847 6d04 	str.w	r6, [r7, #-4]!
    3bf2:	f24d 0600 	movw	r6, #53248	; 0xd000
    3bf6:	f7ff ff40 	bl	3a7a <Code_926>
    3bfa:	bd00      	pop	{pc}

00003bfc <v_casebranch>:
    3bfc:	b500      	push	{lr}
    3bfe:	f7ff ff84 	bl	3b0a <Code_935>
    3c02:	f847 6d04 	str.w	r6, [r7, #-4]!
    3c06:	f24d 1600 	movw	r6, #53504	; 0xd100
    3c0a:	f7ff ff36 	bl	3a7a <Code_926>
    3c0e:	bd00      	pop	{pc}

00003c10 <allocator_nullsprungprobe>:
    3c10:	b500      	push	{lr}
    3c12:	f7fc fc33 	bl	47c <expect_one_element>
    3c16:	f7fc fb67 	bl	2e8 <tidyup_register_allocator_5os>
    3c1a:	f7fc fb6a 	bl	2f2 <tidyup_register_allocator_4os>
    3c1e:	f7fc fb6d 	bl	2fc <tidyup_register_allocator_3os>
    3c22:	6881      	ldr	r1, [r0, #8]
    3c24:	2928      	cmp	r1, #40	; 0x28
    3c26:	d101      	bne.n	3c2c <allocator_nullsprungprobe+0x1c>
    3c28:	f7fc fc6e 	bl	508 <expect_nos_in_register>
    3c2c:	f7fc fc62 	bl	4f4 <expect_tos_in_register>
    3c30:	f847 6d04 	str.w	r6, [r7, #-4]!
    3c34:	f642 0600 	movw	r6, #10240	; 0x2800
    3c38:	0209      	lsls	r1, r1, #8
    3c3a:	430e      	orrs	r6, r1
    3c3c:	f7ff fc02 	bl	3444 <Code_817>
    3c40:	f7fc fb1b 	bl	27a <eliminiere_tos>
    3c44:	f7fc fb44 	bl	2d0 <tidyup_register_allocator>
    3c48:	bd00      	pop	{pc}

00003c4a <Dictionary_963>:
    3c4a:	00003cbe 			; <UNDEFINED> instruction: 0x00003cbe
    3c4e:	69020630 	stmdbvs	r2, {r4, r5, r9, sl}
    3c52:	b5000066 	strlt	r0, [r0, #-102]	; 0x66

00003c54 <Code_963>:
    3c54:	b500      	push	{lr}
    3c56:	f7ff ffad 	bl	3bb4 <nullbranch_v>
    3c5a:	f847 6d04 	str.w	r6, [r7, #-4]!
    3c5e:	f24d 0600 	movw	r6, #53248	; 0xd000
    3c62:	f847 6d04 	str.w	r6, [r7, #-4]!
    3c66:	2602      	movs	r6, #2
    3c68:	bd00      	pop	{pc}

00003c6a <struktur_if_allokator>:
    3c6a:	b500      	push	{lr}
    3c6c:	f7fc fc99 	bl	5a2 <push_lr_nachholen>
    3c70:	f7fd fd64 	bl	173c <eliminiere_tos_wenn_bmi>
    3c74:	6a81      	ldr	r1, [r0, #40]	; 0x28
    3c76:	2900      	cmp	r1, #0
    3c78:	d010      	beq.n	3c9c <struktur_if_allokator+0x32>
    3c7a:	b402      	push	{r1}
    3c7c:	f7fc fb28 	bl	2d0 <tidyup_register_allocator>
    3c80:	f7ff ff43 	bl	3b0a <Code_935>
    3c84:	f847 6d04 	str.w	r6, [r7, #-4]!
    3c88:	2602      	movs	r6, #2
    3c8a:	f7ff fc4d 	bl	3528 <Code_837>
    3c8e:	f847 6d04 	str.w	r6, [r7, #-4]!
    3c92:	bc40      	pop	{r6}
    3c94:	f847 6d04 	str.w	r6, [r7, #-4]!
    3c98:	2602      	movs	r6, #2
    3c9a:	bd00      	pop	{pc}
    3c9c:	f7ff ffb8 	bl	3c10 <allocator_nullsprungprobe>
    3ca0:	f7ff ff33 	bl	3b0a <Code_935>
    3ca4:	f847 6d04 	str.w	r6, [r7, #-4]!
    3ca8:	2602      	movs	r6, #2
    3caa:	f7ff fc3d 	bl	3528 <Code_837>
    3cae:	f847 6d04 	str.w	r6, [r7, #-4]!
    3cb2:	f24d 0600 	movw	r6, #53248	; 0xd000
    3cb6:	f847 6d04 	str.w	r6, [r7, #-4]!
    3cba:	2602      	movs	r6, #2
    3cbc:	bd00      	pop	{pc}

00003cbe <Dictionary_979>:
    3cbe:	00003cf0 	strdeq	r3, [r0], -r0
    3cc2:	65040030 	strvs	r0, [r4, #-48]	; 0x30
    3cc6:	0065736c 	rsbeq	r7, r5, ip, ror #6

00003cca <Code_979>:
    3cca:	b500      	push	{lr}
    3ccc:	2e02      	cmp	r6, #2
    3cce:	d125      	bne.n	3d1c <strukturen_passen_nicht>
    3cd0:	cf40      	ldmia	r7!, {r6}
    3cd2:	f7ff ff7a 	bl	3bca <branch_v>
    3cd6:	f7fd f999 	bl	100c <Code_213>
    3cda:	f7ff ff16 	bl	3b0a <Code_935>
    3cde:	6839      	ldr	r1, [r7, #0]
    3ce0:	603e      	str	r6, [r7, #0]
    3ce2:	460e      	mov	r6, r1
    3ce4:	f7ff fec9 	bl	3a7a <Code_926>
    3ce8:	f847 6d04 	str.w	r6, [r7, #-4]!
    3cec:	2605      	movs	r6, #5
    3cee:	bd00      	pop	{pc}

00003cf0 <Dictionary_984>:
    3cf0:	00003d3c 	andeq	r3, r0, ip, lsr sp
    3cf4:	74040030 	strvc	r0, [r4], #-48	; 0x30
    3cf8:	006e6568 	rsbeq	r6, lr, r8, ror #10

00003cfc <Code_984>:
    3cfc:	2e05      	cmp	r6, #5
    3cfe:	d101      	bne.n	3d04 <Code_984+0x8>
    3d00:	cf40      	ldmia	r7!, {r6}
    3d02:	e76b      	b.n	3bdc <v_branch>
    3d04:	2e02      	cmp	r6, #2
    3d06:	d109      	bne.n	3d1c <strukturen_passen_nicht>
    3d08:	cf40      	ldmia	r7!, {r6}
    3d0a:	b500      	push	{lr}
    3d0c:	f7ff fefd 	bl	3b0a <Code_935>
    3d10:	6839      	ldr	r1, [r7, #0]
    3d12:	603e      	str	r6, [r7, #0]
    3d14:	460e      	mov	r6, r1
    3d16:	f7ff feb0 	bl	3a7a <Code_926>
    3d1a:	bd00      	pop	{pc}

00003d1c <strukturen_passen_nicht>:
    3d1c:	f7fe fe33 	bl	2986 <dotgaensefuesschen>
    3d20:	72745317 	rsbsvc	r5, r4, #1543503872	; 0x5c000000
    3d24:	75746375 	ldrbvc	r6, [r4, #-885]!	; 0x375
    3d28:	20736572 	rsbscs	r6, r3, r2, ror r5
    3d2c:	276e6f64 	strbcs	r6, [lr, -r4, ror #30]!
    3d30:	616d2074 	smcvs	53764	; 0xd204
    3d34:	0a686374 	beq	1a1cb0c <BIT24+0xa1cb0c>
    3d38:	f000 bdf1 	b.w	491e <Code_1230>

00003d3c <Dictionary_989>:
    3d3c:	00003d6a 	andeq	r3, r0, sl, ror #26
    3d40:	72060030 	andvc	r0, r6, #48	; 0x30
    3d44:	61657065 	cmnvs	r5, r5, rrx
    3d48:	2e040074 	mcrcs	0, 0, r0, cr4, cr4, {3}

00003d4a <Code_989>:
    3d4a:	2e04      	cmp	r6, #4
    3d4c:	d1e6      	bne.n	3d1c <strukturen_passen_nicht>
    3d4e:	cf40      	ldmia	r7!, {r6}
    3d50:	b500      	push	{lr}
    3d52:	f7fd f93f 	bl	fd4 <Code_212>
    3d56:	f7ff ff24 	bl	3ba2 <r_branch>
    3d5a:	f7ff fed6 	bl	3b0a <Code_935>
    3d5e:	6839      	ldr	r1, [r7, #0]
    3d60:	603e      	str	r6, [r7, #0]
    3d62:	460e      	mov	r6, r1
    3d64:	f7ff fe89 	bl	3a7a <Code_926>
    3d68:	bd00      	pop	{pc}

00003d6a <Dictionary_992>:
    3d6a:	00003d96 	muleq	r0, r6, sp
    3d6e:	77050630 	smladxvc	r5, r0, r6, r0
    3d72:	656c6968 	strbvs	r6, [ip, #-2408]!	; 0x968

00003d76 <Code_992>:
    3d76:	2e01      	cmp	r6, #1
    3d78:	d1d0      	bne.n	3d1c <strukturen_passen_nicht>
    3d7a:	cf40      	ldmia	r7!, {r6}
    3d7c:	b500      	push	{lr}
    3d7e:	f7ff ff69 	bl	3c54 <Code_963>
    3d82:	3602      	adds	r6, #2
    3d84:	bd00      	pop	{pc}
    3d86:	2e01      	cmp	r6, #1
    3d88:	d1c8      	bne.n	3d1c <strukturen_passen_nicht>
    3d8a:	cf40      	ldmia	r7!, {r6}
    3d8c:	b500      	push	{lr}
    3d8e:	f7ff ff6c 	bl	3c6a <struktur_if_allokator>
    3d92:	3602      	adds	r6, #2
    3d94:	bd00      	pop	{pc}

00003d96 <Dictionary_995>:
    3d96:	00003df6 	strdeq	r3, [r0], -r6
    3d9a:	75050630 	strvc	r0, [r5, #-1584]	; 0x630
    3d9e:	6c69746e 	cfstrdvs	mvd7, [r9], #-440	; 0xfffffe48

00003da2 <Code_995>:
    3da2:	2e01      	cmp	r6, #1
    3da4:	d1ba      	bne.n	3d1c <strukturen_passen_nicht>
    3da6:	cf40      	ldmia	r7!, {r6}
    3da8:	e6ec      	b.n	3b84 <r_nullbranch>
    3daa:	4770      	bx	lr
    3dac:	2e01      	cmp	r6, #1
    3dae:	d1b5      	bne.n	3d1c <strukturen_passen_nicht>
    3db0:	cf40      	ldmia	r7!, {r6}
    3db2:	b500      	push	{lr}
    3db4:	f7fd fcc2 	bl	173c <eliminiere_tos_wenn_bmi>
    3db8:	6a81      	ldr	r1, [r0, #40]	; 0x28
    3dba:	2900      	cmp	r1, #0
    3dbc:	d00d      	beq.n	3dda <Code_995+0x38>
    3dbe:	b402      	push	{r1}
    3dc0:	f7fc fa86 	bl	2d0 <tidyup_register_allocator>
    3dc4:	f7ff ff01 	bl	3bca <branch_v>
    3dc8:	6839      	ldr	r1, [r7, #0]
    3dca:	603e      	str	r6, [r7, #0]
    3dcc:	460e      	mov	r6, r1
    3dce:	f847 6d04 	str.w	r6, [r7, #-4]!
    3dd2:	bc40      	pop	{r6}
    3dd4:	f7ff fe51 	bl	3a7a <Code_926>
    3dd8:	bd00      	pop	{pc}
    3dda:	f7ff ff19 	bl	3c10 <allocator_nullsprungprobe>
    3dde:	f7ff fef4 	bl	3bca <branch_v>
    3de2:	6839      	ldr	r1, [r7, #0]
    3de4:	603e      	str	r6, [r7, #0]
    3de6:	460e      	mov	r6, r1
    3de8:	f847 6d04 	str.w	r6, [r7, #-4]!
    3dec:	f24d 0600 	movw	r6, #53248	; 0xd000
    3df0:	f7ff fe43 	bl	3a7a <Code_926>
    3df4:	bd00      	pop	{pc}

00003df6 <Dictionary_1003>:
    3df6:	00003e0a 	andeq	r3, r0, sl, lsl #28
    3dfa:	61050030 	tstvs	r5, r0, lsr r0
    3dfe:	6e696167 	powvsez	f6, f1, f7

00003e02 <Code_1003>:
    3e02:	2e01      	cmp	r6, #1
    3e04:	d18a      	bne.n	3d1c <strukturen_passen_nicht>
    3e06:	cf40      	ldmia	r7!, {r6}
    3e08:	e6cb      	b.n	3ba2 <r_branch>

00003e0a <Dictionary_1005>:
    3e0a:	00003e40 	andeq	r3, r0, r0, asr #28
    3e0e:	62050030 	andvs	r0, r5, #48	; 0x30
    3e12:	6e696765 	cdpvs	7, 6, cr6, cr9, cr5, {3}

00003e16 <Code_1005>:
    3e16:	b500      	push	{lr}
    3e18:	f7ff fe99 	bl	3b4e <branch_r>
    3e1c:	f847 6d04 	str.w	r6, [r7, #-4]!
    3e20:	2601      	movs	r6, #1
    3e22:	bd00      	pop	{pc}
    3e24:	ffffff01 			; <UNDEFINED> instruction: 0xffffff01
    3e28:	ffffff00 			; <UNDEFINED> instruction: 0xffffff00
    3e2c:	20000000 	andcs	r0, r0, r0
    3e30:	fffff801 			; <UNDEFINED> instruction: 0xfffff801
    3e34:	fffff800 			; <UNDEFINED> instruction: 0xfffff800
    3e38:	000007ff 	strdeq	r0, [r0], -pc	; <UNPREDICTABLE>
    3e3c:	20000024 	andcs	r0, r0, r4, lsr #32

00003e40 <Dictionary_1008>:
    3e40:	00003e5a 	andeq	r3, r0, sl, asr lr
    3e44:	6b010220 	blvs	446cc <BIT18+0x46cc>

00003e48 <Code_1008>:
    3e48:	f847 6d04 	str.w	r6, [r7, #-4]!
    3e4c:	9e02      	ldr	r6, [sp, #8]
    3e4e:	4770      	bx	lr
    3e50:	f847 6d04 	str.w	r6, [r7, #-4]!
    3e54:	f649 0602 	movw	r6, #38914	; 0x9802
    3e58:	e00b      	b.n	3e72 <loop_j_allocator>

00003e5a <Dictionary_1012>:
    3e5a:	00003e88 	andeq	r3, r0, r8, lsl #29
    3e5e:	6a010220 	bvs	446e6 <BIT18+0x46e6>

00003e62 <Code_1012>:
    3e62:	f847 6d04 	str.w	r6, [r7, #-4]!
    3e66:	9e00      	ldr	r6, [sp, #0]
    3e68:	4770      	bx	lr

00003e6a <rfetch_allocator>:
    3e6a:	f847 6d04 	str.w	r6, [r7, #-4]!
    3e6e:	f649 0600 	movw	r6, #38912	; 0x9800

00003e72 <loop_j_allocator>:
    3e72:	b500      	push	{lr}
    3e74:	f7fc f9f7 	bl	266 <befreie_tos>
    3e78:	f7fc facc 	bl	414 <get_free_register>
    3e7c:	6003      	str	r3, [r0, #0]
    3e7e:	021b      	lsls	r3, r3, #8
    3e80:	431e      	orrs	r6, r3
    3e82:	f7ff fadf 	bl	3444 <Code_817>
    3e86:	bd00      	pop	{pc}

00003e88 <Dictionary_1016>:
    3e88:	00003eb4 			; <UNDEFINED> instruction: 0x00003eb4
    3e8c:	69010220 	stmdbvs	r1, {r5, r9}

00003e90 <Code_1016>:
    3e90:	f847 6d04 	str.w	r6, [r7, #-4]!
    3e94:	0026      	movs	r6, r4
    3e96:	4770      	bx	lr
    3e98:	b500      	push	{lr}
    3e9a:	f847 6d04 	str.w	r6, [r7, #-4]!
    3e9e:	f240 0620 	movw	r6, #32
    3ea2:	f7fc f9e0 	bl	266 <befreie_tos>
    3ea6:	f7fc fab5 	bl	414 <get_free_register>
    3eaa:	6003      	str	r3, [r0, #0]
    3eac:	431e      	orrs	r6, r3
    3eae:	f7ff fac9 	bl	3444 <Code_817>
    3eb2:	bd00      	pop	{pc}

00003eb4 <Dictionary_1021>:
    3eb4:	00003ef2 	strdeq	r3, [r0], -r2
    3eb8:	6c050030 	stcvs	0, cr0, [r5], {48}	; 0x30
    3ebc:	65766165 	ldrbvs	r6, [r6, #-357]!	; 0x165

00003ec0 <Code_1021>:
    3ec0:	b500      	push	{lr}
    3ec2:	4875      	ldr	r0, [pc, #468]	; (4098 <gemeinsame_schleifenoptimierung+0x82>)
    3ec4:	6801      	ldr	r1, [r0, #0]
    3ec6:	003b      	movs	r3, r7
    3ec8:	3f04      	subs	r7, #4
    3eca:	681a      	ldr	r2, [r3, #0]
    3ecc:	3b04      	subs	r3, #4
    3ece:	601a      	str	r2, [r3, #0]
    3ed0:	3308      	adds	r3, #8
    3ed2:	428b      	cmp	r3, r1
    3ed4:	d1f9      	bne.n	3eca <Code_1021+0xa>
    3ed6:	b403      	push	{r0, r1}
    3ed8:	f7ff fe77 	bl	3bca <branch_v>
    3edc:	bc03      	pop	{r0, r1}
    3ede:	0033      	movs	r3, r6
    3ee0:	cf40      	ldmia	r7!, {r6}
    3ee2:	3904      	subs	r1, #4
    3ee4:	600b      	str	r3, [r1, #0]
    3ee6:	6001      	str	r1, [r0, #0]
    3ee8:	3904      	subs	r1, #4
    3eea:	680a      	ldr	r2, [r1, #0]
    3eec:	3201      	adds	r2, #1
    3eee:	600a      	str	r2, [r1, #0]
    3ef0:	bd00      	pop	{pc}

00003ef2 <Dictionary_1023>:
    3ef2:	00003f04 	andeq	r3, r0, r4, lsl #30
    3ef6:	75060020 	strvc	r0, [r6, #-32]
    3efa:	6f6f6c6e 	svcvs	0x006f6c6e
    3efe:	bc300070 	ldclt	0, cr0, [r0], #-448	; 0xfffffe40

00003f00 <Code_1023>:
    3f00:	bc30      	pop	{r4, r5}
    3f02:	4770      	bx	lr

00003f04 <Dictionary_1024>:
    3f04:	00003f3c 	andeq	r3, r0, ip, lsr pc
    3f08:	2b050030 	blcs	143fd0 <BIT20+0x43fd0>
    3f0c:	706f6f6c 	rsbvc	r6, pc, ip, ror #30

00003f10 <Code_1024>:
    3f10:	2e03      	cmp	r6, #3
    3f12:	d000      	beq.n	3f16 <Code_1024+0x6>
    3f14:	e702      	b.n	3d1c <strukturen_passen_nicht>
    3f16:	cf40      	ldmia	r7!, {r6}
    3f18:	b500      	push	{lr}
    3f1a:	f847 6d04 	str.w	r6, [r7, #-4]!
    3f1e:	4e5f      	ldr	r6, [pc, #380]	; (409c <gemeinsame_schleifenoptimierung+0x86>)
    3f20:	f7ff f878 	bl	3014 <Code_737>
    3f24:	f7ff fe21 	bl	3b6a <r_branch_jvc>
    3f28:	e01a      	b.n	3f60 <loop_intern>

00003f2a <struktur_plusloop>:
    3f2a:	f114 4400 	adds.w	r4, r4, #2147483648	; 0x80000000
    3f2e:	1b64      	subs	r4, r4, r5
    3f30:	19a4      	adds	r4, r4, r6
    3f32:	cf40      	ldmia	r7!, {r6}
    3f34:	442c      	add	r4, r5
    3f36:	f1a4 4400 	sub.w	r4, r4, #2147483648	; 0x80000000
    3f3a:	4770      	bx	lr

00003f3c <Dictionary_1028>:
    3f3c:	00003f7e 	andeq	r3, r0, lr, ror pc
    3f40:	6c040030 	stcvs	0, cr0, [r4], {48}	; 0x30
    3f44:	00706f6f 	rsbseq	r6, r0, pc, ror #30

00003f48 <Code_1028>:
    3f48:	2e03      	cmp	r6, #3
    3f4a:	d000      	beq.n	3f4e <Code_1028+0x6>
    3f4c:	e6e6      	b.n	3d1c <strukturen_passen_nicht>
    3f4e:	cf40      	ldmia	r7!, {r6}
    3f50:	b500      	push	{lr}
    3f52:	f847 6d04 	str.w	r6, [r7, #-4]!
    3f56:	4e52      	ldr	r6, [pc, #328]	; (40a0 <gemeinsame_schleifenoptimierung+0x8a>)
    3f58:	f7ff f85c 	bl	3014 <Code_737>
    3f5c:	f7ff fdf8 	bl	3b50 <r_branch_jne>

00003f60 <loop_intern>:
    3f60:	f000 f952 	bl	4208 <spruenge_einpflegen>
    3f64:	484c      	ldr	r0, [pc, #304]	; (4098 <gemeinsame_schleifenoptimierung+0x82>)
    3f66:	0031      	movs	r1, r6
    3f68:	cf40      	ldmia	r7!, {r6}
    3f6a:	6001      	str	r1, [r0, #0]
    3f6c:	f847 6d04 	str.w	r6, [r7, #-4]!
    3f70:	4e4c      	ldr	r6, [pc, #304]	; (40a4 <gemeinsame_schleifenoptimierung+0x8e>)
    3f72:	f7ff f84f 	bl	3014 <Code_737>
    3f76:	bd00      	pop	{pc}

00003f78 <struktur_loop>:
    3f78:	3401      	adds	r4, #1
    3f7a:	42ac      	cmp	r4, r5
    3f7c:	4770      	bx	lr

00003f7e <Dictionary_1033>:
    3f7e:	00003fc6 	andeq	r3, r0, r6, asr #31
    3f82:	64020230 	strvs	r0, [r2], #-560	; 0x230
    3f86:	b500006f 	strlt	r0, [r0, #-111]	; 0x6f

00003f88 <Code_1033>:
    3f88:	b500      	push	{lr}
    3f8a:	f847 6d04 	str.w	r6, [r7, #-4]!
    3f8e:	4e46      	ldr	r6, [pc, #280]	; (40a8 <gemeinsame_schleifenoptimierung+0x92>)
    3f90:	f7ff f840 	bl	3014 <Code_737>

00003f94 <do_rest_der_schleifenstruktur>:
    3f94:	4840      	ldr	r0, [pc, #256]	; (4098 <gemeinsame_schleifenoptimierung+0x82>)
    3f96:	6801      	ldr	r1, [r0, #0]
    3f98:	f847 6d04 	str.w	r6, [r7, #-4]!
    3f9c:	000e      	movs	r6, r1
    3f9e:	f847 6d04 	str.w	r6, [r7, #-4]!
    3fa2:	2600      	movs	r6, #0
    3fa4:	6007      	str	r7, [r0, #0]
    3fa6:	f7ff fdd2 	bl	3b4e <branch_r>
    3faa:	f847 6d04 	str.w	r6, [r7, #-4]!
    3fae:	2603      	movs	r6, #3
    3fb0:	bd00      	pop	{pc}
    3fb2:	b500      	push	{lr}
    3fb4:	f000 f82f 	bl	4016 <gemeinsame_schleifenoptimierung>
    3fb8:	e7ec      	b.n	3f94 <do_rest_der_schleifenstruktur>

00003fba <struktur_do>:
    3fba:	b430      	push	{r4, r5}
    3fbc:	0034      	movs	r4, r6
    3fbe:	cf40      	ldmia	r7!, {r6}
    3fc0:	0035      	movs	r5, r6
    3fc2:	cf40      	ldmia	r7!, {r6}
    3fc4:	4770      	bx	lr

00003fc6 <Dictionary_1043>:
    3fc6:	000040ac 	andeq	r4, r0, ip, lsr #1
    3fca:	3f030230 	svccc	0x00030230
    3fce:	b5006f64 	strlt	r6, [r0, #-3940]	; 0xf64

00003fd0 <Code_1043>:
    3fd0:	b500      	push	{lr}
    3fd2:	f847 6d04 	str.w	r6, [r7, #-4]!
    3fd6:	4e34      	ldr	r6, [pc, #208]	; (40a8 <gemeinsame_schleifenoptimierung+0x92>)
    3fd8:	f7ff f81c 	bl	3014 <Code_737>

00003fdc <qdo_rest_der_schleifenstruktur>:
    3fdc:	f847 6d04 	str.w	r6, [r7, #-4]!
    3fe0:	f244 26ac 	movw	r6, #17068	; 0x42ac
    3fe4:	f7ff fa2e 	bl	3444 <Code_817>
    3fe8:	482b      	ldr	r0, [pc, #172]	; (4098 <gemeinsame_schleifenoptimierung+0x82>)
    3fea:	6801      	ldr	r1, [r0, #0]
    3fec:	f847 6d04 	str.w	r6, [r7, #-4]!
    3ff0:	000e      	movs	r6, r1
    3ff2:	f7ff fdea 	bl	3bca <branch_v>
    3ff6:	3601      	adds	r6, #1
    3ff8:	f847 6d04 	str.w	r6, [r7, #-4]!
    3ffc:	2601      	movs	r6, #1
    3ffe:	4826      	ldr	r0, [pc, #152]	; (4098 <gemeinsame_schleifenoptimierung+0x82>)
    4000:	6007      	str	r7, [r0, #0]
    4002:	f7ff fda4 	bl	3b4e <branch_r>
    4006:	f847 6d04 	str.w	r6, [r7, #-4]!
    400a:	2603      	movs	r6, #3
    400c:	bd00      	pop	{pc}
    400e:	b500      	push	{lr}
    4010:	f000 f801 	bl	4016 <gemeinsame_schleifenoptimierung>
    4014:	e7e2      	b.n	3fdc <qdo_rest_der_schleifenstruktur>

00004016 <gemeinsame_schleifenoptimierung>:
    4016:	b500      	push	{lr}
    4018:	f7fc fac3 	bl	5a2 <push_lr_nachholen>
    401c:	f7fc fa38 	bl	490 <expect_two_elements>
    4020:	f7fc f962 	bl	2e8 <tidyup_register_allocator_5os>
    4024:	f7fc f965 	bl	2f2 <tidyup_register_allocator_4os>
    4028:	f7fc f968 	bl	2fc <tidyup_register_allocator_3os>
    402c:	f847 6d04 	str.w	r6, [r7, #-4]!
    4030:	f24b 4630 	movw	r6, #46128	; 0xb430
    4034:	f7ff fa06 	bl	3444 <Code_817>
    4038:	6801      	ldr	r1, [r0, #0]
    403a:	2928      	cmp	r1, #40	; 0x28
    403c:	d008      	beq.n	4050 <gemeinsame_schleifenoptimierung+0x3a>
    403e:	f847 6d04 	str.w	r6, [r7, #-4]!
    4042:	f240 0604 	movw	r6, #4
    4046:	00c9      	lsls	r1, r1, #3
    4048:	430e      	orrs	r6, r1
    404a:	f7ff f9fb 	bl	3444 <Code_817>
    404e:	e007      	b.n	4060 <gemeinsame_schleifenoptimierung+0x4a>
    4050:	f847 6d04 	str.w	r6, [r7, #-4]!
    4054:	6846      	ldr	r6, [r0, #4]
    4056:	f847 6d04 	str.w	r6, [r7, #-4]!
    405a:	2604      	movs	r6, #4
    405c:	f7fe fe8c 	bl	2d78 <Code_689>
    4060:	6881      	ldr	r1, [r0, #8]
    4062:	2928      	cmp	r1, #40	; 0x28
    4064:	d008      	beq.n	4078 <gemeinsame_schleifenoptimierung+0x62>
    4066:	f847 6d04 	str.w	r6, [r7, #-4]!
    406a:	f240 0605 	movw	r6, #5
    406e:	00c9      	lsls	r1, r1, #3
    4070:	430e      	orrs	r6, r1
    4072:	f7ff f9e7 	bl	3444 <Code_817>
    4076:	e007      	b.n	4088 <gemeinsame_schleifenoptimierung+0x72>
    4078:	f847 6d04 	str.w	r6, [r7, #-4]!
    407c:	68c6      	ldr	r6, [r0, #12]
    407e:	f847 6d04 	str.w	r6, [r7, #-4]!
    4082:	2605      	movs	r6, #5
    4084:	f7fe fe78 	bl	2d78 <Code_689>
    4088:	f7fc f8f7 	bl	27a <eliminiere_tos>
    408c:	f7fc f8f5 	bl	27a <eliminiere_tos>
    4090:	f7fc f93e 	bl	310 <tidyup_register_allocator_tos>
    4094:	bd00      	pop	{pc}
    4096:	000c0000 	andeq	r0, ip, r0
    409a:	3f2a2000 	svccc	0x002a2000
    409e:	3f780000 	svccc	0x00780000
    40a2:	3f000000 	svccc	0x00000000
    40a6:	3fba0000 	svccc	0x00ba0000
	...

000040ac <Dictionary_1065>:
    40ac:	000040cc 	andeq	r4, r0, ip, asr #1
    40b0:	63040030 	movwvs	r0, #16432	; 0x4030
    40b4:	00657361 	rsbeq	r7, r5, r1, ror #6

000040b8 <Code_1065>:
    40b8:	b500      	push	{lr}
    40ba:	f7fc fa72 	bl	5a2 <push_lr_nachholen>
    40be:	f847 6d04 	str.w	r6, [r7, #-4]!
    40c2:	2600      	movs	r6, #0
    40c4:	f847 6d04 	str.w	r6, [r7, #-4]!
    40c8:	2608      	movs	r6, #8
    40ca:	bd00      	pop	{pc}

000040cc <Dictionary_1070>:
    40cc:	000040e2 	andeq	r4, r0, r2, ror #1
    40d0:	3f030030 	svccc	0x00030030
    40d4:	4871666f 	ldmdami	r1!, {r0, r1, r2, r3, r5, r6, r9, sl, sp, lr}^

000040d6 <Code_1070>:
    40d6:	4871      	ldr	r0, [pc, #452]	; (429c <Code_1105+0x4c>)
    40d8:	e009      	b.n	40ee <of_inneneinsprung>

000040da <struktur_qof>:
    40da:	3e01      	subs	r6, #1
    40dc:	41b6      	sbcs	r6, r6
    40de:	cf40      	ldmia	r7!, {r6}
    40e0:	4770      	bx	lr

000040e2 <Dictionary_1072>:
    40e2:	000041a8 	andeq	r4, r0, r8, lsr #3
    40e6:	6f020230 	svcvs	0x00020230
    40ea:	486c0066 	stmdami	ip!, {r1, r2, r5, r6}^

000040ec <Code_1072>:
    40ec:	486c      	ldr	r0, [pc, #432]	; (42a0 <Code_1105+0x50>)

000040ee <of_inneneinsprung>:
    40ee:	2e08      	cmp	r6, #8
    40f0:	d000      	beq.n	40f4 <of_inneneinsprung+0x6>
    40f2:	e613      	b.n	3d1c <strukturen_passen_nicht>
    40f4:	cf40      	ldmia	r7!, {r6}
    40f6:	b500      	push	{lr}
    40f8:	f847 6d04 	str.w	r6, [r7, #-4]!
    40fc:	0006      	movs	r6, r0
    40fe:	f7fe ff89 	bl	3014 <Code_737>

00004102 <of_opcodiereinsprung>:
    4102:	f7ff fd62 	bl	3bca <branch_v>
    4106:	6839      	ldr	r1, [r7, #0]
    4108:	603e      	str	r6, [r7, #0]
    410a:	460e      	mov	r6, r1
    410c:	3601      	adds	r6, #1
    410e:	f847 6d04 	str.w	r6, [r7, #-4]!
    4112:	2609      	movs	r6, #9
    4114:	f847 6d04 	str.w	r6, [r7, #-4]!
    4118:	f64c 7640 	movw	r6, #53056	; 0xcf40
    411c:	f7ff f992 	bl	3444 <Code_817>
    4120:	bd00      	pop	{pc}
    4122:	2e08      	cmp	r6, #8
    4124:	d000      	beq.n	4128 <of_opcodiereinsprung+0x26>
    4126:	e5f9      	b.n	3d1c <strukturen_passen_nicht>
    4128:	cf40      	ldmia	r7!, {r6}
    412a:	b500      	push	{lr}
    412c:	f7fc f9b0 	bl	490 <expect_two_elements>
    4130:	f7fc f8da 	bl	2e8 <tidyup_register_allocator_5os>
    4134:	f7fc f8dd 	bl	2f2 <tidyup_register_allocator_4os>
    4138:	f7fc f8e0 	bl	2fc <tidyup_register_allocator_3os>
    413c:	f847 6d04 	str.w	r6, [r7, #-4]!
    4140:	f244 2680 	movw	r6, #17024	; 0x4280
    4144:	f7fc f9e0 	bl	508 <expect_nos_in_register>
    4148:	430e      	orrs	r6, r1
    414a:	6802      	ldr	r2, [r0, #0]
    414c:	2a28      	cmp	r2, #40	; 0x28
    414e:	d11e      	bne.n	418e <of_opcodiereinsprung+0x8c>
    4150:	6842      	ldr	r2, [r0, #4]
    4152:	2aff      	cmp	r2, #255	; 0xff
    4154:	d808      	bhi.n	4168 <of_opcodiereinsprung+0x66>
    4156:	cf40      	ldmia	r7!, {r6}
    4158:	f847 6d04 	str.w	r6, [r7, #-4]!
    415c:	f642 0600 	movw	r6, #10240	; 0x2800
    4160:	4316      	orrs	r6, r2
    4162:	0209      	lsls	r1, r1, #8
    4164:	430e      	orrs	r6, r1
    4166:	e014      	b.n	4192 <of_opcodiereinsprung+0x90>
    4168:	f847 6d04 	str.w	r6, [r7, #-4]!
    416c:	6846      	ldr	r6, [r0, #4]
    416e:	f7fe fd4f 	bl	2c10 <Code_680>
    4172:	cf04      	ldmia	r7!, {r2}
    4174:	2e00      	cmp	r6, #0
    4176:	cf40      	ldmia	r7!, {r6}
    4178:	d006      	beq.n	4188 <of_opcodiereinsprung+0x86>
    417a:	4e4a      	ldr	r6, [pc, #296]	; (42a4 <Code_1105+0x54>)
    417c:	4316      	orrs	r6, r2
    417e:	ea56 4601 	orrs.w	r6, r6, r1, lsl #16
    4182:	f7ff f98e 	bl	34a2 <Code_826>
    4186:	e006      	b.n	4196 <of_opcodiereinsprung+0x94>
    4188:	f7fc f9b4 	bl	4f4 <expect_tos_in_register>
    418c:	000a      	movs	r2, r1
    418e:	00d2      	lsls	r2, r2, #3
    4190:	4316      	orrs	r6, r2
    4192:	f7ff f957 	bl	3444 <Code_817>
    4196:	f7fc f870 	bl	27a <eliminiere_tos>
    419a:	f7fc f8b9 	bl	310 <tidyup_register_allocator_tos>
    419e:	e7b0      	b.n	4102 <of_opcodiereinsprung>

000041a0 <struktur_of>:
    41a0:	0030      	movs	r0, r6
    41a2:	cf40      	ldmia	r7!, {r6}
    41a4:	42b0      	cmp	r0, r6
    41a6:	4770      	bx	lr

000041a8 <Dictionary_1090>:
    41a8:	000041de 	ldrdeq	r4, [r0], -lr
    41ac:	65050030 	strvs	r0, [r5, #-48]	; 0x30
    41b0:	666f646e 	strbtvs	r6, [pc], -lr, ror #8

000041b4 <Code_1090>:
    41b4:	2e09      	cmp	r6, #9
    41b6:	d000      	beq.n	41ba <Code_1090+0x6>
    41b8:	e5b0      	b.n	3d1c <strukturen_passen_nicht>
    41ba:	cf40      	ldmia	r7!, {r6}
    41bc:	b500      	push	{lr}
    41be:	b440      	push	{r6}
    41c0:	cf40      	ldmia	r7!, {r6}
    41c2:	f7ff fd02 	bl	3bca <branch_v>
    41c6:	6839      	ldr	r1, [r7, #0]
    41c8:	603e      	str	r6, [r7, #0]
    41ca:	460e      	mov	r6, r1
    41cc:	f7ff fd16 	bl	3bfc <v_casebranch>
    41d0:	f847 6d04 	str.w	r6, [r7, #-4]!
    41d4:	bc40      	pop	{r6}
    41d6:	f847 6d04 	str.w	r6, [r7, #-4]!
    41da:	2608      	movs	r6, #8
    41dc:	bd00      	pop	{pc}

000041de <Dictionary_1098>:
    41de:	00004230 	andeq	r4, r0, r0, lsr r2
    41e2:	65070030 	strvs	r0, [r7, #-48]	; 0x30
    41e6:	6163646e 	cmnvs	r3, lr, ror #8
    41ea:	2e086573 	cfrshl64cs	mvdx8, mvdx3, r6

000041ec <Code_1098>:
    41ec:	2e08      	cmp	r6, #8
    41ee:	d000      	beq.n	41f2 <Code_1098+0x6>
    41f0:	e594      	b.n	3d1c <strukturen_passen_nicht>
    41f2:	cf40      	ldmia	r7!, {r6}
    41f4:	b500      	push	{lr}
    41f6:	f847 6d04 	str.w	r6, [r7, #-4]!
    41fa:	f64c 7640 	movw	r6, #53056	; 0xcf40
    41fe:	f7ff f921 	bl	3444 <Code_817>
    4202:	f000 f801 	bl	4208 <spruenge_einpflegen>
    4206:	bd00      	pop	{pc}

00004208 <spruenge_einpflegen>:
    4208:	b500      	push	{lr}
    420a:	0030      	movs	r0, r6
    420c:	cf40      	ldmia	r7!, {r6}
    420e:	2800      	cmp	r0, #0
    4210:	d00d      	beq.n	422e <spruenge_einpflegen+0x26>
    4212:	b403      	push	{r0, r1}
    4214:	2101      	movs	r1, #1
    4216:	4031      	ands	r1, r6
    4218:	2900      	cmp	r1, #0
    421a:	d003      	beq.n	4224 <spruenge_einpflegen+0x1c>
    421c:	3e01      	subs	r6, #1
    421e:	f7ff fce3 	bl	3be8 <v_nullbranch>
    4222:	e001      	b.n	4228 <spruenge_einpflegen+0x20>
    4224:	f7ff fcda 	bl	3bdc <v_branch>
    4228:	bc03      	pop	{r0, r1}
    422a:	3801      	subs	r0, #1
    422c:	e7ef      	b.n	420e <spruenge_einpflegen+0x6>
    422e:	bd00      	pop	{pc}

00004230 <Dictionary_1103>:
    4230:	00004244 	andeq	r4, r0, r4, asr #4
    4234:	74050000 	strvc	r0, [r5]
    4238:	6e656b6f 	vnmulvs.f64	d22, d5, d31

0000423c <Code_1103>:
    423c:	f847 6d04 	str.w	r6, [r7, #-4]!
    4240:	2620      	movs	r6, #32
    4242:	e005      	b.n	4250 <Code_1105>

00004244 <Dictionary_1105>:
    4244:	000042ac 	andeq	r4, r0, ip, lsr #5
    4248:	70050000 	andvc	r0, r5, r0
    424c:	65737261 	ldrbvs	r7, [r3, #-609]!	; 0x261

00004250 <Code_1105>:
    4250:	b510      	push	{r4, lr}
    4252:	f7fe fae2 	bl	281a <Code_588>
    4256:	0031      	movs	r1, r6
    4258:	cf40      	ldmia	r7!, {r6}
    425a:	0030      	movs	r0, r6
    425c:	cf40      	ldmia	r7!, {r6}
    425e:	4a12      	ldr	r2, [pc, #72]	; (42a8 <Code_1105+0x58>)
    4260:	6812      	ldr	r2, [r2, #0]
    4262:	1884      	adds	r4, r0, r2
    4264:	2e20      	cmp	r6, #32
    4266:	d107      	bne.n	4278 <Code_1105+0x28>
    4268:	4291      	cmp	r1, r2
    426a:	d00f      	beq.n	428c <Code_1105+0x3c>
    426c:	5c83      	ldrb	r3, [r0, r2]
    426e:	42b3      	cmp	r3, r6
    4270:	d102      	bne.n	4278 <Code_1105+0x28>
    4272:	3201      	adds	r2, #1
    4274:	1884      	adds	r4, r0, r2
    4276:	e7f7      	b.n	4268 <Code_1105+0x18>
    4278:	4291      	cmp	r1, r2
    427a:	d007      	beq.n	428c <Code_1105+0x3c>
    427c:	5c83      	ldrb	r3, [r0, r2]
    427e:	3201      	adds	r2, #1
    4280:	42b3      	cmp	r3, r6
    4282:	d1f9      	bne.n	4278 <Code_1105+0x28>
    4284:	1886      	adds	r6, r0, r2
    4286:	1b36      	subs	r6, r6, r4
    4288:	3e01      	subs	r6, #1
    428a:	e001      	b.n	4290 <Code_1105+0x40>
    428c:	1886      	adds	r6, r0, r2
    428e:	1b36      	subs	r6, r6, r4
    4290:	3f04      	subs	r7, #4
    4292:	603c      	str	r4, [r7, #0]
    4294:	4804      	ldr	r0, [pc, #16]	; (42a8 <Code_1105+0x58>)
    4296:	6002      	str	r2, [r0, #0]
    4298:	bd10      	pop	{r4, pc}
    429a:	40da0000 	sbcsmi	r0, sl, r0
    429e:	41a00000 	movmi	r0, r0
    42a2:	0f000000 	svceq	0x00000000
    42a6:	7fe4f1b0 	svcvc	0x00e4f1b0
    42aa:	42ea2001 	rscmi	r2, sl, #1

000042ac <Dictionary_1108>:
    42ac:	000042ea 	andeq	r4, r0, sl, ror #5
    42b0:	64050000 	strvs	r0, [r5]
    42b4:	74696769 	strbtvc	r6, [r9], #-1897	; 0x769

000042b8 <Code_1108>:
    42b8:	4bcf      	ldr	r3, [pc, #828]	; (45f8 <Code_1171+0xa>)
    42ba:	681b      	ldr	r3, [r3, #0]

000042bc <digit_base_r3>:
    42bc:	3e30      	subs	r6, #48	; 0x30
    42be:	d30b      	bcc.n	42d8 <digit_base_r3+0x1c>
    42c0:	2e0a      	cmp	r6, #10
    42c2:	d30b      	bcc.n	42dc <digit_base_r3+0x20>
    42c4:	3e07      	subs	r6, #7
    42c6:	2e0a      	cmp	r6, #10
    42c8:	d306      	bcc.n	42d8 <digit_base_r3+0x1c>
    42ca:	2e24      	cmp	r6, #36	; 0x24
    42cc:	d306      	bcc.n	42dc <digit_base_r3+0x20>
    42ce:	3e20      	subs	r6, #32
    42d0:	2e0a      	cmp	r6, #10
    42d2:	d301      	bcc.n	42d8 <digit_base_r3+0x1c>
    42d4:	2e24      	cmp	r6, #36	; 0x24
    42d6:	d301      	bcc.n	42dc <digit_base_r3+0x20>
    42d8:	2600      	movs	r6, #0
    42da:	4770      	bx	lr
    42dc:	429e      	cmp	r6, r3
    42de:	d2fb      	bcs.n	42d8 <digit_base_r3+0x1c>
    42e0:	f847 6d04 	str.w	r6, [r7, #-4]!
    42e4:	2600      	movs	r6, #0
    42e6:	43f6      	mvns	r6, r6
    42e8:	4770      	bx	lr

000042ea <Dictionary_1110>:
    42ea:	000043f4 	strdeq	r4, [r0], -r4	; <UNPREDICTABLE>
    42ee:	6e060000 	cdpvs	0, 0, cr0, cr6, cr0, {0}
    42f2:	65626d75 	strbvs	r6, [r2, #-3445]!	; 0xd75
    42f6:	b53f0072 	ldrlt	r0, [pc, #-114]!	; 428c <Code_1105+0x3c>

000042f8 <Code_1110>:
    42f8:	b53f      	push	{r0, r1, r2, r3, r4, r5, lr}
    42fa:	0031      	movs	r1, r6
    42fc:	cf40      	ldmia	r7!, {r6}
    42fe:	1e70      	subs	r0, r6, #1
    4300:	2601      	movs	r6, #1
    4302:	2201      	movs	r2, #1
    4304:	b404      	push	{r2}
    4306:	4bbc      	ldr	r3, [pc, #752]	; (45f8 <Code_1171+0xa>)
    4308:	681b      	ldr	r3, [r3, #0]
    430a:	2400      	movs	r4, #0
    430c:	2500      	movs	r5, #0
    430e:	2900      	cmp	r1, #0
    4310:	d03c      	beq.n	438c <Code_1110+0x94>
    4312:	3001      	adds	r0, #1
    4314:	3901      	subs	r1, #1
    4316:	7802      	ldrb	r2, [r0, #0]
    4318:	2a2d      	cmp	r2, #45	; 0x2d
    431a:	d104      	bne.n	4326 <Code_1110+0x2e>
    431c:	b001      	add	sp, #4
    431e:	2200      	movs	r2, #0
    4320:	43d2      	mvns	r2, r2
    4322:	b404      	push	{r2}
    4324:	e7f3      	b.n	430e <Code_1110+0x16>
    4326:	2a23      	cmp	r2, #35	; 0x23
    4328:	d101      	bne.n	432e <Code_1110+0x36>
    432a:	230a      	movs	r3, #10
    432c:	e7ef      	b.n	430e <Code_1110+0x16>
    432e:	2a24      	cmp	r2, #36	; 0x24
    4330:	d101      	bne.n	4336 <Code_1110+0x3e>
    4332:	2310      	movs	r3, #16
    4334:	e7eb      	b.n	430e <Code_1110+0x16>
    4336:	2a25      	cmp	r2, #37	; 0x25
    4338:	d101      	bne.n	433e <Code_1110+0x46>
    433a:	2302      	movs	r3, #2
    433c:	e7e7      	b.n	430e <Code_1110+0x16>
    433e:	2a2e      	cmp	r2, #46	; 0x2e
    4340:	d101      	bne.n	4346 <Code_1110+0x4e>
    4342:	2602      	movs	r6, #2
    4344:	e7e3      	b.n	430e <Code_1110+0x16>
    4346:	2a2c      	cmp	r2, #44	; 0x2c
    4348:	d036      	beq.n	43b8 <number_nachkommastellen>
    434a:	f847 6d04 	str.w	r6, [r7, #-4]!
    434e:	0016      	movs	r6, r2
    4350:	f7ff ffb4 	bl	42bc <digit_base_r3>
    4354:	2e00      	cmp	r6, #0
    4356:	cf40      	ldmia	r7!, {r6}
    4358:	d02b      	beq.n	43b2 <Code_1110+0xba>
    435a:	f847 6d04 	str.w	r6, [r7, #-4]!
    435e:	0026      	movs	r6, r4
    4360:	f847 6d04 	str.w	r6, [r7, #-4]!
    4364:	002e      	movs	r6, r5
    4366:	f847 6d04 	str.w	r6, [r7, #-4]!
    436a:	001e      	movs	r6, r3
    436c:	f847 6d04 	str.w	r6, [r7, #-4]!
    4370:	2600      	movs	r6, #0
    4372:	b40f      	push	{r0, r1, r2, r3}
    4374:	f7fc fb1d 	bl	9b2 <Code_119>
    4378:	bc0f      	pop	{r0, r1, r2, r3}
    437a:	0035      	movs	r5, r6
    437c:	cf40      	ldmia	r7!, {r6}
    437e:	0034      	movs	r4, r6
    4380:	cf40      	ldmia	r7!, {r6}
    4382:	2200      	movs	r2, #0
    4384:	19a4      	adds	r4, r4, r6
    4386:	4155      	adcs	r5, r2
    4388:	cf40      	ldmia	r7!, {r6}
    438a:	e7c0      	b.n	430e <Code_1110+0x16>
    438c:	bc04      	pop	{r2}
    438e:	2a00      	cmp	r2, #0
    4390:	d504      	bpl.n	439c <Code_1110+0xa4>
    4392:	2200      	movs	r2, #0
    4394:	43e4      	mvns	r4, r4
    4396:	43ed      	mvns	r5, r5
    4398:	3401      	adds	r4, #1
    439a:	4155      	adcs	r5, r2
    439c:	0033      	movs	r3, r6
    439e:	0026      	movs	r6, r4
    43a0:	2b01      	cmp	r3, #1
    43a2:	d002      	beq.n	43aa <Code_1110+0xb2>
    43a4:	f847 6d04 	str.w	r6, [r7, #-4]!
    43a8:	002e      	movs	r6, r5
    43aa:	f847 6d04 	str.w	r6, [r7, #-4]!
    43ae:	001e      	movs	r6, r3
    43b0:	bd3f      	pop	{r0, r1, r2, r3, r4, r5, pc}
    43b2:	b001      	add	sp, #4
    43b4:	2600      	movs	r6, #0
    43b6:	bd3f      	pop	{r0, r1, r2, r3, r4, r5, pc}

000043b8 <number_nachkommastellen>:
    43b8:	0025      	movs	r5, r4
    43ba:	2400      	movs	r4, #0
    43bc:	2602      	movs	r6, #2
    43be:	2900      	cmp	r1, #0
    43c0:	d0e4      	beq.n	438c <Code_1110+0x94>
    43c2:	5c42      	ldrb	r2, [r0, r1]
    43c4:	3901      	subs	r1, #1
    43c6:	2a2e      	cmp	r2, #46	; 0x2e
    43c8:	d0f9      	beq.n	43be <number_nachkommastellen+0x6>
    43ca:	f847 6d04 	str.w	r6, [r7, #-4]!
    43ce:	0016      	movs	r6, r2
    43d0:	f7ff ff74 	bl	42bc <digit_base_r3>
    43d4:	2e00      	cmp	r6, #0
    43d6:	cf40      	ldmia	r7!, {r6}
    43d8:	d0eb      	beq.n	43b2 <Code_1110+0xba>
    43da:	3f04      	subs	r7, #4
    43dc:	603c      	str	r4, [r7, #0]
    43de:	f847 6d04 	str.w	r6, [r7, #-4]!
    43e2:	001e      	movs	r6, r3
    43e4:	b40f      	push	{r0, r1, r2, r3}
    43e6:	f7fc fb93 	bl	b10 <Code_155>
    43ea:	bc0f      	pop	{r0, r1, r2, r3}
    43ec:	0034      	movs	r4, r6
    43ee:	cf40      	ldmia	r7!, {r6}
    43f0:	cf40      	ldmia	r7!, {r6}
    43f2:	e7e4      	b.n	43be <number_nachkommastellen+0x6>

000043f4 <Dictionary_1137>:
    43f4:	00004416 	andeq	r4, r0, r6, lsl r4
    43f8:	2e060000 	cdpcs	0, 0, cr0, cr6, cr0, {0}
    43fc:	69676964 	stmdbvs	r7!, {r2, r5, r6, r8, fp, sp, lr}^
    4400:	2e0a0074 	mcrcs	0, 0, r0, cr10, cr4, {3}

00004402 <Code_1137>:
    4402:	2e0a      	cmp	r6, #10
    4404:	d201      	bcs.n	440a <Code_1137+0x8>
    4406:	3630      	adds	r6, #48	; 0x30
    4408:	4770      	bx	lr
    440a:	2e24      	cmp	r6, #36	; 0x24
    440c:	d201      	bcs.n	4412 <Code_1137+0x10>
    440e:	3637      	adds	r6, #55	; 0x37
    4410:	4770      	bx	lr
    4412:	2623      	movs	r6, #35	; 0x23
    4414:	4770      	bx	lr

00004416 <Dictionary_1138>:
    4416:	0000444c 	andeq	r4, r0, ip, asr #8
    441a:	68040000 	stmdavs	r4, {}	; <UNPREDICTABLE>
    441e:	00646c6f 	rsbeq	r6, r4, pc, ror #24

00004422 <Code_1138>:
    4422:	0033      	movs	r3, r6
    4424:	cf40      	ldmia	r7!, {r6}
    4426:	4875      	ldr	r0, [pc, #468]	; (45fc <Code_1171+0xe>)
    4428:	7801      	ldrb	r1, [r0, #0]
    442a:	293f      	cmp	r1, #63	; 0x3f
    442c:	d20d      	bcs.n	444a <Code_1138+0x28>
    442e:	3101      	adds	r1, #1
    4430:	7001      	strb	r1, [r0, #0]
    4432:	1840      	adds	r0, r0, r1
    4434:	2901      	cmp	r1, #1
    4436:	d007      	beq.n	4448 <Code_1138+0x26>
    4438:	3801      	subs	r0, #1
    443a:	7802      	ldrb	r2, [r0, #0]
    443c:	3001      	adds	r0, #1
    443e:	7002      	strb	r2, [r0, #0]
    4440:	3801      	subs	r0, #1
    4442:	3901      	subs	r1, #1
    4444:	2901      	cmp	r1, #1
    4446:	d1f7      	bne.n	4438 <Code_1138+0x16>
    4448:	7003      	strb	r3, [r0, #0]
    444a:	4770      	bx	lr

0000444c <Dictionary_1140>:
    444c:	0000446c 	andeq	r4, r0, ip, ror #8
    4450:	68050000 	stmdavs	r5, {}	; <UNPREDICTABLE>
    4454:	3c646c6f 	stclcc	12, cr6, [r4], #-444	; 0xfffffe44

00004458 <Code_1140>:
    4458:	0033      	movs	r3, r6
    445a:	cf40      	ldmia	r7!, {r6}
    445c:	4867      	ldr	r0, [pc, #412]	; (45fc <Code_1171+0xe>)
    445e:	7801      	ldrb	r1, [r0, #0]
    4460:	293f      	cmp	r1, #63	; 0x3f
    4462:	d202      	bcs.n	446a <Code_1140+0x12>
    4464:	3101      	adds	r1, #1
    4466:	7001      	strb	r1, [r0, #0]
    4468:	5443      	strb	r3, [r0, r1]
    446a:	4770      	bx	lr

0000446c <Dictionary_1142>:
    446c:	00004484 	andeq	r4, r0, r4, lsl #9
    4470:	73040000 	movwvc	r0, #16384	; 0x4000
    4474:	006e6769 	rsbeq	r6, lr, r9, ror #14

00004478 <Code_1142>:
    4478:	2e00      	cmp	r6, #0
    447a:	d401      	bmi.n	4480 <Code_1142+0x8>
    447c:	cf40      	ldmia	r7!, {r6}
    447e:	4770      	bx	lr
    4480:	262d      	movs	r6, #45	; 0x2d
    4482:	e7ce      	b.n	4422 <Code_1138>

00004484 <Dictionary_1144>:
    4484:	00004498 	muleq	r0, r8, r4
    4488:	23020000 	movwcs	r0, #8192	; 0x2000
    448c:	485b003e 	ldmdami	fp, {r1, r2, r3, r4, r5}^

0000448e <Code_1144>:
    448e:	485b      	ldr	r0, [pc, #364]	; (45fc <Code_1171+0xe>)
    4490:	7806      	ldrb	r6, [r0, #0]
    4492:	3001      	adds	r0, #1
    4494:	6038      	str	r0, [r7, #0]
    4496:	4770      	bx	lr

00004498 <Dictionary_1145>:
    4498:	000044b0 			; <UNDEFINED> instruction: 0x000044b0
    449c:	66030000 	strvs	r0, [r3], -r0
    44a0:	b5105323 	ldrlt	r5, [r0, #-803]	; 0x323

000044a2 <Code_1145>:
    44a2:	b510      	push	{r4, lr}
    44a4:	2420      	movs	r4, #32
    44a6:	f000 f808 	bl	44ba <Code_1146>
    44aa:	3c01      	subs	r4, #1
    44ac:	d1fb      	bne.n	44a6 <Code_1145+0x4>
    44ae:	bd10      	pop	{r4, pc}

000044b0 <Dictionary_1146>:
    44b0:	000044d2 	ldrdeq	r4, [r0], -r2
    44b4:	66020000 	strvs	r0, [r2], -r0
    44b8:	b5000023 	strlt	r0, [r0, #-35]	; 0x23

000044ba <Code_1146>:
    44ba:	b500      	push	{lr}
    44bc:	f847 6d04 	str.w	r6, [r7, #-4]!
    44c0:	4e4d      	ldr	r6, [pc, #308]	; (45f8 <Code_1171+0xa>)
    44c2:	6836      	ldr	r6, [r6, #0]
    44c4:	f7fc fa37 	bl	936 <Code_115>
    44c8:	f7ff ff9b 	bl	4402 <Code_1137>
    44cc:	f7ff ffc4 	bl	4458 <Code_1140>
    44d0:	bd00      	pop	{pc}

000044d2 <Dictionary_1148>:
    44d2:	000044ee 	andeq	r4, r0, lr, ror #9
    44d6:	23020000 	movwcs	r0, #8192	; 0x2000
    44da:	b5000053 	strlt	r0, [r0, #-83]	; 0x53

000044dc <Code_1148>:
    44dc:	b500      	push	{lr}
    44de:	f000 f80a 	bl	44f6 <Code_1149>
    44e2:	2e00      	cmp	r6, #0
    44e4:	d1fb      	bne.n	44de <Code_1148+0x2>
    44e6:	6838      	ldr	r0, [r7, #0]
    44e8:	2800      	cmp	r0, #0
    44ea:	d1f8      	bne.n	44de <Code_1148+0x2>
    44ec:	bd00      	pop	{pc}

000044ee <Dictionary_1149>:
    44ee:	0000451a 	andeq	r4, r0, sl, lsl r5
    44f2:	23010000 	movwcs	r0, #4096	; 0x1000

000044f6 <Code_1149>:
    44f6:	b500      	push	{lr}
    44f8:	f847 6d04 	str.w	r6, [r7, #-4]!
    44fc:	4e3e      	ldr	r6, [pc, #248]	; (45f8 <Code_1171+0xa>)
    44fe:	6836      	ldr	r6, [r6, #0]
    4500:	f847 6d04 	str.w	r6, [r7, #-4]!
    4504:	2600      	movs	r6, #0
    4506:	f7fc fb22 	bl	b4e <Code_164>
    450a:	f7fc f882 	bl	612 <Code_75>
    450e:	cf40      	ldmia	r7!, {r6}
    4510:	f7ff ff77 	bl	4402 <Code_1137>
    4514:	f7ff ff85 	bl	4422 <Code_1138>
    4518:	bd00      	pop	{pc}

0000451a <Dictionary_1154>:
    451a:	0000452c 	andeq	r4, r0, ip, lsr #10
    451e:	3c020000 	stccc	0, cr0, [r2], {0}
    4522:	48350023 	ldmdami	r5!, {r0, r1, r5}

00004524 <Code_1154>:
    4524:	4835      	ldr	r0, [pc, #212]	; (45fc <Code_1171+0xe>)
    4526:	2100      	movs	r1, #0
    4528:	7001      	strb	r1, [r0, #0]
    452a:	4770      	bx	lr

0000452c <Dictionary_1155>:
    452c:	0000453e 	andeq	r4, r0, lr, lsr r5
    4530:	66020000 	strvs	r0, [r2], -r0
    4534:	f847002e 			; <UNDEFINED> instruction: 0xf847002e

00004536 <Code_1155>:
    4536:	f847 6d04 	str.w	r6, [r7, #-4]!
    453a:	2620      	movs	r6, #32
    453c:	e004      	b.n	4548 <Code_1158>

0000453e <Dictionary_1158>:
    453e:	0000458c 	andeq	r4, r0, ip, lsl #11
    4542:	66030000 	strvs	r0, [r3], -r0
    4546:	b5006e2e 	strlt	r6, [r0, #-3630]	; 0xe2e

00004548 <Code_1158>:
    4548:	b500      	push	{lr}
    454a:	b410      	push	{r4}
    454c:	0034      	movs	r4, r6
    454e:	cf40      	ldmia	r7!, {r6}
    4550:	f7fc fd2e 	bl	fb0 <Code_211>
    4554:	f7fc f974 	bl	840 <Code_103>
    4558:	f847 6d04 	str.w	r6, [r7, #-4]!
    455c:	2600      	movs	r6, #0
    455e:	f7ff ffe1 	bl	4524 <Code_1154>
    4562:	f7ff ffbb 	bl	44dc <Code_1148>
    4566:	cf40      	ldmia	r7!, {r6}
    4568:	262c      	movs	r6, #44	; 0x2c
    456a:	f7ff ff75 	bl	4458 <Code_1140>
    456e:	2c00      	cmp	r4, #0
    4570:	d003      	beq.n	457a <Code_1158+0x32>
    4572:	f7ff ffa2 	bl	44ba <Code_1146>
    4576:	3c01      	subs	r4, #1
    4578:	d1fb      	bne.n	4572 <Code_1158+0x2a>
    457a:	bc10      	pop	{r4}
    457c:	cf40      	ldmia	r7!, {r6}
    457e:	f7ff ff7b 	bl	4478 <Code_1142>
    4582:	f847 6d04 	str.w	r6, [r7, #-4]!
    4586:	f847 6d04 	str.w	r6, [r7, #-4]!
    458a:	e01c      	b.n	45c6 <abschluss_zahlenausgabe>

0000458c <Dictionary_1166>:
    458c:	000045a2 	andeq	r4, r0, r2, lsr #11
    4590:	75030000 	strvc	r0, [r3]
    4594:	b5002e64 	strlt	r2, [r0, #-3684]	; 0xe64

00004596 <Code_1166>:
    4596:	b500      	push	{lr}
    4598:	f7ff ffc4 	bl	4524 <Code_1154>
    459c:	f7ff ff9e 	bl	44dc <Code_1148>
    45a0:	e011      	b.n	45c6 <abschluss_zahlenausgabe>

000045a2 <Dictionary_1167>:
    45a2:	000045d4 	ldrdeq	r4, [r0], -r4	; <UNPREDICTABLE>
    45a6:	64020000 	strvs	r0, [r2]
    45aa:	b500002e 	strlt	r0, [r0, #-46]	; 0x2e

000045ac <Code_1167>:
    45ac:	b500      	push	{lr}
    45ae:	f7fc fcff 	bl	fb0 <Code_211>
    45b2:	f7fc f945 	bl	840 <Code_103>
    45b6:	f7ff ffb5 	bl	4524 <Code_1154>
    45ba:	f7ff ff8f 	bl	44dc <Code_1148>
    45be:	f7fc fd09 	bl	fd4 <Code_212>
    45c2:	f7ff ff59 	bl	4478 <Code_1142>

000045c6 <abschluss_zahlenausgabe>:
    45c6:	f7ff ff62 	bl	448e <Code_1144>
    45ca:	f7fe fa38 	bl	2a3e <Code_640>
    45ce:	f7fe f989 	bl	28e4 <Code_605>
    45d2:	bd00      	pop	{pc}

000045d4 <Dictionary_1168>:
    45d4:	000045e6 	andeq	r4, r0, r6, ror #11
    45d8:	75020000 	strvc	r0, [r2]
    45dc:	f847002e 			; <UNDEFINED> instruction: 0xf847002e

000045de <Code_1168>:
    45de:	f847 6d04 	str.w	r6, [r7, #-4]!
    45e2:	2600      	movs	r6, #0
    45e4:	e7d7      	b.n	4596 <Code_1166>

000045e6 <Dictionary_1171>:
    45e6:	000047b2 			; <UNDEFINED> instruction: 0x000047b2
    45ea:	2e010000 	cdpcs	0, 0, cr0, cr1, cr0, {0}

000045ee <Code_1171>:
    45ee:	f847 6d04 	str.w	r6, [r7, #-4]!
    45f2:	17f6      	asrs	r6, r6, #31
    45f4:	e7da      	b.n	45ac <Code_1167>
    45f6:	7ffc0000 	svcvc	0x00fc0000
    45fa:	00842001 	addeq	r2, r4, r1
    45fe:	b5302000 	ldrlt	r2, [r0]!

00004600 <konstantenfaltungszeiger_setzen>:
    4600:	b530      	push	{r4, r5, lr}
    4602:	4cd8      	ldr	r4, [pc, #864]	; (4964 <quit_innenschleife+0x16>)
    4604:	6825      	ldr	r5, [r4, #0]
    4606:	2d00      	cmp	r5, #0
    4608:	d101      	bne.n	460e <konstantenfaltungszeiger_setzen+0xe>
    460a:	003d      	movs	r5, r7
    460c:	6025      	str	r5, [r4, #0]
    460e:	bd30      	pop	{r4, r5, pc}

00004610 <konstantenfaltungszeiger_neusetzen>:
    4610:	b530      	push	{r4, r5, lr}
    4612:	4cd4      	ldr	r4, [pc, #848]	; (4964 <quit_innenschleife+0x16>)
    4614:	003d      	movs	r5, r7
    4616:	6025      	str	r5, [r4, #0]
    4618:	bd30      	pop	{r4, r5, pc}

0000461a <konstantenfaltungszeiger_loeschen>:
    461a:	b530      	push	{r4, r5, lr}
    461c:	4cd1      	ldr	r4, [pc, #836]	; (4964 <quit_innenschleife+0x16>)
    461e:	2500      	movs	r5, #0
    4620:	6025      	str	r5, [r4, #0]
    4622:	bd30      	pop	{r4, r5, pc}

00004624 <wievielefaltkonstanten>:
    4624:	4bcf      	ldr	r3, [pc, #828]	; (4964 <quit_innenschleife+0x16>)
    4626:	681b      	ldr	r3, [r3, #0]
    4628:	1bdb      	subs	r3, r3, r7
    462a:	089b      	lsrs	r3, r3, #2
    462c:	4770      	bx	lr

0000462e <kompilator>:
    462e:	b500      	push	{lr}
    4630:	0031      	movs	r1, r6
    4632:	cf40      	ldmia	r7!, {r6}
    4634:	48cc      	ldr	r0, [pc, #816]	; (4968 <quit_innenschleife+0x1a>)
    4636:	4008      	ands	r0, r1
    4638:	d002      	beq.n	4640 <kompilator+0x12>
    463a:	f000 f8a2 	bl	4782 <inline_cache_parser>
    463e:	bd00      	pop	{pc}
    4640:	48ca      	ldr	r0, [pc, #808]	; (496c <quit_innenschleife+0x1e>)
    4642:	4008      	ands	r0, r1
    4644:	d101      	bne.n	464a <kompilator+0x1c>
    4646:	f7fd f834 	bl	16b2 <sprungschreiber_flaggenerator>
    464a:	0032      	movs	r2, r6
    464c:	cf40      	ldmia	r7!, {r6}
    464e:	f7ff ffd7 	bl	4600 <konstantenfaltungszeiger_setzen>
    4652:	48c7      	ldr	r0, [pc, #796]	; (4970 <quit_innenschleife+0x22>)
    4654:	4008      	ands	r0, r1
    4656:	d003      	beq.n	4660 <kompilator+0x32>
    4658:	f847 6d04 	str.w	r6, [r7, #-4]!
    465c:	0016      	movs	r6, r2
    465e:	bd00      	pop	{pc}
    4660:	f7ff ffe0 	bl	4624 <wievielefaltkonstanten>
    4664:	2080      	movs	r0, #128	; 0x80
    4666:	4008      	ands	r0, r1
    4668:	d106      	bne.n	4678 <.interpret_faltoptimierung>
    466a:	2040      	movs	r0, #64	; 0x40
    466c:	4008      	ands	r0, r1
    466e:	d009      	beq.n	4684 <.interpret_allocator>

00004670 <.interpret_genugkonstanten>:
    4670:	200f      	movs	r0, #15
    4672:	4008      	ands	r0, r1
    4674:	4283      	cmp	r3, r0
    4676:	d305      	bcc.n	4684 <.interpret_allocator>

00004678 <.interpret_faltoptimierung>:
    4678:	f847 6d04 	str.w	r6, [r7, #-4]!
    467c:	0016      	movs	r6, r2
    467e:	f7fe fd78 	bl	3172 <Code_761>
    4682:	bd00      	pop	{pc}

00004684 <.interpret_allocator>:
    4684:	48bb      	ldr	r0, [pc, #748]	; (4974 <quit_innenschleife+0x26>)
    4686:	4008      	ands	r0, r1
    4688:	d014      	beq.n	46b4 <.interpret_allocator_finished>
    468a:	f7fb fd90 	bl	1ae <Code_34>
    468e:	f847 6d04 	str.w	r6, [r7, #-4]!
    4692:	0016      	movs	r6, r2
    4694:	f847 6d04 	str.w	r6, [r7, #-4]!
    4698:	000e      	movs	r6, r1
    469a:	f000 f830 	bl	46fe <add_to_inline_cache>
    469e:	0010      	movs	r0, r2
    46a0:	f7fe fccf 	bl	3042 <suchedefinitionsende>
    46a4:	1c42      	adds	r2, r0, #1
    46a6:	48b4      	ldr	r0, [pc, #720]	; (4978 <quit_innenschleife+0x2a>)
    46a8:	4790      	blx	r2
    46aa:	f7ff ffb1 	bl	4610 <konstantenfaltungszeiger_neusetzen>
    46ae:	f7fb fd8d 	bl	1cc <nfaltkonstanten_aufschwimmen>
    46b2:	bd00      	pop	{pc}

000046b4 <.interpret_allocator_finished>:
    46b4:	f7fb fd7b 	bl	1ae <Code_34>
    46b8:	f847 6d04 	str.w	r6, [r7, #-4]!
    46bc:	0016      	movs	r6, r2
    46be:	f847 6d04 	str.w	r6, [r7, #-4]!
    46c2:	000e      	movs	r6, r1
    46c4:	f000 f81b 	bl	46fe <add_to_inline_cache>
    46c8:	f7fb fe02 	bl	2d0 <tidyup_register_allocator>
    46cc:	f7ff ffa5 	bl	461a <konstantenfaltungszeiger_loeschen>
    46d0:	48aa      	ldr	r0, [pc, #680]	; (497c <quit_innenschleife+0x2e>)
    46d2:	4008      	ands	r0, r1
    46d4:	d101      	bne.n	46da <.prepared_for_classic>
    46d6:	f7fb ff64 	bl	5a2 <push_lr_nachholen>

000046da <.prepared_for_classic>:
    46da:	f847 6d04 	str.w	r6, [r7, #-4]!
    46de:	0016      	movs	r6, r2
    46e0:	2210      	movs	r2, #16
    46e2:	400a      	ands	r2, r1
    46e4:	d002      	beq.n	46ec <.prepared_for_classic+0x12>
    46e6:	f7fe fd44 	bl	3172 <Code_761>
    46ea:	bd00      	pop	{pc}
    46ec:	2220      	movs	r2, #32
    46ee:	400a      	ands	r2, r1
    46f0:	d002      	beq.n	46f8 <.prepared_for_classic+0x1e>
    46f2:	f7fe fc8f 	bl	3014 <Code_737>
    46f6:	bd00      	pop	{pc}
    46f8:	f7fe fb9b 	bl	2e32 <Code_701>
    46fc:	bd00      	pop	{pc}

000046fe <add_to_inline_cache>:
    46fe:	b50f      	push	{r0, r1, r2, r3, lr}
    4700:	0032      	movs	r2, r6
    4702:	cf40      	ldmia	r7!, {r6}
    4704:	0033      	movs	r3, r6
    4706:	cf40      	ldmia	r7!, {r6}
    4708:	489d      	ldr	r0, [pc, #628]	; (4980 <quit_innenschleife+0x32>)
    470a:	6801      	ldr	r1, [r0, #0]
    470c:	2906      	cmp	r1, #6
    470e:	d207      	bcs.n	4720 <add_to_inline_cache+0x22>
    4710:	2006      	movs	r0, #6
    4712:	4341      	muls	r1, r0
    4714:	489b      	ldr	r0, [pc, #620]	; (4984 <quit_innenschleife+0x36>)
    4716:	1840      	adds	r0, r0, r1
    4718:	8003      	strh	r3, [r0, #0]
    471a:	0c1b      	lsrs	r3, r3, #16
    471c:	8043      	strh	r3, [r0, #2]
    471e:	8082      	strh	r2, [r0, #4]
    4720:	4897      	ldr	r0, [pc, #604]	; (4980 <quit_innenschleife+0x32>)
    4722:	6801      	ldr	r1, [r0, #0]
    4724:	3101      	adds	r1, #1
    4726:	6001      	str	r1, [r0, #0]
    4728:	bd0f      	pop	{r0, r1, r2, r3, pc}

0000472a <inline_cache_schreiben>:
    472a:	b50f      	push	{r0, r1, r2, r3, lr}
    472c:	4894      	ldr	r0, [pc, #592]	; (4980 <quit_innenschleife+0x32>)
    472e:	6801      	ldr	r1, [r0, #0]
    4730:	2906      	cmp	r1, #6
    4732:	d81f      	bhi.n	4774 <inline_cache_schreiben+0x4a>
    4734:	4893      	ldr	r0, [pc, #588]	; (4984 <quit_innenschleife+0x36>)
    4736:	3901      	subs	r1, #1
    4738:	d01d      	beq.n	4776 <inline_cache_schreiben+0x4c>
    473a:	f847 6d04 	str.w	r6, [r7, #-4]!
    473e:	000e      	movs	r6, r1
    4740:	f7fe fe80 	bl	3444 <Code_817>
    4744:	f847 6d04 	str.w	r6, [r7, #-4]!
    4748:	8806      	ldrh	r6, [r0, #0]
    474a:	f7fe fe7b 	bl	3444 <Code_817>
    474e:	f847 6d04 	str.w	r6, [r7, #-4]!
    4752:	8846      	ldrh	r6, [r0, #2]
    4754:	f7fe fe76 	bl	3444 <Code_817>
    4758:	f847 6d04 	str.w	r6, [r7, #-4]!
    475c:	8886      	ldrh	r6, [r0, #4]
    475e:	f7fe fe71 	bl	3444 <Code_817>
    4762:	3006      	adds	r0, #6
    4764:	3901      	subs	r1, #1
    4766:	d1ed      	bne.n	4744 <inline_cache_schreiben+0x1a>
    4768:	f847 6d04 	str.w	r6, [r7, #-4]!
    476c:	f241 0600 	movw	r6, #4096	; 0x1000
    4770:	f7fe fdf1 	bl	3356 <Code_807>
    4774:	bd0f      	pop	{r0, r1, r2, r3, pc}
    4776:	f847 6d04 	str.w	r6, [r7, #-4]!
    477a:	2640      	movs	r6, #64	; 0x40
    477c:	f7fe fdeb 	bl	3356 <Code_807>
    4780:	bd0f      	pop	{r0, r1, r2, r3, pc}

00004782 <inline_cache_parser>:
    4782:	b500      	push	{lr}
    4784:	0030      	movs	r0, r6
    4786:	cf40      	ldmia	r7!, {r6}
    4788:	f7fe fc5b 	bl	3042 <suchedefinitionsende>
    478c:	8801      	ldrh	r1, [r0, #0]
    478e:	3002      	adds	r0, #2
    4790:	f847 6d04 	str.w	r6, [r7, #-4]!
    4794:	8806      	ldrh	r6, [r0, #0]
    4796:	8842      	ldrh	r2, [r0, #2]
    4798:	0412      	lsls	r2, r2, #16
    479a:	4316      	orrs	r6, r2
    479c:	f847 6d04 	str.w	r6, [r7, #-4]!
    47a0:	8886      	ldrh	r6, [r0, #4]
    47a2:	b403      	push	{r0, r1}
    47a4:	f7ff ff43 	bl	462e <kompilator>
    47a8:	bc03      	pop	{r0, r1}
    47aa:	3006      	adds	r0, #6
    47ac:	3901      	subs	r1, #1
    47ae:	d1ef      	bne.n	4790 <inline_cache_parser+0xe>
    47b0:	bd00      	pop	{pc}

000047b2 <Dictionary_1203>:
    47b2:	000047fa 	strdeq	r4, [r0], -sl
    47b6:	65080000 	strvs	r0, [r8]
    47ba:	756c6176 	strbvc	r6, [ip, #-374]!	; 0x176
    47be:	00657461 	rsbeq	r7, r5, r1, ror #8

000047c2 <Code_1203>:
    47c2:	b500      	push	{lr}
    47c4:	f7fe f829 	bl	281a <Code_588>
    47c8:	cf01      	ldmia	r7!, {r0}
    47ca:	b401      	push	{r0}
    47cc:	b440      	push	{r6}
    47ce:	cf40      	ldmia	r7!, {r6}
    47d0:	486d      	ldr	r0, [pc, #436]	; (4988 <quit_innenschleife+0x3a>)
    47d2:	6801      	ldr	r1, [r0, #0]
    47d4:	b402      	push	{r1}
    47d6:	2100      	movs	r1, #0
    47d8:	6001      	str	r1, [r0, #0]
    47da:	f7fe f811 	bl	2800 <Code_586>
    47de:	f000 f814 	bl	480a <Code_1205>
    47e2:	4869      	ldr	r0, [pc, #420]	; (4988 <quit_innenschleife+0x3a>)
    47e4:	bc02      	pop	{r1}
    47e6:	6001      	str	r1, [r0, #0]
    47e8:	f847 6d04 	str.w	r6, [r7, #-4]!
    47ec:	bc40      	pop	{r6}
    47ee:	bc01      	pop	{r0}
    47f0:	3f04      	subs	r7, #4
    47f2:	6038      	str	r0, [r7, #0]
    47f4:	f7fe f804 	bl	2800 <Code_586>
    47f8:	bd00      	pop	{pc}

000047fa <Dictionary_1205>:
    47fa:	000048f6 	strdeq	r4, [r0], -r6
    47fe:	69090000 	stmdbvs	r9, {}	; <UNPREDICTABLE>
    4802:	7265746e 	rsbvc	r7, r5, #1845493760	; 0x6e000000
    4806:	74657270 	strbtvc	r7, [r5], #-624	; 0x270

0000480a <Code_1205>:
    480a:	b500      	push	{lr}
    480c:	485f      	ldr	r0, [pc, #380]	; (498c <quit_innenschleife+0x3e>)
    480e:	4287      	cmp	r7, r0
    4810:	d90b      	bls.n	482a <Code_1205+0x20>
    4812:	f7fe f8b8 	bl	2986 <dotgaensefuesschen>
    4816:	61745310 	cmnvs	r4, r0, lsl r3
    481a:	75206b63 	strvc	r6, [r0, #-2915]!	; 0xb63
    481e:	7265646e 	rsbvc	r6, r5, #1845493760	; 0x6e000000
    4822:	776f6c66 	strbvc	r6, [pc, -r6, ror #24]!
    4826:	e079000a 	rsbs	r0, r9, sl
    482a:	4859      	ldr	r0, [pc, #356]	; (4990 <quit_innenschleife+0x42>)
    482c:	4287      	cmp	r7, r0
    482e:	d20a      	bcs.n	4846 <Code_1205+0x3c>
    4830:	f7fe f8a9 	bl	2986 <dotgaensefuesschen>
    4834:	6174530f 	cmnvs	r4, pc, lsl #6
    4838:	6f206b63 	svcvs	0x00206b63
    483c:	66726576 			; <UNDEFINED> instruction: 0x66726576
    4840:	0a776f6c 	beq	1de05f8 <BIT24+0xde05f8>
    4844:	e06b      	b.n	491e <Code_1230>
    4846:	f7ff fedb 	bl	4600 <konstantenfaltungszeiger_setzen>
    484a:	f7ff fcf7 	bl	423c <Code_1103>
    484e:	2e00      	cmp	r6, #0
    4850:	d102      	bne.n	4858 <Code_1205+0x4e>
    4852:	3704      	adds	r7, #4
    4854:	cf40      	ldmia	r7!, {r6}
    4856:	bd00      	pop	{pc}
    4858:	6838      	ldr	r0, [r7, #0]
    485a:	f847 6d04 	str.w	r6, [r7, #-4]!
    485e:	3f04      	subs	r7, #4
    4860:	6038      	str	r0, [r7, #0]
    4862:	f7ff f8be 	bl	39e2 <Code_913>
    4866:	0031      	movs	r1, r6
    4868:	cf40      	ldmia	r7!, {r6}
    486a:	0032      	movs	r2, r6
    486c:	cf40      	ldmia	r7!, {r6}
    486e:	2a00      	cmp	r2, #0
    4870:	d115      	bne.n	489e <.interpret_token_found>
    4872:	6838      	ldr	r0, [r7, #0]
    4874:	0031      	movs	r1, r6
    4876:	f7fc ff1c 	bl	16b2 <sprungschreiber_flaggenerator>
    487a:	f7ff fd3d 	bl	42f8 <Code_1110>
    487e:	0032      	movs	r2, r6
    4880:	cf40      	ldmia	r7!, {r6}
    4882:	2a00      	cmp	r2, #0
    4884:	d1c2      	bne.n	480c <Code_1205+0x2>

00004886 <not_found_addr_r0_len_r1>:
    4886:	f7fe f8de 	bl	2a46 <stype_addr_r0_len_r1>
    488a:	f7fe f87c 	bl	2986 <dotgaensefuesschen>
    488e:	6f6e200c 	svcvs	0x006e200c
    4892:	6f662074 	svcvs	0x00662074
    4896:	2e646e75 	mcrcs	14, 3, r6, cr4, cr5, {3}
    489a:	e03f000a 	eors	r0, pc, sl

0000489e <.interpret_token_found>:
    489e:	4b3d      	ldr	r3, [pc, #244]	; (4994 <quit_innenschleife+0x46>)
    48a0:	681b      	ldr	r3, [r3, #0]
    48a2:	2b00      	cmp	r3, #0
    48a4:	d11c      	bne.n	48e0 <.ausfuehren+0x10>
    48a6:	f7ff feb8 	bl	461a <konstantenfaltungszeiger_loeschen>
    48aa:	2330      	movs	r3, #48	; 0x30
    48ac:	400b      	ands	r3, r1
    48ae:	2b30      	cmp	r3, #48	; 0x30
    48b0:	d10e      	bne.n	48d0 <.ausfuehren>
    48b2:	f7fe f8c4 	bl	2a3e <Code_640>
    48b6:	f7fe f866 	bl	2986 <dotgaensefuesschen>
    48ba:	73692012 	cmnvc	r9, #18
    48be:	6d6f6320 	stclvs	3, cr6, [pc, #-128]!	; 4844 <Code_1205+0x3a>
    48c2:	656c6970 	strbvs	r6, [ip, #-2416]!	; 0x970
    48c6:	6c6e6f2d 	stclvs	15, cr6, [lr], #-180	; 0xffffff4c
    48ca:	000a2e79 	andeq	r2, sl, r9, ror lr
    48ce:	e026      	b.n	491e <Code_1230>

000048d0 <.ausfuehren>:
    48d0:	3704      	adds	r7, #4
    48d2:	cf40      	ldmia	r7!, {r6}
    48d4:	f847 6d04 	str.w	r6, [r7, #-4]!
    48d8:	0016      	movs	r6, r2
    48da:	f7fe fc4a 	bl	3172 <Code_761>
    48de:	e795      	b.n	480c <Code_1205+0x2>
    48e0:	3704      	adds	r7, #4
    48e2:	cf40      	ldmia	r7!, {r6}
    48e4:	f847 6d04 	str.w	r6, [r7, #-4]!
    48e8:	0016      	movs	r6, r2
    48ea:	f847 6d04 	str.w	r6, [r7, #-4]!
    48ee:	000e      	movs	r6, r1
    48f0:	f7ff fe9d 	bl	462e <kompilator>
    48f4:	e78a      	b.n	480c <Code_1205+0x2>

000048f6 <Dictionary_1227>:
    48f6:	00004912 	andeq	r4, r0, r2, lsl r9
    48fa:	68090081 	stmdavs	r9, {r0, r7}
    48fe:	2d6b6f6f 	stclcs	15, cr6, [fp, #-444]!	; 0xfffffe44
    4902:	74697571 	strbtvc	r7, [r9], #-1393	; 0x571

00004906 <Code_1227>:
    4906:	f847 6d04 	str.w	r6, [r7, #-4]!
    490a:	4e23      	ldr	r6, [pc, #140]	; (4998 <quit_innenschleife+0x4a>)
    490c:	4770      	bx	lr
    490e:	0000494e 	andeq	r4, r0, lr, asr #18

00004912 <Dictionary_1230>:
    4912:	000049ac 	andeq	r4, r0, ip, lsr #19
    4916:	71040000 	mrsvc	r0, (UNDEF: 4)
    491a:	00746975 	rsbseq	r6, r4, r5, ror r9

0000491e <Code_1230>:
    491e:	f8df d07c 	ldr.w	sp, [pc, #124]	; 499c <quit_innenschleife+0x4e>
    4922:	4f1a      	ldr	r7, [pc, #104]	; (498c <quit_innenschleife+0x3e>)
    4924:	f7fd fb84 	bl	2030 <Code_454>
    4928:	481d      	ldr	r0, [pc, #116]	; (49a0 <quit_innenschleife+0x52>)
    492a:	210a      	movs	r1, #10
    492c:	6001      	str	r1, [r0, #0]
    492e:	4819      	ldr	r0, [pc, #100]	; (4994 <quit_innenschleife+0x46>)
    4930:	2100      	movs	r1, #0
    4932:	6001      	str	r1, [r0, #0]
    4934:	480b      	ldr	r0, [pc, #44]	; (4964 <quit_innenschleife+0x16>)
    4936:	6001      	str	r1, [r0, #0]
    4938:	f7fb fd11 	bl	35e <init_register_allocator>
    493c:	4812      	ldr	r0, [pc, #72]	; (4988 <quit_innenschleife+0x3a>)
    493e:	6001      	str	r1, [r0, #0]
    4940:	4818      	ldr	r0, [pc, #96]	; (49a4 <quit_innenschleife+0x56>)
    4942:	6001      	str	r1, [r0, #0]
    4944:	4918      	ldr	r1, [pc, #96]	; (49a8 <quit_innenschleife+0x5a>)
    4946:	6041      	str	r1, [r0, #4]

00004948 <quit_intern>:
    4948:	4813      	ldr	r0, [pc, #76]	; (4998 <quit_innenschleife+0x4a>)
    494a:	6800      	ldr	r0, [r0, #0]
    494c:	4687      	mov	pc, r0

0000494e <quit_innenschleife>:
    494e:	f7fd ff72 	bl	2836 <Code_590>
    4952:	f7ff ff5a 	bl	480a <Code_1205>
    4956:	f7fe f816 	bl	2986 <dotgaensefuesschen>
    495a:	6b6f2005 	blvs	1bcc976 <BIT24+0xbcc976>
    495e:	e7f50a2e 	ldrb	r0, [r5, lr, lsr #20]!
    4962:	00080000 	andeq	r0, r8, r0
    4966:	10002000 	andne	r2, r0, r0
    496a:	04000000 	streq	r0, [r0]
    496e:	20000000 	andcs	r0, r0, r0
    4972:	02000000 	andeq	r0, r0, #0
    4976:	00280000 	eoreq	r0, r8, r0
    497a:	08002000 	stmdaeq	r0, {sp}
    497e:	005c0000 	subseq	r0, ip, r0
    4982:	00602000 	rsbeq	r2, r0, r0
    4986:	7fe42000 	svcvc	0x00e42000
    498a:	038c2001 	orreq	r2, ip, #1
    498e:	018c2000 	orreq	r2, ip, r0
    4992:	7fd82000 	svcvc	0x00d82000
    4996:	7fd42001 	svcvc	0x00d42001
    499a:	048c2001 	streq	r2, [ip], #1
    499e:	7ffc2000 	svcvc	0x00fc2000
    49a2:	7fdc2001 	svcvc	0x00dc2001
    49a6:	00c42001 	sbceq	r2, r4, r1
    49aa:	49c62000 	stmibmi	r6, {sp}^

000049ac <Dictionary_1232>:
    49ac:	000049c6 	andeq	r4, r0, r6, asr #19
    49b0:	65050000 	strvs	r0, [r5]
    49b4:	3f746e69 	svccc	0x00746e69

000049b8 <Code_1232>:
    49b8:	f847 6d04 	str.w	r6, [r7, #-4]!
    49bc:	f3ef 8610 	mrs	r6, PRIMASK
    49c0:	3e01      	subs	r6, #1
    49c2:	41b6      	sbcs	r6, r6
    49c4:	4770      	bx	lr

000049c6 <Dictionary_1234>:
    49c6:	000049d6 	ldrdeq	r4, [r0], -r6
    49ca:	65040020 	strvs	r0, [r4, #-32]
    49ce:	00746e69 	rsbseq	r6, r4, r9, ror #28

000049d2 <Code_1234>:
    49d2:	b662      	cpsie	i
    49d4:	4770      	bx	lr

000049d6 <Dictionary_1235>:
    49d6:	000049e6 	andeq	r4, r0, r6, ror #19
    49da:	64040020 	strvs	r0, [r4], #-32
    49de:	00746e69 	rsbseq	r6, r4, r9, ror #28

000049e2 <Code_1235>:
    49e2:	b672      	cpsid	i
    49e4:	4770      	bx	lr

000049e6 <Dictionary_1236>:
    49e6:	000049fc 	strdeq	r4, [r0], -ip
    49ea:	69040020 	stmdbvs	r4, {r5}
    49ee:	00727370 	rsbseq	r7, r2, r0, ror r3

000049f2 <Code_1236>:
    49f2:	f847 6d04 	str.w	r6, [r7, #-4]!
    49f6:	f3ef 8605 	mrs	r6, IPSR
    49fa:	4770      	bx	lr

000049fc <Dictionary_1238>:
    49fc:	00004a08 	andeq	r4, r0, r8, lsl #20
    4a00:	6e030000 	cdpvs	0, 0, cr0, cr3, cr0, {0}
    4a04:	4770706f 	ldrbmi	r7, [r0, -pc, rrx]!

00004a06 <Code_1238>:
    4a06:	4770      	bx	lr

00004a08 <Dictionary_1239>:
    4a08:	00004a4a 	andeq	r4, r0, sl, asr #20
    4a0c:	75090000 	strvc	r0, [r9]
    4a10:	6e61686e 	cdpvs	8, 6, cr6, cr1, cr14, {3}
    4a14:	64656c64 	strbtvs	r6, [r5], #-3172	; 0xc64

00004a18 <Code_1239>:
    4a18:	b500      	push	{lr}
    4a1a:	f7fd ffb4 	bl	2986 <dotgaensefuesschen>
    4a1e:	686e5514 	stmdavs	lr!, {r2, r4, r8, sl, ip, lr}^
    4a22:	6c646e61 	stclvs	14, cr6, [r4], #-388	; 0xfffffe7c
    4a26:	49206465 	stmdbmi	r0!, {r0, r2, r5, r6, sl, sp, lr}
    4a2a:	7265746e 	rsbvc	r7, r5, #1845493760	; 0x6e000000
    4a2e:	74707572 	ldrbtvc	r7, [r0], #-1394	; 0x572
    4a32:	f8470020 			; <UNDEFINED> instruction: 0xf8470020
    4a36:	6d04      	ldr	r4, [r0, #80]	; 0x50
    4a38:	f3ef 8605 	mrs	r6, IPSR
    4a3c:	f7fe f816 	bl	2a6c <Code_644>
    4a40:	f7fd ffa1 	bl	2986 <dotgaensefuesschen>
    4a44:	000a2102 	andeq	r2, sl, r2, lsl #2
    4a48:	bd00      	pop	{pc}

00004a4a <Dictionary_1243>:
    4a4a:	00004a5c 	andeq	r4, r0, ip, asr sl
    4a4e:	72050000 	andvc	r0, r5, #0
    4a52:	74657365 	strbtvc	r7, [r5], #-869	; 0x365

00004a56 <Code_1243>:
    4a56:	4892      	ldr	r0, [pc, #584]	; (4ca0 <Code_1292+0x3e>)
    4a58:	4992      	ldr	r1, [pc, #584]	; (4ca4 <Code_1292+0x42>)
    4a5a:	6001      	str	r1, [r0, #0]

00004a5c <Dictionary_1245>:
    4a5c:	00004a86 	andeq	r4, r0, r6, lsl #21
    4a60:	690b0081 	stmdbvs	fp, {r0, r7}
    4a64:	732d7172 	teqvc	sp, #-2147483620	; 0x8000001c
    4a68:	69747379 	ldmdbvs	r4!, {r0, r3, r4, r5, r6, r8, r9, ip, sp, lr}^
    4a6c:	f8476b63 			; <UNDEFINED> instruction: 0xf8476b63

00004a6e <Code_1245>:
    4a6e:	f847 6d04 	str.w	r6, [r7, #-4]!
    4a72:	4e8d      	ldr	r6, [pc, #564]	; (4ca8 <Code_1292+0x46>)
    4a74:	4770      	bx	lr
    4a76:	00004a18 	andeq	r4, r0, r8, lsl sl

00004a7a <irq_vektor_systick>:
    4a7a:	f647 70d0 	movw	r0, #32720	; 0x7fd0
    4a7e:	f2c2 0001 	movt	r0, #8193	; 0x2001
    4a82:	6800      	ldr	r0, [r0, #0]
    4a84:	4687      	mov	pc, r0

00004a86 <Dictionary_1249>:
    4a86:	00004aae 	andeq	r4, r0, lr, lsr #21
    4a8a:	69090081 	stmdbvs	r9, {r0, r7}
    4a8e:	662d7172 			; <UNDEFINED> instruction: 0x662d7172
    4a92:	746c7561 	strbtvc	r7, [ip], #-1377	; 0x561

00004a96 <Code_1249>:
    4a96:	f847 6d04 	str.w	r6, [r7, #-4]!
    4a9a:	4e84      	ldr	r6, [pc, #528]	; (4cac <Code_1292+0x4a>)
    4a9c:	4770      	bx	lr
    4a9e:	00004a18 	andeq	r4, r0, r8, lsl sl

00004aa2 <faulthandler>:
    4aa2:	f647 70cc 	movw	r0, #32716	; 0x7fcc
    4aa6:	f2c2 0001 	movt	r0, #8193	; 0x2001
    4aaa:	6800      	ldr	r0, [r0, #0]
    4aac:	4687      	mov	pc, r0

00004aae <Dictionary_1253>:
    4aae:	00004adc 	ldrdeq	r4, [r0], -ip
    4ab2:	690e0081 	stmdbvs	lr, {r0, r7}
    4ab6:	632d7172 	teqvs	sp, #-2147483620	; 0x8000001c
    4aba:	656c6c6f 	strbvs	r6, [ip, #-3183]!	; 0xc6f
    4abe:	6f697463 	svcvs	0x00697463
    4ac2:	f847006e 			; <UNDEFINED> instruction: 0xf847006e

00004ac4 <Code_1253>:
    4ac4:	f847 6d04 	str.w	r6, [r7, #-4]!
    4ac8:	4e79      	ldr	r6, [pc, #484]	; (4cb0 <Code_1292+0x4e>)
    4aca:	4770      	bx	lr
    4acc:	00004a18 	andeq	r4, r0, r8, lsl sl

00004ad0 <nullhandler>:
    4ad0:	f647 70c8 	movw	r0, #32712	; 0x7fc8
    4ad4:	f2c2 0001 	movt	r0, #8193	; 0x2001
    4ad8:	6800      	ldr	r0, [r0, #0]
    4ada:	4687      	mov	pc, r0

00004adc <Dictionary_1257>:
    4adc:	00004b04 	andeq	r4, r0, r4, lsl #22
    4ae0:	69090081 	stmdbvs	r9, {r0, r7}
    4ae4:	652d7172 	strvs	r7, [sp, #-370]!	; 0x172
    4ae8:	30697478 	rsbcc	r7, r9, r8, ror r4

00004aec <Code_1257>:
    4aec:	f847 6d04 	str.w	r6, [r7, #-4]!
    4af0:	4e70      	ldr	r6, [pc, #448]	; (4cb4 <Code_1292+0x52>)
    4af2:	4770      	bx	lr
    4af4:	00004a18 	andeq	r4, r0, r8, lsl sl

00004af8 <irq_vektor_exti0>:
    4af8:	f647 70c4 	movw	r0, #32708	; 0x7fc4
    4afc:	f2c2 0001 	movt	r0, #8193	; 0x2001
    4b00:	6800      	ldr	r0, [r0, #0]
    4b02:	4687      	mov	pc, r0

00004b04 <Dictionary_1261>:
    4b04:	00004b2c 	andeq	r4, r0, ip, lsr #22
    4b08:	69090081 	stmdbvs	r9, {r0, r7}
    4b0c:	652d7172 	strvs	r7, [sp, #-370]!	; 0x172
    4b10:	31697478 	smccc	38728	; 0x9748

00004b14 <Code_1261>:
    4b14:	f847 6d04 	str.w	r6, [r7, #-4]!
    4b18:	4e67      	ldr	r6, [pc, #412]	; (4cb8 <Code_1292+0x56>)
    4b1a:	4770      	bx	lr
    4b1c:	00004a18 	andeq	r4, r0, r8, lsl sl

00004b20 <irq_vektor_exti1>:
    4b20:	f647 70c0 	movw	r0, #32704	; 0x7fc0
    4b24:	f2c2 0001 	movt	r0, #8193	; 0x2001
    4b28:	6800      	ldr	r0, [r0, #0]
    4b2a:	4687      	mov	pc, r0

00004b2c <Dictionary_1265>:
    4b2c:	00004b54 	andeq	r4, r0, r4, asr fp
    4b30:	69090081 	stmdbvs	r9, {r0, r7}
    4b34:	652d7172 	strvs	r7, [sp, #-370]!	; 0x172
    4b38:	32697478 	rsbcc	r7, r9, #2013265920	; 0x78000000

00004b3c <Code_1265>:
    4b3c:	f847 6d04 	str.w	r6, [r7, #-4]!
    4b40:	4e5e      	ldr	r6, [pc, #376]	; (4cbc <Code_1292+0x5a>)
    4b42:	4770      	bx	lr
    4b44:	00004a18 	andeq	r4, r0, r8, lsl sl

00004b48 <irq_vektor_exti2>:
    4b48:	f647 70bc 	movw	r0, #32700	; 0x7fbc
    4b4c:	f2c2 0001 	movt	r0, #8193	; 0x2001
    4b50:	6800      	ldr	r0, [r0, #0]
    4b52:	4687      	mov	pc, r0

00004b54 <Dictionary_1269>:
    4b54:	00004b7c 	andeq	r4, r0, ip, ror fp
    4b58:	69090081 	stmdbvs	r9, {r0, r7}
    4b5c:	652d7172 	strvs	r7, [sp, #-370]!	; 0x172
    4b60:	33697478 	cmncc	r9, #2013265920	; 0x78000000

00004b64 <Code_1269>:
    4b64:	f847 6d04 	str.w	r6, [r7, #-4]!
    4b68:	4e55      	ldr	r6, [pc, #340]	; (4cc0 <Code_1292+0x5e>)
    4b6a:	4770      	bx	lr
    4b6c:	00004a18 	andeq	r4, r0, r8, lsl sl

00004b70 <irq_vektor_exti3>:
    4b70:	f647 70b8 	movw	r0, #32696	; 0x7fb8
    4b74:	f2c2 0001 	movt	r0, #8193	; 0x2001
    4b78:	6800      	ldr	r0, [r0, #0]
    4b7a:	4687      	mov	pc, r0

00004b7c <Dictionary_1273>:
    4b7c:	00004ba4 	andeq	r4, r0, r4, lsr #23
    4b80:	69090081 	stmdbvs	r9, {r0, r7}
    4b84:	652d7172 	strvs	r7, [sp, #-370]!	; 0x172
    4b88:	34697478 	strbtcc	r7, [r9], #-1144	; 0x478

00004b8c <Code_1273>:
    4b8c:	f847 6d04 	str.w	r6, [r7, #-4]!
    4b90:	4e4c      	ldr	r6, [pc, #304]	; (4cc4 <Code_1292+0x62>)
    4b92:	4770      	bx	lr
    4b94:	00004a18 	andeq	r4, r0, r8, lsl sl

00004b98 <irq_vektor_exti4>:
    4b98:	f647 70b4 	movw	r0, #32692	; 0x7fb4
    4b9c:	f2c2 0001 	movt	r0, #8193	; 0x2001
    4ba0:	6800      	ldr	r0, [r0, #0]
    4ba2:	4687      	mov	pc, r0

00004ba4 <Dictionary_1277>:
    4ba4:	00004bca 	andeq	r4, r0, sl, asr #23
    4ba8:	69070081 	stmdbvs	r7, {r0, r7}
    4bac:	612d7172 	teqvs	sp, r2, ror r1
    4bb0:	f8476364 			; <UNDEFINED> instruction: 0xf8476364

00004bb2 <Code_1277>:
    4bb2:	f847 6d04 	str.w	r6, [r7, #-4]!
    4bb6:	4e44      	ldr	r6, [pc, #272]	; (4cc8 <Code_1292+0x66>)
    4bb8:	4770      	bx	lr
    4bba:	00004a18 	andeq	r4, r0, r8, lsl sl

00004bbe <irq_vektor_adc>:
    4bbe:	f647 70b0 	movw	r0, #32688	; 0x7fb0
    4bc2:	f2c2 0001 	movt	r0, #8193	; 0x2001
    4bc6:	6800      	ldr	r0, [r0, #0]
    4bc8:	4687      	mov	pc, r0

00004bca <Dictionary_1281>:
    4bca:	00004bf2 	strdeq	r4, [r0], -r2
    4bce:	69080081 	stmdbvs	r8, {r0, r7}
    4bd2:	742d7172 	strtvc	r7, [sp], #-370	; 0x172
    4bd6:	00326d69 	eorseq	r6, r2, r9, ror #26

00004bda <Code_1281>:
    4bda:	f847 6d04 	str.w	r6, [r7, #-4]!
    4bde:	4e3b      	ldr	r6, [pc, #236]	; (4ccc <Code_1292+0x6a>)
    4be0:	4770      	bx	lr
    4be2:	00004a18 	andeq	r4, r0, r8, lsl sl

00004be6 <irq_vektor_tim2>:
    4be6:	f647 70ac 	movw	r0, #32684	; 0x7fac
    4bea:	f2c2 0001 	movt	r0, #8193	; 0x2001
    4bee:	6800      	ldr	r0, [r0, #0]
    4bf0:	4687      	mov	pc, r0

00004bf2 <Dictionary_1285>:
    4bf2:	00004c1a 	andeq	r4, r0, sl, lsl ip
    4bf6:	69080081 	stmdbvs	r8, {r0, r7}
    4bfa:	742d7172 	strtvc	r7, [sp], #-370	; 0x172
    4bfe:	00336d69 	eorseq	r6, r3, r9, ror #26

00004c02 <Code_1285>:
    4c02:	f847 6d04 	str.w	r6, [r7, #-4]!
    4c06:	4e32      	ldr	r6, [pc, #200]	; (4cd0 <Code_1292+0x6e>)
    4c08:	4770      	bx	lr
    4c0a:	00004a18 	andeq	r4, r0, r8, lsl sl

00004c0e <irq_vektor_tim3>:
    4c0e:	f647 70a8 	movw	r0, #32680	; 0x7fa8
    4c12:	f2c2 0001 	movt	r0, #8193	; 0x2001
    4c16:	6800      	ldr	r0, [r0, #0]
    4c18:	4687      	mov	pc, r0

00004c1a <Dictionary_1289>:
    4c1a:	00004c42 	andeq	r4, r0, r2, asr #24
    4c1e:	69080081 	stmdbvs	r8, {r0, r7}
    4c22:	742d7172 	strtvc	r7, [sp], #-370	; 0x172
    4c26:	00346d69 	eorseq	r6, r4, r9, ror #26

00004c2a <Code_1289>:
    4c2a:	f847 6d04 	str.w	r6, [r7, #-4]!
    4c2e:	4e29      	ldr	r6, [pc, #164]	; (4cd4 <Code_1292+0x72>)
    4c30:	4770      	bx	lr
    4c32:	00004a18 	andeq	r4, r0, r8, lsl sl

00004c36 <irq_vektor_tim4>:
    4c36:	f647 70a4 	movw	r0, #32676	; 0x7fa4
    4c3a:	f2c2 0001 	movt	r0, #8193	; 0x2001
    4c3e:	6800      	ldr	r0, [r0, #0]
    4c40:	4687      	mov	pc, r0

00004c42 <Dictionary_1292>:
    4c42:	0000500c 	andeq	r5, r0, ip
    4c46:	2d18ffff 	ldccs	15, cr15, [r8, #-1020]	; 0xfffffc04
    4c4a:	46202d2d 	strtmi	r2, [r0], -sp, lsr #26
    4c4e:	6873616c 	ldmdavs	r3!, {r2, r3, r5, r6, r8, sp, lr}^
    4c52:	63694420 	cmnvs	r9, #536870912	; 0x20000000
    4c56:	6e6f6974 	mcrvs	9, 3, r6, cr15, cr4, {3}
    4c5a:	20797261 	rsbscs	r7, r9, r1, ror #4
    4c5e:	002d2d2d 	eoreq	r2, sp, sp, lsr #26

00004c62 <Code_1292>:
    4c62:	481d      	ldr	r0, [pc, #116]	; (4cd8 <Code_1292+0x76>)
    4c64:	6801      	ldr	r1, [r0, #0]
    4c66:	f421 61c0 	bic.w	r1, r1, #1536	; 0x600
    4c6a:	f441 7100 	orr.w	r1, r1, #512	; 0x200
    4c6e:	6001      	str	r1, [r0, #0]
    4c70:	481a      	ldr	r0, [pc, #104]	; (4cdc <Code_1292+0x7a>)
    4c72:	6801      	ldr	r1, [r0, #0]
    4c74:	f411 6180 	ands.w	r1, r1, #1024	; 0x400
    4c78:	d1fb      	bne.n	4c72 <Code_1292+0x10>
    4c7a:	4819      	ldr	r0, [pc, #100]	; (4ce0 <Code_1292+0x7e>)
    4c7c:	6801      	ldr	r1, [r0, #0]
    4c7e:	f021 0107 	bic.w	r1, r1, #7
    4c82:	f441 7181 	orr.w	r1, r1, #258	; 0x102
    4c86:	6001      	str	r1, [r0, #0]
    4c88:	4816      	ldr	r0, [pc, #88]	; (4ce4 <Code_1292+0x82>)
    4c8a:	6801      	ldr	r1, [r0, #0]
    4c8c:	f021 01f0 	bic.w	r1, r1, #240	; 0xf0
    4c90:	f041 01b0 	orr.w	r1, r1, #176	; 0xb0
    4c94:	6001      	str	r1, [r0, #0]
    4c96:	f041 0108 	orr.w	r1, r1, #8
    4c9a:	6001      	str	r1, [r0, #0]
    4c9c:	4770      	bx	lr
    4c9e:	ed0c0000 	stc	0, cr0, [ip]
    4ca2:	0004e000 	andeq	lr, r4, r0
    4ca6:	7fd005fa 	svcvc	0x00d005fa
    4caa:	7fcc2001 	svcvc	0x00cc2001
    4cae:	7fc82001 	svcvc	0x00c82001
    4cb2:	7fc42001 	svcvc	0x00c42001
    4cb6:	7fc02001 	svcvc	0x00c02001
    4cba:	7fbc2001 	svcvc	0x00bc2001
    4cbe:	7fb82001 	svcvc	0x00b82001
    4cc2:	7fb42001 	svcvc	0x00b42001
    4cc6:	7fb02001 	svcvc	0x00b02001
    4cca:	7fac2001 	svcvc	0x00ac2001
    4cce:	7fa82001 	svcvc	0x00a82001
    4cd2:	7fa42001 	svcvc	0x00a42001
    4cd6:	70002001 	andvc	r2, r0, r1
    4cda:	70144000 	andsvc	r4, r4, r0
    4cde:	20004000 	andcs	r4, r0, r0
    4ce2:	10004002 	andne	r4, r0, r2
    4ce6:	f7ff4002 			; <UNDEFINED> instruction: 0xf7ff4002

00004ce8 <Reset>:
    4ce8:	f7ff ffbb 	bl	4c62 <Code_1292>
    4cec:	f7fd fbf8 	bl	24e0 <uart_init>
    4cf0:	f7fd fc0c 	bl	250c <serial_115200_48MHZ>
    4cf4:	4841      	ldr	r0, [pc, #260]	; (4dfc <init_name+0x4>)
    4cf6:	4685      	mov	sp, r0
    4cf8:	4f41      	ldr	r7, [pc, #260]	; (4e00 <init_name+0x8>)
    4cfa:	262a      	movs	r6, #42	; 0x2a
    4cfc:	4841      	ldr	r0, [pc, #260]	; (4e04 <init_name+0xc>)
    4cfe:	4942      	ldr	r1, [pc, #264]	; (4e08 <init_name+0x10>)
    4d00:	6001      	str	r1, [r0, #0]
    4d02:	4842      	ldr	r0, [pc, #264]	; (4e0c <init_name+0x14>)
    4d04:	4942      	ldr	r1, [pc, #264]	; (4e10 <init_name+0x18>)
    4d06:	6001      	str	r1, [r0, #0]
    4d08:	f847 6d04 	str.w	r6, [r7, #-4]!
    4d0c:	4e40      	ldr	r6, [pc, #256]	; (4e10 <init_name+0x18>)
    4d0e:	4d41      	ldr	r5, [pc, #260]	; (4e14 <init_name+0x1c>)

00004d10 <SucheFlashPointer_Hangelschleife>:
    4d10:	88b1      	ldrh	r1, [r6, #4]
    4d12:	4b41      	ldr	r3, [pc, #260]	; (4e18 <init_name+0x20>)
    4d14:	4299      	cmp	r1, r3
    4d16:	d024      	beq.n	4d62 <Sucheflashpointer_Speicherbelegung_fertig>
    4d18:	4b40      	ldr	r3, [pc, #256]	; (4e1c <init_name+0x24>)
    4d1a:	400b      	ands	r3, r1
    4d1c:	d00a      	beq.n	4d34 <SucheFlashPointer_Hangelschleife+0x24>
    4d1e:	1db0      	adds	r0, r6, #6
    4d20:	f7fe fe50 	bl	39c4 <skipstring>
    4d24:	f7fe f98d 	bl	3042 <suchedefinitionsende>
    4d28:	8803      	ldrh	r3, [r0, #0]
    4d2a:	8840      	ldrh	r0, [r0, #2]
    4d2c:	0400      	lsls	r0, r0, #16
    4d2e:	4303      	orrs	r3, r0
    4d30:	1aed      	subs	r5, r5, r3
    4d32:	e016      	b.n	4d62 <Sucheflashpointer_Speicherbelegung_fertig>
    4d34:	2380      	movs	r3, #128	; 0x80
    4d36:	400b      	ands	r3, r1
    4d38:	d013      	beq.n	4d62 <Sucheflashpointer_Speicherbelegung_fertig>
    4d3a:	230f      	movs	r3, #15
    4d3c:	4019      	ands	r1, r3
    4d3e:	0089      	lsls	r1, r1, #2
    4d40:	1a6d      	subs	r5, r5, r1
    4d42:	1db0      	adds	r0, r6, #6
    4d44:	f7fe fe3e 	bl	39c4 <skipstring>
    4d48:	f7fe f97b 	bl	3042 <suchedefinitionsende>
    4d4c:	f847 6d04 	str.w	r6, [r7, #-4]!
    4d50:	0006      	movs	r6, r0
    4d52:	f847 6d04 	str.w	r6, [r7, #-4]!
    4d56:	002e      	movs	r6, r5
    4d58:	f847 6d04 	str.w	r6, [r7, #-4]!
    4d5c:	000e      	movs	r6, r1
    4d5e:	f7fc fd6d 	bl	183c <Code_373>

00004d62 <Sucheflashpointer_Speicherbelegung_fertig>:
    4d62:	f7fe fe0d 	bl	3980 <Code_908>
    4d66:	0030      	movs	r0, r6
    4d68:	cf40      	ldmia	r7!, {r6}
    4d6a:	d0d1      	beq.n	4d10 <SucheFlashPointer_Hangelschleife>
    4d6c:	482c      	ldr	r0, [pc, #176]	; (4e20 <init_name+0x28>)
    4d6e:	6006      	str	r6, [r0, #0]
    4d70:	cf40      	ldmia	r7!, {r6}
    4d72:	482c      	ldr	r0, [pc, #176]	; (4e24 <init_name+0x2c>)
    4d74:	6005      	str	r5, [r0, #0]
    4d76:	482c      	ldr	r0, [pc, #176]	; (4e28 <init_name+0x30>)
    4d78:	492c      	ldr	r1, [pc, #176]	; (4e2c <init_name+0x34>)
    4d7a:	4a27      	ldr	r2, [pc, #156]	; (4e18 <init_name+0x20>)
    4d7c:	4288      	cmp	r0, r1
    4d7e:	d004      	beq.n	4d8a <Sucheflashpointer_Speicherbelegung_fertig+0x28>
    4d80:	3802      	subs	r0, #2
    4d82:	8803      	ldrh	r3, [r0, #0]
    4d84:	4293      	cmp	r3, r2
    4d86:	d0f9      	beq.n	4d7c <Sucheflashpointer_Speicherbelegung_fertig+0x1a>
    4d88:	3002      	adds	r0, #2
    4d8a:	4929      	ldr	r1, [pc, #164]	; (4e30 <init_name+0x38>)
    4d8c:	6008      	str	r0, [r1, #0]
    4d8e:	f7fd f94f 	bl	2030 <Code_454>
    4d92:	f7fd fdf8 	bl	2986 <dotgaensefuesschen>
    4d96:	63654d3b 	cmnvs	r5, #3776	; 0xec0
    4d9a:	70736972 	rsbsvc	r6, r3, r2, ror r9
    4d9e:	6574532d 	ldrbvs	r5, [r4, #-813]!	; 0x32d
    4da2:	72616c6c 	rsbvc	r6, r1, #27648	; 0x6c00
    4da6:	52207369 	eorpl	r7, r0, #-1543503871	; 0xa4000001
    4daa:	2e322041 	cdpcs	0, 3, cr2, cr2, cr1, {2}
    4dae:	20312e32 	eorscs	r2, r1, r2, lsr lr
    4db2:	20726f66 	rsbscs	r6, r2, r6, ror #30
    4db6:	334d5453 	movtcc	r5, #54355	; 0xd453
    4dba:	37344c32 			; <UNDEFINED> instruction: 0x37344c32
    4dbe:	79622036 	stmdbvc	r2!, {r1, r2, r4, r5, sp}^
    4dc2:	74614d20 	strbtvc	r4, [r1], #-3360	; 0xd20
    4dc6:	61696874 	smcvs	38532	; 0x9684
    4dca:	6f4b2073 	svcvs	0x004b2073
    4dce:	0a206863 	beq	81ef62 <BIT23+0x1ef62>
    4dd2:	4818      	ldr	r0, [pc, #96]	; (4e34 <init_name+0x3c>)
    4dd4:	2100      	movs	r1, #0
    4dd6:	6001      	str	r1, [r0, #0]
    4dd8:	f847 6d04 	str.w	r6, [r7, #-4]!
    4ddc:	4e16      	ldr	r6, [pc, #88]	; (4e38 <init_name+0x40>)
    4dde:	f847 6d04 	str.w	r6, [r7, #-4]!
    4de2:	2604      	movs	r6, #4
    4de4:	f7fe fdfd 	bl	39e2 <Code_913>
    4de8:	cf40      	ldmia	r7!, {r6}
    4dea:	2e00      	cmp	r6, #0
    4dec:	d002      	beq.n	4df4 <Sucheflashpointer_Speicherbelegung_fertig+0x92>
    4dee:	f7fe f9c0 	bl	3172 <Code_761>
    4df2:	e5a9      	b.n	4948 <quit_intern>
    4df4:	cf40      	ldmia	r7!, {r6}
    4df6:	e592      	b.n	491e <Code_1230>

00004df8 <init_name>:
    4df8:	74696e69 	strbtvc	r6, [r9], #-3689	; 0xe69
    4dfc:	2000048c 	andcs	r0, r0, ip, lsl #9
    4e00:	2000038c 	andcs	r0, r0, ip, lsl #7
    4e04:	20000000 	andcs	r0, r0, r0
    4e08:	20000730 	andcs	r0, r0, r0, lsr r7
    4e0c:	20000004 	andcs	r0, r0, r4
    4e10:	00000188 	andeq	r0, r0, r8, lsl #3
    4e14:	20018000 	andcs	r8, r1, r0
    4e18:	0000ffff 	strdeq	pc, [r0], -pc	; <UNPREDICTABLE>
    4e1c:	00000100 	andeq	r0, r0, r0, lsl #2
    4e20:	2000001c 	andcs	r0, r0, ip, lsl r0
    4e24:	20000024 	andcs	r0, r0, r4, lsr #32
    4e28:	00100000 	andseq	r0, r0, r0
    4e2c:	00005000 	andeq	r5, r0, r0
    4e30:	20000018 	andcs	r0, r0, r8, lsl r0
    4e34:	20000008 	andcs	r0, r0, r8
    4e38:	00004df8 	strdeq	r4, [r0], -r8

Disassembly of section .ARM.attributes:

00000000 <.ARM.attributes>:
   0:	00002041 	andeq	r2, r0, r1, asr #32
   4:	61656100 	cmnvs	r5, r0, lsl #2
   8:	01006962 	tsteq	r0, r2, ror #18
   c:	00000016 	andeq	r0, r0, r6, lsl r0
  10:	726f4305 	rsbvc	r4, pc, #335544320	; 0x14000000
  14:	2d786574 	cfldr64cs	mvdx6, [r8, #-464]!	; 0xfffffe30
  18:	0600344d 	streq	r3, [r0], -sp, asr #8
  1c:	094d070d 	stmdbeq	sp, {r0, r2, r3, r8, r9, sl}^
  20:	Address 0x00000020 is out of bounds.


Disassembly of section .debug_line:

00000000 <.debug_line>:
       0:	00001764 	andeq	r1, r0, r4, ror #14
       4:	02530002 	subseq	r0, r3, #2
       8:	01020000 	mrseq	r0, (UNDEF: 2)
       c:	000d0efb 	strdeq	r0, [sp], -fp
      10:	01010101 	tsteq	r1, r1, lsl #2
      14:	01000000 	mrseq	r0, (UNDEF: 0)
      18:	2e010000 	cdpcs	0, 0, cr0, cr1, cr0, {0}
      1c:	6f632f2e 	svcvs	0x00632f2e
      20:	6e6f6d6d 	cdpvs	13, 6, cr6, cr15, cr13, {3}
      24:	0061722f 	rsbeq	r7, r1, pc, lsr #4
      28:	632f2e2e 	teqvs	pc, #736	; 0x2e0
      2c:	6f6d6d6f 	svcvs	0x006d6d6f
      30:	7200006e 	andvc	r0, r0, #110	; 0x6e
      34:	6e692d61 	cdpvs	13, 6, cr2, cr9, cr1, {3}
      38:	73617266 	cmnvc	r1, #1610612742	; 0x60000006
      3c:	63757274 	cmnvs	r5, #1073741831	; 0x40000007
      40:	65727574 	ldrbvs	r7, [r2, #-1396]!	; 0x574
      44:	0100732e 	tsteq	r0, lr, lsr #6
      48:	61720000 	cmnvs	r2, r0
      4c:	6f6f742d 	svcvs	0x006f742d
      50:	732e736c 	teqvc	lr, #-1342177279	; 0xb0000001
      54:	00000100 	andeq	r0, r0, r0, lsl #2
      58:	62756f64 	rsbsvs	r6, r5, #400	; 0x190
      5c:	732e656c 	teqvc	lr, #452984832	; 0x1b000000
      60:	00000100 	andeq	r0, r0, r0, lsl #2
      64:	63617473 	cmnvs	r1, #1929379840	; 0x73000000
      68:	67756a6b 	ldrbvs	r6, [r5, -fp, ror #20]!
      6c:	72656c67 	rsbvc	r6, r5, #26368	; 0x6700
      70:	00732e73 	rsbseq	r2, r3, r3, ror lr
      74:	6c000001 	stcvs	0, cr0, [r0], {1}
      78:	6369676f 	cmnvs	r9, #29097984	; 0x1bc0000
      7c:	0100732e 	tsteq	r0, lr, lsr #6
      80:	61720000 	cmnvs	r2, r0
      84:	676f6c2d 	strbvs	r6, [pc, -sp, lsr #24]!
      88:	732e6369 	teqvc	lr, #-1543503871	; 0xa4000001
      8c:	00000100 	andeq	r0, r0, r0, lsl #2
      90:	706d6f63 	rsbvc	r6, sp, r3, ror #30
      94:	73697261 	cmnvc	r9, #268435462	; 0x10000006
      98:	736e6f69 	cmnvc	lr, #420	; 0x1a4
      9c:	0100732e 	tsteq	r0, lr, lsr #6
      a0:	656d0000 	strbvs	r0, [sp]!
      a4:	79726f6d 	ldmdbvc	r2!, {r0, r2, r3, r5, r6, r8, r9, sl, fp, sp, lr}^
      a8:	0100732e 	tsteq	r0, lr, lsr #6
      ac:	6c660000 	stclvs	0, cr0, [r6]
      b0:	2e687361 	cdpcs	3, 6, cr7, cr8, cr1, {3}
      b4:	00000073 	andeq	r0, r0, r3, ror r0
      b8:	616c6600 	cmnvs	ip, r0, lsl #12
      bc:	36316873 			; <UNDEFINED> instruction: 0x36316873
      c0:	65747962 	ldrbvs	r7, [r4, #-2402]!	; 0x962
      c4:	6f6c6273 	svcvs	0x006c6273
      c8:	72776b63 	rsbsvc	r6, r7, #101376	; 0x18c00
      cc:	2e657469 	cdpcs	4, 6, cr7, cr5, cr9, {3}
      d0:	00020073 	andeq	r0, r2, r3, ror r0
      d4:	6c616300 	stclvs	3, cr6, [r1]
      d8:	616c7563 	cmnvs	ip, r3, ror #10
      dc:	6e6f6974 	mcrvs	9, 3, r6, cr15, cr4, {3}
      e0:	00732e73 	rsbseq	r2, r3, r3, ror lr
      e4:	74000001 	strvc	r0, [r0], #-1
      e8:	696d7265 	stmdbvs	sp!, {r0, r2, r5, r6, r9, ip, sp, lr}^
      ec:	2e6c616e 	powcsez	f6, f4, #0.5
      f0:	00000073 	andeq	r0, r0, r3, ror r0
      f4:	72657400 	rsbvc	r7, r5, #0
      f8:	616e696d 	cmnvs	lr, sp, ror #18
      fc:	6f6f686c 	svcvs	0x006f686c
     100:	732e736b 	teqvc	lr, #-1409286143	; 0xac000001
     104:	00000200 	andeq	r0, r0, r0, lsl #4
     108:	72657571 	rsbvc	r7, r5, #473956352	; 0x1c400000
     10c:	00732e79 	rsbseq	r2, r3, r9, ror lr
     110:	73000002 	movwvc	r0, #2
     114:	6e697274 	mcrvs	2, 3, r7, cr9, cr4, {3}
     118:	732e7367 	teqvc	lr, #-1677721599	; 0x9c000001
     11c:	00000200 	andeq	r0, r0, r0, lsl #4
     120:	70656564 	rsbvc	r6, r5, r4, ror #10
     124:	69736e69 	ldmdbvs	r3!, {r0, r3, r5, r6, r9, sl, fp, sp, lr}^
     128:	2e746867 	cdpcs	8, 7, cr6, cr4, cr7, {3}
     12c:	00020073 	andeq	r0, r2, r3, ror r0
     130:	646f6300 	strbtvs	r6, [pc], #-768	; 138 <BIT8+0x38>
     134:	6e656765 	cdpvs	7, 6, cr6, cr5, cr5, {3}
     138:	74617265 	strbtvc	r7, [r1], #-613	; 0x265
     13c:	6d2d726f 	sfmvs	f7, 4, [sp, #-444]!	; 0xfffffe44
     140:	00732e33 	rsbseq	r2, r3, r3, lsr lr
     144:	63000002 	movwvs	r0, #2
     148:	69706d6f 	ldmdbvs	r0!, {r0, r1, r2, r3, r5, r6, r8, sl, fp, sp, lr}^
     14c:	2e72656c 	cdpcs	5, 7, cr6, cr2, cr12, {3}
     150:	00020073 	andeq	r0, r2, r3, ror r0
     154:	6d6f6300 	stclvs	3, cr6, [pc]	; 15c <Flag_buffer_foldable+0x1c>
     158:	656c6970 	strbvs	r6, [ip, #-2416]!	; 0x970
     15c:	6c662d72 	stclvs	13, cr2, [r6], #-456	; 0xfffffe38
     160:	2e687361 	cdpcs	3, 6, cr7, cr8, cr1, {3}
     164:	00020073 	andeq	r0, r2, r3, ror r0
     168:	6e6f6300 	cdpvs	3, 6, cr6, cr15, cr0, {0}
     16c:	6c6f7274 	sfmvs	f7, 2, [pc], #-464	; ffffffa4 <BIT31+0x7fffffa4>
     170:	75727473 	ldrbvc	r7, [r2, #-1139]!	; 0x473
     174:	72757463 	rsbsvc	r7, r5, #1660944384	; 0x63000000
     178:	732e7365 	teqvc	lr, #-1811939327	; 0x94000001
     17c:	00000100 	andeq	r0, r0, r0, lsl #2
     180:	6f6c6f64 	svcvs	0x006c6f64
     184:	732e706f 	teqvc	lr, #111	; 0x6f
     188:	00000100 	andeq	r0, r0, r0, lsl #2
     18c:	65736163 	ldrbvs	r6, [r3, #-355]!	; 0x163
     190:	0100732e 	tsteq	r0, lr, lsr #6
     194:	6f740000 	svcvs	0x00740000
     198:	2e6e656b 	cdpcs	5, 6, cr6, cr14, cr11, {3}
     19c:	00020073 	andeq	r0, r2, r3, ror r0
     1a0:	6d756e00 	ldclvs	14, cr6, [r5]
     1a4:	73726562 	cmnvc	r2, #411041792	; 0x18800000
     1a8:	6e697274 	mcrvs	2, 3, r7, cr9, cr4, {3}
     1ac:	732e7367 	teqvc	lr, #-1677721599	; 0x9c000001
     1b0:	00000200 	andeq	r0, r0, r0, lsl #4
     1b4:	6b2d6172 	blvs	b58784 <BIT23+0x358784>
     1b8:	69706d6f 	ldmdbvs	r0!, {r0, r1, r2, r3, r5, r6, r8, sl, fp, sp, lr}^
     1bc:	6f74616c 	svcvs	0x0074616c
     1c0:	00732e72 	rsbseq	r2, r3, r2, ror lr
     1c4:	72000001 	andvc	r0, r0, #1
     1c8:	6e692d61 	cdpvs	13, 6, cr2, cr9, cr1, {3}
     1cc:	656e696c 	strbvs	r6, [lr, #-2412]!	; 0x96c
     1d0:	0100732e 	tsteq	r0, lr, lsr #6
     1d4:	6e690000 	cdpvs	0, 6, cr0, cr9, cr0, {0}
     1d8:	70726574 	rsbsvc	r6, r2, r4, ror r5
     1dc:	65746572 	ldrbvs	r6, [r4, #-1394]!	; 0x572
     1e0:	00732e72 	rsbseq	r2, r3, r2, ror lr
     1e4:	69000001 	stmdbvs	r0, {r0}
     1e8:	7265746e 	rsbvc	r7, r5, #1845493760	; 0x6e000000
     1ec:	74707572 	ldrbtvc	r7, [r0], #-1394	; 0x572
     1f0:	6f632d73 	svcvs	0x00632d73
     1f4:	6e6f6d6d 	cdpvs	13, 6, cr6, cr15, cr13, {3}
     1f8:	0200732e 	andeq	r7, r0, #-1207959552	; 0xb8000000
     1fc:	6e690000 	cdpvs	0, 6, cr0, cr9, cr0, {0}
     200:	72726574 	rsbsvc	r6, r2, #486539264	; 0x1d000000
     204:	73747075 	cmnvc	r4, #117	; 0x75
     208:	0000732e 	andeq	r7, r0, lr, lsr #6
     20c:	75740000 	ldrbvc	r0, [r4]!
     210:	2e6f6272 	mcrcs	2, 3, r6, cr15, cr2, {3}
     214:	00000073 	andeq	r0, r0, r3, ror r0
     218:	63656d00 	cmnvs	r5, #0
     21c:	70736972 	rsbsvc	r6, r3, r2, ror r9
     220:	6574732d 	ldrbvs	r7, [r4, #-813]!	; 0x32d
     224:	72616c6c 	rsbvc	r6, r1, #27648	; 0x6c00
     228:	732d7369 	teqvc	sp, #-1543503871	; 0xa4000001
     22c:	32336d74 	eorscc	r6, r3, #7424	; 0x1d00
     230:	3637346c 	ldrtcc	r3, [r7], -ip, ror #8
     234:	0000732e 	andeq	r7, r0, lr, lsr #6
     238:	61630000 	cmnvs	r3, r0
     23c:	66686374 			; <UNDEFINED> instruction: 0x66686374
     240:	6873616c 	ldmdavs	r3!, {r2, r3, r5, r6, r8, sp, lr}^
     244:	6e696f70 	mcrvs	15, 3, r6, cr9, cr0, {3}
     248:	73726574 	cmnvc	r2, #486539264	; 0x1d000000
     24c:	0200732e 	andeq	r7, r0, #-1207959552	; 0xb8000000
     250:	6f620000 	svcvs	0x00620000
     254:	732e746f 	teqvc	lr, #1862270976	; 0x6f000000
     258:	00000200 	andeq	r0, r0, r0, lsl #4
     25c:	02050000 	andeq	r0, r5, #0
     260:	000001ae 	andeq	r0, r0, lr, lsr #3
     264:	21012b03 	tstcs	r1, r3, lsl #22
     268:	2f252123 	svccs	0x00252123
     26c:	2121302f 	teqcs	r1, pc, lsr #32
     270:	21282321 	teqcs	r8, r1, lsr #6
     274:	21212221 	teqcs	r1, r1, lsr #4
     278:	2f2f2123 	svccs	0x002f2123
     27c:	3d222823 	stccc	8, cr2, [r2, #-140]!	; 0xffffff74
     280:	212f213d 	teqcs	pc, sp, lsr r1	; <UNPREDICTABLE>
     284:	2f222f24 	svccs	0x00222f24
     288:	22283021 	eorcs	r3, r8, #33	; 0x21
     28c:	2f213d21 	svccs	0x00213d21
     290:	212f2322 	teqcs	pc, r2, lsr #6
     294:	22212530 	eorcs	r2, r1, #201326592	; 0xc000000
     298:	30212121 	eorcc	r2, r1, r1, lsr #2
     29c:	21200c03 	teqcs	r0, r3, lsl #24
     2a0:	21212121 	teqcs	r1, r1, lsr #2
     2a4:	21232121 	teqcs	r3, r1, lsr #2
     2a8:	21212121 	teqcs	r1, r1, lsr #2
     2ac:	21222121 	teqcs	r2, r1, lsr #2
     2b0:	21232522 	teqcs	r3, r2, lsr #10
     2b4:	2f232121 	svccs	0x00232121
     2b8:	21222531 	teqcs	r2, r1, lsr r5
     2bc:	25212121 	strcs	r2, [r1, #-289]!	; 0x121
     2c0:	21212122 	teqcs	r1, r2, lsr #2
     2c4:	21212122 	teqcs	r1, r2, lsr #2
     2c8:	21212122 	teqcs	r1, r2, lsr #2
     2cc:	25222122 	strcs	r2, [r2, #-290]!	; 0x122
     2d0:	23212322 	teqcs	r1, #-2013265920	; 0x88000000
     2d4:	23212221 	teqcs	r1, #268435458	; 0x10000002
     2d8:	03212321 	teqeq	r1, #-2080374784	; 0x84000000
     2dc:	212f2e10 	teqcs	pc, r0, lsl lr	; <UNPREDICTABLE>
     2e0:	2127322f 	teqcs	r7, pc, lsr #4
     2e4:	2f2f2f2f 	svccs	0x002f2f2f
     2e8:	2121252f 	teqcs	r1, pc, lsr #10
     2ec:	2121252f 	teqcs	r1, pc, lsr #10
     2f0:	2121252f 	teqcs	r1, pc, lsr #10
     2f4:	2121252f 	teqcs	r1, pc, lsr #10
     2f8:	2126262f 	teqcs	r6, pc, lsr #12
     2fc:	21282122 	teqcs	r8, r2, lsr #2
     300:	232f4b22 	teqcs	pc, #34816	; 0x8800
     304:	3d232421 	cfstrscc	mvf2, [r3, #-132]!	; 0xffffff7c
     308:	21242f3d 	teqcs	r4, sp, lsr pc
     30c:	21214b22 	teqcs	r1, r2, lsr #22
     310:	22282f34 	eorcs	r2, r8, #208	; 0xd0
     314:	21212121 	teqcs	r1, r1, lsr #2
     318:	22212222 	eorcs	r2, r1, #536870914	; 0x20000002
     31c:	02042221 	andeq	r2, r4, #268435458	; 0x10000002
     320:	207cfb03 	rsbscs	pc, ip, r3, lsl #22
     324:	3d2f3d21 	stccc	13, cr3, [pc, #-132]!	; 2a8 <element_to_stack+0x2>
     328:	2123262f 	teqcs	r3, pc, lsr #12
     32c:	21212121 	teqcs	r1, r1, lsr #2
     330:	21252121 	teqcs	r5, r1, lsr #2
     334:	21212221 	teqcs	r1, r1, lsr #4
     338:	22212122 	eorcs	r2, r1, #-2147483640	; 0x80000008
     33c:	21222121 	teqcs	r2, r1, lsr #2
     340:	3d212421 	cfstrscc	mvf2, [r1, #-132]!	; 0xffffff7c
     344:	21212f3d 	teqcs	r1, sp, lsr pc
     348:	2f3d2321 	svccs	0x003d2321
     34c:	43082f3d 	movwmi	r2, #36669	; 0x8f3d
     350:	21212122 	teqcs	r1, r2, lsr #2
     354:	21222121 	teqcs	r2, r1, lsr #2
     358:	21302130 	teqcs	r0, r0, lsr r1
     35c:	22302130 	eorscs	r2, r0, #12
     360:	23222121 	teqcs	r2, #1073741832	; 0x40000008
     364:	21212121 	teqcs	r1, r1, lsr #2
     368:	21212121 	teqcs	r1, r1, lsr #2
     36c:	21212121 	teqcs	r1, r1, lsr #2
     370:	21214c24 	teqcs	r1, r4, lsr #24
     374:	222f2321 	eorcs	r2, pc, #-2080374784	; 0x84000000
     378:	25222121 	strcs	r2, [r2, #-289]!	; 0x121
     37c:	22212125 	eorcs	r2, r1, #1073741833	; 0x40000009
     380:	252f3021 	strcs	r3, [pc, #-33]!	; 367 <init_register_allocator+0x9>
     384:	22212124 	eorcs	r2, r1, #9
     388:	30213021 	eorcc	r3, r1, r1, lsr #32
     38c:	2124252f 	teqcs	r4, pc, lsr #10
     390:	30212221 	eorcc	r2, r1, r1, lsr #4
     394:	30213021 	eorcc	r3, r1, r1, lsr #32
     398:	2124252f 	teqcs	r4, pc, lsr #10
     39c:	30212221 	eorcc	r2, r1, r1, lsr #4
     3a0:	30213021 	eorcc	r3, r1, r1, lsr #32
     3a4:	442f3021 	strtmi	r3, [pc], #-33	; 3ac <generiere_adresskonstante+0x1e>
     3a8:	21212124 	teqcs	r1, r4, lsr #2
     3ac:	23212f21 	teqcs	r1, #132	; 0x84
     3b0:	21212427 	teqcs	r1, r7, lsr #8
     3b4:	212f2121 	teqcs	pc, r1, lsr #2
     3b8:	21242623 	teqcs	r4, r3, lsr #12
     3bc:	2f212121 	svccs	0x00212121
     3c0:	0b032321 	bleq	c904c <BIT19+0x4904c>
     3c4:	21212220 	teqcs	r1, r0, lsr #4
     3c8:	21212221 	teqcs	r1, r1, lsr #4
     3cc:	23212121 	teqcs	r1, #1073741832	; 0x40000008
     3d0:	212f2321 	teqcs	pc, r1, lsr #6
     3d4:	3021212f 	eorcc	r2, r1, pc, lsr #2
     3d8:	21212226 	teqcs	r1, r6, lsr #4
     3dc:	21222121 	teqcs	r2, r1, lsr #2
     3e0:	21212121 	teqcs	r1, r1, lsr #2
     3e4:	24212121 	strtcs	r2, [r1], #-289	; 0x121
     3e8:	212f212f 	teqcs	pc, pc, lsr #2
     3ec:	22253021 	eorcs	r3, r5, #33	; 0x21
     3f0:	212f2f2f 	teqcs	pc, pc, lsr #30
     3f4:	21212125 	teqcs	r1, r5, lsr #2
     3f8:	21212221 	teqcs	r1, r1, lsr #4
     3fc:	04304b23 	ldrteq	r4, [r0], #-2851	; 0xb23
     400:	7d890303 	stcvc	3, cr0, [r9, #12]
     404:	212f2190 			; <UNDEFINED> instruction: 0x212f2190
     408:	2f212121 	svccs	0x00212121
     40c:	21217a2f 	teqcs	r1, pc, lsr #20
     410:	2f2f2121 	svccs	0x002f2121
     414:	2121217a 	teqcs	r1, sl, ror r1
     418:	2121212f 	teqcs	r1, pc, lsr #2
     41c:	21302223 	teqcs	r0, r3, lsr #4
     420:	21222121 	teqcs	r2, r1, lsr #2
     424:	21222121 	teqcs	r2, r1, lsr #2
     428:	21222121 	teqcs	r2, r1, lsr #2
     42c:	7a222121 	bvc	8888b8 <BIT23+0x888b8>
     430:	22212121 	eorcs	r2, r1, #1073741832	; 0x40000008
     434:	2f2f2f21 	svccs	0x002f2f21
     438:	2f21792f 	svccs	0x0021792f
     43c:	79212121 	stmdbvc	r1!, {r0, r5, r8, sp}
     440:	2f212121 	svccs	0x00212121
     444:	21212121 	teqcs	r1, r1, lsr #2
     448:	217a2121 	cmncs	sl, r1, lsr #2
     44c:	21212221 	teqcs	r1, r1, lsr #4
     450:	21212122 	teqcs	r1, r2, lsr #2
     454:	21217a22 	teqcs	r1, r2, lsr #20
     458:	22212122 	eorcs	r2, r1, #-2147483640	; 0x80000008
     45c:	22212121 	eorcs	r2, r1, #1073741832	; 0x40000008
     460:	21660f03 	cmncs	r6, r3, lsl #30
     464:	21212121 	teqcs	r1, r1, lsr #2
     468:	2f2f2f21 	svccs	0x002f2f21
     46c:	212f6c2f 	teqcs	pc, pc, lsr #24
     470:	21212121 	teqcs	r1, r1, lsr #2
     474:	2f2f2f21 	svccs	0x002f2f21
     478:	212f6b2f 	teqcs	pc, pc, lsr #22
     47c:	2121212f 	teqcs	r1, pc, lsr #2
     480:	2f2f4b2f 	svccs	0x002f4b2f
     484:	21212187 	smlawbcs	r1, r7, r1, r2
     488:	032f4b2f 	teqeq	pc, #48128	; 0xbc00
     48c:	2121660b 	teqcs	r1, fp, lsl #12
     490:	21212121 	teqcs	r1, r1, lsr #2
     494:	2121216b 	teqcs	r1, fp, ror #2
     498:	21792121 	cmncs	r9, r1, lsr #2
     49c:	21212121 	teqcs	r1, r1, lsr #2
     4a0:	21217921 	teqcs	r1, r1, lsr #18
     4a4:	21222121 	teqcs	r2, r1, lsr #2
     4a8:	2f302f30 	svccs	0x00302f30
     4ac:	303d302f 	eorscc	r3, sp, pc, lsr #32
     4b0:	7a2f4b2f 	bvc	bd3174 <BIT23+0x3d3174>
     4b4:	0e032121 	adfeqsp	f2, f3, f1
     4b8:	21212182 	smlawbcs	r1, r2, r1, r2
     4bc:	21212121 	teqcs	r1, r1, lsr #2
     4c0:	2121216b 	teqcs	r1, fp, ror #2
     4c4:	22212122 	eorcs	r2, r1, #-2147483640	; 0x80000008
     4c8:	2f2f2f21 	svccs	0x002f2f21
     4cc:	2f2f2f2f 	svccs	0x002f2f2f
     4d0:	4b2f2f2f 	blmi	bcc194 <BIT23+0x3cc194>
     4d4:	21216b2f 	teqcs	r1, pc, lsr #22
     4d8:	22212121 	eorcs	r2, r1, #1073741832	; 0x40000008
     4dc:	2f2f2f21 	svccs	0x002f2f21
     4e0:	2f2f2f2f 	svccs	0x002f2f2f
     4e4:	4b2f2f2f 	blmi	bcc1a8 <BIT23+0x3cc1a8>
     4e8:	212f6b2f 	teqcs	pc, pc, lsr #22
     4ec:	2f2f2121 	svccs	0x002f2121
     4f0:	34032f4b 	strcc	r2, [r3], #-3915	; 0xf4b
     4f4:	212f2166 	teqcs	pc, r6, ror #2
     4f8:	21322f22 	teqcs	r2, r2, lsr #30
     4fc:	21322f2f 	teqcs	r2, pc, lsr #30
     500:	2f312122 	svccs	0x00312122
     504:	222f2f30 	eorcs	r2, pc, #192	; 0xc0
     508:	222f2f30 	eorcs	r2, pc, #192	; 0xc0
     50c:	30032f30 	andcc	r2, r3, r0, lsr pc
     510:	212f2166 	teqcs	pc, r6, ror #2
     514:	032f2f22 	teqeq	pc, #136	; 0x88
     518:	21226610 	teqcs	r2, r0, lsl r6
     51c:	21212221 	teqcs	r1, r1, lsr #4
     520:	21212221 	teqcs	r1, r1, lsr #4
     524:	22212121 	eorcs	r2, r1, #1073741832	; 0x40000008
     528:	21212121 	teqcs	r1, r1, lsr #2
     52c:	21212122 	teqcs	r1, r2, lsr #2
     530:	03222122 	teqeq	r2, #-2147483640	; 0x80000008
     534:	2321740c 	teqcs	r1, #201326592	; 0xc000000
     538:	212f212f 	teqcs	pc, pc, lsr #2
     53c:	2f322f30 	svccs	0x00322f30
     540:	21212f21 	teqcs	r1, r1, lsr #30
     544:	322f222f 	eorcc	r2, pc, #-268435454	; 0xf0000002
     548:	222f212f 	eorcs	r2, pc, #-1073741813	; 0xc000000b
     54c:	21232f21 	teqcs	r3, r1, lsr #30
     550:	21212221 	teqcs	r1, r1, lsr #4
     554:	212f2421 	teqcs	pc, r1, lsr #8
     558:	2f21222f 	svccs	0x0021222f
     55c:	22212123 	eorcs	r2, r1, #-1073741816	; 0xc0000008
     560:	23212121 	teqcs	r1, #1073741832	; 0x40000008
     564:	22212121 	eorcs	r2, r1, #1073741832	; 0x40000008
     568:	2f2f216d 	svccs	0x002f216d
     56c:	7a212f3d 	bvc	84c268 <BIT23+0x4c268>
     570:	3d2f2f21 	stccc	15, cr2, [pc, #-132]!	; 4f4 <expect_tos_in_register>
     574:	2f216d2f 	svccs	0x00216d2f
     578:	212f3d2f 	teqcs	pc, pc, lsr #26
     57c:	2f2f2188 	svccs	0x002f2188
     580:	21892f3d 	orrcs	r2, r9, sp, lsr pc
     584:	21212f3d 	teqcs	r1, sp, lsr pc
     588:	212f217b 	teqcs	pc, fp, ror r1	; <UNPREDICTABLE>
     58c:	0321212f 	teqeq	r1, #-1073741813	; 0xc000000b
     590:	09038225 	stmdbeq	r3, {r0, r2, r5, r9, pc}
     594:	21212120 	teqcs	r1, r0, lsr #2
     598:	22232126 	eorcs	r2, r3, #-2147483639	; 0x80000009
     59c:	212321bb 			; <UNDEFINED> instruction: 0x212321bb
     5a0:	21222121 	teqcs	r2, r1, lsr #2
     5a4:	21212228 	teqcs	r1, r8, lsr #4
     5a8:	09032221 	stmdbeq	r3, {r0, r5, r9, sp}
     5ac:	22212174 	eorcs	r2, r1, #29
     5b0:	22212f2f 	eorcs	r2, r1, #188	; 0xbc
     5b4:	2f302f2f 	svccs	0x00302f2f
     5b8:	2f232f2f 	svccs	0x00232f2f
     5bc:	2f232f2f 	svccs	0x00232f2f
     5c0:	302f2221 	eorcc	r2, pc, r1, lsr #4
     5c4:	2f2f2f30 	svccs	0x002f2f30
     5c8:	2f2f232f 	svccs	0x002f232f
     5cc:	2f2f216b 	svccs	0x002f216b
     5d0:	21660d03 	cmncs	r6, r3, lsl #26
     5d4:	2f2f2221 	svccs	0x002f2221
     5d8:	30312321 	eorscc	r2, r1, r1, lsr #6
     5dc:	23222121 	teqcs	r2, #1073741832	; 0x40000008
     5e0:	3122212f 	teqcc	r2, pc, lsr #2
     5e4:	22212130 	eorcs	r2, r1, #12
     5e8:	21216d2f 	teqcs	r1, pc, lsr #26
     5ec:	212f2f22 	teqcs	pc, r2, lsr #30
     5f0:	2f2f2f23 	svccs	0x002f2f23
     5f4:	212f232f 	teqcs	pc, pc, lsr #6
     5f8:	2f2f2f23 	svccs	0x002f2f23
     5fc:	0a032f2f 	beq	cc2c0 <BIT19+0x4c2c0>
     600:	21212166 	teqcs	r1, r6, ror #2
     604:	30212221 	eorcc	r2, r1, r1, lsr #4
     608:	31222121 	teqcc	r2, r1, lsr #2
     60c:	2122212f 	teqcs	r2, pc, lsr #2
     610:	232f4b22 	teqcs	pc, #34816	; 0x8800
     614:	6b2f2121 	blvs	bc8aa0 <BIT23+0x3c8aa0>
     618:	21212121 	teqcs	r1, r1, lsr #2
     61c:	21302122 	teqcs	r0, r2, lsr #2
     620:	304b2321 	subcc	r2, fp, r1, lsr #6
     624:	21232f2f 	teqcs	r3, pc, lsr #30
     628:	2f302121 	svccs	0x00302121
     62c:	660b032f 	strvs	r0, [fp], -pc, lsr #6
     630:	24212123 	strtcs	r2, [r1], #-291	; 0x123
     634:	23212321 	teqcs	r1, #-2080374784	; 0x84000000
     638:	236d2121 	cmncs	sp, #1073741832	; 0x40000008
     63c:	21242121 	teqcs	r4, r1, lsr #2
     640:	21232123 	teqcs	r3, r3, lsr #2
     644:	21236d21 	teqcs	r3, r1, lsr #26
     648:	23212421 	teqcs	r1, #553648128	; 0x21000000
     64c:	21212321 	teqcs	r1, r1, lsr #6
     650:	2121236d 	teqcs	r1, sp, ror #6
     654:	21232124 	teqcs	r3, r4, lsr #2
     658:	6c212123 	stfvss	f2, [r1], #-140	; 0xffffff74
     65c:	21222121 	teqcs	r2, r1, lsr #2
     660:	216b2f2f 	cmncs	fp, pc, lsr #30
     664:	22212121 	eorcs	r2, r1, #1073741832	; 0x40000008
     668:	2f2f4b21 	svccs	0x002f4b21
     66c:	2121226b 	teqcs	r1, fp, ror #4
     670:	22212122 	eorcs	r2, r1, #-2147483640	; 0x80000008
     674:	2f2f2122 	svccs	0x002f2122
     678:	2121226b 	teqcs	r1, fp, ror #4
     67c:	22222122 	eorcs	r2, r2, #-2147483640	; 0x80000008
     680:	232f2f21 	teqcs	pc, #132	; 0x84
     684:	2f2f2f21 	svccs	0x002f2f21
     688:	042f2f2f 	strteq	r2, [pc], #-3887	; 690 <Dictionary_80+0x2>
     68c:	76c50304 	strbvc	r0, [r5], r4, lsl #6
     690:	6b212fac 	blvs	84c548 <BIT23+0x4c548>
     694:	2f6b2121 	svccs	0x006b2121
     698:	21216b21 	teqcs	r1, r1, lsr #22
     69c:	21232f6d 	teqcs	r3, sp, ror #30
     6a0:	30222130 	eorcc	r2, r2, r0, lsr r1
     6a4:	217a2221 	cmncs	sl, r1, lsr #4
     6a8:	21212523 	teqcs	r1, r3, lsr #10
     6ac:	232f4b22 	teqcs	pc, #34816	; 0x8800
     6b0:	2121792f 	teqcs	r1, pc, lsr #18
     6b4:	2121792f 	teqcs	r1, pc, lsr #18
     6b8:	31222321 	teqcc	r2, r1, lsr #6
     6bc:	22212121 	eorcs	r2, r1, #1073741832	; 0x40000008
     6c0:	22212121 	eorcs	r2, r1, #1073741832	; 0x40000008
     6c4:	0323216b 	teqeq	r3, #-1073741798	; 0xc000001a
     6c8:	2130200a 	teqcs	r0, sl
     6cc:	242f2221 	strtcs	r2, [pc], #-545	; 6d4 <Dictionary_83>
     6d0:	2f792f4b 	svccs	0x00792f4b
     6d4:	30222321 	eorcc	r2, r2, r1, lsr #6
     6d8:	21302221 	teqcs	r0, r1, lsr #4
     6dc:	21217b22 	teqcs	r1, r2, lsr #22
     6e0:	21222121 	teqcs	r2, r1, lsr #2
     6e4:	6c2f2f2f 	stcvs	15, cr2, [pc], #-188	; 630 <dswap_allocator+0xc>
     6e8:	21212121 	teqcs	r1, r1, lsr #2
     6ec:	35212321 	strcc	r2, [r1, #-801]!	; 0x321
     6f0:	21222121 	teqcs	r2, r1, lsr #2
     6f4:	21212221 	teqcs	r1, r1, lsr #4
     6f8:	21212122 	teqcs	r1, r2, lsr #2
     6fc:	2121217a 	teqcs	r1, sl, ror r1
     700:	21232121 	teqcs	r3, r1, lsr #2
     704:	0a032f2f 	beq	cc3c8 <BIT19+0x4c3c8>
     708:	217c2f74 	cmncs	ip, r4, ror pc
     70c:	87212f21 	strhi	r2, [r1, -r1, lsr #30]!
     710:	2121212f 	teqcs	r1, pc, lsr #2
     714:	21216d21 	teqcs	r1, r1, lsr #26
     718:	2f2f2123 	svccs	0x002f2123
     71c:	21214c30 	teqcs	r1, r0, lsr ip
     720:	6b2f2f22 	blvs	bcc3b0 <BIT23+0x3cc3b0>
     724:	2123212f 	teqcs	r3, pc, lsr #2
     728:	222f2f2f 	eorcs	r2, pc, #188	; 0xbc
     72c:	2221214c 	eorcs	r2, r1, #19
     730:	212f6b2f 	teqcs	pc, pc, lsr #22
     734:	2f2f2121 	svccs	0x002f2121
     738:	21212179 	teqcs	r1, r9, ror r1
     73c:	792f4b2f 	stmdbvc	pc!, {r0, r1, r2, r3, r5, r8, r9, fp, lr}	; <UNPREDICTABLE>
     740:	03212121 	teqeq	r1, #1073741832	; 0x40000008
     744:	21217409 	teqcs	r1, r9, lsl #8
     748:	03212221 	teqeq	r1, #268435458	; 0x10000002
     74c:	21222015 	teqcs	r2, r5, lsl r0
     750:	21222121 	teqcs	r2, r1, lsr #2
     754:	03212322 	teqeq	r1, #-2013265920	; 0x88000000
     758:	21217409 	teqcs	r1, r9, lsl #8
     75c:	23272521 	teqcs	r7, #138412032	; 0x8400000
     760:	21212121 	teqcs	r1, r1, lsr #2
     764:	04212323 	strteq	r2, [r1], #-803	; 0x323
     768:	7cd30305 	ldclvc	3, cr0, [r3], {5}
     76c:	2221219e 	eorcs	r2, r1, #-2147483609	; 0x80000027
     770:	21216b4b 	teqcs	r1, fp, asr #22
     774:	6c4b2221 	sfmvs	f2, 2, [fp], {33}	; 0x21
     778:	4b232121 	blmi	8c8c04 <BIT23+0xc8c04>
     77c:	2321216c 	teqcs	r1, #27
     780:	21215d4b 	teqcs	r1, fp, asr #26
     784:	1d034b22 	vstrne	d4, [r3, #-136]	; 0xffffff78
     788:	21222f66 	teqcs	r2, r6, ror #30
     78c:	2f212f2f 	svccs	0x00212f2f
     790:	2f303021 	svccs	0x00303021
     794:	660c0330 			; <UNDEFINED> instruction: 0x660c0330
     798:	660d032f 	strvs	r0, [sp], -pc, lsr #6
     79c:	21892f21 	orrcs	r2, r9, r1, lsr #30
     7a0:	21232121 	teqcs	r3, r1, lsr #2
     7a4:	21304c4b 	teqcs	r0, fp, asr #24
     7a8:	21212121 	teqcs	r1, r1, lsr #2
     7ac:	21212188 	smlawbcs	r1, r8, r1, r2
     7b0:	4b4b2123 	blmi	12c8c44 <BIT24+0x2c8c44>
     7b4:	21212188 	smlawbcs	r1, r8, r1, r2
     7b8:	3e4b2123 	dvfccep	f2, f3, f3
     7bc:	22212130 	eorcs	r2, r1, #12
     7c0:	23232f21 	teqcs	r3, #132	; 0x84
     7c4:	21213021 	teqcs	r1, r1, lsr #32
     7c8:	22212321 	eorcs	r2, r1, #-2080374784	; 0x84000000
     7cc:	21212221 	teqcs	r1, r1, lsr #4
     7d0:	2f222f23 	svccs	0x00222f23
     7d4:	4b302123 	blmi	c08c68 <BIT23+0x408c68>
     7d8:	042f2121 	strteq	r2, [pc], #-289	; 7e0 <Code_97+0x6>
     7dc:	7e9e0306 	cdpvc	3, 9, cr0, cr14, cr6, {0}
     7e0:	252f2220 	strcs	r2, [pc, #-544]!	; 5c8 <Dictionary_71+0x4>
     7e4:	2e090323 	cdpcs	3, 0, cr0, cr9, cr3, {1}
     7e8:	34212121 	strtcc	r2, [r1], #-289	; 0x121
     7ec:	34212121 	strtcc	r2, [r1], #-289	; 0x121
     7f0:	22212131 	eorcs	r2, r1, #1073741836	; 0x4000000c
     7f4:	222f212f 	eorcs	r2, pc, #-1073741813	; 0xc000000b
     7f8:	2f252121 	svccs	0x00252121
     7fc:	21232121 	teqcs	r3, r1, lsr #2
     800:	24212121 	strtcs	r2, [r1], #-289	; 0x121
     804:	2321212f 	teqcs	r1, #-1073741813	; 0xc000000b
     808:	21222121 	teqcs	r2, r1, lsr #2
     80c:	21303026 	teqcs	r0, r6, lsr #32
     810:	30222124 	eorcc	r2, r2, r4, lsr #2
     814:	2225252f 	eorcs	r2, r5, #197132288	; 0xbc00000
     818:	30313122 	eorscc	r3, r1, r2, lsr #2
     81c:	30222f2f 	eorcc	r2, r2, pc, lsr #30
     820:	0307042f 	movweq	r0, #29743	; 0x742f
     824:	4a087efe 	bmi	220424 <BIT21+0x20424>
     828:	21232121 	teqcs	r3, r1, lsr #2
     82c:	21302f2f 	teqcs	r0, pc, lsr #30
     830:	21216b21 	teqcs	r1, r1, lsr #22
     834:	2f212321 	svccs	0x00212321
     838:	2121302f 	teqcs	r1, pc, lsr #32
     83c:	2123216b 	teqcs	r3, fp, ror #2
     840:	21304b30 	teqcs	r0, r0, lsr fp
     844:	21307c21 	teqcs	r0, r1, lsr #24
     848:	212f7921 	teqcs	pc, r1, lsr #18
     84c:	2121216b 	teqcs	r1, fp, ror #2
     850:	4b4b2221 	blmi	12c90dc <BIT24+0x2c90dc>
     854:	2121216b 	teqcs	r1, fp, ror #2
     858:	4b4b2221 	blmi	12c90e4 <BIT24+0x2c90e4>
     85c:	2121215e 	teqcs	r1, lr, asr r1
     860:	4b4b2221 	blmi	12c90ec <BIT24+0x2c90ec>
     864:	2121215e 	teqcs	r1, lr, asr r1
     868:	4b4b2221 	blmi	12c90f4 <BIT24+0x2c90f4>
     86c:	2121216b 	teqcs	r1, fp, ror #2
     870:	4b4b2221 	blmi	12c90fc <BIT24+0x2c90fc>
     874:	2121216b 	teqcs	r1, fp, ror #2
     878:	4b4b2221 	blmi	12c9104 <BIT24+0x2c9104>
     87c:	2121216b 	teqcs	r1, fp, ror #2
     880:	6b4b4b22 	blvs	12d3510 <BIT24+0x2d3510>
     884:	22212121 	eorcs	r2, r1, #1073741832	; 0x40000008
     888:	216c4b4b 	cmncs	ip, fp, asr #22
     88c:	22212121 	eorcs	r2, r1, #1073741832	; 0x40000008
     890:	215e2f4b 	cmpcs	lr, fp, asr #30
     894:	22212122 	eorcs	r2, r1, #-2147483640	; 0x80000008
     898:	217b2f4b 	cmncs	fp, fp, asr #30
     89c:	2f2f2f33 	svccs	0x002f2f33
     8a0:	03212630 	teqeq	r1, #50331648	; 0x3000000
     8a4:	2f2f2e0b 	svccs	0x002f2e0b
     8a8:	21212131 	teqcs	r1, r1, lsr r1
     8ac:	21243f2f 	teqcs	r4, pc, lsr #30
     8b0:	21212121 	teqcs	r1, r1, lsr #2
     8b4:	21214b22 	teqcs	r1, r2, lsr #22
     8b8:	212f2721 	teqcs	pc, r1, lsr #14
     8bc:	2121222f 	teqcs	r1, pc, lsr #4
     8c0:	21212f24 	teqcs	r1, r4, lsr #30
     8c4:	272f2f21 	strcs	r2, [pc, -r1, lsr #30]!
     8c8:	21244d31 	teqcs	r4, r1, lsr sp
     8cc:	322f3222 	eorcc	r3, pc, #536870914	; 0x20000002
     8d0:	22252121 	eorcs	r2, r5, #1073741832	; 0x40000008
     8d4:	22212121 	eorcs	r2, r1, #1073741832	; 0x40000008
     8d8:	2821212f 	stmdacs	r1!, {r0, r1, r2, r3, r5, r8, sp}
     8dc:	21222124 	teqcs	r2, r4, lsr #2
     8e0:	222f2f24 	eorcs	r2, pc, #144	; 0x90
     8e4:	2f212121 	svccs	0x00212121
     8e8:	21212123 	teqcs	r1, r3, lsr #2
     8ec:	22252f2f 	eorcs	r2, r5, #188	; 0xbc
     8f0:	302f4b30 	eorcc	r4, pc, r0, lsr fp	; <UNPREDICTABLE>
     8f4:	304b2f4b 	subcc	r2, fp, fp, asr #30
     8f8:	2f2f2123 	svccs	0x002f2123
     8fc:	2f212121 	svccs	0x00212121
     900:	21212223 	teqcs	r1, r3, lsr #4
     904:	6c2f2121 	stfvss	f2, [pc], #-132	; 888 <Code_105+0x1a>
     908:	21212121 	teqcs	r1, r1, lsr #2
     90c:	216c4b22 	cmncs	ip, r2, lsr #22
     910:	22212121 	eorcs	r2, r1, #1073741832	; 0x40000008
     914:	2121794b 	teqcs	r1, fp, asr #18
     918:	4b222121 	blmi	888da4 <BIT23+0x88da4>
     91c:	21212179 	teqcs	r1, r9, ror r1
     920:	214d2221 	cmpcs	sp, r1, lsr #4
     924:	21212130 	teqcs	r1, r0, lsr r1
     928:	242f2121 	strtcs	r2, [pc], #-289	; 930 <Dictionary_115+0x4>
     92c:	21332121 	teqcs	r3, r1, lsr #2
     930:	2f312121 	svccs	0x00312121
     934:	4b222332 	blmi	889604 <BIT23+0x89604>
     938:	2f2f2121 	svccs	0x002f2121
     93c:	3021214b 	eorcc	r2, r1, fp, asr #2
     940:	0308042f 	movweq	r0, #33839	; 0x842f
     944:	22c87c86 	sbccs	r7, r8, #34304	; 0x8600
     948:	2321322f 	teqcs	r1, #-268435454	; 0xf0000002
     94c:	21222121 	teqcs	r2, r1, lsr #2
     950:	21212123 	teqcs	r1, r3, lsr #2
     954:	21212321 	teqcs	r1, r1, lsr #6
     958:	22212121 	eorcs	r2, r1, #1073741832	; 0x40000008
     95c:	312f7c21 	teqcc	pc, r1, lsr #24
     960:	21212221 	teqcs	r1, r1, lsr #4
     964:	215e2122 	cmpcs	lr, r2, lsr #2
     968:	31214d23 	teqcc	r1, r3, lsr #26
     96c:	23212121 	teqcs	r1, #1073741832	; 0x40000008
     970:	22212121 	eorcs	r2, r1, #1073741832	; 0x40000008
     974:	21312221 	teqcs	r1, r1, lsr #4
     978:	2f213023 	svccs	0x00213023
     97c:	2121215e 	teqcs	r1, lr, asr r1
     980:	31214d23 	teqcc	r1, r3, lsr #26
     984:	23212121 	teqcs	r1, #1073741832	; 0x40000008
     988:	22212121 	eorcs	r2, r1, #1073741832	; 0x40000008
     98c:	232f2221 	teqcs	pc, #268435458	; 0x10000002
     990:	21212421 	teqcs	r1, r1, lsr #8
     994:	21302121 	teqcs	r0, r1, lsr #2
     998:	6c2f2f30 	stcvs	15, cr2, [pc], #-192	; 8e0 <Code_108+0x22>
     99c:	21212121 	teqcs	r1, r1, lsr #2
     9a0:	2f212221 	svccs	0x00212221
     9a4:	2f2f2f2f 	svccs	0x002f2f2f
     9a8:	11032f2f 	tstne	r3, pc, lsr #30
     9ac:	21232166 	teqcs	r3, r6, ror #2
     9b0:	21214d2f 	teqcs	r1, pc, lsr #26
     9b4:	21212321 	teqcs	r1, r1, lsr #6
     9b8:	22212221 	eorcs	r2, r1, #268435458	; 0x10000002
     9bc:	30232131 	eorcc	r2, r3, r1, lsr r1
     9c0:	216c2f21 	cmncs	ip, r1, lsr #30
     9c4:	21232121 	teqcs	r3, r1, lsr #2
     9c8:	21214d2f 	teqcs	r1, pc, lsr #26
     9cc:	21212321 	teqcs	r1, r1, lsr #6
     9d0:	22212221 	eorcs	r2, r1, #268435458	; 0x10000002
     9d4:	2421232f 	strtcs	r2, [r1], #-815	; 0x32f
     9d8:	21212121 	teqcs	r1, r1, lsr #2
     9dc:	2f302130 	svccs	0x00302130
     9e0:	21216d2f 	teqcs	r1, pc, lsr #26
     9e4:	22212121 	eorcs	r2, r1, #1073741832	; 0x40000008
     9e8:	2f2f2f21 	svccs	0x002f2f21
     9ec:	2f2f2f2f 	svccs	0x002f2f2f
     9f0:	2123216d 	teqcs	r3, sp, ror #2
     9f4:	21214d2f 	teqcs	r1, pc, lsr #26
     9f8:	21212321 	teqcs	r1, r1, lsr #6
     9fc:	22212221 	eorcs	r2, r1, #268435458	; 0x10000002
     a00:	30232131 	eorcc	r2, r3, r1, lsr r1
     a04:	216c2f21 	cmncs	ip, r1, lsr #30
     a08:	21232121 	teqcs	r3, r1, lsr #2
     a0c:	21214d2f 	teqcs	r1, pc, lsr #26
     a10:	21212321 	teqcs	r1, r1, lsr #6
     a14:	22212221 	eorcs	r2, r1, #268435458	; 0x10000002
     a18:	2421232f 	strtcs	r2, [r1], #-815	; 0x32f
     a1c:	21212121 	teqcs	r1, r1, lsr #2
     a20:	2f302130 	svccs	0x00302130
     a24:	21216c2f 	teqcs	r1, pc, lsr #24
     a28:	22212121 	eorcs	r2, r1, #1073741832	; 0x40000008
     a2c:	2f2f2f21 	svccs	0x002f2f21
     a30:	2f2f2f2f 	svccs	0x002f2f2f
     a34:	2121217c 	teqcs	r1, ip, ror r1
     a38:	21222121 	teqcs	r2, r1, lsr #2
     a3c:	2f2f2f2f 	svccs	0x002f2f2f
     a40:	2f2f2f4b 	svccs	0x002f2f4b
     a44:	2121217a 	teqcs	r1, sl, ror r1
     a48:	21222121 	teqcs	r2, r1, lsr #2
     a4c:	2f2f2f2f 	svccs	0x002f2f2f
     a50:	2f2f2f4b 	svccs	0x002f2f4b
     a54:	2121217a 	teqcs	r1, sl, ror r1
     a58:	21222121 	teqcs	r2, r1, lsr #2
     a5c:	2f2f2f2f 	svccs	0x002f2f2f
     a60:	2f2f2f4b 	svccs	0x002f2f4b
     a64:	2821217a 	stmdacs	r1!, {r1, r3, r4, r5, r6, r8, sp}
     a68:	21232f21 	teqcs	r3, r1, lsr #30
     a6c:	2f4b2f2f 	svccs	0x004b2f2f
     a70:	21217a2f 	teqcs	r1, pc, lsr #20
     a74:	22212121 	eorcs	r2, r1, #1073741832	; 0x40000008
     a78:	2f2f2f21 	svccs	0x002f2f21
     a7c:	2f2f4b2f 	svccs	0x002f4b2f
     a80:	21217a2f 	teqcs	r1, pc, lsr #20
     a84:	22212121 	eorcs	r2, r1, #1073741832	; 0x40000008
     a88:	2f2f2f21 	svccs	0x002f2f21
     a8c:	2f2f4b2f 	svccs	0x002f4b2f
     a90:	21217a2f 	teqcs	r1, pc, lsr #20
     a94:	22212121 	eorcs	r2, r1, #1073741832	; 0x40000008
     a98:	2f2f2f21 	svccs	0x002f2f21
     a9c:	2f2f4b2f 	svccs	0x002f4b2f
     aa0:	21217a2f 	teqcs	r1, pc, lsr #20
     aa4:	232f2128 	teqcs	pc, #10
     aa8:	4b2f2f21 	blmi	bcc734 <BIT23+0x3cc734>
     aac:	217a2f2f 	cmncs	sl, pc, lsr #30
     ab0:	21212121 	teqcs	r1, r1, lsr #2
     ab4:	2f2f2122 	svccs	0x002f2122
     ab8:	2f4b2f2f 	svccs	0x004b2f2f
     abc:	21792f2f 	cmncs	r9, pc, lsr #30
     ac0:	21212121 	teqcs	r1, r1, lsr #2
     ac4:	2f2f2122 	svccs	0x002f2122
     ac8:	2f4b2f2f 	svccs	0x004b2f2f
     acc:	217a2f2f 	cmncs	sl, pc, lsr #30
     ad0:	21212121 	teqcs	r1, r1, lsr #2
     ad4:	2f2f2122 	svccs	0x002f2122
     ad8:	2f4b2f2f 	svccs	0x004b2f2f
     adc:	217a2f2f 	cmncs	sl, pc, lsr #30
     ae0:	2f212821 	svccs	0x00212821
     ae4:	2f2f2123 	svccs	0x002f2123
     ae8:	042f2f4b 	strteq	r2, [pc], #-3915	; af0 <Code_151+0x4>
     aec:	7ae40309 	bvc	ff901718 <BIT31+0x7f901718>
     af0:	24b20820 	ldrtcs	r0, [r2], #2080	; 0x820
     af4:	08212121 	stmdaeq	r1!, {r0, r5, r8, sp}
     af8:	2221215a 	eorcs	r2, r1, #-2147483626	; 0x80000016
     afc:	21222121 	teqcs	r2, r1, lsr #2
     b00:	21212221 	teqcs	r1, r1, lsr #4
     b04:	21252126 	teqcs	r5, r6, lsr #2
     b08:	23212121 	teqcs	r1, #1073741832	; 0x40000008
     b0c:	21232121 	teqcs	r3, r1, lsr #2
     b10:	21222121 	teqcs	r2, r1, lsr #2
     b14:	23213023 	teqcs	r1, #35	; 0x23
     b18:	21212131 	teqcs	r1, r1, lsr r1
     b1c:	21212321 	teqcs	r1, r1, lsr #6
     b20:	21222121 	teqcs	r2, r1, lsr #2
     b24:	212122db 	ldrdcs	r2, [r1, -fp]!
     b28:	21222121 	teqcs	r2, r1, lsr #2
     b2c:	213121c2 	teqcs	r1, r2, asr #3
     b30:	21212221 	teqcs	r1, r1, lsr #4
     b34:	21232121 	teqcs	r3, r1, lsr #2
     b38:	21212821 	teqcs	r1, r1, lsr #16
     b3c:	21212121 	teqcs	r1, r1, lsr #2
     b40:	21212321 	teqcs	r1, r1, lsr #6
     b44:	21212123 	teqcs	r1, r3, lsr #2
     b48:	21212321 	teqcs	r1, r1, lsr #6
     b4c:	23212124 	teqcs	r1, #9
     b50:	21232121 	teqcs	r3, r1, lsr #2
     b54:	22212321 	eorcs	r2, r1, #-2080374784	; 0x84000000
     b58:	22020903 	andcs	r0, r2, #49152	; 0xc000
     b5c:	21212201 	teqcs	r1, r1, lsl #4
     b60:	21212122 	teqcs	r1, r2, lsr #2
     b64:	2fad2f3d 	svccs	0x00ad2f3d
     b68:	21212f91 			; <UNDEFINED> instruction: 0x21212f91
     b6c:	2fcebb21 	svccs	0x00cebb21
     b70:	9c030a04 	stcls	10, cr0, [r3], {4}
     b74:	2121e47e 	teqcs	r1, lr, ror r4
     b78:	21212122 	teqcs	r1, r2, lsr #2
     b7c:	00c00322 	sbceq	r0, r0, r2, lsr #6
     b80:	21322482 	teqcs	r2, r2, lsl #9
     b84:	21400821 	cmpcs	r0, r1, lsr #16
     b88:	18082221 	stmdane	r8, {r0, r5, r9, sp}
     b8c:	21222122 	teqcs	r2, r2, lsr #2
     b90:	21242122 	teqcs	r4, r2, lsr #2
     b94:	22212521 	eorcs	r2, r1, #138412032	; 0x8400000
     b98:	21242221 	teqcs	r4, r1, lsr #4
     b9c:	52082221 	andpl	r2, r8, #268435458	; 0x10000002
     ba0:	21212221 	teqcs	r1, r1, lsr #4
     ba4:	0a032121 	beq	c9030 <BIT19+0x49030>
     ba8:	21212120 	teqcs	r1, r0, lsr #2
     bac:	21212321 	teqcs	r1, r1, lsr #6
     bb0:	21252123 	teqcs	r5, r3, lsr #2
     bb4:	a5312f23 	ldrge	r2, [r1, #-3875]!	; 0xf23
     bb8:	21222122 	teqcs	r2, r2, lsr #2
     bbc:	302f2121 	eorcc	r2, pc, r1, lsr #2
     bc0:	25222121 	strcs	r2, [r2, #-289]!	; 0x121
     bc4:	212f212f 	teqcs	pc, pc, lsr #2
     bc8:	222f212f 	eorcs	r2, pc, #-1073741813	; 0xc000000b
     bcc:	2121212f 	teqcs	r1, pc, lsr #2
     bd0:	04212122 	strteq	r2, [r1], #-290	; 0x122
     bd4:	7e99030b 	cdpvc	3, 9, cr0, cr9, cr11, {0}
     bd8:	242121ba 	strtcs	r2, [r1], #-442	; 0x1ba
     bdc:	2f4c3021 	svccs	0x004c3021
     be0:	21214d22 	teqcs	r1, r2, lsr #26
     be4:	215e2f21 	cmpcs	lr, r1, lsr #30
     be8:	30212421 	eorcc	r2, r1, r1, lsr #8
     bec:	4e222f4c 	cdpmi	15, 2, cr2, cr2, cr12, {2}
     bf0:	21212136 	teqcs	r1, r6, lsr r1
     bf4:	23212121 	teqcs	r1, #1073741832	; 0x40000008
     bf8:	21213024 	teqcs	r1, r4, lsr #32
     bfc:	2f302121 	svccs	0x00302121
     c00:	222f3d26 	eorcs	r3, pc, #2432	; 0x980
     c04:	21232121 	teqcs	r3, r1, lsr #2
     c08:	31222222 	teqcc	r2, r2, lsr #4
     c0c:	2f302f30 	svccs	0x00302f30
     c10:	32262325 	eorcc	r2, r6, #-1811939328	; 0x94000000
     c14:	21242122 	teqcs	r4, r2, lsr #2
     c18:	21303124 	teqcs	r0, r4, lsr #2
     c1c:	23216d30 	teqcs	r1, #3072	; 0xc00
     c20:	22216c4b 	eorcs	r6, r1, #19200	; 0x4b00
     c24:	22216c4b 	eorcs	r6, r1, #19200	; 0x4b00
     c28:	22216c4b 	eorcs	r6, r1, #19200	; 0x4b00
     c2c:	2221794b 	eorcs	r7, r1, #1228800	; 0x12c000
     c30:	2321874b 	teqcs	r1, #19660800	; 0x12c0000
     c34:	212f214d 	teqcs	pc, sp, asr #2
     c38:	212f2121 	teqcs	pc, r1, lsr #2
     c3c:	23216b2f 	teqcs	r1, #48128	; 0xbc00
     c40:	22216b4b 	eorcs	r6, r1, #76800	; 0x12c00
     c44:	22216c4b 	eorcs	r6, r1, #19200	; 0x4b00
     c48:	3d22216b 	stfccs	f2, [r2, #-428]!	; 0xfffffe54
     c4c:	3d222179 	stfccs	f2, [r2, #-484]!	; 0xfffffe1c
     c50:	4b22216c 	blmi	889208 <BIT23+0x89208>
     c54:	2121216c 	teqcs	r1, ip, ror #2
     c58:	4b2f2122 	blmi	bc90e8 <BIT23+0x3c90e8>
     c5c:	30212121 	eorcc	r2, r1, r1, lsr #2
     c60:	032f304b 	teqeq	pc, #75	; 0x4b
     c64:	2121742c 	teqcs	r1, ip, lsr #8
     c68:	2121212f 	teqcs	r1, pc, lsr #2
     c6c:	743b0321 	ldrtvc	r0, [fp], #-801	; 0x321
     c70:	212f2121 	teqcs	pc, r1, lsr #2
     c74:	6d212121 	stfvss	f2, [r1, #-132]!	; 0xffffff7c
     c78:	03212f21 	teqeq	r1, #132	; 0x84
     c7c:	2f215810 	svccs	0x00215810
     c80:	2f2f2122 	svccs	0x002f2122
     c84:	21222f31 	teqcs	r2, r1, lsr pc
     c88:	30302122 	eorscc	r2, r0, r2, lsr #2
     c8c:	7b2f2f30 	blvc	bcc954 <BIT23+0x3cc954>
     c90:	03212121 	teqeq	r1, #1073741832	; 0x40000008
     c94:	212f7411 	teqcs	pc, r1, lsl r4	; <UNPREDICTABLE>
     c98:	212121a4 	teqcs	r1, r4, lsr #3
     c9c:	21212187 	smlawbcs	r1, r7, r1, r2
     ca0:	2121216b 	teqcs	r1, fp, ror #2
     ca4:	a6030c04 	strge	r0, [r3], -r4, lsl #24
     ca8:	2121907c 	teqcs	r1, ip, ror r0
     cac:	23212123 	teqcs	r1, #-1073741816	; 0xc0000008
     cb0:	21232121 	teqcs	r3, r1, lsr #2
     cb4:	21212321 	teqcs	r1, r1, lsr #6
     cb8:	23212123 	teqcs	r1, #-1073741816	; 0xc0000008
     cbc:	27222121 	strcs	r2, [r2, -r1, lsr #2]!
     cc0:	04212121 	strteq	r2, [r1], #-289	; 0x121
     cc4:	7fa9030d 	svcvc	0x00a9030d
     cc8:	b3212f90 	teqlt	r1, #576	; 0x240
     ccc:	2fc1212f 	svccs	0x00c1212f
     cd0:	212fb321 	teqcs	pc, r1, lsr #6
     cd4:	97212fc1 	strls	r2, [r1, -r1, asr #31]!
     cd8:	6c2f2121 	stfvss	f2, [pc], #-132	; c5c <Code_168+0x34>
     cdc:	792f2121 	stmdbvc	pc!, {r0, r5, r8, sp}	; <UNPREDICTABLE>
     ce0:	21792121 	cmncs	r9, r1, lsr #2
     ce4:	21217a21 	teqcs	r1, r1, lsr #20
     ce8:	0c042124 	stfeqs	f2, [r4], {36}	; 0x24
     cec:	229e0d03 	addscs	r0, lr, #192	; 0xc0
     cf0:	2221212f 	eorcs	r2, r1, #-1073741813	; 0xc000000b
     cf4:	a4222121 	strtge	r2, [r2], #-289	; 0x121
     cf8:	21212f22 	teqcs	r1, r2, lsr #30
     cfc:	22212f22 	eorcs	r2, r1, #136	; 0x88
     d00:	3d3021b2 	ldfccs	f2, [r0, #-712]!	; 0xfffffd38
     d04:	21212121 	teqcs	r1, r1, lsr #2
     d08:	21a42121 			; <UNDEFINED> instruction: 0x21a42121
     d0c:	21213d30 	teqcs	r1, r0, lsr sp
     d10:	21212121 	teqcs	r1, r1, lsr #2
     d14:	e2030e04 	and	r0, r3, #64	; 0x40
     d18:	0134027e 	teqeq	r4, lr, ror r2
     d1c:	21212121 	teqcs	r1, r1, lsr #2
     d20:	21212f21 	teqcs	r1, r1, lsr #30
     d24:	09038821 	stmdbeq	r3, {r0, r5, fp, pc}
     d28:	23212120 	teqcs	r1, #8
     d2c:	2221302f 	eorcs	r3, r1, #47	; 0x2f
     d30:	22212421 	eorcs	r2, r1, #553648128	; 0x21000000
     d34:	22212121 	eorcs	r2, r1, #1073741832	; 0x40000008
     d38:	22212221 	eorcs	r2, r1, #268435458	; 0x10000002
     d3c:	214a1903 	cmpcs	sl, r3, lsl #18
     d40:	21252124 	teqcs	r5, r4, lsr #2
     d44:	21212821 	teqcs	r1, r1, lsr #16
     d48:	21242421 	teqcs	r4, r1, lsr #8
     d4c:	212f3d22 	teqcs	pc, r2, lsr #26
     d50:	2f212321 	svccs	0x00212321
     d54:	6c212f6c 	stcvs	15, cr2, [r1], #-432	; 0xfffffe50
     d58:	2fdd212f 	svccs	0x00dd212f
     d5c:	c8090321 	stmdagt	r9, {r0, r5, r8, r9}
     d60:	21212121 	teqcs	r1, r1, lsr #2
     d64:	222f8821 	eorcs	r8, pc, #2162688	; 0x210000
     d68:	21212121 	teqcs	r1, r1, lsr #2
     d6c:	2121227a 	teqcs	r1, sl, ror r2
     d70:	3d2f2f22 	stccc	15, cr2, [pc, #-136]!	; cf0 <Code_172+0x34>
     d74:	0f04302f 	svceq	0x0004302f
     d78:	e47ee003 	ldrbt	lr, [lr], #-3
     d7c:	21212f22 	teqcs	r1, r2, lsr #30
     d80:	23212122 	teqcs	r1, #-2147483640	; 0x80000008
     d84:	21222124 	teqcs	r2, r4, lsr #2
     d88:	5a592321 	bpl	1649a14 <BIT24+0x649a14>
     d8c:	23212321 	teqcs	r1, #-2080374784	; 0x84000000
     d90:	216b2121 	cmncs	fp, r1, lsr #2
     d94:	7a3d6b3d 	bvc	f5ba90 <BIT23+0x75ba90>
     d98:	2121873d 	teqcs	r1, sp, lsr r7
     d9c:	22212f22 	eorcs	r2, r1, #136	; 0x88
     da0:	217a8821 	cmncs	sl, r1, lsr #16
     da4:	5d21212f 	stfpls	f2, [r1, #-188]!	; 0xffffff44
     da8:	213e5d3d 	teqcs	lr, sp, lsr sp
     dac:	226b2f2f 	rsbcs	r2, fp, #188	; 0xbc
     db0:	3d303d21 	ldccc	13, cr3, [r0, #-132]!	; 0xffffff7c
     db4:	22262f2f 	eorcs	r2, r6, #188	; 0xbc
     db8:	2421212f 	strtcs	r2, [r1], #-303	; 0x12f
     dbc:	27212121 	strcs	r2, [r1, -r1, lsr #2]!
     dc0:	216b2131 	cmncs	fp, r1, lsr r1
     dc4:	21212f26 	teqcs	r1, r6, lsr #30
     dc8:	21212124 	teqcs	r1, r4, lsr #2
     dcc:	216b3127 	cmncs	fp, r7, lsr #2
     dd0:	2f212f26 	svccs	0x00212f26
     dd4:	21212421 	teqcs	r1, r1, lsr #8
     dd8:	7b312721 	blvc	c4aa64 <BIT23+0x44aa64>
     ddc:	21212f21 	teqcs	r1, r1, lsr #30
     de0:	2122217a 	teqcs	r2, sl, ror r1
     de4:	212f2123 	teqcs	pc, r3, lsr #2
     de8:	2122212f 	teqcs	r2, pc, lsr #2
     dec:	22322f7a 	eorscs	r2, r2, #488	; 0x1e8
     df0:	2f222221 	svccs	0x00222221
     df4:	21213021 	teqcs	r1, r1, lsr #32
     df8:	03100422 	tsteq	r0, #570425344	; 0x22000000
     dfc:	21747dd5 	ldrsbcs	r7, [r4, #-213]!	; 0xffffff2b
     e00:	2122212f 	teqcs	r2, pc, lsr #2
     e04:	21222130 	teqcs	r2, r0, lsr r1
     e08:	21212121 	teqcs	r1, r1, lsr #2
     e0c:	22212f23 	eorcs	r2, r1, #140	; 0x8c
     e10:	21216c2f 	teqcs	r1, pc, lsr #24
     e14:	6c21216c 	stfvss	f2, [r1], #-432	; 0xfffffe50
     e18:	22212321 	eorcs	r2, r1, #-2080374784	; 0x84000000
     e1c:	22212123 	eorcs	r2, r1, #-1073741816	; 0xc0000008
     e20:	3d752221 	lfmcc	f2, 2, [r5, #-132]!	; 0xffffff7c
     e24:	21214d2f 	teqcs	r1, pc, lsr #26
     e28:	23222123 	teqcs	r2, #-1073741816	; 0xc0000008
     e2c:	213d2122 	teqcs	sp, r2, lsr #2
     e30:	23212122 	teqcs	r1, #-2147483640	; 0x80000008
     e34:	59223d67 	stmdbpl	r2!, {r0, r1, r2, r5, r6, r8, sl, fp, ip, sp}
     e38:	21742203 	cmncs	r4, r3, lsl #4
     e3c:	2f75313e 	svccs	0x0075313e
     e40:	212f6731 	teqcs	pc, r1, lsr r7	; <UNPREDICTABLE>
     e44:	212f6731 	teqcs	pc, r1, lsr r7	; <UNPREDICTABLE>
     e48:	2f216731 	svccs	0x00216731
     e4c:	2f67303d 	svccs	0x0067303d
     e50:	2f3e3021 	svccs	0x003e3021
     e54:	0421222f 	strteq	r2, [r1], #-559	; 0x22f
     e58:	7ef50311 	mrcvc	3, 7, r0, cr5, cr1, {0}
     e5c:	2123ba08 	teqcs	r3, r8, lsl #20
     e60:	272f2f22 	strcs	r2, [pc, -r2, lsr #30]!
     e64:	2f22212f 	svccs	0x0022212f
     e68:	22212121 	eorcs	r2, r1, #1073741832	; 0x40000008
     e6c:	2f2f2f2f 	svccs	0x002f2f2f
     e70:	22212f26 	eorcs	r2, r1, #152	; 0x98
     e74:	2121212f 	teqcs	r1, pc, lsr #2
     e78:	2f2f2122 	svccs	0x002f2122
     e7c:	21262f2f 	teqcs	r6, pc, lsr #30
     e80:	21212221 	teqcs	r1, r1, lsr #4
     e84:	21212221 	teqcs	r1, r1, lsr #4
     e88:	21212221 	teqcs	r1, r1, lsr #4
     e8c:	2f2f2221 	svccs	0x002f2221
     e90:	0a032f2f 	beq	ccb54 <BIT19+0x4cb54>
     e94:	23242120 	teqcs	r4, #8
     e98:	212f3121 	teqcs	pc, r1, lsr #2
     e9c:	24212321 	strtcs	r2, [r1], #-801	; 0x321
     ea0:	0f03212f 	svceq	0x0003212f
     ea4:	21282120 	teqcs	r8, r0, lsr #2
     ea8:	22212f35 	eorcs	r2, r1, #212	; 0xd4
     eac:	2f22212f 	svccs	0x0022212f
     eb0:	2f2f2221 	svccs	0x002f2221
     eb4:	2f302f26 	svccs	0x00302f26
     eb8:	2f22212f 	svccs	0x0022212f
     ebc:	2f22212f 	svccs	0x0022212f
     ec0:	2122212f 	teqcs	r2, pc, lsr #2
     ec4:	26222330 			; <UNDEFINED> instruction: 0x26222330
     ec8:	2f2f302f 	svccs	0x002f302f
     ecc:	2f2f2221 	svccs	0x002f2221
     ed0:	2f2f2221 	svccs	0x002f2221
     ed4:	2f2f2221 	svccs	0x002f2221
     ed8:	cf222321 	svcgt	0x00222321
     edc:	21252f22 	teqcs	r5, r2, lsr #30
     ee0:	2f212f22 	svccs	0x00212f22
     ee4:	21213023 	teqcs	r1, r3, lsr #32
     ee8:	21212f21 	teqcs	r1, r1, lsr #30
     eec:	3021242f 	eorcc	r2, r1, pc, lsr #8
     ef0:	2f212121 	svccs	0x00212121
     ef4:	222f2121 	eorcs	r2, pc, #1073741832	; 0x40000008
     ef8:	2f229722 	svccs	0x00229722
     efc:	2f343223 	svccs	0x00343223
     f00:	0330222f 	teqeq	r0, #-268435454	; 0xf0000002
     f04:	2221200e 	eorcs	r2, r1, #14
     f08:	302f212f 	eorcc	r2, pc, pc, lsr #2
     f0c:	21200b03 	teqcs	r0, r3, lsl #22
     f10:	4b313d22 	blmi	c503a0 <BIT23+0x4503a0>
     f14:	740c032f 	strvc	r0, [ip], #-815	; 0x32f
     f18:	302f2321 	eorcc	r2, pc, r1, lsr #6
     f1c:	212f2821 	teqcs	pc, r1, lsr #16
     f20:	212f2221 	teqcs	pc, r1, lsr #4
     f24:	27262f21 	strcs	r2, [r6, -r1, lsr #30]!
     f28:	212f3021 	teqcs	pc, r1, lsr #32
     f2c:	212f2222 	teqcs	pc, r2, lsr #4
     f30:	2f222221 	svccs	0x00222221
     f34:	303d2321 	eorscc	r2, sp, r1, lsr #6
     f38:	2f4b2296 	svccs	0x004b2296
     f3c:	303d304b 	eorscc	r3, sp, fp, asr #32
     f40:	32342187 	eorscc	r2, r4, #-1073741791	; 0xc0000021
     f44:	03302f26 	teqeq	r0, #152	; 0x98
     f48:	2632740d 	ldrtcs	r7, [r2], -sp, lsl #8
     f4c:	1403322f 	strne	r3, [r3], #-559	; 0x22f
     f50:	2f362f20 	svccs	0x00362f20
     f54:	2f252f22 	svccs	0x00252f22
     f58:	21212221 	teqcs	r1, r1, lsr #4
     f5c:	26212121 	strtcs	r2, [r1], -r1, lsr #2
     f60:	23212121 	teqcs	r1, #1073741832	; 0x40000008
     f64:	222f2124 	eorcs	r2, pc, #9
     f68:	8209032f 	andhi	r0, r9, #-1140850688	; 0xbc000000
     f6c:	222f3421 	eorcs	r3, pc, #553648128	; 0x21000000
     f70:	2f25212f 	svccs	0x0025212f
     f74:	21212121 	teqcs	r1, r1, lsr #2
     f78:	262f3d21 	strtcs	r3, [pc], -r1, lsr #26
     f7c:	2121212f 	teqcs	r1, pc, lsr #2
     f80:	4b313d21 	blmi	c5040c <BIT23+0x45040c>
     f84:	042f3d30 	strteq	r3, [pc], #-3376	; f8c <Code_209+0x4>
     f88:	7b800312 	blvc	fe001bd8 <BIT31+0x7e001bd8>
     f8c:	2f215e66 	svccs	0x00215e66
     f90:	22962f2f 	addscs	r2, r6, #188	; 0xbc
     f94:	2f3d3d34 	svccs	0x003d3d34
     f98:	2f212f2f 	svccs	0x00212f2f
     f9c:	03821d03 	orreq	r1, r2, #192	; 0xc0
     fa0:	2f2f2010 	svccs	0x002f2010
     fa4:	21212131 	teqcs	r1, r1, lsr r1
     fa8:	22212121 	eorcs	r2, r1, #1073741832	; 0x40000008
     fac:	2221303d 	eorcs	r3, r1, #61	; 0x3d
     fb0:	2f262821 	svccs	0x00262821
     fb4:	21222132 	teqcs	r2, r2, lsr r1
     fb8:	21222121 	teqcs	r2, r1, lsr #2
     fbc:	037a4b7c 	cmneq	sl, #126976	; 0x1f000
     fc0:	212f8209 	teqcs	pc, r9, lsl #4
     fc4:	212f7a21 	teqcs	pc, r1, lsr #20
     fc8:	2121217a 	teqcs	r1, sl, ror r1
     fcc:	21215d21 	teqcs	r1, r1, lsr #26
     fd0:	21225d21 	teqcs	r2, r1, lsr #26
     fd4:	21213322 	teqcs	r1, r2, lsr #6
     fd8:	03212123 	teqeq	r1, #-1073741816	; 0xc0000008
     fdc:	0903200e 	stmdbeq	r3, {r1, r2, r3, sp}
     fe0:	21212258 	teqcs	r1, r8, asr r2
     fe4:	21eb2121 	mvncs	r2, r1, lsr #2
     fe8:	21212121 	teqcs	r1, r1, lsr #2
     fec:	4b2f4b21 	blmi	bd3c78 <BIT23+0x3d3c78>
     ff0:	4b242f34 	blmi	90ccc8 <BIT23+0x10ccc8>
     ff4:	21213030 	teqcs	r1, r0, lsr r0
     ff8:	952f8822 	strls	r8, [pc, #-2082]!	; 7de <Code_97+0x4>
     ffc:	a33d883d 	teqge	sp, #3997696	; 0x3d0000
    1000:	a33da43d 	teqge	sp, #1023410176	; 0x3d000000
    1004:	a33da33d 	teqge	sp, #-201326592	; 0xf4000000
    1008:	a33da33d 	teqge	sp, #-201326592	; 0xf4000000
    100c:	a33da33d 	teqge	sp, #-201326592	; 0xf4000000
    1010:	2f21953d 	svccs	0x0021953d
    1014:	2f2f4b2f 	svccs	0x002f4b2f
    1018:	2f21952f 	svccs	0x0021952f
    101c:	13042f3d 	movwne	r2, #20285	; 0x4f3d
    1020:	827d9403 	rsbshi	r9, sp, #50331648	; 0x3000000
    1024:	21222122 	teqcs	r2, r2, lsr #2
    1028:	200e0321 	andcs	r0, lr, r1, lsr #6
    102c:	21212121 	teqcs	r1, r1, lsr #2
    1030:	31212f22 	teqcc	r1, r2, lsr #30
    1034:	21213231 	teqcs	r1, r1, lsr r2
    1038:	2421213e 	strtcs	r2, [r1], #-318	; 0x13e
    103c:	2f212221 	svccs	0x00212221
    1040:	31200b03 	teqcc	r0, r3, lsl #22
    1044:	2e0a0325 	cdpcs	3, 0, cr0, cr10, cr5, {1}
    1048:	2123973f 	teqcs	r3, pc, lsr r7
    104c:	24212122 	strtcs	r2, [r1], #-290	; 0x122
    1050:	21212121 	teqcs	r1, r1, lsr #2
    1054:	21302721 	teqcs	r0, r1, lsr #14
    1058:	21212221 	teqcs	r1, r1, lsr #4
    105c:	21212122 	teqcs	r1, r2, lsr #2
    1060:	2b022123 	blcs	894f4 <BIT19+0x94f4>
    1064:	22212119 	eorcs	r2, r1, #1073741830	; 0x40000006
    1068:	03212121 	teqeq	r1, #1073741832	; 0x40000008
    106c:	2126741d 	teqcs	r6, sp, lsl r4
    1070:	03222122 	teqeq	r2, #-2147483640	; 0x80000008
    1074:	323d200b 	eorscc	r2, sp, #11
    1078:	22212298 	eorcs	r2, r1, #-2147483639	; 0x80000009
    107c:	3d222121 	stfccs	f2, [r2, #-132]!	; 0xffffff7c
    1080:	2403222f 	strcs	r2, [r3], #-559	; 0x22f
    1084:	21272166 	teqcs	r7, r6, ror #2
    1088:	21212121 	teqcs	r1, r1, lsr #2
    108c:	22212421 	eorcs	r2, r1, #553648128	; 0x21000000
    1090:	3d232121 	stfccs	f2, [r3, #-132]!	; 0xffffff7c
    1094:	232f2330 	teqcs	pc, #-1073741824	; 0xc0000000
    1098:	215f303d 	cmpcs	pc, sp, lsr r0	; <UNPREDICTABLE>
    109c:	2f21302f 	svccs	0x0021302f
    10a0:	212f216d 	teqcs	pc, sp, ror #2
    10a4:	288a2f30 	stmcs	sl, {r4, r5, r8, r9, sl, fp, sp}
    10a8:	30212121 	eorcc	r2, r1, r1, lsr #2
    10ac:	2f3d2221 	svccs	0x003d2221
    10b0:	21212f23 	teqcs	r1, r3, lsr #30
    10b4:	22212f21 	eorcs	r2, r1, #132	; 0x84
    10b8:	212f2221 	teqcs	pc, r1, lsr #4
    10bc:	2f212121 	svccs	0x00212121
    10c0:	21232121 	teqcs	r3, r1, lsr #2
    10c4:	212f2321 	teqcs	pc, r1, lsr #6
    10c8:	22217b2f 	eorcs	r7, r1, #48128	; 0xbc00
    10cc:	2f232121 	svccs	0x00232121
    10d0:	21212222 	teqcs	r1, r2, lsr #4
    10d4:	21232fa2 	teqcs	r3, r2, lsr #31
    10d8:	93212122 	teqls	r1, #-2147483640	; 0x80000008
    10dc:	ac0a0321 	stcge	3, cr0, [sl], {33}	; 0x21
    10e0:	2122213f 	teqcs	r2, pc, lsr r1
    10e4:	b2212121 	eorlt	r2, r1, #1073741832	; 0x40000008
    10e8:	21212221 	teqcs	r1, r1, lsr #4
    10ec:	2221c021 	eorcs	ip, r1, #33	; 0x21
    10f0:	24212121 	strtcs	r2, [r1], #-289	; 0x121
    10f4:	21212121 	teqcs	r1, r1, lsr #2
    10f8:	21212221 	teqcs	r1, r1, lsr #4
    10fc:	28212121 	stmdacs	r1!, {r0, r5, r8, sp}
    1100:	21212121 	teqcs	r1, r1, lsr #2
    1104:	223d0821 	eorscs	r0, sp, #2162688	; 0x210000
    1108:	74080c03 	strvc	r0, [r8], #-3075	; 0xc03
    110c:	22213121 	eorcs	r3, r1, #1073741832	; 0x40000008
    1110:	24305ae8 	ldrtcs	r5, [r0], #-2792	; 0xae8
    1114:	59212221 	stmdbpl	r1!, {r0, r5, r9, sp}
    1118:	36522f75 	usub16cc	r2, r2, r5
    111c:	21212221 	teqcs	r1, r1, lsr #4
    1120:	23222826 	teqcs	r2, #2490368	; 0x260000
    1124:	31303d2f 	teqcc	r0, pc, lsr #26
    1128:	352f303d 	strcc	r3, [pc, #-61]!	; 10f3 <Code_226+0x13>
    112c:	21222221 	teqcs	r2, r1, lsr #4
    1130:	21212621 	teqcs	r1, r1, lsr #12
    1134:	242f2f21 	strtcs	r2, [pc], #-3873	; 113c <Code_232+0x4>
    1138:	34272221 	strtcc	r2, [r7], #-545	; 0x221
    113c:	31212f21 	teqcc	r1, r1, lsr #30
    1140:	2131212f 	teqcs	r1, pc, lsr #2
    1144:	2132232f 	teqcs	r2, pc, lsr #6
    1148:	96232121 	strtls	r2, [r3], -r1, lsr #2
    114c:	973d953d 			; <UNDEFINED> instruction: 0x973d953d
    1150:	22213021 	eorcs	r3, r1, #33	; 0x21
    1154:	13032121 	movwne	r2, #12577	; 0x3121
    1158:	22242120 	eorcs	r2, r4, #8
    115c:	21212121 	teqcs	r1, r1, lsr #2
    1160:	23bb2121 			; <UNDEFINED> instruction: 0x23bb2121
    1164:	344b2f3d 	strbcc	r2, [fp], #-3901	; 0xf3d
    1168:	2221212f 	eorcs	r2, r1, #-1073741813	; 0xc000000b
    116c:	212f2121 	teqcs	pc, r1, lsr #2
    1170:	2f213d24 	svccs	0x00213d24
    1174:	2019032f 	andscs	r0, r9, pc, lsr #6
    1178:	2121212f 	teqcs	r1, pc, lsr #2
    117c:	2f313d21 	svccs	0x00313d21
    1180:	212f2f21 	teqcs	pc, r1, lsr #30
    1184:	2f324b2f 	svccs	0x00324b2f
    1188:	212f2221 	teqcs	pc, r1, lsr #4
    118c:	8a2f2f24 	bhi	bcce24 <BIT23+0x3cce24>
    1190:	21213121 	teqcs	r1, r1, lsr #2
    1194:	22212122 	eorcs	r2, r1, #-2147483640	; 0x80000008
    1198:	21212221 	teqcs	r1, r1, lsr #4
    119c:	21212127 	teqcs	r1, r7, lsr #2
    11a0:	bb212121 	bllt	84962c <BIT23+0x4962c>
    11a4:	4b2f3d23 	blmi	bd0638 <BIT23+0x3d0638>
    11a8:	2f4b3131 	svccs	0x004b3131
    11ac:	212f282f 	teqcs	pc, pc, lsr #16
    11b0:	3d212121 	stfccs	f2, [r1, #-132]!	; 0xffffff7c
    11b4:	2f212f31 	svccs	0x00212f31
    11b8:	4b2f212f 	blmi	bc967c <BIT23+0x3c967c>
    11bc:	2f2f3030 	svccs	0x002f3030
    11c0:	f2081003 	vhadd.s8	d1, d8, d3
    11c4:	2f212221 	svccs	0x00212221
    11c8:	22212121 	eorcs	r2, r1, #1073741832	; 0x40000008
    11cc:	20032121 	andcs	r2, r3, r1, lsr #2
    11d0:	212121ba 			; <UNDEFINED> instruction: 0x212121ba
    11d4:	21212121 	teqcs	r1, r1, lsr #2
    11d8:	223d2121 	eorscs	r2, sp, #1073741832	; 0x40000008
    11dc:	0321212f 	teqeq	r1, #-1073741813	; 0xc000000b
    11e0:	22219e0c 	eorcs	r9, r1, #192	; 0xc0
    11e4:	21212221 	teqcs	r1, r1, lsr #4
    11e8:	22212225 	eorcs	r2, r1, #1342177282	; 0x50000002
    11ec:	21212221 	teqcs	r1, r1, lsr #4
    11f0:	0d037a21 	vstreq	s14, [r3, #-132]	; 0xffffff7c
    11f4:	2f222120 	svccs	0x00222120
    11f8:	21213130 	teqcs	r1, r0, lsr r1
    11fc:	212f2321 	teqcs	pc, r1, lsr #6
    1200:	303d3d30 	eorscc	r3, sp, r0, lsr sp
    1204:	21242121 	teqcs	r4, r1, lsr #2
    1208:	21232130 	teqcs	r3, r0, lsr r1
    120c:	2f2f2521 	svccs	0x002f2521
    1210:	253e2125 	ldrcs	r2, [lr, #-293]!	; 0x125
    1214:	2f222122 	svccs	0x00222122
    1218:	2f212121 	svccs	0x00212121
    121c:	be031404 	cdplt	4, 0, cr1, cr3, cr4, {0}
    1220:	2f2e0877 	svccs	0x002e0877
    1224:	21282132 	teqcs	r8, r2, lsr r1
    1228:	21222121 	teqcs	r2, r1, lsr #2
    122c:	21b02321 	lsrscs	r2, r1, #6
    1230:	21212221 	teqcs	r1, r1, lsr #4
    1234:	22212423 	eorcs	r2, r1, #587202560	; 0x23000000
    1238:	7b212f21 	blvc	84cec4 <BIT23+0x4cec4>
    123c:	2821302f 	stmdacs	r1!, {r0, r1, r2, r3, r5, ip, sp}
    1240:	22212121 	eorcs	r2, r1, #1073741832	; 0x40000008
    1244:	21242121 	teqcs	r4, r1, lsr #2
    1248:	3d302621 	ldccc	6, cr2, [r0, #-132]!	; 0xffffff7c
    124c:	21212f7a 	teqcs	r1, sl, ror pc
    1250:	21212fb1 			; <UNDEFINED> instruction: 0x21212fb1
    1254:	2f4b2128 	svccs	0x004b2128
    1258:	23232f4b 	teqcs	r3, #300	; 0x12c
    125c:	4b3d2f21 	blmi	f4cee8 <BIT23+0x74cee8>
    1260:	2f21232f 	svccs	0x0021232f
    1264:	232f4b3d 	teqcs	pc, #62464	; 0xf400
    1268:	3d2f2f21 	stccc	15, cr2, [pc, #-132]!	; 11ec <xor_allocator+0x4>
    126c:	21232f4b 	teqcs	r3, fp, asr #30
    1270:	242f3d2f 	strtcs	r3, [pc], #-3375	; 1278 <Code_256+0xa>
    1274:	3d2f2f21 	stccc	15, cr2, [pc, #-132]!	; 11f8 <Dictionary_249+0x6>
    1278:	2f21232f 	svccs	0x0021232f
    127c:	21242f3d 	teqcs	r4, sp, lsr pc
    1280:	21232f2f 	teqcs	r3, pc, lsr #30
    1284:	232f4b2f 	teqcs	pc, #48128	; 0xbc00
    1288:	2f4b2f21 	svccs	0x004b2f21
    128c:	2f302726 	svccs	0x00302726
    1290:	2121302f 	teqcs	r1, pc, lsr #32
    1294:	4b322f21 	blmi	c8cf20 <BIT23+0x48cf20>
    1298:	30302121 	eorscc	r2, r0, r1, lsr #2
    129c:	2f216e30 	svccs	0x00216e30
    12a0:	22233d4b 	eorcs	r3, r3, #4800	; 0x12c0
    12a4:	21213030 	teqcs	r1, r0, lsr r0
    12a8:	2f312122 	svccs	0x00312122
    12ac:	222f303d 	eorcs	r3, pc, #61	; 0x3d
    12b0:	2f2f233d 	svccs	0x002f233d
    12b4:	3d4c303d 	stclcc	0, cr3, [ip, #-244]	; 0xffffff0c
    12b8:	2121217c 	teqcs	r1, ip, ror r1
    12bc:	2f303023 	svccs	0x00303023
    12c0:	7b3e313d 	blvc	f8d7bc <BIT23+0x78d7bc>
    12c4:	22212121 	eorcs	r2, r1, #1073741832	; 0x40000008
    12c8:	21222121 	teqcs	r2, r1, lsr #2
    12cc:	232f3d2f 	teqcs	pc, #3008	; 0xbc0
    12d0:	66080c03 	strvs	r0, [r8], -r3, lsl #24
    12d4:	24222121 	strtcs	r2, [r2], #-289	; 0x121
    12d8:	3d2f3232 	sfmcc	f3, 4, [pc, #-200]!	; 1218 <Code_252+0x4>
    12dc:	740b0330 	strvc	r0, [fp], #-816	; 0x330
    12e0:	21222121 	teqcs	r2, r1, lsr #2
    12e4:	21222230 	teqcs	r2, r0, lsr r2
    12e8:	30212321 	eorcc	r2, r1, r1, lsr #6
    12ec:	21217a22 	teqcs	r1, r2, lsr #20
    12f0:	21222121 	teqcs	r2, r1, lsr #2
    12f4:	30212221 	eorcc	r2, r1, r1, lsr #4
    12f8:	22222121 	eorcs	r2, r2, #1073741832	; 0x40000008
    12fc:	2f3e3031 	svccs	0x003e3031
    1300:	2f222f22 	svccs	0x00222f22
    1304:	2f4b3d2f 	svccs	0x004b3d2f
    1308:	2121217a 	teqcs	r1, sl, ror r1
    130c:	3d2f217a 	stfccs	f2, [pc, #-488]!	; 112c <Dictionary_232>
    1310:	c3031504 	movwgt	r1, #13572	; 0x3504
    1314:	2f2e087c 	svccs	0x002e087c
    1318:	5e4b2221 	cdppl	2, 4, cr2, cr11, cr1, {1}
    131c:	4c24212f 	stfmis	f2, [r4], #-188	; 0xffffff44
    1320:	212f2f21 	teqcs	pc, r1, lsr #30
    1324:	5e2f2121 	sufplep	f2, f7, f1
    1328:	4b21223d 	blmi	849c24 <BIT23+0x49c24>
    132c:	21212f2f 	teqcs	r1, pc, lsr #30
    1330:	7428032f 	strtvc	r0, [r8], #-815	; 0x32f
    1334:	21200a03 	teqcs	r0, r3, lsl #20
    1338:	21232122 	teqcs	r3, r2, lsr #2
    133c:	21212321 	teqcs	r1, r1, lsr #6
    1340:	222f2126 	eorcs	r2, pc, #-2147483639	; 0x80000009
    1344:	23232131 	teqcs	r3, #1073741836	; 0x4000000c
    1348:	22212221 	eorcs	r2, r1, #268435458	; 0x10000002
    134c:	0d032189 	stfeqs	f2, [r3, #-548]	; 0xfffffddc
    1350:	21212174 	teqcs	r1, r4, ror r1
    1354:	212f2122 	teqcs	pc, r2, lsr #2
    1358:	1103312f 	tstne	r3, pc, lsr #2
    135c:	22222f20 	eorcs	r2, r2, #128	; 0x80
    1360:	032f2122 	teqeq	pc, #-2147483640	; 0x80000008
    1364:	2121740b 	teqcs	r1, fp, lsl #8
    1368:	2f212221 	svccs	0x00212221
    136c:	30312f21 	eorscc	r2, r1, r1, lsr #30
    1370:	2f222f21 	svccs	0x00222f21
    1374:	21232f21 	teqcs	r3, r1, lsr #30
    1378:	660a0321 	strvs	r0, [sl], -r1, lsr #6
    137c:	31212f22 	teqcc	r1, r2, lsr #30
    1380:	3d3d2121 	ldfccs	f2, [sp, #-132]!	; 0xffffff7c
    1384:	243f2f22 	ldrtcs	r2, [pc], #-3874	; 138c <alloc_logic_gemeinsam+0x2e>
    1388:	21232f21 	teqcs	r3, r1, lsr #30
    138c:	0d032f2f 	stceq	15, cr2, [r3, #-188]	; 0xffffff44
    1390:	212f2166 	teqcs	pc, r6, ror #2
    1394:	21304b31 	teqcs	r0, r1, lsr fp
    1398:	232f4021 	teqcs	pc, #33	; 0x21
    139c:	2f22213d 	svccs	0x0022213d
    13a0:	2f21243d 	svccs	0x0021243d
    13a4:	302f2126 	eorcc	r2, pc, r6, lsr #2
    13a8:	4b302f2f 	blmi	c0d06c <BIT23+0x40d06c>
    13ac:	22212130 	eorcs	r2, r1, #12
    13b0:	2f21214b 	svccs	0x0021214b
    13b4:	3d212f22 	stccc	15, cr2, [r1, #-136]!	; 0xffffff78
    13b8:	22212133 	eorcs	r2, r1, #-1073741812	; 0xc000000c
    13bc:	2f21214b 	svccs	0x0021214b
    13c0:	3d212f22 	stccc	15, cr2, [r1, #-136]!	; 0xffffff78
    13c4:	32302f31 	eorscc	r2, r0, #196	; 0xc4
    13c8:	8d031604 	stchi	6, cr1, [r3, #-16]
    13cc:	2120087d 	teqcs	r0, sp, ror r8
    13d0:	033d3d2f 	teqeq	sp, #3008	; 0xbc0
    13d4:	2321660c 	teqcs	r1, #12582912	; 0xc00000
    13d8:	6c222121 	stfvss	f2, [r2], #-132	; 0xffffff7c
    13dc:	21212123 	teqcs	r1, r3, lsr #2
    13e0:	333d2222 	teqcc	sp, #536870914	; 0x20000002
    13e4:	3e223d2f 	cdpcc	13, 2, cr3, cr2, cr15, {1}
    13e8:	2124304b 	teqcs	r4, fp, asr #32
    13ec:	23222121 	teqcs	r2, #1073741832	; 0x40000008
    13f0:	332f2f30 	teqcc	pc, #192	; 0xc0
    13f4:	21232f4b 	teqcs	r3, fp, asr #30
    13f8:	21212321 	teqcs	r1, r1, lsr #6
    13fc:	214b2122 	cmpcs	fp, r2, lsr #2
    1400:	2f282121 	svccs	0x00282121
    1404:	21222f21 	teqcs	r2, r1, lsr #30
    1408:	22212621 	eorcs	r2, r1, #34603008	; 0x2100000
    140c:	2f262f2f 	svccs	0x00262f2f
    1410:	30222123 	eorcc	r2, r2, r3, lsr #2
    1414:	2f24302f 	svccs	0x0024302f
    1418:	74150321 	ldrvc	r0, [r5], #-801	; 0x321
    141c:	22212121 	eorcs	r2, r1, #1073741832	; 0x40000008
    1420:	3d2f3021 	stccc	0, cr3, [pc, #-132]!	; 13a4 <alloc_logic_gemeinsam+0x46>
    1424:	893d3d30 	ldmdbhi	sp!, {r4, r5, r8, sl, fp, ip, sp}
    1428:	22212121 	eorcs	r2, r1, #1073741832	; 0x40000008
    142c:	2f304b21 	svccs	0x00304b21
    1430:	21302326 	teqcs	r0, r6, lsr #6
    1434:	22212122 	eorcs	r2, r1, #-2147483640	; 0x80000008
    1438:	2f212121 	svccs	0x00212121
    143c:	21223022 	teqcs	r2, r2, lsr #32
    1440:	03170422 	tsteq	r7, #570425344	; 0x22000000
    1444:	2f747e9b 	svccs	0x00747e9b
    1448:	2f237a21 	svccs	0x00237a21
    144c:	2221302f 	eorcs	r3, r1, #47	; 0x2f
    1450:	21222123 	teqcs	r2, r3, lsr #2
    1454:	21212121 	teqcs	r1, r1, lsr #2
    1458:	21232121 	teqcs	r3, r1, lsr #2
    145c:	21212121 	teqcs	r1, r1, lsr #2
    1460:	21212122 	teqcs	r1, r2, lsr #2
    1464:	21232123 	teqcs	r3, r3, lsr #2
    1468:	04222123 	strteq	r2, [r2], #-291	; 0x123
    146c:	f24c0318 	vcge.s8	d16, d12, d8
    1470:	22212321 	eorcs	r2, r1, #-2080374784	; 0x84000000
    1474:	21212621 	teqcs	r1, r1, lsr #12
    1478:	21252123 	teqcs	r5, r3, lsr #2
    147c:	03212321 	teqeq	r1, #-2080374784	; 0x84000000
    1480:	26212009 	strtcs	r2, [r1], -r9
    1484:	212f2221 	teqcs	pc, r1, lsr #4
    1488:	821c0321 	andshi	r0, ip, #-2080374784	; 0x84000000
    148c:	22222f22 	eorcs	r2, r2, #136	; 0x88
    1490:	22212221 	eorcs	r2, r1, #268435458	; 0x10000002
    1494:	23212621 	teqcs	r1, #34603008	; 0x2100000
    1498:	21232121 	teqcs	r3, r1, lsr #2
    149c:	21212121 	teqcs	r1, r1, lsr #2
    14a0:	21212221 	teqcs	r1, r1, lsr #4
    14a4:	21212221 	teqcs	r1, r1, lsr #4
    14a8:	21212221 	teqcs	r1, r1, lsr #4
    14ac:	21212221 	teqcs	r1, r1, lsr #4
    14b0:	24212221 	strtcs	r2, [r1], #-545	; 0x221
    14b4:	21212f3d 	teqcs	r1, sp, lsr pc
    14b8:	3d3d3d25 	ldccc	13, cr3, [sp, #-148]!	; 0xffffff6c
    14bc:	222f213e 	eorcs	r2, pc, #-2147483633	; 0x8000000f
    14c0:	2121302f 	teqcs	r1, pc, lsr #32
    14c4:	21252221 	teqcs	r5, r1, lsr #4
    14c8:	21212321 	teqcs	r1, r1, lsr #6
    14cc:	21222121 	teqcs	r2, r1, lsr #2
    14d0:	3d212121 	stfccs	f2, [r1, #-132]!	; 0xffffff7c
    14d4:	2121243e 	teqcs	r1, lr, lsr r4
    14d8:	23212125 	teqcs	r1, #1073741833	; 0x40000009
    14dc:	22212321 	eorcs	r2, r1, #-2080374784	; 0x84000000
    14e0:	2f3d2421 	svccs	0x003d2421
    14e4:	21242121 	teqcs	r4, r1, lsr #2
    14e8:	2f213f21 	svccs	0x00213f21
    14ec:	03222f21 	teqeq	r2, #132	; 0x84
    14f0:	2121820f 	teqcs	r1, pc, lsl #4
    14f4:	21212221 	teqcs	r1, r1, lsr #4
    14f8:	03212221 	teqeq	r1, #268435458	; 0x10000002
    14fc:	21307413 	teqcs	r0, r3, lsl r4
    1500:	21232122 	teqcs	r3, r2, lsr #2
    1504:	23212323 	teqcs	r1, #-1946157056	; 0x8c000000
    1508:	21212121 	teqcs	r1, r1, lsr #2
    150c:	23212122 	teqcs	r1, #-2147483640	; 0x80000008
    1510:	21307a22 	teqcs	r0, r2, lsr #20
    1514:	21222122 	teqcs	r2, r2, lsr #2
    1518:	09032121 	stmdbeq	r3, {r0, r5, r8, sp}
    151c:	21212174 	teqcs	r1, r4, ror r1
    1520:	216e2122 	cmncs	lr, r2, lsr #2
    1524:	6d212121 	stfvss	f2, [r1, #-132]!	; 0xffffff7c
    1528:	212f2221 	teqcs	pc, r1, lsr #4
    152c:	66090322 	strvs	r0, [r9], -r2, lsr #6
    1530:	21212f21 	teqcs	r1, r1, lsr #30
    1534:	032f2f2f 	teqeq	pc, #188	; 0xbc
    1538:	2f216609 	svccs	0x00216609
    153c:	21212221 	teqcs	r1, r1, lsr #4
    1540:	580c0321 	stmdapl	ip, {r0, r5, r8, r9}
    1544:	21212f21 	teqcs	r1, r1, lsr #30
    1548:	2230303e 	eorscs	r3, r0, #62	; 0x3e
    154c:	216e3030 	cmncs	lr, r0, lsr r0
    1550:	3d6d2121 	stfcce	f2, [sp, #-132]!	; 0xffffff7c
    1554:	3121216e 	teqcc	r1, lr, ror #2
    1558:	303d302f 	eorscc	r3, sp, pc, lsr #32
    155c:	3021222f 	eorcc	r2, r1, pc, lsr #4
    1560:	212f2221 	teqcs	pc, r1, lsr #4
    1564:	30212122 	eorcc	r2, r1, r2, lsr #2
    1568:	216d2f2f 	cmncs	sp, pc, lsr #30
    156c:	216c2f2f 	cmncs	ip, pc, lsr #30
    1570:	2f2f302f 	svccs	0x002f302f
    1574:	2f2f312f 	svccs	0x002f312f
    1578:	660a032f 	strvs	r0, [sl], -pc, lsr #6
    157c:	212f603d 	teqcs	pc, sp, lsr r0	; <UNPREDICTABLE>
    1580:	d7031904 	strle	r1, [r3, -r4, lsl #18]
    1584:	2124667b 	teqcs	r4, fp, ror r6
    1588:	21232121 	teqcs	r3, r1, lsr #2
    158c:	21212522 	teqcs	r1, r2, lsr #10
    1590:	21252121 	teqcs	r5, r1, lsr #2
    1594:	25212121 	strcs	r2, [r1, #-289]!	; 0x121
    1598:	21212121 	teqcs	r1, r1, lsr #2
    159c:	21302125 	teqcs	r0, r5, lsr #2
    15a0:	232f2121 	teqcs	pc, #1073741832	; 0x40000008
    15a4:	32212121 	eorcc	r2, r1, #1073741832	; 0x40000008
    15a8:	2121312f 	teqcs	r1, pc, lsr #2
    15ac:	03233d21 	teqeq	r3, #2112	; 0x840
    15b0:	21212e0c 	teqcs	r1, ip, lsl #28
    15b4:	25212125 	strcs	r2, [r1, #-293]!	; 0x125
    15b8:	25212221 	strcs	r2, [r1, #-545]!	; 0x221
    15bc:	0f032f3d 	svceq	0x00032f3d
    15c0:	22212120 	eorcs	r2, r1, #8
    15c4:	313d3d33 	teqcc	sp, r3, lsr sp
    15c8:	21222f21 	teqcs	r2, r1, lsr #30
    15cc:	272f3024 	strcs	r3, [pc, -r4, lsr #32]!
    15d0:	303d3d30 	eorscc	r3, sp, r0, lsr sp
    15d4:	2121332f 	teqcs	r1, pc, lsr #6
    15d8:	213e3321 	teqcs	lr, r1, lsr #6
    15dc:	222f2221 	eorcs	r2, pc, #268435458	; 0x10000002
    15e0:	2f222121 	svccs	0x00222121
    15e4:	1a042f22 	bne	10d274 <BIT20+0xd274>
    15e8:	207ebf03 	rsbscs	fp, lr, r3, lsl #30
    15ec:	21302f22 	teqcs	r0, r2, lsr #30
    15f0:	21232122 	teqcs	r3, r2, lsr #2
    15f4:	21232122 	teqcs	r3, r2, lsr #2
    15f8:	21242221 	teqcs	r4, r1, lsr #4
    15fc:	25222121 	strcs	r2, [r2, #-289]!	; 0x121
    1600:	21222122 	teqcs	r2, r2, lsr #2
    1604:	22212124 	eorcs	r2, r1, #9
    1608:	212f313d 	teqcs	pc, sp, lsr r1	; <UNPREDICTABLE>
    160c:	30212f30 	eorcc	r2, r1, r0, lsr pc
    1610:	2130212f 	teqcs	r0, pc, lsr #2
    1614:	314b2321 	cmpcc	fp, r1, lsr #6
    1618:	252f3d23 	strcs	r3, [pc, #-3363]!	; 8fd <Code_108+0x3f>
    161c:	212f2f22 	teqcs	pc, r2, lsr #30
    1620:	21212f24 	teqcs	r1, r4, lsr #30
    1624:	222f2221 	eorcs	r2, pc, #268435458	; 0x10000002
    1628:	21212f21 	teqcs	r1, r1, lsr #30
    162c:	1b042221 	blne	109eb8 <BIT20+0x9eb8>
    1630:	907f9203 	rsbsls	r9, pc, r3, lsl #4
    1634:	21213121 	teqcs	r1, r1, lsr #2
    1638:	21212221 	teqcs	r1, r1, lsr #4
    163c:	2f222121 	svccs	0x00222121
    1640:	23212130 	teqcs	r1, #12
    1644:	2121212f 	teqcs	r1, pc, lsr #2
    1648:	28963022 	ldmcs	r6, {r1, r5, ip, sp}
    164c:	bc212121 	stflts	f2, [r1], #-132	; 0xffffff7c
    1650:	b1212121 	teqlt	r1, r1, lsr #2
    1654:	21213231 	teqcs	r1, r1, lsr r2
    1658:	200b032f 	andcs	r0, fp, pc, lsr #6
    165c:	362f3159 			; <UNDEFINED> instruction: 0x362f3159
    1660:	22212421 	eorcs	r2, r1, #553648128	; 0x21000000
    1664:	212f3530 	teqcs	pc, r0, lsr r5	; <UNPREDICTABLE>
    1668:	0c032f26 	stceq	15, cr2, [r3], {38}	; 0x26
    166c:	2121219e 			; <UNDEFINED> instruction: 0x2121219e
    1670:	21213022 	teqcs	r1, r2, lsr #32
    1674:	cb2f2121 	blgt	bc9b00 <BIT23+0x3c9b00>
    1678:	282f3d2f 	stmdacs	pc!, {r0, r1, r2, r3, r5, r8, sl, fp, ip, sp}	; <UNPREDICTABLE>
    167c:	2f3e3d30 	svccs	0x003e3d30
    1680:	03212f97 	teqeq	r1, #604	; 0x25c
    1684:	0331900e 	teqeq	r1, #14
    1688:	2133200c 	teqcs	r3, ip
    168c:	21212221 	teqcs	r1, r1, lsr #4
    1690:	30222222 	eorcc	r2, r2, r2, lsr #4
    1694:	21222222 	teqcs	r2, r2, lsr #4
    1698:	21212321 	teqcs	r1, r1, lsr #6
    169c:	592f2f23 	stmdbpl	pc!, {r0, r1, r5, r8, r9, sl, fp, sp}	; <UNPREDICTABLE>
    16a0:	91031c04 	tstls	r3, r4, lsl #24
    16a4:	012c027e 	teqeq	ip, lr, ror r2
    16a8:	21212f2f 	teqcs	r1, pc, lsr #30
    16ac:	21792179 	cmncs	r9, r9, ror r1
    16b0:	6c2f2f79 	stcvs	15, cr2, [pc], #-484	; 14d4 <Code_293+0xa>
    16b4:	2fc92296 	svccs	0x00c92296
    16b8:	7a4b2f2f 	bvc	12cd37c <BIT24+0x2cd37c>
    16bc:	c5032121 	strgt	r2, [r3, #-289]	; 0x121
    16c0:	3d089e00 	stccc	14, cr9, [r8]
    16c4:	1d046708 	stcne	7, cr6, [r4, #-32]	; 0xffffffe0
    16c8:	087f8a03 	ldmdaeq	pc!, {r0, r1, r9, fp, pc}^	; <UNPREDICTABLE>
    16cc:	083d083c 	ldmdaeq	sp!, {r2, r3, r4, r5, fp}
    16d0:	083d083d 	ldmdaeq	sp!, {r0, r2, r3, r4, r5, fp}
    16d4:	082f083d 	stmdaeq	pc!, {r0, r2, r3, r4, r5, fp}	; <UNPREDICTABLE>
    16d8:	083d083d 	ldmdaeq	sp!, {r0, r2, r3, r4, r5, fp}
    16dc:	081e043d 	ldmdaeq	lr, {r0, r2, r3, r4, r5, sl}
    16e0:	2f2121ac 	svccs	0x002121ac
    16e4:	2121222f 	teqcs	r1, pc, lsr #4
    16e8:	2121232f 	teqcs	r1, pc, lsr #6
    16ec:	21222f2f 	teqcs	r2, pc, lsr #30
    16f0:	222f2f21 	eorcs	r2, pc, #132	; 0x84
    16f4:	1f04212f 	svcne	0x0004212f
    16f8:	26021603 	strcs	r1, [r2], -r3, lsl #12
    16fc:	04323201 	ldrteq	r3, [r2], #-513	; 0x201
    1700:	2e410320 	cdpcs	3, 4, cr0, cr1, cr0, {1}
    1704:	27252421 	strcs	r2, [r5, -r1, lsr #8]!
    1708:	21242121 	teqcs	r4, r1, lsr #2
    170c:	200a0321 	andcs	r0, sl, r1, lsr #6
    1710:	2223212f 	eorcs	r2, r3, #-1073741813	; 0xc000000b
    1714:	21242122 	teqcs	r4, r2, lsr #2
    1718:	30212321 	eorcc	r2, r1, r1, lsr #6
    171c:	21212132 	teqcs	r1, r2, lsr r1
    1720:	21222123 	teqcs	r2, r3, lsr #2
    1724:	24212522 	strtcs	r2, [r1], #-1314	; 0x522
    1728:	200b0321 	andcs	r0, fp, r1, lsr #6
    172c:	3d313021 	ldccc	0, cr3, [r1, #-132]!	; 0xffffff7c
    1730:	2f353d3d 	svccs	0x00353d3d
    1734:	2121232f 	teqcs	r1, pc, lsr #6
    1738:	21262122 	teqcs	r6, r2, lsr #2
    173c:	22212421 	eorcs	r2, r1, #553648128	; 0x21000000
    1740:	23212121 	teqcs	r1, #1073741832	; 0x40000008
    1744:	0c032123 	stfeqs	f2, [r3], {35}	; 0x23
    1748:	031f0420 	tsteq	pc, #536870912	; 0x20000000
    174c:	042e7fa7 	strteq	r7, [lr], #-4007	; 0xfa7
    1750:	7fb60321 	svcvc	0x00b60321
    1754:	2121e408 	teqcs	r1, r8, lsl #8
    1758:	3d212f24 	stccc	15, cr2, [r1, #-144]!	; 0xffffff70
    175c:	2221212f 	eorcs	r2, r1, #-1073741813	; 0xc000000b
    1760:	0221222f 	eoreq	r2, r1, #-268435454	; 0xf0000002
    1764:	01010023 	tsteq	r1, r3, lsr #32

Disassembly of section .debug_info:

00000000 <.debug_info>:
   0:	00000099 	muleq	r0, r9, r0
   4:	00000002 	andeq	r0, r0, r2
   8:	01040000 	mrseq	r0, (UNDEF: 4)
	...
  14:	00004e3c 	andeq	r4, r0, ip, lsr lr
  18:	632f2e2e 	teqvs	pc, #736	; 0x2e0
  1c:	6f6d6d6f 	svcvs	0x006d6d6f
  20:	61722f6e 	cmnvs	r2, lr, ror #30
  24:	2d61722f 	sfmcs	f7, 2, [r1, #-188]!	; 0xffffff44
  28:	72666e69 	rsbvc	r6, r6, #1680	; 0x690
  2c:	72747361 	rsbsvc	r7, r4, #-2080374783	; 0x84000001
  30:	75746375 	ldrbvc	r6, [r4, #-885]!	; 0x375
  34:	732e6572 	teqvc	lr, #478150656	; 0x1c800000
  38:	73552f00 	cmpvc	r5, #0
  3c:	2f737265 	svccs	0x00737265
  40:	69756f6c 	ldmdbvs	r5!, {r2, r3, r5, r6, r8, r9, sl, fp, sp, lr}^
  44:	6f442f65 	svcvs	0x00442f65
  48:	6f6c6e77 	svcvs	0x006c6e77
  4c:	2f736461 	svccs	0x00736461
  50:	7263656d 	rsbvc	r6, r3, #457179136	; 0x1b400000
  54:	2d707369 	ldclcs	3, cr7, [r0, #-420]!	; 0xfffffe5c
  58:	6c657473 	cfstrdvs	mvd7, [r5], #-460	; 0xfffffe34
  5c:	6972616c 	ldmdbvs	r2!, {r2, r3, r5, r6, r8, sp, lr}^
  60:	2e322d73 	mrccs	13, 1, r2, cr2, cr3, {3}
  64:	61312e32 	teqvs	r1, r2, lsr lr
  68:	63656d2f 	cmnvs	r5, #3008	; 0xbc0
  6c:	70736972 	rsbsvc	r6, r3, r2, ror r9
  70:	6574732d 	ldrbvs	r7, [r4, #-813]!	; 0x32d
  74:	72616c6c 	rsbvc	r6, r1, #27648	; 0x6c00
  78:	732d7369 	teqvc	sp, #-1543503871	; 0xa4000001
  7c:	6372756f 	cmnvs	r2, #465567744	; 0x1bc00000
  80:	74732f65 	ldrbtvc	r2, [r3], #-3941	; 0xf65
  84:	6c32336d 	ldcvs	3, cr3, [r2], #-436	; 0xfffffe4c
  88:	2d363734 	ldccs	7, cr3, [r6, #-208]!	; 0xffffff30
  8c:	47006172 	smlsdxmi	r0, r2, r1, r6
  90:	4120554e 	teqmi	r0, lr, asr #10
  94:	2e322053 	mrccs	0, 1, r2, cr2, cr3, {2}
  98:	01003132 	tsteq	r0, r2, lsr r1
  9c:	Address 0x0000009c is out of bounds.


Disassembly of section .debug_abbrev:

00000000 <.debug_abbrev>:
   0:	10001101 	andne	r1, r0, r1, lsl #2
   4:	12011106 	andne	r1, r1, #-2147483647	; 0x80000001
   8:	1b080301 	blne	200c14 <BIT21+0xc14>
   c:	13082508 	movwne	r2, #34056	; 0x8508
  10:	00000005 	andeq	r0, r0, r5

Disassembly of section .debug_aranges:

00000000 <.debug_aranges>:
   0:	0000001c 	andeq	r0, r0, ip, lsl r0
   4:	00000002 	andeq	r0, r0, r2
   8:	00040000 	andeq	r0, r4, r0
	...
  14:	00004e3c 	andeq	r4, r0, ip, lsr lr
	...
