
mecrisp-stellaris-stm32f303.elf:     file format elf32-littlearm


Disassembly of section .text:

00000000 <CoreDictionaryAnfang-0x188>:
       0:	20000330 	andcs	r0, r0, r0, lsr r3
       4:	00003797 	muleq	r0, r7, r7
       8:	000035d7 	ldrdeq	r3, [r0], -r7
       c:	000035d7 	ldrdeq	r3, [r0], -r7
      10:	000035d7 	ldrdeq	r3, [r0], -r7
      14:	000035d7 	ldrdeq	r3, [r0], -r7
      18:	000035d7 	ldrdeq	r3, [r0], -r7
	...
      2c:	00003605 	andeq	r3, r0, r5, lsl #12
      30:	00003605 	andeq	r3, r0, r5, lsl #12
      34:	00000000 	andeq	r0, r0, r0
      38:	00003605 	andeq	r3, r0, r5, lsl #12
      3c:	000035af 	andeq	r3, r0, pc, lsr #11
      40:	00003605 	andeq	r3, r0, r5, lsl #12
      44:	00003605 	andeq	r3, r0, r5, lsl #12
      48:	00003605 	andeq	r3, r0, r5, lsl #12
      4c:	00003605 	andeq	r3, r0, r5, lsl #12
      50:	00003605 	andeq	r3, r0, r5, lsl #12
      54:	00003605 	andeq	r3, r0, r5, lsl #12
      58:	0000362d 	andeq	r3, r0, sp, lsr #12
      5c:	00003655 	andeq	r3, r0, r5, asr r6
      60:	0000367d 	andeq	r3, r0, sp, ror r6
      64:	000036a5 	andeq	r3, r0, r5, lsr #13
      68:	000036cd 	andeq	r3, r0, sp, asr #13
      6c:	00003605 	andeq	r3, r0, r5, lsl #12
      70:	00003605 	andeq	r3, r0, r5, lsl #12
      74:	00003605 	andeq	r3, r0, r5, lsl #12
      78:	00003605 	andeq	r3, r0, r5, lsl #12
      7c:	00003605 	andeq	r3, r0, r5, lsl #12
      80:	00003605 	andeq	r3, r0, r5, lsl #12
      84:	00003605 	andeq	r3, r0, r5, lsl #12
      88:	000036f3 	strdeq	r3, [r0], -r3	; <UNPREDICTABLE>
      8c:	00003605 	andeq	r3, r0, r5, lsl #12
      90:	00003605 	andeq	r3, r0, r5, lsl #12
      94:	00003605 	andeq	r3, r0, r5, lsl #12
      98:	00003605 	andeq	r3, r0, r5, lsl #12
      9c:	00003605 	andeq	r3, r0, r5, lsl #12
      a0:	00003605 	andeq	r3, r0, r5, lsl #12
      a4:	00003605 	andeq	r3, r0, r5, lsl #12
      a8:	00003605 	andeq	r3, r0, r5, lsl #12
      ac:	00003605 	andeq	r3, r0, r5, lsl #12
      b0:	0000371b 	andeq	r3, r0, fp, lsl r7
      b4:	00003743 	andeq	r3, r0, r3, asr #14
      b8:	0000376b 	andeq	r3, r0, fp, ror #14
      bc:	00003605 	andeq	r3, r0, r5, lsl #12
      c0:	00003605 	andeq	r3, r0, r5, lsl #12
      c4:	00003605 	andeq	r3, r0, r5, lsl #12
      c8:	00003605 	andeq	r3, r0, r5, lsl #12
      cc:	00003605 	andeq	r3, r0, r5, lsl #12
      d0:	00003605 	andeq	r3, r0, r5, lsl #12
      d4:	00003605 	andeq	r3, r0, r5, lsl #12
      d8:	00003605 	andeq	r3, r0, r5, lsl #12
      dc:	00003605 	andeq	r3, r0, r5, lsl #12
      e0:	00003605 	andeq	r3, r0, r5, lsl #12
      e4:	00003605 	andeq	r3, r0, r5, lsl #12
      e8:	00003605 	andeq	r3, r0, r5, lsl #12
      ec:	00003605 	andeq	r3, r0, r5, lsl #12
      f0:	00003605 	andeq	r3, r0, r5, lsl #12
      f4:	00003605 	andeq	r3, r0, r5, lsl #12
      f8:	00003605 	andeq	r3, r0, r5, lsl #12
      fc:	00003605 	andeq	r3, r0, r5, lsl #12
     100:	00003605 	andeq	r3, r0, r5, lsl #12
     104:	00003605 	andeq	r3, r0, r5, lsl #12
     108:	00003605 	andeq	r3, r0, r5, lsl #12
     10c:	00003605 	andeq	r3, r0, r5, lsl #12
     110:	00003605 	andeq	r3, r0, r5, lsl #12
     114:	00003605 	andeq	r3, r0, r5, lsl #12
     118:	00003605 	andeq	r3, r0, r5, lsl #12
     11c:	00003605 	andeq	r3, r0, r5, lsl #12
     120:	00003605 	andeq	r3, r0, r5, lsl #12
     124:	00003605 	andeq	r3, r0, r5, lsl #12
     128:	00003605 	andeq	r3, r0, r5, lsl #12
     12c:	00003605 	andeq	r3, r0, r5, lsl #12
     130:	00003605 	andeq	r3, r0, r5, lsl #12
     134:	00003605 	andeq	r3, r0, r5, lsl #12
     138:	00003605 	andeq	r3, r0, r5, lsl #12
     13c:	00003605 	andeq	r3, r0, r5, lsl #12
     140:	00003605 	andeq	r3, r0, r5, lsl #12
     144:	00003605 	andeq	r3, r0, r5, lsl #12
     148:	00003605 	andeq	r3, r0, r5, lsl #12
     14c:	00003605 	andeq	r3, r0, r5, lsl #12
     150:	00003605 	andeq	r3, r0, r5, lsl #12
     154:	00003605 	andeq	r3, r0, r5, lsl #12
     158:	00003605 	andeq	r3, r0, r5, lsl #12
     15c:	00003605 	andeq	r3, r0, r5, lsl #12
     160:	00003605 	andeq	r3, r0, r5, lsl #12
     164:	00003605 	andeq	r3, r0, r5, lsl #12
     168:	00003605 	andeq	r3, r0, r5, lsl #12
     16c:	00003605 	andeq	r3, r0, r5, lsl #12
     170:	00003605 	andeq	r3, r0, r5, lsl #12
     174:	00003605 	andeq	r3, r0, r5, lsl #12
     178:	00003605 	andeq	r3, r0, r5, lsl #12
     17c:	00003605 	andeq	r3, r0, r5, lsl #12
     180:	00003605 	andeq	r3, r0, r5, lsl #12
     184:	00003605 	andeq	r3, r0, r5, lsl #12

00000188 <CoreDictionaryAnfang>:
     188:	000001ae 	andeq	r0, r0, lr, lsr #3
     18c:	2d1effff 	ldccs	15, cr15, [lr, #-1020]	; 0xfffffc04
     190:	4d202d2d 	stcmi	13, cr2, [r0, #-180]!	; 0xffffff4c
     194:	69726365 	ldmdbvs	r2!, {r0, r2, r5, r6, r8, r9, sp, lr}^
     198:	532d7073 	teqpl	sp, #115	; 0x73
     19c:	6c6c6574 	cfstr64vs	mvdx6, [ip], #-464	; 0xfffffe30
     1a0:	73697261 	cmnvc	r9, #268435462	; 0x10000006
     1a4:	726f4320 	rsbvc	r4, pc, #-2147483648	; 0x80000000
     1a8:	2d2d2065 	stccs	0, cr2, [sp, #-404]!	; 0xfffffe6c
     1ac:	01c6002d 	biceq	r0, r6, sp, lsr #32

000001ae <Code_16>:
     1ae:	000001c6 	andeq	r0, r0, r6, asr #3
     1b2:	32040042 	andcc	r0, r4, #66	; 0x42
     1b6:	00707564 	rsbseq	r7, r0, r4, ror #10

000001ba <Code_17>:
     1ba:	6838      	ldr	r0, [r7, #0]
     1bc:	f847 6d04 	str.w	r6, [r7, #-4]!
     1c0:	3f04      	subs	r7, #4
     1c2:	6038      	str	r0, [r7, #0]
     1c4:	4770      	bx	lr

000001c6 <Dictionary_19>:
     1c6:	000001d8 	ldrdeq	r0, [r0], -r8
     1ca:	32050062 	andcc	r0, r5, #98	; 0x62
     1ce:	706f7264 	rsbvc	r7, pc, r4, ror #4

000001d2 <Code_19>:
     1d2:	3704      	adds	r7, #4
     1d4:	cf40      	ldmia	r7!, {r6}
     1d6:	4770      	bx	lr

000001d8 <Dictionary_21>:
     1d8:	000001f6 	strdeq	r0, [r0], -r6
     1dc:	32050044 	andcc	r0, r5, #68	; 0x44
     1e0:	70617773 	rsbvc	r7, r1, r3, ror r7

000001e4 <Code_21>:
     1e4:	cf07      	ldmia	r7!, {r0, r1, r2}
     1e6:	3f04      	subs	r7, #4
     1e8:	6038      	str	r0, [r7, #0]
     1ea:	f847 6d04 	str.w	r6, [r7, #-4]!
     1ee:	3f04      	subs	r7, #4
     1f0:	603a      	str	r2, [r7, #0]
     1f2:	000e      	movs	r6, r1
     1f4:	4770      	bx	lr

000001f6 <Dictionary_23>:
     1f6:	0000020a 	andeq	r0, r0, sl, lsl #4
     1fa:	32040062 	andcc	r0, r4, #98	; 0x62
     1fe:	0070696e 	rsbseq	r6, r0, lr, ror #18

00000202 <Code_23>:
     202:	cf07      	ldmia	r7!, {r0, r1, r2}
     204:	3f04      	subs	r7, #4
     206:	6038      	str	r0, [r7, #0]
     208:	4770      	bx	lr

0000020a <Dictionary_24>:
     20a:	00000224 	andeq	r0, r0, r4, lsr #4
     20e:	32050044 	andcc	r0, r5, #68	; 0x44
     212:	7265766f 	rsbvc	r7, r5, #116391936	; 0x6f00000

00000216 <Code_24>:
     216:	68b8      	ldr	r0, [r7, #8]
     218:	f847 6d04 	str.w	r6, [r7, #-4]!
     21c:	3f04      	subs	r7, #4
     21e:	6038      	str	r0, [r7, #0]
     220:	68fe      	ldr	r6, [r7, #12]
     222:	4770      	bx	lr

00000224 <Dictionary_26>:
     224:	00000248 	andeq	r0, r0, r8, asr #4
     228:	32050044 	andcc	r0, r5, #68	; 0x44
     22c:	6b637574 	blvs	18dd804 <BIT24+0x8dd804>

00000230 <Code_26>:
     230:	cf07      	ldmia	r7!, {r0, r1, r2}
     232:	3f04      	subs	r7, #4
     234:	6038      	str	r0, [r7, #0]
     236:	f847 6d04 	str.w	r6, [r7, #-4]!
     23a:	3f04      	subs	r7, #4
     23c:	603a      	str	r2, [r7, #0]
     23e:	3f04      	subs	r7, #4
     240:	6039      	str	r1, [r7, #0]
     242:	3f04      	subs	r7, #4
     244:	6038      	str	r0, [r7, #0]
     246:	4770      	bx	lr

00000248 <Dictionary_28>:
     248:	0000026a 	andeq	r0, r0, sl, ror #4
     24c:	32040046 	andcc	r0, r4, #70	; 0x46
     250:	00746f72 	rsbseq	r6, r4, r2, ror pc

00000254 <Code_28>:
     254:	6838      	ldr	r0, [r7, #0]
     256:	68b9      	ldr	r1, [r7, #8]
     258:	693a      	ldr	r2, [r7, #16]
     25a:	60b8      	str	r0, [r7, #8]
     25c:	6139      	str	r1, [r7, #16]
     25e:	603a      	str	r2, [r7, #0]
     260:	6879      	ldr	r1, [r7, #4]
     262:	607e      	str	r6, [r7, #4]
     264:	68fe      	ldr	r6, [r7, #12]
     266:	60f9      	str	r1, [r7, #12]
     268:	4770      	bx	lr

0000026a <Dictionary_29>:
     26a:	0000028c 	andeq	r0, r0, ip, lsl #5
     26e:	32050046 	andcc	r0, r5, #70	; 0x46
     272:	746f722d 	strbtvc	r7, [pc], #-557	; 27a <Code_29+0x4>

00000276 <Code_29>:
     276:	6838      	ldr	r0, [r7, #0]
     278:	68b9      	ldr	r1, [r7, #8]
     27a:	693a      	ldr	r2, [r7, #16]
     27c:	6138      	str	r0, [r7, #16]
     27e:	6039      	str	r1, [r7, #0]
     280:	60ba      	str	r2, [r7, #8]
     282:	68f9      	ldr	r1, [r7, #12]
     284:	60fe      	str	r6, [r7, #12]
     286:	687e      	ldr	r6, [r7, #4]
     288:	6079      	str	r1, [r7, #4]
     28a:	4770      	bx	lr

0000028c <Dictionary_30>:
     28c:	000002a0 	andeq	r0, r0, r0, lsr #5
     290:	32030020 	andcc	r0, r3, #32
     294:	cf01723e 	svcgt	0x0001723e

00000296 <Code_30>:
     296:	cf01      	ldmia	r7!, {r0}
     298:	b401      	push	{r0}
     29a:	b440      	push	{r6}
     29c:	cf40      	ldmia	r7!, {r6}
     29e:	4770      	bx	lr

000002a0 <Dictionary_31>:
     2a0:	000002b8 			; <UNDEFINED> instruction: 0x000002b8
     2a4:	32030020 	andcc	r0, r3, #32
     2a8:	f8473e72 			; <UNDEFINED> instruction: 0xf8473e72

000002aa <Code_31>:
     2aa:	f847 6d04 	str.w	r6, [r7, #-4]!
     2ae:	bc40      	pop	{r6}
     2b0:	bc01      	pop	{r0}
     2b2:	3f04      	subs	r7, #4
     2b4:	6038      	str	r0, [r7, #0]
     2b6:	4770      	bx	lr

000002b8 <Dictionary_33>:
     2b8:	000002d0 	ldrdeq	r0, [r0], -r0	; <UNPREDICTABLE>
     2bc:	32030020 	andcc	r0, r3, #32
     2c0:	f8474072 			; <UNDEFINED> instruction: 0xf8474072

000002c2 <Code_33>:
     2c2:	f847 6d04 	str.w	r6, [r7, #-4]!
     2c6:	9e01      	ldr	r6, [sp, #4]
     2c8:	f847 6d04 	str.w	r6, [r7, #-4]!
     2cc:	9e00      	ldr	r6, [sp, #0]
     2ce:	4770      	bx	lr

000002d0 <Dictionary_36>:
     2d0:	000002e2 	andeq	r0, r0, r2, ror #5
     2d4:	32060020 	andcc	r0, r6, #32
     2d8:	6f726472 	svcvs	0x00726472
     2dc:	b0020070 	andlt	r0, r2, r0, ror r0

000002de <Code_36>:
     2de:	b002      	add	sp, #8
     2e0:	4770      	bx	lr

000002e2 <Dictionary_37>:
     2e2:	000002fa 	strdeq	r0, [r0], -sl
     2e6:	64030042 	strvs	r0, [r3], #-66	; 0x42
     2ea:	68382f32 	ldmdavs	r8!, {r1, r4, r5, r8, r9, sl, fp, sp}

000002ec <Code_37>:
     2ec:	6838      	ldr	r0, [r7, #0]
     2ee:	07f1      	lsls	r1, r6, #31
     2f0:	1076      	asrs	r6, r6, #1
     2f2:	0840      	lsrs	r0, r0, #1
     2f4:	4308      	orrs	r0, r1
     2f6:	6038      	str	r0, [r7, #0]
     2f8:	4770      	bx	lr

000002fa <Dictionary_38>:
     2fa:	0000030e 	andeq	r0, r0, lr, lsl #6
     2fe:	64030062 	strvs	r0, [r3], #-98	; 0x62
     302:	68382a32 	ldmdavs	r8!, {r1, r4, r5, r9, fp, sp}

00000304 <Code_38>:
     304:	6838      	ldr	r0, [r7, #0]
     306:	1800      	adds	r0, r0, r0
     308:	4176      	adcs	r6, r6
     30a:	6038      	str	r0, [r7, #0]
     30c:	4770      	bx	lr

0000030e <Dictionary_39>:
     30e:	00000328 	andeq	r0, r0, r8, lsr #6
     312:	64040042 	strvs	r0, [r4], #-66	; 0x42
     316:	00726873 	rsbseq	r6, r2, r3, ror r8

0000031a <Code_39>:
     31a:	6838      	ldr	r0, [r7, #0]
     31c:	07f1      	lsls	r1, r6, #31
     31e:	0876      	lsrs	r6, r6, #1
     320:	0840      	lsrs	r0, r0, #1
     322:	4308      	orrs	r0, r1
     324:	6038      	str	r0, [r7, #0]
     326:	4770      	bx	lr

00000328 <Dictionary_40>:
     328:	0000033e 	andeq	r0, r0, lr, lsr r3
     32c:	64040062 	strvs	r0, [r4], #-98	; 0x62
     330:	006c6873 	rsbeq	r6, ip, r3, ror r8

00000334 <Code_40>:
     334:	6838      	ldr	r0, [r7, #0]
     336:	1800      	adds	r0, r0, r0
     338:	4176      	adcs	r6, r6
     33a:	6038      	str	r0, [r7, #0]
     33c:	4770      	bx	lr

0000033e <Dictionary_41>:
     33e:	00000350 	andeq	r0, r0, r0, asr r3
     342:	64040042 	strvs	r0, [r4], #-66	; 0x42
     346:	00736261 	rsbseq	r6, r3, r1, ror #4

0000034a <Code_41>:
     34a:	2e00      	cmp	r6, #0
     34c:	d407      	bmi.n	35e <Code_42>
     34e:	4770      	bx	lr

00000350 <Dictionary_42>:
     350:	0000036e 	andeq	r0, r0, lr, ror #6
     354:	64070042 	strvs	r0, [r7], #-66	; 0x42
     358:	6167656e 	cmnvs	r7, lr, ror #10
     35c:	68386574 	ldmdavs	r8!, {r2, r4, r5, r6, r8, sl, sp, lr}

0000035e <Code_42>:
     35e:	6838      	ldr	r0, [r7, #0]
     360:	2100      	movs	r1, #0
     362:	43c0      	mvns	r0, r0
     364:	43f6      	mvns	r6, r6
     366:	3001      	adds	r0, #1
     368:	414e      	adcs	r6, r1
     36a:	6038      	str	r0, [r7, #0]
     36c:	4770      	bx	lr

0000036e <Dictionary_43>:
     36e:	00000386 	andeq	r0, r0, r6, lsl #7
     372:	64020064 	strvs	r0, [r2], #-100	; 0x64
     376:	cf07002d 	svcgt	0x0007002d

00000378 <Code_43>:
     378:	cf07      	ldmia	r7!, {r0, r1, r2}
     37a:	1a12      	subs	r2, r2, r0
     37c:	41b1      	sbcs	r1, r6
     37e:	000e      	movs	r6, r1
     380:	3f04      	subs	r7, #4
     382:	603a      	str	r2, [r7, #0]
     384:	4770      	bx	lr

00000386 <Dictionary_44>:
     386:	0000039c 	muleq	r0, ip, r3
     38a:	64020064 	strvs	r0, [r2], #-100	; 0x64
     38e:	cf07002b 	svcgt	0x0007002b

00000390 <Code_44>:
     390:	cf07      	ldmia	r7!, {r0, r1, r2}
     392:	1812      	adds	r2, r2, r0
     394:	414e      	adcs	r6, r1
     396:	3f04      	subs	r7, #4
     398:	603a      	str	r2, [r7, #0]
     39a:	4770      	bx	lr

0000039c <Dictionary_45>:
     39c:	000003ae 	andeq	r0, r0, lr, lsr #7
     3a0:	73030061 	movwvc	r0, #12385	; 0x3061
     3a4:	f847643e 			; <UNDEFINED> instruction: 0xf847643e

000003a6 <Code_45>:
     3a6:	f847 6d04 	str.w	r6, [r7, #-4]!
     3aa:	17f6      	asrs	r6, r6, #31
     3ac:	4770      	bx	lr

000003ae <Dictionary_47>:
     3ae:	000003c2 	andeq	r0, r0, r2, asr #7
     3b2:	75030062 	strvc	r0, [r3, #-98]	; 0x62
     3b6:	68382a6d 	ldmdavs	r8!, {r0, r2, r3, r5, r6, r9, fp, sp}

000003b8 <Code_47>:
     3b8:	6838      	ldr	r0, [r7, #0]
     3ba:	fba0 0606 	umull	r0, r6, r0, r6
     3be:	6038      	str	r0, [r7, #0]
     3c0:	4770      	bx	lr

000003c2 <Dictionary_48>:
     3c2:	000003d6 	ldrdeq	r0, [r0], -r6
     3c6:	6d020062 	stcvs	0, cr0, [r2, #-392]	; 0xfffffe78
     3ca:	6838002a 	ldmdavs	r8!, {r1, r3, r5}

000003cc <Code_48>:
     3cc:	6838      	ldr	r0, [r7, #0]
     3ce:	fb80 0606 	smull	r0, r6, r0, r6
     3d2:	6038      	str	r0, [r7, #0]
     3d4:	4770      	bx	lr

000003d6 <Dictionary_49>:
     3d6:	00000414 	andeq	r0, r0, r4, lsl r4
     3da:	75030044 	strvc	r0, [r3, #-68]	; 0x44
     3de:	cf072a64 	svcgt	0x00072a64

000003e0 <Code_49>:
     3e0:	cf07      	ldmia	r7!, {r0, r1, r2}
     3e2:	4356      	muls	r6, r2
     3e4:	4341      	muls	r1, r0
     3e6:	1876      	adds	r6, r6, r1
     3e8:	0c01      	lsrs	r1, r0, #16
     3ea:	0c13      	lsrs	r3, r2, #16
     3ec:	4359      	muls	r1, r3
     3ee:	1876      	adds	r6, r6, r1
     3f0:	0c01      	lsrs	r1, r0, #16
     3f2:	b280      	uxth	r0, r0
     3f4:	b292      	uxth	r2, r2
     3f6:	4351      	muls	r1, r2
     3f8:	4343      	muls	r3, r0
     3fa:	4350      	muls	r0, r2
     3fc:	2200      	movs	r2, #0
     3fe:	18c9      	adds	r1, r1, r3
     400:	4152      	adcs	r2, r2
     402:	0412      	lsls	r2, r2, #16
     404:	18b6      	adds	r6, r6, r2
     406:	040a      	lsls	r2, r1, #16
     408:	0c09      	lsrs	r1, r1, #16
     40a:	1880      	adds	r0, r0, r2
     40c:	414e      	adcs	r6, r1
     40e:	3f04      	subs	r7, #4
     410:	6038      	str	r0, [r7, #0]
     412:	4770      	bx	lr

00000414 <Dictionary_50>:
     414:	000004a6 	andeq	r0, r0, r6, lsr #9
     418:	75040044 	strvc	r0, [r4, #-68]	; 0x44
     41c:	002a6d64 	eoreq	r6, sl, r4, ror #26

00000420 <Code_50>:
     420:	b510      	push	{r4, lr}
     422:	2400      	movs	r4, #0
     424:	f847 6d04 	str.w	r6, [r7, #-4]!
     428:	687e      	ldr	r6, [r7, #4]
     42a:	f847 6d04 	str.w	r6, [r7, #-4]!
     42e:	693e      	ldr	r6, [r7, #16]
     430:	f7ff ffc2 	bl	3b8 <Code_47>
     434:	0031      	movs	r1, r6
     436:	cf40      	ldmia	r7!, {r6}
     438:	0030      	movs	r0, r6
     43a:	cf40      	ldmia	r7!, {r6}
     43c:	f847 6d04 	str.w	r6, [r7, #-4]!
     440:	683e      	ldr	r6, [r7, #0]
     442:	f847 6d04 	str.w	r6, [r7, #-4]!
     446:	68fe      	ldr	r6, [r7, #12]
     448:	b403      	push	{r0, r1}
     44a:	f7ff ffb5 	bl	3b8 <Code_47>
     44e:	bc03      	pop	{r0, r1}
     450:	0033      	movs	r3, r6
     452:	cf40      	ldmia	r7!, {r6}
     454:	0032      	movs	r2, r6
     456:	cf40      	ldmia	r7!, {r6}
     458:	f847 6d04 	str.w	r6, [r7, #-4]!
     45c:	683e      	ldr	r6, [r7, #0]
     45e:	f847 6d04 	str.w	r6, [r7, #-4]!
     462:	693e      	ldr	r6, [r7, #16]
     464:	b40f      	push	{r0, r1, r2, r3}
     466:	f7ff ffa7 	bl	3b8 <Code_47>
     46a:	bc0f      	pop	{r0, r1, r2, r3}
     46c:	1992      	adds	r2, r2, r6
     46e:	4163      	adcs	r3, r4
     470:	cf40      	ldmia	r7!, {r6}
     472:	1989      	adds	r1, r1, r6
     474:	4162      	adcs	r2, r4
     476:	4163      	adcs	r3, r4
     478:	cf40      	ldmia	r7!, {r6}
     47a:	f847 6d04 	str.w	r6, [r7, #-4]!
     47e:	687e      	ldr	r6, [r7, #4]
     480:	f847 6d04 	str.w	r6, [r7, #-4]!
     484:	68fe      	ldr	r6, [r7, #12]
     486:	b40f      	push	{r0, r1, r2, r3}
     488:	f7ff ff96 	bl	3b8 <Code_47>
     48c:	bc0f      	pop	{r0, r1, r2, r3}
     48e:	1992      	adds	r2, r2, r6
     490:	4163      	adcs	r3, r4
     492:	cf40      	ldmia	r7!, {r6}
     494:	1989      	adds	r1, r1, r6
     496:	4162      	adcs	r2, r4
     498:	4163      	adcs	r3, r4
     49a:	cf40      	ldmia	r7!, {r6}
     49c:	001e      	movs	r6, r3
     49e:	603a      	str	r2, [r7, #0]
     4a0:	6079      	str	r1, [r7, #4]
     4a2:	60b8      	str	r0, [r7, #8]
     4a4:	bd10      	pop	{r4, pc}

000004a6 <Dictionary_67>:
     4a6:	000004c8 	andeq	r0, r0, r8, asr #9
     4aa:	2a020043 	bcs	805be <BIT19+0x5be>
     4ae:	b500002f 	strlt	r0, [r0, #-47]	; 0x2f

000004b0 <Code_67>:
     4b0:	b500      	push	{lr}
     4b2:	b440      	push	{r6}
     4b4:	cf40      	ldmia	r7!, {r6}
     4b6:	f7ff ff89 	bl	3cc <Code_48>
     4ba:	f847 6d04 	str.w	r6, [r7, #-4]!
     4be:	bc40      	pop	{r6}
     4c0:	f000 f84c 	bl	55c <Code_90>
     4c4:	3704      	adds	r7, #4
     4c6:	bd00      	pop	{pc}

000004c8 <Dictionary_72>:
     4c8:	000004ea 	andeq	r0, r0, sl, ror #9
     4cc:	2a050043 	bcs	1405e0 <BIT20+0x405e0>
     4d0:	646f6d2f 	strbtvs	r6, [pc], #-3375	; 4d8 <Code_72+0x4>

000004d4 <Code_72>:
     4d4:	b500      	push	{lr}
     4d6:	b440      	push	{r6}
     4d8:	cf40      	ldmia	r7!, {r6}
     4da:	f7ff ff77 	bl	3cc <Code_48>
     4de:	f847 6d04 	str.w	r6, [r7, #-4]!
     4e2:	bc40      	pop	{r6}
     4e4:	f000 f83a 	bl	55c <Code_90>
     4e8:	bd00      	pop	{pc}

000004ea <Dictionary_76>:
     4ea:	0000050c 	andeq	r0, r0, ip, lsl #10
     4ee:	75030043 	strvc	r0, [r3, #-67]	; 0x43
     4f2:	b5002f2a 	strlt	r2, [r0, #-3882]	; 0xf2a

000004f4 <Code_76>:
     4f4:	b500      	push	{lr}
     4f6:	b440      	push	{r6}
     4f8:	cf40      	ldmia	r7!, {r6}
     4fa:	f7ff ff5d 	bl	3b8 <Code_47>
     4fe:	f847 6d04 	str.w	r6, [r7, #-4]!
     502:	bc40      	pop	{r6}
     504:	f000 f81b 	bl	53e <Code_85>
     508:	3704      	adds	r7, #4
     50a:	bd00      	pop	{pc}

0000050c <Dictionary_81>:
     50c:	00000530 	andeq	r0, r0, r0, lsr r5
     510:	75060043 	strvc	r0, [r6, #-67]	; 0x43
     514:	6f6d2f2a 	svcvs	0x006d2f2a
     518:	b5000064 	strlt	r0, [r0, #-100]	; 0x64

0000051a <Code_81>:
     51a:	b500      	push	{lr}
     51c:	b440      	push	{r6}
     51e:	cf40      	ldmia	r7!, {r6}
     520:	f7ff ff4a 	bl	3b8 <Code_47>
     524:	f847 6d04 	str.w	r6, [r7, #-4]!
     528:	bc40      	pop	{r6}
     52a:	f000 f808 	bl	53e <Code_85>
     52e:	bd00      	pop	{pc}

00000530 <Dictionary_85>:
     530:	00000550 	andeq	r0, r0, r0, asr r5
     534:	75060043 	strvc	r0, [r6, #-67]	; 0x43
     538:	6f6d2f6d 	svcvs	0x006d2f6d
     53c:	b5000064 	strlt	r0, [r0, #-100]	; 0x64

0000053e <Code_85>:
     53e:	b500      	push	{lr}
     540:	f847 6d04 	str.w	r6, [r7, #-4]!
     544:	2600      	movs	r6, #0
     546:	f000 f819 	bl	57c <Code_94>
     54a:	cf40      	ldmia	r7!, {r6}
     54c:	3704      	adds	r7, #4
     54e:	bd00      	pop	{pc}

00000550 <Dictionary_90>:
     550:	0000056e 	andeq	r0, r0, lr, ror #10
     554:	6d050043 	stcvs	0, cr0, [r5, #-268]	; 0xfffffef4
     558:	646f6d2f 	strbtvs	r6, [pc], #-3375	; 560 <Code_90+0x4>

0000055c <Code_90>:
     55c:	b500      	push	{lr}
     55e:	f847 6d04 	str.w	r6, [r7, #-4]!
     562:	17f6      	asrs	r6, r6, #31
     564:	f000 f832 	bl	5cc <Code_96>
     568:	cf40      	ldmia	r7!, {r6}
     56a:	3704      	adds	r7, #4
     56c:	bd00      	pop	{pc}

0000056e <Dictionary_94>:
     56e:	000005c0 	andeq	r0, r0, r0, asr #11
     572:	75060044 	strvc	r0, [r6, #-68]	; 0x44
     576:	6f6d2f64 	svcvs	0x006d2f64
     57a:	b4300064 	ldrtlt	r0, [r0], #-100	; 0x64

0000057c <Code_94>:
     57c:	b430      	push	{r4, r5}
     57e:	2300      	movs	r3, #0
     580:	2200      	movs	r2, #0
     582:	6879      	ldr	r1, [r7, #4]
     584:	68b8      	ldr	r0, [r7, #8]

00000586 <ud_slash_mod_internal>:
     586:	0035      	movs	r5, r6
     588:	683c      	ldr	r4, [r7, #0]
     58a:	2640      	movs	r6, #64	; 0x40
     58c:	0040      	lsls	r0, r0, #1
     58e:	4149      	adcs	r1, r1
     590:	4152      	adcs	r2, r2
     592:	415b      	adcs	r3, r3
     594:	42ab      	cmp	r3, r5
     596:	d802      	bhi.n	59e <ud_slash_mod_internal+0x18>
     598:	d304      	bcc.n	5a4 <ud_slash_mod_internal+0x1e>
     59a:	42a2      	cmp	r2, r4
     59c:	d302      	bcc.n	5a4 <ud_slash_mod_internal+0x1e>
     59e:	1b12      	subs	r2, r2, r4
     5a0:	41ab      	sbcs	r3, r5
     5a2:	3001      	adds	r0, #1
     5a4:	3e01      	subs	r6, #1
     5a6:	d1f1      	bne.n	58c <ud_slash_mod_internal+0x6>
     5a8:	000e      	movs	r6, r1
     5aa:	6038      	str	r0, [r7, #0]
     5ac:	607b      	str	r3, [r7, #4]
     5ae:	60ba      	str	r2, [r7, #8]
     5b0:	bc30      	pop	{r4, r5}
     5b2:	4770      	bx	lr

000005b4 <uf_slash_mod>:
     5b4:	b430      	push	{r4, r5}
     5b6:	2300      	movs	r3, #0
     5b8:	687a      	ldr	r2, [r7, #4]
     5ba:	68b9      	ldr	r1, [r7, #8]
     5bc:	2000      	movs	r0, #0
     5be:	e7e2      	b.n	586 <ud_slash_mod_internal>

000005c0 <Dictionary_96>:
     5c0:	00000636 	andeq	r0, r0, r6, lsr r6
     5c4:	64050044 	strvs	r0, [r5], #-68	; 0x44
     5c8:	646f6d2f 	strbtvs	r6, [pc], #-3375	; 5d0 <Code_96+0x4>

000005cc <Code_96>:
     5cc:	b500      	push	{lr}
     5ce:	17f0      	asrs	r0, r6, #31
     5d0:	d019      	beq.n	606 <Code_96+0x3a>
     5d2:	f7ff fec4 	bl	35e <Code_42>
     5d6:	f7ff fe05 	bl	1e4 <Code_21>
     5da:	17f0      	asrs	r0, r6, #31
     5dc:	d00c      	beq.n	5f8 <Code_96+0x2c>
     5de:	f7ff febe 	bl	35e <Code_42>
     5e2:	f7ff fdff 	bl	1e4 <Code_21>
     5e6:	f7ff ffc9 	bl	57c <Code_94>
     5ea:	f7ff fdfb 	bl	1e4 <Code_21>
     5ee:	f7ff feb6 	bl	35e <Code_42>
     5f2:	f7ff fdf7 	bl	1e4 <Code_21>
     5f6:	bd00      	pop	{pc}
     5f8:	f7ff fdf4 	bl	1e4 <Code_21>
     5fc:	f7ff ffbe 	bl	57c <Code_94>
     600:	f7ff fead 	bl	35e <Code_42>
     604:	bd00      	pop	{pc}
     606:	f7ff fded 	bl	1e4 <Code_21>
     60a:	17f0      	asrs	r0, r6, #31
     60c:	d00e      	beq.n	62c <Code_96+0x60>
     60e:	f7ff fea6 	bl	35e <Code_42>
     612:	f7ff fde7 	bl	1e4 <Code_21>
     616:	f7ff ffb1 	bl	57c <Code_94>
     61a:	f7ff fea0 	bl	35e <Code_42>
     61e:	f7ff fde1 	bl	1e4 <Code_21>
     622:	f7ff fe9c 	bl	35e <Code_42>
     626:	f7ff fddd 	bl	1e4 <Code_21>
     62a:	bd00      	pop	{pc}
     62c:	f7ff fdda 	bl	1e4 <Code_21>
     630:	f7ff ffa4 	bl	57c <Code_94>
     634:	bd00      	pop	{pc}

00000636 <Dictionary_97>:
     636:	0000064c 	andeq	r0, r0, ip, asr #12
     63a:	64020044 	strvs	r0, [r2], #-68	; 0x44
     63e:	b500002f 	strlt	r0, [r0, #-47]	; 0x2f

00000640 <Code_97>:
     640:	b500      	push	{lr}
     642:	f7ff ffc3 	bl	5cc <Code_96>
     646:	f7ff fddc 	bl	202 <Code_23>
     64a:	bd00      	pop	{pc}

0000064c <Dictionary_98>:
     64c:	00000694 	muleq	r0, r4, r6
     650:	66020044 	strvs	r0, [r2], -r4, asr #32
     654:	b500002a 	strlt	r0, [r0, #-42]	; 0x2a

00000656 <Code_98>:
     656:	b500      	push	{lr}
     658:	17f0      	asrs	r0, r6, #31
     65a:	d00d      	beq.n	678 <Code_98+0x22>
     65c:	f7ff fe7f 	bl	35e <Code_42>
     660:	f7ff fdc0 	bl	1e4 <Code_21>
     664:	17f0      	asrs	r0, r6, #31
     666:	d00d      	beq.n	684 <Code_98+0x2e>
     668:	f7ff fe79 	bl	35e <Code_42>
     66c:	f7ff fed8 	bl	420 <Code_50>
     670:	cf40      	ldmia	r7!, {r6}
     672:	cf01      	ldmia	r7!, {r0}
     674:	6038      	str	r0, [r7, #0]
     676:	bd00      	pop	{pc}
     678:	f7ff fdb4 	bl	1e4 <Code_21>
     67c:	17f0      	asrs	r0, r6, #31
     67e:	d0f5      	beq.n	66c <Code_98+0x16>
     680:	f7ff fe6d 	bl	35e <Code_42>
     684:	f7ff fecc 	bl	420 <Code_50>
     688:	cf40      	ldmia	r7!, {r6}
     68a:	cf01      	ldmia	r7!, {r0}
     68c:	6038      	str	r0, [r7, #0]
     68e:	f7ff fe66 	bl	35e <Code_42>
     692:	bd00      	pop	{pc}

00000694 <Dictionary_101>:
     694:	000006e0 	andeq	r0, r0, r0, ror #13
     698:	66020044 	strvs	r0, [r2], -r4, asr #32
     69c:	b500002f 	strlt	r0, [r0, #-47]	; 0x2f

0000069e <Code_101>:
     69e:	b500      	push	{lr}
     6a0:	17f0      	asrs	r0, r6, #31
     6a2:	d00e      	beq.n	6c2 <Code_101+0x24>
     6a4:	f7ff fe5b 	bl	35e <Code_42>
     6a8:	f7ff fd9c 	bl	1e4 <Code_21>
     6ac:	17f0      	asrs	r0, r6, #31
     6ae:	d00e      	beq.n	6ce <Code_101+0x30>
     6b0:	f7ff fe55 	bl	35e <Code_42>
     6b4:	f7ff fd96 	bl	1e4 <Code_21>
     6b8:	f7ff ff7c 	bl	5b4 <uf_slash_mod>
     6bc:	f7ff fda1 	bl	202 <Code_23>
     6c0:	bd00      	pop	{pc}
     6c2:	f7ff fd8f 	bl	1e4 <Code_21>
     6c6:	17f0      	asrs	r0, r6, #31
     6c8:	d0f4      	beq.n	6b4 <Code_101+0x16>
     6ca:	f7ff fe48 	bl	35e <Code_42>
     6ce:	f7ff fd89 	bl	1e4 <Code_21>
     6d2:	f7ff ff6f 	bl	5b4 <uf_slash_mod>
     6d6:	f7ff fe42 	bl	35e <Code_42>
     6da:	f7ff fd92 	bl	202 <Code_23>
     6de:	bd00      	pop	{pc}

000006e0 <Dictionary_102>:
     6e0:	000006f4 	strdeq	r0, [r0], -r4
     6e4:	32020020 	andcc	r0, r2, #32
     6e8:	cf060021 	svcgt	0x00060021

000006ea <Code_102>:
     6ea:	cf06      	ldmia	r7!, {r1, r2}
     6ec:	6031      	str	r1, [r6, #0]
     6ee:	6072      	str	r2, [r6, #4]
     6f0:	cf40      	ldmia	r7!, {r6}
     6f2:	4770      	bx	lr

000006f4 <Dictionary_104>:
     6f4:	00000708 	andeq	r0, r0, r8, lsl #14
     6f8:	32020020 	andcc	r0, r2, #32
     6fc:	3f040040 	svccc	0x00040040

000006fe <Code_104>:
     6fe:	3f04      	subs	r7, #4
     700:	6870      	ldr	r0, [r6, #4]
     702:	6038      	str	r0, [r7, #0]
     704:	6836      	ldr	r6, [r6, #0]
     706:	4770      	bx	lr

00000708 <Dictionary_105>:
     708:	00000728 	andeq	r0, r0, r8, lsr #14
     70c:	64030044 	strvs	r0, [r3], #-68	; 0x44
     710:	cf073c75 	svcgt	0x00073c75

00000712 <Code_105>:
     712:	cf07      	ldmia	r7!, {r0, r1, r2}
     714:	428e      	cmp	r6, r1
     716:	d804      	bhi.n	722 <Code_105+0x10>
     718:	d101      	bne.n	71e <Code_105+0xc>
     71a:	4290      	cmp	r0, r2
     71c:	d801      	bhi.n	722 <Code_105+0x10>
     71e:	2600      	movs	r6, #0
     720:	4770      	bx	lr
     722:	2600      	movs	r6, #0
     724:	43f6      	mvns	r6, r6
     726:	4770      	bx	lr

00000728 <Dictionary_106>:
     728:	00000748 	andeq	r0, r0, r8, asr #14
     72c:	64030044 	strvs	r0, [r3], #-68	; 0x44
     730:	cf073e75 	svcgt	0x00073e75

00000732 <Code_106>:
     732:	cf07      	ldmia	r7!, {r0, r1, r2}
     734:	42b1      	cmp	r1, r6
     736:	d804      	bhi.n	742 <Code_106+0x10>
     738:	d101      	bne.n	73e <Code_106+0xc>
     73a:	4282      	cmp	r2, r0
     73c:	d801      	bhi.n	742 <Code_106+0x10>
     73e:	2600      	movs	r6, #0
     740:	4770      	bx	lr
     742:	2600      	movs	r6, #0
     744:	43f6      	mvns	r6, r6
     746:	4770      	bx	lr

00000748 <Dictionary_107>:
     748:	00000768 	andeq	r0, r0, r8, ror #14
     74c:	64020044 	strvs	r0, [r2], #-68	; 0x44
     750:	cf07003c 	svcgt	0x0007003c

00000752 <Code_107>:
     752:	cf07      	ldmia	r7!, {r0, r1, r2}
     754:	428e      	cmp	r6, r1
     756:	dc04      	bgt.n	762 <Code_107+0x10>
     758:	d101      	bne.n	75e <Code_107+0xc>
     75a:	4290      	cmp	r0, r2
     75c:	dc01      	bgt.n	762 <Code_107+0x10>
     75e:	2600      	movs	r6, #0
     760:	4770      	bx	lr
     762:	2600      	movs	r6, #0
     764:	43f6      	mvns	r6, r6
     766:	4770      	bx	lr

00000768 <Dictionary_108>:
     768:	00000788 	andeq	r0, r0, r8, lsl #15
     76c:	64020044 	strvs	r0, [r2], #-68	; 0x44
     770:	cf07003e 	svcgt	0x0007003e

00000772 <Code_108>:
     772:	cf07      	ldmia	r7!, {r0, r1, r2}
     774:	42b1      	cmp	r1, r6
     776:	dc04      	bgt.n	782 <Code_108+0x10>
     778:	d101      	bne.n	77e <Code_108+0xc>
     77a:	4282      	cmp	r2, r0
     77c:	dc01      	bgt.n	782 <Code_108+0x10>
     77e:	2600      	movs	r6, #0
     780:	4770      	bx	lr
     782:	2600      	movs	r6, #0
     784:	43f6      	mvns	r6, r6
     786:	4770      	bx	lr

00000788 <Dictionary_109>:
     788:	00000798 	muleq	r0, r8, r7
     78c:	64030062 	strvs	r0, [r3], #-98	; 0x62
     790:	37043c30 	smladxcc	r4, r0, ip, r3

00000792 <Code_109>:
     792:	3704      	adds	r7, #4
     794:	17f6      	asrs	r6, r6, #31
     796:	4770      	bx	lr

00000798 <Dictionary_110>:
     798:	000007ac 	andeq	r0, r0, ip, lsr #15
     79c:	64030062 	strvs	r0, [r3], #-98	; 0x62
     7a0:	cf013d30 	svcgt	0x00013d30

000007a2 <Code_110>:
     7a2:	cf01      	ldmia	r7!, {r0}
     7a4:	4306      	orrs	r6, r0
     7a6:	3e01      	subs	r6, #1
     7a8:	41b6      	sbcs	r6, r6
     7aa:	4770      	bx	lr

000007ac <Dictionary_111>:
     7ac:	000007c6 	andeq	r0, r0, r6, asr #15
     7b0:	64030044 	strvs	r0, [r3], #-68	; 0x44
     7b4:	cf073e3c 	svcgt	0x00073e3c

000007b6 <Code_111>:
     7b6:	cf07      	ldmia	r7!, {r0, r1, r2}
     7b8:	4050      	eors	r0, r2
     7ba:	404e      	eors	r6, r1
     7bc:	4306      	orrs	r6, r0
     7be:	3e01      	subs	r6, #1
     7c0:	41b6      	sbcs	r6, r6
     7c2:	43f6      	mvns	r6, r6
     7c4:	4770      	bx	lr

000007c6 <Dictionary_112>:
     7c6:	000007de 	ldrdeq	r0, [r0], -lr
     7ca:	64020044 	strvs	r0, [r2], #-68	; 0x44
     7ce:	cf07003d 	svcgt	0x0007003d

000007d0 <Code_112>:
     7d0:	cf07      	ldmia	r7!, {r0, r1, r2}
     7d2:	4050      	eors	r0, r2
     7d4:	404e      	eors	r6, r1
     7d6:	4306      	orrs	r6, r0
     7d8:	3e01      	subs	r6, #1
     7da:	41b6      	sbcs	r6, r6
     7dc:	4770      	bx	lr

000007de <Dictionary_113>:
     7de:	000007f0 	strdeq	r0, [r0], -r0	; <UNPREDICTABLE>
     7e2:	73030020 	movwvc	r0, #12320	; 0x3020
     7e6:	f8474070 			; <UNDEFINED> instruction: 0xf8474070

000007e8 <Code_113>:
     7e8:	f847 6d04 	str.w	r6, [r7, #-4]!
     7ec:	003e      	movs	r6, r7
     7ee:	4770      	bx	lr

000007f0 <Dictionary_115>:
     7f0:	00000800 	andeq	r0, r0, r0, lsl #16
     7f4:	73030020 	movwvc	r0, #12320	; 0x3020
     7f8:	00372170 	eorseq	r2, r7, r0, ror r1

000007fa <Code_115>:
     7fa:	0037      	movs	r7, r6
     7fc:	cf40      	ldmia	r7!, {r6}
     7fe:	4770      	bx	lr

00000800 <Dictionary_116>:
     800:	00000812 	andeq	r0, r0, r2, lsl r8
     804:	72030020 	andvc	r0, r3, #32
     808:	f8474070 			; <UNDEFINED> instruction: 0xf8474070

0000080a <Code_116>:
     80a:	f847 6d04 	str.w	r6, [r7, #-4]!
     80e:	466e      	mov	r6, sp
     810:	4770      	bx	lr

00000812 <Dictionary_118>:
     812:	00000822 	andeq	r0, r0, r2, lsr #16
     816:	72030020 	andvc	r0, r3, #32
     81a:	46b52170 			; <UNDEFINED> instruction: 0x46b52170

0000081c <Code_118>:
     81c:	46b5      	mov	sp, r6
     81e:	cf40      	ldmia	r7!, {r6}
     820:	4770      	bx	lr

00000822 <Dictionary_119>:
     822:	00000832 	andeq	r0, r0, r2, lsr r8
     826:	64030061 	strvs	r0, [r3], #-97	; 0x61
     82a:	f8477075 			; <UNDEFINED> instruction: 0xf8477075

0000082c <Code_119>:
     82c:	f847 6d04 	str.w	r6, [r7, #-4]!
     830:	4770      	bx	lr

00000832 <Dictionary_122>:
     832:	00000842 	andeq	r0, r0, r2, asr #16
     836:	64040061 	strvs	r0, [r4], #-97	; 0x61
     83a:	00706f72 	rsbseq	r6, r0, r2, ror pc

0000083e <Code_122>:
     83e:	cf40      	ldmia	r7!, {r6}
     840:	4770      	bx	lr

00000842 <Dictionary_124>:
     842:	00000858 	andeq	r0, r0, r8, asr r8
     846:	3f040061 	svccc	0x00040061
     84a:	00707564 	rsbseq	r7, r0, r4, ror #10

0000084e <Code_124>:
     84e:	2e00      	cmp	r6, #0
     850:	d001      	beq.n	856 <Code_124+0x8>
     852:	f847 6d04 	str.w	r6, [r7, #-4]!
     856:	4770      	bx	lr

00000858 <Dictionary_126>:
     858:	0000086c 	andeq	r0, r0, ip, ror #16
     85c:	73040062 	movwvc	r0, #16482	; 0x4062
     860:	00706177 	rsbseq	r6, r0, r7, ror r1

00000864 <Code_126>:
     864:	6839      	ldr	r1, [r7, #0]
     866:	603e      	str	r6, [r7, #0]
     868:	000e      	movs	r6, r1
     86a:	4770      	bx	lr

0000086c <Dictionary_127>:
     86c:	0000087a 	andeq	r0, r0, sl, ror r8
     870:	6e030062 	cdpvs	0, 0, cr0, cr3, cr2, {3}
     874:	37047069 	strcc	r7, [r4, -r9, rrx]

00000876 <Code_127>:
     876:	3704      	adds	r7, #4
     878:	4770      	bx	lr

0000087a <Dictionary_129>:
     87a:	0000088e 	andeq	r0, r0, lr, lsl #17
     87e:	6f040062 	svcvs	0x00040062
     882:	00726576 	rsbseq	r6, r2, r6, ror r5

00000886 <Code_129>:
     886:	f847 6d04 	str.w	r6, [r7, #-4]!
     88a:	687e      	ldr	r6, [r7, #4]
     88c:	4770      	bx	lr

0000088e <Dictionary_131>:
     88e:	000008a4 	andeq	r0, r0, r4, lsr #17
     892:	74040062 	strvc	r0, [r4], #-98	; 0x62
     896:	006b6375 	rsbeq	r6, fp, r5, ror r3

0000089a <Code_131>:
     89a:	cf01      	ldmia	r7!, {r0}
     89c:	3f08      	subs	r7, #8
     89e:	607e      	str	r6, [r7, #4]
     8a0:	6038      	str	r0, [r7, #0]
     8a2:	4770      	bx	lr

000008a4 <Dictionary_132>:
     8a4:	000008ba 			; <UNDEFINED> instruction: 0x000008ba
     8a8:	72030063 	andvc	r0, r3, #99	; 0x63
     8ac:	cf03746f 	svcgt	0x0003746f

000008ae <Code_132>:
     8ae:	cf03      	ldmia	r7!, {r0, r1}
     8b0:	3f08      	subs	r7, #8
     8b2:	6078      	str	r0, [r7, #4]
     8b4:	603e      	str	r6, [r7, #0]
     8b6:	000e      	movs	r6, r1
     8b8:	4770      	bx	lr

000008ba <Dictionary_133>:
     8ba:	000008d2 	ldrdeq	r0, [r0], -r2
     8be:	2d040063 	stccs	0, cr0, [r4, #-396]	; 0xfffffe74
     8c2:	00746f72 	rsbseq	r6, r4, r2, ror pc

000008c6 <Code_133>:
     8c6:	cf03      	ldmia	r7!, {r0, r1}
     8c8:	3f08      	subs	r7, #8
     8ca:	607e      	str	r6, [r7, #4]
     8cc:	6039      	str	r1, [r7, #0]
     8ce:	0006      	movs	r6, r0
     8d0:	4770      	bx	lr

000008d2 <Dictionary_134>:
     8d2:	000008e4 	andeq	r0, r0, r4, ror #17
     8d6:	70040020 	andvc	r0, r4, r0, lsr #32
     8da:	006b6369 	rsbeq	r6, fp, r9, ror #6

000008de <Code_134>:
     8de:	f857 6026 	ldr.w	r6, [r7, r6, lsl #2]
     8e2:	4770      	bx	lr

000008e4 <Dictionary_135>:
     8e4:	000008fc 	strdeq	r0, [r0], -ip
     8e8:	64050000 	strvs	r0, [r5]
     8ec:	68747065 	ldmdavs	r4!, {r0, r2, r5, r6, ip, sp, lr}^

000008f0 <Code_135>:
     8f0:	49bc      	ldr	r1, [pc, #752]	; (be4 <Code_179+0xc>)
     8f2:	1bc9      	subs	r1, r1, r7
     8f4:	f847 6d04 	str.w	r6, [r7, #-4]!
     8f8:	088e      	lsrs	r6, r1, #2
     8fa:	4770      	bx	lr

000008fc <Dictionary_137>:
     8fc:	00000918 	andeq	r0, r0, r8, lsl r9
     900:	72060000 	andvc	r0, r6, #0
     904:	74706564 	ldrbtvc	r6, [r0], #-1380	; 0x564
     908:	f8470068 			; <UNDEFINED> instruction: 0xf8470068

0000090a <Code_137>:
     90a:	f847 6d04 	str.w	r6, [r7, #-4]!
     90e:	466e      	mov	r6, sp
     910:	49b5      	ldr	r1, [pc, #724]	; (be8 <Code_179+0x10>)
     912:	1b89      	subs	r1, r1, r6
     914:	088e      	lsrs	r6, r1, #2
     916:	4770      	bx	lr

00000918 <Dictionary_139>:
     918:	00000928 	andeq	r0, r0, r8, lsr #18
     91c:	3e020020 	cdpcc	0, 0, cr0, cr2, cr0, {1}
     920:	b4400072 	strblt	r0, [r0], #-114	; 0x72

00000922 <Code_139>:
     922:	b440      	push	{r6}
     924:	cf40      	ldmia	r7!, {r6}
     926:	4770      	bx	lr

00000928 <Dictionary_140>:
     928:	0000093a 	andeq	r0, r0, sl, lsr r9
     92c:	72020020 	andvc	r0, r2, #32
     930:	f847003e 			; <UNDEFINED> instruction: 0xf847003e

00000932 <Code_140>:
     932:	f847 6d04 	str.w	r6, [r7, #-4]!
     936:	bc40      	pop	{r6}
     938:	4770      	bx	lr

0000093a <Dictionary_142>:
     93a:	0000094c 	andeq	r0, r0, ip, asr #18
     93e:	72020020 	andvc	r0, r2, #32
     942:	f8470040 			; <UNDEFINED> instruction: 0xf8470040

00000944 <Code_142>:
     944:	f847 6d04 	str.w	r6, [r7, #-4]!
     948:	9e00      	ldr	r6, [sp, #0]
     94a:	4770      	bx	lr

0000094c <Dictionary_144>:
     94c:	0000095c 	andeq	r0, r0, ip, asr r9
     950:	72050020 	andvc	r0, r5, #32
     954:	706f7264 	rsbvc	r7, pc, r4, ror #4

00000958 <Code_144>:
     958:	b001      	add	sp, #4
     95a:	4770      	bx	lr

0000095c <Dictionary_145>:
     95c:	00000970 	andeq	r0, r0, r0, ror r9
     960:	72050020 	andvc	r0, r5, #32
     964:	6b636970 	blvs	18daf2c <BIT24+0x8daf2c>

00000968 <Code_145>:
     968:	00b6      	lsls	r6, r6, #2
     96a:	446e      	add	r6, sp
     96c:	6836      	ldr	r6, [r6, #0]
     96e:	4770      	bx	lr

00000970 <Dictionary_146>:
     970:	00000986 	andeq	r0, r0, r6, lsl #19
     974:	6103006e 	tstvs	r3, lr, rrx
     978:	cf01646e 	svcgt	0x0001646e

0000097a <Code_146>:
     97a:	cf01      	ldmia	r7!, {r0}
     97c:	4006      	ands	r6, r0
     97e:	4770      	bx	lr
     980:	4006      	ands	r6, r0
     982:	f0160600 			; <UNDEFINED> instruction: 0xf0160600

00000986 <Dictionary_147>:
     986:	0000099e 	muleq	r0, lr, r9
     98a:	6203006e 	andvs	r0, r3, #110	; 0x6e
     98e:	cf016369 	svcgt	0x00016369

00000990 <Code_147>:
     990:	cf01      	ldmia	r7!, {r0}
     992:	43b0      	bics	r0, r6
     994:	0006      	movs	r6, r0
     996:	4770      	bx	lr
     998:	4386      	bics	r6, r0
     99a:	f0360600 			; <UNDEFINED> instruction: 0xf0360600

0000099e <Dictionary_148>:
     99e:	000009b4 			; <UNDEFINED> instruction: 0x000009b4
     9a2:	6f02006e 	svcvs	0x0002006e
     9a6:	cf010072 	svcgt	0x00010072

000009a8 <Code_148>:
     9a8:	cf01      	ldmia	r7!, {r0}
     9aa:	4306      	orrs	r6, r0
     9ac:	4770      	bx	lr
     9ae:	4306      	orrs	r6, r0
     9b0:	f0560600 			; <UNDEFINED> instruction: 0xf0560600

000009b4 <Dictionary_149>:
     9b4:	000009ca 	andeq	r0, r0, sl, asr #19
     9b8:	7803006e 	stmdavc	r3, {r1, r2, r3, r5, r6}
     9bc:	cf01726f 	svcgt	0x0001726f

000009be <Code_149>:
     9be:	cf01      	ldmia	r7!, {r0}
     9c0:	4046      	eors	r6, r0
     9c2:	4770      	bx	lr
     9c4:	4046      	eors	r6, r0
     9c6:	f0960600 			; <UNDEFINED> instruction: 0xf0960600

000009ca <Dictionary_150>:
     9ca:	000009d8 	ldrdeq	r0, [r0], -r8
     9ce:	6e030061 	cdpvs	0, 0, cr0, cr3, cr1, {3}
     9d2:	43f6746f 	mvnsmi	r7, #1862270976	; 0x6f000000

000009d4 <Code_150>:
     9d4:	43f6      	mvns	r6, r6
     9d6:	4770      	bx	lr

000009d8 <Dictionary_151>:
     9d8:	000009e8 	andeq	r0, r0, r8, ror #19
     9dc:	63030061 	movwvs	r0, #12385	; 0x3061
     9e0:	fab67a6c 	blx	fed9f398 <BIT31+0x7ed9f398>

000009e2 <Code_151>:
     9e2:	fab6 f686 	clz	r6, r6
     9e6:	4770      	bx	lr

000009e8 <Dictionary_152>:
     9e8:	000009f6 	strdeq	r0, [r0], -r6
     9ec:	73030061 	movwvc	r0, #12385	; 0x3061
     9f0:	08767268 	ldmdaeq	r6!, {r3, r5, r6, r9, ip, sp, lr}^

000009f2 <Code_152>:
     9f2:	0876      	lsrs	r6, r6, #1
     9f4:	4770      	bx	lr

000009f6 <Dictionary_153>:
     9f6:	00000a04 	andeq	r0, r0, r4, lsl #20
     9fa:	73030061 	movwvc	r0, #12385	; 0x3061
     9fe:	00766c68 	rsbseq	r6, r6, r8, ror #24

00000a00 <Code_153>:
     a00:	0076      	lsls	r6, r6, #1
     a02:	4770      	bx	lr

00000a04 <Dictionary_154>:
     a04:	00000a14 	andeq	r0, r0, r4, lsl sl
     a08:	72030061 	andvc	r0, r3, #97	; 0x61
     a0c:	ea5f726f 	b	17dd3d0 <BIT24+0x7dd3d0>

00000a0e <Code_154>:
     a0e:	ea5f 0676 	movs.w	r6, r6, ror #1
     a12:	4770      	bx	lr

00000a14 <Dictionary_155>:
     a14:	00000a26 	andeq	r0, r0, r6, lsr #20
     a18:	72030061 	andvc	r0, r3, #97	; 0x61
     a1c:	19b66c6f 	ldmibne	r6!, {r0, r1, r2, r3, r5, r6, sl, fp, sp, lr}

00000a1e <Code_155>:
     a1e:	19b6      	adds	r6, r6, r6
     a20:	f156 0600 	adcs.w	r6, r6, #0
     a24:	4770      	bx	lr

00000a26 <Dictionary_156>:
     a26:	00000a40 	andeq	r0, r0, r0, asr #20
     a2a:	7206006c 	andvc	r0, r6, #108	; 0x6c
     a2e:	66696873 			; <UNDEFINED> instruction: 0x66696873
     a32:	cf010074 	svcgt	0x00010074

00000a34 <Code_156>:
     a34:	cf01      	ldmia	r7!, {r0}
     a36:	40f0      	lsrs	r0, r6
     a38:	0006      	movs	r6, r0
     a3a:	4770      	bx	lr
     a3c:	26000836 			; <UNDEFINED> instruction: 0x26000836

00000a40 <Dictionary_157>:
     a40:	00000a5a 	andeq	r0, r0, sl, asr sl
     a44:	6107006c 	tstvs	r7, ip, rrx
     a48:	69687372 	stmdbvs	r8!, {r1, r4, r5, r6, r8, r9, ip, sp, lr}^
     a4c:	cf017466 	svcgt	0x00017466

00000a4e <Code_157>:
     a4e:	cf01      	ldmia	r7!, {r0}
     a50:	4130      	asrs	r0, r6
     a52:	0006      	movs	r6, r0
     a54:	4770      	bx	lr
     a56:	17f61036 			; <UNDEFINED> instruction: 0x17f61036

00000a5a <Dictionary_158>:
     a5a:	00000a74 	andeq	r0, r0, r4, ror sl
     a5e:	6c06006c 	stcvs	0, cr0, [r6], {108}	; 0x6c
     a62:	66696873 			; <UNDEFINED> instruction: 0x66696873
     a66:	cf010074 	svcgt	0x00010074

00000a68 <Code_158>:
     a68:	cf01      	ldmia	r7!, {r0}
     a6a:	40b0      	lsls	r0, r6
     a6c:	0006      	movs	r6, r0
     a6e:	4770      	bx	lr
     a70:	26000036 			; <UNDEFINED> instruction: 0x26000036

00000a74 <Dictionary_159>:
     a74:	00000a84 	andeq	r0, r0, r4, lsl #21
     a78:	30020061 	andcc	r0, r2, r1, rrx
     a7c:	3e01003d 	mcrcc	0, 0, r0, cr1, cr13, {1}

00000a7e <Code_159>:
     a7e:	3e01      	subs	r6, #1
     a80:	41b6      	sbcs	r6, r6
     a82:	4770      	bx	lr

00000a84 <Dictionary_160>:
     a84:	00000a96 	muleq	r0, r6, sl
     a88:	30030061 	andcc	r0, r3, r1, rrx
     a8c:	3e013e3c 	mcrcc	14, 0, r3, cr1, cr12, {1}

00000a8e <Code_160>:
     a8e:	3e01      	subs	r6, #1
     a90:	41b6      	sbcs	r6, r6
     a92:	43f6      	mvns	r6, r6
     a94:	4770      	bx	lr

00000a96 <Dictionary_161>:
     a96:	00000aa4 	andeq	r0, r0, r4, lsr #21
     a9a:	30020061 	andcc	r0, r2, r1, rrx
     a9e:	17f6003c 			; <UNDEFINED> instruction: 0x17f6003c

00000aa0 <Code_161>:
     aa0:	17f6      	asrs	r6, r6, #31
     aa2:	4770      	bx	lr

00000aa4 <Dictionary_162>:
     aa4:	00000aba 			; <UNDEFINED> instruction: 0x00000aba
     aa8:	74040060 	strvc	r0, [r4], #-96	; 0x60
     aac:	00657572 	rsbeq	r7, r5, r2, ror r5

00000ab0 <Code_162>:
     ab0:	f847 6d04 	str.w	r6, [r7, #-4]!

00000ab4 <generate_true>:
     ab4:	2600      	movs	r6, #0
     ab6:	43f6      	mvns	r6, r6
     ab8:	4770      	bx	lr

00000aba <Dictionary_164>:
     aba:	00000ace 	andeq	r0, r0, lr, asr #21
     abe:	66050060 	strvs	r0, [r5], -r0, rrx
     ac2:	65736c61 	ldrbvs	r6, [r3, #-3169]!	; 0xc61

00000ac6 <Code_164>:
     ac6:	f847 6d04 	str.w	r6, [r7, #-4]!
     aca:	2600      	movs	r6, #0
     acc:	4770      	bx	lr

00000ace <Dictionary_166>:
     ace:	00000ae2 	andeq	r0, r0, r2, ror #21
     ad2:	3e020042 	cdpcc	0, 0, cr0, cr2, cr2, {2}
     ad6:	cf01003d 	svcgt	0x0001003d

00000ad8 <Code_166>:
     ad8:	cf01      	ldmia	r7!, {r0}
     ada:	42b0      	cmp	r0, r6
     adc:	daea      	bge.n	ab4 <generate_true>
     ade:	2600      	movs	r6, #0
     ae0:	4770      	bx	lr

00000ae2 <Dictionary_167>:
     ae2:	00000af6 	strdeq	r0, [r0], -r6
     ae6:	3c020042 	stccc	0, cr0, [r2], {66}	; 0x42
     aea:	cf01003d 	svcgt	0x0001003d

00000aec <Code_167>:
     aec:	cf01      	ldmia	r7!, {r0}
     aee:	42b0      	cmp	r0, r6
     af0:	dde0      	ble.n	ab4 <generate_true>
     af2:	2600      	movs	r6, #0
     af4:	4770      	bx	lr

00000af6 <Dictionary_168>:
     af6:	00000b08 	andeq	r0, r0, r8, lsl #22
     afa:	3c010042 	stccc	0, cr0, [r1], {66}	; 0x42

00000afe <Code_168>:
     afe:	cf01      	ldmia	r7!, {r0}
     b00:	42b0      	cmp	r0, r6
     b02:	dbd7      	blt.n	ab4 <generate_true>
     b04:	2600      	movs	r6, #0
     b06:	4770      	bx	lr

00000b08 <Dictionary_169>:
     b08:	00000b1a 	andeq	r0, r0, sl, lsl fp
     b0c:	3e010042 	cdpcc	0, 0, cr0, cr1, cr2, {2}

00000b10 <Code_169>:
     b10:	cf01      	ldmia	r7!, {r0}
     b12:	42b0      	cmp	r0, r6
     b14:	dcce      	bgt.n	ab4 <generate_true>
     b16:	2600      	movs	r6, #0
     b18:	4770      	bx	lr

00000b1a <Dictionary_170>:
     b1a:	00000b2e 	andeq	r0, r0, lr, lsr #22
     b1e:	75030062 	strvc	r0, [r3, #-98]	; 0x62
     b22:	cf013d3e 	svcgt	0x00013d3e

00000b24 <Code_170>:
     b24:	cf01      	ldmia	r7!, {r0}
     b26:	1b86      	subs	r6, r0, r6
     b28:	41b6      	sbcs	r6, r6
     b2a:	43f6      	mvns	r6, r6
     b2c:	4770      	bx	lr

00000b2e <Dictionary_171>:
     b2e:	00000b42 	andeq	r0, r0, r2, asr #22
     b32:	75030062 	strvc	r0, [r3, #-98]	; 0x62
     b36:	cf013d3c 	svcgt	0x00013d3c

00000b38 <Code_171>:
     b38:	cf01      	ldmia	r7!, {r0}
     b3a:	1a36      	subs	r6, r6, r0
     b3c:	41b6      	sbcs	r6, r6
     b3e:	43f6      	mvns	r6, r6
     b40:	4770      	bx	lr

00000b42 <Dictionary_172>:
     b42:	00000b54 	andeq	r0, r0, r4, asr fp
     b46:	75020062 	strvc	r0, [r2, #-98]	; 0x62
     b4a:	cf01003c 	svcgt	0x0001003c

00000b4c <Code_172>:
     b4c:	cf01      	ldmia	r7!, {r0}
     b4e:	1b86      	subs	r6, r0, r6
     b50:	41b6      	sbcs	r6, r6
     b52:	4770      	bx	lr

00000b54 <Dictionary_173>:
     b54:	00000b66 	andeq	r0, r0, r6, ror #22
     b58:	75020062 	strvc	r0, [r2, #-98]	; 0x62
     b5c:	cf01003e 	svcgt	0x0001003e

00000b5e <Code_173>:
     b5e:	cf01      	ldmia	r7!, {r0}
     b60:	1a36      	subs	r6, r6, r0
     b62:	41b6      	sbcs	r6, r6
     b64:	4770      	bx	lr

00000b66 <Dictionary_174>:
     b66:	00000b7c 	andeq	r0, r0, ip, ror fp
     b6a:	3c02006b 	stccc	0, cr0, [r2], {107}	; 0x6b
     b6e:	cf01003e 	svcgt	0x0001003e

00000b70 <Code_174>:
     b70:	cf01      	ldmia	r7!, {r0}
     b72:	1a36      	subs	r6, r6, r0
     b74:	3e01      	subs	r6, #1
     b76:	41b6      	sbcs	r6, r6
     b78:	43f6      	mvns	r6, r6
     b7a:	4770      	bx	lr

00000b7c <Dictionary_175>:
     b7c:	00000b8e 	andeq	r0, r0, lr, lsl #23
     b80:	3d01006b 	stccc	0, cr0, [r1, #-428]	; 0xfffffe54

00000b84 <Code_175>:
     b84:	cf01      	ldmia	r7!, {r0}
     b86:	1a36      	subs	r6, r6, r0
     b88:	3e01      	subs	r6, #1
     b8a:	41b6      	sbcs	r6, r6
     b8c:	4770      	bx	lr

00000b8e <Dictionary_176>:
     b8e:	00000ba2 	andeq	r0, r0, r2, lsr #23
     b92:	6d030062 	stcvs	0, cr0, [r3, #-392]	; 0xfffffe78
     b96:	cf016e69 	svcgt	0x00016e69

00000b98 <Code_176>:
     b98:	cf01      	ldmia	r7!, {r0}
     b9a:	42b0      	cmp	r0, r6
     b9c:	dc00      	bgt.n	ba0 <Code_176+0x8>
     b9e:	0006      	movs	r6, r0
     ba0:	4770      	bx	lr

00000ba2 <Dictionary_177>:
     ba2:	00000bb6 			; <UNDEFINED> instruction: 0x00000bb6
     ba6:	6d030062 	stcvs	0, cr0, [r3, #-392]	; 0xfffffe78
     baa:	cf017861 	svcgt	0x00017861

00000bac <Code_177>:
     bac:	cf01      	ldmia	r7!, {r0}
     bae:	42b0      	cmp	r0, r6
     bb0:	db00      	blt.n	bb4 <Code_177+0x8>
     bb2:	0006      	movs	r6, r0
     bb4:	4770      	bx	lr

00000bb6 <Dictionary_178>:
     bb6:	00000bcc 	andeq	r0, r0, ip, asr #23
     bba:	75040062 	strvc	r0, [r4, #-98]	; 0x62
     bbe:	0078616d 	rsbseq	r6, r8, sp, ror #2

00000bc2 <Code_178>:
     bc2:	cf01      	ldmia	r7!, {r0}
     bc4:	42b0      	cmp	r0, r6
     bc6:	d300      	bcc.n	bca <Code_178+0x8>
     bc8:	0006      	movs	r6, r0
     bca:	4770      	bx	lr

00000bcc <Dictionary_179>:
     bcc:	00000bec 	andeq	r0, r0, ip, ror #23
     bd0:	75040062 	strvc	r0, [r4, #-98]	; 0x62
     bd4:	006e696d 	rsbeq	r6, lr, sp, ror #18

00000bd8 <Code_179>:
     bd8:	cf01      	ldmia	r7!, {r0}
     bda:	42b0      	cmp	r0, r6
     bdc:	d800      	bhi.n	be0 <Code_179+0x8>
     bde:	0006      	movs	r6, r0
     be0:	4770      	bx	lr
     be2:	02300000 	eorseq	r0, r0, #0
     be6:	03302000 	teqeq	r0, #0
     bea:	0c2a2000 	stceq	0, cr2, [sl]

00000bec <Dictionary_180>:
     bec:	00000c2a 	andeq	r0, r0, sl, lsr #24
     bf0:	6d040000 	stcvs	0, cr0, [r4]
     bf4:	0065766f 	rsbeq	r7, r5, pc, ror #12

00000bf8 <Code_180>:
     bf8:	b507      	push	{r0, r1, r2, lr}
     bfa:	0031      	movs	r1, r6
     bfc:	cf40      	ldmia	r7!, {r6}
     bfe:	0032      	movs	r2, r6
     c00:	cf40      	ldmia	r7!, {r6}
     c02:	2900      	cmp	r1, #0
     c04:	d00f      	beq.n	c26 <Code_180+0x2e>
     c06:	42b2      	cmp	r2, r6
     c08:	d00d      	beq.n	c26 <Code_180+0x2e>
     c0a:	d306      	bcc.n	c1a <Code_180+0x22>
     c0c:	3e01      	subs	r6, #1
     c0e:	3a01      	subs	r2, #1
     c10:	5c70      	ldrb	r0, [r6, r1]
     c12:	5450      	strb	r0, [r2, r1]
     c14:	3901      	subs	r1, #1
     c16:	d1fb      	bne.n	c10 <Code_180+0x18>
     c18:	e005      	b.n	c26 <Code_180+0x2e>
     c1a:	7830      	ldrb	r0, [r6, #0]
     c1c:	7010      	strb	r0, [r2, #0]
     c1e:	3601      	adds	r6, #1
     c20:	3201      	adds	r2, #1
     c22:	3901      	subs	r1, #1
     c24:	d1f9      	bne.n	c1a <Code_180+0x22>
     c26:	cf40      	ldmia	r7!, {r6}
     c28:	bd07      	pop	{r0, r1, r2, pc}

00000c2a <Dictionary_184>:
     c2a:	00000c4c 	andeq	r0, r0, ip, asr #24
     c2e:	66040000 	strvs	r0, [r4], -r0
     c32:	006c6c69 	rsbeq	r6, ip, r9, ror #24

00000c36 <Code_184>:
     c36:	0030      	movs	r0, r6
     c38:	cf40      	ldmia	r7!, {r6}
     c3a:	0031      	movs	r1, r6
     c3c:	cf40      	ldmia	r7!, {r6}
     c3e:	2900      	cmp	r1, #0
     c40:	d002      	beq.n	c48 <Code_184+0x12>
     c42:	3901      	subs	r1, #1
     c44:	5470      	strb	r0, [r6, r1]
     c46:	d1fc      	bne.n	c42 <Code_184+0xc>
     c48:	cf40      	ldmia	r7!, {r6}
     c4a:	4770      	bx	lr

00000c4c <Dictionary_188>:
     c4c:	00000c58 	andeq	r0, r0, r8, asr ip
     c50:	40010020 	andmi	r0, r1, r0, lsr #32

00000c54 <Code_188>:
     c54:	6836      	ldr	r6, [r6, #0]
     c56:	4770      	bx	lr

00000c58 <Dictionary_189>:
     c58:	00000c70 	andeq	r0, r0, r0, ror ip
     c5c:	2101006d 	tstcs	r1, sp, rrx

00000c60 <Code_189>:
     c60:	cf03      	ldmia	r7!, {r0, r1}
     c62:	6030      	str	r0, [r6, #0]
     c64:	000e      	movs	r6, r1
     c66:	4770      	bx	lr
     c68:	6006      	str	r6, [r0, #0]
     c6a:	4770      	bx	lr
     c6c:	6001      	str	r1, [r0, #0]
     c6e:	4770      	bx	lr

00000c70 <Dictionary_190>:
     c70:	00000c96 	muleq	r0, r6, ip
     c74:	2b02006d 	blcs	80e30 <BIT19+0xe30>
     c78:	cf030021 	svcgt	0x00030021

00000c7a <Code_190>:
     c7a:	cf03      	ldmia	r7!, {r0, r1}
     c7c:	6832      	ldr	r2, [r6, #0]
     c7e:	1812      	adds	r2, r2, r0
     c80:	6032      	str	r2, [r6, #0]
     c82:	000e      	movs	r6, r1
     c84:	4770      	bx	lr
     c86:	6802      	ldr	r2, [r0, #0]
     c88:	1992      	adds	r2, r2, r6
     c8a:	6002      	str	r2, [r0, #0]
     c8c:	4770      	bx	lr
     c8e:	6802      	ldr	r2, [r0, #0]
     c90:	1852      	adds	r2, r2, r1
     c92:	6002      	str	r2, [r0, #0]
     c94:	4770      	bx	lr

00000c96 <Dictionary_191>:
     c96:	00000ca4 	andeq	r0, r0, r4, lsr #25
     c9a:	68020020 	stmdavs	r2, {r5}
     c9e:	88360040 	ldmdahi	r6!, {r6}

00000ca0 <Code_191>:
     ca0:	8836      	ldrh	r6, [r6, #0]
     ca2:	4770      	bx	lr

00000ca4 <Dictionary_192>:
     ca4:	00000cbe 			; <UNDEFINED> instruction: 0x00000cbe
     ca8:	6802006d 	stmdavs	r2, {r0, r2, r3, r5, r6}
     cac:	cf030021 	svcgt	0x00030021

00000cae <Code_192>:
     cae:	cf03      	ldmia	r7!, {r0, r1}
     cb0:	8030      	strh	r0, [r6, #0]
     cb2:	000e      	movs	r6, r1
     cb4:	4770      	bx	lr
     cb6:	8006      	strh	r6, [r0, #0]
     cb8:	4770      	bx	lr
     cba:	8001      	strh	r1, [r0, #0]
     cbc:	4770      	bx	lr

00000cbe <Dictionary_193>:
     cbe:	00000ce4 	andeq	r0, r0, r4, ror #25
     cc2:	6803006d 	stmdavs	r3, {r0, r2, r3, r5, r6}
     cc6:	cf03212b 	svcgt	0x0003212b

00000cc8 <Code_193>:
     cc8:	cf03      	ldmia	r7!, {r0, r1}
     cca:	8832      	ldrh	r2, [r6, #0]
     ccc:	1812      	adds	r2, r2, r0
     cce:	8032      	strh	r2, [r6, #0]
     cd0:	000e      	movs	r6, r1
     cd2:	4770      	bx	lr
     cd4:	8802      	ldrh	r2, [r0, #0]
     cd6:	1992      	adds	r2, r2, r6
     cd8:	8002      	strh	r2, [r0, #0]
     cda:	4770      	bx	lr
     cdc:	8802      	ldrh	r2, [r0, #0]
     cde:	1852      	adds	r2, r2, r1
     ce0:	8002      	strh	r2, [r0, #0]
     ce2:	4770      	bx	lr

00000ce4 <Dictionary_194>:
     ce4:	00000cf2 	strdeq	r0, [r0], -r2
     ce8:	63020020 	movwvs	r0, #8224	; 0x2020
     cec:	78360040 	ldmdavc	r6!, {r6}

00000cee <Code_194>:
     cee:	7836      	ldrb	r6, [r6, #0]
     cf0:	4770      	bx	lr

00000cf2 <Dictionary_195>:
     cf2:	00000d0c 	andeq	r0, r0, ip, lsl #26
     cf6:	6302006d 	movwvs	r0, #8301	; 0x206d
     cfa:	cf030021 	svcgt	0x00030021

00000cfc <Code_195>:
     cfc:	cf03      	ldmia	r7!, {r0, r1}
     cfe:	7030      	strb	r0, [r6, #0]
     d00:	000e      	movs	r6, r1
     d02:	4770      	bx	lr
     d04:	7006      	strb	r6, [r0, #0]
     d06:	4770      	bx	lr
     d08:	7001      	strb	r1, [r0, #0]
     d0a:	4770      	bx	lr

00000d0c <Dictionary_196>:
     d0c:	00000d32 	andeq	r0, r0, r2, lsr sp
     d10:	6303006d 	movwvs	r0, #12397	; 0x306d
     d14:	cf03212b 	svcgt	0x0003212b

00000d16 <Code_196>:
     d16:	cf03      	ldmia	r7!, {r0, r1}
     d18:	7832      	ldrb	r2, [r6, #0]
     d1a:	1812      	adds	r2, r2, r0
     d1c:	7032      	strb	r2, [r6, #0]
     d1e:	000e      	movs	r6, r1
     d20:	4770      	bx	lr
     d22:	7802      	ldrb	r2, [r0, #0]
     d24:	1992      	adds	r2, r2, r6
     d26:	7002      	strb	r2, [r0, #0]
     d28:	4770      	bx	lr
     d2a:	7802      	ldrb	r2, [r0, #0]
     d2c:	1852      	adds	r2, r2, r1
     d2e:	7002      	strb	r2, [r0, #0]
     d30:	4770      	bx	lr

00000d32 <Dictionary_197>:
     d32:	00000d5a 	andeq	r0, r0, sl, asr sp
     d36:	6204006d 	andvs	r0, r4, #109	; 0x6d
     d3a:	00217369 	eoreq	r7, r1, r9, ror #6

00000d3e <Code_197>:
     d3e:	cf03      	ldmia	r7!, {r0, r1}
     d40:	6832      	ldr	r2, [r6, #0]
     d42:	4302      	orrs	r2, r0
     d44:	6032      	str	r2, [r6, #0]
     d46:	000e      	movs	r6, r1
     d48:	4770      	bx	lr
     d4a:	6802      	ldr	r2, [r0, #0]
     d4c:	4332      	orrs	r2, r6
     d4e:	6002      	str	r2, [r0, #0]
     d50:	4770      	bx	lr
     d52:	6802      	ldr	r2, [r0, #0]
     d54:	430a      	orrs	r2, r1
     d56:	6002      	str	r2, [r0, #0]
     d58:	4770      	bx	lr

00000d5a <Dictionary_198>:
     d5a:	00000d82 	andeq	r0, r0, r2, lsl #27
     d5e:	6204006d 	andvs	r0, r4, #109	; 0x6d
     d62:	00216369 	eoreq	r6, r1, r9, ror #6

00000d66 <Code_198>:
     d66:	cf03      	ldmia	r7!, {r0, r1}
     d68:	6832      	ldr	r2, [r6, #0]
     d6a:	4382      	bics	r2, r0
     d6c:	6032      	str	r2, [r6, #0]
     d6e:	000e      	movs	r6, r1
     d70:	4770      	bx	lr
     d72:	6802      	ldr	r2, [r0, #0]
     d74:	43b2      	bics	r2, r6
     d76:	6002      	str	r2, [r0, #0]
     d78:	4770      	bx	lr
     d7a:	6802      	ldr	r2, [r0, #0]
     d7c:	438a      	bics	r2, r1
     d7e:	6002      	str	r2, [r0, #0]
     d80:	4770      	bx	lr

00000d82 <Dictionary_199>:
     d82:	00000daa 	andeq	r0, r0, sl, lsr #27
     d86:	7804006d 	stmdavc	r4, {r0, r2, r3, r5, r6}
     d8a:	0021726f 	eoreq	r7, r1, pc, ror #4

00000d8e <Code_199>:
     d8e:	cf03      	ldmia	r7!, {r0, r1}
     d90:	6832      	ldr	r2, [r6, #0]
     d92:	4042      	eors	r2, r0
     d94:	6032      	str	r2, [r6, #0]
     d96:	000e      	movs	r6, r1
     d98:	4770      	bx	lr
     d9a:	6802      	ldr	r2, [r0, #0]
     d9c:	4072      	eors	r2, r6
     d9e:	6002      	str	r2, [r0, #0]
     da0:	4770      	bx	lr
     da2:	6802      	ldr	r2, [r0, #0]
     da4:	404a      	eors	r2, r1
     da6:	6002      	str	r2, [r0, #0]
     da8:	4770      	bx	lr

00000daa <Dictionary_200>:
     daa:	00000e12 	andeq	r0, r0, r2, lsl lr
     dae:	62040068 	andvs	r0, r4, #104	; 0x68
     db2:	00407469 	subeq	r7, r0, r9, ror #8

00000db6 <Code_200>:
     db6:	cf01      	ldmia	r7!, {r0}
     db8:	6836      	ldr	r6, [r6, #0]

00000dba <struktur_bitfetch>:
     dba:	4006      	ands	r6, r0
     dbc:	bf18      	it	ne
     dbe:	f04f 36ff 	movne.w	r6, #4294967295
     dc2:	4770      	bx	lr
     dc4:	4ac4      	ldr	r2, [pc, #784]	; (10d8 <Code_236+0x6>)

00000dc6 <bitfetch_opcoding>:
     dc6:	b500      	push	{lr}
     dc8:	2b01      	cmp	r3, #1
     dca:	d10a      	bne.n	de2 <bitfetch_opcoding+0x1c>
     dcc:	f847 6d04 	str.w	r6, [r7, #-4]!
     dd0:	2600      	movs	r6, #0
     dd2:	f000 fea5 	bl	1b20 <Code_410>
     dd6:	f847 6d04 	str.w	r6, [r7, #-4]!
     dda:	0016      	movs	r6, r2
     ddc:	f001 f9c1 	bl	2162 <Code_528>
     de0:	e011      	b.n	e06 <bitfetch_opcoding+0x40>
     de2:	cf02      	ldmia	r7!, {r1}
     de4:	3b01      	subs	r3, #1
     de6:	f002 fb1e 	bl	3426 <konstantenschreiben>
     dea:	f847 6d04 	str.w	r6, [r7, #-4]!
     dee:	2636      	movs	r6, #54	; 0x36
     df0:	4316      	orrs	r6, r2
     df2:	f001 f9b6 	bl	2162 <Code_528>
     df6:	f847 6d04 	str.w	r6, [r7, #-4]!
     dfa:	000e      	movs	r6, r1
     dfc:	f847 6d04 	str.w	r6, [r7, #-4]!
     e00:	2600      	movs	r6, #0
     e02:	f000 fe8d 	bl	1b20 <Code_410>
     e06:	f847 6d04 	str.w	r6, [r7, #-4]!
     e0a:	4eb4      	ldr	r6, [pc, #720]	; (10dc <Code_236+0xa>)
     e0c:	f000 ffbc 	bl	1d88 <Code_453>
     e10:	bd00      	pop	{pc}

00000e12 <Dictionary_212>:
     e12:	00000e3a 	andeq	r0, r0, sl, lsr lr
     e16:	6805006d 	stmdavs	r5, {r0, r2, r3, r5, r6}
     e1a:	21736962 	cmncs	r3, r2, ror #18

00000e1e <Code_212>:
     e1e:	cf03      	ldmia	r7!, {r0, r1}
     e20:	8832      	ldrh	r2, [r6, #0]
     e22:	4302      	orrs	r2, r0
     e24:	8032      	strh	r2, [r6, #0]
     e26:	000e      	movs	r6, r1
     e28:	4770      	bx	lr
     e2a:	8802      	ldrh	r2, [r0, #0]
     e2c:	4332      	orrs	r2, r6
     e2e:	8002      	strh	r2, [r0, #0]
     e30:	4770      	bx	lr
     e32:	8802      	ldrh	r2, [r0, #0]
     e34:	430a      	orrs	r2, r1
     e36:	8002      	strh	r2, [r0, #0]
     e38:	4770      	bx	lr

00000e3a <Dictionary_213>:
     e3a:	00000e62 	andeq	r0, r0, r2, ror #28
     e3e:	6805006d 	stmdavs	r5, {r0, r2, r3, r5, r6}
     e42:	21636962 	cmncs	r3, r2, ror #18

00000e46 <Code_213>:
     e46:	cf03      	ldmia	r7!, {r0, r1}
     e48:	8832      	ldrh	r2, [r6, #0]
     e4a:	4382      	bics	r2, r0
     e4c:	8032      	strh	r2, [r6, #0]
     e4e:	000e      	movs	r6, r1
     e50:	4770      	bx	lr
     e52:	8802      	ldrh	r2, [r0, #0]
     e54:	43b2      	bics	r2, r6
     e56:	8002      	strh	r2, [r0, #0]
     e58:	4770      	bx	lr
     e5a:	8802      	ldrh	r2, [r0, #0]
     e5c:	438a      	bics	r2, r1
     e5e:	8002      	strh	r2, [r0, #0]
     e60:	4770      	bx	lr

00000e62 <Dictionary_214>:
     e62:	00000e8a 	andeq	r0, r0, sl, lsl #29
     e66:	6805006d 	stmdavs	r5, {r0, r2, r3, r5, r6}
     e6a:	21726f78 	cmncs	r2, r8, ror pc

00000e6e <Code_214>:
     e6e:	cf03      	ldmia	r7!, {r0, r1}
     e70:	8832      	ldrh	r2, [r6, #0]
     e72:	4042      	eors	r2, r0
     e74:	8032      	strh	r2, [r6, #0]
     e76:	000e      	movs	r6, r1
     e78:	4770      	bx	lr
     e7a:	8802      	ldrh	r2, [r0, #0]
     e7c:	4072      	eors	r2, r6
     e7e:	8002      	strh	r2, [r0, #0]
     e80:	4770      	bx	lr
     e82:	8802      	ldrh	r2, [r0, #0]
     e84:	404a      	eors	r2, r1
     e86:	8002      	strh	r2, [r0, #0]
     e88:	4770      	bx	lr

00000e8a <Dictionary_215>:
     e8a:	00000ea8 	andeq	r0, r0, r8, lsr #29
     e8e:	68050068 	stmdavs	r5, {r3, r5, r6}
     e92:	40746962 	rsbsmi	r6, r4, r2, ror #18

00000e96 <Code_215>:
     e96:	cf01      	ldmia	r7!, {r0}
     e98:	8836      	ldrh	r6, [r6, #0]
     e9a:	4006      	ands	r6, r0
     e9c:	bf18      	it	ne
     e9e:	f04f 36ff 	movne.w	r6, #4294967295
     ea2:	4770      	bx	lr
     ea4:	4a8e      	ldr	r2, [pc, #568]	; (10e0 <Code_236+0xe>)
     ea6:	e78e      	b.n	dc6 <bitfetch_opcoding>

00000ea8 <Dictionary_216>:
     ea8:	00000ed0 	ldrdeq	r0, [r0], -r0	; <UNPREDICTABLE>
     eac:	6305006d 	movwvs	r0, #20589	; 0x506d
     eb0:	21736962 	cmncs	r3, r2, ror #18

00000eb4 <Code_216>:
     eb4:	cf03      	ldmia	r7!, {r0, r1}
     eb6:	7832      	ldrb	r2, [r6, #0]
     eb8:	4302      	orrs	r2, r0
     eba:	7032      	strb	r2, [r6, #0]
     ebc:	000e      	movs	r6, r1
     ebe:	4770      	bx	lr
     ec0:	7802      	ldrb	r2, [r0, #0]
     ec2:	4332      	orrs	r2, r6
     ec4:	7002      	strb	r2, [r0, #0]
     ec6:	4770      	bx	lr
     ec8:	7802      	ldrb	r2, [r0, #0]
     eca:	430a      	orrs	r2, r1
     ecc:	7002      	strb	r2, [r0, #0]
     ece:	4770      	bx	lr

00000ed0 <Dictionary_217>:
     ed0:	00000ef8 	strdeq	r0, [r0], -r8
     ed4:	6305006d 	movwvs	r0, #20589	; 0x506d
     ed8:	21636962 	cmncs	r3, r2, ror #18

00000edc <Code_217>:
     edc:	cf03      	ldmia	r7!, {r0, r1}
     ede:	7832      	ldrb	r2, [r6, #0]
     ee0:	4382      	bics	r2, r0
     ee2:	7032      	strb	r2, [r6, #0]
     ee4:	000e      	movs	r6, r1
     ee6:	4770      	bx	lr
     ee8:	7802      	ldrb	r2, [r0, #0]
     eea:	43b2      	bics	r2, r6
     eec:	7002      	strb	r2, [r0, #0]
     eee:	4770      	bx	lr
     ef0:	7802      	ldrb	r2, [r0, #0]
     ef2:	438a      	bics	r2, r1
     ef4:	7002      	strb	r2, [r0, #0]
     ef6:	4770      	bx	lr

00000ef8 <Dictionary_218>:
     ef8:	00000f20 	andeq	r0, r0, r0, lsr #30
     efc:	6305006d 	movwvs	r0, #20589	; 0x506d
     f00:	21726f78 	cmncs	r2, r8, ror pc

00000f04 <Code_218>:
     f04:	cf03      	ldmia	r7!, {r0, r1}
     f06:	7832      	ldrb	r2, [r6, #0]
     f08:	4042      	eors	r2, r0
     f0a:	7032      	strb	r2, [r6, #0]
     f0c:	000e      	movs	r6, r1
     f0e:	4770      	bx	lr
     f10:	7802      	ldrb	r2, [r0, #0]
     f12:	4072      	eors	r2, r6
     f14:	7002      	strb	r2, [r0, #0]
     f16:	4770      	bx	lr
     f18:	7802      	ldrb	r2, [r0, #0]
     f1a:	404a      	eors	r2, r1
     f1c:	7002      	strb	r2, [r0, #0]
     f1e:	4770      	bx	lr

00000f20 <Dictionary_219>:
     f20:	00000f3e 	andeq	r0, r0, lr, lsr pc
     f24:	63050068 	movwvs	r0, #20584	; 0x5068
     f28:	40746962 	rsbsmi	r6, r4, r2, ror #18

00000f2c <Code_219>:
     f2c:	cf01      	ldmia	r7!, {r0}
     f2e:	7836      	ldrb	r6, [r6, #0]
     f30:	4006      	ands	r6, r0
     f32:	bf18      	it	ne
     f34:	f04f 36ff 	movne.w	r6, #4294967295
     f38:	4770      	bx	lr
     f3a:	4a6a      	ldr	r2, [pc, #424]	; (10e4 <Code_236+0x12>)
     f3c:	e743      	b.n	dc6 <bitfetch_opcoding>

00000f3e <Dictionary_220>:
     f3e:	00000f4e 	andeq	r0, r0, lr, asr #30
     f42:	63050061 	movwvs	r0, #20577	; 0x5061
     f46:	2b6c6c65 	blcs	1b1c0e2 <BIT24+0xb1c0e2>

00000f4a <Code_220>:
     f4a:	3604      	adds	r6, #4
     f4c:	4770      	bx	lr

00000f4e <Dictionary_221>:
     f4e:	00000f5e 	andeq	r0, r0, lr, asr pc
     f52:	63050061 	movwvs	r0, #20577	; 0x5061
     f56:	736c6c65 	cmnvc	ip, #25856	; 0x6500

00000f5a <Code_221>:
     f5a:	00b6      	lsls	r6, r6, #2
     f5c:	4770      	bx	lr

00000f5e <Dictionary_222>:
     f5e:	00000ff2 	strdeq	r0, [r0], -r2
     f62:	68070000 	stmdavs	r7, {}	; <UNPREDICTABLE>
     f66:	73616c66 	cmnvc	r1, #26112	; 0x6600
     f6a:	00302168 	eorseq	r2, r0, r8, ror #2

00000f6c <Code_222>:
     f6c:	0030      	movs	r0, r6
     f6e:	cf40      	ldmia	r7!, {r6}
     f70:	0031      	movs	r1, r6
     f72:	cf40      	ldmia	r7!, {r6}
     f74:	4b5c      	ldr	r3, [pc, #368]	; (10e8 <Code_236+0x16>)
     f76:	4298      	cmp	r0, r3
     f78:	d321      	bcc.n	fbe <Code_222+0x52>
     f7a:	4b5c      	ldr	r3, [pc, #368]	; (10ec <Code_236+0x1a>)
     f7c:	4298      	cmp	r0, r3
     f7e:	d21e      	bcs.n	fbe <Code_222+0x52>
     f80:	4b5b      	ldr	r3, [pc, #364]	; (10f0 <Code_236+0x1e>)
     f82:	4019      	ands	r1, r3
     f84:	4299      	cmp	r1, r3
     f86:	d019      	beq.n	fbc <Code_222+0x50>
     f88:	2201      	movs	r2, #1
     f8a:	4002      	ands	r2, r0
     f8c:	2a00      	cmp	r2, #0
     f8e:	d116      	bne.n	fbe <Code_222+0x52>
     f90:	8802      	ldrh	r2, [r0, #0]
     f92:	429a      	cmp	r2, r3
     f94:	d113      	bne.n	fbe <Code_222+0x52>
     f96:	4a57      	ldr	r2, [pc, #348]	; (10f4 <Code_236+0x22>)
     f98:	1880      	adds	r0, r0, r2
     f9a:	4a57      	ldr	r2, [pc, #348]	; (10f8 <Code_236+0x26>)
     f9c:	4b57      	ldr	r3, [pc, #348]	; (10fc <Code_236+0x2a>)
     f9e:	6013      	str	r3, [r2, #0]
     fa0:	4b57      	ldr	r3, [pc, #348]	; (1100 <Code_236+0x2e>)
     fa2:	6013      	str	r3, [r2, #0]
     fa4:	4a57      	ldr	r2, [pc, #348]	; (1104 <Code_236+0x32>)
     fa6:	2301      	movs	r3, #1
     fa8:	6013      	str	r3, [r2, #0]
     faa:	8001      	strh	r1, [r0, #0]
     fac:	4a56      	ldr	r2, [pc, #344]	; (1108 <Code_236+0x36>)
     fae:	6813      	ldr	r3, [r2, #0]
     fb0:	2001      	movs	r0, #1
     fb2:	4018      	ands	r0, r3
     fb4:	d1fb      	bne.n	fae <Code_222+0x42>
     fb6:	4a53      	ldr	r2, [pc, #332]	; (1104 <Code_236+0x32>)
     fb8:	2380      	movs	r3, #128	; 0x80
     fba:	6013      	str	r3, [r2, #0]
     fbc:	4770      	bx	lr
     fbe:	f000 fbb6 	bl	172e <dotgaensefuesschen>
     fc2:	6f72572a 	svcvs	0x0072572a
     fc6:	6120676e 	teqvs	r0, lr, ror #14
     fca:	65726464 	ldrbvs	r6, [r2, #-1124]!	; 0x464
     fce:	6f207373 	svcvs	0x00207373
     fd2:	61642072 	smcvs	16898	; 0x4202
     fd6:	66206174 			; <UNDEFINED> instruction: 0x66206174
     fda:	7720726f 	strvc	r7, [r0, -pc, ror #4]!
     fde:	69746972 	ldmdbvs	r4!, {r1, r4, r5, r6, r8, fp, sp, lr}^
     fe2:	6620676e 	strtvs	r6, [r0], -lr, ror #14
     fe6:	6873616c 	ldmdavs	r3!, {r2, r3, r5, r6, r8, sp, lr}^
     fea:	000a2120 	andeq	r2, sl, r0, lsr #2
     fee:	f002 ba41 	b.w	3474 <Code_909>

00000ff2 <Dictionary_226>:
     ff2:	00001040 	andeq	r1, r0, r0, asr #32
     ff6:	660e0000 	strvs	r0, [lr], -r0
     ffa:	6873616c 	ldmdavs	r3!, {r2, r3, r5, r6, r8, sp, lr}^
     ffe:	65676170 	strbvs	r6, [r7, #-368]!	; 0x170
    1002:	73617265 	cmnvc	r1, #1342177286	; 0x50000006
    1006:	b50f0065 	strlt	r0, [pc, #-101]	; fa9 <Code_222+0x3d>

00001008 <Code_226>:
    1008:	b50f      	push	{r0, r1, r2, r3, lr}
    100a:	0030      	movs	r0, r6
    100c:	cf40      	ldmia	r7!, {r6}
    100e:	4b36      	ldr	r3, [pc, #216]	; (10e8 <Code_236+0x16>)
    1010:	4298      	cmp	r0, r3
    1012:	d314      	bcc.n	103e <Code_226+0x36>
    1014:	4a38      	ldr	r2, [pc, #224]	; (10f8 <Code_236+0x26>)
    1016:	4b39      	ldr	r3, [pc, #228]	; (10fc <Code_236+0x2a>)
    1018:	6013      	str	r3, [r2, #0]
    101a:	4b39      	ldr	r3, [pc, #228]	; (1100 <Code_236+0x2e>)
    101c:	6013      	str	r3, [r2, #0]
    101e:	4a39      	ldr	r2, [pc, #228]	; (1104 <Code_236+0x32>)
    1020:	2302      	movs	r3, #2
    1022:	6013      	str	r3, [r2, #0]
    1024:	4a39      	ldr	r2, [pc, #228]	; (110c <Code_236+0x3a>)
    1026:	6010      	str	r0, [r2, #0]
    1028:	4a36      	ldr	r2, [pc, #216]	; (1104 <Code_236+0x32>)
    102a:	2342      	movs	r3, #66	; 0x42
    102c:	6013      	str	r3, [r2, #0]
    102e:	4a36      	ldr	r2, [pc, #216]	; (1108 <Code_236+0x36>)
    1030:	6813      	ldr	r3, [r2, #0]
    1032:	2001      	movs	r0, #1
    1034:	4018      	ands	r0, r3
    1036:	d1fb      	bne.n	1030 <Code_226+0x28>
    1038:	4a32      	ldr	r2, [pc, #200]	; (1104 <Code_236+0x32>)
    103a:	2380      	movs	r3, #128	; 0x80
    103c:	6013      	str	r3, [r2, #0]
    103e:	bd0f      	pop	{r0, r1, r2, r3, pc}

00001040 <Dictionary_228>:
    1040:	000010bc 	strheq	r1, [r0], -ip
    1044:	650a0000 	strvs	r0, [sl]
    1048:	65736172 	ldrbvs	r6, [r3, #-370]!	; 0x172
    104c:	73616c66 	cmnvc	r1, #26112	; 0x6600
    1050:	48250068 	stmdami	r5!, {r3, r5, r6}

00001052 <Code_228>:
    1052:	4825      	ldr	r0, [pc, #148]	; (10e8 <Code_236+0x16>)

00001054 <eraseflash_intern>:
    1054:	b672      	cpsid	i
    1056:	4925      	ldr	r1, [pc, #148]	; (10ec <Code_236+0x1a>)
    1058:	4a25      	ldr	r2, [pc, #148]	; (10f0 <Code_236+0x1e>)
    105a:	8803      	ldrh	r3, [r0, #0]
    105c:	4293      	cmp	r3, r2
    105e:	d01c      	beq.n	109a <eraseflash_intern+0x46>
    1060:	f847 6d04 	str.w	r6, [r7, #-4]!
    1064:	0006      	movs	r6, r0
    1066:	f847 6d04 	str.w	r6, [r7, #-4]!
    106a:	f000 fb60 	bl	172e <dotgaensefuesschen>
    106e:	61724510 	cmnvs	r2, r0, lsl r5
    1072:	62206573 	eorvs	r6, r0, #482344960	; 0x1cc00000
    1076:	6b636f6c 	blvs	18dce2e <BIT24+0x8dce2e>
    107a:	20746120 	rsbscs	r6, r4, r0, lsr #2
    107e:	f0000020 			; <UNDEFINED> instruction: 0xf0000020
    1082:	fbc8 f000 	smlal	pc, r0, r8, r0	; <UNPREDICTABLE>
    1086:	fb53 200c 	smmla	r0, r3, ip, r2
    108a:	6d6f7266 	sfmvs	f7, 2, [pc, #-408]!	; ef8 <Dictionary_218>
    108e:	616c4620 	cmnvs	ip, r0, lsr #12
    1092:	000a6873 	andeq	r6, sl, r3, ror r8
    1096:	f7ff ffb7 	bl	1008 <Code_226>
    109a:	3002      	adds	r0, #2
    109c:	4288      	cmp	r0, r1
    109e:	d1dc      	bne.n	105a <eraseflash_intern+0x6>
    10a0:	f000 fb45 	bl	172e <dotgaensefuesschen>
    10a4:	6e694612 	mcrvs	6, 3, r4, cr9, cr2, {0}
    10a8:	65687369 	strbvs	r7, [r8, #-873]!	; 0x369
    10ac:	52202e64 	eorpl	r2, r0, #1600	; 0x640
    10b0:	74657365 	strbtvc	r7, [r5], #-869	; 0x365
    10b4:	000a2120 	andeq	r2, sl, r0, lsr #2
    10b8:	f002 fa67 	bl	358a <Code_922>

000010bc <Dictionary_236>:
    10bc:	00001110 	andeq	r1, r0, r0, lsl r1
    10c0:	650e0000 	strvs	r0, [lr]
    10c4:	65736172 	ldrbvs	r6, [r3, #-370]!	; 0x172
    10c8:	73616c66 	cmnvc	r1, #26112	; 0x6600
    10cc:	6f726668 	svcvs	0x00726668
    10d0:	0030006d 	eorseq	r0, r0, sp, rrx

000010d2 <Code_236>:
    10d2:	0030      	movs	r0, r6
    10d4:	cf40      	ldmia	r7!, {r6}
    10d6:	e7bd      	b.n	1054 <eraseflash_intern>
    10d8:	00006800 	andeq	r6, r0, r0, lsl #16
    10dc:	00000dba 			; <UNDEFINED> instruction: 0x00000dba
    10e0:	00008800 	andeq	r8, r0, r0, lsl #16
    10e4:	00007800 	andeq	r7, r0, r0, lsl #16
    10e8:	00004000 	andeq	r4, r0, r0
    10ec:	00040000 	andeq	r0, r4, r0
    10f0:	0000ffff 	strdeq	pc, [r0], -pc	; <UNPREDICTABLE>
    10f4:	08000000 	stmdaeq	r0, {}	; <UNPREDICTABLE>
    10f8:	40022004 	andmi	r2, r2, r4
    10fc:	45670123 	strbmi	r0, [r7, #-291]!	; 0x123
    1100:	cdef89ab 	stclgt	9, cr8, [pc, #684]!	; 13b4 <Dictionary_281+0x6>
    1104:	40022010 	andmi	r2, r2, r0, lsl r0
    1108:	4002200c 	andmi	r2, r2, ip
    110c:	40022014 	andmi	r2, r2, r4, lsl r0

00001110 <Dictionary_238>:
    1110:	00001126 	andeq	r1, r0, r6, lsr #2
    1114:	2b010069 	blcs	412c0 <BIT18+0x12c0>

00001118 <Code_238>:
    1118:	cf01      	ldmia	r7!, {r0}
    111a:	1836      	adds	r6, r6, r0
    111c:	4770      	bx	lr
    111e:	1836      	adds	r6, r6, r0
    1120:	3600      	adds	r6, #0
    1122:	f1160600 			; <UNDEFINED> instruction: 0xf1160600

00001126 <Dictionary_239>:
    1126:	0000113c 	andeq	r1, r0, ip, lsr r1
    112a:	2d010069 	stccs	0, cr0, [r1, #-420]	; 0xfffffe5c

0000112e <Code_239>:
    112e:	cf01      	ldmia	r7!, {r0}
    1130:	1b86      	subs	r6, r0, r6
    1132:	4770      	bx	lr
    1134:	1a36      	subs	r6, r6, r0
    1136:	3e00      	subs	r6, #0
    1138:	f1b60600 			; <UNDEFINED> instruction: 0xf1b60600

0000113c <Dictionary_240>:
    113c:	0000114a 	andeq	r1, r0, sl, asr #2
    1140:	31020061 	tstcc	r2, r1, rrx
    1144:	3e01002d 	cdpcc	0, 0, cr0, cr1, cr13, {1}

00001146 <Code_240>:
    1146:	3e01      	subs	r6, #1
    1148:	4770      	bx	lr

0000114a <Dictionary_241>:
    114a:	00001158 	andeq	r1, r0, r8, asr r1
    114e:	31020061 	tstcc	r2, r1, rrx
    1152:	3601002b 	strcc	r0, [r1], -fp, lsr #32

00001154 <Code_241>:
    1154:	3601      	adds	r6, #1
    1156:	4770      	bx	lr

00001158 <Dictionary_242>:
    1158:	00001166 	andeq	r1, r0, r6, ror #2
    115c:	32020061 	andcc	r0, r2, #97	; 0x61
    1160:	3e02002d 	cdpcc	0, 0, cr0, cr2, cr13, {1}

00001162 <Code_242>:
    1162:	3e02      	subs	r6, #2
    1164:	4770      	bx	lr

00001166 <Dictionary_243>:
    1166:	00001174 	andeq	r1, r0, r4, ror r1
    116a:	32020061 	andcc	r0, r2, #97	; 0x61
    116e:	3602002b 	strcc	r0, [r2], -fp, lsr #32

00001170 <Code_243>:
    1170:	3602      	adds	r6, #2
    1172:	4770      	bx	lr

00001174 <Dictionary_244>:
    1174:	00001186 	andeq	r1, r0, r6, lsl #3
    1178:	6e060061 	cdpvs	0, 0, cr0, cr6, cr1, {3}
    117c:	74616765 	strbtvc	r6, [r1], #-1893	; 0x765
    1180:	42760065 	rsbsmi	r0, r6, #101	; 0x65

00001182 <Code_244>:
    1182:	4276      	negs	r6, r6
    1184:	4770      	bx	lr

00001186 <Dictionary_245>:
    1186:	00001198 	muleq	r0, r8, r1
    118a:	61030061 	tstvs	r3, r1, rrx
    118e:	17f07362 	ldrbne	r7, [r0, r2, ror #6]!

00001190 <Code_245>:
    1190:	17f0      	asrs	r0, r6, #31
    1192:	1836      	adds	r6, r6, r0
    1194:	4046      	eors	r6, r0
    1196:	4770      	bx	lr

00001198 <Dictionary_246>:
    1198:	000011b6 			; <UNDEFINED> instruction: 0x000011b6
    119c:	75050042 	strvc	r0, [r5, #-66]	; 0x42
    11a0:	646f6d2f 	strbtvs	r6, [pc], #-3375	; 11a8 <Code_246+0x4>

000011a4 <Code_246>:
    11a4:	cf01      	ldmia	r7!, {r0}
    11a6:	0031      	movs	r1, r6
    11a8:	fbb0 f6f6 	udiv	r6, r0, r6
    11ac:	4371      	muls	r1, r6
    11ae:	1a40      	subs	r0, r0, r1
    11b0:	3f04      	subs	r7, #4
    11b2:	6038      	str	r0, [r7, #0]
    11b4:	4770      	bx	lr

000011b6 <Dictionary_247>:
    11b6:	000011d4 	ldrdeq	r1, [r0], -r4
    11ba:	2f040042 	svccs	0x00040042
    11be:	00646f6d 	rsbeq	r6, r4, sp, ror #30

000011c2 <Code_247>:
    11c2:	cf01      	ldmia	r7!, {r0}
    11c4:	0031      	movs	r1, r6
    11c6:	fb90 f6f6 	sdiv	r6, r0, r6
    11ca:	4371      	muls	r1, r6
    11cc:	1a40      	subs	r0, r0, r1
    11ce:	3f04      	subs	r7, #4
    11d0:	6038      	str	r0, [r7, #0]
    11d2:	4770      	bx	lr

000011d4 <Dictionary_248>:
    11d4:	000011e8 	andeq	r1, r0, r8, ror #3
    11d8:	6d030042 	stcvs	0, cr0, [r3, #-264]	; 0xfffffef8
    11dc:	b500646f 	strlt	r6, [r0, #-1135]	; 0x46f

000011de <Code_248>:
    11de:	b500      	push	{lr}
    11e0:	f7ff ffef 	bl	11c2 <Code_247>
    11e4:	cf40      	ldmia	r7!, {r6}
    11e6:	bd00      	pop	{pc}

000011e8 <Dictionary_250>:
    11e8:	000011f8 	strdeq	r1, [r0], -r8
    11ec:	2f010062 	svccs	0x00010062

000011f0 <Code_250>:
    11f0:	cf01      	ldmia	r7!, {r0}
    11f2:	fb90 f6f6 	sdiv	r6, r0, r6
    11f6:	4770      	bx	lr

000011f8 <Dictionary_251>:
    11f8:	00001208 	andeq	r1, r0, r8, lsl #4
    11fc:	2a01006a 	bcs	413ac <BIT18+0x13ac>

00001200 <Code_251>:
    1200:	cf01      	ldmia	r7!, {r0}
    1202:	4346      	muls	r6, r0
    1204:	4770      	bx	lr
    1206:	4346      	muls	r6, r0

00001208 <Dictionary_252>:
    1208:	00001216 	andeq	r1, r0, r6, lsl r2
    120c:	32020061 	andcc	r0, r2, #97	; 0x61
    1210:	0076002a 	rsbseq	r0, r6, sl, lsr #32

00001212 <Code_252>:
    1212:	0076      	lsls	r6, r6, #1
    1214:	4770      	bx	lr

00001216 <Dictionary_253>:
    1216:	00001224 	andeq	r1, r0, r4, lsr #4
    121a:	32020061 	andcc	r0, r2, #97	; 0x61
    121e:	1076002f 	rsbsne	r0, r6, pc, lsr #32

00001220 <Code_253>:
    1220:	1076      	asrs	r6, r6, #1
    1222:	4770      	bx	lr

00001224 <Dictionary_254>:
    1224:	00001238 	andeq	r1, r0, r8, lsr r2
    1228:	65040061 	strvs	r0, [r4, #-97]	; 0x61
    122c:	006e6576 	rsbeq	r6, lr, r6, ror r5

00001230 <Code_254>:
    1230:	2001      	movs	r0, #1
    1232:	4030      	ands	r0, r6
    1234:	1836      	adds	r6, r6, r0
    1236:	4770      	bx	lr

00001238 <Dictionary_255>:
    1238:	00001250 	andeq	r1, r0, r0, asr r2
    123c:	62040081 	andvs	r0, r4, #129	; 0x81
    1240:	00657361 	rsbeq	r7, r5, r1, ror #6

00001244 <Code_255>:
    1244:	f847 6d04 	str.w	r6, [r7, #-4]!
    1248:	4e83      	ldr	r6, [pc, #524]	; (1458 <Code_290+0x1c>)
    124a:	4770      	bx	lr
    124c:	0000000a 	andeq	r0, r0, sl

00001250 <Dictionary_258>:
    1250:	00001266 	andeq	r1, r0, r6, ror #4
    1254:	62060000 	andvs	r0, r6, #0
    1258:	72616e69 	rsbvc	r6, r1, #1680	; 0x690
    125c:	487e0079 	ldmdami	lr!, {r0, r3, r4, r5, r6}^

0000125e <Code_258>:
    125e:	487e      	ldr	r0, [pc, #504]	; (1458 <Code_290+0x1c>)
    1260:	2102      	movs	r1, #2
    1262:	6001      	str	r1, [r0, #0]
    1264:	4770      	bx	lr

00001266 <Dictionary_259>:
    1266:	0000127c 	andeq	r1, r0, ip, ror r2
    126a:	64070000 	strvs	r0, [r7]
    126e:	6d696365 	stclvs	3, cr6, [r9, #-404]!	; 0xfffffe6c
    1272:	48786c61 	ldmdami	r8!, {r0, r5, r6, sl, fp, sp, lr}^

00001274 <Code_259>:
    1274:	4878      	ldr	r0, [pc, #480]	; (1458 <Code_290+0x1c>)
    1276:	210a      	movs	r1, #10
    1278:	6001      	str	r1, [r0, #0]
    127a:	4770      	bx	lr

0000127c <Dictionary_260>:
    127c:	000012ba 			; <UNDEFINED> instruction: 0x000012ba
    1280:	68030000 	stmdavs	r3, {}	; <UNPREDICTABLE>
    1284:	48747865 	ldmdami	r4!, {r0, r2, r5, r6, fp, ip, sp, lr}^

00001286 <Code_260>:
    1286:	4874      	ldr	r0, [pc, #464]	; (1458 <Code_290+0x1c>)
    1288:	2110      	movs	r1, #16
    128a:	6001      	str	r1, [r0, #0]
    128c:	4770      	bx	lr

0000128e <uart_init>:
    128e:	4973      	ldr	r1, [pc, #460]	; (145c <Code_290+0x20>)
    1290:	4873      	ldr	r0, [pc, #460]	; (1460 <Code_290+0x24>)
    1292:	6008      	str	r0, [r1, #0]
    1294:	4973      	ldr	r1, [pc, #460]	; (1464 <Code_290+0x28>)
    1296:	4874      	ldr	r0, [pc, #464]	; (1468 <Code_290+0x2c>)
    1298:	6008      	str	r0, [r1, #0]
    129a:	4974      	ldr	r1, [pc, #464]	; (146c <Code_290+0x30>)
    129c:	4874      	ldr	r0, [pc, #464]	; (1470 <Code_290+0x34>)
    129e:	6008      	str	r0, [r1, #0]
    12a0:	4974      	ldr	r1, [pc, #464]	; (1474 <Code_290+0x38>)
    12a2:	4875      	ldr	r0, [pc, #468]	; (1478 <Code_290+0x3c>)
    12a4:	6008      	str	r0, [r1, #0]
    12a6:	4975      	ldr	r1, [pc, #468]	; (147c <Code_290+0x40>)
    12a8:	2046      	movs	r0, #70	; 0x46
    12aa:	6008      	str	r0, [r1, #0]
    12ac:	4974      	ldr	r1, [pc, #464]	; (1480 <Code_290+0x44>)
    12ae:	4875      	ldr	r0, [pc, #468]	; (1484 <Code_290+0x48>)
    12b0:	6008      	str	r0, [r1, #0]
    12b2:	4975      	ldr	r1, [pc, #468]	; (1488 <Code_290+0x4c>)
    12b4:	4875      	ldr	r0, [pc, #468]	; (148c <Code_290+0x50>)
    12b6:	6008      	str	r0, [r1, #0]
    12b8:	4770      	bx	lr

000012ba <Dictionary_261>:
    12ba:	000012d6 	ldrdeq	r1, [r0], -r6
    12be:	68090081 	stmdavs	r9, {r0, r7}
    12c2:	2d6b6f6f 	stclcs	15, cr6, [fp, #-444]!	; 0xfffffe44
    12c6:	74696d65 	strbtvc	r6, [r9], #-3429	; 0xd65

000012ca <Code_261>:
    12ca:	f847 6d04 	str.w	r6, [r7, #-4]!
    12ce:	4e70      	ldr	r6, [pc, #448]	; (1490 <Code_290+0x54>)
    12d0:	4770      	bx	lr
    12d2:	000013c0 	andeq	r1, r0, r0, asr #7

000012d6 <Dictionary_264>:
    12d6:	000012f2 	strdeq	r1, [r0], -r2
    12da:	68080081 	stmdavs	r8, {r0, r7}
    12de:	2d6b6f6f 	stclcs	15, cr6, [fp, #-444]!	; 0xfffffe44
    12e2:	0079656b 	rsbseq	r6, r9, fp, ror #10

000012e6 <Code_264>:
    12e6:	f847 6d04 	str.w	r6, [r7, #-4]!
    12ea:	4e6a      	ldr	r6, [pc, #424]	; (1494 <Code_290+0x58>)
    12ec:	4770      	bx	lr
    12ee:	000013e6 	andeq	r1, r0, r6, ror #7

000012f2 <Dictionary_267>:
    12f2:	00001310 	andeq	r1, r0, r0, lsl r3
    12f6:	680a0081 	stmdavs	sl, {r0, r7}
    12fa:	2d6b6f6f 	stclcs	15, cr6, [fp, #-444]!	; 0xfffffe44
    12fe:	74696d65 	strbtvc	r6, [r9], #-3429	; 0xd65
    1302:	f847003f 			; <UNDEFINED> instruction: 0xf847003f

00001304 <Code_267>:
    1304:	f847 6d04 	str.w	r6, [r7, #-4]!
    1308:	4e63      	ldr	r6, [pc, #396]	; (1498 <Code_290+0x5c>)
    130a:	4770      	bx	lr
    130c:	00001410 	andeq	r1, r0, r0, lsl r4

00001310 <Dictionary_270>:
    1310:	0000132c 	andeq	r1, r0, ip, lsr #6
    1314:	68090081 	stmdavs	r9, {r0, r7}
    1318:	2d6b6f6f 	stclcs	15, cr6, [fp, #-444]!	; 0xfffffe44
    131c:	3f79656b 	svccc	0x0079656b

00001320 <Code_270>:
    1320:	f847 6d04 	str.w	r6, [r7, #-4]!
    1324:	4e5d      	ldr	r6, [pc, #372]	; (149c <Code_290+0x60>)
    1326:	4770      	bx	lr
    1328:	0000143c 	andeq	r1, r0, ip, lsr r4

0000132c <Dictionary_273>:
    132c:	0000134a 	andeq	r1, r0, sl, asr #6
    1330:	680a0081 	stmdavs	sl, {r0, r7}
    1334:	2d6b6f6f 	stclcs	15, cr6, [fp, #-444]!	; 0xfffffe44
    1338:	73756170 	cmnvc	r5, #28
    133c:	f8470065 			; <UNDEFINED> instruction: 0xf8470065

0000133e <Code_273>:
    133e:	f847 6d04 	str.w	r6, [r7, #-4]!
    1342:	4e57      	ldr	r6, [pc, #348]	; (14a0 <Code_290+0x64>)
    1344:	4770      	bx	lr
    1346:	0000353a 	andeq	r3, r0, sl, lsr r5

0000134a <Dictionary_276>:
    134a:	00001360 	andeq	r1, r0, r0, ror #6
    134e:	65040000 	strvs	r0, [r4]
    1352:	0074696d 	rsbseq	r6, r4, sp, ror #18

00001356 <Code_276>:
    1356:	b50f      	push	{r0, r1, r2, r3, lr}
    1358:	484d      	ldr	r0, [pc, #308]	; (1490 <Code_290+0x54>)
    135a:	f000 f826 	bl	13aa <hook_intern>
    135e:	bd0f      	pop	{r0, r1, r2, r3, pc}

00001360 <Dictionary_277>:
    1360:	00001374 	andeq	r1, r0, r4, ror r3
    1364:	6b030000 	blvs	c136c <BIT19+0x4136c>
    1368:	b50f7965 	strlt	r7, [pc, #-2405]	; a0b <Dictionary_154+0x7>

0000136a <Code_277>:
    136a:	b50f      	push	{r0, r1, r2, r3, lr}
    136c:	4849      	ldr	r0, [pc, #292]	; (1494 <Code_290+0x58>)
    136e:	f000 f81c 	bl	13aa <hook_intern>
    1372:	bd0f      	pop	{r0, r1, r2, r3, pc}

00001374 <Dictionary_278>:
    1374:	00001386 	andeq	r1, r0, r6, lsl #7
    1378:	65050000 	strvs	r0, [r5]
    137c:	3f74696d 	svccc	0x0074696d

00001380 <Code_278>:
    1380:	4845      	ldr	r0, [pc, #276]	; (1498 <Code_290+0x5c>)
    1382:	6800      	ldr	r0, [r0, #0]
    1384:	4687      	mov	pc, r0

00001386 <Dictionary_279>:
    1386:	00001398 	muleq	r0, r8, r3
    138a:	6b040000 	blvs	101392 <BIT20+0x1392>
    138e:	003f7965 	eorseq	r7, pc, r5, ror #18

00001392 <Code_279>:
    1392:	4842      	ldr	r0, [pc, #264]	; (149c <Code_290+0x60>)
    1394:	6800      	ldr	r0, [r0, #0]
    1396:	4687      	mov	pc, r0

00001398 <Dictionary_280>:
    1398:	000013ae 	andeq	r1, r0, lr, lsr #7
    139c:	70050000 	andvc	r0, r5, r0
    13a0:	65737561 	ldrbvs	r7, [r3, #-1377]!	; 0x561

000013a4 <Code_280>:
    13a4:	483e      	ldr	r0, [pc, #248]	; (14a0 <Code_290+0x64>)
    13a6:	6800      	ldr	r0, [r0, #0]
    13a8:	4687      	mov	pc, r0

000013aa <hook_intern>:
    13aa:	6800      	ldr	r0, [r0, #0]
    13ac:	4687      	mov	pc, r0

000013ae <Dictionary_281>:
    13ae:	000013d4 	ldrdeq	r1, [r0], -r4
    13b2:	730b0000 	movwvc	r0, #45056	; 0xb000
    13b6:	61697265 	cmnvs	r9, r5, ror #4
    13ba:	6d652d6c 	stclvs	13, cr2, [r5, #-432]!	; 0xfffffe50
    13be:	b5007469 	strlt	r7, [r0, #-1129]	; 0x469

000013c0 <Code_281>:
    13c0:	b500      	push	{lr}
    13c2:	f000 f825 	bl	1410 <Code_287>
    13c6:	2e00      	cmp	r6, #0
    13c8:	cf40      	ldmia	r7!, {r6}
    13ca:	d0fa      	beq.n	13c2 <Code_281+0x2>
    13cc:	4a35      	ldr	r2, [pc, #212]	; (14a4 <Code_290+0x68>)
    13ce:	7016      	strb	r6, [r2, #0]
    13d0:	cf40      	ldmia	r7!, {r6}
    13d2:	bd00      	pop	{pc}

000013d4 <Dictionary_284>:
    13d4:	000013fc 	strdeq	r1, [r0], -ip
    13d8:	730a0000 	movwvc	r0, #40960	; 0xa000
    13dc:	61697265 	cmnvs	r9, r5, ror #4
    13e0:	656b2d6c 	strbvs	r2, [fp, #-3436]!	; 0xd6c
    13e4:	b5000079 	strlt	r0, [r0, #-121]	; 0x79

000013e6 <Code_284>:
    13e6:	b500      	push	{lr}
    13e8:	f000 f828 	bl	143c <Code_290>
    13ec:	2e00      	cmp	r6, #0
    13ee:	cf40      	ldmia	r7!, {r6}
    13f0:	d0fa      	beq.n	13e8 <Code_284+0x2>
    13f2:	f847 6d04 	str.w	r6, [r7, #-4]!
    13f6:	4a2c      	ldr	r2, [pc, #176]	; (14a8 <Code_290+0x6c>)
    13f8:	7816      	ldrb	r6, [r2, #0]
    13fa:	bd00      	pop	{pc}

000013fc <Dictionary_287>:
    13fc:	0000142a 	andeq	r1, r0, sl, lsr #8
    1400:	730c0000 	movwvc	r0, #49152	; 0xc000
    1404:	61697265 	cmnvs	r9, r5, ror #4
    1408:	6d652d6c 	stclvs	13, cr2, [r5, #-432]!	; 0xfffffe50
    140c:	003f7469 	eorseq	r7, pc, r9, ror #8

00001410 <Code_287>:
    1410:	b500      	push	{lr}
    1412:	f7ff ffc7 	bl	13a4 <Code_280>
    1416:	f847 6d04 	str.w	r6, [r7, #-4]!
    141a:	2600      	movs	r6, #0
    141c:	4823      	ldr	r0, [pc, #140]	; (14ac <Code_290+0x70>)
    141e:	6801      	ldr	r1, [r0, #0]
    1420:	2080      	movs	r0, #128	; 0x80
    1422:	4001      	ands	r1, r0
    1424:	d000      	beq.n	1428 <Code_287+0x18>
    1426:	43f6      	mvns	r6, r6
    1428:	bd00      	pop	{pc}

0000142a <Dictionary_290>:
    142a:	000014b0 			; <UNDEFINED> instruction: 0x000014b0
    142e:	730b0000 	movwvc	r0, #45056	; 0xb000
    1432:	61697265 	cmnvs	r9, r5, ror #4
    1436:	656b2d6c 	strbvs	r2, [fp, #-3436]!	; 0xd6c
    143a:	b5003f79 	strlt	r3, [r0, #-3961]	; 0xf79

0000143c <Code_290>:
    143c:	b500      	push	{lr}
    143e:	f7ff ffb1 	bl	13a4 <Code_280>
    1442:	f847 6d04 	str.w	r6, [r7, #-4]!
    1446:	2600      	movs	r6, #0
    1448:	4818      	ldr	r0, [pc, #96]	; (14ac <Code_290+0x70>)
    144a:	6801      	ldr	r1, [r0, #0]
    144c:	2020      	movs	r0, #32
    144e:	4001      	ands	r1, r0
    1450:	d000      	beq.n	1454 <Code_290+0x18>
    1452:	43f6      	mvns	r6, r6
    1454:	bd00      	pop	{pc}
    1456:	9ffc0000 	svcls	0x00fc0000
    145a:	10142000 	andsne	r2, r4, r0
    145e:	00144002 	andseq	r4, r4, r2
    1462:	1018007e 	andsne	r0, r8, lr, ror r0
    1466:	40004002 	andmi	r4, r0, r2
    146a:	00000000 	andeq	r0, r0, r0
    146e:	00004800 	andeq	r4, r0, r0, lsl #16
    1472:	0024a828 	eoreq	sl, r4, r8, lsr #16
    1476:	07704800 	ldrbeq	r4, [r0, -r0, lsl #16]!
    147a:	380c0000 	stmdacc	ip, {}	; <UNPREDICTABLE>
    147e:	38084001 	stmdacc	r8, {r0, lr}
    1482:	10004001 	andne	r4, r0, r1
    1486:	38000000 	stmdacc	r0, {}	; <UNPREDICTABLE>
    148a:	000d4001 	andeq	r4, sp, r1
    148e:	9ff80000 	svcls	0x00f80000
    1492:	9ff42000 	svcls	0x00f42000
    1496:	9ff02000 	svcls	0x00f02000
    149a:	9fec2000 	svcls	0x00ec2000
    149e:	9fe82000 	svcls	0x00e82000
    14a2:	38282000 	stmdacc	r8!, {sp}
    14a6:	38244001 	stmdacc	r4!, {r0, lr}
    14aa:	381c4001 	ldmdacc	ip, {r0, lr}
    14ae:	14d44001 	ldrbne	r4, [r4], #1

000014b0 <Dictionary_293>:
    14b0:	000014d4 	ldrdeq	r1, [r0], -r4
    14b4:	63070000 	movwvs	r0, #28672	; 0x7000
    14b8:	65707865 	ldrbvs	r7, [r0, #-2149]!	; 0x865
    14bc:	b5007463 	strlt	r7, [r0, #-1123]	; 0x463

000014be <Code_293>:
    14be:	b500      	push	{lr}
    14c0:	6838      	ldr	r0, [r7, #0]
    14c2:	b401      	push	{r0}
    14c4:	3001      	adds	r0, #1
    14c6:	6038      	str	r0, [r7, #0]
    14c8:	f000 f80b 	bl	14e2 <Code_295>
    14cc:	bc01      	pop	{r0}
    14ce:	7006      	strb	r6, [r0, #0]
    14d0:	cf40      	ldmia	r7!, {r6}
    14d2:	bd00      	pop	{pc}

000014d4 <Dictionary_295>:
    14d4:	0000154a 	andeq	r1, r0, sl, asr #10
    14d8:	61060000 	mrsvs	r0, (UNDEF: 6)
    14dc:	70656363 	rsbvc	r6, r5, r3, ror #6
    14e0:	b5000074 	strlt	r0, [r0, #-116]	; 0x74

000014e2 <Code_295>:
    14e2:	b500      	push	{lr}
    14e4:	cf02      	ldmia	r7!, {r1}
    14e6:	3901      	subs	r1, #1
    14e8:	2200      	movs	r2, #0
    14ea:	f7ff ff3e 	bl	136a <Code_277>
    14ee:	0030      	movs	r0, r6
    14f0:	cf40      	ldmia	r7!, {r6}
    14f2:	287f      	cmp	r0, #127	; 0x7f
    14f4:	d009      	beq.n	150a <Code_295+0x28>
    14f6:	2820      	cmp	r0, #32
    14f8:	d219      	bcs.n	152e <Code_295+0x4c>
    14fa:	2809      	cmp	r0, #9
    14fc:	d016      	beq.n	152c <Code_295+0x4a>
    14fe:	280a      	cmp	r0, #10
    1500:	d01f      	beq.n	1542 <Code_295+0x60>
    1502:	280d      	cmp	r0, #13
    1504:	d01d      	beq.n	1542 <Code_295+0x60>
    1506:	2808      	cmp	r0, #8
    1508:	d1ef      	bne.n	14ea <Code_295+0x8>
    150a:	2a00      	cmp	r2, #0
    150c:	d0ed      	beq.n	14ea <Code_295+0x8>
    150e:	f000 f90e 	bl	172e <dotgaensefuesschen>
    1512:	08200803 	stmdaeq	r0!, {r0, r1, fp}
    1516:	2a00      	cmp	r2, #0
    1518:	d0e7      	beq.n	14ea <Code_295+0x8>
    151a:	5c88      	ldrb	r0, [r1, r2]
    151c:	3a01      	subs	r2, #1
    151e:	2380      	movs	r3, #128	; 0x80
    1520:	4003      	ands	r3, r0
    1522:	d0e2      	beq.n	14ea <Code_295+0x8>
    1524:	2340      	movs	r3, #64	; 0x40
    1526:	4003      	ands	r3, r0
    1528:	d0f5      	beq.n	1516 <Code_295+0x34>
    152a:	e7de      	b.n	14ea <Code_295+0x8>
    152c:	2020      	movs	r0, #32
    152e:	42b2      	cmp	r2, r6
    1530:	d2db      	bcs.n	14ea <Code_295+0x8>
    1532:	f847 6d04 	str.w	r6, [r7, #-4]!
    1536:	0006      	movs	r6, r0
    1538:	f7ff ff0d 	bl	1356 <Code_276>
    153c:	3201      	adds	r2, #1
    153e:	5488      	strb	r0, [r1, r2]
    1540:	e7d3      	b.n	14ea <Code_295+0x8>
    1542:	0016      	movs	r6, r2
    1544:	f000 f8a2 	bl	168c <Code_326>
    1548:	bd00      	pop	{pc}

0000154a <Dictionary_299>:
    154a:	0000155c 	andeq	r1, r0, ip, asr r5
    154e:	74030040 	strvc	r0, [r3], #-64	; 0x40
    1552:	f8476269 			; <UNDEFINED> instruction: 0xf8476269

00001554 <Code_299>:
    1554:	f847 6d04 	str.w	r6, [r7, #-4]!
    1558:	4e29      	ldr	r6, [pc, #164]	; (1600 <Code_311+0x22>)
    155a:	4770      	bx	lr

0000155c <Dictionary_301>:
    155c:	00001572 	andeq	r1, r0, r2, ror r5
    1560:	3e030081 	cdpcc	0, 0, cr0, cr3, cr1, {4}
    1564:	f8476e69 			; <UNDEFINED> instruction: 0xf8476e69

00001566 <Code_301>:
    1566:	f847 6d04 	str.w	r6, [r7, #-4]!
    156a:	4e26      	ldr	r6, [pc, #152]	; (1604 <Code_311+0x26>)
    156c:	4770      	bx	lr
    156e:	00000000 	andeq	r0, r0, r0

00001572 <Dictionary_304>:
    1572:	00001598 	muleq	r0, r8, r5
    1576:	630e0082 	movwvs	r0, #57474	; 0xe082
    157a:	65727275 	ldrbvs	r7, [r2, #-629]!	; 0x275
    157e:	732d746e 	teqvc	sp, #1845493760	; 0x6e000000
    1582:	6372756f 	cmnvs	r2, #465567744	; 0x1bc00000
    1586:	f8470065 			; <UNDEFINED> instruction: 0xf8470065

00001588 <Code_304>:
    1588:	f847 6d04 	str.w	r6, [r7, #-4]!
    158c:	4e1e      	ldr	r6, [pc, #120]	; (1608 <Code_311+0x2a>)
    158e:	4770      	bx	lr
    1590:	00000000 	andeq	r0, r0, r0
    1594:	20000068 	andcs	r0, r0, r8, rrx

00001598 <Dictionary_307>:
    1598:	000015b4 			; <UNDEFINED> instruction: 0x000015b4
    159c:	73090000 	movwvc	r0, #36864	; 0x9000
    15a0:	6f737465 	svcvs	0x00737465
    15a4:	65637275 	strbvs	r7, [r3, #-629]!	; 0x275

000015a8 <Code_307>:
    15a8:	4817      	ldr	r0, [pc, #92]	; (1608 <Code_311+0x2a>)
    15aa:	cf02      	ldmia	r7!, {r1}
    15ac:	6006      	str	r6, [r0, #0]
    15ae:	6041      	str	r1, [r0, #4]
    15b0:	cf40      	ldmia	r7!, {r6}
    15b2:	4770      	bx	lr

000015b4 <Dictionary_309>:
    15b4:	000015d2 	ldrdeq	r1, [r0], -r2
    15b8:	73060000 	movwvc	r0, #24576	; 0x6000
    15bc:	6372756f 	cmnvs	r2, #465567744	; 0x1bc00000
    15c0:	f8470065 			; <UNDEFINED> instruction: 0xf8470065

000015c2 <Code_309>:
    15c2:	f847 6d04 	str.w	r6, [r7, #-4]!
    15c6:	4e10      	ldr	r6, [pc, #64]	; (1608 <Code_311+0x2a>)
    15c8:	3f04      	subs	r7, #4
    15ca:	6870      	ldr	r0, [r6, #4]
    15cc:	6038      	str	r0, [r7, #0]
    15ce:	6836      	ldr	r6, [r6, #0]
    15d0:	4770      	bx	lr

000015d2 <Dictionary_311>:
    15d2:	0000160c 	andeq	r1, r0, ip, lsl #12
    15d6:	71050000 	mrsvc	r0, (UNDEF: 5)
    15da:	79726575 	ldmdbvc	r2!, {r0, r2, r4, r5, r6, r8, sl, sp, lr}^

000015de <Code_311>:
    15de:	b50f      	push	{r0, r1, r2, r3, lr}
    15e0:	4808      	ldr	r0, [pc, #32]	; (1604 <Code_311+0x26>)
    15e2:	2100      	movs	r1, #0
    15e4:	6001      	str	r1, [r0, #0]
    15e6:	f7ff ffb5 	bl	1554 <Code_299>
    15ea:	f847 6d04 	str.w	r6, [r7, #-4]!
    15ee:	f847 6d04 	str.w	r6, [r7, #-4]!
    15f2:	26c8      	movs	r6, #200	; 0xc8
    15f4:	f7ff ff75 	bl	14e2 <Code_295>
    15f8:	f7ff ffd6 	bl	15a8 <Code_307>
    15fc:	bd0f      	pop	{r0, r1, r2, r3, pc}
    15fe:	00680000 	rsbeq	r0, r8, r0
    1602:	9fe42000 	svcls	0x00e42000
    1606:	9fdc2000 	svcls	0x00dc2000
    160a:	165a2000 	ldrbne	r2, [sl], -r0

0000160c <Dictionary_316>:
    160c:	0000165a 	andeq	r1, r0, sl, asr r6
    1610:	63070000 	movwvs	r0, #28672	; 0x7000
    1614:	61706d6f 	cmnvs	r0, pc, ror #26
    1618:	b50f6572 	strlt	r6, [pc, #-1394]	; 10ae <eraseflash_intern+0x5a>

0000161a <Code_316>:
    161a:	b50f      	push	{r0, r1, r2, r3, lr}
    161c:	0031      	movs	r1, r6
    161e:	cf40      	ldmia	r7!, {r6}
    1620:	cf01      	ldmia	r7!, {r0}
    1622:	4288      	cmp	r0, r1
    1624:	d002      	beq.n	162c <Code_316+0x12>
    1626:	cf40      	ldmia	r7!, {r6}
    1628:	2600      	movs	r6, #0
    162a:	bd0f      	pop	{r0, r1, r2, r3, pc}
    162c:	cf02      	ldmia	r7!, {r1}
    162e:	2800      	cmp	r0, #0
    1630:	d010      	beq.n	1654 <Code_316+0x3a>
    1632:	3801      	subs	r0, #1
    1634:	5c0a      	ldrb	r2, [r1, r0]
    1636:	5c33      	ldrb	r3, [r6, r0]
    1638:	2a41      	cmp	r2, #65	; 0x41
    163a:	d302      	bcc.n	1642 <Code_316+0x28>
    163c:	2a5b      	cmp	r2, #91	; 0x5b
    163e:	bf38      	it	cc
    1640:	3220      	addcc	r2, #32
    1642:	2b41      	cmp	r3, #65	; 0x41
    1644:	d302      	bcc.n	164c <Code_316+0x32>
    1646:	2b5b      	cmp	r3, #91	; 0x5b
    1648:	bf38      	it	cc
    164a:	3320      	addcc	r3, #32
    164c:	429a      	cmp	r2, r3
    164e:	d0ee      	beq.n	162e <Code_316+0x14>
    1650:	2600      	movs	r6, #0
    1652:	bd0f      	pop	{r0, r1, r2, r3, pc}
    1654:	2600      	movs	r6, #0
    1656:	43f6      	mvns	r6, r6
    1658:	bd0f      	pop	{r0, r1, r2, r3, pc}

0000165a <Dictionary_321>:
    165a:	0000166e 	andeq	r1, r0, lr, ror #12
    165e:	63020000 	movwvs	r0, #8192	; 0x2000
    1662:	b5000072 	strlt	r0, [r0, #-114]	; 0x72

00001664 <Code_321>:
    1664:	b500      	push	{lr}
    1666:	f000 f862 	bl	172e <dotgaensefuesschen>
    166a:	bd000a01 	vstrlt	s0, [r0, #-4]

0000166e <Dictionary_323>:
    166e:	00001680 	andeq	r1, r0, r0, lsl #13
    1672:	62020000 	andvs	r0, r2, #0
    1676:	f847006c 			; <UNDEFINED> instruction: 0xf847006c

00001678 <Code_323>:
    1678:	f847 6d04 	str.w	r6, [r7, #-4]!
    167c:	2620      	movs	r6, #32
    167e:	4770      	bx	lr

00001680 <Dictionary_326>:
    1680:	00001694 	muleq	r0, r4, r6
    1684:	73050000 	movwvc	r0, #20480	; 0x5000
    1688:	65636170 	strbvs	r6, [r3, #-368]!	; 0x170

0000168c <Code_326>:
    168c:	f847 6d04 	str.w	r6, [r7, #-4]!
    1690:	2620      	movs	r6, #32
    1692:	e660      	b.n	1356 <Code_276>

00001694 <Dictionary_329>:
    1694:	000016b4 			; <UNDEFINED> instruction: 0x000016b4
    1698:	73060000 	movwvc	r0, #24576	; 0x6000
    169c:	65636170 	strbvs	r6, [r3, #-368]!	; 0x170
    16a0:	b5000073 	strlt	r0, [r0, #-115]	; 0x73

000016a2 <Code_329>:
    16a2:	b500      	push	{lr}
    16a4:	2e00      	cmp	r6, #0
    16a6:	dd03      	ble.n	16b0 <Code_329+0xe>
    16a8:	f7ff fff0 	bl	168c <Code_326>
    16ac:	3e01      	subs	r6, #1
    16ae:	d1fb      	bne.n	16a8 <Code_329+0x6>
    16b0:	cf40      	ldmia	r7!, {r6}
    16b2:	bd00      	pop	{pc}

000016b4 <Dictionary_331>:
    16b4:	000016c4 	andeq	r1, r0, r4, asr #13
    16b8:	5b060050 	blpl	181800 <BIT20+0x81800>
    16bc:	72616863 	rsbvc	r6, r1, #6488064	; 0x630000
    16c0:	e005005d 	and	r0, r5, sp, asr r0

000016c2 <Code_331>:
    16c2:	e005      	b.n	16d0 <Code_332>

000016c4 <Dictionary_332>:
    16c4:	000016dc 	ldrdeq	r1, [r0], -ip
    16c8:	63040000 	movwvs	r0, #16384	; 0x4000
    16cc:	00726168 	rsbseq	r6, r2, r8, ror #2

000016d0 <Code_332>:
    16d0:	b500      	push	{lr}
    16d2:	f001 fb47 	bl	2d64 <Code_782>
    16d6:	cf40      	ldmia	r7!, {r6}
    16d8:	7836      	ldrb	r6, [r6, #0]
    16da:	bd00      	pop	{pc}

000016dc <Dictionary_334>:
    16dc:	000016ec 	andeq	r1, r0, ip, ror #13
    16e0:	28010050 	stmdacs	r1, {r4, r6}

000016e4 <Code_334>:
    16e4:	f847 6d04 	str.w	r6, [r7, #-4]!
    16e8:	2629      	movs	r6, #41	; 0x29
    16ea:	e006      	b.n	16fa <Code_337+0x6>

000016ec <Dictionary_337>:
    16ec:	00001706 	andeq	r1, r0, r6, lsl #14
    16f0:	5c010050 	stcpl	0, cr0, [r1], {80}	; 0x50

000016f4 <Code_337>:
    16f4:	f847 6d04 	str.w	r6, [r7, #-4]!
    16f8:	2600      	movs	r6, #0
    16fa:	b500      	push	{lr}
    16fc:	f001 fb3c 	bl	2d78 <Code_784>
    1700:	3704      	adds	r7, #4
    1702:	cf40      	ldmia	r7!, {r6}
    1704:	bd00      	pop	{pc}

00001706 <Dictionary_342>:
    1706:	0000174a 	andeq	r1, r0, sl, asr #14
    170a:	2e020010 	mcrcs	0, 0, r0, cr2, cr0, {0}
    170e:	489b0022 	ldmmi	fp, {r1, r5}

00001710 <Code_342>:
    1710:	489b      	ldr	r0, [pc, #620]	; (1980 <Code_381+0x94>)
    1712:	b500      	push	{lr}
    1714:	f847 6d04 	str.w	r6, [r7, #-4]!
    1718:	0006      	movs	r6, r0
    171a:	f000 fa5e 	bl	1bda <Code_422>
    171e:	f847 6d04 	str.w	r6, [r7, #-4]!
    1722:	2622      	movs	r6, #34	; 0x22
    1724:	f001 fb28 	bl	2d78 <Code_784>
    1728:	f000 fd53 	bl	21d2 <Code_540>
    172c:	bd00      	pop	{pc}

0000172e <dotgaensefuesschen>:
    172e:	b40a      	push	{r1, r3}
    1730:	f847 6d04 	str.w	r6, [r7, #-4]!
    1734:	4676      	mov	r6, lr
    1736:	3e01      	subs	r6, #1
    1738:	7833      	ldrb	r3, [r6, #0]
    173a:	2101      	movs	r1, #1
    173c:	3301      	adds	r3, #1
    173e:	4019      	ands	r1, r3
    1740:	185b      	adds	r3, r3, r1
    1742:	eb1e 0e03 	adds.w	lr, lr, r3
    1746:	bc0a      	pop	{r1, r3}
    1748:	e039      	b.n	17be <Code_357>

0000174a <Dictionary_348>:
    174a:	00001770 	andeq	r1, r0, r0, ror r7
    174e:	63020010 	movwvs	r0, #8208	; 0x2010
    1752:	488b0022 	stmmi	fp, {r1, r5}

00001754 <Code_348>:
    1754:	488b      	ldr	r0, [pc, #556]	; (1984 <Code_381+0x98>)
    1756:	e7dc      	b.n	1712 <Code_342+0x2>

00001758 <dotcfuesschen>:
    1758:	f847 6d04 	str.w	r6, [r7, #-4]!
    175c:	4676      	mov	r6, lr
    175e:	3e01      	subs	r6, #1
    1760:	7833      	ldrb	r3, [r6, #0]
    1762:	2101      	movs	r1, #1
    1764:	3301      	adds	r3, #1
    1766:	4019      	ands	r1, r3
    1768:	185b      	adds	r3, r3, r1
    176a:	eb1e 0e03 	adds.w	lr, lr, r3
    176e:	4770      	bx	lr

00001770 <Dictionary_350>:
    1770:	0000179a 	muleq	r0, sl, r7
    1774:	73020010 	movwvc	r0, #8208	; 0x2010
    1778:	48830022 	stmmi	r3, {r1, r5}

0000177a <Code_350>:
    177a:	4883      	ldr	r0, [pc, #524]	; (1988 <Code_381+0x9c>)
    177c:	e7c9      	b.n	1712 <Code_342+0x2>

0000177e <dotsfuesschen>:
    177e:	f847 6d04 	str.w	r6, [r7, #-4]!
    1782:	4676      	mov	r6, lr
    1784:	f847 6d04 	str.w	r6, [r7, #-4]!
    1788:	3e01      	subs	r6, #1
    178a:	7836      	ldrb	r6, [r6, #0]
    178c:	2101      	movs	r1, #1
    178e:	1c73      	adds	r3, r6, #1
    1790:	4019      	ands	r1, r3
    1792:	185b      	adds	r3, r3, r1
    1794:	eb1e 0e03 	adds.w	lr, lr, r3
    1798:	4770      	bx	lr

0000179a <Dictionary_354>:
    179a:	000017b2 			; <UNDEFINED> instruction: 0x000017b2
    179e:	63050000 	movwvs	r0, #20480	; 0x5000
    17a2:	746e756f 	strbtvc	r7, [lr], #-1391	; 0x56f

000017a6 <Code_354>:
    17a6:	3601      	adds	r6, #1
    17a8:	f847 6d04 	str.w	r6, [r7, #-4]!
    17ac:	3e01      	subs	r6, #1
    17ae:	7836      	ldrb	r6, [r6, #0]
    17b0:	4770      	bx	lr

000017b2 <Dictionary_357>:
    17b2:	000017da 	ldrdeq	r1, [r0], -sl
    17b6:	63050000 	movwvs	r0, #20480	; 0x5000
    17ba:	65707974 	ldrbvs	r7, [r0, #-2420]!	; 0x974

000017be <Code_357>:
    17be:	b501      	push	{r0, lr}
    17c0:	7830      	ldrb	r0, [r6, #0]
    17c2:	2800      	cmp	r0, #0
    17c4:	d007      	beq.n	17d6 <Code_357+0x18>
    17c6:	3601      	adds	r6, #1
    17c8:	f847 6d04 	str.w	r6, [r7, #-4]!
    17cc:	7836      	ldrb	r6, [r6, #0]
    17ce:	f7ff fdc2 	bl	1356 <Code_276>
    17d2:	3801      	subs	r0, #1
    17d4:	d1f7      	bne.n	17c6 <Code_357+0x8>
    17d6:	cf40      	ldmia	r7!, {r6}
    17d8:	bd01      	pop	{r0, pc}

000017da <Dictionary_361>:
    17da:	00001808 	andeq	r1, r0, r8, lsl #16
    17de:	74040000 	strvc	r0, [r4]
    17e2:	00657079 	rsbeq	r7, r5, r9, ror r0

000017e6 <Code_361>:
    17e6:	0031      	movs	r1, r6
    17e8:	cf40      	ldmia	r7!, {r6}
    17ea:	0030      	movs	r0, r6
    17ec:	cf40      	ldmia	r7!, {r6}

000017ee <stype_addr_r0_len_r1>:
    17ee:	b500      	push	{lr}
    17f0:	2900      	cmp	r1, #0
    17f2:	d008      	beq.n	1806 <stype_addr_r0_len_r1+0x18>
    17f4:	2200      	movs	r2, #0
    17f6:	f847 6d04 	str.w	r6, [r7, #-4]!
    17fa:	5c86      	ldrb	r6, [r0, r2]
    17fc:	f7ff fdab 	bl	1356 <Code_276>
    1800:	3201      	adds	r2, #1
    1802:	4291      	cmp	r1, r2
    1804:	d1f7      	bne.n	17f6 <stype_addr_r0_len_r1+0x8>
    1806:	bd00      	pop	{pc}

00001808 <Dictionary_365>:
    1808:	00001842 	andeq	r1, r0, r2, asr #16
    180c:	68040000 	stmdavs	r4, {}	; <UNPREDICTABLE>
    1810:	002e7865 	eoreq	r7, lr, r5, ror #16

00001814 <Code_365>:
    1814:	b507      	push	{r0, r1, r2, lr}
    1816:	0031      	movs	r1, r6
    1818:	cf40      	ldmia	r7!, {r6}
    181a:	2020      	movs	r0, #32
    181c:	220f      	movs	r2, #15
    181e:	3804      	subs	r0, #4
    1820:	f847 6d04 	str.w	r6, [r7, #-4]!
    1824:	000e      	movs	r6, r1
    1826:	40c6      	lsrs	r6, r0
    1828:	4016      	ands	r6, r2
    182a:	2e09      	cmp	r6, #9
    182c:	d901      	bls.n	1832 <Code_365+0x1e>
    182e:	3637      	adds	r6, #55	; 0x37
    1830:	e000      	b.n	1834 <Code_365+0x20>
    1832:	3630      	adds	r6, #48	; 0x30
    1834:	f7ff fd8f 	bl	1356 <Code_276>
    1838:	2800      	cmp	r0, #0
    183a:	d1f0      	bne.n	181e <Code_365+0xa>
    183c:	f7ff ff26 	bl	168c <Code_326>
    1840:	bd07      	pop	{r0, r1, r2, pc}

00001842 <Dictionary_368>:
    1842:	00001852 	andeq	r1, r0, r2, asr r8
    1846:	68030000 	stmdavs	r3, {}	; <UNPREDICTABLE>
    184a:	b51f732e 	ldrlt	r7, [pc, #-814]	; 1524 <Code_295+0x42>

0000184c <Code_368>:
    184c:	b51f      	push	{r0, r1, r2, r3, r4, lr}
    184e:	4c4f      	ldr	r4, [pc, #316]	; (198c <Code_381+0xa0>)
    1850:	e00e      	b.n	1870 <Code_370+0x4>

00001852 <Dictionary_369>:
    1852:	00001862 	andeq	r1, r0, r2, ror #16
    1856:	75030000 	strvc	r0, [r3]
    185a:	b51f732e 	ldrlt	r7, [pc, #-814]	; 1534 <Code_295+0x52>

0000185c <Code_369>:
    185c:	b51f      	push	{r0, r1, r2, r3, r4, lr}
    185e:	4c4c      	ldr	r4, [pc, #304]	; (1990 <Code_381+0xa4>)
    1860:	e006      	b.n	1870 <Code_370+0x4>

00001862 <Dictionary_370>:
    1862:	000018e0 	andeq	r1, r0, r0, ror #17
    1866:	2e020000 	cdpcs	0, 0, cr0, cr2, cr0, {0}
    186a:	b51f0073 	ldrlt	r0, [pc, #-115]	; 17ff <stype_addr_r0_len_r1+0x11>

0000186c <Code_370>:
    186c:	b51f      	push	{r0, r1, r2, r3, r4, lr}
    186e:	4c49      	ldr	r4, [pc, #292]	; (1994 <Code_381+0xa8>)
    1870:	4949      	ldr	r1, [pc, #292]	; (1998 <Code_381+0xac>)
    1872:	1bc9      	subs	r1, r1, r7
    1874:	0889      	lsrs	r1, r1, #2
    1876:	4a49      	ldr	r2, [pc, #292]	; (199c <Code_381+0xb0>)
    1878:	6810      	ldr	r0, [r2, #0]
    187a:	b403      	push	{r0, r1}
    187c:	200a      	movs	r0, #10
    187e:	6010      	str	r0, [r2, #0]
    1880:	f7ff ff55 	bl	172e <dotgaensefuesschen>
    1884:	61745308 	cmnvs	r4, r8, lsl #6
    1888:	203a6b63 	eorscs	r6, sl, r3, ror #22
    188c:	f847005b 			; <UNDEFINED> instruction: 0xf847005b
    1890:	6d04      	ldr	r4, [r0, #80]	; 0x50
    1892:	000e      	movs	r6, r1
    1894:	f001 fc4b 	bl	312e <Code_850>
    1898:	f7ff ff49 	bl	172e <dotgaensefuesschen>
    189c:	00205d02 	eoreq	r5, r0, r2, lsl #26
    18a0:	bc03      	pop	{r0, r1}
    18a2:	4a3e      	ldr	r2, [pc, #248]	; (199c <Code_381+0xb0>)
    18a4:	6010      	str	r0, [r2, #0]
    18a6:	2900      	cmp	r1, #0
    18a8:	d00a      	beq.n	18c0 <Code_370+0x54>
    18aa:	4a3d      	ldr	r2, [pc, #244]	; (19a0 <Code_381+0xb4>)
    18ac:	6810      	ldr	r0, [r2, #0]
    18ae:	b406      	push	{r1, r2}
    18b0:	f847 6d04 	str.w	r6, [r7, #-4]!
    18b4:	0006      	movs	r6, r0
    18b6:	47a0      	blx	r4
    18b8:	bc06      	pop	{r1, r2}
    18ba:	3a04      	subs	r2, #4
    18bc:	3901      	subs	r1, #1
    18be:	d1f5      	bne.n	18ac <Code_370+0x40>
    18c0:	f7ff ff35 	bl	172e <dotgaensefuesschen>
    18c4:	4f542006 	svcmi	0x00542006
    18c8:	00203a53 	eoreq	r3, r0, r3, asr sl
    18cc:	f847 6d04 	str.w	r6, [r7, #-4]!
    18d0:	0036      	movs	r6, r6
    18d2:	47a0      	blx	r4
    18d4:	f7ff ff2b 	bl	172e <dotgaensefuesschen>
    18d8:	3e2a2004 	cdpcc	0, 2, cr2, cr10, cr4, {0}
    18dc:	bd1f000a 	ldclt	0, cr0, [pc, #-40]	; 18bc <Code_370+0x50>

000018e0 <Dictionary_381>:
    18e0:	000019a4 	andeq	r1, r0, r4, lsr #19
    18e4:	77050000 	strvc	r0, [r5, -r0]
    18e8:	7364726f 	cmnvc	r4, #-268435450	; 0xf0000006

000018ec <Code_381>:
    18ec:	b500      	push	{lr}
    18ee:	f7ff ff1e 	bl	172e <dotgaensefuesschen>
    18f2:	f0000a01 			; <UNDEFINED> instruction: 0xf0000a01
    18f6:	fea9 f7ff 	mcr2	7, 5, pc, cr9, cr15, {7}	; <UNPREDICTABLE>
    18fa:	ff19 4109 	vrhadd.u16	d4, d9, d9
    18fe:	65726464 	ldrbvs	r6, [r2, #-1124]!	; 0x464
    1902:	203a7373 	eorscs	r7, sl, r3, ror r3
    1906:	f847 6d04 	str.w	r6, [r7, #-4]!
    190a:	f7ff ff83 	bl	1814 <Code_365>
    190e:	f7ff ff0e 	bl	172e <dotgaensefuesschen>
    1912:	6e694c06 	cdpvs	12, 6, cr4, cr9, cr6, {0}
    1916:	00203a6b 	eoreq	r3, r0, fp, ror #20
    191a:	f847 6d04 	str.w	r6, [r7, #-4]!
    191e:	6836      	ldr	r6, [r6, #0]
    1920:	f7ff ff78 	bl	1814 <Code_365>
    1924:	f7ff ff03 	bl	172e <dotgaensefuesschen>
    1928:	616c4607 	cmnvs	ip, r7, lsl #12
    192c:	203a7367 	eorscs	r7, sl, r7, ror #6
    1930:	f847 6d04 	str.w	r6, [r7, #-4]!
    1934:	88b6      	ldrh	r6, [r6, #4]
    1936:	f7ff ff6d 	bl	1814 <Code_365>
    193a:	f7ff fef8 	bl	172e <dotgaensefuesschen>
    193e:	646f4306 	strbtvs	r4, [pc], #-774	; 1946 <Code_381+0x5a>
    1942:	00203a65 	eoreq	r3, r0, r5, ror #20
    1946:	1db0      	adds	r0, r6, #6
    1948:	f000 feb8 	bl	26bc <skipstring>
    194c:	f847 6d04 	str.w	r6, [r7, #-4]!
    1950:	0006      	movs	r6, r0
    1952:	f7ff ff5f 	bl	1814 <Code_365>
    1956:	f7ff feea 	bl	172e <dotgaensefuesschen>
    195a:	6d614e06 	stclvs	14, cr4, [r1, #-24]!	; 0xffffffe8
    195e:	00203a65 	eoreq	r3, r0, r5, ror #20
    1962:	f847 6d04 	str.w	r6, [r7, #-4]!
    1966:	3606      	adds	r6, #6
    1968:	f7ff ff29 	bl	17be <Code_357>
    196c:	f7ff fedf 	bl	172e <dotgaensefuesschen>
    1970:	f0000a01 			; <UNDEFINED> instruction: 0xf0000a01
    1974:	fe81 0030 	mcr2	0, 4, r0, cr1, cr0, {1}
    1978:	cf40      	ldmia	r7!, {r6}
    197a:	d0bd      	beq.n	18f8 <Code_381+0xc>
    197c:	cf40      	ldmia	r7!, {r6}
    197e:	bd00      	pop	{pc}
    1980:	0000172e 	andeq	r1, r0, lr, lsr #14
    1984:	00001758 	andeq	r1, r0, r8, asr r7
    1988:	0000177e 	andeq	r1, r0, lr, ror r7
    198c:	00001815 	andeq	r1, r0, r5, lsl r8
    1990:	0000311f 	andeq	r3, r0, pc, lsl r1
    1994:	0000312f 	andeq	r3, r0, pc, lsr #2
    1998:	20000230 	andcs	r0, r0, r0, lsr r2
    199c:	20009ffc 	strdcs	r9, [r0], -ip
    19a0:	2000022c 	andcs	r0, r0, ip, lsr #4

000019a4 <Dictionary_401>:
    19a4:	00001b08 	andeq	r1, r0, r8, lsl #22
    19a8:	310d0000 	mrscc	r0, (UNDEF: 13)
    19ac:	74696232 	strbtvc	r6, [r9], #-562	; 0x232
    19b0:	6f636e65 	svcvs	0x00636e65
    19b4:	676e6964 	strbvs	r6, [lr, -r4, ror #18]!

000019b8 <Code_401>:
    19b8:	b50f      	push	{r0, r1, r2, r3, lr}
    19ba:	2eff      	cmp	r6, #255	; 0xff
    19bc:	d804      	bhi.n	19c8 <Code_401+0x10>
    19be:	f847 6d04 	str.w	r6, [r7, #-4]!
    19c2:	f05f 36ff 	movs.w	r6, #4294967295
    19c6:	bd0f      	pop	{r0, r1, r2, r3, pc}
    19c8:	f016 10ff 	ands.w	r0, r6, #16711935	; 0xff00ff
    19cc:	42b0      	cmp	r0, r6
    19ce:	d10e      	bne.n	19ee <Code_401+0x36>
    19d0:	f64f 71ff 	movw	r1, #65535	; 0xffff
    19d4:	4008      	ands	r0, r1
    19d6:	0c31      	lsrs	r1, r6, #16
    19d8:	4281      	cmp	r1, r0
    19da:	d108      	bne.n	19ee <Code_401+0x36>
    19dc:	f016 06ff 	ands.w	r6, r6, #255	; 0xff
    19e0:	f456 5680 	orrs.w	r6, r6, #4096	; 0x1000
    19e4:	f847 6d04 	str.w	r6, [r7, #-4]!
    19e8:	f05f 36ff 	movs.w	r6, #4294967295
    19ec:	bd0f      	pop	{r0, r1, r2, r3, pc}
    19ee:	f016 20ff 	ands.w	r0, r6, #4278255360	; 0xff00ff00
    19f2:	42b0      	cmp	r0, r6
    19f4:	d10f      	bne.n	1a16 <Code_401+0x5e>
    19f6:	f64f 71ff 	movw	r1, #65535	; 0xffff
    19fa:	4008      	ands	r0, r1
    19fc:	0c31      	lsrs	r1, r6, #16
    19fe:	4281      	cmp	r1, r0
    1a00:	d109      	bne.n	1a16 <Code_401+0x5e>
    1a02:	0a36      	lsrs	r6, r6, #8
    1a04:	f016 06ff 	ands.w	r6, r6, #255	; 0xff
    1a08:	f456 5600 	orrs.w	r6, r6, #8192	; 0x2000
    1a0c:	f847 6d04 	str.w	r6, [r7, #-4]!
    1a10:	f05f 36ff 	movs.w	r6, #4294967295
    1a14:	bd0f      	pop	{r0, r1, r2, r3, pc}
    1a16:	22ff      	movs	r2, #255	; 0xff
    1a18:	0031      	movs	r1, r6
    1a1a:	4011      	ands	r1, r2
    1a1c:	0a30      	lsrs	r0, r6, #8
    1a1e:	4010      	ands	r0, r2
    1a20:	4288      	cmp	r0, r1
    1a22:	d110      	bne.n	1a46 <Code_401+0x8e>
    1a24:	0c30      	lsrs	r0, r6, #16
    1a26:	4010      	ands	r0, r2
    1a28:	4288      	cmp	r0, r1
    1a2a:	d10c      	bne.n	1a46 <Code_401+0x8e>
    1a2c:	0e30      	lsrs	r0, r6, #24
    1a2e:	4010      	ands	r0, r2
    1a30:	4288      	cmp	r0, r1
    1a32:	d108      	bne.n	1a46 <Code_401+0x8e>
    1a34:	f016 06ff 	ands.w	r6, r6, #255	; 0xff
    1a38:	f456 5640 	orrs.w	r6, r6, #12288	; 0x3000
    1a3c:	f847 6d04 	str.w	r6, [r7, #-4]!
    1a40:	f05f 36ff 	movs.w	r6, #4294967295
    1a44:	bd0f      	pop	{r0, r1, r2, r3, pc}
    1a46:	0030      	movs	r0, r6
    1a48:	2100      	movs	r1, #0
    1a4a:	3101      	adds	r1, #1
    1a4c:	1800      	adds	r0, r0, r0
    1a4e:	f150 0000 	adcs.w	r0, r0, #0
    1a52:	f07f 027f 	mvns.w	r2, #127	; 0x7f
    1a56:	4002      	ands	r2, r0
    1a58:	2a80      	cmp	r2, #128	; 0x80
    1a5a:	d005      	beq.n	1a68 <Code_401+0xb0>
    1a5c:	291f      	cmp	r1, #31
    1a5e:	d3f4      	bcc.n	1a4a <Code_401+0x92>
    1a60:	f847 6d04 	str.w	r6, [r7, #-4]!
    1a64:	2600      	movs	r6, #0
    1a66:	bd0f      	pop	{r0, r1, r2, r3, pc}
    1a68:	2908      	cmp	r1, #8
    1a6a:	d3f9      	bcc.n	1a60 <Code_401+0xa8>
    1a6c:	0006      	movs	r6, r0
    1a6e:	f036 0680 	bics.w	r6, r6, #128	; 0x80
    1a72:	f011 0001 	ands.w	r0, r1, #1
    1a76:	01c0      	lsls	r0, r0, #7
    1a78:	4306      	orrs	r6, r0
    1a7a:	f011 000e 	ands.w	r0, r1, #14
    1a7e:	02c0      	lsls	r0, r0, #11
    1a80:	4306      	orrs	r6, r0
    1a82:	f011 0010 	ands.w	r0, r1, #16
    1a86:	0580      	lsls	r0, r0, #22
    1a88:	4306      	orrs	r6, r0
    1a8a:	f847 6d04 	str.w	r6, [r7, #-4]!
    1a8e:	f05f 36ff 	movs.w	r6, #4294967295
    1a92:	bd0f      	pop	{r0, r1, r2, r3, pc}

00001a94 <movwkomma>:
    1a94:	f847 6d04 	str.w	r6, [r7, #-4]!
    1a98:	f8df 6638 	ldr.w	r6, [pc, #1592]	; 20d4 <setflags_ram+0x1c>
    1a9c:	f45f 4170 	movs.w	r1, #61440	; 0xf000
    1aa0:	ea10 0201 	ands.w	r2, r0, r1
    1aa4:	0112      	lsls	r2, r2, #4
    1aa6:	4316      	orrs	r6, r2
    1aa8:	f45f 6100 	movs.w	r1, #2048	; 0x800
    1aac:	ea10 0201 	ands.w	r2, r0, r1
    1ab0:	03d2      	lsls	r2, r2, #15
    1ab2:	4316      	orrs	r6, r2
    1ab4:	f45f 61e0 	movs.w	r1, #1792	; 0x700
    1ab8:	ea10 0201 	ands.w	r2, r0, r1
    1abc:	0112      	lsls	r2, r2, #4
    1abe:	4316      	orrs	r6, r2
    1ac0:	21ff      	movs	r1, #255	; 0xff
    1ac2:	ea10 0201 	ands.w	r2, r0, r1
    1ac6:	4316      	orrs	r6, r2
    1ac8:	431e      	orrs	r6, r3
    1aca:	e372      	b.n	21b2 <Code_537>

00001acc <movtkomma>:
    1acc:	f847 6d04 	str.w	r6, [r7, #-4]!
    1ad0:	f8df 6604 	ldr.w	r6, [pc, #1540]	; 20d8 <setflags_ram+0x20>
    1ad4:	f05f 4170 	movs.w	r1, #4026531840	; 0xf0000000
    1ad8:	ea10 0201 	ands.w	r2, r0, r1
    1adc:	0b12      	lsrs	r2, r2, #12
    1ade:	4316      	orrs	r6, r2
    1ae0:	f05f 6100 	movs.w	r1, #134217728	; 0x8000000
    1ae4:	ea10 0201 	ands.w	r2, r0, r1
    1ae8:	0852      	lsrs	r2, r2, #1
    1aea:	4316      	orrs	r6, r2
    1aec:	f05f 61e0 	movs.w	r1, #117440512	; 0x7000000
    1af0:	ea10 0201 	ands.w	r2, r0, r1
    1af4:	0b12      	lsrs	r2, r2, #12
    1af6:	4316      	orrs	r6, r2
    1af8:	f45f 017f 	movs.w	r1, #16711680	; 0xff0000
    1afc:	ea10 0201 	ands.w	r2, r0, r1
    1b00:	0c12      	lsrs	r2, r2, #16
    1b02:	4316      	orrs	r6, r2
    1b04:	431e      	orrs	r6, r3
    1b06:	e354      	b.n	21b2 <Code_537>

00001b08 <Dictionary_410>:
    1b08:	00001b6e 	andeq	r1, r0, lr, ror #22
    1b0c:	72100000 	andsvc	r0, r0, #0
    1b10:	73696765 	cmnvc	r9, #26476544	; 0x1940000
    1b14:	6c726574 	cfldr64vs	mvdx6, [r2], #-464	; 0xfffffe30
    1b18:	72657469 	rsbvc	r7, r5, #1761607680	; 0x69000000
    1b1c:	002c6c61 	eoreq	r6, ip, r1, ror #24

00001b20 <Code_410>:
    1b20:	b50f      	push	{r0, r1, r2, r3, lr}
    1b22:	0033      	movs	r3, r6
    1b24:	cf40      	ldmia	r7!, {r6}
    1b26:	021b      	lsls	r3, r3, #8
    1b28:	2eff      	cmp	r6, #255	; 0xff
    1b2a:	d805      	bhi.n	1b38 <Code_410+0x18>
    1b2c:	f456 5600 	orrs.w	r6, r6, #8192	; 0x2000
    1b30:	431e      	orrs	r6, r3
    1b32:	f000 fb16 	bl	2162 <Code_528>
    1b36:	bd0f      	pop	{r0, r1, r2, r3, pc}
    1b38:	f7ff ff3e 	bl	19b8 <Code_401>
    1b3c:	2e00      	cmp	r6, #0
    1b3e:	cf40      	ldmia	r7!, {r6}
    1b40:	d006      	beq.n	1b50 <Code_410+0x30>
    1b42:	f8df 0598 	ldr.w	r0, [pc, #1432]	; 20dc <setflags_ram+0x24>
    1b46:	4306      	orrs	r6, r0
    1b48:	431e      	orrs	r6, r3
    1b4a:	f000 fb32 	bl	21b2 <Code_537>
    1b4e:	bd0f      	pop	{r0, r1, r2, r3, pc}
    1b50:	43f6      	mvns	r6, r6
    1b52:	f7ff ff31 	bl	19b8 <Code_401>
    1b56:	2e00      	cmp	r6, #0
    1b58:	cf40      	ldmia	r7!, {r6}
    1b5a:	d006      	beq.n	1b6a <Code_410+0x4a>
    1b5c:	f8df 0580 	ldr.w	r0, [pc, #1408]	; 20e0 <setflags_ram+0x28>
    1b60:	4306      	orrs	r6, r0
    1b62:	431e      	orrs	r6, r3
    1b64:	f000 fb25 	bl	21b2 <Code_537>
    1b68:	bd0f      	pop	{r0, r1, r2, r3, pc}
    1b6a:	43f6      	mvns	r6, r6
    1b6c:	e00b      	b.n	1b86 <movwmovt_register_r3>

00001b6e <Dictionary_414>:
    1b6e:	00001bce 	andeq	r1, r0, lr, asr #23
    1b72:	6d090000 	stcvs	0, cr0, [r9]
    1b76:	6d77766f 	ldclvs	6, cr7, [r7, #-444]!	; 0xfffffe44
    1b7a:	2c74766f 	ldclcs	6, cr7, [r4], #-444	; 0xfffffe44

00001b7e <Code_414>:
    1b7e:	b50f      	push	{r0, r1, r2, r3, lr}
    1b80:	0033      	movs	r3, r6
    1b82:	cf40      	ldmia	r7!, {r6}
    1b84:	021b      	lsls	r3, r3, #8

00001b86 <movwmovt_register_r3>:
    1b86:	0030      	movs	r0, r6
    1b88:	cf40      	ldmia	r7!, {r6}
    1b8a:	f7ff ff83 	bl	1a94 <movwkomma>
    1b8e:	f64f 71ff 	movw	r1, #65535	; 0xffff
    1b92:	ea10 4001 	ands.w	r0, r0, r1, lsl #16
    1b96:	d001      	beq.n	1b9c <movwmovt_register_r3+0x16>
    1b98:	f7ff ff98 	bl	1acc <movtkomma>
    1b9c:	bd0f      	pop	{r0, r1, r2, r3, pc}

00001b9e <callkommalang>:
    1b9e:	b50f      	push	{r0, r1, r2, r3, lr}
    1ba0:	3601      	adds	r6, #1
    1ba2:	0030      	movs	r0, r6
    1ba4:	cf40      	ldmia	r7!, {r6}
    1ba6:	2300      	movs	r3, #0
    1ba8:	f7ff ff74 	bl	1a94 <movwkomma>
    1bac:	f7ff ff8e 	bl	1acc <movtkomma>
    1bb0:	e006      	b.n	1bc0 <callkommakurz_intern>

00001bb2 <callkommakurz>:
    1bb2:	b50f      	push	{r0, r1, r2, r3, lr}
    1bb4:	3601      	adds	r6, #1
    1bb6:	f847 6d04 	str.w	r6, [r7, #-4]!
    1bba:	2600      	movs	r6, #0
    1bbc:	f7ff ffb0 	bl	1b20 <Code_410>

00001bc0 <callkommakurz_intern>:
    1bc0:	f847 6d04 	str.w	r6, [r7, #-4]!
    1bc4:	f244 7680 	movw	r6, #18304	; 0x4780
    1bc8:	f000 facb 	bl	2162 <Code_528>
    1bcc:	bd0f      	pop	{r0, r1, r2, r3, pc}

00001bce <Dictionary_422>:
    1bce:	00001c34 	andeq	r1, r0, r4, lsr ip
    1bd2:	63050000 	movwvs	r0, #20480	; 0x5000
    1bd6:	2c6c6c61 	stclcs	12, cr6, [ip], #-388	; 0xfffffe7c

00001bda <Code_422>:
    1bda:	b50f      	push	{r0, r1, r2, r3, lr}
    1bdc:	0033      	movs	r3, r6
    1bde:	f000 fe05 	bl	27ec <Code_644>
    1be2:	0030      	movs	r0, r6
    1be4:	cf40      	ldmia	r7!, {r6}
    1be6:	1a1b      	subs	r3, r3, r0
    1be8:	3b04      	subs	r3, #4
    1bea:	f8df 14f8 	ldr.w	r1, [pc, #1272]	; 20e4 <setflags_ram+0x2c>
    1bee:	4019      	ands	r1, r3
    1bf0:	2900      	cmp	r1, #0
    1bf2:	d006      	beq.n	1c02 <Code_422+0x28>
    1bf4:	f8df 24f0 	ldr.w	r2, [pc, #1264]	; 20e8 <setflags_ram+0x30>
    1bf8:	4291      	cmp	r1, r2
    1bfa:	d002      	beq.n	1c02 <Code_422+0x28>
    1bfc:	e8bd 400f 	ldmia.w	sp!, {r0, r1, r2, r3, lr}
    1c00:	e7d7      	b.n	1bb2 <callkommakurz>
    1c02:	cf40      	ldmia	r7!, {r6}
    1c04:	085b      	lsrs	r3, r3, #1
    1c06:	f8df 04e4 	ldr.w	r0, [pc, #1252]	; 20ec <setflags_ram+0x34>
    1c0a:	f240 71ff 	movw	r1, #2047	; 0x7ff
    1c0e:	4019      	ands	r1, r3
    1c10:	4308      	orrs	r0, r1
    1c12:	0adb      	lsrs	r3, r3, #11
    1c14:	f240 31ff 	movw	r1, #1023	; 0x3ff
    1c18:	4019      	ands	r1, r3
    1c1a:	0409      	lsls	r1, r1, #16
    1c1c:	4308      	orrs	r0, r1
    1c1e:	0a9b      	lsrs	r3, r3, #10
    1c20:	f013 0101 	ands.w	r1, r3, #1
    1c24:	0689      	lsls	r1, r1, #26
    1c26:	4308      	orrs	r0, r1
    1c28:	f847 6d04 	str.w	r6, [r7, #-4]!
    1c2c:	0006      	movs	r6, r0
    1c2e:	f000 fac0 	bl	21b2 <Code_537>
    1c32:	bd0f      	pop	{r0, r1, r2, r3, pc}

00001c34 <Dictionary_427>:
    1c34:	00001c6a 	andeq	r1, r0, sl, ror #24
    1c38:	6c080000 	stcvs	0, cr0, [r8], {0}
    1c3c:	72657469 	rsbvc	r7, r5, #1761607680	; 0x69000000
    1c40:	002c6c61 	eoreq	r6, ip, r1, ror #24

00001c44 <Code_427>:
    1c44:	b508      	push	{r3, lr}
    1c46:	f847 6d04 	str.w	r6, [r7, #-4]!
    1c4a:	f64f 0647 	movw	r6, #63559	; 0xf847
    1c4e:	f000 fa88 	bl	2162 <Code_528>
    1c52:	f847 6d04 	str.w	r6, [r7, #-4]!
    1c56:	f646 5604 	movw	r6, #27908	; 0x6d04
    1c5a:	f000 fa82 	bl	2162 <Code_528>
    1c5e:	f847 6d04 	str.w	r6, [r7, #-4]!
    1c62:	2606      	movs	r6, #6
    1c64:	f7ff ff5c 	bl	1b20 <Code_410>
    1c68:	bd08      	pop	{r3, pc}

00001c6a <Dictionary_434>:
    1c6a:	00001c8e 	andeq	r1, r0, lr, lsl #25
    1c6e:	63060000 	movwvs	r0, #24576	; 0x6000
    1c72:	74616572 	strbtvc	r6, [r1], #-1394	; 0x572
    1c76:	b5000065 	strlt	r0, [r0, #-101]	; 0x65

00001c78 <Code_434>:
    1c78:	b500      	push	{lr}
    1c7a:	f000 f833 	bl	1ce4 <Code_439>
    1c7e:	f641 40ab 	movw	r0, #7339	; 0x1cab
    1c82:	4780      	blx	r0
    1c84:	f847 6d04 	str.w	r6, [r7, #-4]!
    1c88:	f1be 0601 	subs.w	r6, lr, #1
    1c8c:	bd00      	pop	{pc}

00001c8e <Dictionary_436>:
    1c8e:	00001cd6 	ldrdeq	r1, [r0], -r6
    1c92:	64050020 	strvs	r0, [r5], #-32
    1c96:	3e73656f 	cdpcc	5, 7, cr6, cr3, cr15, {3}

00001c9a <Code_436>:
    1c9a:	f641 40ab 	movw	r0, #7339	; 0x1cab
    1c9e:	4780      	blx	r0
    1ca0:	f847 6d04 	str.w	r6, [r7, #-4]!
    1ca4:	f1be 0601 	subs.w	r6, lr, #1
    1ca8:	4770      	bx	lr

00001caa <dodoes>:
    1caa:	f847 6d04 	str.w	r6, [r7, #-4]!
    1cae:	f1be 0601 	subs.w	r6, lr, #1
    1cb2:	f8df 243c 	ldr.w	r2, [pc, #1084]	; 20f0 <setflags_ram+0x38>
    1cb6:	6813      	ldr	r3, [r2, #0]
    1cb8:	f8df 1438 	ldr.w	r1, [pc, #1080]	; 20f4 <setflags_ram+0x3c>
    1cbc:	6809      	ldr	r1, [r1, #0]
    1cbe:	2002      	movs	r0, #2
    1cc0:	4008      	ands	r0, r1
    1cc2:	d000      	beq.n	1cc6 <dodoes+0x1c>
    1cc4:	3102      	adds	r1, #2
    1cc6:	3102      	adds	r1, #2
    1cc8:	6011      	str	r1, [r2, #0]
    1cca:	f7ff ff68 	bl	1b9e <callkommalang>
    1cce:	6013      	str	r3, [r2, #0]
    1cd0:	f000 f9b7 	bl	2042 <Code_515>
    1cd4:	bd00      	pop	{pc}

00001cd6 <Dictionary_439>:
    1cd6:	00001d18 	andeq	r1, r0, r8, lsl sp
    1cda:	3c070000 	stccc	0, cr0, [r7], {0}
    1cde:	6c697562 	cfstr64vs	mvdx7, [r9], #-392	; 0xfffffe78
    1ce2:	b5007364 	strlt	r7, [r0, #-868]	; 0x364

00001ce4 <Code_439>:
    1ce4:	b500      	push	{lr}
    1ce6:	f000 fb3f 	bl	2368 <Code_559>
    1cea:	f000 fd7f 	bl	27ec <Code_644>
    1cee:	2002      	movs	r0, #2
    1cf0:	4006      	ands	r6, r0
    1cf2:	cf40      	ldmia	r7!, {r6}
    1cf4:	d004      	beq.n	1d00 <Code_439+0x1c>
    1cf6:	f847 6d04 	str.w	r6, [r7, #-4]!
    1cfa:	2636      	movs	r6, #54	; 0x36
    1cfc:	f000 fa31 	bl	2162 <Code_528>
    1d00:	f847 6d04 	str.w	r6, [r7, #-4]!
    1d04:	f24b 5600 	movw	r6, #46336	; 0xb500
    1d08:	f000 fa2b 	bl	2162 <Code_528>
    1d0c:	f847 6d04 	str.w	r6, [r7, #-4]!
    1d10:	260a      	movs	r6, #10
    1d12:	f000 fa91 	bl	2238 <Code_548>
    1d16:	bd00      	pop	{pc}

00001d18 <Dictionary_447>:
    1d18:	00001d24 	andeq	r1, r0, r4, lsr #26
    1d1c:	5b030050 	blpl	c1e64 <BIT19+0x41e64>
    1d20:	e0035d27 	and	r5, r3, r7, lsr #26

00001d22 <Code_447>:
    1d22:	e003      	b.n	1d2c <Code_448>

00001d24 <Dictionary_448>:
    1d24:	00001d3c 	andeq	r1, r0, ip, lsr sp
    1d28:	27010000 	strcs	r0, [r1, -r0]

00001d2c <Code_448>:
    1d2c:	b500      	push	{lr}
    1d2e:	f001 f819 	bl	2d64 <Code_782>
    1d32:	f000 fd01 	bl	2738 <find_not_found>
    1d36:	0030      	movs	r0, r6
    1d38:	cf40      	ldmia	r7!, {r6}
    1d3a:	bd00      	pop	{pc}

00001d3c <Dictionary_450>:
    1d3c:	00001d7a 	andeq	r1, r0, sl, ror sp
    1d40:	70080030 	andvc	r0, r8, r0, lsr r0
    1d44:	7074736f 	rsbsvc	r7, r4, pc, ror #6
    1d48:	00656e6f 	rsbeq	r6, r5, pc, ror #28

00001d4c <Code_450>:
    1d4c:	b500      	push	{lr}
    1d4e:	f7ff ffed 	bl	1d2c <Code_448>
    1d52:	2110      	movs	r1, #16
    1d54:	4001      	ands	r1, r0
    1d56:	d10d      	bne.n	1d74 <Code_450+0x28>
    1d58:	2120      	movs	r1, #32
    1d5a:	4001      	ands	r1, r0
    1d5c:	d005      	beq.n	1d6a <Code_450+0x1e>
    1d5e:	f7ff ff71 	bl	1c44 <Code_427>
    1d62:	f847 6d04 	str.w	r6, [r7, #-4]!
    1d66:	4ee4      	ldr	r6, [pc, #912]	; (20f8 <setflags_ram+0x40>)
    1d68:	e004      	b.n	1d74 <Code_450+0x28>
    1d6a:	f7ff ff6b 	bl	1c44 <Code_427>
    1d6e:	f847 6d04 	str.w	r6, [r7, #-4]!
    1d72:	4ee2      	ldr	r6, [pc, #904]	; (20fc <setflags_ram+0x44>)
    1d74:	f7ff ff31 	bl	1bda <Code_422>
    1d78:	bd00      	pop	{pc}

00001d7a <Dictionary_453>:
    1d7a:	00001dd0 	ldrdeq	r1, [r0], -r0
    1d7e:	69070000 	stmdbvs	r7, {}	; <UNPREDICTABLE>
    1d82:	6e696c6e 	cdpvs	12, 6, cr6, cr9, cr14, {3}
    1d86:	b5002c65 	strlt	r2, [r0, #-3173]	; 0xc65

00001d88 <Code_453>:
    1d88:	b500      	push	{lr}
    1d8a:	f24b 5100 	movw	r1, #46336	; 0xb500
    1d8e:	f64b 5200 	movw	r2, #48384	; 0xbd00
    1d92:	f244 7370 	movw	r3, #18288	; 0x4770
    1d96:	8830      	ldrh	r0, [r6, #0]
    1d98:	4288      	cmp	r0, r1
    1d9a:	d008      	beq.n	1dae <Code_453+0x26>
    1d9c:	4290      	cmp	r0, r2
    1d9e:	d008      	beq.n	1db2 <Code_453+0x2a>
    1da0:	4298      	cmp	r0, r3
    1da2:	d006      	beq.n	1db2 <Code_453+0x2a>
    1da4:	f847 6d04 	str.w	r6, [r7, #-4]!
    1da8:	0006      	movs	r6, r0
    1daa:	f000 f9da 	bl	2162 <Code_528>
    1dae:	3602      	adds	r6, #2
    1db0:	e7f1      	b.n	1d96 <Code_453+0xe>
    1db2:	cf40      	ldmia	r7!, {r6}
    1db4:	bd00      	pop	{pc}

00001db6 <suchedefinitionsende>:
    1db6:	b40e      	push	{r1, r2, r3}
    1db8:	f64b 5200 	movw	r2, #48384	; 0xbd00
    1dbc:	f244 7370 	movw	r3, #18288	; 0x4770
    1dc0:	8801      	ldrh	r1, [r0, #0]
    1dc2:	3002      	adds	r0, #2
    1dc4:	4291      	cmp	r1, r2
    1dc6:	d001      	beq.n	1dcc <suchedefinitionsende+0x16>
    1dc8:	4299      	cmp	r1, r3
    1dca:	d1f9      	bne.n	1dc0 <suchedefinitionsende+0xa>
    1dcc:	bc0e      	pop	{r1, r2, r3}
    1dce:	4770      	bx	lr

00001dd0 <Dictionary_457>:
    1dd0:	00001de6 	andeq	r1, r0, r6, ror #27
    1dd4:	72040000 	andvc	r0, r4, #0
    1dd8:	002c7465 	eoreq	r7, ip, r5, ror #8

00001ddc <Code_457>:
    1ddc:	f847 6d04 	str.w	r6, [r7, #-4]!
    1de0:	f64b 5600 	movw	r6, #48384	; 0xbd00
    1de4:	e1bd      	b.n	2162 <Code_528>

00001de6 <Dictionary_460>:
    1de6:	00001df4 	strdeq	r1, [r0], -r4
    1dea:	65040030 	strvs	r0, [r4, #-48]	; 0x30
    1dee:	00746978 	rsbseq	r6, r4, r8, ror r9

00001df2 <Code_460>:
    1df2:	e7f3      	b.n	1ddc <Code_457>

00001df4 <Dictionary_461>:
    1df4:	00001e0c 	andeq	r1, r0, ip, lsl #28
    1df8:	72070030 	andvc	r0, r7, #48	; 0x30
    1dfc:	72756365 	rsbsvc	r6, r5, #-1811939327	; 0x94000001
    1e00:	f8476573 			; <UNDEFINED> instruction: 0xf8476573

00001e02 <Code_461>:
    1e02:	f847 6d04 	str.w	r6, [r7, #-4]!
    1e06:	4ebb      	ldr	r6, [pc, #748]	; (20f4 <setflags_ram+0x3c>)
    1e08:	6836      	ldr	r6, [r6, #0]
    1e0a:	e6e6      	b.n	1bda <Code_422>

00001e0c <Dictionary_463>:
    1e0c:	00001e24 	andeq	r1, r0, r4, lsr #28
    1e10:	73050081 	movwvc	r0, #20609	; 0x5081
    1e14:	65746174 	ldrbvs	r6, [r4, #-372]!	; 0x174

00001e18 <Code_463>:
    1e18:	f847 6d04 	str.w	r6, [r7, #-4]!
    1e1c:	4eb8      	ldr	r6, [pc, #736]	; (2100 <setflags_ram+0x48>)
    1e1e:	4770      	bx	lr
    1e20:	00000000 	andeq	r0, r0, r0

00001e24 <Dictionary_466>:
    1e24:	00001e36 	andeq	r1, r0, r6, lsr lr
    1e28:	5d010000 	stcpl	0, cr0, [r1]

00001e2c <Code_466>:
    1e2c:	48b4      	ldr	r0, [pc, #720]	; (2100 <setflags_ram+0x48>)
    1e2e:	2100      	movs	r1, #0
    1e30:	43c9      	mvns	r1, r1
    1e32:	6001      	str	r1, [r0, #0]
    1e34:	4770      	bx	lr

00001e36 <Dictionary_467>:
    1e36:	00001e46 	andeq	r1, r0, r6, asr #28
    1e3a:	5b010010 	blpl	41e82 <BIT18+0x1e82>

00001e3e <Code_467>:
    1e3e:	48b0      	ldr	r0, [pc, #704]	; (2100 <setflags_ram+0x48>)
    1e40:	2100      	movs	r1, #0
    1e42:	6001      	str	r1, [r0, #0]
    1e44:	4770      	bx	lr

00001e46 <Dictionary_468>:
    1e46:	00001e6e 	andeq	r1, r0, lr, ror #28
    1e4a:	3a010000 	bcc	41e52 <BIT18+0x1e52>

00001e4e <Code_468>:
    1e4e:	b500      	push	{lr}
    1e50:	48ac      	ldr	r0, [pc, #688]	; (2104 <setflags_ram+0x4c>)
    1e52:	6007      	str	r7, [r0, #0]
    1e54:	f000 fa88 	bl	2368 <Code_559>
    1e58:	f847 6d04 	str.w	r6, [r7, #-4]!
    1e5c:	f24b 5600 	movw	r6, #46336	; 0xb500
    1e60:	f000 f97f 	bl	2162 <Code_528>
    1e64:	48a6      	ldr	r0, [pc, #664]	; (2100 <setflags_ram+0x48>)
    1e66:	2100      	movs	r1, #0
    1e68:	43c9      	mvns	r1, r1
    1e6a:	6001      	str	r1, [r0, #0]
    1e6c:	bd00      	pop	{pc}

00001e6e <Dictionary_471>:
    1e6e:	00001eb6 			; <UNDEFINED> instruction: 0x00001eb6
    1e72:	3b010030 	blcc	41f3a <BIT18+0x1f3a>

00001e76 <Code_471>:
    1e76:	b500      	push	{lr}
    1e78:	48a2      	ldr	r0, [pc, #648]	; (2104 <setflags_ram+0x4c>)
    1e7a:	6801      	ldr	r1, [r0, #0]
    1e7c:	42b9      	cmp	r1, r7
    1e7e:	d00e      	beq.n	1e9e <Code_471+0x28>
    1e80:	f7ff fc55 	bl	172e <dotgaensefuesschen>
    1e84:	74532015 	ldrbvc	r2, [r3], #-21
    1e88:	206b6361 	rsbcs	r6, fp, r1, ror #6
    1e8c:	20746f6e 	rsbscs	r6, r4, lr, ror #30
    1e90:	616c6162 	cmnvs	ip, r2, ror #2
    1e94:	6465636e 	strbtvs	r6, [r5], #-878	; 0x36e
    1e98:	f0010a2e 			; <UNDEFINED> instruction: 0xf0010a2e
    1e9c:	baeb      	revsh	r3, r5
    1e9e:	f847 6d04 	str.w	r6, [r7, #-4]!
    1ea2:	f64b 5600 	movw	r6, #48384	; 0xbd00
    1ea6:	f000 f95c 	bl	2162 <Code_528>
    1eaa:	f000 f8ca 	bl	2042 <Code_515>
    1eae:	4894      	ldr	r0, [pc, #592]	; (2100 <setflags_ram+0x48>)
    1eb0:	2100      	movs	r1, #0
    1eb2:	6001      	str	r1, [r0, #0]
    1eb4:	bd00      	pop	{pc}

00001eb6 <Dictionary_475>:
    1eb6:	00001eca 	andeq	r1, r0, sl, asr #29
    1eba:	65070000 	strvs	r0, [r7]
    1ebe:	75636578 	strbvc	r6, [r3, #-1400]!	; 0x578
    1ec2:	00306574 	eorseq	r6, r0, r4, ror r5

00001ec4 <Code_475>:
    1ec4:	0030      	movs	r0, r6
    1ec6:	cf40      	ldmia	r7!, {r6}
    1ec8:	4687      	mov	pc, r0

00001eca <Dictionary_477>:
    1eca:	00001ee2 	andeq	r1, r0, r2, ror #29
    1ece:	69090010 	stmdbvs	r9, {r4}
    1ed2:	64656d6d 	strbtvs	r6, [r5], #-3437	; 0xd6d
    1ed6:	65746169 	ldrbvs	r6, [r4, #-361]!	; 0x169

00001eda <Code_477>:
    1eda:	f847 6d04 	str.w	r6, [r7, #-4]!
    1ede:	2610      	movs	r6, #16
    1ee0:	e0de      	b.n	20a0 <Code_521>

00001ee2 <Dictionary_480>:
    1ee2:	00001ef8 	strdeq	r1, [r0], -r8
    1ee6:	69060050 	stmdbvs	r6, {r4, r6}
    1eea:	6e696c6e 	cdpvs	12, 6, cr6, cr9, cr14, {3}
    1eee:	f8470065 			; <UNDEFINED> instruction: 0xf8470065

00001ef0 <Code_480>:
    1ef0:	f847 6d04 	str.w	r6, [r7, #-4]!
    1ef4:	2620      	movs	r6, #32
    1ef6:	e0d3      	b.n	20a0 <Code_521>

00001ef8 <Dictionary_483>:
    1ef8:	00001f12 	andeq	r1, r0, r2, lsl pc
    1efc:	630b0010 	movwvs	r0, #45072	; 0xb010
    1f00:	69706d6f 	ldmdbvs	r0!, {r0, r1, r2, r3, r5, r6, r8, sl, fp, sp, lr}^
    1f04:	6e6f656c 	cdpvs	5, 6, cr6, cr15, cr12, {3}
    1f08:	f847796c 			; <UNDEFINED> instruction: 0xf847796c

00001f0a <Code_483>:
    1f0a:	f847 6d04 	str.w	r6, [r7, #-4]!
    1f0e:	2630      	movs	r6, #48	; 0x30
    1f10:	e0c6      	b.n	20a0 <Code_521>

00001f12 <Dictionary_486>:
    1f12:	00001f2c 	andeq	r1, r0, ip, lsr #30
    1f16:	300a0050 	andcc	r0, sl, r0, asr r0
    1f1a:	6c6f662d 	stclvs	6, cr6, [pc], #-180	; 1e6c <Code_468+0x1e>
    1f1e:	6c626164 	stfvse	f6, [r2], #-400	; 0xfffffe70
    1f22:	f8470065 			; <UNDEFINED> instruction: 0xf8470065

00001f24 <Code_486>:
    1f24:	f847 6d04 	str.w	r6, [r7, #-4]!
    1f28:	2640      	movs	r6, #64	; 0x40
    1f2a:	e0b9      	b.n	20a0 <Code_521>

00001f2c <Dictionary_489>:
    1f2c:	00001f46 	andeq	r1, r0, r6, asr #30
    1f30:	310a0050 	qaddcc	r0, r0, sl
    1f34:	6c6f662d 	stclvs	6, cr6, [pc], #-180	; 1e88 <Code_471+0x12>
    1f38:	6c626164 	stfvse	f6, [r2], #-400	; 0xfffffe70
    1f3c:	f8470065 			; <UNDEFINED> instruction: 0xf8470065

00001f3e <Code_489>:
    1f3e:	f847 6d04 	str.w	r6, [r7, #-4]!
    1f42:	2641      	movs	r6, #65	; 0x41
    1f44:	e0ac      	b.n	20a0 <Code_521>

00001f46 <Dictionary_492>:
    1f46:	00001f60 	andeq	r1, r0, r0, ror #30
    1f4a:	320a0050 	andcc	r0, sl, #80	; 0x50
    1f4e:	6c6f662d 	stclvs	6, cr6, [pc], #-180	; 1ea0 <Code_471+0x2a>
    1f52:	6c626164 	stfvse	f6, [r2], #-400	; 0xfffffe70
    1f56:	f8470065 			; <UNDEFINED> instruction: 0xf8470065

00001f58 <Code_492>:
    1f58:	f847 6d04 	str.w	r6, [r7, #-4]!
    1f5c:	2642      	movs	r6, #66	; 0x42
    1f5e:	e09f      	b.n	20a0 <Code_521>

00001f60 <Dictionary_495>:
    1f60:	00001f7a 	andeq	r1, r0, sl, ror pc
    1f64:	330a0050 	movwcc	r0, #41040	; 0xa050
    1f68:	6c6f662d 	stclvs	6, cr6, [pc], #-180	; 1ebc <Dictionary_475+0x6>
    1f6c:	6c626164 	stfvse	f6, [r2], #-400	; 0xfffffe70
    1f70:	f8470065 			; <UNDEFINED> instruction: 0xf8470065

00001f72 <Code_495>:
    1f72:	f847 6d04 	str.w	r6, [r7, #-4]!
    1f76:	2643      	movs	r6, #67	; 0x43
    1f78:	e092      	b.n	20a0 <Code_521>

00001f7a <Dictionary_498>:
    1f7a:	00001f94 	muleq	r0, r4, pc	; <UNPREDICTABLE>
    1f7e:	340a0050 	strcc	r0, [sl], #-80	; 0x50
    1f82:	6c6f662d 	stclvs	6, cr6, [pc], #-180	; 1ed4 <Dictionary_477+0xa>
    1f86:	6c626164 	stfvse	f6, [r2], #-400	; 0xfffffe70
    1f8a:	f8470065 			; <UNDEFINED> instruction: 0xf8470065

00001f8c <Code_498>:
    1f8c:	f847 6d04 	str.w	r6, [r7, #-4]!
    1f90:	2644      	movs	r6, #68	; 0x44
    1f92:	e085      	b.n	20a0 <Code_521>

00001f94 <Dictionary_501>:
    1f94:	00001fae 	andeq	r1, r0, lr, lsr #31
    1f98:	350a0050 	strcc	r0, [sl, #-80]	; 0x50
    1f9c:	6c6f662d 	stclvs	6, cr6, [pc], #-180	; 1ef0 <Code_480>
    1fa0:	6c626164 	stfvse	f6, [r2], #-400	; 0xfffffe70
    1fa4:	f8470065 			; <UNDEFINED> instruction: 0xf8470065

00001fa6 <Code_501>:
    1fa6:	f847 6d04 	str.w	r6, [r7, #-4]!
    1faa:	2645      	movs	r6, #69	; 0x45
    1fac:	e078      	b.n	20a0 <Code_521>

00001fae <Dictionary_504>:
    1fae:	00001fc8 	andeq	r1, r0, r8, asr #31
    1fb2:	360a0050 			; <UNDEFINED> instruction: 0x360a0050
    1fb6:	6c6f662d 	stclvs	6, cr6, [pc], #-180	; 1f08 <Dictionary_483+0x10>
    1fba:	6c626164 	stfvse	f6, [r2], #-400	; 0xfffffe70
    1fbe:	f8470065 			; <UNDEFINED> instruction: 0xf8470065

00001fc0 <Code_504>:
    1fc0:	f847 6d04 	str.w	r6, [r7, #-4]!
    1fc4:	2646      	movs	r6, #70	; 0x46
    1fc6:	e06b      	b.n	20a0 <Code_521>

00001fc8 <Dictionary_507>:
    1fc8:	00001fe2 	andeq	r1, r0, r2, ror #31
    1fcc:	370a0050 	smlsdcc	sl, r0, r0, r0
    1fd0:	6c6f662d 	stclvs	6, cr6, [pc], #-180	; 1f24 <Code_486>
    1fd4:	6c626164 	stfvse	f6, [r2], #-400	; 0xfffffe70
    1fd8:	f8470065 			; <UNDEFINED> instruction: 0xf8470065

00001fda <Code_507>:
    1fda:	f847 6d04 	str.w	r6, [r7, #-4]!
    1fde:	2647      	movs	r6, #71	; 0x47
    1fe0:	e05e      	b.n	20a0 <Code_521>

00001fe2 <Dictionary_510>:
    1fe2:	00002012 	andeq	r2, r0, r2, lsl r0
    1fe6:	63080000 	movwvs	r0, #32768	; 0x8000
    1fea:	74736e6f 	ldrbtvc	r6, [r3], #-3695	; 0xe6f
    1fee:	00746e61 	rsbseq	r6, r4, r1, ror #28

00001ff2 <Code_510>:
    1ff2:	b500      	push	{lr}
    1ff4:	f000 f9b8 	bl	2368 <Code_559>
    1ff8:	f7ff fe24 	bl	1c44 <Code_427>
    1ffc:	f847 6d04 	str.w	r6, [r7, #-4]!
    2000:	f244 7670 	movw	r6, #18288	; 0x4770
    2004:	f000 f8ad 	bl	2162 <Code_528>
    2008:	f7ff ff8c 	bl	1f24 <Code_486>
    200c:	f000 f819 	bl	2042 <Code_515>
    2010:	bd00      	pop	{pc}

00002012 <Dictionary_513>:
    2012:	00002034 	andeq	r2, r0, r4, lsr r0
    2016:	32090000 	andcc	r0, r9, #0
    201a:	736e6f63 	cmnvc	lr, #396	; 0x18c
    201e:	746e6174 	strbtvc	r6, [lr], #-372	; 0x174

00002022 <Code_513>:
    2022:	b500      	push	{lr}
    2024:	f000 f9a0 	bl	2368 <Code_559>
    2028:	6839      	ldr	r1, [r7, #0]
    202a:	603e      	str	r6, [r7, #0]
    202c:	460e      	mov	r6, r1
    202e:	f7ff fe09 	bl	1c44 <Code_427>
    2032:	e7e1      	b.n	1ff8 <Code_510+0x6>

00002034 <Dictionary_515>:
    2034:	00002090 	muleq	r0, r0, r0
    2038:	73060000 	movwvc	r0, #24576	; 0x6000
    203c:	6764756d 	strbvs	r7, [r4, -sp, ror #10]!
    2040:	b5000065 	strlt	r0, [r0, #-101]	; 0x65

00002042 <Code_515>:
    2042:	b500      	push	{lr}
    2044:	482a      	ldr	r0, [pc, #168]	; (20f0 <setflags_ram+0x38>)
    2046:	6801      	ldr	r1, [r0, #0]
    2048:	4a29      	ldr	r2, [pc, #164]	; (20f0 <setflags_ram+0x38>)
    204a:	4291      	cmp	r1, r2
    204c:	d21a      	bcs.n	2084 <smudge_ram>
    204e:	3902      	subs	r1, #2
    2050:	880a      	ldrh	r2, [r1, #0]
    2052:	4b2d      	ldr	r3, [pc, #180]	; (2108 <setflags_ram+0x50>)
    2054:	429a      	cmp	r2, r3
    2056:	d104      	bne.n	2062 <Code_515+0x20>
    2058:	f847 6d04 	str.w	r6, [r7, #-4]!
    205c:	4e2b      	ldr	r6, [pc, #172]	; (210c <setflags_ram+0x54>)
    205e:	f000 f880 	bl	2162 <Code_528>
    2062:	f000 f86d 	bl	2140 <Code_525>
    2066:	482a      	ldr	r0, [pc, #168]	; (2110 <setflags_ram+0x58>)
    2068:	6800      	ldr	r0, [r0, #0]
    206a:	f847 6d04 	str.w	r6, [r7, #-4]!
    206e:	0006      	movs	r6, r0
    2070:	4928      	ldr	r1, [pc, #160]	; (2114 <setflags_ram+0x5c>)
    2072:	6809      	ldr	r1, [r1, #0]
    2074:	3104      	adds	r1, #4
    2076:	4a1e      	ldr	r2, [pc, #120]	; (20f0 <setflags_ram+0x38>)
    2078:	6813      	ldr	r3, [r2, #0]
    207a:	6011      	str	r1, [r2, #0]
    207c:	f000 f871 	bl	2162 <Code_528>
    2080:	6013      	str	r3, [r2, #0]
    2082:	bd00      	pop	{pc}

00002084 <smudge_ram>:
    2084:	f000 f85c 	bl	2140 <Code_525>
    2088:	f847 6d04 	str.w	r6, [r7, #-4]!
    208c:	2600      	movs	r6, #0
    208e:	e008      	b.n	20a2 <setflags_intern>

00002090 <Dictionary_521>:
    2090:	00002118 	andeq	r2, r0, r8, lsl r1
    2094:	73080000 	movwvc	r0, #32768	; 0x8000
    2098:	6c667465 	cfstrdvs	mvd7, [r6], #-404	; 0xfffffe6c
    209c:	00736761 	rsbseq	r6, r3, r1, ror #14

000020a0 <Code_521>:
    20a0:	b500      	push	{lr}

000020a2 <setflags_intern>:
    20a2:	4813      	ldr	r0, [pc, #76]	; (20f0 <setflags_ram+0x38>)
    20a4:	6801      	ldr	r1, [r0, #0]
    20a6:	4a12      	ldr	r2, [pc, #72]	; (20f0 <setflags_ram+0x38>)
    20a8:	4291      	cmp	r1, r2
    20aa:	d205      	bcs.n	20b8 <setflags_ram>
    20ac:	4818      	ldr	r0, [pc, #96]	; (2110 <setflags_ram+0x58>)
    20ae:	6801      	ldr	r1, [r0, #0]
    20b0:	4331      	orrs	r1, r6
    20b2:	6001      	str	r1, [r0, #0]
    20b4:	cf40      	ldmia	r7!, {r6}
    20b6:	bd00      	pop	{pc}

000020b8 <setflags_ram>:
    20b8:	0032      	movs	r2, r6
    20ba:	cf40      	ldmia	r7!, {r6}
    20bc:	4815      	ldr	r0, [pc, #84]	; (2114 <setflags_ram+0x5c>)
    20be:	6800      	ldr	r0, [r0, #0]
    20c0:	3004      	adds	r0, #4
    20c2:	8801      	ldrh	r1, [r0, #0]
    20c4:	4b10      	ldr	r3, [pc, #64]	; (2108 <setflags_ram+0x50>)
    20c6:	4299      	cmp	r1, r3
    20c8:	d101      	bne.n	20ce <setflags_ram+0x16>
    20ca:	0011      	movs	r1, r2
    20cc:	e000      	b.n	20d0 <setflags_ram+0x18>
    20ce:	4311      	orrs	r1, r2
    20d0:	8001      	strh	r1, [r0, #0]
    20d2:	bd00      	pop	{pc}
    20d4:	f2400000 	vhadd.s8	d16, d0, d0
    20d8:	f2c00000 	vaddl.s8	q8, d0, d0
    20dc:	f05f0000 			; <UNDEFINED> instruction: 0xf05f0000
    20e0:	f07f0000 			; <UNDEFINED> instruction: 0xf07f0000
    20e4:	ffc00001 			; <UNDEFINED> instruction: 0xffc00001
    20e8:	ffc00000 			; <UNDEFINED> instruction: 0xffc00000
    20ec:	f000f800 			; <UNDEFINED> instruction: 0xf000f800
    20f0:	20000000 	andcs	r0, r0, r0
    20f4:	20000014 	andcs	r0, r0, r4, lsl r0
    20f8:	00001d88 	andeq	r1, r0, r8, lsl #27
    20fc:	00001bda 	ldrdeq	r1, [r0], -sl
    2100:	20009fd8 	ldrdcs	r9, [r0], -r8
    2104:	20000010 	andcs	r0, r0, r0, lsl r0
    2108:	0000ffff 	strdeq	pc, [r0], -pc	; <UNPREDICTABLE>
    210c:	00000000 	andeq	r0, r0, r0
    2110:	20000020 	andcs	r0, r0, r0, lsr #32
    2114:	20000004 	andcs	r0, r0, r4

00002118 <Dictionary_524>:
    2118:	00002134 	andeq	r2, r0, r4, lsr r1
    211c:	61070041 	tstvs	r7, r1, asr #32
    2120:	6e67696c 	cdpvs	9, 6, cr6, cr7, cr12, {3}
    2124:	20016465 	andcs	r6, r1, r5, ror #8

00002126 <Code_524>:
    2126:	2001      	movs	r0, #1
    2128:	4030      	ands	r0, r6
    212a:	1836      	adds	r6, r6, r0
    212c:	2002      	movs	r0, #2
    212e:	4030      	ands	r0, r6
    2130:	1836      	adds	r6, r6, r0
    2132:	4770      	bx	lr

00002134 <Dictionary_525>:
    2134:	00002158 	andeq	r2, r0, r8, asr r1
    2138:	61050000 	mrsvs	r0, (UNDEF: 5)
    213c:	6e67696c 	cdpvs	9, 6, cr6, cr7, cr12, {3}

00002140 <Code_525>:
    2140:	b500      	push	{lr}
    2142:	487f      	ldr	r0, [pc, #508]	; (2340 <Zweitpointertausch+0x50>)
    2144:	6801      	ldr	r1, [r0, #0]
    2146:	2002      	movs	r0, #2
    2148:	4001      	ands	r1, r0
    214a:	d004      	beq.n	2156 <Code_525+0x16>
    214c:	f847 6d04 	str.w	r6, [r7, #-4]!
    2150:	2600      	movs	r6, #0
    2152:	f000 f806 	bl	2162 <Code_528>
    2156:	bd00      	pop	{pc}

00002158 <Dictionary_528>:
    2158:	0000218e 	andeq	r2, r0, lr, lsl #3
    215c:	68020000 	stmdavs	r2, {}	; <UNPREDICTABLE>
    2160:	b50f002c 	strlt	r0, [pc, #-44]	; 213c <Dictionary_525+0x8>

00002162 <Code_528>:
    2162:	b50f      	push	{r0, r1, r2, r3, lr}
    2164:	b2b6      	uxth	r6, r6
    2166:	4876      	ldr	r0, [pc, #472]	; (2340 <Zweitpointertausch+0x50>)
    2168:	6801      	ldr	r1, [r0, #0]
    216a:	4a75      	ldr	r2, [pc, #468]	; (2340 <Zweitpointertausch+0x50>)
    216c:	4291      	cmp	r1, r2
    216e:	d205      	bcs.n	217c <hkomma_ram>
    2170:	f847 6d04 	str.w	r6, [r7, #-4]!
    2174:	000e      	movs	r6, r1
    2176:	f7fe fef9 	bl	f6c <Code_222>
    217a:	e002      	b.n	2182 <hkomma_fertig>

0000217c <hkomma_ram>:
    217c:	0032      	movs	r2, r6
    217e:	cf40      	ldmia	r7!, {r6}
    2180:	800a      	strh	r2, [r1, #0]

00002182 <hkomma_fertig>:
    2182:	f847 6d04 	str.w	r6, [r7, #-4]!
    2186:	2602      	movs	r6, #2
    2188:	f000 f856 	bl	2238 <Code_548>
    218c:	bd0f      	pop	{r0, r1, r2, r3, pc}

0000218e <Dictionary_534>:
    218e:	000021a8 	andeq	r2, r0, r8, lsr #3
    2192:	2c010000 	stccs	0, cr0, [r1], {0}

00002196 <Code_534>:
    2196:	b500      	push	{lr}
    2198:	f847 6d04 	str.w	r6, [r7, #-4]!
    219c:	f7ff ffe1 	bl	2162 <Code_528>
    21a0:	0c36      	lsrs	r6, r6, #16
    21a2:	f7ff ffde 	bl	2162 <Code_528>
    21a6:	bd00      	pop	{pc}

000021a8 <Dictionary_537>:
    21a8:	000021c4 	andeq	r2, r0, r4, asr #3
    21ac:	3e030000 	cdpcc	0, 0, cr0, cr3, cr0, {0}
    21b0:	b5002c3c 	strlt	r2, [r0, #-3132]	; 0xc3c

000021b2 <Code_537>:
    21b2:	b500      	push	{lr}
    21b4:	f847 6d04 	str.w	r6, [r7, #-4]!
    21b8:	0c36      	lsrs	r6, r6, #16
    21ba:	f7ff ffd2 	bl	2162 <Code_528>
    21be:	f7ff ffd0 	bl	2162 <Code_528>
    21c2:	bd00      	pop	{pc}

000021c4 <Dictionary_540>:
    21c4:	0000222c 	andeq	r2, r0, ip, lsr #4
    21c8:	73070000 	movwvc	r0, #28672	; 0x7000
    21cc:	6e697274 	mcrvs	2, 3, r7, cr9, cr4, {3}
    21d0:	b5072c67 	strlt	r2, [r7, #-3175]	; 0xc67

000021d2 <Code_540>:
    21d2:	b507      	push	{r0, r1, r2, lr}
    21d4:	21ff      	movs	r1, #255	; 0xff
    21d6:	4031      	ands	r1, r6
    21d8:	cf40      	ldmia	r7!, {r6}
    21da:	0030      	movs	r0, r6
    21dc:	cf40      	ldmia	r7!, {r6}
    21de:	2900      	cmp	r1, #0
    21e0:	d105      	bne.n	21ee <Code_540+0x1c>
    21e2:	f847 6d04 	str.w	r6, [r7, #-4]!
    21e6:	2600      	movs	r6, #0
    21e8:	f7ff ffbb 	bl	2162 <Code_528>
    21ec:	bd07      	pop	{r0, r1, r2, pc}
    21ee:	f847 6d04 	str.w	r6, [r7, #-4]!
    21f2:	7806      	ldrb	r6, [r0, #0]
    21f4:	0236      	lsls	r6, r6, #8
    21f6:	430e      	orrs	r6, r1
    21f8:	f7ff ffb3 	bl	2162 <Code_528>
    21fc:	3001      	adds	r0, #1
    21fe:	3901      	subs	r1, #1
    2200:	2902      	cmp	r1, #2
    2202:	d30a      	bcc.n	221a <Code_540+0x48>
    2204:	f847 6d04 	str.w	r6, [r7, #-4]!
    2208:	7846      	ldrb	r6, [r0, #1]
    220a:	0236      	lsls	r6, r6, #8
    220c:	7802      	ldrb	r2, [r0, #0]
    220e:	4316      	orrs	r6, r2
    2210:	f7ff ffa7 	bl	2162 <Code_528>
    2214:	3002      	adds	r0, #2
    2216:	3902      	subs	r1, #2
    2218:	e7f2      	b.n	2200 <Code_540+0x2e>
    221a:	2900      	cmp	r1, #0
    221c:	d100      	bne.n	2220 <Code_540+0x4e>
    221e:	bd07      	pop	{r0, r1, r2, pc}
    2220:	f847 6d04 	str.w	r6, [r7, #-4]!
    2224:	7806      	ldrb	r6, [r0, #0]
    2226:	f7ff ff9c 	bl	2162 <Code_528>
    222a:	bd07      	pop	{r0, r1, r2, pc}

0000222c <Dictionary_548>:
    222c:	00002286 	andeq	r2, r0, r6, lsl #5
    2230:	61050000 	mrsvs	r0, (UNDEF: 5)
    2234:	746f6c6c 	strbtvc	r6, [pc], #-3180	; 223c <Code_548+0x4>

00002238 <Code_548>:
    2238:	4841      	ldr	r0, [pc, #260]	; (2340 <Zweitpointertausch+0x50>)
    223a:	6801      	ldr	r1, [r0, #0]
    223c:	4a40      	ldr	r2, [pc, #256]	; (2340 <Zweitpointertausch+0x50>)
    223e:	4291      	cmp	r1, r2
    2240:	d20f      	bcs.n	2262 <allot_ram>
    2242:	0032      	movs	r2, r6
    2244:	cf40      	ldmia	r7!, {r6}
    2246:	1889      	adds	r1, r1, r2
    2248:	4a3e      	ldr	r2, [pc, #248]	; (2344 <Zweitpointertausch+0x54>)
    224a:	4291      	cmp	r1, r2
    224c:	d319      	bcc.n	2282 <allot_ok>
    224e:	f7ff fa6e 	bl	172e <dotgaensefuesschen>
    2252:	616c460b 	cmnvs	ip, fp, lsl #12
    2256:	66206873 			; <UNDEFINED> instruction: 0x66206873
    225a:	0a6c6c75 	beq	1b1d436 <BIT24+0xb1d436>
    225e:	f001 b909 	b.w	3474 <Code_909>

00002262 <allot_ram>:
    2262:	0032      	movs	r2, r6
    2264:	cf40      	ldmia	r7!, {r6}
    2266:	1889      	adds	r1, r1, r2
    2268:	4a37      	ldr	r2, [pc, #220]	; (2348 <Zweitpointertausch+0x58>)
    226a:	6812      	ldr	r2, [r2, #0]
    226c:	4291      	cmp	r1, r2
    226e:	d308      	bcc.n	2282 <allot_ok>
    2270:	f7ff fa5d 	bl	172e <dotgaensefuesschen>
    2274:	6d615209 	sfmvs	f5, 2, [r1, #-36]!	; 0xffffffdc
    2278:	6c756620 	ldclvs	6, cr6, [r5], #-128	; 0xffffff80
    227c:	f0010a6c 			; <UNDEFINED> instruction: 0xf0010a6c
    2280:	b8f9      			; <UNDEFINED> instruction: 0xb8f9

00002282 <allot_ok>:
    2282:	6001      	str	r1, [r0, #0]
    2284:	4770      	bx	lr

00002286 <Dictionary_553>:
    2286:	000022ae 	andeq	r2, r0, lr, lsr #5
    228a:	630d0000 	movwvs	r0, #53248	; 0xd000
    228e:	69706d6f 	ldmdbvs	r0!, {r0, r1, r2, r3, r5, r6, r8, sl, fp, sp, lr}^
    2292:	6f74656c 	svcvs	0x0074656c
    2296:	3f6d6172 	svccc	0x006d6172

0000229a <Code_553>:
    229a:	f847 6d04 	str.w	r6, [r7, #-4]!
    229e:	2600      	movs	r6, #0
    22a0:	4827      	ldr	r0, [pc, #156]	; (2340 <Zweitpointertausch+0x50>)
    22a2:	6800      	ldr	r0, [r0, #0]
    22a4:	4926      	ldr	r1, [pc, #152]	; (2340 <Zweitpointertausch+0x50>)
    22a6:	4288      	cmp	r0, r1
    22a8:	d348      	bcc.n	233c <Zweitpointertausch+0x4c>
    22aa:	43f6      	mvns	r6, r6
    22ac:	4770      	bx	lr

000022ae <Dictionary_556>:
    22ae:	000022ce 	andeq	r2, r0, lr, asr #5
    22b2:	630c0000 	movwvs	r0, #49152	; 0xc000
    22b6:	69706d6f 	ldmdbvs	r0!, {r0, r1, r2, r3, r5, r6, r8, sl, fp, sp, lr}^
    22ba:	6f74656c 	svcvs	0x0074656c
    22be:	006d6172 	rsbeq	r6, sp, r2, ror r1

000022c2 <Code_556>:
    22c2:	481f      	ldr	r0, [pc, #124]	; (2340 <Zweitpointertausch+0x50>)
    22c4:	6800      	ldr	r0, [r0, #0]
    22c6:	491e      	ldr	r1, [pc, #120]	; (2340 <Zweitpointertausch+0x50>)
    22c8:	4288      	cmp	r0, r1
    22ca:	d311      	bcc.n	22f0 <Zweitpointertausch>
    22cc:	4770      	bx	lr

000022ce <Dictionary_557>:
    22ce:	00002358 	andeq	r2, r0, r8, asr r3
    22d2:	630e0000 	movwvs	r0, #57344	; 0xe000
    22d6:	69706d6f 	ldmdbvs	r0!, {r0, r1, r2, r3, r5, r6, r8, sl, fp, sp, lr}^
    22da:	6f74656c 	svcvs	0x0074656c
    22de:	73616c66 	cmnvc	r1, #26112	; 0x6600
    22e2:	48160068 	ldmdami	r6, {r3, r5, r6}

000022e4 <Code_557>:
    22e4:	4816      	ldr	r0, [pc, #88]	; (2340 <Zweitpointertausch+0x50>)
    22e6:	6800      	ldr	r0, [r0, #0]
    22e8:	4915      	ldr	r1, [pc, #84]	; (2340 <Zweitpointertausch+0x50>)
    22ea:	4288      	cmp	r0, r1
    22ec:	d200      	bcs.n	22f0 <Zweitpointertausch>
    22ee:	4770      	bx	lr

000022f0 <Zweitpointertausch>:
    22f0:	4816      	ldr	r0, [pc, #88]	; (234c <Zweitpointertausch+0x5c>)
    22f2:	4917      	ldr	r1, [pc, #92]	; (2350 <Zweitpointertausch+0x60>)
    22f4:	6802      	ldr	r2, [r0, #0]
    22f6:	680b      	ldr	r3, [r1, #0]
    22f8:	600a      	str	r2, [r1, #0]
    22fa:	6003      	str	r3, [r0, #0]
    22fc:	4810      	ldr	r0, [pc, #64]	; (2340 <Zweitpointertausch+0x50>)
    22fe:	4915      	ldr	r1, [pc, #84]	; (2354 <Zweitpointertausch+0x64>)
    2300:	6802      	ldr	r2, [r0, #0]
    2302:	680b      	ldr	r3, [r1, #0]
    2304:	600a      	str	r2, [r1, #0]
    2306:	6003      	str	r3, [r0, #0]
    2308:	480f      	ldr	r0, [pc, #60]	; (2348 <Zweitpointertausch+0x58>)
    230a:	6800      	ldr	r0, [r0, #0]
    230c:	4283      	cmp	r3, r0
    230e:	d315      	bcc.n	233c <Zweitpointertausch+0x4c>
    2310:	b500      	push	{lr}
    2312:	f7ff fa0c 	bl	172e <dotgaensefuesschen>
    2316:	61562023 	cmpvs	r6, r3, lsr #32
    231a:	62616972 	rsbvs	r6, r1, #1867776	; 0x1c8000
    231e:	2073656c 	rsbscs	r6, r3, ip, ror #10
    2322:	6c6c6f63 	stclvs	15, cr6, [ip], #-396	; 0xfffffe74
    2326:	20656469 	rsbcs	r6, r5, r9, ror #8
    232a:	68746977 	ldmdavs	r4!, {r0, r1, r2, r4, r5, r6, r8, fp, sp, lr}^
    232e:	63696420 	cmnvs	r9, #536870912	; 0x20000000
    2332:	6e6f6974 	mcrvs	9, 3, r6, cr15, cr4, {3}
    2336:	0a797261 	beq	1e5ecc2 <BIT24+0xe5ecc2>
    233a:	bd00      	pop	{pc}
    233c:	4770      	bx	lr
    233e:	00000000 	andeq	r0, r0, r0
    2342:	00002000 	andeq	r2, r0, r0
    2346:	00240004 	eoreq	r0, r4, r4
    234a:	00042000 	andeq	r2, r4, r0
    234e:	001c2000 	andseq	r2, ip, r0
    2352:	00182000 	andseq	r2, r8, r0
    2356:	24422000 	strbcs	r2, [r2]

00002358 <Dictionary_559>:
    2358:	00002442 	andeq	r2, r0, r2, asr #8
    235c:	28080000 	stmdacs	r8, {}	; <UNPREDICTABLE>
    2360:	61657263 	cmnvs	r5, r3, ror #4
    2364:	00296574 	eoreq	r6, r9, r4, ror r5

00002368 <Code_559>:
    2368:	b500      	push	{lr}
    236a:	f000 fcfb 	bl	2d64 <Code_782>
    236e:	2e00      	cmp	r6, #0
    2370:	d10e      	bne.n	2390 <Code_559+0x28>
    2372:	f7ff f9dc 	bl	172e <dotgaensefuesschen>
    2376:	72432015 	subvc	r2, r3, #21
    237a:	65746165 	ldrbvs	r6, [r4, #-357]!	; 0x165
    237e:	65656e20 	strbvs	r6, [r5, #-3616]!	; 0xe20
    2382:	6e207364 	cdpvs	3, 2, cr7, cr0, cr4, {3}
    2386:	20656d61 	rsbcs	r6, r5, r1, ror #26
    238a:	f0010a21 			; <UNDEFINED> instruction: 0xf0010a21
    238e:	b872      			; <UNDEFINED> instruction: 0xb872
    2390:	6838      	ldr	r0, [r7, #0]
    2392:	f847 6d04 	str.w	r6, [r7, #-4]!
    2396:	3f04      	subs	r7, #4
    2398:	6038      	str	r0, [r7, #0]
    239a:	f000 f99e 	bl	26da <Code_622>
    239e:	cf40      	ldmia	r7!, {r6}
    23a0:	2e00      	cmp	r6, #0
    23a2:	cf40      	ldmia	r7!, {r6}
    23a4:	d011      	beq.n	23ca <Code_559+0x62>
    23a6:	6838      	ldr	r0, [r7, #0]
    23a8:	f847 6d04 	str.w	r6, [r7, #-4]!
    23ac:	3f04      	subs	r7, #4
    23ae:	6038      	str	r0, [r7, #0]
    23b0:	f7ff f9bd 	bl	172e <dotgaensefuesschen>
    23b4:	64655209 	strbtvs	r5, [r5], #-521	; 0x209
    23b8:	6e696665 	cdpvs	6, 6, cr6, cr9, cr5, {3}
    23bc:	f7ff2065 			; <UNDEFINED> instruction: 0xf7ff2065
    23c0:	fa12 f7ff 			; <UNDEFINED> instruction: 0xfa12f7ff
    23c4:	f9b4 2e02 	ldrsh.w	r2, [r4, #3586]	; 0xe02
    23c8:	f7ff000a 			; <UNDEFINED> instruction: 0xf7ff000a
    23cc:	feb9 f000 	cdp2	0, 11, cr15, cr9, cr0, {0}
    23d0:	fa0d 488e 			; <UNDEFINED> instruction: 0xfa0d488e
    23d4:	6800      	ldr	r0, [r0, #0]
    23d6:	498d      	ldr	r1, [pc, #564]	; (260c <rambuffer_ram+0x44>)
    23d8:	4288      	cmp	r0, r1
    23da:	d21c      	bcs.n	2416 <create_ram>
    23dc:	488c      	ldr	r0, [pc, #560]	; (2610 <rambuffer_ram+0x48>)
    23de:	2100      	movs	r1, #0
    23e0:	6001      	str	r1, [r0, #0]
    23e2:	f847 6d04 	str.w	r6, [r7, #-4]!
    23e6:	2606      	movs	r6, #6
    23e8:	f7ff ff26 	bl	2238 <Code_548>
    23ec:	f7fe fa6b 	bl	8c6 <Code_133>
    23f0:	f7ff feef 	bl	21d2 <Code_540>
    23f4:	4887      	ldr	r0, [pc, #540]	; (2614 <rambuffer_ram+0x4c>)
    23f6:	6801      	ldr	r1, [r0, #0]
    23f8:	680a      	ldr	r2, [r1, #0]
    23fa:	4b87      	ldr	r3, [pc, #540]	; (2618 <rambuffer_ram+0x50>)
    23fc:	429a      	cmp	r2, r3
    23fe:	d107      	bne.n	2410 <Code_559+0xa8>
    2400:	4a82      	ldr	r2, [pc, #520]	; (260c <rambuffer_ram+0x44>)
    2402:	6813      	ldr	r3, [r2, #0]
    2404:	6011      	str	r1, [r2, #0]
    2406:	f847 6d04 	str.w	r6, [r7, #-4]!
    240a:	f7ff fec4 	bl	2196 <Code_534>
    240e:	6013      	str	r3, [r2, #0]
    2410:	6006      	str	r6, [r0, #0]
    2412:	cf40      	ldmia	r7!, {r6}
    2414:	e010      	b.n	2438 <create_ende>

00002416 <create_ram>:
    2416:	487f      	ldr	r0, [pc, #508]	; (2614 <rambuffer_ram+0x4c>)
    2418:	f847 6d04 	str.w	r6, [r7, #-4]!
    241c:	6806      	ldr	r6, [r0, #0]
    241e:	f7ff feba 	bl	2196 <Code_534>
    2422:	f847 6d04 	str.w	r6, [r7, #-4]!
    2426:	4e7d      	ldr	r6, [pc, #500]	; (261c <rambuffer_ram+0x54>)
    2428:	f7ff fe9b 	bl	2162 <Code_528>
    242c:	4879      	ldr	r0, [pc, #484]	; (2614 <rambuffer_ram+0x4c>)
    242e:	0031      	movs	r1, r6
    2430:	cf40      	ldmia	r7!, {r6}
    2432:	6001      	str	r1, [r0, #0]
    2434:	f7ff fecd 	bl	21d2 <Code_540>

00002438 <create_ende>:
    2438:	4874      	ldr	r0, [pc, #464]	; (260c <rambuffer_ram+0x44>)
    243a:	6801      	ldr	r1, [r0, #0]
    243c:	4878      	ldr	r0, [pc, #480]	; (2620 <rambuffer_ram+0x58>)
    243e:	6001      	str	r1, [r0, #0]
    2440:	bd00      	pop	{pc}

00002442 <Dictionary_577>:
    2442:	0000245a 	andeq	r2, r0, sl, asr r4
    2446:	76080000 	strvc	r0, [r8], -r0
    244a:	61697261 	cmnvs	r9, r1, ror #4
    244e:	00656c62 	rsbeq	r6, r5, r2, ror #24

00002452 <Code_577>:
    2452:	f847 6d04 	str.w	r6, [r7, #-4]!
    2456:	2601      	movs	r6, #1
    2458:	e013      	b.n	2482 <Code_583>

0000245a <Dictionary_580>:
    245a:	00002472 	andeq	r2, r0, r2, ror r4
    245e:	32090000 	andcc	r0, r9, #0
    2462:	69726176 	ldmdbvs	r2!, {r1, r2, r4, r5, r6, r8, sp, lr}^
    2466:	656c6261 	strbvs	r6, [ip, #-609]!	; 0x261

0000246a <Code_580>:
    246a:	f847 6d04 	str.w	r6, [r7, #-4]!
    246e:	2602      	movs	r6, #2
    2470:	e007      	b.n	2482 <Code_583>

00002472 <Dictionary_583>:
    2472:	0000254c 	andeq	r2, r0, ip, asr #10
    2476:	6e090000 	cdpvs	0, 0, cr0, cr9, cr0, {0}
    247a:	69726176 	ldmdbvs	r2!, {r1, r2, r4, r5, r6, r8, sp, lr}^
    247e:	656c6261 	strbvs	r6, [ip, #-609]!	; 0x261

00002482 <Code_583>:
    2482:	b500      	push	{lr}
    2484:	f7ff ff70 	bl	2368 <Code_559>
    2488:	4860      	ldr	r0, [pc, #384]	; (260c <rambuffer_ram+0x44>)
    248a:	6801      	ldr	r1, [r0, #0]
    248c:	4a5f      	ldr	r2, [pc, #380]	; (260c <rambuffer_ram+0x44>)
    248e:	4291      	cmp	r1, r2
    2490:	d234      	bcs.n	24fc <variable_ram>
    2492:	200f      	movs	r0, #15
    2494:	4006      	ands	r6, r0
    2496:	00b2      	lsls	r2, r6, #2
    2498:	4862      	ldr	r0, [pc, #392]	; (2624 <rambuffer_ram+0x5c>)
    249a:	6801      	ldr	r1, [r0, #0]
    249c:	1a89      	subs	r1, r1, r2
    249e:	4a62      	ldr	r2, [pc, #392]	; (2628 <rambuffer_ram+0x60>)
    24a0:	4291      	cmp	r1, r2
    24a2:	d20b      	bcs.n	24bc <Code_583+0x3a>
    24a4:	f7ff f943 	bl	172e <dotgaensefuesschen>
    24a8:	746f4e0f 	strbtvc	r4, [pc], #-3599	; 24b0 <Code_583+0x2e>
    24ac:	6f6e6520 	svcvs	0x006e6520
    24b0:	20686775 	rsbcs	r6, r8, r5, ror r7
    24b4:	0a4d4152 	beq	1352a04 <BIT24+0x352a04>
    24b8:	f000 bfdc 	b.w	3474 <Code_909>
    24bc:	6001      	str	r1, [r0, #0]
    24be:	f847 6d04 	str.w	r6, [r7, #-4]!
    24c2:	000e      	movs	r6, r1
    24c4:	f7ff fbbe 	bl	1c44 <Code_427>
    24c8:	f847 6d04 	str.w	r6, [r7, #-4]!
    24cc:	f244 7670 	movw	r6, #18288	; 0x4770
    24d0:	f7ff fe47 	bl	2162 <Code_528>
    24d4:	0030      	movs	r0, r6
    24d6:	cf40      	ldmia	r7!, {r6}
    24d8:	0002      	movs	r2, r0
    24da:	2800      	cmp	r0, #0
    24dc:	d005      	beq.n	24ea <Code_583+0x68>
    24de:	600e      	str	r6, [r1, #0]
    24e0:	3104      	adds	r1, #4
    24e2:	f7ff fe58 	bl	2196 <Code_534>
    24e6:	3801      	subs	r0, #1
    24e8:	d1f9      	bne.n	24de <Code_583+0x5c>
    24ea:	f847 6d04 	str.w	r6, [r7, #-4]!
    24ee:	2680      	movs	r6, #128	; 0x80
    24f0:	4316      	orrs	r6, r2
    24f2:	f7ff fdd5 	bl	20a0 <Code_521>
    24f6:	f7ff fda4 	bl	2042 <Code_515>
    24fa:	bd00      	pop	{pc}

000024fc <variable_ram>:
    24fc:	f000 f976 	bl	27ec <Code_644>
    2500:	2002      	movs	r0, #2
    2502:	4006      	ands	r6, r0
    2504:	cf40      	ldmia	r7!, {r6}
    2506:	d104      	bne.n	2512 <variable_ram+0x16>
    2508:	f847 6d04 	str.w	r6, [r7, #-4]!
    250c:	2636      	movs	r6, #54	; 0x36
    250e:	f7ff fe28 	bl	2162 <Code_528>
    2512:	f847 6d04 	str.w	r6, [r7, #-4]!
    2516:	4e45      	ldr	r6, [pc, #276]	; (262c <rambuffer_ram+0x64>)
    2518:	f7ff fe4b 	bl	21b2 <Code_537>
    251c:	f847 6d04 	str.w	r6, [r7, #-4]!
    2520:	4e43      	ldr	r6, [pc, #268]	; (2630 <rambuffer_ram+0x68>)
    2522:	f7ff fe46 	bl	21b2 <Code_537>
    2526:	f847 6d04 	str.w	r6, [r7, #-4]!
    252a:	f244 7670 	movw	r6, #18288	; 0x4770
    252e:	f7ff fe18 	bl	2162 <Code_528>
    2532:	0030      	movs	r0, r6
    2534:	cf40      	ldmia	r7!, {r6}
    2536:	2800      	cmp	r0, #0
    2538:	d003      	beq.n	2542 <variable_ram+0x46>
    253a:	f7ff fe2c 	bl	2196 <Code_534>
    253e:	3801      	subs	r0, #1
    2540:	d1fb      	bne.n	253a <variable_ram+0x3e>
    2542:	f7ff fcef 	bl	1f24 <Code_486>
    2546:	f7ff fd7c 	bl	2042 <Code_515>
    254a:	bd00      	pop	{pc}

0000254c <Dictionary_600>:
    254c:	00002634 	andeq	r2, r0, r4, lsr r6
    2550:	62070000 	andvs	r0, r7, #0
    2554:	65666675 	strbvs	r6, [r6, #-1653]!	; 0x675
    2558:	b5003a72 	strlt	r3, [r0, #-2674]	; 0xa72

0000255a <Code_600>:
    255a:	b500      	push	{lr}
    255c:	f7ff ff04 	bl	2368 <Code_559>
    2560:	2001      	movs	r0, #1
    2562:	4030      	ands	r0, r6
    2564:	1836      	adds	r6, r6, r0
    2566:	2002      	movs	r0, #2
    2568:	4030      	ands	r0, r6
    256a:	1836      	adds	r6, r6, r0
    256c:	4827      	ldr	r0, [pc, #156]	; (260c <rambuffer_ram+0x44>)
    256e:	6801      	ldr	r1, [r0, #0]
    2570:	4a26      	ldr	r2, [pc, #152]	; (260c <rambuffer_ram+0x44>)
    2572:	4291      	cmp	r1, r2
    2574:	d228      	bcs.n	25c8 <rambuffer_ram>
    2576:	482b      	ldr	r0, [pc, #172]	; (2624 <rambuffer_ram+0x5c>)
    2578:	6801      	ldr	r1, [r0, #0]
    257a:	1b89      	subs	r1, r1, r6
    257c:	4a2a      	ldr	r2, [pc, #168]	; (2628 <rambuffer_ram+0x60>)
    257e:	4291      	cmp	r1, r2
    2580:	d20b      	bcs.n	259a <Code_600+0x40>
    2582:	f7ff f8d4 	bl	172e <dotgaensefuesschen>
    2586:	746f4e0f 	strbtvc	r4, [pc], #-3599	; 258e <Code_600+0x34>
    258a:	6f6e6520 	svcvs	0x006e6520
    258e:	20686775 	rsbcs	r6, r8, r5, ror r7
    2592:	0a4d4152 	beq	1352ae2 <BIT24+0x352ae2>
    2596:	f000 bf6d 	b.w	3474 <Code_909>
    259a:	6001      	str	r1, [r0, #0]
    259c:	f847 6d04 	str.w	r6, [r7, #-4]!
    25a0:	000e      	movs	r6, r1
    25a2:	f7ff fb4f 	bl	1c44 <Code_427>
    25a6:	f847 6d04 	str.w	r6, [r7, #-4]!
    25aa:	f244 7670 	movw	r6, #18288	; 0x4770
    25ae:	f7ff fdd8 	bl	2162 <Code_528>
    25b2:	f7ff fdf0 	bl	2196 <Code_534>
    25b6:	f847 6d04 	str.w	r6, [r7, #-4]!
    25ba:	f240 1640 	movw	r6, #320	; 0x140
    25be:	f7ff fd6f 	bl	20a0 <Code_521>
    25c2:	f7ff fd3e 	bl	2042 <Code_515>
    25c6:	bd00      	pop	{pc}

000025c8 <rambuffer_ram>:
    25c8:	f000 f910 	bl	27ec <Code_644>
    25cc:	2002      	movs	r0, #2
    25ce:	4006      	ands	r6, r0
    25d0:	cf40      	ldmia	r7!, {r6}
    25d2:	d104      	bne.n	25de <rambuffer_ram+0x16>
    25d4:	f847 6d04 	str.w	r6, [r7, #-4]!
    25d8:	2636      	movs	r6, #54	; 0x36
    25da:	f7ff fdc2 	bl	2162 <Code_528>
    25de:	f847 6d04 	str.w	r6, [r7, #-4]!
    25e2:	4e12      	ldr	r6, [pc, #72]	; (262c <rambuffer_ram+0x64>)
    25e4:	f7ff fde5 	bl	21b2 <Code_537>
    25e8:	f847 6d04 	str.w	r6, [r7, #-4]!
    25ec:	4e10      	ldr	r6, [pc, #64]	; (2630 <rambuffer_ram+0x68>)
    25ee:	f7ff fde0 	bl	21b2 <Code_537>
    25f2:	f847 6d04 	str.w	r6, [r7, #-4]!
    25f6:	f244 7670 	movw	r6, #18288	; 0x4770
    25fa:	f7ff fdb2 	bl	2162 <Code_528>
    25fe:	f7ff fe1b 	bl	2238 <Code_548>
    2602:	f7ff fc8f 	bl	1f24 <Code_486>
    2606:	f7ff fd1c 	bl	2042 <Code_515>
    260a:	bd00      	pop	{pc}
    260c:	20000000 	andcs	r0, r0, r0
    2610:	20000020 	andcs	r0, r0, r0, lsr #32
    2614:	20000004 	andcs	r0, r0, r4
    2618:	ffffffff 			; <UNDEFINED> instruction: 0xffffffff
    261c:	0000ffff 	strdeq	pc, [r0], -pc	; <UNPREDICTABLE>
    2620:	20000014 	andcs	r0, r0, r4, lsl r0
    2624:	20000024 	andcs	r0, r0, r4, lsr #32
    2628:	20000330 	andcs	r0, r0, r0, lsr r3
    262c:	3f04603e 	svccc	0x0004603e
    2630:	467e3602 	ldrbtmi	r3, [lr], -r2, lsl #12

00002634 <Dictionary_615>:
    2634:	00002662 	andeq	r2, r0, r2, ror #12
    2638:	640f0000 	strvs	r0, [pc], #0	; 2640 <Dictionary_615+0xc>
    263c:	69746369 	ldmdbvs	r4!, {r0, r3, r5, r6, r8, r9, sp, lr}^
    2640:	72616e6f 	rsbvc	r6, r1, #1776	; 0x6f0
    2644:	61747379 	cmnvs	r4, r9, ror r3
    2648:	48ea7472 	stmiami	sl!, {r1, r4, r5, r6, sl, ip, sp, lr}^

0000264a <Code_615>:
    264a:	48ea      	ldr	r0, [pc, #936]	; (29f4 <Code_691+0xe>)
    264c:	6800      	ldr	r0, [r0, #0]
    264e:	49e9      	ldr	r1, [pc, #932]	; (29f4 <Code_691+0xe>)
    2650:	f847 6d04 	str.w	r6, [r7, #-4]!
    2654:	4288      	cmp	r0, r1
    2656:	d201      	bcs.n	265c <Code_615+0x12>
    2658:	4ee7      	ldr	r6, [pc, #924]	; (29f8 <Code_691+0x12>)
    265a:	4770      	bx	lr
    265c:	4ee7      	ldr	r6, [pc, #924]	; (29fc <Code_691+0x16>)
    265e:	6836      	ldr	r6, [r6, #0]
    2660:	4770      	bx	lr

00002662 <Dictionary_617>:
    2662:	0000269c 	muleq	r0, ip, r6
    2666:	640e0000 	strvs	r0, [lr]
    266a:	69746369 	ldmdbvs	r4!, {r0, r3, r5, r6, r8, r9, sp, lr}^
    266e:	72616e6f 	rsbvc	r6, r1, #1776	; 0x6f0
    2672:	78656e79 	stmdavc	r5!, {r0, r3, r4, r5, r6, r9, sl, fp, sp, lr}^
    2676:	b5030074 	strlt	r0, [r3, #-116]	; 0x74

00002678 <Code_617>:
    2678:	b503      	push	{r0, r1, lr}
    267a:	6831      	ldr	r1, [r6, #0]
    267c:	48e0      	ldr	r0, [pc, #896]	; (2a00 <Code_691+0x1a>)
    267e:	4281      	cmp	r1, r0
    2680:	d007      	beq.n	2692 <Code_617+0x1a>
    2682:	7988      	ldrb	r0, [r1, #6]
    2684:	28ff      	cmp	r0, #255	; 0xff
    2686:	d004      	beq.n	2692 <Code_617+0x1a>
    2688:	000e      	movs	r6, r1
    268a:	f847 6d04 	str.w	r6, [r7, #-4]!
    268e:	2600      	movs	r6, #0
    2690:	bd03      	pop	{r0, r1, pc}
    2692:	f847 6d04 	str.w	r6, [r7, #-4]!
    2696:	2600      	movs	r6, #0
    2698:	43f6      	mvns	r6, r6
    269a:	bd03      	pop	{r0, r1, pc}

0000269c <Dictionary_621>:
    269c:	000026ce 	andeq	r2, r0, lr, asr #13
    26a0:	730a0000 	movwvc	r0, #40960	; 0xa000
    26a4:	7370696b 	cmnvc	r0, #1753088	; 0x1ac000
    26a8:	6e697274 	mcrvs	2, 3, r7, cr9, cr4, {3}
    26ac:	78310067 	ldmdavc	r1!, {r0, r1, r2, r5, r6}

000026ae <Code_621>:
    26ae:	7831      	ldrb	r1, [r6, #0]
    26b0:	3101      	adds	r1, #1
    26b2:	2201      	movs	r2, #1
    26b4:	400a      	ands	r2, r1
    26b6:	1889      	adds	r1, r1, r2
    26b8:	1876      	adds	r6, r6, r1
    26ba:	4770      	bx	lr

000026bc <skipstring>:
    26bc:	b406      	push	{r1, r2}
    26be:	7801      	ldrb	r1, [r0, #0]
    26c0:	3101      	adds	r1, #1
    26c2:	2201      	movs	r2, #1
    26c4:	400a      	ands	r2, r1
    26c6:	1889      	adds	r1, r1, r2
    26c8:	1840      	adds	r0, r0, r1
    26ca:	bc06      	pop	{r1, r2}
    26cc:	4770      	bx	lr

000026ce <Dictionary_622>:
    26ce:	0000274e 	andeq	r2, r0, lr, asr #14
    26d2:	66040000 	strvs	r0, [r4], -r0
    26d6:	00646e69 	rsbeq	r6, r4, r9, ror #28

000026da <Code_622>:
    26da:	b53f      	push	{r0, r1, r2, r3, r4, r5, lr}
    26dc:	2200      	movs	r2, #0
    26de:	2300      	movs	r3, #0
    26e0:	0035      	movs	r5, r6
    26e2:	cf40      	ldmia	r7!, {r6}
    26e4:	0034      	movs	r4, r6
    26e6:	cf40      	ldmia	r7!, {r6}
    26e8:	f7ff ffaf 	bl	264a <Code_615>
    26ec:	48c5      	ldr	r0, [pc, #788]	; (2a04 <Code_691+0x1e>)
    26ee:	88b1      	ldrh	r1, [r6, #4]
    26f0:	4288      	cmp	r0, r1
    26f2:	d017      	beq.n	2724 <Code_622+0x4a>
    26f4:	f847 6d04 	str.w	r6, [r7, #-4]!
    26f8:	3606      	adds	r6, #6
    26fa:	f7ff f854 	bl	17a6 <Code_354>
    26fe:	f847 6d04 	str.w	r6, [r7, #-4]!
    2702:	0026      	movs	r6, r4
    2704:	f847 6d04 	str.w	r6, [r7, #-4]!
    2708:	002e      	movs	r6, r5
    270a:	f7fe ff86 	bl	161a <Code_316>
    270e:	2e00      	cmp	r6, #0
    2710:	cf40      	ldmia	r7!, {r6}
    2712:	d007      	beq.n	2724 <Code_622+0x4a>
    2714:	1db0      	adds	r0, r6, #6
    2716:	f7ff ffd1 	bl	26bc <skipstring>
    271a:	0002      	movs	r2, r0
    271c:	000b      	movs	r3, r1
    271e:	48b5      	ldr	r0, [pc, #724]	; (29f4 <Code_691+0xe>)
    2720:	4282      	cmp	r2, r0
    2722:	d204      	bcs.n	272e <Code_622+0x54>
    2724:	f7ff ffa8 	bl	2678 <Code_617>
    2728:	0030      	movs	r0, r6
    272a:	cf40      	ldmia	r7!, {r6}
    272c:	d0de      	beq.n	26ec <Code_622+0x12>
    272e:	0016      	movs	r6, r2
    2730:	f847 6d04 	str.w	r6, [r7, #-4]!
    2734:	001e      	movs	r6, r3
    2736:	bd3f      	pop	{r0, r1, r2, r3, r4, r5, pc}

00002738 <find_not_found>:
    2738:	b500      	push	{lr}
    273a:	0031      	movs	r1, r6
    273c:	6838      	ldr	r0, [r7, #0]
    273e:	f7ff ffcc 	bl	26da <Code_622>
    2742:	683a      	ldr	r2, [r7, #0]
    2744:	2a00      	cmp	r2, #0
    2746:	d101      	bne.n	274c <find_not_found+0x14>
    2748:	f000 fd66 	bl	3218 <not_found_addr_r0_len_r1>
    274c:	bd00      	pop	{pc}

0000274e <Dictionary_635>:
    274e:	000027a8 	andeq	r2, r0, r8, lsr #15
    2752:	63060000 	movwvs	r0, #24576	; 0x6000
    2756:	706d756a 	rsbvc	r7, sp, sl, ror #10
    275a:	0032002c 	eorseq	r0, r2, ip, lsr #32

0000275c <Code_635>:
    275c:	0032      	movs	r2, r6
    275e:	cf40      	ldmia	r7!, {r6}
    2760:	0031      	movs	r1, r6
    2762:	cf40      	ldmia	r7!, {r6}
    2764:	1b8b      	subs	r3, r1, r6
    2766:	3b04      	subs	r3, #4
    2768:	49a7      	ldr	r1, [pc, #668]	; (2a08 <Code_691+0x22>)
    276a:	4019      	ands	r1, r3
    276c:	2900      	cmp	r1, #0
    276e:	d00d      	beq.n	278c <jump_too_far+0x16>
    2770:	48a6      	ldr	r0, [pc, #664]	; (2a0c <Code_691+0x26>)
    2772:	4281      	cmp	r1, r0
    2774:	d00a      	beq.n	278c <jump_too_far+0x16>

00002776 <jump_too_far>:
    2776:	f7fe ffda 	bl	172e <dotgaensefuesschen>
    277a:	6d754a0d 	vldmdbvs	r5!, {s9-s21}
    277e:	6f742070 	svcvs	0x00742070
    2782:	6166206f 	cmnvs	r6, pc, rrx
    2786:	f0000a72 			; <UNDEFINED> instruction: 0xf0000a72
    278a:	be74      	bkpt	0x0074
    278c:	105b      	asrs	r3, r3, #1
    278e:	21ff      	movs	r1, #255	; 0xff
    2790:	400b      	ands	r3, r1
    2792:	4313      	orrs	r3, r2
    2794:	0030      	movs	r0, r6
    2796:	001e      	movs	r6, r3

00002798 <sprungbefehl_einfuegen>:
    2798:	b500      	push	{lr}
    279a:	4a96      	ldr	r2, [pc, #600]	; (29f4 <Code_691+0xe>)
    279c:	6813      	ldr	r3, [r2, #0]
    279e:	6010      	str	r0, [r2, #0]
    27a0:	f7ff fcdf 	bl	2162 <Code_528>
    27a4:	6013      	str	r3, [r2, #0]
    27a6:	bd00      	pop	{pc}

000027a8 <Dictionary_639>:
    27a8:	000027e0 	andeq	r2, r0, r0, ror #15
    27ac:	6a050000 	bvs	1427b4 <BIT20+0x427b4>
    27b0:	2c706d75 	ldclcs	13, cr6, [r0], #-468	; 0xfffffe2c

000027b4 <Code_639>:
    27b4:	0031      	movs	r1, r6
    27b6:	cf40      	ldmia	r7!, {r6}
    27b8:	0030      	movs	r0, r6
    27ba:	cf40      	ldmia	r7!, {r6}
    27bc:	1a0b      	subs	r3, r1, r0
    27be:	3b04      	subs	r3, #4
    27c0:	4993      	ldr	r1, [pc, #588]	; (2a10 <Code_691+0x2a>)
    27c2:	4019      	ands	r1, r3
    27c4:	2900      	cmp	r1, #0
    27c6:	d002      	beq.n	27ce <Code_639+0x1a>
    27c8:	4a92      	ldr	r2, [pc, #584]	; (2a14 <Code_691+0x2e>)
    27ca:	4291      	cmp	r1, r2
    27cc:	d1d3      	bne.n	2776 <jump_too_far>
    27ce:	105b      	asrs	r3, r3, #1
    27d0:	4a91      	ldr	r2, [pc, #580]	; (2a18 <Code_691+0x32>)
    27d2:	4013      	ands	r3, r2
    27d4:	f453 4360 	orrs.w	r3, r3, #57344	; 0xe000
    27d8:	f847 6d04 	str.w	r6, [r7, #-4]!
    27dc:	001e      	movs	r6, r3
    27de:	e7db      	b.n	2798 <sprungbefehl_einfuegen>

000027e0 <Dictionary_644>:
    27e0:	000027f6 	strdeq	r2, [r0], -r6
    27e4:	68040000 	stmdavs	r4, {}	; <UNPREDICTABLE>
    27e8:	00657265 	rsbeq	r7, r5, r5, ror #4

000027ec <Code_644>:
    27ec:	f847 6d04 	str.w	r6, [r7, #-4]!
    27f0:	4e80      	ldr	r6, [pc, #512]	; (29f4 <Code_691+0xe>)
    27f2:	6836      	ldr	r6, [r6, #0]
    27f4:	4770      	bx	lr

000027f6 <Dictionary_646>:
    27f6:	000028f2 	strdeq	r2, [r0], -r2	; <UNPREDICTABLE>
    27fa:	660d0000 	strvs	r0, [sp], -r0
    27fe:	6873616c 	ldmdavs	r3!, {r2, r3, r5, r6, r8, sp, lr}^
    2802:	2d726176 	ldfcse	f6, [r2, #-472]!	; 0xfffffe28
    2806:	65726568 	ldrbvs	r6, [r2, #-1384]!	; 0x568

0000280a <Code_646>:
    280a:	f847 6d04 	str.w	r6, [r7, #-4]!
    280e:	4e83      	ldr	r6, [pc, #524]	; (2a1c <Code_691+0x36>)
    2810:	6836      	ldr	r6, [r6, #0]
    2812:	4770      	bx	lr

00002814 <nullprobekomma>:
    2814:	b500      	push	{lr}
    2816:	f847 6d04 	str.w	r6, [r7, #-4]!
    281a:	f642 6600 	movw	r6, #11776	; 0x2e00
    281e:	f7ff fca0 	bl	2162 <Code_528>
    2822:	f847 6d04 	str.w	r6, [r7, #-4]!
    2826:	f64c 7640 	movw	r6, #53056	; 0xcf40
    282a:	f7ff fc9a 	bl	2162 <Code_528>
    282e:	bd00      	pop	{pc}

00002830 <branch_r>:
    2830:	e7dc      	b.n	27ec <Code_644>

00002832 <r_branch_jne>:
    2832:	b500      	push	{lr}
    2834:	f000 f83a 	bl	28ac <branch_v>
    2838:	6839      	ldr	r1, [r7, #0]
    283a:	603e      	str	r6, [r7, #0]
    283c:	460e      	mov	r6, r1
    283e:	f847 6d04 	str.w	r6, [r7, #-4]!
    2842:	f24d 1600 	movw	r6, #53504	; 0xd100
    2846:	f7ff ff89 	bl	275c <Code_635>
    284a:	bd00      	pop	{pc}

0000284c <r_branch_jvc>:
    284c:	b500      	push	{lr}
    284e:	f000 f82d 	bl	28ac <branch_v>
    2852:	6839      	ldr	r1, [r7, #0]
    2854:	603e      	str	r6, [r7, #0]
    2856:	460e      	mov	r6, r1
    2858:	f847 6d04 	str.w	r6, [r7, #-4]!
    285c:	f24d 7600 	movw	r6, #55040	; 0xd700
    2860:	f7ff ff7c 	bl	275c <Code_635>
    2864:	bd00      	pop	{pc}

00002866 <r_nullbranch>:
    2866:	b500      	push	{lr}
    2868:	f7ff ffd4 	bl	2814 <nullprobekomma>
    286c:	f000 f81e 	bl	28ac <branch_v>
    2870:	6839      	ldr	r1, [r7, #0]
    2872:	603e      	str	r6, [r7, #0]
    2874:	460e      	mov	r6, r1
    2876:	f847 6d04 	str.w	r6, [r7, #-4]!
    287a:	f24d 0600 	movw	r6, #53248	; 0xd000
    287e:	f7ff ff6d 	bl	275c <Code_635>
    2882:	bd00      	pop	{pc}

00002884 <r_branch>:
    2884:	b500      	push	{lr}
    2886:	f000 f811 	bl	28ac <branch_v>
    288a:	6839      	ldr	r1, [r7, #0]
    288c:	603e      	str	r6, [r7, #0]
    288e:	460e      	mov	r6, r1
    2890:	f7ff ff90 	bl	27b4 <Code_639>
    2894:	bd00      	pop	{pc}

00002896 <nullbranch_v>:
    2896:	b500      	push	{lr}
    2898:	f7ff ffbc 	bl	2814 <nullprobekomma>
    289c:	f7ff ffa6 	bl	27ec <Code_644>
    28a0:	f847 6d04 	str.w	r6, [r7, #-4]!
    28a4:	2602      	movs	r6, #2
    28a6:	f7ff fcc7 	bl	2238 <Code_548>
    28aa:	bd00      	pop	{pc}

000028ac <branch_v>:
    28ac:	b500      	push	{lr}
    28ae:	f7ff ff9d 	bl	27ec <Code_644>
    28b2:	f847 6d04 	str.w	r6, [r7, #-4]!
    28b6:	2602      	movs	r6, #2
    28b8:	f7ff fcbe 	bl	2238 <Code_548>
    28bc:	bd00      	pop	{pc}

000028be <v_branch>:
    28be:	b500      	push	{lr}
    28c0:	f7ff ff94 	bl	27ec <Code_644>
    28c4:	f7ff ff76 	bl	27b4 <Code_639>
    28c8:	bd00      	pop	{pc}

000028ca <v_nullbranch>:
    28ca:	b500      	push	{lr}
    28cc:	f7ff ff8e 	bl	27ec <Code_644>
    28d0:	f847 6d04 	str.w	r6, [r7, #-4]!
    28d4:	f24d 0600 	movw	r6, #53248	; 0xd000
    28d8:	f7ff ff40 	bl	275c <Code_635>
    28dc:	bd00      	pop	{pc}

000028de <v_casebranch>:
    28de:	b500      	push	{lr}
    28e0:	f7ff ff84 	bl	27ec <Code_644>
    28e4:	f847 6d04 	str.w	r6, [r7, #-4]!
    28e8:	f24d 1600 	movw	r6, #53504	; 0xd100
    28ec:	f7ff ff36 	bl	275c <Code_635>
    28f0:	bd00      	pop	{pc}

000028f2 <Dictionary_670>:
    28f2:	0000292e 	andeq	r2, r0, lr, lsr #18
    28f6:	74040030 	strvc	r0, [r4], #-48	; 0x30
    28fa:	006e6568 	rsbeq	r6, lr, r8, ror #10

000028fe <Code_670>:
    28fe:	2e05      	cmp	r6, #5
    2900:	d101      	bne.n	2906 <Code_670+0x8>
    2902:	cf40      	ldmia	r7!, {r6}
    2904:	e7db      	b.n	28be <v_branch>
    2906:	2e02      	cmp	r6, #2
    2908:	d101      	bne.n	290e <strukturen_passen_nicht>
    290a:	cf40      	ldmia	r7!, {r6}
    290c:	e7dd      	b.n	28ca <v_nullbranch>

0000290e <strukturen_passen_nicht>:
    290e:	f7fe ff0e 	bl	172e <dotgaensefuesschen>
    2912:	72745317 	rsbsvc	r5, r4, #1543503872	; 0x5c000000
    2916:	75746375 	ldrbvc	r6, [r4, #-885]!	; 0x375
    291a:	20736572 	rsbscs	r6, r3, r2, ror r5
    291e:	276e6f64 	strbcs	r6, [lr, -r4, ror #30]!
    2922:	616d2074 	smcvs	53764	; 0xd204
    2926:	0a686374 	beq	1a1b6fe <BIT24+0xa1b6fe>
    292a:	f000 bda3 	b.w	3474 <Code_909>

0000292e <Dictionary_674>:
    292e:	00002958 	andeq	r2, r0, r8, asr r9
    2932:	65040030 	strvs	r0, [r4, #-48]	; 0x30
    2936:	0065736c 	rsbeq	r7, r5, ip, ror #6

0000293a <Code_674>:
    293a:	b500      	push	{lr}
    293c:	2e02      	cmp	r6, #2
    293e:	d1e6      	bne.n	290e <strukturen_passen_nicht>
    2940:	cf40      	ldmia	r7!, {r6}
    2942:	f7ff ffb3 	bl	28ac <branch_v>
    2946:	6839      	ldr	r1, [r7, #0]
    2948:	603e      	str	r6, [r7, #0]
    294a:	460e      	mov	r6, r1
    294c:	f7ff ffbd 	bl	28ca <v_nullbranch>
    2950:	f847 6d04 	str.w	r6, [r7, #-4]!
    2954:	2605      	movs	r6, #5
    2956:	bd00      	pop	{pc}

00002958 <Dictionary_679>:
    2958:	00002970 	andeq	r2, r0, r0, ror r9
    295c:	69020030 	stmdbvs	r2, {r4, r5}
    2960:	b5000066 	strlt	r0, [r0, #-102]	; 0x66

00002962 <Code_679>:
    2962:	b500      	push	{lr}
    2964:	f7ff ff97 	bl	2896 <nullbranch_v>
    2968:	f847 6d04 	str.w	r6, [r7, #-4]!
    296c:	2602      	movs	r6, #2
    296e:	bd00      	pop	{pc}

00002970 <Dictionary_682>:
    2970:	00002996 	muleq	r0, r6, r9
    2974:	72060030 	andvc	r0, r6, #48	; 0x30
    2978:	61657065 	cmnvs	r5, r5, rrx
    297c:	2e040074 	mcrcs	0, 0, r0, cr4, cr4, {3}

0000297e <Code_682>:
    297e:	2e04      	cmp	r6, #4
    2980:	d1c5      	bne.n	290e <strukturen_passen_nicht>
    2982:	cf40      	ldmia	r7!, {r6}
    2984:	6839      	ldr	r1, [r7, #0]
    2986:	603e      	str	r6, [r7, #0]
    2988:	460e      	mov	r6, r1
    298a:	b500      	push	{lr}
    298c:	f7ff ff7a 	bl	2884 <r_branch>
    2990:	f7ff ff9b 	bl	28ca <v_nullbranch>
    2994:	bd00      	pop	{pc}

00002996 <Dictionary_685>:
    2996:	000029b2 			; <UNDEFINED> instruction: 0x000029b2
    299a:	77050030 	smladxvc	r5, r0, r0, r0
    299e:	656c6968 	strbvs	r6, [ip, #-2408]!	; 0x968

000029a2 <Code_685>:
    29a2:	2e01      	cmp	r6, #1
    29a4:	d1b3      	bne.n	290e <strukturen_passen_nicht>
    29a6:	cf40      	ldmia	r7!, {r6}
    29a8:	b500      	push	{lr}
    29aa:	f7ff ffda 	bl	2962 <Code_679>
    29ae:	3602      	adds	r6, #2
    29b0:	bd00      	pop	{pc}

000029b2 <Dictionary_687>:
    29b2:	000029c6 	andeq	r2, r0, r6, asr #19
    29b6:	75050030 	strvc	r0, [r5, #-48]	; 0x30
    29ba:	6c69746e 	cfstrdvs	mvd7, [r9], #-440	; 0xfffffe48

000029be <Code_687>:
    29be:	2e01      	cmp	r6, #1
    29c0:	d1a5      	bne.n	290e <strukturen_passen_nicht>
    29c2:	cf40      	ldmia	r7!, {r6}
    29c4:	e74f      	b.n	2866 <r_nullbranch>

000029c6 <Dictionary_689>:
    29c6:	000029da 	ldrdeq	r2, [r0], -sl
    29ca:	61050030 	tstvs	r5, r0, lsr r0
    29ce:	6e696167 	powvsez	f6, f1, f7

000029d2 <Code_689>:
    29d2:	2e01      	cmp	r6, #1
    29d4:	d19b      	bne.n	290e <strukturen_passen_nicht>
    29d6:	cf40      	ldmia	r7!, {r6}
    29d8:	e754      	b.n	2884 <r_branch>

000029da <Dictionary_691>:
    29da:	00002a20 	andeq	r2, r0, r0, lsr #20
    29de:	62050030 	andvs	r0, r5, #48	; 0x30
    29e2:	6e696765 	cdpvs	7, 6, cr6, cr9, cr5, {3}

000029e6 <Code_691>:
    29e6:	b500      	push	{lr}
    29e8:	f7ff ff22 	bl	2830 <branch_r>
    29ec:	f847 6d04 	str.w	r6, [r7, #-4]!
    29f0:	2601      	movs	r6, #1
    29f2:	bd00      	pop	{pc}
    29f4:	20000000 	andcs	r0, r0, r0
    29f8:	00000188 	andeq	r0, r0, r8, lsl #3
    29fc:	20000004 	andcs	r0, r0, r4
    2a00:	ffffffff 			; <UNDEFINED> instruction: 0xffffffff
    2a04:	0000ffff 	strdeq	pc, [r0], -pc	; <UNPREDICTABLE>
    2a08:	ffffff01 			; <UNDEFINED> instruction: 0xffffff01
    2a0c:	ffffff00 			; <UNDEFINED> instruction: 0xffffff00
    2a10:	fffff801 			; <UNDEFINED> instruction: 0xfffff801
    2a14:	fffff800 			; <UNDEFINED> instruction: 0xfffff800
    2a18:	000007ff 	strdeq	r0, [r0], -pc	; <UNPREDICTABLE>
    2a1c:	20000024 	andcs	r0, r0, r4, lsr #32

00002a20 <Dictionary_694>:
    2a20:	00002a30 	andeq	r2, r0, r0, lsr sl
    2a24:	6b010020 	blvs	42aac <BIT18+0x2aac>

00002a28 <Code_694>:
    2a28:	f847 6d04 	str.w	r6, [r7, #-4]!
    2a2c:	9e02      	ldr	r6, [sp, #8]
    2a2e:	4770      	bx	lr

00002a30 <Dictionary_696>:
    2a30:	00002a40 	andeq	r2, r0, r0, asr #20
    2a34:	6a010020 	bvs	42abc <BIT18+0x2abc>

00002a38 <Code_696>:
    2a38:	f847 6d04 	str.w	r6, [r7, #-4]!
    2a3c:	9e00      	ldr	r6, [sp, #0]
    2a3e:	4770      	bx	lr

00002a40 <Dictionary_698>:
    2a40:	00002a50 	andeq	r2, r0, r0, asr sl
    2a44:	69010020 	stmdbvs	r1, {r5}

00002a48 <Code_698>:
    2a48:	f847 6d04 	str.w	r6, [r7, #-4]!
    2a4c:	0026      	movs	r6, r4
    2a4e:	4770      	bx	lr

00002a50 <Dictionary_701>:
    2a50:	00002a8e 	andeq	r2, r0, lr, lsl #21
    2a54:	6c050030 	stcvs	0, cr0, [r5], {48}	; 0x30
    2a58:	65766165 	ldrbvs	r6, [r6, #-357]!	; 0x165

00002a5c <Code_701>:
    2a5c:	b500      	push	{lr}
    2a5e:	48d9      	ldr	r0, [pc, #868]	; (2dc4 <Code_784+0x4c>)
    2a60:	6801      	ldr	r1, [r0, #0]
    2a62:	003b      	movs	r3, r7
    2a64:	3f04      	subs	r7, #4
    2a66:	681a      	ldr	r2, [r3, #0]
    2a68:	3b04      	subs	r3, #4
    2a6a:	601a      	str	r2, [r3, #0]
    2a6c:	3308      	adds	r3, #8
    2a6e:	428b      	cmp	r3, r1
    2a70:	d1f9      	bne.n	2a66 <Code_701+0xa>
    2a72:	b403      	push	{r0, r1}
    2a74:	f7ff ff1a 	bl	28ac <branch_v>
    2a78:	bc03      	pop	{r0, r1}
    2a7a:	0033      	movs	r3, r6
    2a7c:	cf40      	ldmia	r7!, {r6}
    2a7e:	3904      	subs	r1, #4
    2a80:	600b      	str	r3, [r1, #0]
    2a82:	6001      	str	r1, [r0, #0]
    2a84:	3904      	subs	r1, #4
    2a86:	680a      	ldr	r2, [r1, #0]
    2a88:	3201      	adds	r2, #1
    2a8a:	600a      	str	r2, [r1, #0]
    2a8c:	bd00      	pop	{pc}

00002a8e <Dictionary_703>:
    2a8e:	00002aa0 	andeq	r2, r0, r0, lsr #21
    2a92:	75060020 	strvc	r0, [r6, #-32]
    2a96:	6f6f6c6e 	svcvs	0x006f6c6e
    2a9a:	bc300070 	ldclt	0, cr0, [r0], #-448	; 0xfffffe40

00002a9c <Code_703>:
    2a9c:	bc30      	pop	{r4, r5}
    2a9e:	4770      	bx	lr

00002aa0 <Dictionary_704>:
    2aa0:	00002ad8 	ldrdeq	r2, [r0], -r8
    2aa4:	2b050030 	blcs	142b6c <BIT20+0x42b6c>
    2aa8:	706f6f6c 	rsbvc	r6, pc, ip, ror #30

00002aac <Code_704>:
    2aac:	2e03      	cmp	r6, #3
    2aae:	d000      	beq.n	2ab2 <Code_704+0x6>
    2ab0:	e72d      	b.n	290e <strukturen_passen_nicht>
    2ab2:	cf40      	ldmia	r7!, {r6}
    2ab4:	b500      	push	{lr}
    2ab6:	f847 6d04 	str.w	r6, [r7, #-4]!
    2aba:	4ec3      	ldr	r6, [pc, #780]	; (2dc8 <Code_784+0x50>)
    2abc:	f7ff f964 	bl	1d88 <Code_453>
    2ac0:	f7ff fec4 	bl	284c <r_branch_jvc>
    2ac4:	e01a      	b.n	2afc <loop_intern>

00002ac6 <struktur_plusloop>:
    2ac6:	f114 4400 	adds.w	r4, r4, #2147483648	; 0x80000000
    2aca:	1b64      	subs	r4, r4, r5
    2acc:	19a4      	adds	r4, r4, r6
    2ace:	cf40      	ldmia	r7!, {r6}
    2ad0:	442c      	add	r4, r5
    2ad2:	f1a4 4400 	sub.w	r4, r4, #2147483648	; 0x80000000
    2ad6:	4770      	bx	lr

00002ad8 <Dictionary_708>:
    2ad8:	00002b1a 	andeq	r2, r0, sl, lsl fp
    2adc:	6c040030 	stcvs	0, cr0, [r4], {48}	; 0x30
    2ae0:	00706f6f 	rsbseq	r6, r0, pc, ror #30

00002ae4 <Code_708>:
    2ae4:	2e03      	cmp	r6, #3
    2ae6:	d000      	beq.n	2aea <Code_708+0x6>
    2ae8:	e711      	b.n	290e <strukturen_passen_nicht>
    2aea:	cf40      	ldmia	r7!, {r6}
    2aec:	b500      	push	{lr}
    2aee:	f847 6d04 	str.w	r6, [r7, #-4]!
    2af2:	4eb6      	ldr	r6, [pc, #728]	; (2dcc <Code_784+0x54>)
    2af4:	f7ff f948 	bl	1d88 <Code_453>
    2af8:	f7ff fe9b 	bl	2832 <r_branch_jne>

00002afc <loop_intern>:
    2afc:	f000 f918 	bl	2d30 <spruenge_einpflegen>
    2b00:	48b0      	ldr	r0, [pc, #704]	; (2dc4 <Code_784+0x4c>)
    2b02:	0031      	movs	r1, r6
    2b04:	cf40      	ldmia	r7!, {r6}
    2b06:	6001      	str	r1, [r0, #0]
    2b08:	f847 6d04 	str.w	r6, [r7, #-4]!
    2b0c:	4eb0      	ldr	r6, [pc, #704]	; (2dd0 <Code_784+0x58>)
    2b0e:	f7ff f93b 	bl	1d88 <Code_453>
    2b12:	bd00      	pop	{pc}

00002b14 <struktur_loop>:
    2b14:	3401      	adds	r4, #1
    2b16:	42ac      	cmp	r4, r5
    2b18:	4770      	bx	lr

00002b1a <Dictionary_713>:
    2b1a:	00002b62 	andeq	r2, r0, r2, ror #22
    2b1e:	64020078 	strvs	r0, [r2], #-120	; 0x78
    2b22:	b500006f 	strlt	r0, [r0, #-111]	; 0x6f

00002b24 <Code_713>:
    2b24:	b500      	push	{lr}
    2b26:	f847 6d04 	str.w	r6, [r7, #-4]!
    2b2a:	4eaa      	ldr	r6, [pc, #680]	; (2dd4 <Code_784+0x5c>)
    2b2c:	f7ff f92c 	bl	1d88 <Code_453>

00002b30 <do_rest_der_schleifenstruktur>:
    2b30:	48a4      	ldr	r0, [pc, #656]	; (2dc4 <Code_784+0x4c>)
    2b32:	6801      	ldr	r1, [r0, #0]
    2b34:	f847 6d04 	str.w	r6, [r7, #-4]!
    2b38:	000e      	movs	r6, r1
    2b3a:	f847 6d04 	str.w	r6, [r7, #-4]!
    2b3e:	2600      	movs	r6, #0
    2b40:	6007      	str	r7, [r0, #0]
    2b42:	f7ff fe75 	bl	2830 <branch_r>
    2b46:	f847 6d04 	str.w	r6, [r7, #-4]!
    2b4a:	2603      	movs	r6, #3
    2b4c:	bd00      	pop	{pc}
    2b4e:	b500      	push	{lr}
    2b50:	f000 f82f 	bl	2bb2 <gemeinsame_schleifenoptimierung>
    2b54:	e7ec      	b.n	2b30 <do_rest_der_schleifenstruktur>

00002b56 <struktur_do>:
    2b56:	b430      	push	{r4, r5}
    2b58:	0034      	movs	r4, r6
    2b5a:	cf40      	ldmia	r7!, {r6}
    2b5c:	0035      	movs	r5, r6
    2b5e:	cf40      	ldmia	r7!, {r6}
    2b60:	4770      	bx	lr

00002b62 <Dictionary_723>:
    2b62:	00002bfc 	strdeq	r2, [r0], -ip
    2b66:	3f030078 	svccc	0x00030078
    2b6a:	b5006f64 	strlt	r6, [r0, #-3940]	; 0xf64

00002b6c <Code_723>:
    2b6c:	b500      	push	{lr}
    2b6e:	f847 6d04 	str.w	r6, [r7, #-4]!
    2b72:	4e98      	ldr	r6, [pc, #608]	; (2dd4 <Code_784+0x5c>)
    2b74:	f7ff f908 	bl	1d88 <Code_453>

00002b78 <qdo_rest_der_schleifenstruktur>:
    2b78:	f847 6d04 	str.w	r6, [r7, #-4]!
    2b7c:	f244 26ac 	movw	r6, #17068	; 0x42ac
    2b80:	f7ff faef 	bl	2162 <Code_528>
    2b84:	488f      	ldr	r0, [pc, #572]	; (2dc4 <Code_784+0x4c>)
    2b86:	6801      	ldr	r1, [r0, #0]
    2b88:	f847 6d04 	str.w	r6, [r7, #-4]!
    2b8c:	000e      	movs	r6, r1
    2b8e:	f7ff fe8d 	bl	28ac <branch_v>
    2b92:	3601      	adds	r6, #1
    2b94:	f847 6d04 	str.w	r6, [r7, #-4]!
    2b98:	2601      	movs	r6, #1
    2b9a:	488a      	ldr	r0, [pc, #552]	; (2dc4 <Code_784+0x4c>)
    2b9c:	6007      	str	r7, [r0, #0]
    2b9e:	f7ff fe47 	bl	2830 <branch_r>
    2ba2:	f847 6d04 	str.w	r6, [r7, #-4]!
    2ba6:	2603      	movs	r6, #3
    2ba8:	bd00      	pop	{pc}
    2baa:	b500      	push	{lr}
    2bac:	f000 f801 	bl	2bb2 <gemeinsame_schleifenoptimierung>
    2bb0:	e7e2      	b.n	2b78 <qdo_rest_der_schleifenstruktur>

00002bb2 <gemeinsame_schleifenoptimierung>:
    2bb2:	b500      	push	{lr}
    2bb4:	f847 6d04 	str.w	r6, [r7, #-4]!
    2bb8:	f24b 4630 	movw	r6, #46128	; 0xb430
    2bbc:	f7ff fad1 	bl	2162 <Code_528>
    2bc0:	f847 6d04 	str.w	r6, [r7, #-4]!
    2bc4:	2604      	movs	r6, #4
    2bc6:	f7fe ffab 	bl	1b20 <Code_410>
    2bca:	3b01      	subs	r3, #1
    2bcc:	d008      	beq.n	2be0 <gemeinsame_schleifenoptimierung+0x2e>
    2bce:	f847 6d04 	str.w	r6, [r7, #-4]!
    2bd2:	2605      	movs	r6, #5
    2bd4:	f7fe ffa4 	bl	1b20 <Code_410>
    2bd8:	3b01      	subs	r3, #1
    2bda:	f000 fc24 	bl	3426 <konstantenschreiben>
    2bde:	bd00      	pop	{pc}
    2be0:	f847 6d04 	str.w	r6, [r7, #-4]!
    2be4:	2635      	movs	r6, #53	; 0x35
    2be6:	f7ff fabc 	bl	2162 <Code_528>
    2bea:	f847 6d04 	str.w	r6, [r7, #-4]!
    2bee:	f64c 7640 	movw	r6, #53056	; 0xcf40
    2bf2:	f7ff fab6 	bl	2162 <Code_528>
    2bf6:	f000 fc16 	bl	3426 <konstantenschreiben>
    2bfa:	bd00      	pop	{pc}

00002bfc <Dictionary_743>:
    2bfc:	00002c16 	andeq	r2, r0, r6, lsl ip
    2c00:	63040030 	movwvs	r0, #16432	; 0x4030
    2c04:	00657361 	rsbeq	r7, r5, r1, ror #6

00002c08 <Code_743>:
    2c08:	f847 6d04 	str.w	r6, [r7, #-4]!
    2c0c:	2600      	movs	r6, #0
    2c0e:	f847 6d04 	str.w	r6, [r7, #-4]!
    2c12:	2608      	movs	r6, #8
    2c14:	4770      	bx	lr

00002c16 <Dictionary_748>:
    2c16:	00002c2c 	andeq	r2, r0, ip, lsr #24
    2c1a:	3f030030 	svccc	0x00030030
    2c1e:	486d666f 	stmdami	sp!, {r0, r1, r2, r3, r5, r6, r9, sl, sp, lr}^

00002c20 <Code_748>:
    2c20:	486d      	ldr	r0, [pc, #436]	; (2dd8 <Code_784+0x60>)
    2c22:	e009      	b.n	2c38 <of_inneneinsprung>

00002c24 <struktur_qof>:
    2c24:	3e01      	subs	r6, #1
    2c26:	41b6      	sbcs	r6, r6
    2c28:	cf40      	ldmia	r7!, {r6}
    2c2a:	4770      	bx	lr

00002c2c <Dictionary_750>:
    2c2c:	00002cd0 	ldrdeq	r2, [r0], -r0
    2c30:	6f020078 	svcvs	0x00020078
    2c34:	48690066 	stmdami	r9!, {r1, r2, r5, r6}^

00002c36 <Code_750>:
    2c36:	4869      	ldr	r0, [pc, #420]	; (2ddc <Code_784+0x64>)

00002c38 <of_inneneinsprung>:
    2c38:	2e08      	cmp	r6, #8
    2c3a:	d000      	beq.n	2c3e <of_inneneinsprung+0x6>
    2c3c:	e667      	b.n	290e <strukturen_passen_nicht>
    2c3e:	cf40      	ldmia	r7!, {r6}
    2c40:	b500      	push	{lr}
    2c42:	f847 6d04 	str.w	r6, [r7, #-4]!
    2c46:	0006      	movs	r6, r0
    2c48:	f7ff f89e 	bl	1d88 <Code_453>

00002c4c <of_opcodiereinsprung>:
    2c4c:	f7ff fe2e 	bl	28ac <branch_v>
    2c50:	6839      	ldr	r1, [r7, #0]
    2c52:	603e      	str	r6, [r7, #0]
    2c54:	460e      	mov	r6, r1
    2c56:	3601      	adds	r6, #1
    2c58:	f847 6d04 	str.w	r6, [r7, #-4]!
    2c5c:	2609      	movs	r6, #9
    2c5e:	f847 6d04 	str.w	r6, [r7, #-4]!
    2c62:	f64c 7640 	movw	r6, #53056	; 0xcf40
    2c66:	f7ff fa7c 	bl	2162 <Code_528>
    2c6a:	bd00      	pop	{pc}
    2c6c:	b500      	push	{lr}
    2c6e:	0030      	movs	r0, r6
    2c70:	cf40      	ldmia	r7!, {r6}
    2c72:	3b01      	subs	r3, #1
    2c74:	b401      	push	{r0}
    2c76:	f000 fbd6 	bl	3426 <konstantenschreiben>
    2c7a:	bc01      	pop	{r0}
    2c7c:	2e08      	cmp	r6, #8
    2c7e:	d000      	beq.n	2c82 <of_opcodiereinsprung+0x36>
    2c80:	e645      	b.n	290e <strukturen_passen_nicht>
    2c82:	cf40      	ldmia	r7!, {r6}
    2c84:	f847 6d04 	str.w	r6, [r7, #-4]!
    2c88:	0006      	movs	r6, r0
    2c8a:	21ff      	movs	r1, #255	; 0xff
    2c8c:	4031      	ands	r1, r6
    2c8e:	42b1      	cmp	r1, r6
    2c90:	d104      	bne.n	2c9c <of_opcodiereinsprung+0x50>
    2c92:	4953      	ldr	r1, [pc, #332]	; (2de0 <Code_784+0x68>)
    2c94:	430e      	orrs	r6, r1
    2c96:	f7ff fa64 	bl	2162 <Code_528>
    2c9a:	e7d7      	b.n	2c4c <of_opcodiereinsprung>
    2c9c:	f7fe fe8c 	bl	19b8 <Code_401>
    2ca0:	2e00      	cmp	r6, #0
    2ca2:	cf40      	ldmia	r7!, {r6}
    2ca4:	d004      	beq.n	2cb0 <of_opcodiereinsprung+0x64>
    2ca6:	484f      	ldr	r0, [pc, #316]	; (2de4 <Code_784+0x6c>)
    2ca8:	4306      	orrs	r6, r0
    2caa:	f7ff fa82 	bl	21b2 <Code_537>
    2cae:	e7cd      	b.n	2c4c <of_opcodiereinsprung>
    2cb0:	f847 6d04 	str.w	r6, [r7, #-4]!
    2cb4:	2600      	movs	r6, #0
    2cb6:	f7fe ff33 	bl	1b20 <Code_410>
    2cba:	f847 6d04 	str.w	r6, [r7, #-4]!
    2cbe:	f244 26b0 	movw	r6, #17072	; 0x42b0
    2cc2:	f7ff fa4e 	bl	2162 <Code_528>
    2cc6:	e7c1      	b.n	2c4c <of_opcodiereinsprung>

00002cc8 <struktur_of>:
    2cc8:	0030      	movs	r0, r6
    2cca:	cf40      	ldmia	r7!, {r6}
    2ccc:	42b0      	cmp	r0, r6
    2cce:	4770      	bx	lr

00002cd0 <Dictionary_769>:
    2cd0:	00002d06 	andeq	r2, r0, r6, lsl #26
    2cd4:	65050030 	strvs	r0, [r5, #-48]	; 0x30
    2cd8:	666f646e 	strbtvs	r6, [pc], -lr, ror #8

00002cdc <Code_769>:
    2cdc:	2e09      	cmp	r6, #9
    2cde:	d000      	beq.n	2ce2 <Code_769+0x6>
    2ce0:	e615      	b.n	290e <strukturen_passen_nicht>
    2ce2:	cf40      	ldmia	r7!, {r6}
    2ce4:	b500      	push	{lr}
    2ce6:	b440      	push	{r6}
    2ce8:	cf40      	ldmia	r7!, {r6}
    2cea:	f7ff fddf 	bl	28ac <branch_v>
    2cee:	6839      	ldr	r1, [r7, #0]
    2cf0:	603e      	str	r6, [r7, #0]
    2cf2:	460e      	mov	r6, r1
    2cf4:	f7ff fdf3 	bl	28de <v_casebranch>
    2cf8:	f847 6d04 	str.w	r6, [r7, #-4]!
    2cfc:	bc40      	pop	{r6}
    2cfe:	f847 6d04 	str.w	r6, [r7, #-4]!
    2d02:	2608      	movs	r6, #8
    2d04:	bd00      	pop	{pc}

00002d06 <Dictionary_777>:
    2d06:	00002d58 	andeq	r2, r0, r8, asr sp
    2d0a:	65070030 	strvs	r0, [r7, #-48]	; 0x30
    2d0e:	6163646e 	cmnvs	r3, lr, ror #8
    2d12:	2e086573 	cfrshl64cs	mvdx8, mvdx3, r6

00002d14 <Code_777>:
    2d14:	2e08      	cmp	r6, #8
    2d16:	d000      	beq.n	2d1a <Code_777+0x6>
    2d18:	e5f9      	b.n	290e <strukturen_passen_nicht>
    2d1a:	cf40      	ldmia	r7!, {r6}
    2d1c:	b500      	push	{lr}
    2d1e:	f847 6d04 	str.w	r6, [r7, #-4]!
    2d22:	f64c 7640 	movw	r6, #53056	; 0xcf40
    2d26:	f7ff fa1c 	bl	2162 <Code_528>
    2d2a:	f000 f801 	bl	2d30 <spruenge_einpflegen>
    2d2e:	bd00      	pop	{pc}

00002d30 <spruenge_einpflegen>:
    2d30:	b500      	push	{lr}
    2d32:	0030      	movs	r0, r6
    2d34:	cf40      	ldmia	r7!, {r6}
    2d36:	2800      	cmp	r0, #0
    2d38:	d00d      	beq.n	2d56 <spruenge_einpflegen+0x26>
    2d3a:	b403      	push	{r0, r1}
    2d3c:	2101      	movs	r1, #1
    2d3e:	4031      	ands	r1, r6
    2d40:	2900      	cmp	r1, #0
    2d42:	d003      	beq.n	2d4c <spruenge_einpflegen+0x1c>
    2d44:	3e01      	subs	r6, #1
    2d46:	f7ff fdc0 	bl	28ca <v_nullbranch>
    2d4a:	e001      	b.n	2d50 <spruenge_einpflegen+0x20>
    2d4c:	f7ff fdb7 	bl	28be <v_branch>
    2d50:	bc03      	pop	{r0, r1}
    2d52:	3801      	subs	r0, #1
    2d54:	e7ef      	b.n	2d36 <spruenge_einpflegen+0x6>
    2d56:	bd00      	pop	{pc}

00002d58 <Dictionary_782>:
    2d58:	00002d6c 	andeq	r2, r0, ip, ror #26
    2d5c:	74050000 	strvc	r0, [r5]
    2d60:	6e656b6f 	vnmulvs.f64	d22, d5, d31

00002d64 <Code_782>:
    2d64:	f847 6d04 	str.w	r6, [r7, #-4]!
    2d68:	2620      	movs	r6, #32
    2d6a:	e005      	b.n	2d78 <Code_784>

00002d6c <Dictionary_784>:
    2d6c:	00002dec 	andeq	r2, r0, ip, ror #27
    2d70:	70050000 	andvc	r0, r5, r0
    2d74:	65737261 	ldrbvs	r7, [r3, #-609]!	; 0x261

00002d78 <Code_784>:
    2d78:	b510      	push	{r4, lr}
    2d7a:	f7fe fc22 	bl	15c2 <Code_309>
    2d7e:	0031      	movs	r1, r6
    2d80:	cf40      	ldmia	r7!, {r6}
    2d82:	0030      	movs	r0, r6
    2d84:	cf40      	ldmia	r7!, {r6}
    2d86:	4a18      	ldr	r2, [pc, #96]	; (2de8 <Code_784+0x70>)
    2d88:	6812      	ldr	r2, [r2, #0]
    2d8a:	1884      	adds	r4, r0, r2
    2d8c:	2e20      	cmp	r6, #32
    2d8e:	d107      	bne.n	2da0 <Code_784+0x28>
    2d90:	4291      	cmp	r1, r2
    2d92:	d00f      	beq.n	2db4 <Code_784+0x3c>
    2d94:	5c83      	ldrb	r3, [r0, r2]
    2d96:	42b3      	cmp	r3, r6
    2d98:	d102      	bne.n	2da0 <Code_784+0x28>
    2d9a:	3201      	adds	r2, #1
    2d9c:	1884      	adds	r4, r0, r2
    2d9e:	e7f7      	b.n	2d90 <Code_784+0x18>
    2da0:	4291      	cmp	r1, r2
    2da2:	d007      	beq.n	2db4 <Code_784+0x3c>
    2da4:	5c83      	ldrb	r3, [r0, r2]
    2da6:	3201      	adds	r2, #1
    2da8:	42b3      	cmp	r3, r6
    2daa:	d1f9      	bne.n	2da0 <Code_784+0x28>
    2dac:	1886      	adds	r6, r0, r2
    2dae:	1b36      	subs	r6, r6, r4
    2db0:	3e01      	subs	r6, #1
    2db2:	e001      	b.n	2db8 <Code_784+0x40>
    2db4:	1886      	adds	r6, r0, r2
    2db6:	1b36      	subs	r6, r6, r4
    2db8:	3f04      	subs	r7, #4
    2dba:	603c      	str	r4, [r7, #0]
    2dbc:	480a      	ldr	r0, [pc, #40]	; (2de8 <Code_784+0x70>)
    2dbe:	6002      	str	r2, [r0, #0]
    2dc0:	bd10      	pop	{r4, pc}
    2dc2:	000c0000 	andeq	r0, ip, r0
    2dc6:	2ac62000 	bcs	ff18adce <BIT31+0x7f18adce>
    2dca:	2b140000 	blcs	502dd2 <BIT22+0x102dd2>
    2dce:	2a9c0000 	bcs	fe702dd6 <BIT31+0x7e702dd6>
    2dd2:	2b560000 	blcs	1582dda <BIT24+0x582dda>
    2dd6:	2c240000 	stccs	0, cr0, [r4]
    2dda:	2cc80000 	stclcs	0, cr0, [r8], {0}
    2dde:	2e000000 	cdpcs	0, 0, cr0, cr0, cr0, {0}
    2de2:	0f000000 	svceq	0x00000000
    2de6:	9fe4f1b6 	svcls	0x00e4f1b6
    2dea:	2e2a2000 	cdpcs	0, 2, cr2, cr10, cr0, {0}

00002dec <Dictionary_787>:
    2dec:	00002e2a 	andeq	r2, r0, sl, lsr #28
    2df0:	64050000 	strvs	r0, [r5]
    2df4:	74696769 	strbtvc	r6, [r9], #-1897	; 0x769

00002df8 <Code_787>:
    2df8:	4bcf      	ldr	r3, [pc, #828]	; (3138 <Code_850+0xa>)
    2dfa:	681b      	ldr	r3, [r3, #0]

00002dfc <digit_base_r3>:
    2dfc:	3e30      	subs	r6, #48	; 0x30
    2dfe:	d30b      	bcc.n	2e18 <digit_base_r3+0x1c>
    2e00:	2e0a      	cmp	r6, #10
    2e02:	d30b      	bcc.n	2e1c <digit_base_r3+0x20>
    2e04:	3e07      	subs	r6, #7
    2e06:	2e0a      	cmp	r6, #10
    2e08:	d306      	bcc.n	2e18 <digit_base_r3+0x1c>
    2e0a:	2e24      	cmp	r6, #36	; 0x24
    2e0c:	d306      	bcc.n	2e1c <digit_base_r3+0x20>
    2e0e:	3e20      	subs	r6, #32
    2e10:	2e0a      	cmp	r6, #10
    2e12:	d301      	bcc.n	2e18 <digit_base_r3+0x1c>
    2e14:	2e24      	cmp	r6, #36	; 0x24
    2e16:	d301      	bcc.n	2e1c <digit_base_r3+0x20>
    2e18:	2600      	movs	r6, #0
    2e1a:	4770      	bx	lr
    2e1c:	429e      	cmp	r6, r3
    2e1e:	d2fb      	bcs.n	2e18 <digit_base_r3+0x1c>
    2e20:	f847 6d04 	str.w	r6, [r7, #-4]!
    2e24:	2600      	movs	r6, #0
    2e26:	43f6      	mvns	r6, r6
    2e28:	4770      	bx	lr

00002e2a <Dictionary_789>:
    2e2a:	00002f34 	andeq	r2, r0, r4, lsr pc
    2e2e:	6e060000 	cdpvs	0, 0, cr0, cr6, cr0, {0}
    2e32:	65626d75 	strbvs	r6, [r2, #-3445]!	; 0xd75
    2e36:	b53f0072 	ldrlt	r0, [pc, #-114]!	; 2dcc <Code_784+0x54>

00002e38 <Code_789>:
    2e38:	b53f      	push	{r0, r1, r2, r3, r4, r5, lr}
    2e3a:	0031      	movs	r1, r6
    2e3c:	cf40      	ldmia	r7!, {r6}
    2e3e:	1e70      	subs	r0, r6, #1
    2e40:	2601      	movs	r6, #1
    2e42:	2201      	movs	r2, #1
    2e44:	b404      	push	{r2}
    2e46:	4bbc      	ldr	r3, [pc, #752]	; (3138 <Code_850+0xa>)
    2e48:	681b      	ldr	r3, [r3, #0]
    2e4a:	2400      	movs	r4, #0
    2e4c:	2500      	movs	r5, #0
    2e4e:	2900      	cmp	r1, #0
    2e50:	d03c      	beq.n	2ecc <Code_789+0x94>
    2e52:	3001      	adds	r0, #1
    2e54:	3901      	subs	r1, #1
    2e56:	7802      	ldrb	r2, [r0, #0]
    2e58:	2a2d      	cmp	r2, #45	; 0x2d
    2e5a:	d104      	bne.n	2e66 <Code_789+0x2e>
    2e5c:	b001      	add	sp, #4
    2e5e:	2200      	movs	r2, #0
    2e60:	43d2      	mvns	r2, r2
    2e62:	b404      	push	{r2}
    2e64:	e7f3      	b.n	2e4e <Code_789+0x16>
    2e66:	2a23      	cmp	r2, #35	; 0x23
    2e68:	d101      	bne.n	2e6e <Code_789+0x36>
    2e6a:	230a      	movs	r3, #10
    2e6c:	e7ef      	b.n	2e4e <Code_789+0x16>
    2e6e:	2a24      	cmp	r2, #36	; 0x24
    2e70:	d101      	bne.n	2e76 <Code_789+0x3e>
    2e72:	2310      	movs	r3, #16
    2e74:	e7eb      	b.n	2e4e <Code_789+0x16>
    2e76:	2a25      	cmp	r2, #37	; 0x25
    2e78:	d101      	bne.n	2e7e <Code_789+0x46>
    2e7a:	2302      	movs	r3, #2
    2e7c:	e7e7      	b.n	2e4e <Code_789+0x16>
    2e7e:	2a2e      	cmp	r2, #46	; 0x2e
    2e80:	d101      	bne.n	2e86 <Code_789+0x4e>
    2e82:	2602      	movs	r6, #2
    2e84:	e7e3      	b.n	2e4e <Code_789+0x16>
    2e86:	2a2c      	cmp	r2, #44	; 0x2c
    2e88:	d036      	beq.n	2ef8 <number_nachkommastellen>
    2e8a:	f847 6d04 	str.w	r6, [r7, #-4]!
    2e8e:	0016      	movs	r6, r2
    2e90:	f7ff ffb4 	bl	2dfc <digit_base_r3>
    2e94:	2e00      	cmp	r6, #0
    2e96:	cf40      	ldmia	r7!, {r6}
    2e98:	d02b      	beq.n	2ef2 <Code_789+0xba>
    2e9a:	f847 6d04 	str.w	r6, [r7, #-4]!
    2e9e:	0026      	movs	r6, r4
    2ea0:	f847 6d04 	str.w	r6, [r7, #-4]!
    2ea4:	002e      	movs	r6, r5
    2ea6:	f847 6d04 	str.w	r6, [r7, #-4]!
    2eaa:	001e      	movs	r6, r3
    2eac:	f847 6d04 	str.w	r6, [r7, #-4]!
    2eb0:	2600      	movs	r6, #0
    2eb2:	b40f      	push	{r0, r1, r2, r3}
    2eb4:	f7fd fa94 	bl	3e0 <Code_49>
    2eb8:	bc0f      	pop	{r0, r1, r2, r3}
    2eba:	0035      	movs	r5, r6
    2ebc:	cf40      	ldmia	r7!, {r6}
    2ebe:	0034      	movs	r4, r6
    2ec0:	cf40      	ldmia	r7!, {r6}
    2ec2:	2200      	movs	r2, #0
    2ec4:	19a4      	adds	r4, r4, r6
    2ec6:	4155      	adcs	r5, r2
    2ec8:	cf40      	ldmia	r7!, {r6}
    2eca:	e7c0      	b.n	2e4e <Code_789+0x16>
    2ecc:	bc04      	pop	{r2}
    2ece:	2a00      	cmp	r2, #0
    2ed0:	d504      	bpl.n	2edc <Code_789+0xa4>
    2ed2:	2200      	movs	r2, #0
    2ed4:	43e4      	mvns	r4, r4
    2ed6:	43ed      	mvns	r5, r5
    2ed8:	3401      	adds	r4, #1
    2eda:	4155      	adcs	r5, r2
    2edc:	0033      	movs	r3, r6
    2ede:	0026      	movs	r6, r4
    2ee0:	2b01      	cmp	r3, #1
    2ee2:	d002      	beq.n	2eea <Code_789+0xb2>
    2ee4:	f847 6d04 	str.w	r6, [r7, #-4]!
    2ee8:	002e      	movs	r6, r5
    2eea:	f847 6d04 	str.w	r6, [r7, #-4]!
    2eee:	001e      	movs	r6, r3
    2ef0:	bd3f      	pop	{r0, r1, r2, r3, r4, r5, pc}
    2ef2:	b001      	add	sp, #4
    2ef4:	2600      	movs	r6, #0
    2ef6:	bd3f      	pop	{r0, r1, r2, r3, r4, r5, pc}

00002ef8 <number_nachkommastellen>:
    2ef8:	0025      	movs	r5, r4
    2efa:	2400      	movs	r4, #0
    2efc:	2602      	movs	r6, #2
    2efe:	2900      	cmp	r1, #0
    2f00:	d0e4      	beq.n	2ecc <Code_789+0x94>
    2f02:	5c42      	ldrb	r2, [r0, r1]
    2f04:	3901      	subs	r1, #1
    2f06:	2a2e      	cmp	r2, #46	; 0x2e
    2f08:	d0f9      	beq.n	2efe <number_nachkommastellen+0x6>
    2f0a:	f847 6d04 	str.w	r6, [r7, #-4]!
    2f0e:	0016      	movs	r6, r2
    2f10:	f7ff ff74 	bl	2dfc <digit_base_r3>
    2f14:	2e00      	cmp	r6, #0
    2f16:	cf40      	ldmia	r7!, {r6}
    2f18:	d0eb      	beq.n	2ef2 <Code_789+0xba>
    2f1a:	3f04      	subs	r7, #4
    2f1c:	603c      	str	r4, [r7, #0]
    2f1e:	f847 6d04 	str.w	r6, [r7, #-4]!
    2f22:	001e      	movs	r6, r3
    2f24:	b40f      	push	{r0, r1, r2, r3}
    2f26:	f7fd fb0a 	bl	53e <Code_85>
    2f2a:	bc0f      	pop	{r0, r1, r2, r3}
    2f2c:	0034      	movs	r4, r6
    2f2e:	cf40      	ldmia	r7!, {r6}
    2f30:	cf40      	ldmia	r7!, {r6}
    2f32:	e7e4      	b.n	2efe <number_nachkommastellen+0x6>

00002f34 <Dictionary_816>:
    2f34:	00002f56 	andeq	r2, r0, r6, asr pc
    2f38:	2e060000 	cdpcs	0, 0, cr0, cr6, cr0, {0}
    2f3c:	69676964 	stmdbvs	r7!, {r2, r5, r6, r8, fp, sp, lr}^
    2f40:	2e0a0074 	mcrcs	0, 0, r0, cr10, cr4, {3}

00002f42 <Code_816>:
    2f42:	2e0a      	cmp	r6, #10
    2f44:	d201      	bcs.n	2f4a <Code_816+0x8>
    2f46:	3630      	adds	r6, #48	; 0x30
    2f48:	4770      	bx	lr
    2f4a:	2e24      	cmp	r6, #36	; 0x24
    2f4c:	d201      	bcs.n	2f52 <Code_816+0x10>
    2f4e:	3637      	adds	r6, #55	; 0x37
    2f50:	4770      	bx	lr
    2f52:	2623      	movs	r6, #35	; 0x23
    2f54:	4770      	bx	lr

00002f56 <Dictionary_817>:
    2f56:	00002f8c 	andeq	r2, r0, ip, lsl #31
    2f5a:	68040000 	stmdavs	r4, {}	; <UNPREDICTABLE>
    2f5e:	00646c6f 	rsbeq	r6, r4, pc, ror #24

00002f62 <Code_817>:
    2f62:	0033      	movs	r3, r6
    2f64:	cf40      	ldmia	r7!, {r6}
    2f66:	4875      	ldr	r0, [pc, #468]	; (313c <Code_850+0xe>)
    2f68:	7801      	ldrb	r1, [r0, #0]
    2f6a:	293f      	cmp	r1, #63	; 0x3f
    2f6c:	d20d      	bcs.n	2f8a <Code_817+0x28>
    2f6e:	3101      	adds	r1, #1
    2f70:	7001      	strb	r1, [r0, #0]
    2f72:	1840      	adds	r0, r0, r1
    2f74:	2901      	cmp	r1, #1
    2f76:	d007      	beq.n	2f88 <Code_817+0x26>
    2f78:	3801      	subs	r0, #1
    2f7a:	7802      	ldrb	r2, [r0, #0]
    2f7c:	3001      	adds	r0, #1
    2f7e:	7002      	strb	r2, [r0, #0]
    2f80:	3801      	subs	r0, #1
    2f82:	3901      	subs	r1, #1
    2f84:	2901      	cmp	r1, #1
    2f86:	d1f7      	bne.n	2f78 <Code_817+0x16>
    2f88:	7003      	strb	r3, [r0, #0]
    2f8a:	4770      	bx	lr

00002f8c <Dictionary_819>:
    2f8c:	00002fac 	andeq	r2, r0, ip, lsr #31
    2f90:	68050000 	stmdavs	r5, {}	; <UNPREDICTABLE>
    2f94:	3c646c6f 	stclcc	12, cr6, [r4], #-444	; 0xfffffe44

00002f98 <Code_819>:
    2f98:	0033      	movs	r3, r6
    2f9a:	cf40      	ldmia	r7!, {r6}
    2f9c:	4867      	ldr	r0, [pc, #412]	; (313c <Code_850+0xe>)
    2f9e:	7801      	ldrb	r1, [r0, #0]
    2fa0:	293f      	cmp	r1, #63	; 0x3f
    2fa2:	d202      	bcs.n	2faa <Code_819+0x12>
    2fa4:	3101      	adds	r1, #1
    2fa6:	7001      	strb	r1, [r0, #0]
    2fa8:	5443      	strb	r3, [r0, r1]
    2faa:	4770      	bx	lr

00002fac <Dictionary_821>:
    2fac:	00002fc4 	andeq	r2, r0, r4, asr #31
    2fb0:	73040000 	movwvc	r0, #16384	; 0x4000
    2fb4:	006e6769 	rsbeq	r6, lr, r9, ror #14

00002fb8 <Code_821>:
    2fb8:	2e00      	cmp	r6, #0
    2fba:	d401      	bmi.n	2fc0 <Code_821+0x8>
    2fbc:	cf40      	ldmia	r7!, {r6}
    2fbe:	4770      	bx	lr
    2fc0:	262d      	movs	r6, #45	; 0x2d
    2fc2:	e7ce      	b.n	2f62 <Code_817>

00002fc4 <Dictionary_823>:
    2fc4:	00002fd8 	ldrdeq	r2, [r0], -r8
    2fc8:	23020000 	movwcs	r0, #8192	; 0x2000
    2fcc:	485b003e 	ldmdami	fp, {r1, r2, r3, r4, r5}^

00002fce <Code_823>:
    2fce:	485b      	ldr	r0, [pc, #364]	; (313c <Code_850+0xe>)
    2fd0:	7806      	ldrb	r6, [r0, #0]
    2fd2:	3001      	adds	r0, #1
    2fd4:	6038      	str	r0, [r7, #0]
    2fd6:	4770      	bx	lr

00002fd8 <Dictionary_824>:
    2fd8:	00002ff0 	strdeq	r2, [r0], -r0
    2fdc:	66030000 	strvs	r0, [r3], -r0
    2fe0:	b5105323 	ldrlt	r5, [r0, #-803]	; 0x323

00002fe2 <Code_824>:
    2fe2:	b510      	push	{r4, lr}
    2fe4:	2420      	movs	r4, #32
    2fe6:	f000 f808 	bl	2ffa <Code_825>
    2fea:	3c01      	subs	r4, #1
    2fec:	d1fb      	bne.n	2fe6 <Code_824+0x4>
    2fee:	bd10      	pop	{r4, pc}

00002ff0 <Dictionary_825>:
    2ff0:	00003012 	andeq	r3, r0, r2, lsl r0
    2ff4:	66020000 	strvs	r0, [r2], -r0
    2ff8:	b5000023 	strlt	r0, [r0, #-35]	; 0x23

00002ffa <Code_825>:
    2ffa:	b500      	push	{lr}
    2ffc:	f847 6d04 	str.w	r6, [r7, #-4]!
    3000:	4e4d      	ldr	r6, [pc, #308]	; (3138 <Code_850+0xa>)
    3002:	6836      	ldr	r6, [r6, #0]
    3004:	f7fd f9d8 	bl	3b8 <Code_47>
    3008:	f7ff ff9b 	bl	2f42 <Code_816>
    300c:	f7ff ffc4 	bl	2f98 <Code_819>
    3010:	bd00      	pop	{pc}

00003012 <Dictionary_827>:
    3012:	0000302e 	andeq	r3, r0, lr, lsr #32
    3016:	23020000 	movwcs	r0, #8192	; 0x2000
    301a:	b5000053 	strlt	r0, [r0, #-83]	; 0x53

0000301c <Code_827>:
    301c:	b500      	push	{lr}
    301e:	f000 f80a 	bl	3036 <Code_828>
    3022:	2e00      	cmp	r6, #0
    3024:	d1fb      	bne.n	301e <Code_827+0x2>
    3026:	6838      	ldr	r0, [r7, #0]
    3028:	2800      	cmp	r0, #0
    302a:	d1f8      	bne.n	301e <Code_827+0x2>
    302c:	bd00      	pop	{pc}

0000302e <Dictionary_828>:
    302e:	0000305a 	andeq	r3, r0, sl, asr r0
    3032:	23010000 	movwcs	r0, #4096	; 0x1000

00003036 <Code_828>:
    3036:	b500      	push	{lr}
    3038:	f847 6d04 	str.w	r6, [r7, #-4]!
    303c:	4e3e      	ldr	r6, [pc, #248]	; (3138 <Code_850+0xa>)
    303e:	6836      	ldr	r6, [r6, #0]
    3040:	f847 6d04 	str.w	r6, [r7, #-4]!
    3044:	2600      	movs	r6, #0
    3046:	f7fd fa99 	bl	57c <Code_94>
    304a:	f7fd f8cb 	bl	1e4 <Code_21>
    304e:	cf40      	ldmia	r7!, {r6}
    3050:	f7ff ff77 	bl	2f42 <Code_816>
    3054:	f7ff ff85 	bl	2f62 <Code_817>
    3058:	bd00      	pop	{pc}

0000305a <Dictionary_833>:
    305a:	0000306c 	andeq	r3, r0, ip, rrx
    305e:	3c020000 	stccc	0, cr0, [r2], {0}
    3062:	48350023 	ldmdami	r5!, {r0, r1, r5}

00003064 <Code_833>:
    3064:	4835      	ldr	r0, [pc, #212]	; (313c <Code_850+0xe>)
    3066:	2100      	movs	r1, #0
    3068:	7001      	strb	r1, [r0, #0]
    306a:	4770      	bx	lr

0000306c <Dictionary_834>:
    306c:	0000307e 	andeq	r3, r0, lr, ror r0
    3070:	66020000 	strvs	r0, [r2], -r0
    3074:	f847002e 			; <UNDEFINED> instruction: 0xf847002e

00003076 <Code_834>:
    3076:	f847 6d04 	str.w	r6, [r7, #-4]!
    307a:	2620      	movs	r6, #32
    307c:	e004      	b.n	3088 <Code_837>

0000307e <Dictionary_837>:
    307e:	000030cc 	andeq	r3, r0, ip, asr #1
    3082:	66030000 	strvs	r0, [r3], -r0
    3086:	b5006e2e 	strlt	r6, [r0, #-3630]	; 0xe2e

00003088 <Code_837>:
    3088:	b500      	push	{lr}
    308a:	b410      	push	{r4}
    308c:	0034      	movs	r4, r6
    308e:	cf40      	ldmia	r7!, {r6}
    3090:	f7fd fc03 	bl	89a <Code_131>
    3094:	f7fd f959 	bl	34a <Code_41>
    3098:	f847 6d04 	str.w	r6, [r7, #-4]!
    309c:	2600      	movs	r6, #0
    309e:	f7ff ffe1 	bl	3064 <Code_833>
    30a2:	f7ff ffbb 	bl	301c <Code_827>
    30a6:	cf40      	ldmia	r7!, {r6}
    30a8:	262c      	movs	r6, #44	; 0x2c
    30aa:	f7ff ff75 	bl	2f98 <Code_819>
    30ae:	2c00      	cmp	r4, #0
    30b0:	d003      	beq.n	30ba <Code_837+0x32>
    30b2:	f7ff ffa2 	bl	2ffa <Code_825>
    30b6:	3c01      	subs	r4, #1
    30b8:	d1fb      	bne.n	30b2 <Code_837+0x2a>
    30ba:	bc10      	pop	{r4}
    30bc:	cf40      	ldmia	r7!, {r6}
    30be:	f7ff ff7b 	bl	2fb8 <Code_821>
    30c2:	f847 6d04 	str.w	r6, [r7, #-4]!
    30c6:	f847 6d04 	str.w	r6, [r7, #-4]!
    30ca:	e01c      	b.n	3106 <abschluss_zahlenausgabe>

000030cc <Dictionary_845>:
    30cc:	000030e2 	andeq	r3, r0, r2, ror #1
    30d0:	75030000 	strvc	r0, [r3]
    30d4:	b5002e64 	strlt	r2, [r0, #-3684]	; 0xe64

000030d6 <Code_845>:
    30d6:	b500      	push	{lr}
    30d8:	f7ff ffc4 	bl	3064 <Code_833>
    30dc:	f7ff ff9e 	bl	301c <Code_827>
    30e0:	e011      	b.n	3106 <abschluss_zahlenausgabe>

000030e2 <Dictionary_846>:
    30e2:	00003114 	andeq	r3, r0, r4, lsl r1
    30e6:	64020000 	strvs	r0, [r2]
    30ea:	b500002e 	strlt	r0, [r0, #-46]	; 0x2e

000030ec <Code_846>:
    30ec:	b500      	push	{lr}
    30ee:	f7fd fbd4 	bl	89a <Code_131>
    30f2:	f7fd f92a 	bl	34a <Code_41>
    30f6:	f7ff ffb5 	bl	3064 <Code_833>
    30fa:	f7ff ff8f 	bl	301c <Code_827>
    30fe:	f7fd fbd6 	bl	8ae <Code_132>
    3102:	f7ff ff59 	bl	2fb8 <Code_821>

00003106 <abschluss_zahlenausgabe>:
    3106:	f7ff ff62 	bl	2fce <Code_823>
    310a:	f7fe fb6c 	bl	17e6 <Code_361>
    310e:	f7fe fabd 	bl	168c <Code_326>
    3112:	bd00      	pop	{pc}

00003114 <Dictionary_847>:
    3114:	00003126 	andeq	r3, r0, r6, lsr #2
    3118:	75020000 	strvc	r0, [r2]
    311c:	f847002e 			; <UNDEFINED> instruction: 0xf847002e

0000311e <Code_847>:
    311e:	f847 6d04 	str.w	r6, [r7, #-4]!
    3122:	2600      	movs	r6, #0
    3124:	e7d7      	b.n	30d6 <Code_845>

00003126 <Dictionary_850>:
    3126:	00003140 	andeq	r3, r0, r0, asr #2
    312a:	2e010000 	cdpcs	0, 0, cr0, cr1, cr0, {0}

0000312e <Code_850>:
    312e:	f847 6d04 	str.w	r6, [r7, #-4]!
    3132:	17f6      	asrs	r6, r6, #31
    3134:	e7da      	b.n	30ec <Code_846>
    3136:	9ffc0000 	svcls	0x00fc0000
    313a:	00282000 	eoreq	r2, r8, r0
    313e:	31882000 	orrcc	r2, r8, r0

00003140 <Dictionary_852>:
    3140:	00003188 	andeq	r3, r0, r8, lsl #3
    3144:	65080000 	strvs	r0, [r8]
    3148:	756c6176 	strbvc	r6, [ip, #-374]!	; 0x176
    314c:	00657461 	rsbeq	r7, r5, r1, ror #8

00003150 <Code_852>:
    3150:	b500      	push	{lr}
    3152:	f7fe fa36 	bl	15c2 <Code_309>
    3156:	cf01      	ldmia	r7!, {r0}
    3158:	b401      	push	{r0}
    315a:	b440      	push	{r6}
    315c:	cf40      	ldmia	r7!, {r6}
    315e:	48d4      	ldr	r0, [pc, #848]	; (34b0 <quit_innenschleife+0x14>)
    3160:	6801      	ldr	r1, [r0, #0]
    3162:	b402      	push	{r1}
    3164:	2100      	movs	r1, #0
    3166:	6001      	str	r1, [r0, #0]
    3168:	f7fe fa1e 	bl	15a8 <Code_307>
    316c:	f000 f814 	bl	3198 <Code_854>
    3170:	48cf      	ldr	r0, [pc, #828]	; (34b0 <quit_innenschleife+0x14>)
    3172:	bc02      	pop	{r1}
    3174:	6001      	str	r1, [r0, #0]
    3176:	f847 6d04 	str.w	r6, [r7, #-4]!
    317a:	bc40      	pop	{r6}
    317c:	bc01      	pop	{r0}
    317e:	3f04      	subs	r7, #4
    3180:	6038      	str	r0, [r7, #0]
    3182:	f7fe fa11 	bl	15a8 <Code_307>
    3186:	bd00      	pop	{pc}

00003188 <Dictionary_854>:
    3188:	0000344c 	andeq	r3, r0, ip, asr #8
    318c:	69090000 	stmdbvs	r9, {}	; <UNPREDICTABLE>
    3190:	7265746e 	rsbvc	r7, r5, #1845493760	; 0x6e000000
    3194:	74657270 	strbtvc	r7, [r5], #-624	; 0x270

00003198 <Code_854>:
    3198:	b530      	push	{r4, r5, lr}
    319a:	48c6      	ldr	r0, [pc, #792]	; (34b4 <quit_innenschleife+0x18>)
    319c:	4287      	cmp	r7, r0
    319e:	d90b      	bls.n	31b8 <Code_854+0x20>
    31a0:	f7fe fac5 	bl	172e <dotgaensefuesschen>
    31a4:	61745310 	cmnvs	r4, r0, lsl r3
    31a8:	75206b63 	strvc	r6, [r0, #-2915]!	; 0xb63
    31ac:	7265646e 	rsbvc	r6, r5, #1845493760	; 0x6e000000
    31b0:	776f6c66 	strbvc	r6, [pc, -r6, ror #24]!
    31b4:	e15d000a 	cmp	sp, sl
    31b8:	48bf      	ldr	r0, [pc, #764]	; (34b8 <quit_innenschleife+0x1c>)
    31ba:	4287      	cmp	r7, r0
    31bc:	d20a      	bcs.n	31d4 <Code_854+0x3c>
    31be:	f7fe fab6 	bl	172e <dotgaensefuesschen>
    31c2:	6174530f 	cmnvs	r4, pc, lsl #6
    31c6:	6f206b63 	svcvs	0x00206b63
    31ca:	66726576 			; <UNDEFINED> instruction: 0x66726576
    31ce:	0a776f6c 	beq	1ddef86 <BIT24+0xddef86>
    31d2:	e14f      	b.n	3474 <Code_909>
    31d4:	4cb9      	ldr	r4, [pc, #740]	; (34bc <quit_innenschleife+0x20>)
    31d6:	6825      	ldr	r5, [r4, #0]
    31d8:	2d00      	cmp	r5, #0
    31da:	d101      	bne.n	31e0 <Code_854+0x48>
    31dc:	003d      	movs	r5, r7
    31de:	6025      	str	r5, [r4, #0]
    31e0:	f7ff fdc0 	bl	2d64 <Code_782>
    31e4:	2e00      	cmp	r6, #0
    31e6:	d102      	bne.n	31ee <Code_854+0x56>
    31e8:	3704      	adds	r7, #4
    31ea:	cf40      	ldmia	r7!, {r6}
    31ec:	bd30      	pop	{r4, r5, pc}
    31ee:	6838      	ldr	r0, [r7, #0]
    31f0:	f847 6d04 	str.w	r6, [r7, #-4]!
    31f4:	3f04      	subs	r7, #4
    31f6:	6038      	str	r0, [r7, #0]
    31f8:	f7ff fa6f 	bl	26da <Code_622>
    31fc:	0031      	movs	r1, r6
    31fe:	cf40      	ldmia	r7!, {r6}
    3200:	0032      	movs	r2, r6
    3202:	cf40      	ldmia	r7!, {r6}
    3204:	2a00      	cmp	r2, #0
    3206:	d113      	bne.n	3230 <not_found_addr_r0_len_r1+0x18>
    3208:	6838      	ldr	r0, [r7, #0]
    320a:	0031      	movs	r1, r6
    320c:	f7ff fe14 	bl	2e38 <Code_789>
    3210:	0032      	movs	r2, r6
    3212:	cf40      	ldmia	r7!, {r6}
    3214:	2a00      	cmp	r2, #0
    3216:	d1c0      	bne.n	319a <Code_854+0x2>

00003218 <not_found_addr_r0_len_r1>:
    3218:	f7fe fae9 	bl	17ee <stype_addr_r0_len_r1>
    321c:	f7fe fa87 	bl	172e <dotgaensefuesschen>
    3220:	6f6e200c 	svcvs	0x006e200c
    3224:	6f662074 	svcvs	0x00662074
    3228:	2e646e75 	mcrcs	14, 3, r6, cr4, cr5, {3}
    322c:	e121000a 	teq	r1, sl
    3230:	4ba3      	ldr	r3, [pc, #652]	; (34c0 <quit_innenschleife+0x24>)
    3232:	681b      	ldr	r3, [r3, #0]
    3234:	2b00      	cmp	r3, #0
    3236:	d11d      	bne.n	3274 <.ausfuehren+0x12>
    3238:	2500      	movs	r5, #0
    323a:	6025      	str	r5, [r4, #0]
    323c:	2330      	movs	r3, #48	; 0x30
    323e:	400b      	ands	r3, r1
    3240:	2b30      	cmp	r3, #48	; 0x30
    3242:	d10e      	bne.n	3262 <.ausfuehren>
    3244:	f7fe facf 	bl	17e6 <Code_361>
    3248:	f7fe fa71 	bl	172e <dotgaensefuesschen>
    324c:	73692012 	cmnvc	r9, #18
    3250:	6d6f6320 	stclvs	3, cr6, [pc, #-128]!	; 31d8 <Code_854+0x40>
    3254:	656c6970 	strbvs	r6, [ip, #-2416]!	; 0x970
    3258:	6c6e6f2d 	stclvs	15, cr6, [lr], #-180	; 0xffffff4c
    325c:	000a2e79 	andeq	r2, sl, r9, ror lr
    3260:	e108      	b.n	3474 <Code_909>

00003262 <.ausfuehren>:
    3262:	3704      	adds	r7, #4
    3264:	cf40      	ldmia	r7!, {r6}
    3266:	f847 6d04 	str.w	r6, [r7, #-4]!
    326a:	0016      	movs	r6, r2
    326c:	f7fe fe2a 	bl	1ec4 <Code_475>
    3270:	f7ff ff93 	bl	319a <Code_854+0x2>
    3274:	3704      	adds	r7, #4
    3276:	cf40      	ldmia	r7!, {r6}
    3278:	2080      	movs	r0, #128	; 0x80
    327a:	4008      	ands	r0, r1
    327c:	d10e      	bne.n	329c <.interpret_faltoptimierung>
    327e:	1beb      	subs	r3, r5, r7
    3280:	089b      	lsrs	r3, r3, #2
    3282:	2040      	movs	r0, #64	; 0x40
    3284:	4008      	ands	r0, r1
    3286:	d00f      	beq.n	32a8 <.konstantenschleife>
    3288:	2008      	movs	r0, #8
    328a:	4008      	ands	r0, r1
    328c:	d002      	beq.n	3294 <.interpret_genugkonstanten>
    328e:	2b00      	cmp	r3, #0
    3290:	d000      	beq.n	3294 <.interpret_genugkonstanten>
    3292:	e01d      	b.n	32d0 <.interpret_opcodierbar>

00003294 <.interpret_genugkonstanten>:
    3294:	200f      	movs	r0, #15
    3296:	4008      	ands	r0, r1
    3298:	4283      	cmp	r3, r0
    329a:	d305      	bcc.n	32a8 <.konstantenschleife>

0000329c <.interpret_faltoptimierung>:
    329c:	f847 6d04 	str.w	r6, [r7, #-4]!
    32a0:	0016      	movs	r6, r2
    32a2:	f7fe fe0f 	bl	1ec4 <Code_475>
    32a6:	e778      	b.n	319a <Code_854+0x2>

000032a8 <.konstantenschleife>:
    32a8:	f000 f8bd 	bl	3426 <konstantenschreiben>
    32ac:	f847 6d04 	str.w	r6, [r7, #-4]!
    32b0:	0016      	movs	r6, r2
    32b2:	2210      	movs	r2, #16
    32b4:	400a      	ands	r2, r1
    32b6:	d002      	beq.n	32be <.konstantenschleife+0x16>
    32b8:	f7fe fe04 	bl	1ec4 <Code_475>
    32bc:	e76d      	b.n	319a <Code_854+0x2>
    32be:	2220      	movs	r2, #32
    32c0:	400a      	ands	r2, r1
    32c2:	d002      	beq.n	32ca <.konstantenschleife+0x22>
    32c4:	f7fe fd60 	bl	1d88 <Code_453>
    32c8:	e767      	b.n	319a <Code_854+0x2>
    32ca:	f7fe fc86 	bl	1bda <Code_422>
    32ce:	e764      	b.n	319a <Code_854+0x2>

000032d0 <.interpret_opcodierbar>:
    32d0:	2007      	movs	r0, #7
    32d2:	4001      	ands	r1, r0
    32d4:	0010      	movs	r0, r2
    32d6:	f7fe fd6e 	bl	1db6 <suchedefinitionsende>
    32da:	2901      	cmp	r1, #1
    32dc:	d11f      	bne.n	331e <.interpret_opcodierbar_rechenlogik>
    32de:	2b01      	cmp	r3, #1
    32e0:	d1dc      	bne.n	329c <.interpret_faltoptimierung>
    32e2:	21ff      	movs	r1, #255	; 0xff
    32e4:	4031      	ands	r1, r6
    32e6:	42b1      	cmp	r1, r6
    32e8:	d104      	bne.n	32f4 <.interpret_opcodierbar+0x24>
    32ea:	8840      	ldrh	r0, [r0, #2]
    32ec:	4306      	orrs	r6, r0
    32ee:	f7fe ff38 	bl	2162 <Code_528>
    32f2:	e752      	b.n	319a <Code_854+0x2>
    32f4:	f7fe fb60 	bl	19b8 <Code_401>
    32f8:	2e00      	cmp	r6, #0
    32fa:	cf40      	ldmia	r7!, {r6}
    32fc:	d004      	beq.n	3308 <.interpret_opcodieren_ueber_r0>
    32fe:	6840      	ldr	r0, [r0, #4]
    3300:	4306      	orrs	r6, r0
    3302:	f7fe ff56 	bl	21b2 <Code_537>
    3306:	e748      	b.n	319a <Code_854+0x2>

00003308 <.interpret_opcodieren_ueber_r0>:
    3308:	f847 6d04 	str.w	r6, [r7, #-4]!
    330c:	2600      	movs	r6, #0
    330e:	f7fe fc07 	bl	1b20 <Code_410>
    3312:	f847 6d04 	str.w	r6, [r7, #-4]!
    3316:	8806      	ldrh	r6, [r0, #0]
    3318:	f7fe ff23 	bl	2162 <Code_528>
    331c:	e73d      	b.n	319a <Code_854+0x2>

0000331e <.interpret_opcodierbar_rechenlogik>:
    331e:	2902      	cmp	r1, #2
    3320:	d102      	bne.n	3328 <.interpret_opcodierbar_gleichungleich>
    3322:	2b01      	cmp	r3, #1
    3324:	d1ba      	bne.n	329c <.interpret_faltoptimierung>
    3326:	e7ef      	b.n	3308 <.interpret_opcodieren_ueber_r0>

00003328 <.interpret_opcodierbar_gleichungleich>:
    3328:	2903      	cmp	r1, #3
    332a:	d126      	bne.n	337a <.interpret_opcodierbar_schieben>
    332c:	2b01      	cmp	r3, #1
    332e:	d1b5      	bne.n	329c <.interpret_faltoptimierung>
    3330:	21ff      	movs	r1, #255	; 0xff
    3332:	4031      	ands	r1, r6
    3334:	42b1      	cmp	r1, r6
    3336:	d10a      	bne.n	334e <.interpret_opcodierbar_gleichungleich+0x26>
    3338:	4962      	ldr	r1, [pc, #392]	; (34c4 <quit_innenschleife+0x28>)
    333a:	430e      	orrs	r6, r1
    333c:	f7fe ff11 	bl	2162 <Code_528>
    3340:	3204      	adds	r2, #4
    3342:	f847 6d04 	str.w	r6, [r7, #-4]!
    3346:	0016      	movs	r6, r2
    3348:	f7fe fd1e 	bl	1d88 <Code_453>
    334c:	e725      	b.n	319a <Code_854+0x2>
    334e:	f7fe fb33 	bl	19b8 <Code_401>
    3352:	2e00      	cmp	r6, #0
    3354:	cf40      	ldmia	r7!, {r6}
    3356:	d004      	beq.n	3362 <.interpret_opcodierbar_gleichungleich+0x3a>
    3358:	495b      	ldr	r1, [pc, #364]	; (34c8 <quit_innenschleife+0x2c>)
    335a:	430e      	orrs	r6, r1
    335c:	f7fe ff29 	bl	21b2 <Code_537>
    3360:	e7ee      	b.n	3340 <.interpret_opcodierbar_gleichungleich+0x18>
    3362:	f847 6d04 	str.w	r6, [r7, #-4]!
    3366:	2600      	movs	r6, #0
    3368:	f7fe fbda 	bl	1b20 <Code_410>
    336c:	3202      	adds	r2, #2
    336e:	f847 6d04 	str.w	r6, [r7, #-4]!
    3372:	0016      	movs	r6, r2
    3374:	f7fe fd08 	bl	1d88 <Code_453>
    3378:	e70f      	b.n	319a <Code_854+0x2>

0000337a <.interpret_opcodierbar_schieben>:
    337a:	2904      	cmp	r1, #4
    337c:	d118      	bne.n	33b0 <.interpret_opcodierbar_speicherschreiben>
    337e:	2b01      	cmp	r3, #1
    3380:	d18c      	bne.n	329c <.interpret_faltoptimierung>
    3382:	0033      	movs	r3, r6
    3384:	cf40      	ldmia	r7!, {r6}
    3386:	2b00      	cmp	r3, #0
    3388:	d100      	bne.n	338c <.interpret_opcodierbar_schieben+0x12>
    338a:	e706      	b.n	319a <Code_854+0x2>
    338c:	221f      	movs	r2, #31
    338e:	401a      	ands	r2, r3
    3390:	429a      	cmp	r2, r3
    3392:	d005      	beq.n	33a0 <.interpret_opcodierbar_schieben+0x26>
    3394:	f847 6d04 	str.w	r6, [r7, #-4]!
    3398:	8846      	ldrh	r6, [r0, #2]
    339a:	f7fe fee2 	bl	2162 <Code_528>
    339e:	e6fc      	b.n	319a <Code_854+0x2>
    33a0:	f847 6d04 	str.w	r6, [r7, #-4]!
    33a4:	8806      	ldrh	r6, [r0, #0]
    33a6:	019b      	lsls	r3, r3, #6
    33a8:	431e      	orrs	r6, r3
    33aa:	f7fe feda 	bl	2162 <Code_528>
    33ae:	e6f4      	b.n	319a <Code_854+0x2>

000033b0 <.interpret_opcodierbar_speicherschreiben>:
    33b0:	2905      	cmp	r1, #5
    33b2:	d124      	bne.n	33fe <.interpret_opcodierbar_andere>
    33b4:	2b01      	cmp	r3, #1
    33b6:	d110      	bne.n	33da <.interpret_opcodierbar_speicherschreiben+0x2a>
    33b8:	f847 6d04 	str.w	r6, [r7, #-4]!
    33bc:	2600      	movs	r6, #0
    33be:	f7fe fbaf 	bl	1b20 <Code_410>
    33c2:	f847 6d04 	str.w	r6, [r7, #-4]!
    33c6:	0006      	movs	r6, r0
    33c8:	f7fe fcde 	bl	1d88 <Code_453>
    33cc:	f847 6d04 	str.w	r6, [r7, #-4]!
    33d0:	f64c 7640 	movw	r6, #53056	; 0xcf40
    33d4:	f7fe fec5 	bl	2162 <Code_528>
    33d8:	e6df      	b.n	319a <Code_854+0x2>
    33da:	f847 6d04 	str.w	r6, [r7, #-4]!
    33de:	2600      	movs	r6, #0
    33e0:	f7fe fb9e 	bl	1b20 <Code_410>
    33e4:	f847 6d04 	str.w	r6, [r7, #-4]!
    33e8:	2601      	movs	r6, #1
    33ea:	f7fe fb99 	bl	1b20 <Code_410>
    33ee:	f7fe fce2 	bl	1db6 <suchedefinitionsende>
    33f2:	f847 6d04 	str.w	r6, [r7, #-4]!
    33f6:	0006      	movs	r6, r0
    33f8:	f7fe fcc6 	bl	1d88 <Code_453>
    33fc:	e6cd      	b.n	319a <Code_854+0x2>

000033fe <.interpret_opcodierbar_andere>:
    33fe:	2906      	cmp	r1, #6
    3400:	d10e      	bne.n	3420 <.interpret_opcodierbar_andere+0x22>
    3402:	2b01      	cmp	r3, #1
    3404:	f47f af4a 	bne.w	329c <.interpret_faltoptimierung>
    3408:	f7fe fad6 	bl	19b8 <Code_401>
    340c:	2e00      	cmp	r6, #0
    340e:	cf40      	ldmia	r7!, {r6}
    3410:	f43f af7a 	beq.w	3308 <.interpret_opcodieren_ueber_r0>
    3414:	f8d0 0002 	ldr.w	r0, [r0, #2]
    3418:	4306      	orrs	r6, r0
    341a:	f7fe feca 	bl	21b2 <Code_537>
    341e:	e6bc      	b.n	319a <Code_854+0x2>
    3420:	3001      	adds	r0, #1
    3422:	4780      	blx	r0
    3424:	e6b9      	b.n	319a <Code_854+0x2>

00003426 <konstantenschreiben>:
    3426:	b500      	push	{lr}
    3428:	2b00      	cmp	r3, #0
    342a:	d00c      	beq.n	3446 <.konstanteninnenschleife+0x1a>

0000342c <.konstanteninnenschleife>:
    342c:	3b01      	subs	r3, #1
    342e:	f847 6d04 	str.w	r6, [r7, #-4]!
    3432:	001e      	movs	r6, r3
    3434:	f857 6026 	ldr.w	r6, [r7, r6, lsl #2]
    3438:	f7fe fc04 	bl	1c44 <Code_427>
    343c:	2b00      	cmp	r3, #0
    343e:	d1f5      	bne.n	342c <.konstanteninnenschleife>
    3440:	3d04      	subs	r5, #4
    3442:	002f      	movs	r7, r5
    3444:	cf40      	ldmia	r7!, {r6}
    3446:	2500      	movs	r5, #0
    3448:	6025      	str	r5, [r4, #0]
    344a:	bd00      	pop	{pc}

0000344c <Dictionary_906>:
    344c:	00003468 	andeq	r3, r0, r8, ror #8
    3450:	68090081 	stmdavs	r9, {r0, r7}
    3454:	2d6b6f6f 	stclcs	15, cr6, [fp, #-444]!	; 0xfffffe44
    3458:	74697571 	strbtvc	r7, [r9], #-1393	; 0x571

0000345c <Code_906>:
    345c:	f847 6d04 	str.w	r6, [r7, #-4]!
    3460:	4e1a      	ldr	r6, [pc, #104]	; (34cc <quit_innenschleife+0x30>)
    3462:	4770      	bx	lr
    3464:	0000349c 	muleq	r0, ip, r4

00003468 <Dictionary_909>:
    3468:	000034e0 	andeq	r3, r0, r0, ror #9
    346c:	71040000 	mrsvc	r0, (UNDEF: 4)
    3470:	00746975 	rsbseq	r6, r4, r5, ror r9

00003474 <Code_909>:
    3474:	f8df d058 	ldr.w	sp, [pc, #88]	; 34d0 <quit_innenschleife+0x34>
    3478:	4f0e      	ldr	r7, [pc, #56]	; (34b4 <quit_innenschleife+0x18>)
    347a:	4816      	ldr	r0, [pc, #88]	; (34d4 <quit_innenschleife+0x38>)
    347c:	210a      	movs	r1, #10
    347e:	6001      	str	r1, [r0, #0]
    3480:	480f      	ldr	r0, [pc, #60]	; (34c0 <quit_innenschleife+0x24>)
    3482:	2100      	movs	r1, #0
    3484:	6001      	str	r1, [r0, #0]
    3486:	480d      	ldr	r0, [pc, #52]	; (34bc <quit_innenschleife+0x20>)
    3488:	6001      	str	r1, [r0, #0]
    348a:	4809      	ldr	r0, [pc, #36]	; (34b0 <quit_innenschleife+0x14>)
    348c:	6001      	str	r1, [r0, #0]
    348e:	4812      	ldr	r0, [pc, #72]	; (34d8 <quit_innenschleife+0x3c>)
    3490:	6001      	str	r1, [r0, #0]
    3492:	4912      	ldr	r1, [pc, #72]	; (34dc <quit_innenschleife+0x40>)
    3494:	6041      	str	r1, [r0, #4]

00003496 <quit_intern>:
    3496:	480d      	ldr	r0, [pc, #52]	; (34cc <quit_innenschleife+0x30>)
    3498:	6800      	ldr	r0, [r0, #0]
    349a:	4687      	mov	pc, r0

0000349c <quit_innenschleife>:
    349c:	f7fe f89f 	bl	15de <Code_311>
    34a0:	f7ff fe7a 	bl	3198 <Code_854>
    34a4:	f7fe f943 	bl	172e <dotgaensefuesschen>
    34a8:	6b6f2005 	blvs	1bcb4c4 <BIT24+0xbcb4c4>
    34ac:	e7f50a2e 	ldrb	r0, [r5, lr, lsr #20]!
    34b0:	20009fe4 	andcs	r9, r0, r4, ror #31
    34b4:	20000230 	andcs	r0, r0, r0, lsr r2
    34b8:	20000130 	andcs	r0, r0, r0, lsr r1
    34bc:	20000008 	andcs	r0, r0, r8
    34c0:	20009fd8 	ldrdcs	r9, [r0], -r8
    34c4:	00003e00 	andeq	r3, r0, r0, lsl #28
    34c8:	f1b60600 			; <UNDEFINED> instruction: 0xf1b60600
    34cc:	20009fd4 	ldrdcs	r9, [r0], -r4
    34d0:	20000330 	andcs	r0, r0, r0, lsr r3
    34d4:	20009ffc 	strdcs	r9, [r0], -ip
    34d8:	20009fdc 	ldrdcs	r9, [r0], -ip
    34dc:	20000068 	andcs	r0, r0, r8, rrx

000034e0 <Dictionary_911>:
    34e0:	000034fa 	strdeq	r3, [r0], -sl
    34e4:	65050000 	strvs	r0, [r5]
    34e8:	3f746e69 	svccc	0x00746e69

000034ec <Code_911>:
    34ec:	f847 6d04 	str.w	r6, [r7, #-4]!
    34f0:	f3ef 8610 	mrs	r6, PRIMASK
    34f4:	3e01      	subs	r6, #1
    34f6:	41b6      	sbcs	r6, r6
    34f8:	4770      	bx	lr

000034fa <Dictionary_913>:
    34fa:	0000350a 	andeq	r3, r0, sl, lsl #10
    34fe:	65040020 	strvs	r0, [r4, #-32]
    3502:	00746e69 	rsbseq	r6, r4, r9, ror #28

00003506 <Code_913>:
    3506:	b662      	cpsie	i
    3508:	4770      	bx	lr

0000350a <Dictionary_914>:
    350a:	0000351a 	andeq	r3, r0, sl, lsl r5
    350e:	64040020 	strvs	r0, [r4], #-32
    3512:	00746e69 	rsbseq	r6, r4, r9, ror #28

00003516 <Code_914>:
    3516:	b672      	cpsid	i
    3518:	4770      	bx	lr

0000351a <Dictionary_915>:
    351a:	00003530 	andeq	r3, r0, r0, lsr r5
    351e:	69040020 	stmdbvs	r4, {r5}
    3522:	00727370 	rsbseq	r7, r2, r0, ror r3

00003526 <Code_915>:
    3526:	f847 6d04 	str.w	r6, [r7, #-4]!
    352a:	f3ef 8605 	mrs	r6, IPSR
    352e:	4770      	bx	lr

00003530 <Dictionary_917>:
    3530:	0000353c 	andeq	r3, r0, ip, lsr r5
    3534:	6e030000 	cdpvs	0, 0, cr0, cr3, cr0, {0}
    3538:	4770706f 	ldrbmi	r7, [r0, -pc, rrx]!

0000353a <Code_917>:
    353a:	4770      	bx	lr

0000353c <Dictionary_918>:
    353c:	0000357e 	andeq	r3, r0, lr, ror r5
    3540:	75090000 	strvc	r0, [r9]
    3544:	6e61686e 	cdpvs	8, 6, cr6, cr1, cr14, {3}
    3548:	64656c64 	strbtvs	r6, [r5], #-3172	; 0xc64

0000354c <Code_918>:
    354c:	b500      	push	{lr}
    354e:	f7fe f8ee 	bl	172e <dotgaensefuesschen>
    3552:	686e5514 	stmdavs	lr!, {r2, r4, r8, sl, ip, lr}^
    3556:	6c646e61 	stclvs	14, cr6, [r4], #-388	; 0xfffffe7c
    355a:	49206465 	stmdbmi	r0!, {r0, r2, r5, r6, sl, sp, lr}
    355e:	7265746e 	rsbvc	r7, r5, #1845493760	; 0x6e000000
    3562:	74707572 	ldrbtvc	r7, [r0], #-1394	; 0x572
    3566:	f8470020 			; <UNDEFINED> instruction: 0xf8470020
    356a:	6d04      	ldr	r4, [r0, #80]	; 0x50
    356c:	f3ef 8605 	mrs	r6, IPSR
    3570:	f7fe f950 	bl	1814 <Code_365>
    3574:	f7fe f8db 	bl	172e <dotgaensefuesschen>
    3578:	000a2102 	andeq	r2, sl, r2, lsl #2
    357c:	bd00      	pop	{pc}

0000357e <Dictionary_922>:
    357e:	00003590 	muleq	r0, r0, r5
    3582:	72050000 	andvc	r0, r5, #0
    3586:	74657365 	strbtvc	r7, [r5], #-869	; 0x365

0000358a <Code_922>:
    358a:	48c4      	ldr	r0, [pc, #784]	; (389c <init_name+0x6>)
    358c:	49c4      	ldr	r1, [pc, #784]	; (38a0 <init_name+0xa>)
    358e:	6001      	str	r1, [r0, #0]

00003590 <Dictionary_924>:
    3590:	000035ba 			; <UNDEFINED> instruction: 0x000035ba
    3594:	690b0081 	stmdbvs	fp, {r0, r7}
    3598:	732d7172 	teqvc	sp, #-2147483620	; 0x8000001c
    359c:	69747379 	ldmdbvs	r4!, {r0, r3, r4, r5, r6, r8, r9, ip, sp, lr}^
    35a0:	f8476b63 			; <UNDEFINED> instruction: 0xf8476b63

000035a2 <Code_924>:
    35a2:	f847 6d04 	str.w	r6, [r7, #-4]!
    35a6:	4ebf      	ldr	r6, [pc, #764]	; (38a4 <init_name+0xe>)
    35a8:	4770      	bx	lr
    35aa:	0000354c 	andeq	r3, r0, ip, asr #10

000035ae <irq_vektor_systick>:
    35ae:	f649 70d0 	movw	r0, #40912	; 0x9fd0
    35b2:	f2c2 0000 	movt	r0, #8192	; 0x2000
    35b6:	6800      	ldr	r0, [r0, #0]
    35b8:	4687      	mov	pc, r0

000035ba <Dictionary_928>:
    35ba:	000035e2 	andeq	r3, r0, r2, ror #11
    35be:	69090081 	stmdbvs	r9, {r0, r7}
    35c2:	662d7172 			; <UNDEFINED> instruction: 0x662d7172
    35c6:	746c7561 	strbtvc	r7, [ip], #-1377	; 0x561

000035ca <Code_928>:
    35ca:	f847 6d04 	str.w	r6, [r7, #-4]!
    35ce:	4eb6      	ldr	r6, [pc, #728]	; (38a8 <init_name+0x12>)
    35d0:	4770      	bx	lr
    35d2:	0000354c 	andeq	r3, r0, ip, asr #10

000035d6 <faulthandler>:
    35d6:	f649 70cc 	movw	r0, #40908	; 0x9fcc
    35da:	f2c2 0000 	movt	r0, #8192	; 0x2000
    35de:	6800      	ldr	r0, [r0, #0]
    35e0:	4687      	mov	pc, r0

000035e2 <Dictionary_932>:
    35e2:	00003610 	andeq	r3, r0, r0, lsl r6
    35e6:	690e0081 	stmdbvs	lr, {r0, r7}
    35ea:	632d7172 	teqvs	sp, #-2147483620	; 0x8000001c
    35ee:	656c6c6f 	strbvs	r6, [ip, #-3183]!	; 0xc6f
    35f2:	6f697463 	svcvs	0x00697463
    35f6:	f847006e 			; <UNDEFINED> instruction: 0xf847006e

000035f8 <Code_932>:
    35f8:	f847 6d04 	str.w	r6, [r7, #-4]!
    35fc:	4eab      	ldr	r6, [pc, #684]	; (38ac <init_name+0x16>)
    35fe:	4770      	bx	lr
    3600:	0000354c 	andeq	r3, r0, ip, asr #10

00003604 <nullhandler>:
    3604:	f649 70c8 	movw	r0, #40904	; 0x9fc8
    3608:	f2c2 0000 	movt	r0, #8192	; 0x2000
    360c:	6800      	ldr	r0, [r0, #0]
    360e:	4687      	mov	pc, r0

00003610 <Dictionary_936>:
    3610:	00003638 	andeq	r3, r0, r8, lsr r6
    3614:	69090081 	stmdbvs	r9, {r0, r7}
    3618:	652d7172 	strvs	r7, [sp, #-370]!	; 0x172
    361c:	30697478 	rsbcc	r7, r9, r8, ror r4

00003620 <Code_936>:
    3620:	f847 6d04 	str.w	r6, [r7, #-4]!
    3624:	4ea2      	ldr	r6, [pc, #648]	; (38b0 <init_name+0x1a>)
    3626:	4770      	bx	lr
    3628:	0000354c 	andeq	r3, r0, ip, asr #10

0000362c <irq_vektor_exti0>:
    362c:	f649 70c4 	movw	r0, #40900	; 0x9fc4
    3630:	f2c2 0000 	movt	r0, #8192	; 0x2000
    3634:	6800      	ldr	r0, [r0, #0]
    3636:	4687      	mov	pc, r0

00003638 <Dictionary_940>:
    3638:	00003660 	andeq	r3, r0, r0, ror #12
    363c:	69090081 	stmdbvs	r9, {r0, r7}
    3640:	652d7172 	strvs	r7, [sp, #-370]!	; 0x172
    3644:	31697478 	smccc	38728	; 0x9748

00003648 <Code_940>:
    3648:	f847 6d04 	str.w	r6, [r7, #-4]!
    364c:	4e99      	ldr	r6, [pc, #612]	; (38b4 <init_name+0x1e>)
    364e:	4770      	bx	lr
    3650:	0000354c 	andeq	r3, r0, ip, asr #10

00003654 <irq_vektor_exti1>:
    3654:	f649 70c0 	movw	r0, #40896	; 0x9fc0
    3658:	f2c2 0000 	movt	r0, #8192	; 0x2000
    365c:	6800      	ldr	r0, [r0, #0]
    365e:	4687      	mov	pc, r0

00003660 <Dictionary_944>:
    3660:	00003688 	andeq	r3, r0, r8, lsl #13
    3664:	69090081 	stmdbvs	r9, {r0, r7}
    3668:	652d7172 	strvs	r7, [sp, #-370]!	; 0x172
    366c:	32697478 	rsbcc	r7, r9, #2013265920	; 0x78000000

00003670 <Code_944>:
    3670:	f847 6d04 	str.w	r6, [r7, #-4]!
    3674:	4e90      	ldr	r6, [pc, #576]	; (38b8 <init_name+0x22>)
    3676:	4770      	bx	lr
    3678:	0000354c 	andeq	r3, r0, ip, asr #10

0000367c <irq_vektor_exti2>:
    367c:	f649 70bc 	movw	r0, #40892	; 0x9fbc
    3680:	f2c2 0000 	movt	r0, #8192	; 0x2000
    3684:	6800      	ldr	r0, [r0, #0]
    3686:	4687      	mov	pc, r0

00003688 <Dictionary_948>:
    3688:	000036b0 			; <UNDEFINED> instruction: 0x000036b0
    368c:	69090081 	stmdbvs	r9, {r0, r7}
    3690:	652d7172 	strvs	r7, [sp, #-370]!	; 0x172
    3694:	33697478 	cmncc	r9, #2013265920	; 0x78000000

00003698 <Code_948>:
    3698:	f847 6d04 	str.w	r6, [r7, #-4]!
    369c:	4e87      	ldr	r6, [pc, #540]	; (38bc <init_name+0x26>)
    369e:	4770      	bx	lr
    36a0:	0000354c 	andeq	r3, r0, ip, asr #10

000036a4 <irq_vektor_exti3>:
    36a4:	f649 70b8 	movw	r0, #40888	; 0x9fb8
    36a8:	f2c2 0000 	movt	r0, #8192	; 0x2000
    36ac:	6800      	ldr	r0, [r0, #0]
    36ae:	4687      	mov	pc, r0

000036b0 <Dictionary_952>:
    36b0:	000036d8 	ldrdeq	r3, [r0], -r8
    36b4:	69090081 	stmdbvs	r9, {r0, r7}
    36b8:	652d7172 	strvs	r7, [sp, #-370]!	; 0x172
    36bc:	34697478 	strbtcc	r7, [r9], #-1144	; 0x478

000036c0 <Code_952>:
    36c0:	f847 6d04 	str.w	r6, [r7, #-4]!
    36c4:	4e7e      	ldr	r6, [pc, #504]	; (38c0 <init_name+0x2a>)
    36c6:	4770      	bx	lr
    36c8:	0000354c 	andeq	r3, r0, ip, asr #10

000036cc <irq_vektor_exti4>:
    36cc:	f649 70b4 	movw	r0, #40884	; 0x9fb4
    36d0:	f2c2 0000 	movt	r0, #8192	; 0x2000
    36d4:	6800      	ldr	r0, [r0, #0]
    36d6:	4687      	mov	pc, r0

000036d8 <Dictionary_956>:
    36d8:	000036fe 	strdeq	r3, [r0], -lr
    36dc:	69070081 	stmdbvs	r7, {r0, r7}
    36e0:	612d7172 	teqvs	sp, r2, ror r1
    36e4:	f8476364 			; <UNDEFINED> instruction: 0xf8476364

000036e6 <Code_956>:
    36e6:	f847 6d04 	str.w	r6, [r7, #-4]!
    36ea:	4e76      	ldr	r6, [pc, #472]	; (38c4 <init_name+0x2e>)
    36ec:	4770      	bx	lr
    36ee:	0000354c 	andeq	r3, r0, ip, asr #10

000036f2 <irq_vektor_adc>:
    36f2:	f649 70b0 	movw	r0, #40880	; 0x9fb0
    36f6:	f2c2 0000 	movt	r0, #8192	; 0x2000
    36fa:	6800      	ldr	r0, [r0, #0]
    36fc:	4687      	mov	pc, r0

000036fe <Dictionary_960>:
    36fe:	00003726 	andeq	r3, r0, r6, lsr #14
    3702:	69080081 	stmdbvs	r8, {r0, r7}
    3706:	742d7172 	strtvc	r7, [sp], #-370	; 0x172
    370a:	00326d69 	eorseq	r6, r2, r9, ror #26

0000370e <Code_960>:
    370e:	f847 6d04 	str.w	r6, [r7, #-4]!
    3712:	4e6d      	ldr	r6, [pc, #436]	; (38c8 <init_name+0x32>)
    3714:	4770      	bx	lr
    3716:	0000354c 	andeq	r3, r0, ip, asr #10

0000371a <irq_vektor_tim2>:
    371a:	f649 70ac 	movw	r0, #40876	; 0x9fac
    371e:	f2c2 0000 	movt	r0, #8192	; 0x2000
    3722:	6800      	ldr	r0, [r0, #0]
    3724:	4687      	mov	pc, r0

00003726 <Dictionary_964>:
    3726:	0000374e 	andeq	r3, r0, lr, asr #14
    372a:	69080081 	stmdbvs	r8, {r0, r7}
    372e:	742d7172 	strtvc	r7, [sp], #-370	; 0x172
    3732:	00336d69 	eorseq	r6, r3, r9, ror #26

00003736 <Code_964>:
    3736:	f847 6d04 	str.w	r6, [r7, #-4]!
    373a:	4e64      	ldr	r6, [pc, #400]	; (38cc <init_name+0x36>)
    373c:	4770      	bx	lr
    373e:	0000354c 	andeq	r3, r0, ip, asr #10

00003742 <irq_vektor_tim3>:
    3742:	f649 70a8 	movw	r0, #40872	; 0x9fa8
    3746:	f2c2 0000 	movt	r0, #8192	; 0x2000
    374a:	6800      	ldr	r0, [r0, #0]
    374c:	4687      	mov	pc, r0

0000374e <Dictionary_968>:
    374e:	00003776 	andeq	r3, r0, r6, ror r7
    3752:	69080081 	stmdbvs	r8, {r0, r7}
    3756:	742d7172 	strtvc	r7, [sp], #-370	; 0x172
    375a:	00346d69 	eorseq	r6, r4, r9, ror #26

0000375e <Code_968>:
    375e:	f847 6d04 	str.w	r6, [r7, #-4]!
    3762:	4e5b      	ldr	r6, [pc, #364]	; (38d0 <init_name+0x3a>)
    3764:	4770      	bx	lr
    3766:	0000354c 	andeq	r3, r0, ip, asr #10

0000376a <irq_vektor_tim4>:
    376a:	f649 70a4 	movw	r0, #40868	; 0x9fa4
    376e:	f2c2 0000 	movt	r0, #8192	; 0x2000
    3772:	6800      	ldr	r0, [r0, #0]
    3774:	4687      	mov	pc, r0

00003776 <Dictionary_971>:
    3776:	00004000 	andeq	r4, r0, r0
    377a:	2d18ffff 	ldccs	15, cr15, [r8, #-1020]	; 0xfffffc04
    377e:	46202d2d 	strtmi	r2, [r0], -sp, lsr #26
    3782:	6873616c 	ldmdavs	r3!, {r2, r3, r5, r6, r8, sp, lr}^
    3786:	63694420 	cmnvs	r9, #536870912	; 0x20000000
    378a:	6e6f6974 	mcrvs	9, 3, r6, cr15, cr4, {3}
    378e:	20797261 	rsbscs	r7, r9, r1, ror #4
    3792:	002d2d2d 	eoreq	r2, sp, sp, lsr #26

00003796 <Code_971>:
    3796:	f7fd fd7a 	bl	128e <uart_init>
    379a:	484e      	ldr	r0, [pc, #312]	; (38d4 <init_name+0x3e>)
    379c:	4685      	mov	sp, r0
    379e:	4f4e      	ldr	r7, [pc, #312]	; (38d8 <init_name+0x42>)
    37a0:	262a      	movs	r6, #42	; 0x2a
    37a2:	484e      	ldr	r0, [pc, #312]	; (38dc <init_name+0x46>)
    37a4:	494b      	ldr	r1, [pc, #300]	; (38d4 <init_name+0x3e>)
    37a6:	6001      	str	r1, [r0, #0]
    37a8:	484d      	ldr	r0, [pc, #308]	; (38e0 <init_name+0x4a>)
    37aa:	494e      	ldr	r1, [pc, #312]	; (38e4 <init_name+0x4e>)
    37ac:	6001      	str	r1, [r0, #0]
    37ae:	f847 6d04 	str.w	r6, [r7, #-4]!
    37b2:	4e4c      	ldr	r6, [pc, #304]	; (38e4 <init_name+0x4e>)
    37b4:	4d4c      	ldr	r5, [pc, #304]	; (38e8 <init_name+0x52>)

000037b6 <SucheFlashPointer_Hangelschleife>:
    37b6:	88b1      	ldrh	r1, [r6, #4]
    37b8:	4b4c      	ldr	r3, [pc, #304]	; (38ec <init_name+0x56>)
    37ba:	4299      	cmp	r1, r3
    37bc:	d024      	beq.n	3808 <Sucheflashpointer_Speicherbelegung_fertig>
    37be:	4b4c      	ldr	r3, [pc, #304]	; (38f0 <init_name+0x5a>)
    37c0:	400b      	ands	r3, r1
    37c2:	d00a      	beq.n	37da <SucheFlashPointer_Hangelschleife+0x24>
    37c4:	1db0      	adds	r0, r6, #6
    37c6:	f7fe ff79 	bl	26bc <skipstring>
    37ca:	f7fe faf4 	bl	1db6 <suchedefinitionsende>
    37ce:	8803      	ldrh	r3, [r0, #0]
    37d0:	8840      	ldrh	r0, [r0, #2]
    37d2:	0400      	lsls	r0, r0, #16
    37d4:	4303      	orrs	r3, r0
    37d6:	1aed      	subs	r5, r5, r3
    37d8:	e016      	b.n	3808 <Sucheflashpointer_Speicherbelegung_fertig>
    37da:	2380      	movs	r3, #128	; 0x80
    37dc:	400b      	ands	r3, r1
    37de:	d013      	beq.n	3808 <Sucheflashpointer_Speicherbelegung_fertig>
    37e0:	230f      	movs	r3, #15
    37e2:	4019      	ands	r1, r3
    37e4:	0089      	lsls	r1, r1, #2
    37e6:	1a6d      	subs	r5, r5, r1
    37e8:	1db0      	adds	r0, r6, #6
    37ea:	f7fe ff67 	bl	26bc <skipstring>
    37ee:	f7fe fae2 	bl	1db6 <suchedefinitionsende>
    37f2:	f847 6d04 	str.w	r6, [r7, #-4]!
    37f6:	0006      	movs	r6, r0
    37f8:	f847 6d04 	str.w	r6, [r7, #-4]!
    37fc:	002e      	movs	r6, r5
    37fe:	f847 6d04 	str.w	r6, [r7, #-4]!
    3802:	000e      	movs	r6, r1
    3804:	f7fd f9f8 	bl	bf8 <Code_180>

00003808 <Sucheflashpointer_Speicherbelegung_fertig>:
    3808:	f7fe ff36 	bl	2678 <Code_617>
    380c:	0030      	movs	r0, r6
    380e:	cf40      	ldmia	r7!, {r6}
    3810:	d0d1      	beq.n	37b6 <SucheFlashPointer_Hangelschleife>
    3812:	4838      	ldr	r0, [pc, #224]	; (38f4 <init_name+0x5e>)
    3814:	6006      	str	r6, [r0, #0]
    3816:	cf40      	ldmia	r7!, {r6}
    3818:	4837      	ldr	r0, [pc, #220]	; (38f8 <init_name+0x62>)
    381a:	6005      	str	r5, [r0, #0]
    381c:	4837      	ldr	r0, [pc, #220]	; (38fc <init_name+0x66>)
    381e:	4938      	ldr	r1, [pc, #224]	; (3900 <init_name+0x6a>)
    3820:	4a32      	ldr	r2, [pc, #200]	; (38ec <init_name+0x56>)
    3822:	4288      	cmp	r0, r1
    3824:	d004      	beq.n	3830 <Sucheflashpointer_Speicherbelegung_fertig+0x28>
    3826:	3802      	subs	r0, #2
    3828:	8803      	ldrh	r3, [r0, #0]
    382a:	4293      	cmp	r3, r2
    382c:	d0f9      	beq.n	3822 <Sucheflashpointer_Speicherbelegung_fertig+0x1a>
    382e:	3002      	adds	r0, #2
    3830:	4934      	ldr	r1, [pc, #208]	; (3904 <init_name+0x6e>)
    3832:	6008      	str	r0, [r1, #0]
    3834:	f7fd ff7b 	bl	172e <dotgaensefuesschen>
    3838:	63654d37 	cmnvs	r5, #3520	; 0xdc0
    383c:	70736972 	rsbsvc	r6, r3, r2, ror r9
    3840:	6574532d 	ldrbvs	r5, [r4, #-813]!	; 0x32d
    3844:	72616c6c 	rsbvc	r6, r1, #27648	; 0x6c00
    3848:	32207369 	eorcc	r7, r0, #-1543503871	; 0xa4000001
    384c:	312e322e 	teqcc	lr, lr, lsr #4
    3850:	726f6620 	rsbvc	r6, pc, #33554432	; 0x2000000
    3854:	4d545320 	ldclmi	3, cr5, [r4, #-128]	; 0xffffff80
    3858:	33463233 	movtcc	r3, #25139	; 0x6233
    385c:	62203330 	eorvs	r3, r0, #-1073741824	; 0xc0000000
    3860:	614d2079 	hvcvs	53769	; 0xd209
    3864:	69687474 	stmdbvs	r8!, {r2, r4, r5, r6, sl, ip, sp, lr}^
    3868:	4b207361 	blmi	8205f4 <BIT23+0x205f4>
    386c:	0a68636f 	beq	1a1c630 <BIT24+0xa1c630>
    3870:	4825      	ldr	r0, [pc, #148]	; (3908 <init_name+0x72>)
    3872:	2100      	movs	r1, #0
    3874:	6001      	str	r1, [r0, #0]
    3876:	f847 6d04 	str.w	r6, [r7, #-4]!
    387a:	4e24      	ldr	r6, [pc, #144]	; (390c <init_name+0x76>)
    387c:	f847 6d04 	str.w	r6, [r7, #-4]!
    3880:	2604      	movs	r6, #4
    3882:	f7fe ff2a 	bl	26da <Code_622>
    3886:	cf40      	ldmia	r7!, {r6}
    3888:	2e00      	cmp	r6, #0
    388a:	d002      	beq.n	3892 <Sucheflashpointer_Speicherbelegung_fertig+0x8a>
    388c:	f7fe fb1a 	bl	1ec4 <Code_475>
    3890:	e601      	b.n	3496 <quit_intern>
    3892:	cf40      	ldmia	r7!, {r6}
    3894:	e5ee      	b.n	3474 <Code_909>

00003896 <init_name>:
    3896:	74696e69 	strbtvc	r6, [r9], #-3689	; 0xe69
    389a:	ed0c0000 	stc	0, cr0, [ip]
    389e:	0004e000 	andeq	lr, r4, r0
    38a2:	9fd005fa 	svcls	0x00d005fa
    38a6:	9fcc2000 	svcls	0x00cc2000
    38aa:	9fc82000 	svcls	0x00c82000
    38ae:	9fc42000 	svcls	0x00c42000
    38b2:	9fc02000 	svcls	0x00c02000
    38b6:	9fbc2000 	svcls	0x00bc2000
    38ba:	9fb82000 	svcls	0x00b82000
    38be:	9fb42000 	svcls	0x00b42000
    38c2:	9fb02000 	svcls	0x00b02000
    38c6:	9fac2000 	svcls	0x00ac2000
    38ca:	9fa82000 	svcls	0x00a82000
    38ce:	9fa42000 	svcls	0x00a42000
    38d2:	03302000 	teqeq	r0, #0
    38d6:	02302000 	eorseq	r2, r0, #0
    38da:	00002000 	andeq	r2, r0, r0
    38de:	00042000 	andeq	r2, r4, r0
    38e2:	01882000 	orreq	r2, r8, r0
    38e6:	a0000000 	andge	r0, r0, r0
    38ea:	ffff2000 			; <UNDEFINED> instruction: 0xffff2000
    38ee:	01000000 	mrseq	r0, (UNDEF: 0)
    38f2:	001c0000 	andseq	r0, ip, r0
    38f6:	00242000 	eoreq	r2, r4, r0
    38fa:	00002000 	andeq	r2, r0, r0
    38fe:	40000004 	andmi	r0, r0, r4
    3902:	00180000 	andseq	r0, r8, r0
    3906:	00082000 	andeq	r2, r8, r0
    390a:	38962000 	ldmcc	r6, {sp}
	...

Disassembly of section .ARM.attributes:

00000000 <.ARM.attributes>:
   0:	00002041 	andeq	r2, r0, r1, asr #32
   4:	61656100 	cmnvs	r5, r0, lsl #2
   8:	01006962 	tsteq	r0, r2, ror #18
   c:	00000016 	andeq	r0, r0, r6, lsl r0
  10:	726f4305 	rsbvc	r4, pc, #335544320	; 0x14000000
  14:	2d786574 	cfldr64cs	mvdx6, [r8, #-464]!	; 0xfffffe30
  18:	0600344d 	streq	r3, [r0], -sp, asr #8
  1c:	094d070d 	stmdbeq	sp, {r0, r2, r3, r8, r9, sl}^
  20:	Address 0x00000020 is out of bounds.

