
mecrisp-stellaris-efm32gg990.elf:     file format elf32-littlearm


Disassembly of section .text:

00000000 <CoreDictionaryAnfang-0xb8>:
       0:	2000038c 	andcs	r0, r0, ip, lsl #7
       4:	00004caf 	andeq	r4, r0, pc, lsr #25
       8:	00004763 	andeq	r4, r0, r3, ror #14
       c:	00004763 	andeq	r4, r0, r3, ror #14
      10:	00004763 	andeq	r4, r0, r3, ror #14
      14:	00004763 	andeq	r4, r0, r3, ror #14
      18:	00004763 	andeq	r4, r0, r3, ror #14
	...
      2c:	00004793 	muleq	r0, r3, r7
      30:	00004793 	muleq	r0, r3, r7
      34:	00000000 	andeq	r0, r0, r0
      38:	00004793 	muleq	r0, r3, r7
      3c:	00004739 	andeq	r4, r0, r9, lsr r7
      40:	000047bb 			; <UNDEFINED> instruction: 0x000047bb
      44:	000047e9 	andeq	r4, r0, r9, ror #15
      48:	00004815 	andeq	r4, r0, r5, lsl r8
      4c:	00004843 	andeq	r4, r0, r3, asr #16
      50:	00004871 	andeq	r4, r0, r1, ror r8
      54:	0000489b 	muleq	r0, fp, r8
      58:	000048c5 	andeq	r4, r0, r5, asr #17
      5c:	000048ef 	andeq	r4, r0, pc, ror #17
      60:	00004919 	andeq	r4, r0, r9, lsl r9
      64:	00004945 	andeq	r4, r0, r5, asr #18
      68:	00004971 	andeq	r4, r0, r1, ror r9
      6c:	0000499d 	muleq	r0, sp, r9
      70:	000049cb 	andeq	r4, r0, fp, asr #19
      74:	000049f9 	strdeq	r4, [r0], -r9
      78:	00004a25 	andeq	r4, r0, r5, lsr #20
      7c:	00004a51 	andeq	r4, r0, r1, asr sl
      80:	00004a7b 	andeq	r4, r0, fp, ror sl
      84:	00004aa5 	andeq	r4, r0, r5, lsr #21
      88:	00004acf 	andeq	r4, r0, pc, asr #21
      8c:	00004af9 	strdeq	r4, [r0], -r9
      90:	00004b25 	andeq	r4, r0, r5, lsr #22
      94:	00004b4d 	andeq	r4, r0, sp, asr #22
      98:	00004b75 	andeq	r4, r0, r5, ror fp
      9c:	00004b9d 	muleq	r0, sp, fp
      a0:	00004bc3 	andeq	r4, r0, r3, asr #23
      a4:	00004be9 	andeq	r4, r0, r9, ror #23
      a8:	00004c11 	andeq	r4, r0, r1, lsl ip
      ac:	00004c37 	andeq	r4, r0, r7, lsr ip
      b0:	00004c5d 	andeq	r4, r0, sp, asr ip
      b4:	00004c83 	andeq	r4, r0, r3, lsl #25

000000b8 <CoreDictionaryAnfang>:
      b8:	000004f4 	strdeq	r0, [r0], -r4
      bc:	2d1effff 	ldccs	15, cr15, [lr, #-1020]	; 0xfffffc04
      c0:	4d202d2d 	stcmi	13, cr2, [r0, #-180]!	; 0xffffff4c
      c4:	69726365 	ldmdbvs	r2!, {r0, r2, r5, r6, r8, r9, sp, lr}^
      c8:	532d7073 	teqpl	sp, #115	; 0x73
      cc:	6c6c6574 	cfstr64vs	mvdx6, [ip], #-464	; 0xfffffe30
      d0:	73697261 	cmnvc	r9, #268435462	; 0x10000006
      d4:	726f4320 	rsbvc	r4, pc, #-2147483648	; 0x80000000
      d8:	2d2d2065 	stccs	0, cr2, [sp, #-404]!	; 0xfffffe6c
      dc:	b507002d 	strlt	r0, [r7, #-45]	; 0x2d

000000de <Code_31>:
      de:	b507      	push	{r0, r1, r2, lr}
      e0:	488f      	ldr	r0, [pc, #572]	; (320 <r0_unfrei+0x18>)
      e2:	2b00      	cmp	r3, #0
      e4:	d009      	beq.n	fa <Code_31+0x1c>
      e6:	f000 f83b 	bl	160 <free_5os_element>
      ea:	f000 f841 	bl	170 <elemente_einen_weiterrutschen_lassen>
      ee:	f000 f827 	bl	140 <nget_faltkonstante>
      f2:	6042      	str	r2, [r0, #4]
      f4:	2128      	movs	r1, #40	; 0x28
      f6:	6001      	str	r1, [r0, #0]
      f8:	e7f3      	b.n	e2 <Code_31+0x4>
      fa:	bd07      	pop	{r0, r1, r2, pc}

000000fc <nfaltkonstanten_aufschwimmen>:
      fc:	b500      	push	{lr}
      fe:	4888      	ldr	r0, [pc, #544]	; (320 <r0_unfrei+0x18>)
     100:	2300      	movs	r3, #0
     102:	6801      	ldr	r1, [r0, #0]
     104:	2928      	cmp	r1, #40	; 0x28
     106:	d105      	bne.n	114 <BIT8+0x14>
     108:	6842      	ldr	r2, [r0, #4]
     10a:	f000 f804 	bl	116 <npush_faltkonstante>
     10e:	f000 f84c 	bl	1aa <eliminiere_tos>
     112:	e7f6      	b.n	102 <BIT8+0x2>
     114:	bd00      	pop	{pc}

00000116 <npush_faltkonstante>:
     116:	b503      	push	{r0, r1, lr}
     118:	f847 6d04 	str.w	r6, [r7, #-4]!
     11c:	0016      	movs	r6, r2
     11e:	f847 6d04 	str.w	r6, [r7, #-4]!
     122:	001e      	movs	r6, r3
     124:	b408      	push	{r3}
     126:	f000 ffb5 	bl	1094 <Code_231>
     12a:	bc08      	pop	{r3}
     12c:	3301      	adds	r3, #1
     12e:	f847 6d04 	str.w	r6, [r7, #-4]!
     132:	4e7c      	ldr	r6, [pc, #496]	; (324 <r0_unfrei+0x1c>)
     134:	f847 6d04 	str.w	r6, [r7, #-4]!
     138:	4e7b      	ldr	r6, [pc, #492]	; (328 <r0_unfrei+0x20>)
     13a:	f004 f93e 	bl	43ba <add_to_inline_cache>
     13e:	bd03      	pop	{r0, r1, pc}

00000140 <nget_faltkonstante>:
     140:	b503      	push	{r0, r1, lr}
     142:	3b01      	subs	r3, #1
     144:	f847 6d04 	str.w	r6, [r7, #-4]!
     148:	001e      	movs	r6, r3
     14a:	b408      	push	{r3}
     14c:	f000 ff8c 	bl	1068 <Code_229>
     150:	bc08      	pop	{r3}
     152:	0032      	movs	r2, r6
     154:	f847 6d04 	str.w	r6, [r7, #-4]!
     158:	4e74      	ldr	r6, [pc, #464]	; (32c <r0_unfrei+0x24>)
     15a:	f004 f92e 	bl	43ba <add_to_inline_cache>
     15e:	bd03      	pop	{r0, r1, pc}

00000160 <free_5os_element>:
     160:	b503      	push	{r0, r1, lr}
     162:	4873      	ldr	r0, [pc, #460]	; (330 <r0_unfrei+0x28>)
     164:	6801      	ldr	r1, [r0, #0]
     166:	291e      	cmp	r1, #30
     168:	d001      	beq.n	16e <free_5os_element+0xe>
     16a:	f000 f834 	bl	1d6 <element_to_stack>
     16e:	bd03      	pop	{r0, r1, pc}

00000170 <elemente_einen_weiterrutschen_lassen>:
     170:	6981      	ldr	r1, [r0, #24]
     172:	6201      	str	r1, [r0, #32]
     174:	6901      	ldr	r1, [r0, #16]
     176:	6181      	str	r1, [r0, #24]
     178:	6881      	ldr	r1, [r0, #8]
     17a:	6101      	str	r1, [r0, #16]
     17c:	6801      	ldr	r1, [r0, #0]
     17e:	6081      	str	r1, [r0, #8]
     180:	69c1      	ldr	r1, [r0, #28]
     182:	6241      	str	r1, [r0, #36]	; 0x24
     184:	6941      	ldr	r1, [r0, #20]
     186:	61c1      	str	r1, [r0, #28]
     188:	68c1      	ldr	r1, [r0, #12]
     18a:	6141      	str	r1, [r0, #20]
     18c:	6841      	ldr	r1, [r0, #4]
     18e:	60c1      	str	r1, [r0, #12]
     190:	211e      	movs	r1, #30
     192:	6001      	str	r1, [r0, #0]
     194:	4770      	bx	lr

00000196 <befreie_tos>:
     196:	b50f      	push	{r0, r1, r2, r3, lr}
     198:	4861      	ldr	r0, [pc, #388]	; (320 <r0_unfrei+0x18>)
     19a:	6801      	ldr	r1, [r0, #0]
     19c:	291e      	cmp	r1, #30
     19e:	d003      	beq.n	1a8 <befreie_tos+0x12>
     1a0:	f7ff ffde 	bl	160 <free_5os_element>
     1a4:	f7ff ffe4 	bl	170 <elemente_einen_weiterrutschen_lassen>
     1a8:	bd0f      	pop	{r0, r1, r2, r3, pc}

000001aa <eliminiere_tos>:
     1aa:	b502      	push	{r1, lr}
     1ac:	6881      	ldr	r1, [r0, #8]
     1ae:	6001      	str	r1, [r0, #0]
     1b0:	68c1      	ldr	r1, [r0, #12]
     1b2:	6041      	str	r1, [r0, #4]
     1b4:	e000      	b.n	1b8 <eliminiere_nos+0x2>

000001b6 <eliminiere_nos>:
     1b6:	b502      	push	{r1, lr}
     1b8:	6901      	ldr	r1, [r0, #16]
     1ba:	6081      	str	r1, [r0, #8]
     1bc:	6941      	ldr	r1, [r0, #20]
     1be:	60c1      	str	r1, [r0, #12]
     1c0:	6981      	ldr	r1, [r0, #24]
     1c2:	6101      	str	r1, [r0, #16]
     1c4:	69c1      	ldr	r1, [r0, #28]
     1c6:	6141      	str	r1, [r0, #20]
     1c8:	6a01      	ldr	r1, [r0, #32]
     1ca:	6181      	str	r1, [r0, #24]
     1cc:	6a41      	ldr	r1, [r0, #36]	; 0x24
     1ce:	61c1      	str	r1, [r0, #28]
     1d0:	211e      	movs	r1, #30
     1d2:	6201      	str	r1, [r0, #32]
     1d4:	bd02      	pop	{r1, pc}

000001d6 <element_to_stack>:
     1d6:	b508      	push	{r3, lr}
     1d8:	6801      	ldr	r1, [r0, #0]
     1da:	221e      	movs	r2, #30
     1dc:	6002      	str	r2, [r0, #0]
     1de:	2908      	cmp	r1, #8
     1e0:	d201      	bcs.n	1e6 <element_to_stack+0x10>
     1e2:	000b      	movs	r3, r1
     1e4:	e004      	b.n	1f0 <element_to_stack+0x1a>
     1e6:	2928      	cmp	r1, #40	; 0x28
     1e8:	d109      	bne.n	1fe <element_to_stack+0x28>
     1ea:	6843      	ldr	r3, [r0, #4]
     1ec:	f000 f85b 	bl	2a6 <generiere_konstante>
     1f0:	f847 6d04 	str.w	r6, [r7, #-4]!
     1f4:	4e4f      	ldr	r6, [pc, #316]	; (334 <r0_unfrei+0x2c>)
     1f6:	ea56 3603 	orrs.w	r6, r6, r3, lsl #12
     1fa:	f002 ffbb 	bl	3174 <Code_804>
     1fe:	bd08      	pop	{r3, pc}

00000200 <tidyup_register_allocator>:
     200:	b500      	push	{lr}
     202:	f000 f809 	bl	218 <tidyup_register_allocator_5os>
     206:	f000 f80c 	bl	222 <tidyup_register_allocator_4os>
     20a:	f000 f80f 	bl	22c <tidyup_register_allocator_3os>
     20e:	f000 f812 	bl	236 <tidyup_register_allocator_nos>
     212:	f000 f815 	bl	240 <tidyup_register_allocator_tos>
     216:	bd00      	pop	{pc}

00000218 <tidyup_register_allocator_5os>:
     218:	b50f      	push	{r0, r1, r2, r3, lr}
     21a:	4845      	ldr	r0, [pc, #276]	; (330 <r0_unfrei+0x28>)
     21c:	f7ff ffdb 	bl	1d6 <element_to_stack>
     220:	bd0f      	pop	{r0, r1, r2, r3, pc}

00000222 <tidyup_register_allocator_4os>:
     222:	b50f      	push	{r0, r1, r2, r3, lr}
     224:	4844      	ldr	r0, [pc, #272]	; (338 <r0_unfrei+0x30>)
     226:	f7ff ffd6 	bl	1d6 <element_to_stack>
     22a:	bd0f      	pop	{r0, r1, r2, r3, pc}

0000022c <tidyup_register_allocator_3os>:
     22c:	b50f      	push	{r0, r1, r2, r3, lr}
     22e:	4843      	ldr	r0, [pc, #268]	; (33c <r0_unfrei+0x34>)
     230:	f7ff ffd1 	bl	1d6 <element_to_stack>
     234:	bd0f      	pop	{r0, r1, r2, r3, pc}

00000236 <tidyup_register_allocator_nos>:
     236:	b50f      	push	{r0, r1, r2, r3, lr}
     238:	4841      	ldr	r0, [pc, #260]	; (340 <r0_unfrei+0x38>)
     23a:	f7ff ffcc 	bl	1d6 <element_to_stack>
     23e:	bd0f      	pop	{r0, r1, r2, r3, pc}

00000240 <tidyup_register_allocator_tos>:
     240:	b50f      	push	{r0, r1, r2, r3, lr}
     242:	4837      	ldr	r0, [pc, #220]	; (320 <r0_unfrei+0x18>)
     244:	6801      	ldr	r1, [r0, #0]
     246:	2206      	movs	r2, #6
     248:	6002      	str	r2, [r0, #0]
     24a:	291e      	cmp	r1, #30
     24c:	d106      	bne.n	25c <tidyup_register_allocator_tos+0x1c>
     24e:	f847 6d04 	str.w	r6, [r7, #-4]!
     252:	f64c 7640 	movw	r6, #53056	; 0xcf40
     256:	f002 ff5e 	bl	3116 <Code_795>
     25a:	e015      	b.n	288 <tidyup_finish>
     25c:	2928      	cmp	r1, #40	; 0x28
     25e:	d109      	bne.n	274 <tidyup_register_allocator_tos+0x34>
     260:	6843      	ldr	r3, [r0, #4]
     262:	f847 6d04 	str.w	r6, [r7, #-4]!
     266:	001e      	movs	r6, r3
     268:	f847 6d04 	str.w	r6, [r7, #-4]!
     26c:	2606      	movs	r6, #6
     26e:	f002 fc23 	bl	2ab8 <Code_673>
     272:	e009      	b.n	288 <tidyup_finish>
     274:	2906      	cmp	r1, #6
     276:	d007      	beq.n	288 <tidyup_finish>
     278:	f847 6d04 	str.w	r6, [r7, #-4]!
     27c:	f244 6606 	movw	r6, #17926	; 0x4606
     280:	00c9      	lsls	r1, r1, #3
     282:	430e      	orrs	r6, r1
     284:	f002 ff47 	bl	3116 <Code_795>

00000288 <tidyup_finish>:
     288:	f000 f801 	bl	28e <init_register_allocator>
     28c:	bd0f      	pop	{r0, r1, r2, r3, pc}

0000028e <init_register_allocator>:
     28e:	4824      	ldr	r0, [pc, #144]	; (320 <r0_unfrei+0x18>)
     290:	211e      	movs	r1, #30
     292:	6201      	str	r1, [r0, #32]
     294:	6181      	str	r1, [r0, #24]
     296:	6101      	str	r1, [r0, #16]
     298:	6081      	str	r1, [r0, #8]
     29a:	62c1      	str	r1, [r0, #44]	; 0x2c
     29c:	2106      	movs	r1, #6
     29e:	6001      	str	r1, [r0, #0]
     2a0:	2100      	movs	r1, #0
     2a2:	6281      	str	r1, [r0, #40]	; 0x28
     2a4:	4770      	bx	lr

000002a6 <generiere_konstante>:
     2a6:	b507      	push	{r0, r1, r2, lr}
     2a8:	f847 6d04 	str.w	r6, [r7, #-4]!
     2ac:	001e      	movs	r6, r3
     2ae:	f000 f849 	bl	344 <get_free_register>
     2b2:	f847 6d04 	str.w	r6, [r7, #-4]!
     2b6:	001e      	movs	r6, r3
     2b8:	f002 fbfe 	bl	2ab8 <Code_673>
     2bc:	bd07      	pop	{r0, r1, r2, pc}

000002be <generiere_adresskonstante>:
     2be:	b507      	push	{r0, r1, r2, lr}
     2c0:	6ac1      	ldr	r1, [r0, #44]	; 0x2c
     2c2:	2928      	cmp	r1, #40	; 0x28
     2c4:	d104      	bne.n	2d0 <generiere_adresskonstante+0x12>
     2c6:	6b01      	ldr	r1, [r0, #48]	; 0x30
     2c8:	4299      	cmp	r1, r3
     2ca:	d101      	bne.n	2d0 <generiere_adresskonstante+0x12>
     2cc:	2300      	movs	r3, #0
     2ce:	bd07      	pop	{r0, r1, r2, pc}
     2d0:	6801      	ldr	r1, [r0, #0]
     2d2:	2900      	cmp	r1, #0
     2d4:	d018      	beq.n	308 <r0_unfrei>
     2d6:	6881      	ldr	r1, [r0, #8]
     2d8:	2900      	cmp	r1, #0
     2da:	d015      	beq.n	308 <r0_unfrei>
     2dc:	6901      	ldr	r1, [r0, #16]
     2de:	2900      	cmp	r1, #0
     2e0:	d012      	beq.n	308 <r0_unfrei>
     2e2:	6981      	ldr	r1, [r0, #24]
     2e4:	2900      	cmp	r1, #0
     2e6:	d00f      	beq.n	308 <r0_unfrei>
     2e8:	6a01      	ldr	r1, [r0, #32]
     2ea:	2900      	cmp	r1, #0
     2ec:	d00c      	beq.n	308 <r0_unfrei>
     2ee:	6303      	str	r3, [r0, #48]	; 0x30
     2f0:	f847 6d04 	str.w	r6, [r7, #-4]!
     2f4:	001e      	movs	r6, r3
     2f6:	f847 6d04 	str.w	r6, [r7, #-4]!
     2fa:	2600      	movs	r6, #0
     2fc:	f002 fbdc 	bl	2ab8 <Code_673>
     300:	2128      	movs	r1, #40	; 0x28
     302:	62c1      	str	r1, [r0, #44]	; 0x2c
     304:	2300      	movs	r3, #0
     306:	bd07      	pop	{r0, r1, r2, pc}

00000308 <r0_unfrei>:
     308:	f847 6d04 	str.w	r6, [r7, #-4]!
     30c:	001e      	movs	r6, r3
     30e:	f000 f819 	bl	344 <get_free_register>
     312:	f847 6d04 	str.w	r6, [r7, #-4]!
     316:	001e      	movs	r6, r3
     318:	f002 fbce 	bl	2ab8 <Code_673>
     31c:	bd07      	pop	{r0, r1, r2, pc}
     31e:	00280000 	eoreq	r0, r8, r0
     322:	0e1c2000 	cdpeq	0, 1, cr2, cr12, cr0, {0}
     326:	02610000 	rsbeq	r0, r1, #0
     32a:	20000000 	andcs	r0, r0, r0
     32e:	00480000 	subeq	r0, r8, r0
     332:	0d042000 	stceq	0, cr2, [r4]
     336:	0040f847 	subeq	pc, r0, r7, asr #16
     33a:	00382000 	eorseq	r2, r8, r0
     33e:	00302000 	eorseq	r2, r0, r0
     342:	b5372000 	ldrlt	r2, [r7]!

00000344 <get_free_register>:
     344:	b537      	push	{r0, r1, r2, r4, r5, lr}
     346:	4836      	ldr	r0, [pc, #216]	; (420 <BIT10+0x20>)
     348:	6801      	ldr	r1, [r0, #0]
     34a:	6882      	ldr	r2, [r0, #8]
     34c:	6903      	ldr	r3, [r0, #16]
     34e:	6984      	ldr	r4, [r0, #24]
     350:	6a05      	ldr	r5, [r0, #32]
     352:	2006      	movs	r0, #6
     354:	f000 f80e 	bl	374 <get_free_register_intern>
     358:	2003      	movs	r0, #3
     35a:	f000 f80b 	bl	374 <get_free_register_intern>
     35e:	2002      	movs	r0, #2
     360:	f000 f808 	bl	374 <get_free_register_intern>
     364:	2001      	movs	r0, #1
     366:	f000 f805 	bl	374 <get_free_register_intern>
     36a:	2300      	movs	r3, #0
     36c:	482c      	ldr	r0, [pc, #176]	; (420 <BIT10+0x20>)
     36e:	211e      	movs	r1, #30
     370:	62c1      	str	r1, [r0, #44]	; 0x2c
     372:	bd37      	pop	{r0, r1, r2, r4, r5, pc}

00000374 <get_free_register_intern>:
     374:	4281      	cmp	r1, r0
     376:	d009      	beq.n	38c <get_free_register_intern+0x18>
     378:	4282      	cmp	r2, r0
     37a:	d007      	beq.n	38c <get_free_register_intern+0x18>
     37c:	4283      	cmp	r3, r0
     37e:	d005      	beq.n	38c <get_free_register_intern+0x18>
     380:	4284      	cmp	r4, r0
     382:	d003      	beq.n	38c <get_free_register_intern+0x18>
     384:	4285      	cmp	r5, r0
     386:	d001      	beq.n	38c <get_free_register_intern+0x18>
     388:	0003      	movs	r3, r0
     38a:	bd37      	pop	{r0, r1, r2, r4, r5, pc}
     38c:	4770      	bx	lr

0000038e <erstes_element_belegen>:
     38e:	f847 6d04 	str.w	r6, [r7, #-4]!
     392:	f64c 7600 	movw	r6, #52992	; 0xcf00

00000396 <element_belegen>:
     396:	b500      	push	{lr}
     398:	5881      	ldr	r1, [r0, r2]
     39a:	291e      	cmp	r1, #30
     39c:	d105      	bne.n	3aa <element_belegen+0x14>
     39e:	f7ff ffd1 	bl	344 <get_free_register>
     3a2:	5083      	str	r3, [r0, r2]
     3a4:	2101      	movs	r1, #1
     3a6:	4099      	lsls	r1, r3
     3a8:	430e      	orrs	r6, r1
     3aa:	bd00      	pop	{pc}

000003ac <expect_one_element>:
     3ac:	b500      	push	{lr}
     3ae:	6801      	ldr	r1, [r0, #0]
     3b0:	291e      	cmp	r1, #30
     3b2:	d104      	bne.n	3be <expect_one_element+0x12>
     3b4:	2200      	movs	r2, #0
     3b6:	f7ff ffea 	bl	38e <erstes_element_belegen>
     3ba:	f002 feac 	bl	3116 <Code_795>
     3be:	bd00      	pop	{pc}

000003c0 <expect_two_elements>:
     3c0:	b500      	push	{lr}
     3c2:	6881      	ldr	r1, [r0, #8]
     3c4:	291e      	cmp	r1, #30
     3c6:	d107      	bne.n	3d8 <expect_two_elements+0x18>
     3c8:	2208      	movs	r2, #8
     3ca:	f7ff ffe0 	bl	38e <erstes_element_belegen>
     3ce:	2200      	movs	r2, #0
     3d0:	f7ff ffe1 	bl	396 <element_belegen>
     3d4:	f002 fe9f 	bl	3116 <Code_795>
     3d8:	bd00      	pop	{pc}

000003da <expect_three_elements>:
     3da:	b500      	push	{lr}
     3dc:	6901      	ldr	r1, [r0, #16]
     3de:	291e      	cmp	r1, #30
     3e0:	d10a      	bne.n	3f8 <expect_three_elements+0x1e>
     3e2:	2210      	movs	r2, #16
     3e4:	f7ff ffd3 	bl	38e <erstes_element_belegen>
     3e8:	2208      	movs	r2, #8
     3ea:	f7ff ffd4 	bl	396 <element_belegen>
     3ee:	2200      	movs	r2, #0
     3f0:	f7ff ffd1 	bl	396 <element_belegen>
     3f4:	f002 fe8f 	bl	3116 <Code_795>
     3f8:	bd00      	pop	{pc}

000003fa <expect_four_elements>:
     3fa:	b500      	push	{lr}
     3fc:	6981      	ldr	r1, [r0, #24]
     3fe:	291e      	cmp	r1, #30
     400:	d10d      	bne.n	41e <BIT10+0x1e>
     402:	2218      	movs	r2, #24
     404:	f7ff ffc3 	bl	38e <erstes_element_belegen>
     408:	2210      	movs	r2, #16
     40a:	f7ff ffc4 	bl	396 <element_belegen>
     40e:	2208      	movs	r2, #8
     410:	f7ff ffc1 	bl	396 <element_belegen>
     414:	2200      	movs	r2, #0
     416:	f7ff ffbe 	bl	396 <element_belegen>
     41a:	f002 fe7c 	bl	3116 <Code_795>
     41e:	bd00      	pop	{pc}
     420:	20000028 	andcs	r0, r0, r8, lsr #32

00000424 <expect_tos_in_register>:
     424:	b500      	push	{lr}
     426:	6801      	ldr	r1, [r0, #0]
     428:	2928      	cmp	r1, #40	; 0x28
     42a:	d104      	bne.n	436 <expect_tos_in_register+0x12>
     42c:	6843      	ldr	r3, [r0, #4]
     42e:	f7ff ff3a 	bl	2a6 <generiere_konstante>
     432:	6003      	str	r3, [r0, #0]
     434:	0019      	movs	r1, r3
     436:	bd00      	pop	{pc}

00000438 <expect_nos_in_register>:
     438:	b500      	push	{lr}
     43a:	6881      	ldr	r1, [r0, #8]
     43c:	2928      	cmp	r1, #40	; 0x28
     43e:	d104      	bne.n	44a <expect_nos_in_register+0x12>
     440:	68c3      	ldr	r3, [r0, #12]
     442:	f7ff ff30 	bl	2a6 <generiere_konstante>
     446:	6083      	str	r3, [r0, #8]
     448:	0019      	movs	r1, r3
     44a:	bd00      	pop	{pc}

0000044c <expect_3os_in_register>:
     44c:	b500      	push	{lr}
     44e:	6901      	ldr	r1, [r0, #16]
     450:	2928      	cmp	r1, #40	; 0x28
     452:	d104      	bne.n	45e <expect_3os_in_register+0x12>
     454:	6943      	ldr	r3, [r0, #20]
     456:	f7ff ff26 	bl	2a6 <generiere_konstante>
     45a:	6103      	str	r3, [r0, #16]
     45c:	0019      	movs	r1, r3
     45e:	bd00      	pop	{pc}

00000460 <nos_change_tos_away_later>:
     460:	b53e      	push	{r1, r2, r3, r4, r5, lr}
     462:	6882      	ldr	r2, [r0, #8]
     464:	6903      	ldr	r3, [r0, #16]
     466:	6984      	ldr	r4, [r0, #24]
     468:	6a05      	ldr	r5, [r0, #32]
     46a:	429a      	cmp	r2, r3
     46c:	d003      	beq.n	476 <nos_change_tos_away_later+0x16>
     46e:	42a2      	cmp	r2, r4
     470:	d001      	beq.n	476 <nos_change_tos_away_later+0x16>
     472:	42aa      	cmp	r2, r5
     474:	d10a      	bne.n	48c <nos_change_tos_away_later+0x2c>
     476:	2a07      	cmp	r2, #7
     478:	d808      	bhi.n	48c <nos_change_tos_away_later+0x2c>
     47a:	f847 6d04 	str.w	r6, [r7, #-4]!
     47e:	00d6      	lsls	r6, r2, #3
     480:	f7ff ff60 	bl	344 <get_free_register>
     484:	431e      	orrs	r6, r3
     486:	6083      	str	r3, [r0, #8]
     488:	f002 fe45 	bl	3116 <Code_795>
     48c:	bd3e      	pop	{r1, r2, r3, r4, r5, pc}

0000048e <make_tos_changeable>:
     48e:	b53e      	push	{r1, r2, r3, r4, r5, lr}
     490:	6801      	ldr	r1, [r0, #0]
     492:	6882      	ldr	r2, [r0, #8]
     494:	6903      	ldr	r3, [r0, #16]
     496:	6984      	ldr	r4, [r0, #24]
     498:	6a05      	ldr	r5, [r0, #32]
     49a:	4291      	cmp	r1, r2
     49c:	d006      	beq.n	4ac <make_tos_changeable+0x1e>
     49e:	4299      	cmp	r1, r3
     4a0:	d004      	beq.n	4ac <make_tos_changeable+0x1e>
     4a2:	42a1      	cmp	r1, r4
     4a4:	d002      	beq.n	4ac <make_tos_changeable+0x1e>
     4a6:	42a9      	cmp	r1, r5
     4a8:	d000      	beq.n	4ac <make_tos_changeable+0x1e>
     4aa:	bd3e      	pop	{r1, r2, r3, r4, r5, pc}
     4ac:	f847 6d04 	str.w	r6, [r7, #-4]!
     4b0:	00ce      	lsls	r6, r1, #3
     4b2:	f7ff ff47 	bl	344 <get_free_register>
     4b6:	431e      	orrs	r6, r3
     4b8:	6003      	str	r3, [r0, #0]
     4ba:	f002 fe2c 	bl	3116 <Code_795>
     4be:	bd3e      	pop	{r1, r2, r3, r4, r5, pc}

000004c0 <tos_registerwechsel>:
     4c0:	b500      	push	{lr}
     4c2:	f7ff fe72 	bl	1aa <eliminiere_tos>
     4c6:	f7ff fe66 	bl	196 <befreie_tos>
     4ca:	f7ff ff3b 	bl	344 <get_free_register>
     4ce:	6003      	str	r3, [r0, #0]
     4d0:	bd00      	pop	{pc}

000004d2 <push_lr_nachholen>:
     4d2:	b501      	push	{r0, lr}
     4d4:	4806      	ldr	r0, [pc, #24]	; (4f0 <push_lr_nachholen+0x1e>)
     4d6:	6803      	ldr	r3, [r0, #0]
     4d8:	3301      	adds	r3, #1
     4da:	d008      	beq.n	4ee <push_lr_nachholen+0x1c>
     4dc:	2300      	movs	r3, #0
     4de:	43db      	mvns	r3, r3
     4e0:	6003      	str	r3, [r0, #0]
     4e2:	f847 6d04 	str.w	r6, [r7, #-4]!
     4e6:	f24b 5600 	movw	r6, #46336	; 0xb500
     4ea:	f002 fe14 	bl	3116 <Code_795>
     4ee:	bd01      	pop	{r0, pc}
     4f0:	2001ffd8 	ldrdcs	pc, [r1], -r8

000004f4 <Dictionary_68>:
     4f4:	00000518 	andeq	r0, r0, r8, lsl r5
     4f8:	32040242 	andcc	r0, r4, #536870916	; 0x20000004
     4fc:	00707564 	rsbseq	r7, r0, r4, ror #10

00000500 <Code_68>:
     500:	6838      	ldr	r0, [r7, #0]
     502:	f847 6d04 	str.w	r6, [r7, #-4]!
     506:	3f04      	subs	r7, #4
     508:	6038      	str	r0, [r7, #0]
     50a:	4770      	bx	lr
     50c:	b500      	push	{lr}
     50e:	f000 fcd7 	bl	ec0 <over_allocator>
     512:	f000 fcd5 	bl	ec0 <over_allocator>
     516:	bd00      	pop	{pc}

00000518 <Dictionary_70>:
     518:	00000536 	andeq	r0, r0, r6, lsr r5
     51c:	32050262 	andcc	r0, r5, #536870918	; 0x20000006
     520:	706f7264 	rsbvc	r7, pc, r4, ror #4

00000524 <Code_70>:
     524:	3704      	adds	r7, #4
     526:	cf40      	ldmia	r7!, {r6}
     528:	4770      	bx	lr
     52a:	b500      	push	{lr}
     52c:	f000 fc78 	bl	e20 <drop_allocator>
     530:	f000 fc76 	bl	e20 <drop_allocator>
     534:	bd00      	pop	{pc}

00000536 <Dictionary_72>:
     536:	0000057c 	andeq	r0, r0, ip, ror r5
     53a:	32050244 	andcc	r0, r5, #1073741828	; 0x40000004
     53e:	70617773 	rsbvc	r7, r1, r3, ror r7

00000542 <Code_72>:
     542:	cf07      	ldmia	r7!, {r0, r1, r2}
     544:	3f04      	subs	r7, #4
     546:	6038      	str	r0, [r7, #0]
     548:	f847 6d04 	str.w	r6, [r7, #-4]!
     54c:	3f04      	subs	r7, #4
     54e:	603a      	str	r2, [r7, #0]
     550:	000e      	movs	r6, r1
     552:	4770      	bx	lr

00000554 <dswap_allocator>:
     554:	b500      	push	{lr}
     556:	f7ff ff50 	bl	3fa <expect_four_elements>
     55a:	6802      	ldr	r2, [r0, #0]
     55c:	6903      	ldr	r3, [r0, #16]
     55e:	6003      	str	r3, [r0, #0]
     560:	6102      	str	r2, [r0, #16]
     562:	6842      	ldr	r2, [r0, #4]
     564:	6943      	ldr	r3, [r0, #20]
     566:	6043      	str	r3, [r0, #4]
     568:	6142      	str	r2, [r0, #20]
     56a:	6882      	ldr	r2, [r0, #8]
     56c:	6983      	ldr	r3, [r0, #24]
     56e:	6083      	str	r3, [r0, #8]
     570:	6182      	str	r2, [r0, #24]
     572:	68c2      	ldr	r2, [r0, #12]
     574:	69c3      	ldr	r3, [r0, #28]
     576:	60c3      	str	r3, [r0, #12]
     578:	61c2      	str	r2, [r0, #28]
     57a:	bd00      	pop	{pc}

0000057c <Dictionary_74>:
     57c:	000005a4 	andeq	r0, r0, r4, lsr #11
     580:	32040262 	andcc	r0, r4, #536870918	; 0x20000006
     584:	0070696e 	rsbseq	r6, r0, lr, ror #18

00000588 <Code_74>:
     588:	cf07      	ldmia	r7!, {r0, r1, r2}
     58a:	3f04      	subs	r7, #4
     58c:	6038      	str	r0, [r7, #0]
     58e:	4770      	bx	lr
     590:	b500      	push	{lr}
     592:	f7ff ff32 	bl	3fa <expect_four_elements>
     596:	f7ff ffdd 	bl	554 <dswap_allocator>
     59a:	f7ff fe06 	bl	1aa <eliminiere_tos>
     59e:	f7ff fe04 	bl	1aa <eliminiere_tos>
     5a2:	bd00      	pop	{pc}

000005a4 <Dictionary_75>:
     5a4:	000005be 			; <UNDEFINED> instruction: 0x000005be
     5a8:	32050044 	andcc	r0, r5, #68	; 0x44
     5ac:	7265766f 	rsbvc	r7, r5, #116391936	; 0x6f00000

000005b0 <Code_75>:
     5b0:	68b8      	ldr	r0, [r7, #8]
     5b2:	f847 6d04 	str.w	r6, [r7, #-4]!
     5b6:	3f04      	subs	r7, #4
     5b8:	6038      	str	r0, [r7, #0]
     5ba:	68fe      	ldr	r6, [r7, #12]
     5bc:	4770      	bx	lr

000005be <Dictionary_77>:
     5be:	000005e2 	andeq	r0, r0, r2, ror #11
     5c2:	32050044 	andcc	r0, r5, #68	; 0x44
     5c6:	6b637574 	blvs	18ddb9e <BIT24+0x8ddb9e>

000005ca <Code_77>:
     5ca:	cf07      	ldmia	r7!, {r0, r1, r2}
     5cc:	3f04      	subs	r7, #4
     5ce:	6038      	str	r0, [r7, #0]
     5d0:	f847 6d04 	str.w	r6, [r7, #-4]!
     5d4:	3f04      	subs	r7, #4
     5d6:	603a      	str	r2, [r7, #0]
     5d8:	3f04      	subs	r7, #4
     5da:	6039      	str	r1, [r7, #0]
     5dc:	3f04      	subs	r7, #4
     5de:	6038      	str	r0, [r7, #0]
     5e0:	4770      	bx	lr

000005e2 <Dictionary_79>:
     5e2:	00000604 	andeq	r0, r0, r4, lsl #12
     5e6:	32040046 	andcc	r0, r4, #70	; 0x46
     5ea:	00746f72 	rsbseq	r6, r4, r2, ror pc

000005ee <Code_79>:
     5ee:	6838      	ldr	r0, [r7, #0]
     5f0:	68b9      	ldr	r1, [r7, #8]
     5f2:	693a      	ldr	r2, [r7, #16]
     5f4:	60b8      	str	r0, [r7, #8]
     5f6:	6139      	str	r1, [r7, #16]
     5f8:	603a      	str	r2, [r7, #0]
     5fa:	6879      	ldr	r1, [r7, #4]
     5fc:	607e      	str	r6, [r7, #4]
     5fe:	68fe      	ldr	r6, [r7, #12]
     600:	60f9      	str	r1, [r7, #12]
     602:	4770      	bx	lr

00000604 <Dictionary_80>:
     604:	00000626 	andeq	r0, r0, r6, lsr #12
     608:	32050046 	andcc	r0, r5, #70	; 0x46
     60c:	746f722d 	strbtvc	r7, [pc], #-557	; 614 <Code_80+0x4>

00000610 <Code_80>:
     610:	6838      	ldr	r0, [r7, #0]
     612:	68b9      	ldr	r1, [r7, #8]
     614:	693a      	ldr	r2, [r7, #16]
     616:	6138      	str	r0, [r7, #16]
     618:	6039      	str	r1, [r7, #0]
     61a:	60ba      	str	r2, [r7, #8]
     61c:	68f9      	ldr	r1, [r7, #12]
     61e:	60fe      	str	r6, [r7, #12]
     620:	687e      	ldr	r6, [r7, #4]
     622:	6079      	str	r1, [r7, #4]
     624:	4770      	bx	lr

00000626 <Dictionary_81>:
     626:	0000064e 	andeq	r0, r0, lr, asr #12
     62a:	32030220 	andcc	r0, r3, #2
     62e:	cf01723e 	svcgt	0x0001723e

00000630 <Code_81>:
     630:	cf01      	ldmia	r7!, {r0}
     632:	b401      	push	{r0}
     634:	b440      	push	{r6}
     636:	cf40      	ldmia	r7!, {r6}
     638:	4770      	bx	lr
     63a:	b500      	push	{lr}
     63c:	f7ff ff49 	bl	4d2 <push_lr_nachholen>
     640:	f000 fc11 	bl	e66 <swap_allocator>
     644:	f000 fcb1 	bl	faa <allocator_to_r>
     648:	f000 fcaf 	bl	faa <allocator_to_r>
     64c:	bd00      	pop	{pc}

0000064e <Dictionary_82>:
     64e:	0000067a 	andeq	r0, r0, sl, ror r6
     652:	32030220 	andcc	r0, r3, #2
     656:	f8473e72 			; <UNDEFINED> instruction: 0xf8473e72

00000658 <Code_82>:
     658:	f847 6d04 	str.w	r6, [r7, #-4]!
     65c:	bc40      	pop	{r6}
     65e:	bc01      	pop	{r0}
     660:	3f04      	subs	r7, #4
     662:	6038      	str	r0, [r7, #0]
     664:	4770      	bx	lr
     666:	b500      	push	{lr}
     668:	f7ff ff33 	bl	4d2 <push_lr_nachholen>
     66c:	f000 fcb9 	bl	fe2 <allocator_r_from>
     670:	f000 fcb7 	bl	fe2 <allocator_r_from>
     674:	f000 fbf7 	bl	e66 <swap_allocator>
     678:	bd00      	pop	{pc}

0000067a <Dictionary_84>:
     67a:	000006aa 	andeq	r0, r0, sl, lsr #13
     67e:	32030220 	andcc	r0, r3, #2
     682:	f8474072 			; <UNDEFINED> instruction: 0xf8474072

00000684 <Code_84>:
     684:	f847 6d04 	str.w	r6, [r7, #-4]!
     688:	9e01      	ldr	r6, [sp, #4]
     68a:	f847 6d04 	str.w	r6, [r7, #-4]!
     68e:	9e00      	ldr	r6, [sp, #0]
     690:	4770      	bx	lr
     692:	b500      	push	{lr}
     694:	f7ff ff1d 	bl	4d2 <push_lr_nachholen>
     698:	f847 6d04 	str.w	r6, [r7, #-4]!
     69c:	f649 0601 	movw	r6, #38913	; 0x9801
     6a0:	f003 fa45 	bl	3b2e <loop_j_allocator>
     6a4:	f003 fa3f 	bl	3b26 <rfetch_allocator>
     6a8:	bd00      	pop	{pc}

000006aa <Dictionary_89>:
     6aa:	000006d0 	ldrdeq	r0, [r0], -r0	; <UNPREDICTABLE>
     6ae:	32060220 	andcc	r0, r6, #2
     6b2:	6f726472 	svcvs	0x00726472
     6b6:	b0020070 	andlt	r0, r2, r0, ror r0

000006b8 <Code_89>:
     6b8:	b002      	add	sp, #8
     6ba:	4770      	bx	lr
     6bc:	b500      	push	{lr}
     6be:	f7ff ff08 	bl	4d2 <push_lr_nachholen>
     6c2:	f847 6d04 	str.w	r6, [r7, #-4]!
     6c6:	f24b 0602 	movw	r6, #45058	; 0xb002
     6ca:	f002 fd24 	bl	3116 <Code_795>
     6ce:	bd00      	pop	{pc}

000006d0 <Dictionary_92>:
     6d0:	000006e8 	andeq	r0, r0, r8, ror #13
     6d4:	64030042 	strvs	r0, [r3], #-66	; 0x42
     6d8:	68382f32 	ldmdavs	r8!, {r1, r4, r5, r8, r9, sl, fp, sp}

000006da <Code_92>:
     6da:	6838      	ldr	r0, [r7, #0]
     6dc:	07f1      	lsls	r1, r6, #31
     6de:	1076      	asrs	r6, r6, #1
     6e0:	0840      	lsrs	r0, r0, #1
     6e2:	4308      	orrs	r0, r1
     6e4:	6038      	str	r0, [r7, #0]
     6e6:	4770      	bx	lr

000006e8 <Dictionary_93>:
     6e8:	000006fe 	strdeq	r0, [r0], -lr
     6ec:	64030262 	strvs	r0, [r3], #-610	; 0x262
     6f0:	68382a32 	ldmdavs	r8!, {r1, r4, r5, r9, fp, sp}

000006f2 <Code_93>:
     6f2:	6838      	ldr	r0, [r7, #0]
     6f4:	1800      	adds	r0, r0, r0
     6f6:	4176      	adcs	r6, r6
     6f8:	6038      	str	r0, [r7, #0]
     6fa:	4770      	bx	lr
     6fc:	e017      	b.n	72e <Code_95+0xa>

000006fe <Dictionary_94>:
     6fe:	00000718 	andeq	r0, r0, r8, lsl r7
     702:	64040042 	strvs	r0, [r4], #-66	; 0x42
     706:	00726873 	rsbseq	r6, r2, r3, ror r8

0000070a <Code_94>:
     70a:	6838      	ldr	r0, [r7, #0]
     70c:	07f1      	lsls	r1, r6, #31
     70e:	0876      	lsrs	r6, r6, #1
     710:	0840      	lsrs	r0, r0, #1
     712:	4308      	orrs	r0, r1
     714:	6038      	str	r0, [r7, #0]
     716:	4770      	bx	lr

00000718 <Dictionary_95>:
     718:	00000764 	andeq	r0, r0, r4, ror #14
     71c:	64040262 	strvs	r0, [r4], #-610	; 0x262
     720:	006c6873 	rsbeq	r6, ip, r3, ror r8

00000724 <Code_95>:
     724:	6838      	ldr	r0, [r7, #0]
     726:	1800      	adds	r0, r0, r0
     728:	4176      	adcs	r6, r6
     72a:	6038      	str	r0, [r7, #0]
     72c:	4770      	bx	lr
     72e:	b500      	push	{lr}
     730:	f7ff fe46 	bl	3c0 <expect_two_elements>
     734:	f7ff fe76 	bl	424 <expect_tos_in_register>
     738:	f7ff fea9 	bl	48e <make_tos_changeable>
     73c:	f000 fb93 	bl	e66 <swap_allocator>
     740:	f7ff fe70 	bl	424 <expect_tos_in_register>
     744:	f7ff fea3 	bl	48e <make_tos_changeable>
     748:	f847 6d04 	str.w	r6, [r7, #-4]!
     74c:	2640      	movs	r6, #64	; 0x40
     74e:	f001 fc77 	bl	2040 <smalltworegisters>
     752:	f000 fb88 	bl	e66 <swap_allocator>
     756:	f847 6d04 	str.w	r6, [r7, #-4]!
     75a:	f244 1640 	movw	r6, #16704	; 0x4140
     75e:	f001 fc6f 	bl	2040 <smalltworegisters>
     762:	bd00      	pop	{pc}

00000764 <Dictionary_100>:
     764:	00000776 	andeq	r0, r0, r6, ror r7
     768:	64040042 	strvs	r0, [r4], #-66	; 0x42
     76c:	00736261 	rsbseq	r6, r3, r1, ror #4

00000770 <Code_100>:
     770:	2e00      	cmp	r6, #0
     772:	d407      	bmi.n	784 <Code_101>
     774:	4770      	bx	lr

00000776 <Dictionary_101>:
     776:	00000794 	muleq	r0, r4, r7
     77a:	64070042 	strvs	r0, [r7], #-66	; 0x42
     77e:	6167656e 	cmnvs	r7, lr, ror #10
     782:	68386574 	ldmdavs	r8!, {r2, r4, r5, r6, r8, sl, sp, lr}

00000784 <Code_101>:
     784:	6838      	ldr	r0, [r7, #0]
     786:	2100      	movs	r1, #0
     788:	43c0      	mvns	r0, r0
     78a:	43f6      	mvns	r6, r6
     78c:	3001      	adds	r0, #1
     78e:	414e      	adcs	r6, r1
     790:	6038      	str	r0, [r7, #0]
     792:	4770      	bx	lr

00000794 <Dictionary_102>:
     794:	000007e4 	andeq	r0, r0, r4, ror #15
     798:	64020264 	strvs	r0, [r2], #-612	; 0x264
     79c:	cf07002d 	svcgt	0x0007002d

0000079e <Code_102>:
     79e:	cf07      	ldmia	r7!, {r0, r1, r2}
     7a0:	1a12      	subs	r2, r2, r0
     7a2:	41b1      	sbcs	r1, r6
     7a4:	000e      	movs	r6, r1
     7a6:	3f04      	subs	r7, #4
     7a8:	603a      	str	r2, [r7, #0]
     7aa:	4770      	bx	lr
     7ac:	b500      	push	{lr}
     7ae:	f7ff fe24 	bl	3fa <expect_four_elements>
     7b2:	f000 fbad 	bl	f10 <rot_allocator>
     7b6:	f7ff fe35 	bl	424 <expect_tos_in_register>
     7ba:	f7ff fe68 	bl	48e <make_tos_changeable>
     7be:	f000 fb52 	bl	e66 <swap_allocator>
     7c2:	f7ff fe2f 	bl	424 <expect_tos_in_register>
     7c6:	f7ff fe62 	bl	48e <make_tos_changeable>
     7ca:	f7ff fec3 	bl	554 <dswap_allocator>
     7ce:	f001 fba1 	bl	1f14 <minus_allocator>
     7d2:	f000 fbb9 	bl	f48 <minusrot_allocator>
     7d6:	f847 6d04 	str.w	r6, [r7, #-4]!
     7da:	f244 1680 	movw	r6, #16768	; 0x4180
     7de:	f000 fd45 	bl	126c <alloc_unkommutativ>
     7e2:	bd00      	pop	{pc}

000007e4 <Dictionary_105>:
     7e4:	00000832 	andeq	r0, r0, r2, lsr r8
     7e8:	64020264 	strvs	r0, [r2], #-612	; 0x264
     7ec:	cf07002b 	svcgt	0x0007002b

000007ee <Code_105>:
     7ee:	cf07      	ldmia	r7!, {r0, r1, r2}
     7f0:	1812      	adds	r2, r2, r0
     7f2:	414e      	adcs	r6, r1
     7f4:	3f04      	subs	r7, #4
     7f6:	603a      	str	r2, [r7, #0]
     7f8:	4770      	bx	lr
     7fa:	b500      	push	{lr}
     7fc:	f7ff fdfd 	bl	3fa <expect_four_elements>
     800:	f000 fb86 	bl	f10 <rot_allocator>
     804:	f7ff fe0e 	bl	424 <expect_tos_in_register>
     808:	f7ff fe41 	bl	48e <make_tos_changeable>
     80c:	f000 fb2b 	bl	e66 <swap_allocator>
     810:	f7ff fe08 	bl	424 <expect_tos_in_register>
     814:	f7ff fe3b 	bl	48e <make_tos_changeable>
     818:	f7ff fe9c 	bl	554 <dswap_allocator>
     81c:	f001 fb5f 	bl	1ede <plus_allocator>
     820:	f000 fb92 	bl	f48 <minusrot_allocator>
     824:	f847 6d04 	str.w	r6, [r7, #-4]!
     828:	f244 1640 	movw	r6, #16704	; 0x4140
     82c:	f000 fd22 	bl	1274 <alloc_kommutativ>
     830:	bd00      	pop	{pc}

00000832 <Dictionary_108>:
     832:	0000085c 	andeq	r0, r0, ip, asr r8
     836:	73030261 	movwvc	r0, #12897	; 0x3261
     83a:	f847643e 			; <UNDEFINED> instruction: 0xf847643e

0000083c <Code_108>:
     83c:	f847 6d04 	str.w	r6, [r7, #-4]!
     840:	17f6      	asrs	r6, r6, #31
     842:	4770      	bx	lr
     844:	b500      	push	{lr}
     846:	f000 fad9 	bl	dfc <dup_allocator>
     84a:	f7ff fe20 	bl	48e <make_tos_changeable>
     84e:	f847 6d04 	str.w	r6, [r7, #-4]!
     852:	f241 76c0 	movw	r6, #6080	; 0x17c0
     856:	f001 fbf3 	bl	2040 <smalltworegisters>
     85a:	bd00      	pop	{pc}

0000085c <Dictionary_112>:
     85c:	000008ba 			; <UNDEFINED> instruction: 0x000008ba
     860:	75030262 	strvc	r0, [r3, #-610]	; 0x262
     864:	68382a6d 	ldmdavs	r8!, {r0, r2, r3, r5, r6, r9, fp, sp}

00000866 <Code_112>:
     866:	6838      	ldr	r0, [r7, #0]
     868:	fba0 0606 	umull	r0, r6, r0, r6
     86c:	6038      	str	r0, [r7, #0]
     86e:	4770      	bx	lr
     870:	f847 6d04 	str.w	r6, [r7, #-4]!
     874:	f8df 6528 	ldr.w	r6, [pc, #1320]	; da0 <dgleichungleich_common+0x1e>

00000878 <alloc_multiplikation_m3>:
     878:	b500      	push	{lr}
     87a:	f7ff fda1 	bl	3c0 <expect_two_elements>
     87e:	f7ff fdd1 	bl	424 <expect_tos_in_register>
     882:	f7ff fdd9 	bl	438 <expect_nos_in_register>
     886:	6801      	ldr	r1, [r0, #0]
     888:	430e      	orrs	r6, r1
     88a:	6881      	ldr	r1, [r0, #8]
     88c:	ea56 4601 	orrs.w	r6, r6, r1, lsl #16
     890:	f7ff fc8b 	bl	1aa <eliminiere_tos>
     894:	f7ff fc89 	bl	1aa <eliminiere_tos>
     898:	f7ff fc7d 	bl	196 <befreie_tos>
     89c:	f7ff fd52 	bl	344 <get_free_register>
     8a0:	6003      	str	r3, [r0, #0]
     8a2:	ea56 3603 	orrs.w	r6, r6, r3, lsl #12
     8a6:	f7ff fc76 	bl	196 <befreie_tos>
     8aa:	f7ff fd4b 	bl	344 <get_free_register>
     8ae:	6003      	str	r3, [r0, #0]
     8b0:	ea56 2603 	orrs.w	r6, r6, r3, lsl #8
     8b4:	f002 fc5e 	bl	3174 <Code_804>
     8b8:	bd00      	pop	{pc}

000008ba <Dictionary_114>:
     8ba:	000008d8 	ldrdeq	r0, [r0], -r8
     8be:	6d020262 	sfmvs	f0, 4, [r2, #-392]	; 0xfffffe78
     8c2:	6838002a 	ldmdavs	r8!, {r1, r3, r5}

000008c4 <Code_114>:
     8c4:	6838      	ldr	r0, [r7, #0]
     8c6:	fb80 0606 	smull	r0, r6, r0, r6
     8ca:	6038      	str	r0, [r7, #0]
     8cc:	4770      	bx	lr
     8ce:	f847 6d04 	str.w	r6, [r7, #-4]!
     8d2:	f8df 64d0 	ldr.w	r6, [pc, #1232]	; da4 <dgleichungleich_common+0x22>
     8d6:	e7cf      	b.n	878 <alloc_multiplikation_m3>

000008d8 <Dictionary_116>:
     8d8:	00000916 	andeq	r0, r0, r6, lsl r9
     8dc:	75030044 	strvc	r0, [r3, #-68]	; 0x44
     8e0:	cf072a64 	svcgt	0x00072a64

000008e2 <Code_116>:
     8e2:	cf07      	ldmia	r7!, {r0, r1, r2}
     8e4:	4356      	muls	r6, r2
     8e6:	4341      	muls	r1, r0
     8e8:	1876      	adds	r6, r6, r1
     8ea:	0c01      	lsrs	r1, r0, #16
     8ec:	0c13      	lsrs	r3, r2, #16
     8ee:	4359      	muls	r1, r3
     8f0:	1876      	adds	r6, r6, r1
     8f2:	0c01      	lsrs	r1, r0, #16
     8f4:	b280      	uxth	r0, r0
     8f6:	b292      	uxth	r2, r2
     8f8:	4351      	muls	r1, r2
     8fa:	4343      	muls	r3, r0
     8fc:	4350      	muls	r0, r2
     8fe:	2200      	movs	r2, #0
     900:	18c9      	adds	r1, r1, r3
     902:	4152      	adcs	r2, r2
     904:	0412      	lsls	r2, r2, #16
     906:	18b6      	adds	r6, r6, r2
     908:	040a      	lsls	r2, r1, #16
     90a:	0c09      	lsrs	r1, r1, #16
     90c:	1880      	adds	r0, r0, r2
     90e:	414e      	adcs	r6, r1
     910:	3f04      	subs	r7, #4
     912:	6038      	str	r0, [r7, #0]
     914:	4770      	bx	lr

00000916 <Dictionary_117>:
     916:	000009a8 	andeq	r0, r0, r8, lsr #19
     91a:	75040044 	strvc	r0, [r4, #-68]	; 0x44
     91e:	002a6d64 	eoreq	r6, sl, r4, ror #26

00000922 <Code_117>:
     922:	b510      	push	{r4, lr}
     924:	2400      	movs	r4, #0
     926:	f847 6d04 	str.w	r6, [r7, #-4]!
     92a:	687e      	ldr	r6, [r7, #4]
     92c:	f847 6d04 	str.w	r6, [r7, #-4]!
     930:	693e      	ldr	r6, [r7, #16]
     932:	f7ff ff98 	bl	866 <Code_112>
     936:	0031      	movs	r1, r6
     938:	cf40      	ldmia	r7!, {r6}
     93a:	0030      	movs	r0, r6
     93c:	cf40      	ldmia	r7!, {r6}
     93e:	f847 6d04 	str.w	r6, [r7, #-4]!
     942:	683e      	ldr	r6, [r7, #0]
     944:	f847 6d04 	str.w	r6, [r7, #-4]!
     948:	68fe      	ldr	r6, [r7, #12]
     94a:	b403      	push	{r0, r1}
     94c:	f7ff ff8b 	bl	866 <Code_112>
     950:	bc03      	pop	{r0, r1}
     952:	0033      	movs	r3, r6
     954:	cf40      	ldmia	r7!, {r6}
     956:	0032      	movs	r2, r6
     958:	cf40      	ldmia	r7!, {r6}
     95a:	f847 6d04 	str.w	r6, [r7, #-4]!
     95e:	683e      	ldr	r6, [r7, #0]
     960:	f847 6d04 	str.w	r6, [r7, #-4]!
     964:	693e      	ldr	r6, [r7, #16]
     966:	b40f      	push	{r0, r1, r2, r3}
     968:	f7ff ff7d 	bl	866 <Code_112>
     96c:	bc0f      	pop	{r0, r1, r2, r3}
     96e:	1992      	adds	r2, r2, r6
     970:	4163      	adcs	r3, r4
     972:	cf40      	ldmia	r7!, {r6}
     974:	1989      	adds	r1, r1, r6
     976:	4162      	adcs	r2, r4
     978:	4163      	adcs	r3, r4
     97a:	cf40      	ldmia	r7!, {r6}
     97c:	f847 6d04 	str.w	r6, [r7, #-4]!
     980:	687e      	ldr	r6, [r7, #4]
     982:	f847 6d04 	str.w	r6, [r7, #-4]!
     986:	68fe      	ldr	r6, [r7, #12]
     988:	b40f      	push	{r0, r1, r2, r3}
     98a:	f7ff ff6c 	bl	866 <Code_112>
     98e:	bc0f      	pop	{r0, r1, r2, r3}
     990:	1992      	adds	r2, r2, r6
     992:	4163      	adcs	r3, r4
     994:	cf40      	ldmia	r7!, {r6}
     996:	1989      	adds	r1, r1, r6
     998:	4162      	adcs	r2, r4
     99a:	4163      	adcs	r3, r4
     99c:	cf40      	ldmia	r7!, {r6}
     99e:	001e      	movs	r6, r3
     9a0:	603a      	str	r2, [r7, #0]
     9a2:	6079      	str	r1, [r7, #4]
     9a4:	60b8      	str	r0, [r7, #8]
     9a6:	bd10      	pop	{r4, pc}

000009a8 <Dictionary_134>:
     9a8:	000009ca 	andeq	r0, r0, sl, asr #19
     9ac:	2a020043 	bcs	80ac0 <BIT19+0xac0>
     9b0:	b500002f 	strlt	r0, [r0, #-47]	; 0x2f

000009b2 <Code_134>:
     9b2:	b500      	push	{lr}
     9b4:	b440      	push	{r6}
     9b6:	cf40      	ldmia	r7!, {r6}
     9b8:	f7ff ff84 	bl	8c4 <Code_114>
     9bc:	f847 6d04 	str.w	r6, [r7, #-4]!
     9c0:	bc40      	pop	{r6}
     9c2:	f000 f84c 	bl	a5e <Code_157>
     9c6:	3704      	adds	r7, #4
     9c8:	bd00      	pop	{pc}

000009ca <Dictionary_139>:
     9ca:	000009ec 	andeq	r0, r0, ip, ror #19
     9ce:	2a050043 	bcs	140ae2 <BIT20+0x40ae2>
     9d2:	646f6d2f 	strbtvs	r6, [pc], #-3375	; 9da <Code_139+0x4>

000009d6 <Code_139>:
     9d6:	b500      	push	{lr}
     9d8:	b440      	push	{r6}
     9da:	cf40      	ldmia	r7!, {r6}
     9dc:	f7ff ff72 	bl	8c4 <Code_114>
     9e0:	f847 6d04 	str.w	r6, [r7, #-4]!
     9e4:	bc40      	pop	{r6}
     9e6:	f000 f83a 	bl	a5e <Code_157>
     9ea:	bd00      	pop	{pc}

000009ec <Dictionary_143>:
     9ec:	00000a0e 	andeq	r0, r0, lr, lsl #20
     9f0:	75030043 	strvc	r0, [r3, #-67]	; 0x43
     9f4:	b5002f2a 	strlt	r2, [r0, #-3882]	; 0xf2a

000009f6 <Code_143>:
     9f6:	b500      	push	{lr}
     9f8:	b440      	push	{r6}
     9fa:	cf40      	ldmia	r7!, {r6}
     9fc:	f7ff ff33 	bl	866 <Code_112>
     a00:	f847 6d04 	str.w	r6, [r7, #-4]!
     a04:	bc40      	pop	{r6}
     a06:	f000 f81b 	bl	a40 <Code_152>
     a0a:	3704      	adds	r7, #4
     a0c:	bd00      	pop	{pc}

00000a0e <Dictionary_148>:
     a0e:	00000a32 	andeq	r0, r0, r2, lsr sl
     a12:	75060043 	strvc	r0, [r6, #-67]	; 0x43
     a16:	6f6d2f2a 	svcvs	0x006d2f2a
     a1a:	b5000064 	strlt	r0, [r0, #-100]	; 0x64

00000a1c <Code_148>:
     a1c:	b500      	push	{lr}
     a1e:	b440      	push	{r6}
     a20:	cf40      	ldmia	r7!, {r6}
     a22:	f7ff ff20 	bl	866 <Code_112>
     a26:	f847 6d04 	str.w	r6, [r7, #-4]!
     a2a:	bc40      	pop	{r6}
     a2c:	f000 f808 	bl	a40 <Code_152>
     a30:	bd00      	pop	{pc}

00000a32 <Dictionary_152>:
     a32:	00000a52 	andeq	r0, r0, r2, asr sl
     a36:	75060043 	strvc	r0, [r6, #-67]	; 0x43
     a3a:	6f6d2f6d 	svcvs	0x006d2f6d
     a3e:	b5000064 	strlt	r0, [r0, #-100]	; 0x64

00000a40 <Code_152>:
     a40:	b500      	push	{lr}
     a42:	f847 6d04 	str.w	r6, [r7, #-4]!
     a46:	2600      	movs	r6, #0
     a48:	f000 f819 	bl	a7e <Code_161>
     a4c:	cf40      	ldmia	r7!, {r6}
     a4e:	3704      	adds	r7, #4
     a50:	bd00      	pop	{pc}

00000a52 <Dictionary_157>:
     a52:	00000a70 	andeq	r0, r0, r0, ror sl
     a56:	6d050043 	stcvs	0, cr0, [r5, #-268]	; 0xfffffef4
     a5a:	646f6d2f 	strbtvs	r6, [pc], #-3375	; a62 <Code_157+0x4>

00000a5e <Code_157>:
     a5e:	b500      	push	{lr}
     a60:	f847 6d04 	str.w	r6, [r7, #-4]!
     a64:	17f6      	asrs	r6, r6, #31
     a66:	f000 f832 	bl	ace <Code_163>
     a6a:	cf40      	ldmia	r7!, {r6}
     a6c:	3704      	adds	r7, #4
     a6e:	bd00      	pop	{pc}

00000a70 <Dictionary_161>:
     a70:	00000ac2 	andeq	r0, r0, r2, asr #21
     a74:	75060044 	strvc	r0, [r6, #-68]	; 0x44
     a78:	6f6d2f64 	svcvs	0x006d2f64
     a7c:	b4300064 	ldrtlt	r0, [r0], #-100	; 0x64

00000a7e <Code_161>:
     a7e:	b430      	push	{r4, r5}
     a80:	2300      	movs	r3, #0
     a82:	2200      	movs	r2, #0
     a84:	6879      	ldr	r1, [r7, #4]
     a86:	68b8      	ldr	r0, [r7, #8]

00000a88 <ud_slash_mod_internal>:
     a88:	0035      	movs	r5, r6
     a8a:	683c      	ldr	r4, [r7, #0]
     a8c:	2640      	movs	r6, #64	; 0x40
     a8e:	0040      	lsls	r0, r0, #1
     a90:	4149      	adcs	r1, r1
     a92:	4152      	adcs	r2, r2
     a94:	415b      	adcs	r3, r3
     a96:	42ab      	cmp	r3, r5
     a98:	d802      	bhi.n	aa0 <ud_slash_mod_internal+0x18>
     a9a:	d304      	bcc.n	aa6 <ud_slash_mod_internal+0x1e>
     a9c:	42a2      	cmp	r2, r4
     a9e:	d302      	bcc.n	aa6 <ud_slash_mod_internal+0x1e>
     aa0:	1b12      	subs	r2, r2, r4
     aa2:	41ab      	sbcs	r3, r5
     aa4:	3001      	adds	r0, #1
     aa6:	3e01      	subs	r6, #1
     aa8:	d1f1      	bne.n	a8e <ud_slash_mod_internal+0x6>
     aaa:	000e      	movs	r6, r1
     aac:	6038      	str	r0, [r7, #0]
     aae:	607b      	str	r3, [r7, #4]
     ab0:	60ba      	str	r2, [r7, #8]
     ab2:	bc30      	pop	{r4, r5}
     ab4:	4770      	bx	lr

00000ab6 <uf_slash_mod>:
     ab6:	b430      	push	{r4, r5}
     ab8:	2300      	movs	r3, #0
     aba:	687a      	ldr	r2, [r7, #4]
     abc:	68b9      	ldr	r1, [r7, #8]
     abe:	2000      	movs	r0, #0
     ac0:	e7e2      	b.n	a88 <ud_slash_mod_internal>

00000ac2 <Dictionary_163>:
     ac2:	00000b38 	andeq	r0, r0, r8, lsr fp
     ac6:	64050044 	strvs	r0, [r5], #-68	; 0x44
     aca:	646f6d2f 	strbtvs	r6, [pc], #-3375	; ad2 <Code_163+0x4>

00000ace <Code_163>:
     ace:	b500      	push	{lr}
     ad0:	17f0      	asrs	r0, r6, #31
     ad2:	d019      	beq.n	b08 <Code_163+0x3a>
     ad4:	f7ff fe56 	bl	784 <Code_101>
     ad8:	f7ff fd33 	bl	542 <Code_72>
     adc:	17f0      	asrs	r0, r6, #31
     ade:	d00c      	beq.n	afa <Code_163+0x2c>
     ae0:	f7ff fe50 	bl	784 <Code_101>
     ae4:	f7ff fd2d 	bl	542 <Code_72>
     ae8:	f7ff ffc9 	bl	a7e <Code_161>
     aec:	f7ff fd29 	bl	542 <Code_72>
     af0:	f7ff fe48 	bl	784 <Code_101>
     af4:	f7ff fd25 	bl	542 <Code_72>
     af8:	bd00      	pop	{pc}
     afa:	f7ff fd22 	bl	542 <Code_72>
     afe:	f7ff ffbe 	bl	a7e <Code_161>
     b02:	f7ff fe3f 	bl	784 <Code_101>
     b06:	bd00      	pop	{pc}
     b08:	f7ff fd1b 	bl	542 <Code_72>
     b0c:	17f0      	asrs	r0, r6, #31
     b0e:	d00e      	beq.n	b2e <Code_163+0x60>
     b10:	f7ff fe38 	bl	784 <Code_101>
     b14:	f7ff fd15 	bl	542 <Code_72>
     b18:	f7ff ffb1 	bl	a7e <Code_161>
     b1c:	f7ff fe32 	bl	784 <Code_101>
     b20:	f7ff fd0f 	bl	542 <Code_72>
     b24:	f7ff fe2e 	bl	784 <Code_101>
     b28:	f7ff fd0b 	bl	542 <Code_72>
     b2c:	bd00      	pop	{pc}
     b2e:	f7ff fd08 	bl	542 <Code_72>
     b32:	f7ff ffa4 	bl	a7e <Code_161>
     b36:	bd00      	pop	{pc}

00000b38 <Dictionary_164>:
     b38:	00000b4e 	andeq	r0, r0, lr, asr #22
     b3c:	64020044 	strvs	r0, [r2], #-68	; 0x44
     b40:	b500002f 	strlt	r0, [r0, #-47]	; 0x2f

00000b42 <Code_164>:
     b42:	b500      	push	{lr}
     b44:	f7ff ffc3 	bl	ace <Code_163>
     b48:	f7ff fd1e 	bl	588 <Code_74>
     b4c:	bd00      	pop	{pc}

00000b4e <Dictionary_165>:
     b4e:	00000b96 	muleq	r0, r6, fp
     b52:	66020044 	strvs	r0, [r2], -r4, asr #32
     b56:	b500002a 	strlt	r0, [r0, #-42]	; 0x2a

00000b58 <Code_165>:
     b58:	b500      	push	{lr}
     b5a:	17f0      	asrs	r0, r6, #31
     b5c:	d00d      	beq.n	b7a <Code_165+0x22>
     b5e:	f7ff fe11 	bl	784 <Code_101>
     b62:	f7ff fcee 	bl	542 <Code_72>
     b66:	17f0      	asrs	r0, r6, #31
     b68:	d00d      	beq.n	b86 <Code_165+0x2e>
     b6a:	f7ff fe0b 	bl	784 <Code_101>
     b6e:	f7ff fed8 	bl	922 <Code_117>
     b72:	cf40      	ldmia	r7!, {r6}
     b74:	cf01      	ldmia	r7!, {r0}
     b76:	6038      	str	r0, [r7, #0]
     b78:	bd00      	pop	{pc}
     b7a:	f7ff fce2 	bl	542 <Code_72>
     b7e:	17f0      	asrs	r0, r6, #31
     b80:	d0f5      	beq.n	b6e <Code_165+0x16>
     b82:	f7ff fdff 	bl	784 <Code_101>
     b86:	f7ff fecc 	bl	922 <Code_117>
     b8a:	cf40      	ldmia	r7!, {r6}
     b8c:	cf01      	ldmia	r7!, {r0}
     b8e:	6038      	str	r0, [r7, #0]
     b90:	f7ff fdf8 	bl	784 <Code_101>
     b94:	bd00      	pop	{pc}

00000b96 <Dictionary_168>:
     b96:	00000be2 	andeq	r0, r0, r2, ror #23
     b9a:	66020044 	strvs	r0, [r2], -r4, asr #32
     b9e:	b500002f 	strlt	r0, [r0, #-47]	; 0x2f

00000ba0 <Code_168>:
     ba0:	b500      	push	{lr}
     ba2:	17f0      	asrs	r0, r6, #31
     ba4:	d00e      	beq.n	bc4 <Code_168+0x24>
     ba6:	f7ff fded 	bl	784 <Code_101>
     baa:	f7ff fcca 	bl	542 <Code_72>
     bae:	17f0      	asrs	r0, r6, #31
     bb0:	d00e      	beq.n	bd0 <Code_168+0x30>
     bb2:	f7ff fde7 	bl	784 <Code_101>
     bb6:	f7ff fcc4 	bl	542 <Code_72>
     bba:	f7ff ff7c 	bl	ab6 <uf_slash_mod>
     bbe:	f7ff fce3 	bl	588 <Code_74>
     bc2:	bd00      	pop	{pc}
     bc4:	f7ff fcbd 	bl	542 <Code_72>
     bc8:	17f0      	asrs	r0, r6, #31
     bca:	d0f4      	beq.n	bb6 <Code_168+0x16>
     bcc:	f7ff fdda 	bl	784 <Code_101>
     bd0:	f7ff fcb7 	bl	542 <Code_72>
     bd4:	f7ff ff6f 	bl	ab6 <uf_slash_mod>
     bd8:	f7ff fdd4 	bl	784 <Code_101>
     bdc:	f7ff fcd4 	bl	588 <Code_74>
     be0:	bd00      	pop	{pc}

00000be2 <Dictionary_169>:
     be2:	00000c2a 	andeq	r0, r0, sl, lsr #24
     be6:	32020220 	andcc	r0, r2, #2
     bea:	cf060021 	svcgt	0x00060021

00000bec <Code_169>:
     bec:	cf06      	ldmia	r7!, {r1, r2}
     bee:	6031      	str	r1, [r6, #0]
     bf0:	6072      	str	r2, [r6, #4]
     bf2:	cf40      	ldmia	r7!, {r6}
     bf4:	4770      	bx	lr
     bf6:	b500      	push	{lr}
     bf8:	f7ff fbef 	bl	3da <expect_three_elements>
     bfc:	6801      	ldr	r1, [r0, #0]
     bfe:	6842      	ldr	r2, [r0, #4]
     c00:	b406      	push	{r1, r2}
     c02:	f000 fe06 	bl	1812 <allocator_4store>
     c06:	f7ff fac6 	bl	196 <befreie_tos>
     c0a:	bc06      	pop	{r1, r2}
     c0c:	6001      	str	r1, [r0, #0]
     c0e:	2928      	cmp	r1, #40	; 0x28
     c10:	d006      	beq.n	c20 <Code_169+0x34>
     c12:	f847 6d04 	str.w	r6, [r7, #-4]!
     c16:	f246 0640 	movw	r6, #24640	; 0x6040
     c1a:	f000 fdfe 	bl	181a <allocator_4store_anderer_opcode>
     c1e:	bd00      	pop	{pc}
     c20:	3204      	adds	r2, #4
     c22:	6042      	str	r2, [r0, #4]
     c24:	f000 fdf5 	bl	1812 <allocator_4store>
     c28:	bd00      	pop	{pc}

00000c2a <Dictionary_173>:
     c2a:	00000c74 	andeq	r0, r0, r4, ror ip
     c2e:	32020220 	andcc	r0, r2, #2
     c32:	3f040040 	svccc	0x00040040

00000c34 <Code_173>:
     c34:	3f04      	subs	r7, #4
     c36:	6870      	ldr	r0, [r6, #4]
     c38:	6038      	str	r0, [r7, #0]
     c3a:	6836      	ldr	r6, [r6, #0]
     c3c:	4770      	bx	lr
     c3e:	b500      	push	{lr}
     c40:	f000 f8dc 	bl	dfc <dup_allocator>
     c44:	6801      	ldr	r1, [r0, #0]
     c46:	2928      	cmp	r1, #40	; 0x28
     c48:	d00a      	beq.n	c60 <Code_173+0x2c>
     c4a:	f847 6d04 	str.w	r6, [r7, #-4]!
     c4e:	f646 0640 	movw	r6, #26688	; 0x6840
     c52:	f000 fdbf 	bl	17d4 <allocator_4fetch_anderer_opcode>
     c56:	f000 f906 	bl	e66 <swap_allocator>
     c5a:	f000 fdb7 	bl	17cc <allocator_4fetch>
     c5e:	bd00      	pop	{pc}
     c60:	6841      	ldr	r1, [r0, #4]
     c62:	3104      	adds	r1, #4
     c64:	6041      	str	r1, [r0, #4]
     c66:	f000 fdb1 	bl	17cc <allocator_4fetch>
     c6a:	f000 f8fc 	bl	e66 <swap_allocator>
     c6e:	f000 fdad 	bl	17cc <allocator_4fetch>
     c72:	bd00      	pop	{pc}

00000c74 <Dictionary_176>:
     c74:	00000c94 	muleq	r0, r4, ip
     c78:	64030044 	strvs	r0, [r3], #-68	; 0x44
     c7c:	cf073c75 	svcgt	0x00073c75

00000c7e <Code_176>:
     c7e:	cf07      	ldmia	r7!, {r0, r1, r2}
     c80:	428e      	cmp	r6, r1
     c82:	d804      	bhi.n	c8e <Code_176+0x10>
     c84:	d101      	bne.n	c8a <Code_176+0xc>
     c86:	4290      	cmp	r0, r2
     c88:	d801      	bhi.n	c8e <Code_176+0x10>
     c8a:	2600      	movs	r6, #0
     c8c:	4770      	bx	lr
     c8e:	2600      	movs	r6, #0
     c90:	43f6      	mvns	r6, r6
     c92:	4770      	bx	lr

00000c94 <Dictionary_177>:
     c94:	00000cb4 			; <UNDEFINED> instruction: 0x00000cb4
     c98:	64030044 	strvs	r0, [r3], #-68	; 0x44
     c9c:	cf073e75 	svcgt	0x00073e75

00000c9e <Code_177>:
     c9e:	cf07      	ldmia	r7!, {r0, r1, r2}
     ca0:	42b1      	cmp	r1, r6
     ca2:	d804      	bhi.n	cae <Code_177+0x10>
     ca4:	d101      	bne.n	caa <Code_177+0xc>
     ca6:	4282      	cmp	r2, r0
     ca8:	d801      	bhi.n	cae <Code_177+0x10>
     caa:	2600      	movs	r6, #0
     cac:	4770      	bx	lr
     cae:	2600      	movs	r6, #0
     cb0:	43f6      	mvns	r6, r6
     cb2:	4770      	bx	lr

00000cb4 <Dictionary_178>:
     cb4:	00000cd4 	ldrdeq	r0, [r0], -r4
     cb8:	64020044 	strvs	r0, [r2], #-68	; 0x44
     cbc:	cf07003c 	svcgt	0x0007003c

00000cbe <Code_178>:
     cbe:	cf07      	ldmia	r7!, {r0, r1, r2}
     cc0:	428e      	cmp	r6, r1
     cc2:	dc04      	bgt.n	cce <Code_178+0x10>
     cc4:	d101      	bne.n	cca <Code_178+0xc>
     cc6:	4290      	cmp	r0, r2
     cc8:	dc01      	bgt.n	cce <Code_178+0x10>
     cca:	2600      	movs	r6, #0
     ccc:	4770      	bx	lr
     cce:	2600      	movs	r6, #0
     cd0:	43f6      	mvns	r6, r6
     cd2:	4770      	bx	lr

00000cd4 <Dictionary_179>:
     cd4:	00000cf4 	strdeq	r0, [r0], -r4
     cd8:	64020044 	strvs	r0, [r2], #-68	; 0x44
     cdc:	cf07003e 	svcgt	0x0007003e

00000cde <Code_179>:
     cde:	cf07      	ldmia	r7!, {r0, r1, r2}
     ce0:	42b1      	cmp	r1, r6
     ce2:	dc04      	bgt.n	cee <Code_179+0x10>
     ce4:	d101      	bne.n	cea <Code_179+0xc>
     ce6:	4282      	cmp	r2, r0
     ce8:	dc01      	bgt.n	cee <Code_179+0x10>
     cea:	2600      	movs	r6, #0
     cec:	4770      	bx	lr
     cee:	2600      	movs	r6, #0
     cf0:	43f6      	mvns	r6, r6
     cf2:	4770      	bx	lr

00000cf4 <Dictionary_180>:
     cf4:	00000d10 	andeq	r0, r0, r0, lsl sp
     cf8:	64030262 	strvs	r0, [r3], #-610	; 0x262
     cfc:	37043c30 	smladxcc	r4, r0, ip, r3

00000cfe <Code_180>:
     cfe:	3704      	adds	r7, #4
     d00:	17f6      	asrs	r6, r6, #31
     d02:	4770      	bx	lr
     d04:	b500      	push	{lr}
     d06:	f000 f8c1 	bl	e8c <nip_allocator>
     d0a:	f000 fb3d 	bl	1388 <alloc_nullkleiner>
     d0e:	bd00      	pop	{pc}

00000d10 <Dictionary_181>:
     d10:	00000d38 	andeq	r0, r0, r8, lsr sp
     d14:	64030262 	strvs	r0, [r3], #-610	; 0x262
     d18:	cf013d30 	svcgt	0x00013d30

00000d1a <Code_181>:
     d1a:	cf01      	ldmia	r7!, {r0}
     d1c:	4306      	orrs	r6, r0
     d1e:	3e01      	subs	r6, #1
     d20:	41b6      	sbcs	r6, r6
     d22:	4770      	bx	lr
     d24:	b500      	push	{lr}
     d26:	f847 6d04 	str.w	r6, [r7, #-4]!
     d2a:	f244 3600 	movw	r6, #17152	; 0x4300
     d2e:	f000 faa1 	bl	1274 <alloc_kommutativ>
     d32:	f000 fb05 	bl	1340 <allocator_equal_zero>
     d36:	bd00      	pop	{pc}

00000d38 <Dictionary_184>:
     d38:	00000d5e 	andeq	r0, r0, lr, asr sp
     d3c:	64030244 	strvs	r0, [r3], #-580	; 0x244
     d40:	cf073e3c 	svcgt	0x00073e3c

00000d42 <Code_184>:
     d42:	cf07      	ldmia	r7!, {r0, r1, r2}
     d44:	4050      	eors	r0, r2
     d46:	404e      	eors	r6, r1
     d48:	4306      	orrs	r6, r0
     d4a:	3e01      	subs	r6, #1
     d4c:	41b6      	sbcs	r6, r6
     d4e:	43f6      	mvns	r6, r6
     d50:	4770      	bx	lr
     d52:	b500      	push	{lr}
     d54:	f000 f815 	bl	d82 <dgleichungleich_common>
     d58:	f000 fb05 	bl	1366 <allocator_unequal_zero>
     d5c:	bd00      	pop	{pc}

00000d5e <Dictionary_185>:
     d5e:	00000da8 	andeq	r0, r0, r8, lsr #27
     d62:	64020244 	strvs	r0, [r2], #-580	; 0x244
     d66:	cf07003d 	svcgt	0x0007003d

00000d68 <Code_185>:
     d68:	cf07      	ldmia	r7!, {r0, r1, r2}
     d6a:	4050      	eors	r0, r2
     d6c:	404e      	eors	r6, r1
     d6e:	4306      	orrs	r6, r0
     d70:	3e01      	subs	r6, #1
     d72:	41b6      	sbcs	r6, r6
     d74:	4770      	bx	lr
     d76:	b500      	push	{lr}
     d78:	f000 f803 	bl	d82 <dgleichungleich_common>
     d7c:	f000 fae0 	bl	1340 <allocator_equal_zero>
     d80:	bd00      	pop	{pc}

00000d82 <dgleichungleich_common>:
     d82:	b500      	push	{lr}
     d84:	f7ff fb39 	bl	3fa <expect_four_elements>
     d88:	f000 f8c2 	bl	f10 <rot_allocator>
     d8c:	f000 f9c4 	bl	1118 <xor_allocator>
     d90:	f000 f8da 	bl	f48 <minusrot_allocator>
     d94:	f000 f9c0 	bl	1118 <xor_allocator>
     d98:	f000 f9b1 	bl	10fe <or_allocator>
     d9c:	bd00      	pop	{pc}
     d9e:	00000000 	andeq	r0, r0, r0
     da2:	0000fba0 	andeq	pc, r0, r0, lsr #23
     da6:	0dbafb80 	ldceq	11, cr15, [sl, #512]!	; 0x200

00000da8 <Dictionary_186>:
     da8:	00000dba 			; <UNDEFINED> instruction: 0x00000dba
     dac:	73030020 	movwvc	r0, #12320	; 0x3020
     db0:	f8474070 			; <UNDEFINED> instruction: 0xf8474070

00000db2 <Code_186>:
     db2:	f847 6d04 	str.w	r6, [r7, #-4]!
     db6:	003e      	movs	r6, r7
     db8:	4770      	bx	lr

00000dba <Dictionary_188>:
     dba:	00000dca 	andeq	r0, r0, sl, asr #27
     dbe:	73030020 	movwvc	r0, #12320	; 0x3020
     dc2:	00372170 	eorseq	r2, r7, r0, ror r1

00000dc4 <Code_188>:
     dc4:	0037      	movs	r7, r6
     dc6:	cf40      	ldmia	r7!, {r6}
     dc8:	4770      	bx	lr

00000dca <Dictionary_189>:
     dca:	00000ddc 	ldrdeq	r0, [r0], -ip
     dce:	72030020 	andvc	r0, r3, #32
     dd2:	f8474070 			; <UNDEFINED> instruction: 0xf8474070

00000dd4 <Code_189>:
     dd4:	f847 6d04 	str.w	r6, [r7, #-4]!
     dd8:	466e      	mov	r6, sp
     dda:	4770      	bx	lr

00000ddc <Dictionary_191>:
     ddc:	00000dec 	andeq	r0, r0, ip, ror #27
     de0:	72030020 	andvc	r0, r3, #32
     de4:	46b52170 			; <UNDEFINED> instruction: 0x46b52170

00000de6 <Code_191>:
     de6:	46b5      	mov	sp, r6
     de8:	cf40      	ldmia	r7!, {r6}
     dea:	4770      	bx	lr

00000dec <Dictionary_192>:
     dec:	00000e10 	andeq	r0, r0, r0, lsl lr
     df0:	64030261 	strvs	r0, [r3], #-609	; 0x261
     df4:	f8477075 			; <UNDEFINED> instruction: 0xf8477075

00000df6 <Code_192>:
     df6:	f847 6d04 	str.w	r6, [r7, #-4]!
     dfa:	4770      	bx	lr

00000dfc <dup_allocator>:
     dfc:	b506      	push	{r1, r2, lr}
     dfe:	f7ff fad5 	bl	3ac <expect_one_element>
     e02:	6801      	ldr	r1, [r0, #0]
     e04:	6842      	ldr	r2, [r0, #4]
     e06:	f7ff f9c6 	bl	196 <befreie_tos>
     e0a:	6001      	str	r1, [r0, #0]
     e0c:	6042      	str	r2, [r0, #4]
     e0e:	bd06      	pop	{r1, r2, pc}

00000e10 <Dictionary_195>:
     e10:	00000e3c 	andeq	r0, r0, ip, lsr lr
     e14:	64040261 	strvs	r0, [r4], #-609	; 0x261
     e18:	00706f72 	rsbseq	r6, r0, r2, ror pc

00000e1c <Code_195>:
     e1c:	cf40      	ldmia	r7!, {r6}
     e1e:	4770      	bx	lr

00000e20 <drop_allocator>:
     e20:	b500      	push	{lr}
     e22:	6801      	ldr	r1, [r0, #0]
     e24:	291e      	cmp	r1, #30
     e26:	d106      	bne.n	e36 <drop_allocator+0x16>
     e28:	f847 6d04 	str.w	r6, [r7, #-4]!
     e2c:	f243 7604 	movw	r6, #14084	; 0x3704
     e30:	f002 f971 	bl	3116 <Code_795>
     e34:	bd00      	pop	{pc}
     e36:	f7ff f9b8 	bl	1aa <eliminiere_tos>
     e3a:	bd00      	pop	{pc}

00000e3c <Dictionary_199>:
     e3c:	00000e52 	andeq	r0, r0, r2, asr lr
     e40:	3f040061 	svccc	0x00040061
     e44:	00707564 	rsbseq	r7, r0, r4, ror #10

00000e48 <Code_199>:
     e48:	2e00      	cmp	r6, #0
     e4a:	d001      	beq.n	e50 <Code_199+0x8>
     e4c:	f847 6d04 	str.w	r6, [r7, #-4]!
     e50:	4770      	bx	lr

00000e52 <Dictionary_201>:
     e52:	00000e7e 	andeq	r0, r0, lr, ror lr
     e56:	73040262 	movwvc	r0, #16994	; 0x4262
     e5a:	00706177 	rsbseq	r6, r0, r7, ror r1

00000e5e <Code_201>:
     e5e:	6839      	ldr	r1, [r7, #0]
     e60:	603e      	str	r6, [r7, #0]
     e62:	000e      	movs	r6, r1
     e64:	4770      	bx	lr

00000e66 <swap_allocator>:
     e66:	b50c      	push	{r2, r3, lr}
     e68:	f7ff faaa 	bl	3c0 <expect_two_elements>
     e6c:	6802      	ldr	r2, [r0, #0]
     e6e:	6883      	ldr	r3, [r0, #8]
     e70:	6003      	str	r3, [r0, #0]
     e72:	6082      	str	r2, [r0, #8]
     e74:	6842      	ldr	r2, [r0, #4]
     e76:	68c3      	ldr	r3, [r0, #12]
     e78:	6043      	str	r3, [r0, #4]
     e7a:	60c2      	str	r2, [r0, #12]
     e7c:	bd0c      	pop	{r2, r3, pc}

00000e7e <Dictionary_202>:
     e7e:	00000eac 	andeq	r0, r0, ip, lsr #29
     e82:	6e030262 	cdpvs	2, 0, cr0, cr3, cr2, {3}
     e86:	37047069 	strcc	r7, [r4, -r9, rrx]

00000e88 <Code_202>:
     e88:	3704      	adds	r7, #4
     e8a:	4770      	bx	lr

00000e8c <nip_allocator>:
     e8c:	b500      	push	{lr}
     e8e:	f7ff fa8d 	bl	3ac <expect_one_element>
     e92:	6881      	ldr	r1, [r0, #8]
     e94:	291e      	cmp	r1, #30
     e96:	d002      	beq.n	e9e <nip_allocator+0x12>
     e98:	f7ff f98d 	bl	1b6 <eliminiere_nos>
     e9c:	bd00      	pop	{pc}
     e9e:	f847 6d04 	str.w	r6, [r7, #-4]!
     ea2:	f243 7604 	movw	r6, #14084	; 0x3704
     ea6:	f002 f936 	bl	3116 <Code_795>
     eaa:	bd00      	pop	{pc}

00000eac <Dictionary_206>:
     eac:	00000ed4 	ldrdeq	r0, [r0], -r4
     eb0:	6f040262 	svcvs	0x00040262
     eb4:	00726576 	rsbseq	r6, r2, r6, ror r5

00000eb8 <Code_206>:
     eb8:	f847 6d04 	str.w	r6, [r7, #-4]!
     ebc:	687e      	ldr	r6, [r7, #4]
     ebe:	4770      	bx	lr

00000ec0 <over_allocator>:
     ec0:	b500      	push	{lr}
     ec2:	f7ff fa7d 	bl	3c0 <expect_two_elements>
     ec6:	6881      	ldr	r1, [r0, #8]
     ec8:	68c2      	ldr	r2, [r0, #12]
     eca:	f7ff f964 	bl	196 <befreie_tos>
     ece:	6001      	str	r1, [r0, #0]
     ed0:	6042      	str	r2, [r0, #4]
     ed2:	bd00      	pop	{pc}

00000ed4 <Dictionary_208>:
     ed4:	00000efa 	strdeq	r0, [r0], -sl
     ed8:	74040262 	strvc	r0, [r4], #-610	; 0x262
     edc:	006b6375 	rsbeq	r6, fp, r5, ror r3

00000ee0 <Code_208>:
     ee0:	cf01      	ldmia	r7!, {r0}
     ee2:	3f08      	subs	r7, #8
     ee4:	607e      	str	r6, [r7, #4]
     ee6:	6038      	str	r0, [r7, #0]
     ee8:	4770      	bx	lr
     eea:	b500      	push	{lr}
     eec:	f7ff fa68 	bl	3c0 <expect_two_elements>
     ef0:	f7ff ff84 	bl	dfc <dup_allocator>
     ef4:	f000 f828 	bl	f48 <minusrot_allocator>
     ef8:	bd00      	pop	{pc}

00000efa <Dictionary_209>:
     efa:	00000f30 	andeq	r0, r0, r0, lsr pc
     efe:	72030263 	andvc	r0, r3, #805306374	; 0x30000006
     f02:	cf03746f 	svcgt	0x0003746f

00000f04 <Code_209>:
     f04:	cf03      	ldmia	r7!, {r0, r1}
     f06:	3f08      	subs	r7, #8
     f08:	6078      	str	r0, [r7, #4]
     f0a:	603e      	str	r6, [r7, #0]
     f0c:	000e      	movs	r6, r1
     f0e:	4770      	bx	lr

00000f10 <rot_allocator>:
     f10:	b50e      	push	{r1, r2, r3, lr}
     f12:	f7ff fa62 	bl	3da <expect_three_elements>
     f16:	6801      	ldr	r1, [r0, #0]
     f18:	6882      	ldr	r2, [r0, #8]
     f1a:	6903      	ldr	r3, [r0, #16]
     f1c:	6081      	str	r1, [r0, #8]
     f1e:	6102      	str	r2, [r0, #16]
     f20:	6003      	str	r3, [r0, #0]
     f22:	6841      	ldr	r1, [r0, #4]
     f24:	68c2      	ldr	r2, [r0, #12]
     f26:	6943      	ldr	r3, [r0, #20]
     f28:	60c1      	str	r1, [r0, #12]
     f2a:	6142      	str	r2, [r0, #20]
     f2c:	6043      	str	r3, [r0, #4]
     f2e:	bd0e      	pop	{r1, r2, r3, pc}

00000f30 <Dictionary_210>:
     f30:	00000f54 	andeq	r0, r0, r4, asr pc
     f34:	2d040263 	sfmcs	f0, 4, [r4, #-396]	; 0xfffffe74
     f38:	00746f72 	rsbseq	r6, r4, r2, ror pc

00000f3c <Code_210>:
     f3c:	cf03      	ldmia	r7!, {r0, r1}
     f3e:	3f08      	subs	r7, #8
     f40:	607e      	str	r6, [r7, #4]
     f42:	6039      	str	r1, [r7, #0]
     f44:	0006      	movs	r6, r0
     f46:	4770      	bx	lr

00000f48 <minusrot_allocator>:
     f48:	b500      	push	{lr}
     f4a:	f7ff ffe1 	bl	f10 <rot_allocator>
     f4e:	f7ff ffdf 	bl	f10 <rot_allocator>
     f52:	bd00      	pop	{pc}

00000f54 <Dictionary_211>:
     f54:	00000f66 	andeq	r0, r0, r6, ror #30
     f58:	70040020 	andvc	r0, r4, r0, lsr #32
     f5c:	006b6369 	rsbeq	r6, fp, r9, ror #6

00000f60 <Code_211>:
     f60:	f857 6026 	ldr.w	r6, [r7, r6, lsl #2]
     f64:	4770      	bx	lr

00000f66 <Dictionary_212>:
     f66:	00000f7e 	andeq	r0, r0, lr, ror pc
     f6a:	64050000 	strvs	r0, [r5]
     f6e:	68747065 	ldmdavs	r4!, {r0, r2, r5, r6, ip, sp, lr}^

00000f72 <Code_212>:
     f72:	494f      	ldr	r1, [pc, #316]	; (10b0 <Code_231+0x1c>)
     f74:	1bc9      	subs	r1, r1, r7
     f76:	f847 6d04 	str.w	r6, [r7, #-4]!
     f7a:	088e      	lsrs	r6, r1, #2
     f7c:	4770      	bx	lr

00000f7e <Dictionary_214>:
     f7e:	00000f9a 	muleq	r0, sl, pc	; <UNPREDICTABLE>
     f82:	72060000 	andvc	r0, r6, #0
     f86:	74706564 	ldrbtvc	r6, [r0], #-1380	; 0x564
     f8a:	f8470068 			; <UNDEFINED> instruction: 0xf8470068

00000f8c <Code_214>:
     f8c:	f847 6d04 	str.w	r6, [r7, #-4]!
     f90:	466e      	mov	r6, sp
     f92:	4948      	ldr	r1, [pc, #288]	; (10b4 <Code_231+0x20>)
     f94:	1b89      	subs	r1, r1, r6
     f96:	088e      	lsrs	r6, r1, #2
     f98:	4770      	bx	lr

00000f9a <Dictionary_216>:
     f9a:	00000fd0 	ldrdeq	r0, [r0], -r0	; <UNPREDICTABLE>
     f9e:	3e020220 	cdpcc	2, 0, cr0, cr2, cr0, {1}
     fa2:	b4400072 	strblt	r0, [r0], #-114	; 0x72

00000fa4 <Code_216>:
     fa4:	b440      	push	{r6}
     fa6:	cf40      	ldmia	r7!, {r6}
     fa8:	4770      	bx	lr

00000faa <allocator_to_r>:
     faa:	b500      	push	{lr}
     fac:	f7ff fa91 	bl	4d2 <push_lr_nachholen>
     fb0:	f7ff f9fc 	bl	3ac <expect_one_element>
     fb4:	f7ff fa36 	bl	424 <expect_tos_in_register>
     fb8:	f847 6d04 	str.w	r6, [r7, #-4]!
     fbc:	f24b 4600 	movw	r6, #46080	; 0xb400
     fc0:	2201      	movs	r2, #1
     fc2:	408a      	lsls	r2, r1
     fc4:	4316      	orrs	r6, r2
     fc6:	f002 f8a6 	bl	3116 <Code_795>
     fca:	f7ff f8ee 	bl	1aa <eliminiere_tos>
     fce:	bd00      	pop	{pc}

00000fd0 <Dictionary_219>:
     fd0:	00001006 	andeq	r1, r0, r6
     fd4:	72020220 	andvc	r0, r2, #2
     fd8:	f847003e 			; <UNDEFINED> instruction: 0xf847003e

00000fda <Code_219>:
     fda:	f847 6d04 	str.w	r6, [r7, #-4]!
     fde:	bc40      	pop	{r6}
     fe0:	4770      	bx	lr

00000fe2 <allocator_r_from>:
     fe2:	b500      	push	{lr}
     fe4:	f7ff fa75 	bl	4d2 <push_lr_nachholen>
     fe8:	f7ff f8d5 	bl	196 <befreie_tos>
     fec:	f7ff f9aa 	bl	344 <get_free_register>
     ff0:	6003      	str	r3, [r0, #0]
     ff2:	f847 6d04 	str.w	r6, [r7, #-4]!
     ff6:	f64b 4600 	movw	r6, #48128	; 0xbc00
     ffa:	2201      	movs	r2, #1
     ffc:	409a      	lsls	r2, r3
     ffe:	4316      	orrs	r6, r2
    1000:	f002 f889 	bl	3116 <Code_795>
    1004:	bd00      	pop	{pc}

00001006 <Dictionary_223>:
    1006:	00001024 	andeq	r1, r0, r4, lsr #32
    100a:	72020220 	andvc	r0, r2, #2
    100e:	f8470040 			; <UNDEFINED> instruction: 0xf8470040

00001010 <Code_223>:
    1010:	f847 6d04 	str.w	r6, [r7, #-4]!
    1014:	9e00      	ldr	r6, [sp, #0]
    1016:	4770      	bx	lr
    1018:	b500      	push	{lr}
    101a:	f7ff fa5a 	bl	4d2 <push_lr_nachholen>
    101e:	f002 fd82 	bl	3b26 <rfetch_allocator>
    1022:	bd00      	pop	{pc}

00001024 <Dictionary_225>:
    1024:	00001048 	andeq	r1, r0, r8, asr #32
    1028:	72050220 	andvc	r0, r5, #2
    102c:	706f7264 	rsbvc	r7, pc, r4, ror #4

00001030 <Code_225>:
    1030:	b001      	add	sp, #4
    1032:	4770      	bx	lr
    1034:	b500      	push	{lr}
    1036:	f7ff fa4c 	bl	4d2 <push_lr_nachholen>
    103a:	f847 6d04 	str.w	r6, [r7, #-4]!
    103e:	f24b 0601 	movw	r6, #45057	; 0xb001
    1042:	f002 f868 	bl	3116 <Code_795>
    1046:	bd00      	pop	{pc}

00001048 <Dictionary_228>:
    1048:	0000105c 	andeq	r1, r0, ip, asr r0
    104c:	72050020 	andvc	r0, r5, #32
    1050:	6b636970 	blvs	18db618 <BIT24+0x8db618>

00001054 <Code_228>:
    1054:	00b6      	lsls	r6, r6, #2
    1056:	446e      	add	r6, sp
    1058:	6836      	ldr	r6, [r6, #0]
    105a:	4770      	bx	lr

0000105c <Dictionary_229>:
    105c:	00001088 	andeq	r1, r0, r8, lsl #1
    1060:	72040000 	andvc	r0, r4, #0
    1064:	006c6c6f 	rsbeq	r6, ip, pc, ror #24

00001068 <Code_229>:
    1068:	2e00      	cmp	r6, #0
    106a:	d101      	bne.n	1070 <Code_229+0x8>
    106c:	cf40      	ldmia	r7!, {r6}
    106e:	4770      	bx	lr
    1070:	00b0      	lsls	r0, r6, #2
    1072:	5839      	ldr	r1, [r7, r0]
    1074:	19c0      	adds	r0, r0, r7
    1076:	1f03      	subs	r3, r0, #4
    1078:	681a      	ldr	r2, [r3, #0]
    107a:	6002      	str	r2, [r0, #0]
    107c:	3804      	subs	r0, #4
    107e:	3e01      	subs	r6, #1
    1080:	d1f9      	bne.n	1076 <Code_229+0xe>
    1082:	3704      	adds	r7, #4
    1084:	000e      	movs	r6, r1
    1086:	4770      	bx	lr

00001088 <Dictionary_231>:
    1088:	000010b8 	strheq	r1, [r0], -r8
    108c:	2d050000 	stccs	0, cr0, [r5]
    1090:	6c6c6f72 	stclvs	15, cr6, [ip], #-456	; 0xfffffe38

00001094 <Code_231>:
    1094:	2e00      	cmp	r6, #0
    1096:	d101      	bne.n	109c <Code_231+0x8>
    1098:	cf40      	ldmia	r7!, {r6}
    109a:	4770      	bx	lr
    109c:	6838      	ldr	r0, [r7, #0]
    109e:	4639      	mov	r1, r7
    10a0:	684a      	ldr	r2, [r1, #4]
    10a2:	600a      	str	r2, [r1, #0]
    10a4:	3104      	adds	r1, #4
    10a6:	3e01      	subs	r6, #1
    10a8:	d1fa      	bne.n	10a0 <Code_231+0xc>
    10aa:	6008      	str	r0, [r1, #0]
    10ac:	cf40      	ldmia	r7!, {r6}
    10ae:	4770      	bx	lr
    10b0:	2000028c 	andcs	r0, r0, ip, lsl #5
    10b4:	2000038c 	andcs	r0, r0, ip, lsl #7

000010b8 <Dictionary_234>:
    10b8:	000010d2 	ldrdeq	r1, [r0], -r2
    10bc:	61030262 	tstvs	r3, r2, ror #4
    10c0:	cf01646e 	svcgt	0x0001646e

000010c2 <Code_234>:
    10c2:	cf01      	ldmia	r7!, {r0}
    10c4:	4006      	ands	r6, r0
    10c6:	4770      	bx	lr
    10c8:	f847 6d04 	str.w	r6, [r7, #-4]!
    10cc:	f244 0600 	movw	r6, #16384	; 0x4000
    10d0:	e0d0      	b.n	1274 <alloc_kommutativ>

000010d2 <Dictionary_237>:
    10d2:	000010ee 	andeq	r1, r0, lr, ror #1
    10d6:	62030262 	andvs	r0, r3, #536870918	; 0x20000006
    10da:	cf016369 	svcgt	0x00016369

000010dc <Code_237>:
    10dc:	cf01      	ldmia	r7!, {r0}
    10de:	43b0      	bics	r0, r6
    10e0:	0006      	movs	r6, r0
    10e2:	4770      	bx	lr
    10e4:	f847 6d04 	str.w	r6, [r7, #-4]!
    10e8:	f244 3680 	movw	r6, #17280	; 0x4380
    10ec:	e0be      	b.n	126c <alloc_unkommutativ>

000010ee <Dictionary_240>:
    10ee:	00001108 	andeq	r1, r0, r8, lsl #2
    10f2:	6f020262 	svcvs	0x00020262
    10f6:	cf010072 	svcgt	0x00010072

000010f8 <Code_240>:
    10f8:	cf01      	ldmia	r7!, {r0}
    10fa:	4306      	orrs	r6, r0
    10fc:	4770      	bx	lr

000010fe <or_allocator>:
    10fe:	f847 6d04 	str.w	r6, [r7, #-4]!
    1102:	f244 3600 	movw	r6, #17152	; 0x4300
    1106:	e0b5      	b.n	1274 <alloc_kommutativ>

00001108 <Dictionary_243>:
    1108:	00001122 	andeq	r1, r0, r2, lsr #2
    110c:	78030262 	stmdavc	r3, {r1, r5, r6, r9}
    1110:	cf01726f 	svcgt	0x0001726f

00001112 <Code_243>:
    1112:	cf01      	ldmia	r7!, {r0}
    1114:	4046      	eors	r6, r0
    1116:	4770      	bx	lr

00001118 <xor_allocator>:
    1118:	f847 6d04 	str.w	r6, [r7, #-4]!
    111c:	f244 0640 	movw	r6, #16448	; 0x4040
    1120:	e0a8      	b.n	1274 <alloc_kommutativ>

00001122 <Dictionary_246>:
    1122:	0000113a 	andeq	r1, r0, sl, lsr r1
    1126:	2a010262 	bcs	41ab6 <BIT18+0x1ab6>

0000112a <Code_246>:
    112a:	cf01      	ldmia	r7!, {r0}
    112c:	4346      	muls	r6, r0
    112e:	4770      	bx	lr
    1130:	f847 6d04 	str.w	r6, [r7, #-4]!
    1134:	f244 3640 	movw	r6, #17216	; 0x4340
    1138:	e09c      	b.n	1274 <alloc_kommutativ>

0000113a <Dictionary_249>:
    113a:	0000116e 	andeq	r1, r0, lr, ror #2
    113e:	63030261 	movwvs	r0, #12897	; 0x3261
    1142:	fab67a6c 	blx	fed9fafa <BIT31+0x7ed9fafa>

00001144 <Code_249>:
    1144:	fab6 f686 	clz	r6, r6
    1148:	4770      	bx	lr
    114a:	b500      	push	{lr}
    114c:	f7ff f92e 	bl	3ac <expect_one_element>
    1150:	f847 6d04 	str.w	r6, [r7, #-4]!
    1154:	4e6f      	ldr	r6, [pc, #444]	; (1314 <m3_opcodieren+0x26>)
    1156:	f7ff f965 	bl	424 <expect_tos_in_register>
    115a:	430e      	orrs	r6, r1
    115c:	ea56 4601 	orrs.w	r6, r6, r1, lsl #16
    1160:	f7ff f9ae 	bl	4c0 <tos_registerwechsel>
    1164:	ea56 2603 	orrs.w	r6, r6, r3, lsl #8
    1168:	f002 f804 	bl	3174 <Code_804>
    116c:	bd00      	pop	{pc}

0000116e <Dictionary_251>:
    116e:	0000117e 	andeq	r1, r0, lr, ror r1
    1172:	72030061 	andvc	r0, r3, #97	; 0x61
    1176:	ea5f726f 	b	17ddb3a <BIT24+0x7ddb3a>

00001178 <Code_251>:
    1178:	ea5f 0676 	movs.w	r6, r6, ror #1
    117c:	4770      	bx	lr

0000117e <Dictionary_252>:
    117e:	00001190 	muleq	r0, r0, r1
    1182:	72030061 	andvc	r0, r3, #97	; 0x61
    1186:	19b66c6f 	ldmibne	r6!, {r0, r1, r2, r3, r5, r6, sl, fp, sp, lr}

00001188 <Code_252>:
    1188:	19b6      	adds	r6, r6, r6
    118a:	f156 0600 	adcs.w	r6, r6, #0
    118e:	4770      	bx	lr

00001190 <Dictionary_253>:
    1190:	000011c8 	andeq	r1, r0, r8, asr #3
    1194:	61070262 	tstvs	r7, r2, ror #4
    1198:	69687372 	stmdbvs	r8!, {r1, r4, r5, r6, r8, r9, ip, sp, lr}^
    119c:	cf017466 	svcgt	0x00017466

0000119e <Code_253>:
    119e:	cf01      	ldmia	r7!, {r0}
    11a0:	4130      	asrs	r0, r6
    11a2:	0006      	movs	r6, r0
    11a4:	4770      	bx	lr
    11a6:	b500      	push	{lr}
    11a8:	f847 6d04 	str.w	r6, [r7, #-4]!
    11ac:	f244 1600 	movw	r6, #16640	; 0x4100
    11b0:	f847 6d04 	str.w	r6, [r7, #-4]!
    11b4:	f241 0600 	movw	r6, #4096	; 0x1000
    11b8:	f7ff f902 	bl	3c0 <expect_two_elements>
    11bc:	6841      	ldr	r1, [r0, #4]
    11be:	291f      	cmp	r1, #31
    11c0:	d92a      	bls.n	1218 <Code_263+0x18>
    11c2:	211f      	movs	r1, #31
    11c4:	6041      	str	r1, [r0, #4]
    11c6:	e027      	b.n	1218 <Code_263+0x18>

000011c8 <Dictionary_258>:
    11c8:	000011f2 	strdeq	r1, [r0], -r2
    11cc:	72060262 	andvc	r0, r6, #536870918	; 0x20000006
    11d0:	66696873 			; <UNDEFINED> instruction: 0x66696873
    11d4:	cf010074 	svcgt	0x00010074

000011d6 <Code_258>:
    11d6:	cf01      	ldmia	r7!, {r0}
    11d8:	40f0      	lsrs	r0, r6
    11da:	0006      	movs	r6, r0
    11dc:	4770      	bx	lr
    11de:	b500      	push	{lr}
    11e0:	f847 6d04 	str.w	r6, [r7, #-4]!
    11e4:	f244 06c0 	movw	r6, #16576	; 0x40c0
    11e8:	f847 6d04 	str.w	r6, [r7, #-4]!
    11ec:	f640 0600 	movw	r6, #2048	; 0x800
    11f0:	e012      	b.n	1218 <Code_263+0x18>

000011f2 <Dictionary_263>:
    11f2:	00001330 	andeq	r1, r0, r0, lsr r3
    11f6:	6c060262 	sfmvs	f0, 4, [r6], {98}	; 0x62
    11fa:	66696873 			; <UNDEFINED> instruction: 0x66696873
    11fe:	cf010074 	svcgt	0x00010074

00001200 <Code_263>:
    1200:	cf01      	ldmia	r7!, {r0}
    1202:	40b0      	lsls	r0, r6
    1204:	0006      	movs	r6, r0
    1206:	4770      	bx	lr
    1208:	b500      	push	{lr}
    120a:	f847 6d04 	str.w	r6, [r7, #-4]!
    120e:	f244 0680 	movw	r6, #16512	; 0x4080
    1212:	f847 6d04 	str.w	r6, [r7, #-4]!
    1216:	2600      	movs	r6, #0
    1218:	f7ff f8d2 	bl	3c0 <expect_two_elements>
    121c:	6801      	ldr	r1, [r0, #0]
    121e:	2928      	cmp	r1, #40	; 0x28
    1220:	d003      	beq.n	122a <Code_263+0x2a>
    1222:	cf40      	ldmia	r7!, {r6}
    1224:	f000 f822 	bl	126c <alloc_unkommutativ>
    1228:	bd00      	pop	{pc}
    122a:	3704      	adds	r7, #4
    122c:	6841      	ldr	r1, [r0, #4]
    122e:	f7fe ffbc 	bl	1aa <eliminiere_tos>
    1232:	2900      	cmp	r1, #0
    1234:	d101      	bne.n	123a <Code_263+0x3a>
    1236:	cf40      	ldmia	r7!, {r6}
    1238:	bd00      	pop	{pc}
    123a:	291f      	cmp	r1, #31
    123c:	d80a      	bhi.n	1254 <Code_263+0x54>
    123e:	0189      	lsls	r1, r1, #6
    1240:	430e      	orrs	r6, r1
    1242:	6802      	ldr	r2, [r0, #0]
    1244:	00d2      	lsls	r2, r2, #3
    1246:	4316      	orrs	r6, r2
    1248:	f7ff f93a 	bl	4c0 <tos_registerwechsel>
    124c:	431e      	orrs	r6, r3
    124e:	f001 ff62 	bl	3116 <Code_795>
    1252:	bd00      	pop	{pc}
    1254:	cf40      	ldmia	r7!, {r6}
    1256:	f7ff f933 	bl	4c0 <tos_registerwechsel>
    125a:	f847 6d04 	str.w	r6, [r7, #-4]!
    125e:	f242 0600 	movw	r6, #8192	; 0x2000
    1262:	021b      	lsls	r3, r3, #8
    1264:	431e      	orrs	r6, r3
    1266:	f001 ff56 	bl	3116 <Code_795>
    126a:	bd00      	pop	{pc}

0000126c <alloc_unkommutativ>:
    126c:	b50f      	push	{r0, r1, r2, r3, lr}

0000126e <alloc_unkommutativ_ohneregister>:
    126e:	f7ff f8a7 	bl	3c0 <expect_two_elements>
    1272:	e00c      	b.n	128e <alloc_logic_gemeinsam>

00001274 <alloc_kommutativ>:
    1274:	b50f      	push	{r0, r1, r2, r3, lr}

00001276 <alloc_kommutativ_ohneregister>:
    1276:	f7ff f8a3 	bl	3c0 <expect_two_elements>
    127a:	6801      	ldr	r1, [r0, #0]
    127c:	2906      	cmp	r1, #6
    127e:	d101      	bne.n	1284 <alloc_kommutativ_ohneregister+0xe>
    1280:	f7ff fdf1 	bl	e66 <swap_allocator>
    1284:	6882      	ldr	r2, [r0, #8]
    1286:	2a28      	cmp	r2, #40	; 0x28
    1288:	d101      	bne.n	128e <alloc_logic_gemeinsam>
    128a:	f7ff fdec 	bl	e66 <swap_allocator>

0000128e <alloc_logic_gemeinsam>:
    128e:	f7ff f8d3 	bl	438 <expect_nos_in_register>
    1292:	6801      	ldr	r1, [r0, #0]
    1294:	2928      	cmp	r1, #40	; 0x28
    1296:	d11c      	bne.n	12d2 <alloc_logic_gemeinsam+0x44>
    1298:	f847 6d04 	str.w	r6, [r7, #-4]!
    129c:	6846      	ldr	r6, [r0, #4]
    129e:	f001 fb57 	bl	2950 <Code_664>
    12a2:	cf02      	ldmia	r7!, {r1}
    12a4:	2e00      	cmp	r6, #0
    12a6:	cf40      	ldmia	r7!, {r6}
    12a8:	d013      	beq.n	12d2 <alloc_logic_gemeinsam+0x44>
    12aa:	f5b6 4f80 	cmp.w	r6, #16384	; 0x4000
    12ae:	d101      	bne.n	12b4 <alloc_logic_gemeinsam+0x26>
    12b0:	4e19      	ldr	r6, [pc, #100]	; (1318 <m3_opcodieren+0x2a>)
    12b2:	e01c      	b.n	12ee <m3_opcodieren>
    12b4:	4a19      	ldr	r2, [pc, #100]	; (131c <m3_opcodieren+0x2e>)
    12b6:	4296      	cmp	r6, r2
    12b8:	d101      	bne.n	12be <alloc_logic_gemeinsam+0x30>
    12ba:	4e19      	ldr	r6, [pc, #100]	; (1320 <m3_opcodieren+0x32>)
    12bc:	e017      	b.n	12ee <m3_opcodieren>
    12be:	f5b6 4f86 	cmp.w	r6, #17152	; 0x4300
    12c2:	d101      	bne.n	12c8 <alloc_logic_gemeinsam+0x3a>
    12c4:	4e17      	ldr	r6, [pc, #92]	; (1324 <m3_opcodieren+0x36>)
    12c6:	e012      	b.n	12ee <m3_opcodieren>
    12c8:	4a17      	ldr	r2, [pc, #92]	; (1328 <m3_opcodieren+0x3a>)
    12ca:	4296      	cmp	r6, r2
    12cc:	d101      	bne.n	12d2 <alloc_logic_gemeinsam+0x44>
    12ce:	4e17      	ldr	r6, [pc, #92]	; (132c <m3_opcodieren+0x3e>)
    12d0:	e00d      	b.n	12ee <m3_opcodieren>
    12d2:	f7ff f8c5 	bl	460 <nos_change_tos_away_later>
    12d6:	f7ff f8a5 	bl	424 <expect_tos_in_register>
    12da:	00c9      	lsls	r1, r1, #3
    12dc:	6882      	ldr	r2, [r0, #8]
    12de:	430e      	orrs	r6, r1
    12e0:	4316      	orrs	r6, r2
    12e2:	f001 ff18 	bl	3116 <Code_795>
    12e6:	f7fe ff60 	bl	1aa <eliminiere_tos>
    12ea:	bd0f      	pop	{r0, r1, r2, r3, pc}

000012ec <m3_opcodieren_anderswo>:
    12ec:	b50f      	push	{r0, r1, r2, r3, lr}

000012ee <m3_opcodieren>:
    12ee:	430e      	orrs	r6, r1
    12f0:	6881      	ldr	r1, [r0, #8]
    12f2:	ea56 4601 	orrs.w	r6, r6, r1, lsl #16
    12f6:	f7fe ff58 	bl	1aa <eliminiere_tos>
    12fa:	f7fe ff56 	bl	1aa <eliminiere_tos>
    12fe:	f7fe ff4a 	bl	196 <befreie_tos>
    1302:	f7ff f81f 	bl	344 <get_free_register>
    1306:	6003      	str	r3, [r0, #0]
    1308:	ea56 2603 	orrs.w	r6, r6, r3, lsl #8
    130c:	f001 ff32 	bl	3174 <Code_804>
    1310:	bd0f      	pop	{r0, r1, r2, r3, pc}
    1312:	f0800000 			; <UNDEFINED> instruction: 0xf0800000
    1316:	0000fab0 			; <UNDEFINED> instruction: 0x0000fab0
    131a:	4040f010 	submi	pc, r0, r0, lsl r0	; <UNPREDICTABLE>
    131e:	00000000 	andeq	r0, r0, r0
    1322:	0000f090 	muleq	r0, r0, r0
    1326:	4380f050 	orrmi	pc, r0, #80	; 0x50
    132a:	00000000 	andeq	r0, r0, r0
    132e:	1354f030 	cmpne	r4, #48	; 0x30

00001330 <Dictionary_276>:
    1330:	00001354 	andeq	r1, r0, r4, asr r3
    1334:	30020261 	andcc	r0, r2, r1, ror #4
    1338:	3e01003d 	mcrcc	0, 0, r0, cr1, cr13, {1}

0000133a <Code_276>:
    133a:	3e01      	subs	r6, #1
    133c:	41b6      	sbcs	r6, r6
    133e:	4770      	bx	lr

00001340 <allocator_equal_zero>:
    1340:	b500      	push	{lr}
    1342:	f000 f8fd 	bl	1540 <prepare_single_compare>
    1346:	f000 fe38 	bl	1fba <allocator_one_minus>
    134a:	f7fe ff2e 	bl	1aa <eliminiere_tos>
    134e:	4979      	ldr	r1, [pc, #484]	; (1534 <Code_330+0x18>)
    1350:	6281      	str	r1, [r0, #40]	; 0x28
    1352:	bd00      	pop	{pc}

00001354 <Dictionary_277>:
    1354:	0000137a 	andeq	r1, r0, sl, ror r3
    1358:	30030261 	andcc	r0, r3, r1, ror #4
    135c:	3e013e3c 	mcrcc	14, 0, r3, cr1, cr12, {1}

0000135e <Code_277>:
    135e:	3e01      	subs	r6, #1
    1360:	41b6      	sbcs	r6, r6
    1362:	43f6      	mvns	r6, r6
    1364:	4770      	bx	lr

00001366 <allocator_unequal_zero>:
    1366:	b500      	push	{lr}
    1368:	f000 f8ea 	bl	1540 <prepare_single_compare>
    136c:	f000 fe25 	bl	1fba <allocator_one_minus>
    1370:	f7fe ff1b 	bl	1aa <eliminiere_tos>
    1374:	4970      	ldr	r1, [pc, #448]	; (1538 <Code_330+0x1c>)
    1376:	6281      	str	r1, [r0, #40]	; 0x28
    1378:	bd00      	pop	{pc}

0000137a <Dictionary_278>:
    137a:	000013a0 	andeq	r1, r0, r0, lsr #7
    137e:	30020261 	andcc	r0, r2, r1, ror #4
    1382:	17f6003c 			; <UNDEFINED> instruction: 0x17f6003c

00001384 <Code_278>:
    1384:	17f6      	asrs	r6, r6, #31
    1386:	4770      	bx	lr

00001388 <alloc_nullkleiner>:
    1388:	b500      	push	{lr}
    138a:	f000 f8d9 	bl	1540 <prepare_single_compare>
    138e:	f847 6d04 	str.w	r6, [r7, #-4]!
    1392:	f241 76c0 	movw	r6, #6080	; 0x17c0
    1396:	f000 fe53 	bl	2040 <smalltworegisters>
    139a:	4968      	ldr	r1, [pc, #416]	; (153c <Code_330+0x20>)
    139c:	6281      	str	r1, [r0, #40]	; 0x28
    139e:	bd00      	pop	{pc}

000013a0 <Dictionary_281>:
    13a0:	000013b6 			; <UNDEFINED> instruction: 0x000013b6
    13a4:	74040060 	strvc	r0, [r4], #-96	; 0x60
    13a8:	00657572 	rsbeq	r7, r5, r2, ror r5

000013ac <Code_281>:
    13ac:	f847 6d04 	str.w	r6, [r7, #-4]!

000013b0 <generate_true>:
    13b0:	2600      	movs	r6, #0
    13b2:	43f6      	mvns	r6, r6
    13b4:	4770      	bx	lr

000013b6 <Dictionary_283>:
    13b6:	000013ca 	andeq	r1, r0, sl, asr #7
    13ba:	66050060 	strvs	r0, [r5], -r0, rrx
    13be:	65736c61 	ldrbvs	r6, [r3, #-3169]!	; 0xc61

000013c2 <Code_283>:
    13c2:	f847 6d04 	str.w	r6, [r7, #-4]!
    13c6:	2600      	movs	r6, #0
    13c8:	4770      	bx	lr

000013ca <Dictionary_285>:
    13ca:	000013f0 	strdeq	r1, [r0], -r0
    13ce:	3e020242 	cdpcc	2, 0, cr0, cr2, cr2, {2}
    13d2:	cf01003d 	svcgt	0x0001003d

000013d4 <Code_285>:
    13d4:	cf01      	ldmia	r7!, {r0}
    13d6:	42b0      	cmp	r0, r6
    13d8:	daea      	bge.n	13b0 <generate_true>
    13da:	2600      	movs	r6, #0
    13dc:	4770      	bx	lr
    13de:	f847 6d04 	str.w	r6, [r7, #-4]!
    13e2:	f64d 3600 	movw	r6, #56064	; 0xdb00
    13e6:	f847 6d04 	str.w	r6, [r7, #-4]!
    13ea:	f64d 2600 	movw	r6, #55808	; 0xda00
    13ee:	e0b3      	b.n	1558 <prepare_compare>

000013f0 <Dictionary_290>:
    13f0:	00001416 	andeq	r1, r0, r6, lsl r4
    13f4:	3c020242 	sfmcc	f0, 4, [r2], {66}	; 0x42
    13f8:	cf01003d 	svcgt	0x0001003d

000013fa <Code_290>:
    13fa:	cf01      	ldmia	r7!, {r0}
    13fc:	42b0      	cmp	r0, r6
    13fe:	ddd7      	ble.n	13b0 <generate_true>
    1400:	2600      	movs	r6, #0
    1402:	4770      	bx	lr
    1404:	f847 6d04 	str.w	r6, [r7, #-4]!
    1408:	f64d 4600 	movw	r6, #56320	; 0xdc00
    140c:	f847 6d04 	str.w	r6, [r7, #-4]!
    1410:	f64d 5600 	movw	r6, #56576	; 0xdd00
    1414:	e0a0      	b.n	1558 <prepare_compare>

00001416 <Dictionary_295>:
    1416:	0000143a 	andeq	r1, r0, sl, lsr r4
    141a:	3c010242 	sfmcc	f0, 4, [r1], {66}	; 0x42

0000141e <Code_295>:
    141e:	cf01      	ldmia	r7!, {r0}
    1420:	42b0      	cmp	r0, r6
    1422:	dbc5      	blt.n	13b0 <generate_true>
    1424:	2600      	movs	r6, #0
    1426:	4770      	bx	lr
    1428:	f847 6d04 	str.w	r6, [r7, #-4]!
    142c:	f64d 2600 	movw	r6, #55808	; 0xda00
    1430:	f847 6d04 	str.w	r6, [r7, #-4]!
    1434:	f64d 3600 	movw	r6, #56064	; 0xdb00
    1438:	e08e      	b.n	1558 <prepare_compare>

0000143a <Dictionary_300>:
    143a:	0000145e 	andeq	r1, r0, lr, asr r4
    143e:	3e010242 	cdpcc	2, 0, cr0, cr1, cr2, {2}

00001442 <Code_300>:
    1442:	cf01      	ldmia	r7!, {r0}
    1444:	42b0      	cmp	r0, r6
    1446:	dcb3      	bgt.n	13b0 <generate_true>
    1448:	2600      	movs	r6, #0
    144a:	4770      	bx	lr
    144c:	f847 6d04 	str.w	r6, [r7, #-4]!
    1450:	f64d 5600 	movw	r6, #56576	; 0xdd00
    1454:	f847 6d04 	str.w	r6, [r7, #-4]!
    1458:	f64d 4600 	movw	r6, #56320	; 0xdc00
    145c:	e07c      	b.n	1558 <prepare_compare>

0000145e <Dictionary_305>:
    145e:	00001484 	andeq	r1, r0, r4, lsl #9
    1462:	75030262 	strvc	r0, [r3, #-610]	; 0x262
    1466:	cf013d3e 	svcgt	0x00013d3e

00001468 <Code_305>:
    1468:	cf01      	ldmia	r7!, {r0}
    146a:	1b86      	subs	r6, r0, r6
    146c:	41b6      	sbcs	r6, r6
    146e:	43f6      	mvns	r6, r6
    1470:	4770      	bx	lr
    1472:	f847 6d04 	str.w	r6, [r7, #-4]!
    1476:	f24d 3600 	movw	r6, #54016	; 0xd300
    147a:	f847 6d04 	str.w	r6, [r7, #-4]!
    147e:	f24d 2600 	movw	r6, #53760	; 0xd200
    1482:	e069      	b.n	1558 <prepare_compare>

00001484 <Dictionary_310>:
    1484:	000014aa 	andeq	r1, r0, sl, lsr #9
    1488:	75030262 	strvc	r0, [r3, #-610]	; 0x262
    148c:	cf013d3c 	svcgt	0x00013d3c

0000148e <Code_310>:
    148e:	cf01      	ldmia	r7!, {r0}
    1490:	1a36      	subs	r6, r6, r0
    1492:	41b6      	sbcs	r6, r6
    1494:	43f6      	mvns	r6, r6
    1496:	4770      	bx	lr
    1498:	f847 6d04 	str.w	r6, [r7, #-4]!
    149c:	f64d 0600 	movw	r6, #55296	; 0xd800
    14a0:	f847 6d04 	str.w	r6, [r7, #-4]!
    14a4:	f64d 1600 	movw	r6, #55552	; 0xd900
    14a8:	e056      	b.n	1558 <prepare_compare>

000014aa <Dictionary_315>:
    14aa:	000014ce 	andeq	r1, r0, lr, asr #9
    14ae:	75020262 	strvc	r0, [r2, #-610]	; 0x262
    14b2:	cf01003c 	svcgt	0x0001003c

000014b4 <Code_315>:
    14b4:	cf01      	ldmia	r7!, {r0}
    14b6:	1b86      	subs	r6, r0, r6
    14b8:	41b6      	sbcs	r6, r6
    14ba:	4770      	bx	lr
    14bc:	f847 6d04 	str.w	r6, [r7, #-4]!
    14c0:	f24d 2600 	movw	r6, #53760	; 0xd200
    14c4:	f847 6d04 	str.w	r6, [r7, #-4]!
    14c8:	f24d 3600 	movw	r6, #54016	; 0xd300
    14cc:	e044      	b.n	1558 <prepare_compare>

000014ce <Dictionary_320>:
    14ce:	000014f2 	strdeq	r1, [r0], -r2
    14d2:	75020262 	strvc	r0, [r2, #-610]	; 0x262
    14d6:	cf01003e 	svcgt	0x0001003e

000014d8 <Code_320>:
    14d8:	cf01      	ldmia	r7!, {r0}
    14da:	1a36      	subs	r6, r6, r0
    14dc:	41b6      	sbcs	r6, r6
    14de:	4770      	bx	lr
    14e0:	f847 6d04 	str.w	r6, [r7, #-4]!
    14e4:	f64d 1600 	movw	r6, #55552	; 0xd900
    14e8:	f847 6d04 	str.w	r6, [r7, #-4]!
    14ec:	f64d 0600 	movw	r6, #55296	; 0xd800
    14f0:	e032      	b.n	1558 <prepare_compare>

000014f2 <Dictionary_325>:
    14f2:	00001514 	andeq	r1, r0, r4, lsl r5
    14f6:	3c020262 	sfmcc	f0, 4, [r2], {98}	; 0x62
    14fa:	cf01003e 	svcgt	0x0001003e

000014fc <Code_325>:
    14fc:	cf01      	ldmia	r7!, {r0}
    14fe:	1b81      	subs	r1, r0, r6
    1500:	1a36      	subs	r6, r6, r0
    1502:	430e      	orrs	r6, r1
    1504:	4770      	bx	lr
    1506:	f847 6d04 	str.w	r6, [r7, #-4]!
    150a:	f24d 0600 	movw	r6, #53248	; 0xd000
    150e:	f847 6d04 	str.w	r6, [r7, #-4]!
    1512:	e021      	b.n	1558 <prepare_compare>

00001514 <Dictionary_330>:
    1514:	0000167c 	andeq	r1, r0, ip, ror r6
    1518:	3d010262 	sfmcc	f0, 4, [r1, #-392]	; 0xfffffe78

0000151c <Code_330>:
    151c:	cf01      	ldmia	r7!, {r0}
    151e:	1a36      	subs	r6, r6, r0
    1520:	3e01      	subs	r6, #1
    1522:	41b6      	sbcs	r6, r6
    1524:	4770      	bx	lr
    1526:	f847 6d04 	str.w	r6, [r7, #-4]!
    152a:	f24d 1600 	movw	r6, #53504	; 0xd100
    152e:	f847 6d04 	str.w	r6, [r7, #-4]!
    1532:	e011      	b.n	1558 <prepare_compare>
    1534:	0000d200 	andeq	sp, r0, r0, lsl #4
    1538:	0000d300 	andeq	sp, r0, r0, lsl #6
    153c:	0000d500 	andeq	sp, r0, r0, lsl #10

00001540 <prepare_single_compare>:
    1540:	b500      	push	{lr}
    1542:	f7fe ff33 	bl	3ac <expect_one_element>
    1546:	f7fe fe67 	bl	218 <tidyup_register_allocator_5os>
    154a:	f7fe fe6a 	bl	222 <tidyup_register_allocator_4os>
    154e:	f7fe fe6d 	bl	22c <tidyup_register_allocator_3os>
    1552:	f7fe ff71 	bl	438 <expect_nos_in_register>
    1556:	bd00      	pop	{pc}

00001558 <prepare_compare>:
    1558:	b500      	push	{lr}
    155a:	f7fe ff31 	bl	3c0 <expect_two_elements>
    155e:	f7fe fe5b 	bl	218 <tidyup_register_allocator_5os>
    1562:	f7fe fe5e 	bl	222 <tidyup_register_allocator_4os>
    1566:	f7fe ff71 	bl	44c <expect_3os_in_register>
    156a:	6882      	ldr	r2, [r0, #8]
    156c:	2a28      	cmp	r2, #40	; 0x28
    156e:	d104      	bne.n	157a <prepare_compare+0x22>
    1570:	f7ff fc79 	bl	e66 <swap_allocator>
    1574:	6839      	ldr	r1, [r7, #0]
    1576:	603e      	str	r6, [r7, #0]
    1578:	460e      	mov	r6, r1
    157a:	cf40      	ldmia	r7!, {r6}
    157c:	6801      	ldr	r1, [r0, #0]
    157e:	2928      	cmp	r1, #40	; 0x28
    1580:	d11d      	bne.n	15be <prepare_compare+0x66>
    1582:	6841      	ldr	r1, [r0, #4]
    1584:	29ff      	cmp	r1, #255	; 0xff
    1586:	d807      	bhi.n	1598 <prepare_compare+0x40>
    1588:	f847 6d04 	str.w	r6, [r7, #-4]!
    158c:	f642 0600 	movw	r6, #10240	; 0x2800
    1590:	430e      	orrs	r6, r1
    1592:	6881      	ldr	r1, [r0, #8]
    1594:	0209      	lsls	r1, r1, #8
    1596:	e01a      	b.n	15ce <prepare_compare+0x76>
    1598:	f847 6d04 	str.w	r6, [r7, #-4]!
    159c:	6846      	ldr	r6, [r0, #4]
    159e:	f001 f9d7 	bl	2950 <Code_664>
    15a2:	cf02      	ldmia	r7!, {r1}
    15a4:	2e00      	cmp	r6, #0
    15a6:	cf40      	ldmia	r7!, {r6}
    15a8:	d009      	beq.n	15be <prepare_compare+0x66>
    15aa:	f847 6d04 	str.w	r6, [r7, #-4]!
    15ae:	4e69      	ldr	r6, [pc, #420]	; (1754 <alloc_minmax+0x5e>)
    15b0:	430e      	orrs	r6, r1
    15b2:	6881      	ldr	r1, [r0, #8]
    15b4:	ea56 4601 	orrs.w	r6, r6, r1, lsl #16
    15b8:	f001 fddc 	bl	3174 <Code_804>
    15bc:	e00a      	b.n	15d4 <prepare_compare+0x7c>
    15be:	f7fe ff31 	bl	424 <expect_tos_in_register>
    15c2:	f847 6d04 	str.w	r6, [r7, #-4]!
    15c6:	f244 2680 	movw	r6, #17024	; 0x4280
    15ca:	00c9      	lsls	r1, r1, #3
    15cc:	4316      	orrs	r6, r2
    15ce:	430e      	orrs	r6, r1
    15d0:	f001 fda1 	bl	3116 <Code_795>
    15d4:	f7fe fde9 	bl	1aa <eliminiere_tos>
    15d8:	f7fe fde7 	bl	1aa <eliminiere_tos>
    15dc:	6286      	str	r6, [r0, #40]	; 0x28
    15de:	cf40      	ldmia	r7!, {r6}
    15e0:	bd00      	pop	{pc}

000015e2 <sprungschreiber_flaggenerator>:
    15e2:	b50f      	push	{r0, r1, r2, r3, lr}
    15e4:	485c      	ldr	r0, [pc, #368]	; (1758 <alloc_minmax+0x62>)
    15e6:	6a81      	ldr	r1, [r0, #40]	; 0x28
    15e8:	2900      	cmp	r1, #0
    15ea:	d033      	beq.n	1654 <sprungschreiber_flaggenerator+0x72>
    15ec:	f847 6d04 	str.w	r6, [r7, #-4]!
    15f0:	6a86      	ldr	r6, [r0, #40]	; 0x28
    15f2:	2100      	movs	r1, #0
    15f4:	6281      	str	r1, [r0, #40]	; 0x28
    15f6:	0a31      	lsrs	r1, r6, #8
    15f8:	29d5      	cmp	r1, #213	; 0xd5
    15fa:	d101      	bne.n	1600 <sprungschreiber_flaggenerator+0x1e>
    15fc:	cf40      	ldmia	r7!, {r6}
    15fe:	bd0f      	pop	{r0, r1, r2, r3, pc}
    1600:	f7fe fdc9 	bl	196 <befreie_tos>
    1604:	f7fe fe9e 	bl	344 <get_free_register>
    1608:	6003      	str	r3, [r0, #0]
    160a:	29d2      	cmp	r1, #210	; 0xd2
    160c:	d103      	bne.n	1616 <sprungschreiber_flaggenerator+0x34>
    160e:	4e53      	ldr	r6, [pc, #332]	; (175c <alloc_minmax+0x66>)
    1610:	f000 fd16 	bl	2040 <smalltworegisters>
    1614:	bd0f      	pop	{r0, r1, r2, r3, pc}
    1616:	29d3      	cmp	r1, #211	; 0xd3
    1618:	d105      	bne.n	1626 <sprungschreiber_flaggenerator+0x44>
    161a:	4e50      	ldr	r6, [pc, #320]	; (175c <alloc_minmax+0x66>)
    161c:	f000 fd10 	bl	2040 <smalltworegisters>
    1620:	f000 fd21 	bl	2066 <allocator_not>
    1624:	bd0f      	pop	{r0, r1, r2, r3, pc}
    1626:	3602      	adds	r6, #2
    1628:	f001 fd75 	bl	3116 <Code_795>
    162c:	f847 6d04 	str.w	r6, [r7, #-4]!
    1630:	f242 0600 	movw	r6, #8192	; 0x2000
    1634:	f000 f80f 	bl	1656 <smallplusminus>
    1638:	f000 fd15 	bl	2066 <allocator_not>
    163c:	f847 6d04 	str.w	r6, [r7, #-4]!
    1640:	f24e 0600 	movw	r6, #57344	; 0xe000
    1644:	f001 fd67 	bl	3116 <Code_795>
    1648:	f847 6d04 	str.w	r6, [r7, #-4]!
    164c:	f242 0600 	movw	r6, #8192	; 0x2000
    1650:	f000 f801 	bl	1656 <smallplusminus>
    1654:	bd0f      	pop	{r0, r1, r2, r3, pc}

00001656 <smallplusminus>:
    1656:	b500      	push	{lr}
    1658:	f7fe fea8 	bl	3ac <expect_one_element>
    165c:	f7fe ff17 	bl	48e <make_tos_changeable>
    1660:	6801      	ldr	r1, [r0, #0]
    1662:	0209      	lsls	r1, r1, #8
    1664:	430e      	orrs	r6, r1
    1666:	f001 fd56 	bl	3116 <Code_795>
    166a:	bd00      	pop	{pc}

0000166c <eliminiere_tos_wenn_bmi>:
    166c:	b500      	push	{lr}
    166e:	6a81      	ldr	r1, [r0, #40]	; 0x28
    1670:	0a09      	lsrs	r1, r1, #8
    1672:	29d5      	cmp	r1, #213	; 0xd5
    1674:	d101      	bne.n	167a <eliminiere_tos_wenn_bmi+0xe>
    1676:	f7fe fd98 	bl	1aa <eliminiere_tos>
    167a:	bd00      	pop	{pc}

0000167c <Dictionary_353>:
    167c:	0000169a 	muleq	r0, sl, r6
    1680:	6d030262 	sfmvs	f0, 4, [r3, #-392]	; 0xfffffe78
    1684:	cf016e69 	svcgt	0x00016e69

00001686 <Code_353>:
    1686:	cf01      	ldmia	r7!, {r0}
    1688:	42b0      	cmp	r0, r6
    168a:	dc00      	bgt.n	168e <Code_353+0x8>
    168c:	0006      	movs	r6, r0
    168e:	4770      	bx	lr
    1690:	f847 6d04 	str.w	r6, [r7, #-4]!
    1694:	f64d 3600 	movw	r6, #56064	; 0xdb00
    1698:	e02d      	b.n	16f6 <alloc_minmax>

0000169a <Dictionary_356>:
    169a:	000016b8 			; <UNDEFINED> instruction: 0x000016b8
    169e:	6d030262 	sfmvs	f0, 4, [r3, #-392]	; 0xfffffe78
    16a2:	cf017861 	svcgt	0x00017861

000016a4 <Code_356>:
    16a4:	cf01      	ldmia	r7!, {r0}
    16a6:	42b0      	cmp	r0, r6
    16a8:	db00      	blt.n	16ac <Code_356+0x8>
    16aa:	0006      	movs	r6, r0
    16ac:	4770      	bx	lr
    16ae:	f847 6d04 	str.w	r6, [r7, #-4]!
    16b2:	f64d 4600 	movw	r6, #56320	; 0xdc00
    16b6:	e01e      	b.n	16f6 <alloc_minmax>

000016b8 <Dictionary_359>:
    16b8:	000016d8 	ldrdeq	r1, [r0], -r8
    16bc:	75040262 	strvc	r0, [r4, #-610]	; 0x262
    16c0:	0078616d 	rsbseq	r6, r8, sp, ror #2

000016c4 <Code_359>:
    16c4:	cf01      	ldmia	r7!, {r0}
    16c6:	42b0      	cmp	r0, r6
    16c8:	d300      	bcc.n	16cc <Code_359+0x8>
    16ca:	0006      	movs	r6, r0
    16cc:	4770      	bx	lr
    16ce:	f847 6d04 	str.w	r6, [r7, #-4]!
    16d2:	f64d 0600 	movw	r6, #55296	; 0xd800
    16d6:	e00e      	b.n	16f6 <alloc_minmax>

000016d8 <Dictionary_362>:
    16d8:	00001760 	andeq	r1, r0, r0, ror #14
    16dc:	75040262 	strvc	r0, [r4, #-610]	; 0x262
    16e0:	006e696d 	rsbeq	r6, lr, sp, ror #18

000016e4 <Code_362>:
    16e4:	cf01      	ldmia	r7!, {r0}
    16e6:	42b0      	cmp	r0, r6
    16e8:	d800      	bhi.n	16ec <Code_362+0x8>
    16ea:	0006      	movs	r6, r0
    16ec:	4770      	bx	lr
    16ee:	f847 6d04 	str.w	r6, [r7, #-4]!
    16f2:	f24d 3600 	movw	r6, #54016	; 0xd300

000016f6 <alloc_minmax>:
    16f6:	b500      	push	{lr}
    16f8:	f7fe fe62 	bl	3c0 <expect_two_elements>
    16fc:	6801      	ldr	r1, [r0, #0]
    16fe:	6882      	ldr	r2, [r0, #8]
    1700:	4291      	cmp	r1, r2
    1702:	d103      	bne.n	170c <alloc_minmax+0x16>
    1704:	cf40      	ldmia	r7!, {r6}
    1706:	f7fe fd56 	bl	1b6 <eliminiere_nos>
    170a:	bd00      	pop	{pc}
    170c:	2a06      	cmp	r2, #6
    170e:	d101      	bne.n	1714 <alloc_minmax+0x1e>
    1710:	f7ff fba9 	bl	e66 <swap_allocator>
    1714:	6801      	ldr	r1, [r0, #0]
    1716:	2928      	cmp	r1, #40	; 0x28
    1718:	d101      	bne.n	171e <alloc_minmax+0x28>
    171a:	f7ff fba4 	bl	e66 <swap_allocator>
    171e:	f7fe feb6 	bl	48e <make_tos_changeable>
    1722:	f7fe fe89 	bl	438 <expect_nos_in_register>
    1726:	00c9      	lsls	r1, r1, #3
    1728:	6802      	ldr	r2, [r0, #0]
    172a:	f847 6d04 	str.w	r6, [r7, #-4]!
    172e:	f244 2680 	movw	r6, #17024	; 0x4280
    1732:	430e      	orrs	r6, r1
    1734:	4316      	orrs	r6, r2
    1736:	f001 fcee 	bl	3116 <Code_795>
    173a:	f001 fcec 	bl	3116 <Code_795>
    173e:	f847 6d04 	str.w	r6, [r7, #-4]!
    1742:	f244 6600 	movw	r6, #17920	; 0x4600
    1746:	430e      	orrs	r6, r1
    1748:	4316      	orrs	r6, r2
    174a:	f001 fce4 	bl	3116 <Code_795>
    174e:	f7fe fd32 	bl	1b6 <eliminiere_nos>
    1752:	bd00      	pop	{pc}
    1754:	f1b00f00 			; <UNDEFINED> instruction: 0xf1b00f00
    1758:	20000028 	andcs	r0, r0, r8, lsr #32
    175c:	00004180 	andeq	r4, r0, r0, lsl #3

00001760 <Dictionary_370>:
    1760:	0000179e 	muleq	r0, lr, r7
    1764:	6d040000 	stcvs	0, cr0, [r4]
    1768:	0065766f 	rsbeq	r7, r5, pc, ror #12

0000176c <Code_370>:
    176c:	b507      	push	{r0, r1, r2, lr}
    176e:	0031      	movs	r1, r6
    1770:	cf40      	ldmia	r7!, {r6}
    1772:	0032      	movs	r2, r6
    1774:	cf40      	ldmia	r7!, {r6}
    1776:	2900      	cmp	r1, #0
    1778:	d00f      	beq.n	179a <Code_370+0x2e>
    177a:	42b2      	cmp	r2, r6
    177c:	d00d      	beq.n	179a <Code_370+0x2e>
    177e:	d306      	bcc.n	178e <Code_370+0x22>
    1780:	3e01      	subs	r6, #1
    1782:	3a01      	subs	r2, #1
    1784:	5c70      	ldrb	r0, [r6, r1]
    1786:	5450      	strb	r0, [r2, r1]
    1788:	3901      	subs	r1, #1
    178a:	d1fb      	bne.n	1784 <Code_370+0x18>
    178c:	e005      	b.n	179a <Code_370+0x2e>
    178e:	7830      	ldrb	r0, [r6, #0]
    1790:	7010      	strb	r0, [r2, #0]
    1792:	3601      	adds	r6, #1
    1794:	3201      	adds	r2, #1
    1796:	3901      	subs	r1, #1
    1798:	d1f9      	bne.n	178e <Code_370+0x22>
    179a:	cf40      	ldmia	r7!, {r6}
    179c:	bd07      	pop	{r0, r1, r2, pc}

0000179e <Dictionary_374>:
    179e:	000017c0 	andeq	r1, r0, r0, asr #15
    17a2:	66040000 	strvs	r0, [r4], -r0
    17a6:	006c6c69 	rsbeq	r6, ip, r9, ror #24

000017aa <Code_374>:
    17aa:	0030      	movs	r0, r6
    17ac:	cf40      	ldmia	r7!, {r6}
    17ae:	0031      	movs	r1, r6
    17b0:	cf40      	ldmia	r7!, {r6}
    17b2:	2900      	cmp	r1, #0
    17b4:	d002      	beq.n	17bc <Code_374+0x12>
    17b6:	3901      	subs	r1, #1
    17b8:	5470      	strb	r0, [r6, r1]
    17ba:	d1fc      	bne.n	17b6 <Code_374+0xc>
    17bc:	cf40      	ldmia	r7!, {r6}
    17be:	4770      	bx	lr

000017c0 <Dictionary_378>:
    17c0:	00001802 	andeq	r1, r0, r2, lsl #16
    17c4:	40010220 	andmi	r0, r1, r0, lsr #4

000017c8 <Code_378>:
    17c8:	6836      	ldr	r6, [r6, #0]
    17ca:	4770      	bx	lr

000017cc <allocator_4fetch>:
    17cc:	f847 6d04 	str.w	r6, [r7, #-4]!
    17d0:	f646 0600 	movw	r6, #26624	; 0x6800

000017d4 <allocator_4fetch_anderer_opcode>:
    17d4:	b500      	push	{lr}
    17d6:	f7fe fde9 	bl	3ac <expect_one_element>
    17da:	6803      	ldr	r3, [r0, #0]
    17dc:	2b28      	cmp	r3, #40	; 0x28
    17de:	d108      	bne.n	17f2 <allocator_4fetch_anderer_opcode+0x1e>
    17e0:	6843      	ldr	r3, [r0, #4]
    17e2:	217c      	movs	r1, #124	; 0x7c
    17e4:	4019      	ands	r1, r3
    17e6:	0109      	lsls	r1, r1, #4
    17e8:	430e      	orrs	r6, r1
    17ea:	217c      	movs	r1, #124	; 0x7c
    17ec:	438b      	bics	r3, r1
    17ee:	f7fe fd66 	bl	2be <generiere_adresskonstante>
    17f2:	00db      	lsls	r3, r3, #3
    17f4:	431e      	orrs	r6, r3
    17f6:	f7fe fe63 	bl	4c0 <tos_registerwechsel>
    17fa:	431e      	orrs	r6, r3
    17fc:	f001 fc8b 	bl	3116 <Code_795>
    1800:	bd00      	pop	{pc}

00001802 <Dictionary_381>:
    1802:	0000185a 	andeq	r1, r0, sl, asr r8
    1806:	21010220 	tstcs	r1, r0, lsr #4

0000180a <Code_381>:
    180a:	cf03      	ldmia	r7!, {r0, r1}
    180c:	6030      	str	r0, [r6, #0]
    180e:	000e      	movs	r6, r1
    1810:	4770      	bx	lr

00001812 <allocator_4store>:
    1812:	f847 6d04 	str.w	r6, [r7, #-4]!
    1816:	f246 0600 	movw	r6, #24576	; 0x6000

0000181a <allocator_4store_anderer_opcode>:
    181a:	b500      	push	{lr}
    181c:	f7fe fdd0 	bl	3c0 <expect_two_elements>
    1820:	6803      	ldr	r3, [r0, #0]
    1822:	2b28      	cmp	r3, #40	; 0x28
    1824:	d109      	bne.n	183a <allocator_4store_anderer_opcode+0x20>
    1826:	6843      	ldr	r3, [r0, #4]
    1828:	217c      	movs	r1, #124	; 0x7c
    182a:	4019      	ands	r1, r3
    182c:	0109      	lsls	r1, r1, #4
    182e:	430e      	orrs	r6, r1
    1830:	217c      	movs	r1, #124	; 0x7c
    1832:	438b      	bics	r3, r1
    1834:	f7fe fd43 	bl	2be <generiere_adresskonstante>
    1838:	6003      	str	r3, [r0, #0]
    183a:	00db      	lsls	r3, r3, #3
    183c:	431e      	orrs	r6, r3
    183e:	6883      	ldr	r3, [r0, #8]
    1840:	2b28      	cmp	r3, #40	; 0x28
    1842:	d102      	bne.n	184a <allocator_4store_anderer_opcode+0x30>
    1844:	68c3      	ldr	r3, [r0, #12]
    1846:	f7fe fd2e 	bl	2a6 <generiere_konstante>
    184a:	431e      	orrs	r6, r3
    184c:	f001 fc63 	bl	3116 <Code_795>
    1850:	f7fe fcab 	bl	1aa <eliminiere_tos>
    1854:	f7fe fca9 	bl	1aa <eliminiere_tos>
    1858:	bd00      	pop	{pc}

0000185a <Dictionary_384>:
    185a:	00001890 	muleq	r0, r0, r8
    185e:	2b020220 	blcs	820e6 <BIT19+0x20e6>
    1862:	cf030021 	svcgt	0x00030021

00001864 <Code_384>:
    1864:	cf03      	ldmia	r7!, {r0, r1}
    1866:	6832      	ldr	r2, [r6, #0]
    1868:	1812      	adds	r2, r2, r0
    186a:	6032      	str	r2, [r6, #0]
    186c:	000e      	movs	r6, r1
    186e:	4770      	bx	lr
    1870:	b500      	push	{lr}
    1872:	f7fe fda5 	bl	3c0 <expect_two_elements>
    1876:	f7ff fac1 	bl	dfc <dup_allocator>
    187a:	f7ff ffa7 	bl	17cc <allocator_4fetch>
    187e:	f7ff fb47 	bl	f10 <rot_allocator>
    1882:	f000 fb2c 	bl	1ede <plus_allocator>
    1886:	f7ff faee 	bl	e66 <swap_allocator>
    188a:	f7ff ffc2 	bl	1812 <allocator_4store>
    188e:	bd00      	pop	{pc}

00001890 <Dictionary_385>:
    1890:	000018d4 	ldrdeq	r1, [r0], -r4
    1894:	68020220 	stmdavs	r2, {r5, r9}
    1898:	88360040 	ldmdahi	r6!, {r6}

0000189a <Code_385>:
    189a:	8836      	ldrh	r6, [r6, #0]
    189c:	4770      	bx	lr

0000189e <allocator_2fetch>:
    189e:	b500      	push	{lr}
    18a0:	f7fe fd84 	bl	3ac <expect_one_element>
    18a4:	f847 6d04 	str.w	r6, [r7, #-4]!
    18a8:	f648 0600 	movw	r6, #34816	; 0x8800
    18ac:	6803      	ldr	r3, [r0, #0]
    18ae:	2b28      	cmp	r3, #40	; 0x28
    18b0:	d108      	bne.n	18c4 <allocator_2fetch+0x26>
    18b2:	6843      	ldr	r3, [r0, #4]
    18b4:	213e      	movs	r1, #62	; 0x3e
    18b6:	4019      	ands	r1, r3
    18b8:	0149      	lsls	r1, r1, #5
    18ba:	430e      	orrs	r6, r1
    18bc:	213e      	movs	r1, #62	; 0x3e
    18be:	438b      	bics	r3, r1
    18c0:	f7fe fcfd 	bl	2be <generiere_adresskonstante>
    18c4:	00db      	lsls	r3, r3, #3
    18c6:	431e      	orrs	r6, r3
    18c8:	f7fe fdfa 	bl	4c0 <tos_registerwechsel>
    18cc:	431e      	orrs	r6, r3
    18ce:	f001 fc22 	bl	3116 <Code_795>
    18d2:	bd00      	pop	{pc}

000018d4 <Dictionary_388>:
    18d4:	0000192e 	andeq	r1, r0, lr, lsr #18
    18d8:	68020220 	stmdavs	r2, {r5, r9}
    18dc:	cf030021 	svcgt	0x00030021

000018de <Code_388>:
    18de:	cf03      	ldmia	r7!, {r0, r1}
    18e0:	8030      	strh	r0, [r6, #0]
    18e2:	000e      	movs	r6, r1
    18e4:	4770      	bx	lr

000018e6 <allocator_2store>:
    18e6:	b500      	push	{lr}
    18e8:	f7fe fd6a 	bl	3c0 <expect_two_elements>
    18ec:	f847 6d04 	str.w	r6, [r7, #-4]!
    18f0:	f248 0600 	movw	r6, #32768	; 0x8000
    18f4:	6803      	ldr	r3, [r0, #0]
    18f6:	2b28      	cmp	r3, #40	; 0x28
    18f8:	d109      	bne.n	190e <allocator_2store+0x28>
    18fa:	6843      	ldr	r3, [r0, #4]
    18fc:	213e      	movs	r1, #62	; 0x3e
    18fe:	4019      	ands	r1, r3
    1900:	0149      	lsls	r1, r1, #5
    1902:	430e      	orrs	r6, r1
    1904:	213e      	movs	r1, #62	; 0x3e
    1906:	438b      	bics	r3, r1
    1908:	f7fe fcd9 	bl	2be <generiere_adresskonstante>
    190c:	6003      	str	r3, [r0, #0]
    190e:	00db      	lsls	r3, r3, #3
    1910:	431e      	orrs	r6, r3
    1912:	6883      	ldr	r3, [r0, #8]
    1914:	2b28      	cmp	r3, #40	; 0x28
    1916:	d102      	bne.n	191e <allocator_2store+0x38>
    1918:	68c3      	ldr	r3, [r0, #12]
    191a:	f7fe fcc4 	bl	2a6 <generiere_konstante>
    191e:	431e      	orrs	r6, r3
    1920:	f001 fbf9 	bl	3116 <Code_795>
    1924:	f7fe fc41 	bl	1aa <eliminiere_tos>
    1928:	f7fe fc3f 	bl	1aa <eliminiere_tos>
    192c:	bd00      	pop	{pc}

0000192e <Dictionary_391>:
    192e:	00001964 	andeq	r1, r0, r4, ror #18
    1932:	68030220 	stmdavs	r3, {r5, r9}
    1936:	cf03212b 	svcgt	0x0003212b

00001938 <Code_391>:
    1938:	cf03      	ldmia	r7!, {r0, r1}
    193a:	8832      	ldrh	r2, [r6, #0]
    193c:	1812      	adds	r2, r2, r0
    193e:	8032      	strh	r2, [r6, #0]
    1940:	000e      	movs	r6, r1
    1942:	4770      	bx	lr
    1944:	b500      	push	{lr}
    1946:	f7fe fd3b 	bl	3c0 <expect_two_elements>
    194a:	f7ff fa57 	bl	dfc <dup_allocator>
    194e:	f7ff ffa6 	bl	189e <allocator_2fetch>
    1952:	f7ff fadd 	bl	f10 <rot_allocator>
    1956:	f000 fac2 	bl	1ede <plus_allocator>
    195a:	f7ff fa84 	bl	e66 <swap_allocator>
    195e:	f7ff ffc2 	bl	18e6 <allocator_2store>
    1962:	bd00      	pop	{pc}

00001964 <Dictionary_392>:
    1964:	000019a8 	andeq	r1, r0, r8, lsr #19
    1968:	63020220 	movwvs	r0, #8736	; 0x2220
    196c:	78360040 	ldmdavc	r6!, {r6}

0000196e <Code_392>:
    196e:	7836      	ldrb	r6, [r6, #0]
    1970:	4770      	bx	lr

00001972 <allocator_1fetch>:
    1972:	b500      	push	{lr}
    1974:	f7fe fd1a 	bl	3ac <expect_one_element>
    1978:	f847 6d04 	str.w	r6, [r7, #-4]!
    197c:	f647 0600 	movw	r6, #30720	; 0x7800
    1980:	6803      	ldr	r3, [r0, #0]
    1982:	2b28      	cmp	r3, #40	; 0x28
    1984:	d108      	bne.n	1998 <allocator_1fetch+0x26>
    1986:	6843      	ldr	r3, [r0, #4]
    1988:	211f      	movs	r1, #31
    198a:	4019      	ands	r1, r3
    198c:	0189      	lsls	r1, r1, #6
    198e:	430e      	orrs	r6, r1
    1990:	211f      	movs	r1, #31
    1992:	438b      	bics	r3, r1
    1994:	f7fe fc93 	bl	2be <generiere_adresskonstante>
    1998:	00db      	lsls	r3, r3, #3
    199a:	431e      	orrs	r6, r3
    199c:	f7fe fd90 	bl	4c0 <tos_registerwechsel>
    19a0:	431e      	orrs	r6, r3
    19a2:	f001 fbb8 	bl	3116 <Code_795>
    19a6:	bd00      	pop	{pc}

000019a8 <Dictionary_395>:
    19a8:	00001a02 	andeq	r1, r0, r2, lsl #20
    19ac:	63020220 	movwvs	r0, #8736	; 0x2220
    19b0:	cf030021 	svcgt	0x00030021

000019b2 <Code_395>:
    19b2:	cf03      	ldmia	r7!, {r0, r1}
    19b4:	7030      	strb	r0, [r6, #0]
    19b6:	000e      	movs	r6, r1
    19b8:	4770      	bx	lr

000019ba <allocator_1store>:
    19ba:	b500      	push	{lr}
    19bc:	f7fe fd00 	bl	3c0 <expect_two_elements>
    19c0:	f847 6d04 	str.w	r6, [r7, #-4]!
    19c4:	f247 0600 	movw	r6, #28672	; 0x7000
    19c8:	6803      	ldr	r3, [r0, #0]
    19ca:	2b28      	cmp	r3, #40	; 0x28
    19cc:	d109      	bne.n	19e2 <allocator_1store+0x28>
    19ce:	6843      	ldr	r3, [r0, #4]
    19d0:	211f      	movs	r1, #31
    19d2:	4019      	ands	r1, r3
    19d4:	0189      	lsls	r1, r1, #6
    19d6:	430e      	orrs	r6, r1
    19d8:	211f      	movs	r1, #31
    19da:	438b      	bics	r3, r1
    19dc:	f7fe fc6f 	bl	2be <generiere_adresskonstante>
    19e0:	6003      	str	r3, [r0, #0]
    19e2:	00db      	lsls	r3, r3, #3
    19e4:	431e      	orrs	r6, r3
    19e6:	6883      	ldr	r3, [r0, #8]
    19e8:	2b28      	cmp	r3, #40	; 0x28
    19ea:	d102      	bne.n	19f2 <allocator_1store+0x38>
    19ec:	68c3      	ldr	r3, [r0, #12]
    19ee:	f7fe fc5a 	bl	2a6 <generiere_konstante>
    19f2:	431e      	orrs	r6, r3
    19f4:	f001 fb8f 	bl	3116 <Code_795>
    19f8:	f7fe fbd7 	bl	1aa <eliminiere_tos>
    19fc:	f7fe fbd5 	bl	1aa <eliminiere_tos>
    1a00:	bd00      	pop	{pc}

00001a02 <Dictionary_398>:
    1a02:	00001a38 	andeq	r1, r0, r8, lsr sl
    1a06:	63030220 	movwvs	r0, #12832	; 0x3220
    1a0a:	cf03212b 	svcgt	0x0003212b

00001a0c <Code_398>:
    1a0c:	cf03      	ldmia	r7!, {r0, r1}
    1a0e:	7832      	ldrb	r2, [r6, #0]
    1a10:	1812      	adds	r2, r2, r0
    1a12:	7032      	strb	r2, [r6, #0]
    1a14:	000e      	movs	r6, r1
    1a16:	4770      	bx	lr
    1a18:	b500      	push	{lr}
    1a1a:	f7fe fcd1 	bl	3c0 <expect_two_elements>
    1a1e:	f7ff f9ed 	bl	dfc <dup_allocator>
    1a22:	f7ff ffa6 	bl	1972 <allocator_1fetch>
    1a26:	f7ff fa73 	bl	f10 <rot_allocator>
    1a2a:	f000 fa58 	bl	1ede <plus_allocator>
    1a2e:	f7ff fa1a 	bl	e66 <swap_allocator>
    1a32:	f7ff ffc2 	bl	19ba <allocator_1store>
    1a36:	bd00      	pop	{pc}

00001a38 <Dictionary_399>:
    1a38:	00001a78 	andeq	r1, r0, r8, ror sl
    1a3c:	62040220 	andvs	r0, r4, #2
    1a40:	00217369 	eoreq	r7, r1, r9, ror #6

00001a44 <Code_399>:
    1a44:	cf03      	ldmia	r7!, {r0, r1}
    1a46:	6832      	ldr	r2, [r6, #0]
    1a48:	4302      	orrs	r2, r0
    1a4a:	6032      	str	r2, [r6, #0]
    1a4c:	000e      	movs	r6, r1
    1a4e:	4770      	bx	lr
    1a50:	b500      	push	{lr}
    1a52:	f7fe fcb5 	bl	3c0 <expect_two_elements>
    1a56:	f7ff f9d1 	bl	dfc <dup_allocator>
    1a5a:	f7ff feb7 	bl	17cc <allocator_4fetch>
    1a5e:	f7ff fa57 	bl	f10 <rot_allocator>
    1a62:	f847 6d04 	str.w	r6, [r7, #-4]!
    1a66:	f244 3600 	movw	r6, #17152	; 0x4300
    1a6a:	f7ff fc03 	bl	1274 <alloc_kommutativ>
    1a6e:	f7ff f9fa 	bl	e66 <swap_allocator>
    1a72:	f7ff fece 	bl	1812 <allocator_4store>
    1a76:	bd00      	pop	{pc}

00001a78 <Dictionary_402>:
    1a78:	00001ab8 			; <UNDEFINED> instruction: 0x00001ab8
    1a7c:	62040220 	andvs	r0, r4, #2
    1a80:	00216369 	eoreq	r6, r1, r9, ror #6

00001a84 <Code_402>:
    1a84:	cf03      	ldmia	r7!, {r0, r1}
    1a86:	6832      	ldr	r2, [r6, #0]
    1a88:	4382      	bics	r2, r0
    1a8a:	6032      	str	r2, [r6, #0]
    1a8c:	000e      	movs	r6, r1
    1a8e:	4770      	bx	lr
    1a90:	b500      	push	{lr}
    1a92:	f7fe fc95 	bl	3c0 <expect_two_elements>
    1a96:	f7ff f9b1 	bl	dfc <dup_allocator>
    1a9a:	f7ff fe97 	bl	17cc <allocator_4fetch>
    1a9e:	f7ff fa37 	bl	f10 <rot_allocator>
    1aa2:	f847 6d04 	str.w	r6, [r7, #-4]!
    1aa6:	f244 3680 	movw	r6, #17280	; 0x4380
    1aaa:	f7ff fbdf 	bl	126c <alloc_unkommutativ>
    1aae:	f7ff f9da 	bl	e66 <swap_allocator>
    1ab2:	f7ff feae 	bl	1812 <allocator_4store>
    1ab6:	bd00      	pop	{pc}

00001ab8 <Dictionary_405>:
    1ab8:	00001af8 	strdeq	r1, [r0], -r8
    1abc:	78040220 	stmdavc	r4, {r5, r9}
    1ac0:	0021726f 	eoreq	r7, r1, pc, ror #4

00001ac4 <Code_405>:
    1ac4:	cf03      	ldmia	r7!, {r0, r1}
    1ac6:	6832      	ldr	r2, [r6, #0]
    1ac8:	4042      	eors	r2, r0
    1aca:	6032      	str	r2, [r6, #0]
    1acc:	000e      	movs	r6, r1
    1ace:	4770      	bx	lr
    1ad0:	b500      	push	{lr}
    1ad2:	f7fe fc75 	bl	3c0 <expect_two_elements>
    1ad6:	f7ff f991 	bl	dfc <dup_allocator>
    1ada:	f7ff fe77 	bl	17cc <allocator_4fetch>
    1ade:	f7ff fa17 	bl	f10 <rot_allocator>
    1ae2:	f847 6d04 	str.w	r6, [r7, #-4]!
    1ae6:	f244 0640 	movw	r6, #16448	; 0x4040
    1aea:	f7ff fbc3 	bl	1274 <alloc_kommutativ>
    1aee:	f7ff f9ba 	bl	e66 <swap_allocator>
    1af2:	f7ff fe8e 	bl	1812 <allocator_4store>
    1af6:	bd00      	pop	{pc}

00001af8 <Dictionary_408>:
    1af8:	00001b2e 	andeq	r1, r0, lr, lsr #22
    1afc:	62040220 	andvs	r0, r4, #2
    1b00:	00407469 	subeq	r7, r0, r9, ror #8

00001b04 <Code_408>:
    1b04:	cf01      	ldmia	r7!, {r0}
    1b06:	6836      	ldr	r6, [r6, #0]
    1b08:	4006      	ands	r6, r0
    1b0a:	bf18      	it	ne
    1b0c:	f04f 36ff 	movne.w	r6, #4294967295
    1b10:	4770      	bx	lr
    1b12:	b500      	push	{lr}
    1b14:	f7fe fc54 	bl	3c0 <expect_two_elements>
    1b18:	f7ff fe58 	bl	17cc <allocator_4fetch>
    1b1c:	f847 6d04 	str.w	r6, [r7, #-4]!
    1b20:	f244 0600 	movw	r6, #16384	; 0x4000
    1b24:	f7ff fba6 	bl	1274 <alloc_kommutativ>
    1b28:	f7ff fc1d 	bl	1366 <allocator_unequal_zero>
    1b2c:	bd00      	pop	{pc}

00001b2e <Dictionary_411>:
    1b2e:	00001b6e 	andeq	r1, r0, lr, ror #22
    1b32:	68050220 	stmdavs	r5, {r5, r9}
    1b36:	21736962 	cmncs	r3, r2, ror #18

00001b3a <Code_411>:
    1b3a:	cf03      	ldmia	r7!, {r0, r1}
    1b3c:	8832      	ldrh	r2, [r6, #0]
    1b3e:	4302      	orrs	r2, r0
    1b40:	8032      	strh	r2, [r6, #0]
    1b42:	000e      	movs	r6, r1
    1b44:	4770      	bx	lr
    1b46:	b500      	push	{lr}
    1b48:	f7fe fc3a 	bl	3c0 <expect_two_elements>
    1b4c:	f7ff f956 	bl	dfc <dup_allocator>
    1b50:	f7ff fea5 	bl	189e <allocator_2fetch>
    1b54:	f7ff f9dc 	bl	f10 <rot_allocator>
    1b58:	f847 6d04 	str.w	r6, [r7, #-4]!
    1b5c:	f244 3600 	movw	r6, #17152	; 0x4300
    1b60:	f7ff fb88 	bl	1274 <alloc_kommutativ>
    1b64:	f7ff f97f 	bl	e66 <swap_allocator>
    1b68:	f7ff febd 	bl	18e6 <allocator_2store>
    1b6c:	bd00      	pop	{pc}

00001b6e <Dictionary_414>:
    1b6e:	00001bae 	andeq	r1, r0, lr, lsr #23
    1b72:	68050220 	stmdavs	r5, {r5, r9}
    1b76:	21636962 	cmncs	r3, r2, ror #18

00001b7a <Code_414>:
    1b7a:	cf03      	ldmia	r7!, {r0, r1}
    1b7c:	8832      	ldrh	r2, [r6, #0]
    1b7e:	4382      	bics	r2, r0
    1b80:	8032      	strh	r2, [r6, #0]
    1b82:	000e      	movs	r6, r1
    1b84:	4770      	bx	lr
    1b86:	b500      	push	{lr}
    1b88:	f7fe fc1a 	bl	3c0 <expect_two_elements>
    1b8c:	f7ff f936 	bl	dfc <dup_allocator>
    1b90:	f7ff fe85 	bl	189e <allocator_2fetch>
    1b94:	f7ff f9bc 	bl	f10 <rot_allocator>
    1b98:	f847 6d04 	str.w	r6, [r7, #-4]!
    1b9c:	f244 3680 	movw	r6, #17280	; 0x4380
    1ba0:	f7ff fb64 	bl	126c <alloc_unkommutativ>
    1ba4:	f7ff f95f 	bl	e66 <swap_allocator>
    1ba8:	f7ff fe9d 	bl	18e6 <allocator_2store>
    1bac:	bd00      	pop	{pc}

00001bae <Dictionary_417>:
    1bae:	00001bee 	andeq	r1, r0, lr, ror #23
    1bb2:	68050220 	stmdavs	r5, {r5, r9}
    1bb6:	21726f78 	cmncs	r2, r8, ror pc

00001bba <Code_417>:
    1bba:	cf03      	ldmia	r7!, {r0, r1}
    1bbc:	8832      	ldrh	r2, [r6, #0]
    1bbe:	4042      	eors	r2, r0
    1bc0:	8032      	strh	r2, [r6, #0]
    1bc2:	000e      	movs	r6, r1
    1bc4:	4770      	bx	lr
    1bc6:	b500      	push	{lr}
    1bc8:	f7fe fbfa 	bl	3c0 <expect_two_elements>
    1bcc:	f7ff f916 	bl	dfc <dup_allocator>
    1bd0:	f7ff fe65 	bl	189e <allocator_2fetch>
    1bd4:	f7ff f99c 	bl	f10 <rot_allocator>
    1bd8:	f847 6d04 	str.w	r6, [r7, #-4]!
    1bdc:	f244 0640 	movw	r6, #16448	; 0x4040
    1be0:	f7ff fb48 	bl	1274 <alloc_kommutativ>
    1be4:	f7ff f93f 	bl	e66 <swap_allocator>
    1be8:	f7ff fe7d 	bl	18e6 <allocator_2store>
    1bec:	bd00      	pop	{pc}

00001bee <Dictionary_420>:
    1bee:	00001c24 	andeq	r1, r0, r4, lsr #24
    1bf2:	68050220 	stmdavs	r5, {r5, r9}
    1bf6:	40746962 	rsbsmi	r6, r4, r2, ror #18

00001bfa <Code_420>:
    1bfa:	cf01      	ldmia	r7!, {r0}
    1bfc:	8836      	ldrh	r6, [r6, #0]
    1bfe:	4006      	ands	r6, r0
    1c00:	bf18      	it	ne
    1c02:	f04f 36ff 	movne.w	r6, #4294967295
    1c06:	4770      	bx	lr
    1c08:	b500      	push	{lr}
    1c0a:	f7fe fbd9 	bl	3c0 <expect_two_elements>
    1c0e:	f7ff fe46 	bl	189e <allocator_2fetch>
    1c12:	f847 6d04 	str.w	r6, [r7, #-4]!
    1c16:	f244 0600 	movw	r6, #16384	; 0x4000
    1c1a:	f7ff fb2b 	bl	1274 <alloc_kommutativ>
    1c1e:	f7ff fba2 	bl	1366 <allocator_unequal_zero>
    1c22:	bd00      	pop	{pc}

00001c24 <Dictionary_423>:
    1c24:	00001c64 	andeq	r1, r0, r4, ror #24
    1c28:	63050220 	movwvs	r0, #21024	; 0x5220
    1c2c:	21736962 	cmncs	r3, r2, ror #18

00001c30 <Code_423>:
    1c30:	cf03      	ldmia	r7!, {r0, r1}
    1c32:	7832      	ldrb	r2, [r6, #0]
    1c34:	4302      	orrs	r2, r0
    1c36:	7032      	strb	r2, [r6, #0]
    1c38:	000e      	movs	r6, r1
    1c3a:	4770      	bx	lr
    1c3c:	b500      	push	{lr}
    1c3e:	f7fe fbbf 	bl	3c0 <expect_two_elements>
    1c42:	f7ff f8db 	bl	dfc <dup_allocator>
    1c46:	f7ff fe94 	bl	1972 <allocator_1fetch>
    1c4a:	f7ff f961 	bl	f10 <rot_allocator>
    1c4e:	f847 6d04 	str.w	r6, [r7, #-4]!
    1c52:	f244 3600 	movw	r6, #17152	; 0x4300
    1c56:	f7ff fb0d 	bl	1274 <alloc_kommutativ>
    1c5a:	f7ff f904 	bl	e66 <swap_allocator>
    1c5e:	f7ff feac 	bl	19ba <allocator_1store>
    1c62:	bd00      	pop	{pc}

00001c64 <Dictionary_426>:
    1c64:	00001ca4 	andeq	r1, r0, r4, lsr #25
    1c68:	63050220 	movwvs	r0, #21024	; 0x5220
    1c6c:	21636962 	cmncs	r3, r2, ror #18

00001c70 <Code_426>:
    1c70:	cf03      	ldmia	r7!, {r0, r1}
    1c72:	7832      	ldrb	r2, [r6, #0]
    1c74:	4382      	bics	r2, r0
    1c76:	7032      	strb	r2, [r6, #0]
    1c78:	000e      	movs	r6, r1
    1c7a:	4770      	bx	lr
    1c7c:	b500      	push	{lr}
    1c7e:	f7fe fb9f 	bl	3c0 <expect_two_elements>
    1c82:	f7ff f8bb 	bl	dfc <dup_allocator>
    1c86:	f7ff fe74 	bl	1972 <allocator_1fetch>
    1c8a:	f7ff f941 	bl	f10 <rot_allocator>
    1c8e:	f847 6d04 	str.w	r6, [r7, #-4]!
    1c92:	f244 3680 	movw	r6, #17280	; 0x4380
    1c96:	f7ff fae9 	bl	126c <alloc_unkommutativ>
    1c9a:	f7ff f8e4 	bl	e66 <swap_allocator>
    1c9e:	f7ff fe8c 	bl	19ba <allocator_1store>
    1ca2:	bd00      	pop	{pc}

00001ca4 <Dictionary_429>:
    1ca4:	00001ce4 	andeq	r1, r0, r4, ror #25
    1ca8:	63050220 	movwvs	r0, #21024	; 0x5220
    1cac:	21726f78 	cmncs	r2, r8, ror pc

00001cb0 <Code_429>:
    1cb0:	cf03      	ldmia	r7!, {r0, r1}
    1cb2:	7832      	ldrb	r2, [r6, #0]
    1cb4:	4042      	eors	r2, r0
    1cb6:	7032      	strb	r2, [r6, #0]
    1cb8:	000e      	movs	r6, r1
    1cba:	4770      	bx	lr
    1cbc:	b500      	push	{lr}
    1cbe:	f7fe fb7f 	bl	3c0 <expect_two_elements>
    1cc2:	f7ff f89b 	bl	dfc <dup_allocator>
    1cc6:	f7ff fe54 	bl	1972 <allocator_1fetch>
    1cca:	f7ff f921 	bl	f10 <rot_allocator>
    1cce:	f847 6d04 	str.w	r6, [r7, #-4]!
    1cd2:	f244 0640 	movw	r6, #16448	; 0x4040
    1cd6:	f7ff facd 	bl	1274 <alloc_kommutativ>
    1cda:	f7ff f8c4 	bl	e66 <swap_allocator>
    1cde:	f7ff fe6c 	bl	19ba <allocator_1store>
    1ce2:	bd00      	pop	{pc}

00001ce4 <Dictionary_432>:
    1ce4:	00001d1a 	andeq	r1, r0, sl, lsl sp
    1ce8:	63050220 	movwvs	r0, #21024	; 0x5220
    1cec:	40746962 	rsbsmi	r6, r4, r2, ror #18

00001cf0 <Code_432>:
    1cf0:	cf01      	ldmia	r7!, {r0}
    1cf2:	7836      	ldrb	r6, [r6, #0]
    1cf4:	4006      	ands	r6, r0
    1cf6:	bf18      	it	ne
    1cf8:	f04f 36ff 	movne.w	r6, #4294967295
    1cfc:	4770      	bx	lr
    1cfe:	b500      	push	{lr}
    1d00:	f7fe fb5e 	bl	3c0 <expect_two_elements>
    1d04:	f7ff fe35 	bl	1972 <allocator_1fetch>
    1d08:	f847 6d04 	str.w	r6, [r7, #-4]!
    1d0c:	f244 0600 	movw	r6, #16384	; 0x4000
    1d10:	f7ff fab0 	bl	1274 <alloc_kommutativ>
    1d14:	f7ff fb27 	bl	1366 <allocator_unequal_zero>
    1d18:	bd00      	pop	{pc}

00001d1a <Dictionary_435>:
    1d1a:	00001dca 	andeq	r1, r0, sl, asr #27
    1d1e:	68070000 	stmdavs	r7, {}	; <UNPREDICTABLE>
    1d22:	73616c66 	cmnvc	r1, #26112	; 0x6600
    1d26:	00302168 	eorseq	r2, r0, r8, ror #2

00001d28 <Code_435>:
    1d28:	0030      	movs	r0, r6
    1d2a:	cf40      	ldmia	r7!, {r6}
    1d2c:	0031      	movs	r1, r6
    1d2e:	cf40      	ldmia	r7!, {r6}
    1d30:	4b5f      	ldr	r3, [pc, #380]	; (1eb0 <Code_449+0x6>)
    1d32:	4298      	cmp	r0, r3
    1d34:	d32f      	bcc.n	1d96 <Code_435+0x6e>
    1d36:	4b5f      	ldr	r3, [pc, #380]	; (1eb4 <Code_449+0xa>)
    1d38:	4298      	cmp	r0, r3
    1d3a:	d22c      	bcs.n	1d96 <Code_435+0x6e>
    1d3c:	4b5e      	ldr	r3, [pc, #376]	; (1eb8 <Code_449+0xe>)
    1d3e:	4019      	ands	r1, r3
    1d40:	4299      	cmp	r1, r3
    1d42:	d027      	beq.n	1d94 <Code_435+0x6c>
    1d44:	2201      	movs	r2, #1
    1d46:	4002      	ands	r2, r0
    1d48:	2a00      	cmp	r2, #0
    1d4a:	d124      	bne.n	1d96 <Code_435+0x6e>
    1d4c:	8802      	ldrh	r2, [r0, #0]
    1d4e:	429a      	cmp	r2, r3
    1d50:	d121      	bne.n	1d96 <Code_435+0x6e>
    1d52:	4a5a      	ldr	r2, [pc, #360]	; (1ebc <Code_449+0x12>)
    1d54:	2301      	movs	r3, #1
    1d56:	6013      	str	r3, [r2, #0]
    1d58:	4a59      	ldr	r2, [pc, #356]	; (1ec0 <Code_449+0x16>)
    1d5a:	f030 0302 	bics.w	r3, r0, #2
    1d5e:	6013      	str	r3, [r2, #0]
    1d60:	4a58      	ldr	r2, [pc, #352]	; (1ec4 <Code_449+0x1a>)
    1d62:	f010 0f02 	tst.w	r0, #2
    1d66:	d102      	bne.n	1d6e <Code_435+0x46>
    1d68:	f6cf 71ff 	movt	r1, #65535	; 0xffff
    1d6c:	e003      	b.n	1d76 <Code_435+0x4e>
    1d6e:	0409      	lsls	r1, r1, #16
    1d70:	f64f 73ff 	movw	r3, #65535	; 0xffff
    1d74:	4319      	orrs	r1, r3
    1d76:	6011      	str	r1, [r2, #0]
    1d78:	4a53      	ldr	r2, [pc, #332]	; (1ec8 <Code_449+0x1e>)
    1d7a:	2301      	movs	r3, #1
    1d7c:	6013      	str	r3, [r2, #0]
    1d7e:	4a52      	ldr	r2, [pc, #328]	; (1ec8 <Code_449+0x1e>)
    1d80:	2308      	movs	r3, #8
    1d82:	6013      	str	r3, [r2, #0]
    1d84:	4a51      	ldr	r2, [pc, #324]	; (1ecc <Code_449+0x22>)
    1d86:	6813      	ldr	r3, [r2, #0]
    1d88:	f013 0301 	ands.w	r3, r3, #1
    1d8c:	d1fb      	bne.n	1d86 <Code_435+0x5e>
    1d8e:	4a4b      	ldr	r2, [pc, #300]	; (1ebc <Code_449+0x12>)
    1d90:	2300      	movs	r3, #0
    1d92:	6013      	str	r3, [r2, #0]
    1d94:	4770      	bx	lr
    1d96:	f000 fc96 	bl	26c6 <dotgaensefuesschen>
    1d9a:	6f72572a 	svcvs	0x0072572a
    1d9e:	6120676e 	teqvs	r0, lr, ror #14
    1da2:	65726464 	ldrbvs	r6, [r2, #-1124]!	; 0x464
    1da6:	6f207373 	svcvs	0x00207373
    1daa:	61642072 	smcvs	16898	; 0x4202
    1dae:	66206174 			; <UNDEFINED> instruction: 0x66206174
    1db2:	7720726f 	strvc	r7, [r0, -pc, ror #4]!
    1db6:	69746972 	ldmdbvs	r4!, {r1, r4, r5, r6, r8, fp, sp, lr}^
    1dba:	6620676e 	strtvs	r6, [r0], -lr, ror #14
    1dbe:	6873616c 	ldmdavs	r3!, {r2, r3, r5, r6, r8, sp, lr}^
    1dc2:	000a2120 	andeq	r2, sl, r0, lsr #2
    1dc6:	f002 bc08 	b.w	45da <Code_1206>

00001dca <Dictionary_439>:
    1dca:	00001e18 	andeq	r1, r0, r8, lsl lr
    1dce:	660e0000 	strvs	r0, [lr], -r0
    1dd2:	6873616c 	ldmdavs	r3!, {r2, r3, r5, r6, r8, sp, lr}^
    1dd6:	65676170 	strbvs	r6, [r7, #-368]!	; 0x170
    1dda:	73617265 	cmnvc	r1, #1342177286	; 0x50000006
    1dde:	b50f0065 	strlt	r0, [pc, #-101]	; 1d81 <Code_435+0x59>

00001de0 <Code_439>:
    1de0:	b50f      	push	{r0, r1, r2, r3, lr}
    1de2:	0030      	movs	r0, r6
    1de4:	cf40      	ldmia	r7!, {r6}
    1de6:	4b32      	ldr	r3, [pc, #200]	; (1eb0 <Code_449+0x6>)
    1de8:	4298      	cmp	r0, r3
    1dea:	d314      	bcc.n	1e16 <Code_439+0x36>
    1dec:	4a33      	ldr	r2, [pc, #204]	; (1ebc <Code_449+0x12>)
    1dee:	2301      	movs	r3, #1
    1df0:	6013      	str	r3, [r2, #0]
    1df2:	4a33      	ldr	r2, [pc, #204]	; (1ec0 <Code_449+0x16>)
    1df4:	f030 0302 	bics.w	r3, r0, #2
    1df8:	6013      	str	r3, [r2, #0]
    1dfa:	4a33      	ldr	r2, [pc, #204]	; (1ec8 <Code_449+0x1e>)
    1dfc:	2301      	movs	r3, #1
    1dfe:	6013      	str	r3, [r2, #0]
    1e00:	4a31      	ldr	r2, [pc, #196]	; (1ec8 <Code_449+0x1e>)
    1e02:	2302      	movs	r3, #2
    1e04:	6013      	str	r3, [r2, #0]
    1e06:	4a31      	ldr	r2, [pc, #196]	; (1ecc <Code_449+0x22>)
    1e08:	6813      	ldr	r3, [r2, #0]
    1e0a:	f013 0301 	ands.w	r3, r3, #1
    1e0e:	d1fb      	bne.n	1e08 <Code_439+0x28>
    1e10:	4a2a      	ldr	r2, [pc, #168]	; (1ebc <Code_449+0x12>)
    1e12:	2300      	movs	r3, #0
    1e14:	6013      	str	r3, [r2, #0]
    1e16:	bd0f      	pop	{r0, r1, r2, r3, pc}

00001e18 <Dictionary_441>:
    1e18:	00001e94 	muleq	r0, r4, lr
    1e1c:	650a0000 	strvs	r0, [sl]
    1e20:	65736172 	ldrbvs	r6, [r3, #-370]!	; 0x172
    1e24:	73616c66 	cmnvc	r1, #26112	; 0x6600
    1e28:	48210068 	stmdami	r1!, {r3, r5, r6}

00001e2a <Code_441>:
    1e2a:	4821      	ldr	r0, [pc, #132]	; (1eb0 <Code_449+0x6>)

00001e2c <eraseflash_intern>:
    1e2c:	b672      	cpsid	i
    1e2e:	4921      	ldr	r1, [pc, #132]	; (1eb4 <Code_449+0xa>)
    1e30:	4a21      	ldr	r2, [pc, #132]	; (1eb8 <Code_449+0xe>)
    1e32:	8803      	ldrh	r3, [r0, #0]
    1e34:	4293      	cmp	r3, r2
    1e36:	d01c      	beq.n	1e72 <eraseflash_intern+0x46>
    1e38:	f847 6d04 	str.w	r6, [r7, #-4]!
    1e3c:	0006      	movs	r6, r0
    1e3e:	f847 6d04 	str.w	r6, [r7, #-4]!
    1e42:	f000 fc40 	bl	26c6 <dotgaensefuesschen>
    1e46:	61724510 	cmnvs	r2, r0, lsl r5
    1e4a:	62206573 	eorvs	r6, r0, #482344960	; 0x1cc00000
    1e4e:	6b636f6c 	blvs	18ddc06 <BIT24+0x8ddc06>
    1e52:	20746120 	rsbscs	r6, r4, r0, lsr #2
    1e56:	f0000020 			; <UNDEFINED> instruction: 0xf0000020
    1e5a:	fca8 f000 	stc2	0, cr15, [r8]
    1e5e:	fc33 200c 	ldc2	0, cr2, [r3], #-48	; 0xffffffd0
    1e62:	6d6f7266 	sfmvs	f7, 2, [pc, #-408]!	; 1cd0 <Code_429+0x20>
    1e66:	616c4620 	cmnvs	ip, r0, lsr #12
    1e6a:	000a6873 	andeq	r6, sl, r3, ror r8
    1e6e:	f7ff ffb7 	bl	1de0 <Code_439>
    1e72:	3002      	adds	r0, #2
    1e74:	4288      	cmp	r0, r1
    1e76:	d1dc      	bne.n	1e32 <eraseflash_intern+0x6>
    1e78:	f000 fc25 	bl	26c6 <dotgaensefuesschen>
    1e7c:	6e694612 	mcrvs	6, 3, r4, cr9, cr2, {0}
    1e80:	65687369 	strbvs	r7, [r8, #-873]!	; 0x369
    1e84:	52202e64 	eorpl	r2, r0, #1600	; 0x640
    1e88:	74657365 	strbtvc	r7, [r5], #-869	; 0x365
    1e8c:	000a2120 	andeq	r2, sl, r0, lsr #2
    1e90:	f002 fc3d 	bl	470e <Code_1219>

00001e94 <Dictionary_449>:
    1e94:	00001ed0 	ldrdeq	r1, [r0], -r0
    1e98:	650e0000 	strvs	r0, [lr]
    1e9c:	65736172 	ldrbvs	r6, [r3, #-370]!	; 0x172
    1ea0:	73616c66 	cmnvc	r1, #26112	; 0x6600
    1ea4:	6f726668 	svcvs	0x00726668
    1ea8:	0030006d 	eorseq	r0, r0, sp, rrx

00001eaa <Code_449>:
    1eaa:	0030      	movs	r0, r6
    1eac:	cf40      	ldmia	r7!, {r6}
    1eae:	e7bd      	b.n	1e2c <eraseflash_intern>
    1eb0:	00005000 	andeq	r5, r0, r0
    1eb4:	00100000 	andseq	r0, r0, r0
    1eb8:	0000ffff 	strdeq	pc, [r0], -pc	; <UNPREDICTABLE>
    1ebc:	400c0008 	andmi	r0, ip, r8
    1ec0:	400c0010 	andmi	r0, ip, r0, lsl r0
    1ec4:	400c0018 	andmi	r0, ip, r8, lsl r0
    1ec8:	400c000c 	andmi	r0, ip, ip
    1ecc:	400c001c 	andmi	r0, ip, ip, lsl r0

00001ed0 <Dictionary_451>:
    1ed0:	00001f06 	andeq	r1, r0, r6, lsl #30
    1ed4:	2b010262 	blcs	42864 <BIT18+0x2864>

00001ed8 <Code_451>:
    1ed8:	cf01      	ldmia	r7!, {r0}
    1eda:	1836      	adds	r6, r6, r0
    1edc:	4770      	bx	lr

00001ede <plus_allocator>:
    1ede:	b500      	push	{lr}
    1ee0:	f7fe fa6e 	bl	3c0 <expect_two_elements>
    1ee4:	f847 6d04 	str.w	r6, [r7, #-4]!
    1ee8:	f243 0600 	movw	r6, #12288	; 0x3000
    1eec:	f847 6d04 	str.w	r6, [r7, #-4]!
    1ef0:	4ec8      	ldr	r6, [pc, #800]	; (2214 <Code_523+0x8>)
    1ef2:	f847 6d04 	str.w	r6, [r7, #-4]!
    1ef6:	f641 0600 	movw	r6, #6144	; 0x1800
    1efa:	6881      	ldr	r1, [r0, #8]
    1efc:	2928      	cmp	r1, #40	; 0x28
    1efe:	d117      	bne.n	1f30 <minus_allocator+0x1c>
    1f00:	f7fe ffb1 	bl	e66 <swap_allocator>
    1f04:	e014      	b.n	1f30 <minus_allocator+0x1c>

00001f06 <Dictionary_457>:
    1f06:	00001fac 	andeq	r1, r0, ip, lsr #31
    1f0a:	2d010262 	sfmcs	f0, 4, [r1, #-392]	; 0xfffffe78

00001f0e <Code_457>:
    1f0e:	cf01      	ldmia	r7!, {r0}
    1f10:	1b86      	subs	r6, r0, r6
    1f12:	4770      	bx	lr

00001f14 <minus_allocator>:
    1f14:	b500      	push	{lr}
    1f16:	f7fe fa53 	bl	3c0 <expect_two_elements>
    1f1a:	f847 6d04 	str.w	r6, [r7, #-4]!
    1f1e:	f643 0600 	movw	r6, #14336	; 0x3800
    1f22:	f847 6d04 	str.w	r6, [r7, #-4]!
    1f26:	4ebc      	ldr	r6, [pc, #752]	; (2218 <Code_523+0xc>)
    1f28:	f847 6d04 	str.w	r6, [r7, #-4]!
    1f2c:	f641 2600 	movw	r6, #6656	; 0x1a00
    1f30:	f7fe fa82 	bl	438 <expect_nos_in_register>
    1f34:	6801      	ldr	r1, [r0, #0]
    1f36:	2928      	cmp	r1, #40	; 0x28
    1f38:	d127      	bne.n	1f8a <minus_allocator+0x76>
    1f3a:	6841      	ldr	r1, [r0, #4]
    1f3c:	29ff      	cmp	r1, #255	; 0xff
    1f3e:	d80c      	bhi.n	1f5a <minus_allocator+0x46>
    1f40:	cf40      	ldmia	r7!, {r6}
    1f42:	cf40      	ldmia	r7!, {r6}
    1f44:	f7fe fa8c 	bl	460 <nos_change_tos_away_later>
    1f48:	430e      	orrs	r6, r1
    1f4a:	6881      	ldr	r1, [r0, #8]
    1f4c:	0209      	lsls	r1, r1, #8
    1f4e:	430e      	orrs	r6, r1
    1f50:	f001 f8e1 	bl	3116 <Code_795>
    1f54:	f7fe f929 	bl	1aa <eliminiere_tos>
    1f58:	bd00      	pop	{pc}
    1f5a:	f847 6d04 	str.w	r6, [r7, #-4]!
    1f5e:	000e      	movs	r6, r1
    1f60:	f000 fcf6 	bl	2950 <Code_664>
    1f64:	cf02      	ldmia	r7!, {r1}
    1f66:	2e00      	cmp	r6, #0
    1f68:	cf40      	ldmia	r7!, {r6}
    1f6a:	d00e      	beq.n	1f8a <minus_allocator+0x76>
    1f6c:	cf40      	ldmia	r7!, {r6}
    1f6e:	3704      	adds	r7, #4
    1f70:	430e      	orrs	r6, r1
    1f72:	6881      	ldr	r1, [r0, #8]
    1f74:	ea56 4601 	orrs.w	r6, r6, r1, lsl #16
    1f78:	f7fe f917 	bl	1aa <eliminiere_tos>
    1f7c:	f7fe faa0 	bl	4c0 <tos_registerwechsel>
    1f80:	ea56 2603 	orrs.w	r6, r6, r3, lsl #8
    1f84:	f001 f8f6 	bl	3174 <Code_804>
    1f88:	bd00      	pop	{pc}
    1f8a:	3704      	adds	r7, #4
    1f8c:	3704      	adds	r7, #4
    1f8e:	f7fe fa49 	bl	424 <expect_tos_in_register>
    1f92:	0189      	lsls	r1, r1, #6
    1f94:	6882      	ldr	r2, [r0, #8]
    1f96:	00d2      	lsls	r2, r2, #3
    1f98:	430e      	orrs	r6, r1
    1f9a:	4316      	orrs	r6, r2
    1f9c:	f7fe f905 	bl	1aa <eliminiere_tos>
    1fa0:	f7fe fa8e 	bl	4c0 <tos_registerwechsel>
    1fa4:	431e      	orrs	r6, r3
    1fa6:	f001 f8b6 	bl	3116 <Code_795>
    1faa:	bd00      	pop	{pc}

00001fac <Dictionary_472>:
    1fac:	00001fc4 	andeq	r1, r0, r4, asr #31
    1fb0:	31020261 	tstcc	r2, r1, ror #4
    1fb4:	3e01002d 	cdpcc	0, 0, cr0, cr1, cr13, {1}

00001fb6 <Code_472>:
    1fb6:	3e01      	subs	r6, #1
    1fb8:	4770      	bx	lr

00001fba <allocator_one_minus>:
    1fba:	f847 6d04 	str.w	r6, [r7, #-4]!
    1fbe:	f641 6640 	movw	r6, #7744	; 0x1e40
    1fc2:	e03d      	b.n	2040 <smalltworegisters>

00001fc4 <Dictionary_475>:
    1fc4:	00001fdc 	ldrdeq	r1, [r0], -ip
    1fc8:	31020261 	tstcc	r2, r1, ror #4
    1fcc:	3601002b 	strcc	r0, [r1], -fp, lsr #32

00001fce <Code_475>:
    1fce:	3601      	adds	r6, #1
    1fd0:	4770      	bx	lr
    1fd2:	f847 6d04 	str.w	r6, [r7, #-4]!
    1fd6:	f641 4640 	movw	r6, #7232	; 0x1c40
    1fda:	e031      	b.n	2040 <smalltworegisters>

00001fdc <Dictionary_478>:
    1fdc:	00001ff4 	strdeq	r1, [r0], -r4
    1fe0:	32020261 	andcc	r0, r2, #268435462	; 0x10000006
    1fe4:	3e02002d 	cdpcc	0, 0, cr0, cr2, cr13, {1}

00001fe6 <Code_478>:
    1fe6:	3e02      	subs	r6, #2
    1fe8:	4770      	bx	lr
    1fea:	f847 6d04 	str.w	r6, [r7, #-4]!
    1fee:	f641 6680 	movw	r6, #7808	; 0x1e80
    1ff2:	e025      	b.n	2040 <smalltworegisters>

00001ff4 <Dictionary_481>:
    1ff4:	0000200c 	andeq	r2, r0, ip
    1ff8:	32020261 	andcc	r0, r2, #268435462	; 0x10000006
    1ffc:	3602002b 	strcc	r0, [r2], -fp, lsr #32

00001ffe <Code_481>:
    1ffe:	3602      	adds	r6, #2
    2000:	4770      	bx	lr
    2002:	f847 6d04 	str.w	r6, [r7, #-4]!
    2006:	f641 4680 	movw	r6, #7296	; 0x1c80
    200a:	e019      	b.n	2040 <smalltworegisters>

0000200c <Dictionary_484>:
    200c:	00002026 	andeq	r2, r0, r6, lsr #32
    2010:	63050261 	movwvs	r0, #21089	; 0x5261
    2014:	2b6c6c65 	blcs	1b1d1b0 <BIT24+0xb1d1b0>

00002018 <Code_484>:
    2018:	3604      	adds	r6, #4
    201a:	4770      	bx	lr
    201c:	f847 6d04 	str.w	r6, [r7, #-4]!
    2020:	f641 5600 	movw	r6, #7424	; 0x1d00
    2024:	e00c      	b.n	2040 <smalltworegisters>

00002026 <Dictionary_487>:
    2026:	00002058 	andeq	r2, r0, r8, asr r0
    202a:	6e060261 	cdpvs	2, 0, cr0, cr6, cr1, {3}
    202e:	74616765 	strbtvc	r6, [r1], #-1893	; 0x765
    2032:	42760065 	rsbsmi	r0, r6, #101	; 0x65

00002034 <Code_487>:
    2034:	4276      	negs	r6, r6
    2036:	4770      	bx	lr

00002038 <allocator_negate>:
    2038:	f847 6d04 	str.w	r6, [r7, #-4]!
    203c:	f244 2640 	movw	r6, #16960	; 0x4240

00002040 <smalltworegisters>:
    2040:	b500      	push	{lr}
    2042:	f7fe f9b3 	bl	3ac <expect_one_element>
    2046:	6801      	ldr	r1, [r0, #0]
    2048:	00c9      	lsls	r1, r1, #3
    204a:	430e      	orrs	r6, r1
    204c:	f7fe fa38 	bl	4c0 <tos_registerwechsel>
    2050:	431e      	orrs	r6, r3
    2052:	f001 f860 	bl	3116 <Code_795>
    2056:	bd00      	pop	{pc}

00002058 <Dictionary_490>:
    2058:	00002070 	andeq	r2, r0, r0, ror r0
    205c:	6e030261 	cdpvs	2, 0, cr0, cr3, cr1, {3}
    2060:	43f6746f 	mvnsmi	r7, #1862270976	; 0x6f000000

00002062 <Code_490>:
    2062:	43f6      	mvns	r6, r6
    2064:	4770      	bx	lr

00002066 <allocator_not>:
    2066:	f847 6d04 	str.w	r6, [r7, #-4]!
    206a:	f244 36c0 	movw	r6, #17344	; 0x43c0
    206e:	e7e7      	b.n	2040 <smalltworegisters>

00002070 <Dictionary_493>:
    2070:	00002088 	andeq	r2, r0, r8, lsl #1
    2074:	73030261 	movwvc	r0, #12897	; 0x3261
    2078:	08767268 	ldmdaeq	r6!, {r3, r5, r6, r9, ip, sp, lr}^

0000207a <Code_493>:
    207a:	0876      	lsrs	r6, r6, #1
    207c:	4770      	bx	lr
    207e:	f847 6d04 	str.w	r6, [r7, #-4]!
    2082:	f640 0640 	movw	r6, #2112	; 0x840
    2086:	e7db      	b.n	2040 <smalltworegisters>

00002088 <Dictionary_496>:
    2088:	00002098 	muleq	r0, r8, r0
    208c:	73030261 	movwvc	r0, #12897	; 0x3261
    2090:	00766c68 	rsbseq	r6, r6, r8, ror #24

00002092 <Code_496>:
    2092:	0076      	lsls	r6, r6, #1
    2094:	4770      	bx	lr
    2096:	e006      	b.n	20a6 <Code_497+0x4>

00002098 <Dictionary_497>:
    2098:	000020ae 	andeq	r2, r0, lr, lsr #1
    209c:	32020261 	andcc	r0, r2, #268435462	; 0x10000006
    20a0:	0076002a 	rsbseq	r0, r6, sl, lsr #32

000020a2 <Code_497>:
    20a2:	0076      	lsls	r6, r6, #1
    20a4:	4770      	bx	lr
    20a6:	f847 6d04 	str.w	r6, [r7, #-4]!
    20aa:	2640      	movs	r6, #64	; 0x40
    20ac:	e7c8      	b.n	2040 <smalltworegisters>

000020ae <Dictionary_500>:
    20ae:	000020c6 	andeq	r2, r0, r6, asr #1
    20b2:	63050261 	movwvs	r0, #21089	; 0x5261
    20b6:	736c6c65 	cmnvc	ip, #25856	; 0x6500

000020ba <Code_500>:
    20ba:	00b6      	lsls	r6, r6, #2
    20bc:	4770      	bx	lr
    20be:	f847 6d04 	str.w	r6, [r7, #-4]!
    20c2:	2680      	movs	r6, #128	; 0x80
    20c4:	e7bc      	b.n	2040 <smalltworegisters>

000020c6 <Dictionary_503>:
    20c6:	000020de 	ldrdeq	r2, [r0], -lr
    20ca:	32020261 	andcc	r0, r2, #268435462	; 0x10000006
    20ce:	1076002f 	rsbsne	r0, r6, pc, lsr #32

000020d0 <Code_503>:
    20d0:	1076      	asrs	r6, r6, #1
    20d2:	4770      	bx	lr
    20d4:	f847 6d04 	str.w	r6, [r7, #-4]!
    20d8:	f241 0640 	movw	r6, #4160	; 0x1040
    20dc:	e7b0      	b.n	2040 <smalltworegisters>

000020de <Dictionary_506>:
    20de:	0000211a 	andeq	r2, r0, sl, lsl r1
    20e2:	61030261 	tstvs	r3, r1, ror #4
    20e6:	17f07362 	ldrbne	r7, [r0, r2, ror #6]!

000020e8 <Code_506>:
    20e8:	17f0      	asrs	r0, r6, #31
    20ea:	1836      	adds	r6, r6, r0
    20ec:	4046      	eors	r6, r0
    20ee:	4770      	bx	lr
    20f0:	b500      	push	{lr}
    20f2:	f7fe f95b 	bl	3ac <expect_one_element>
    20f6:	f847 6d04 	str.w	r6, [r7, #-4]!
    20fa:	f642 0600 	movw	r6, #10240	; 0x2800
    20fe:	6801      	ldr	r1, [r0, #0]
    2100:	0209      	lsls	r1, r1, #8
    2102:	430e      	orrs	r6, r1
    2104:	f001 f807 	bl	3116 <Code_795>
    2108:	f847 6d04 	str.w	r6, [r7, #-4]!
    210c:	f24d 5600 	movw	r6, #54528	; 0xd500
    2110:	f001 f801 	bl	3116 <Code_795>
    2114:	f7ff ff90 	bl	2038 <allocator_negate>
    2118:	bd00      	pop	{pc}

0000211a <Dictionary_511>:
    211a:	00002138 	andeq	r2, r0, r8, lsr r1
    211e:	75050042 	strvc	r0, [r5, #-66]	; 0x42
    2122:	646f6d2f 	strbtvs	r6, [pc], #-3375	; 212a <Code_511+0x4>

00002126 <Code_511>:
    2126:	cf01      	ldmia	r7!, {r0}
    2128:	0031      	movs	r1, r6
    212a:	fbb0 f6f6 	udiv	r6, r0, r6
    212e:	4371      	muls	r1, r6
    2130:	1a40      	subs	r0, r0, r1
    2132:	3f04      	subs	r7, #4
    2134:	6038      	str	r0, [r7, #0]
    2136:	4770      	bx	lr

00002138 <Dictionary_512>:
    2138:	00002156 	andeq	r2, r0, r6, asr r1
    213c:	2f040042 	svccs	0x00040042
    2140:	00646f6d 	rsbeq	r6, r4, sp, ror #30

00002144 <Code_512>:
    2144:	cf01      	ldmia	r7!, {r0}
    2146:	0031      	movs	r1, r6
    2148:	fb90 f6f6 	sdiv	r6, r0, r6
    214c:	4371      	muls	r1, r6
    214e:	1a40      	subs	r0, r0, r1
    2150:	3f04      	subs	r7, #4
    2152:	6038      	str	r0, [r7, #0]
    2154:	4770      	bx	lr

00002156 <Dictionary_513>:
    2156:	0000216a 	andeq	r2, r0, sl, ror #2
    215a:	6d030042 	stcvs	0, cr0, [r3, #-264]	; 0xfffffef8
    215e:	b500646f 	strlt	r6, [r0, #-1135]	; 0x46f

00002160 <Code_513>:
    2160:	b500      	push	{lr}
    2162:	f7ff ffef 	bl	2144 <Code_512>
    2166:	cf40      	ldmia	r7!, {r6}
    2168:	bd00      	pop	{pc}

0000216a <Dictionary_515>:
    216a:	000021aa 	andeq	r2, r0, sl, lsr #3
    216e:	2f010262 	svccs	0x00010262

00002172 <Code_515>:
    2172:	cf01      	ldmia	r7!, {r0}
    2174:	fb90 f6f6 	sdiv	r6, r0, r6
    2178:	4770      	bx	lr
    217a:	b500      	push	{lr}
    217c:	f7fe f920 	bl	3c0 <expect_two_elements>
    2180:	f7fe f950 	bl	424 <expect_tos_in_register>
    2184:	f7fe f958 	bl	438 <expect_nos_in_register>
    2188:	f847 6d04 	str.w	r6, [r7, #-4]!
    218c:	4e23      	ldr	r6, [pc, #140]	; (221c <Code_523+0x10>)
    218e:	6801      	ldr	r1, [r0, #0]
    2190:	430e      	orrs	r6, r1
    2192:	6881      	ldr	r1, [r0, #8]
    2194:	ea56 4601 	orrs.w	r6, r6, r1, lsl #16
    2198:	f7fe f807 	bl	1aa <eliminiere_tos>
    219c:	f7fe f990 	bl	4c0 <tos_registerwechsel>
    21a0:	ea56 2603 	orrs.w	r6, r6, r3, lsl #8
    21a4:	f000 ffe6 	bl	3174 <Code_804>
    21a8:	bd00      	pop	{pc}

000021aa <Dictionary_517>:
    21aa:	000021be 			; <UNDEFINED> instruction: 0x000021be
    21ae:	65040061 	strvs	r0, [r4, #-97]	; 0x61
    21b2:	006e6576 	rsbeq	r6, lr, r6, ror r5

000021b6 <Code_517>:
    21b6:	2001      	movs	r0, #1
    21b8:	4030      	ands	r0, r6
    21ba:	1836      	adds	r6, r6, r0
    21bc:	4770      	bx	lr

000021be <Dictionary_518>:
    21be:	000021d6 	ldrdeq	r2, [r0], -r6
    21c2:	62040081 	andvs	r0, r4, #129	; 0x81
    21c6:	00657361 	rsbeq	r7, r5, r1, ror #6

000021ca <Code_518>:
    21ca:	f847 6d04 	str.w	r6, [r7, #-4]!
    21ce:	4e14      	ldr	r6, [pc, #80]	; (2220 <Code_523+0x14>)
    21d0:	4770      	bx	lr
    21d2:	0000000a 	andeq	r0, r0, sl

000021d6 <Dictionary_521>:
    21d6:	000021ec 	andeq	r2, r0, ip, ror #3
    21da:	62060000 	andvs	r0, r6, #0
    21de:	72616e69 	rsbvc	r6, r1, #1680	; 0x690
    21e2:	480e0079 	stmdami	lr, {r0, r3, r4, r5, r6}

000021e4 <Code_521>:
    21e4:	480e      	ldr	r0, [pc, #56]	; (2220 <Code_523+0x14>)
    21e6:	2102      	movs	r1, #2
    21e8:	6001      	str	r1, [r0, #0]
    21ea:	4770      	bx	lr

000021ec <Dictionary_522>:
    21ec:	00002202 	andeq	r2, r0, r2, lsl #4
    21f0:	64070000 	strvs	r0, [r7]
    21f4:	6d696365 	stclvs	3, cr6, [r9, #-404]!	; 0xfffffe6c
    21f8:	48096c61 	stmdami	r9, {r0, r5, r6, sl, fp, sp, lr}

000021fa <Code_522>:
    21fa:	4809      	ldr	r0, [pc, #36]	; (2220 <Code_523+0x14>)
    21fc:	210a      	movs	r1, #10
    21fe:	6001      	str	r1, [r0, #0]
    2200:	4770      	bx	lr

00002202 <Dictionary_523>:
    2202:	00002256 	andeq	r2, r0, r6, asr r2
    2206:	68030000 	stmdavs	r3, {}	; <UNPREDICTABLE>
    220a:	48047865 	stmdami	r4, {r0, r2, r5, r6, fp, ip, sp, lr}

0000220c <Code_523>:
    220c:	4804      	ldr	r0, [pc, #16]	; (2220 <Code_523+0x14>)
    220e:	2110      	movs	r1, #16
    2210:	6001      	str	r1, [r0, #0]
    2212:	4770      	bx	lr
    2214:	f1100000 			; <UNDEFINED> instruction: 0xf1100000
    2218:	f1b00000 			; <UNDEFINED> instruction: 0xf1b00000
    221c:	fb90f0f0 	blx	fe43e5e6 <BIT31+0x7e43e5e6>
    2220:	2001fffc 	strdcs	pc, [r1], -ip

00002224 <uart_init>:
    2224:	4973      	ldr	r1, [pc, #460]	; (23f4 <Code_553+0x1c>)
    2226:	4874      	ldr	r0, [pc, #464]	; (23f8 <Code_553+0x20>)
    2228:	6001      	str	r1, [r0, #0]
    222a:	2114      	movs	r1, #20
    222c:	4873      	ldr	r0, [pc, #460]	; (23fc <Code_553+0x24>)
    222e:	6001      	str	r1, [r0, #0]
    2230:	4973      	ldr	r1, [pc, #460]	; (2400 <Code_553+0x28>)
    2232:	4874      	ldr	r0, [pc, #464]	; (2404 <Code_553+0x2c>)
    2234:	6001      	str	r1, [r0, #0]
    2236:	4974      	ldr	r1, [pc, #464]	; (2408 <Code_553+0x30>)
    2238:	4874      	ldr	r0, [pc, #464]	; (240c <Code_553+0x34>)
    223a:	6001      	str	r1, [r0, #0]
    223c:	4974      	ldr	r1, [pc, #464]	; (2410 <Code_553+0x38>)
    223e:	4873      	ldr	r0, [pc, #460]	; (240c <Code_553+0x34>)
    2240:	6001      	str	r1, [r0, #0]
    2242:	4974      	ldr	r1, [pc, #464]	; (2414 <Code_553+0x3c>)
    2244:	4874      	ldr	r0, [pc, #464]	; (2418 <Code_553+0x40>)
    2246:	6001      	str	r1, [r0, #0]
    2248:	4974      	ldr	r1, [pc, #464]	; (241c <Code_553+0x44>)
    224a:	4875      	ldr	r0, [pc, #468]	; (2420 <Code_553+0x48>)
    224c:	6001      	str	r1, [r0, #0]
    224e:	2180      	movs	r1, #128	; 0x80
    2250:	4874      	ldr	r0, [pc, #464]	; (2424 <Code_553+0x4c>)
    2252:	6001      	str	r1, [r0, #0]
    2254:	4770      	bx	lr

00002256 <Dictionary_524>:
    2256:	00002272 	andeq	r2, r0, r2, ror r2
    225a:	68090081 	stmdavs	r9, {r0, r7}
    225e:	2d6b6f6f 	stclcs	15, cr6, [fp, #-444]!	; 0xfffffe44
    2262:	74696d65 	strbtvc	r6, [r9], #-3429	; 0xd65

00002266 <Code_524>:
    2266:	f847 6d04 	str.w	r6, [r7, #-4]!
    226a:	4e6f      	ldr	r6, [pc, #444]	; (2428 <Code_553+0x50>)
    226c:	4770      	bx	lr
    226e:	0000235c 	andeq	r2, r0, ip, asr r3

00002272 <Dictionary_527>:
    2272:	0000228e 	andeq	r2, r0, lr, lsl #5
    2276:	68080081 	stmdavs	r8, {r0, r7}
    227a:	2d6b6f6f 	stclcs	15, cr6, [fp, #-444]!	; 0xfffffe44
    227e:	0079656b 	rsbseq	r6, r9, fp, ror #10

00002282 <Code_527>:
    2282:	f847 6d04 	str.w	r6, [r7, #-4]!
    2286:	4e69      	ldr	r6, [pc, #420]	; (242c <Code_553+0x54>)
    2288:	4770      	bx	lr
    228a:	00002382 	andeq	r2, r0, r2, lsl #7

0000228e <Dictionary_530>:
    228e:	000022ac 	andeq	r2, r0, ip, lsr #5
    2292:	680a0081 	stmdavs	sl, {r0, r7}
    2296:	2d6b6f6f 	stclcs	15, cr6, [fp, #-444]!	; 0xfffffe44
    229a:	74696d65 	strbtvc	r6, [r9], #-3429	; 0xd65
    229e:	f847003f 			; <UNDEFINED> instruction: 0xf847003f

000022a0 <Code_530>:
    22a0:	f847 6d04 	str.w	r6, [r7, #-4]!
    22a4:	4e62      	ldr	r6, [pc, #392]	; (2430 <Code_553+0x58>)
    22a6:	4770      	bx	lr
    22a8:	000023ac 	andeq	r2, r0, ip, lsr #7

000022ac <Dictionary_533>:
    22ac:	000022c8 	andeq	r2, r0, r8, asr #5
    22b0:	68090081 	stmdavs	r9, {r0, r7}
    22b4:	2d6b6f6f 	stclcs	15, cr6, [fp, #-444]!	; 0xfffffe44
    22b8:	3f79656b 	svccc	0x0079656b

000022bc <Code_533>:
    22bc:	f847 6d04 	str.w	r6, [r7, #-4]!
    22c0:	4e5c      	ldr	r6, [pc, #368]	; (2434 <Code_553+0x5c>)
    22c2:	4770      	bx	lr
    22c4:	000023d8 	ldrdeq	r2, [r0], -r8

000022c8 <Dictionary_536>:
    22c8:	000022e6 	andeq	r2, r0, r6, ror #5
    22cc:	680a0081 	stmdavs	sl, {r0, r7}
    22d0:	2d6b6f6f 	stclcs	15, cr6, [fp, #-444]!	; 0xfffffe44
    22d4:	73756170 	cmnvc	r5, #28
    22d8:	f8470065 			; <UNDEFINED> instruction: 0xf8470065

000022da <Code_536>:
    22da:	f847 6d04 	str.w	r6, [r7, #-4]!
    22de:	4e56      	ldr	r6, [pc, #344]	; (2438 <Code_553+0x60>)
    22e0:	4770      	bx	lr
    22e2:	000046be 			; <UNDEFINED> instruction: 0x000046be

000022e6 <Dictionary_539>:
    22e6:	000022fc 	strdeq	r2, [r0], -ip
    22ea:	65040000 	strvs	r0, [r4]
    22ee:	0074696d 	rsbseq	r6, r4, sp, ror #18

000022f2 <Code_539>:
    22f2:	b50f      	push	{r0, r1, r2, r3, lr}
    22f4:	484c      	ldr	r0, [pc, #304]	; (2428 <Code_553+0x50>)
    22f6:	f000 f826 	bl	2346 <hook_intern>
    22fa:	bd0f      	pop	{r0, r1, r2, r3, pc}

000022fc <Dictionary_540>:
    22fc:	00002310 	andeq	r2, r0, r0, lsl r3
    2300:	6b030000 	blvs	c2308 <BIT19+0x42308>
    2304:	b50f7965 	strlt	r7, [pc, #-2405]	; 19a7 <allocator_1fetch+0x35>

00002306 <Code_540>:
    2306:	b50f      	push	{r0, r1, r2, r3, lr}
    2308:	4848      	ldr	r0, [pc, #288]	; (242c <Code_553+0x54>)
    230a:	f000 f81c 	bl	2346 <hook_intern>
    230e:	bd0f      	pop	{r0, r1, r2, r3, pc}

00002310 <Dictionary_541>:
    2310:	00002322 	andeq	r2, r0, r2, lsr #6
    2314:	65050000 	strvs	r0, [r5]
    2318:	3f74696d 	svccc	0x0074696d

0000231c <Code_541>:
    231c:	4844      	ldr	r0, [pc, #272]	; (2430 <Code_553+0x58>)
    231e:	6800      	ldr	r0, [r0, #0]
    2320:	4687      	mov	pc, r0

00002322 <Dictionary_542>:
    2322:	00002334 	andeq	r2, r0, r4, lsr r3
    2326:	6b040000 	blvs	10232e <BIT20+0x232e>
    232a:	003f7965 	eorseq	r7, pc, r5, ror #18

0000232e <Code_542>:
    232e:	4841      	ldr	r0, [pc, #260]	; (2434 <Code_553+0x5c>)
    2330:	6800      	ldr	r0, [r0, #0]
    2332:	4687      	mov	pc, r0

00002334 <Dictionary_543>:
    2334:	0000234a 	andeq	r2, r0, sl, asr #6
    2338:	70050000 	andvc	r0, r5, r0
    233c:	65737561 	ldrbvs	r7, [r3, #-1377]!	; 0x561

00002340 <Code_543>:
    2340:	483d      	ldr	r0, [pc, #244]	; (2438 <Code_553+0x60>)
    2342:	6800      	ldr	r0, [r0, #0]
    2344:	4687      	mov	pc, r0

00002346 <hook_intern>:
    2346:	6800      	ldr	r0, [r0, #0]
    2348:	4687      	mov	pc, r0

0000234a <Dictionary_544>:
    234a:	00002370 	andeq	r2, r0, r0, ror r3
    234e:	730b0000 	movwvc	r0, #45056	; 0xb000
    2352:	61697265 	cmnvs	r9, r5, ror #4
    2356:	6d652d6c 	stclvs	13, cr2, [r5, #-432]!	; 0xfffffe50
    235a:	b5007469 	strlt	r7, [r0, #-1129]	; 0x469

0000235c <Code_544>:
    235c:	b500      	push	{lr}
    235e:	f000 f825 	bl	23ac <Code_550>
    2362:	2e00      	cmp	r6, #0
    2364:	cf40      	ldmia	r7!, {r6}
    2366:	d0fa      	beq.n	235e <Code_544+0x2>
    2368:	4834      	ldr	r0, [pc, #208]	; (243c <Code_553+0x64>)
    236a:	6006      	str	r6, [r0, #0]
    236c:	cf40      	ldmia	r7!, {r6}
    236e:	bd00      	pop	{pc}

00002370 <Dictionary_547>:
    2370:	00002398 	muleq	r0, r8, r3
    2374:	730a0000 	movwvc	r0, #40960	; 0xa000
    2378:	61697265 	cmnvs	r9, r5, ror #4
    237c:	656b2d6c 	strbvs	r2, [fp, #-3436]!	; 0xd6c
    2380:	b5000079 	strlt	r0, [r0, #-121]	; 0x79

00002382 <Code_547>:
    2382:	b500      	push	{lr}
    2384:	f000 f828 	bl	23d8 <Code_553>
    2388:	2e00      	cmp	r6, #0
    238a:	cf40      	ldmia	r7!, {r6}
    238c:	d0fa      	beq.n	2384 <Code_547+0x2>
    238e:	482c      	ldr	r0, [pc, #176]	; (2440 <Code_553+0x68>)
    2390:	f847 6d04 	str.w	r6, [r7, #-4]!
    2394:	6806      	ldr	r6, [r0, #0]
    2396:	bd00      	pop	{pc}

00002398 <Dictionary_550>:
    2398:	000023c6 	andeq	r2, r0, r6, asr #7
    239c:	730c0000 	movwvc	r0, #49152	; 0xc000
    23a0:	61697265 	cmnvs	r9, r5, ror #4
    23a4:	6d652d6c 	stclvs	13, cr2, [r5, #-432]!	; 0xfffffe50
    23a8:	003f7469 	eorseq	r7, pc, r9, ror #8

000023ac <Code_550>:
    23ac:	b500      	push	{lr}
    23ae:	f7ff ffc7 	bl	2340 <Code_543>
    23b2:	f847 6d04 	str.w	r6, [r7, #-4]!
    23b6:	2600      	movs	r6, #0
    23b8:	4822      	ldr	r0, [pc, #136]	; (2444 <Code_553+0x6c>)
    23ba:	6801      	ldr	r1, [r0, #0]
    23bc:	2040      	movs	r0, #64	; 0x40
    23be:	4001      	ands	r1, r0
    23c0:	d000      	beq.n	23c4 <Code_550+0x18>
    23c2:	43f6      	mvns	r6, r6
    23c4:	bd00      	pop	{pc}

000023c6 <Dictionary_553>:
    23c6:	00002448 	andeq	r2, r0, r8, asr #8
    23ca:	730b0000 	movwvc	r0, #45056	; 0xb000
    23ce:	61697265 	cmnvs	r9, r5, ror #4
    23d2:	656b2d6c 	strbvs	r2, [fp, #-3436]!	; 0xd6c
    23d6:	b5003f79 	strlt	r3, [r0, #-3961]	; 0xf79

000023d8 <Code_553>:
    23d8:	b500      	push	{lr}
    23da:	f7ff ffb1 	bl	2340 <Code_543>
    23de:	f847 6d04 	str.w	r6, [r7, #-4]!
    23e2:	2600      	movs	r6, #0
    23e4:	4817      	ldr	r0, [pc, #92]	; (2444 <Code_553+0x6c>)
    23e6:	6801      	ldr	r1, [r0, #0]
    23e8:	2080      	movs	r0, #128	; 0x80
    23ea:	4001      	ands	r1, r0
    23ec:	d000      	beq.n	23f0 <Code_553+0x18>
    23ee:	43f6      	mvns	r6, r6
    23f0:	bd00      	pop	{pc}
    23f2:	20080000 	andcs	r0, r8, r0
    23f6:	80440000 	subhi	r0, r4, r0
    23fa:	6094400c 	addsvs	r4, r4, ip
    23fe:	06844000 	streq	r4, [r4], r0
    2402:	e0140000 	ands	r0, r4, r0
    2406:	0c004000 	stceq	0, cr4, [r0], {0}
    240a:	e00c0000 	and	r0, ip, r0
    240e:	00054000 	andeq	r4, r5, r0
    2412:	01030000 	mrseq	r0, (UNDEF: 3)
    2416:	e0540000 	subs	r0, r4, r0
    241a:	00004000 	andeq	r4, r0, r0
    241e:	60b84000 	adcsvs	r4, r8, r0
    2422:	60c04000 	sbcvs	r4, r0, r0
    2426:	fff84000 			; <UNDEFINED> instruction: 0xfff84000
    242a:	fff42001 			; <UNDEFINED> instruction: 0xfff42001
    242e:	fff02001 			; <UNDEFINED> instruction: 0xfff02001
    2432:	ffec2001 			; <UNDEFINED> instruction: 0xffec2001
    2436:	ffe82001 			; <UNDEFINED> instruction: 0xffe82001
    243a:	e0342001 	eors	r2, r4, r1
    243e:	e01c4000 	ands	r4, ip, r0
    2442:	e0104000 	ands	r4, r0, r0
    2446:	246c4000 	strbtcs	r4, [ip]

00002448 <Dictionary_556>:
    2448:	0000246c 	andeq	r2, r0, ip, ror #8
    244c:	63070000 	movwvs	r0, #28672	; 0x7000
    2450:	65707865 	ldrbvs	r7, [r0, #-2149]!	; 0x865
    2454:	b5007463 	strlt	r7, [r0, #-1123]	; 0x463

00002456 <Code_556>:
    2456:	b500      	push	{lr}
    2458:	6838      	ldr	r0, [r7, #0]
    245a:	b401      	push	{r0}
    245c:	3001      	adds	r0, #1
    245e:	6038      	str	r0, [r7, #0]
    2460:	f000 f80b 	bl	247a <Code_558>
    2464:	bc01      	pop	{r0}
    2466:	7006      	strb	r6, [r0, #0]
    2468:	cf40      	ldmia	r7!, {r6}
    246a:	bd00      	pop	{pc}

0000246c <Dictionary_558>:
    246c:	000024e2 	andeq	r2, r0, r2, ror #9
    2470:	61060000 	mrsvs	r0, (UNDEF: 6)
    2474:	70656363 	rsbvc	r6, r5, r3, ror #6
    2478:	b5000074 	strlt	r0, [r0, #-116]	; 0x74

0000247a <Code_558>:
    247a:	b500      	push	{lr}
    247c:	cf02      	ldmia	r7!, {r1}
    247e:	3901      	subs	r1, #1
    2480:	2200      	movs	r2, #0
    2482:	f7ff ff40 	bl	2306 <Code_540>
    2486:	0030      	movs	r0, r6
    2488:	cf40      	ldmia	r7!, {r6}
    248a:	287f      	cmp	r0, #127	; 0x7f
    248c:	d009      	beq.n	24a2 <Code_558+0x28>
    248e:	2820      	cmp	r0, #32
    2490:	d219      	bcs.n	24c6 <Code_558+0x4c>
    2492:	2809      	cmp	r0, #9
    2494:	d016      	beq.n	24c4 <Code_558+0x4a>
    2496:	280a      	cmp	r0, #10
    2498:	d01f      	beq.n	24da <Code_558+0x60>
    249a:	280d      	cmp	r0, #13
    249c:	d01d      	beq.n	24da <Code_558+0x60>
    249e:	2808      	cmp	r0, #8
    24a0:	d1ef      	bne.n	2482 <Code_558+0x8>
    24a2:	2a00      	cmp	r2, #0
    24a4:	d0ed      	beq.n	2482 <Code_558+0x8>
    24a6:	f000 f90e 	bl	26c6 <dotgaensefuesschen>
    24aa:	08200803 	stmdaeq	r0!, {r0, r1, fp}
    24ae:	2a00      	cmp	r2, #0
    24b0:	d0e7      	beq.n	2482 <Code_558+0x8>
    24b2:	5c88      	ldrb	r0, [r1, r2]
    24b4:	3a01      	subs	r2, #1
    24b6:	2380      	movs	r3, #128	; 0x80
    24b8:	4003      	ands	r3, r0
    24ba:	d0e2      	beq.n	2482 <Code_558+0x8>
    24bc:	2340      	movs	r3, #64	; 0x40
    24be:	4003      	ands	r3, r0
    24c0:	d0f5      	beq.n	24ae <Code_558+0x34>
    24c2:	e7de      	b.n	2482 <Code_558+0x8>
    24c4:	2020      	movs	r0, #32
    24c6:	42b2      	cmp	r2, r6
    24c8:	d2db      	bcs.n	2482 <Code_558+0x8>
    24ca:	f847 6d04 	str.w	r6, [r7, #-4]!
    24ce:	0006      	movs	r6, r0
    24d0:	f7ff ff0f 	bl	22f2 <Code_539>
    24d4:	3201      	adds	r2, #1
    24d6:	5488      	strb	r0, [r1, r2]
    24d8:	e7d3      	b.n	2482 <Code_558+0x8>
    24da:	0016      	movs	r6, r2
    24dc:	f000 f8a2 	bl	2624 <Code_589>
    24e0:	bd00      	pop	{pc}

000024e2 <Dictionary_562>:
    24e2:	000024f4 	strdeq	r2, [r0], -r4
    24e6:	74030040 	strvc	r0, [r3], #-64	; 0x40
    24ea:	f8476269 			; <UNDEFINED> instruction: 0xf8476269

000024ec <Code_562>:
    24ec:	f847 6d04 	str.w	r6, [r7, #-4]!
    24f0:	4e29      	ldr	r6, [pc, #164]	; (2598 <Code_574+0x22>)
    24f2:	4770      	bx	lr

000024f4 <Dictionary_564>:
    24f4:	0000250a 	andeq	r2, r0, sl, lsl #10
    24f8:	3e030081 	cdpcc	0, 0, cr0, cr3, cr1, {4}
    24fc:	f8476e69 			; <UNDEFINED> instruction: 0xf8476e69

000024fe <Code_564>:
    24fe:	f847 6d04 	str.w	r6, [r7, #-4]!
    2502:	4e26      	ldr	r6, [pc, #152]	; (259c <Code_574+0x26>)
    2504:	4770      	bx	lr
    2506:	00000000 	andeq	r0, r0, r0

0000250a <Dictionary_567>:
    250a:	00002530 	andeq	r2, r0, r0, lsr r5
    250e:	630e0082 	movwvs	r0, #57474	; 0xe082
    2512:	65727275 	ldrbvs	r7, [r2, #-629]!	; 0x275
    2516:	732d746e 	teqvc	sp, #1845493760	; 0x6e000000
    251a:	6372756f 	cmnvs	r2, #465567744	; 0x1bc00000
    251e:	f8470065 			; <UNDEFINED> instruction: 0xf8470065

00002520 <Code_567>:
    2520:	f847 6d04 	str.w	r6, [r7, #-4]!
    2524:	4e1e      	ldr	r6, [pc, #120]	; (25a0 <Code_574+0x2a>)
    2526:	4770      	bx	lr
    2528:	00000000 	andeq	r0, r0, r0
    252c:	200000c4 	andcs	r0, r0, r4, asr #1

00002530 <Dictionary_570>:
    2530:	0000254c 	andeq	r2, r0, ip, asr #10
    2534:	73090000 	movwvc	r0, #36864	; 0x9000
    2538:	6f737465 	svcvs	0x00737465
    253c:	65637275 	strbvs	r7, [r3, #-629]!	; 0x275

00002540 <Code_570>:
    2540:	4817      	ldr	r0, [pc, #92]	; (25a0 <Code_574+0x2a>)
    2542:	cf02      	ldmia	r7!, {r1}
    2544:	6006      	str	r6, [r0, #0]
    2546:	6041      	str	r1, [r0, #4]
    2548:	cf40      	ldmia	r7!, {r6}
    254a:	4770      	bx	lr

0000254c <Dictionary_572>:
    254c:	0000256a 	andeq	r2, r0, sl, ror #10
    2550:	73060000 	movwvc	r0, #24576	; 0x6000
    2554:	6372756f 	cmnvs	r2, #465567744	; 0x1bc00000
    2558:	f8470065 			; <UNDEFINED> instruction: 0xf8470065

0000255a <Code_572>:
    255a:	f847 6d04 	str.w	r6, [r7, #-4]!
    255e:	4e10      	ldr	r6, [pc, #64]	; (25a0 <Code_574+0x2a>)
    2560:	3f04      	subs	r7, #4
    2562:	6870      	ldr	r0, [r6, #4]
    2564:	6038      	str	r0, [r7, #0]
    2566:	6836      	ldr	r6, [r6, #0]
    2568:	4770      	bx	lr

0000256a <Dictionary_574>:
    256a:	000025a4 	andeq	r2, r0, r4, lsr #11
    256e:	71050000 	mrsvc	r0, (UNDEF: 5)
    2572:	79726575 	ldmdbvc	r2!, {r0, r2, r4, r5, r6, r8, sl, sp, lr}^

00002576 <Code_574>:
    2576:	b50f      	push	{r0, r1, r2, r3, lr}
    2578:	4808      	ldr	r0, [pc, #32]	; (259c <Code_574+0x26>)
    257a:	2100      	movs	r1, #0
    257c:	6001      	str	r1, [r0, #0]
    257e:	f7ff ffb5 	bl	24ec <Code_562>
    2582:	f847 6d04 	str.w	r6, [r7, #-4]!
    2586:	f847 6d04 	str.w	r6, [r7, #-4]!
    258a:	26c8      	movs	r6, #200	; 0xc8
    258c:	f7ff ff75 	bl	247a <Code_558>
    2590:	f7ff ffd6 	bl	2540 <Code_570>
    2594:	bd0f      	pop	{r0, r1, r2, r3, pc}
    2596:	00c40000 	sbceq	r0, r4, r0
    259a:	ffe42000 			; <UNDEFINED> instruction: 0xffe42000
    259e:	ffdc2001 			; <UNDEFINED> instruction: 0xffdc2001
    25a2:	25f22001 	ldrbcs	r2, [r2, #1]!

000025a4 <Dictionary_579>:
    25a4:	000025f2 	strdeq	r2, [r0], -r2	; <UNPREDICTABLE>
    25a8:	63070000 	movwvs	r0, #28672	; 0x7000
    25ac:	61706d6f 	cmnvs	r0, pc, ror #26
    25b0:	b50f6572 	strlt	r6, [pc, #-1394]	; 2046 <smalltworegisters+0x6>

000025b2 <Code_579>:
    25b2:	b50f      	push	{r0, r1, r2, r3, lr}
    25b4:	0031      	movs	r1, r6
    25b6:	cf40      	ldmia	r7!, {r6}
    25b8:	cf01      	ldmia	r7!, {r0}
    25ba:	4288      	cmp	r0, r1
    25bc:	d002      	beq.n	25c4 <Code_579+0x12>
    25be:	cf40      	ldmia	r7!, {r6}
    25c0:	2600      	movs	r6, #0
    25c2:	bd0f      	pop	{r0, r1, r2, r3, pc}
    25c4:	cf02      	ldmia	r7!, {r1}
    25c6:	2800      	cmp	r0, #0
    25c8:	d010      	beq.n	25ec <Code_579+0x3a>
    25ca:	3801      	subs	r0, #1
    25cc:	5c0a      	ldrb	r2, [r1, r0]
    25ce:	5c33      	ldrb	r3, [r6, r0]
    25d0:	2a41      	cmp	r2, #65	; 0x41
    25d2:	d302      	bcc.n	25da <Code_579+0x28>
    25d4:	2a5b      	cmp	r2, #91	; 0x5b
    25d6:	bf38      	it	cc
    25d8:	3220      	addcc	r2, #32
    25da:	2b41      	cmp	r3, #65	; 0x41
    25dc:	d302      	bcc.n	25e4 <Code_579+0x32>
    25de:	2b5b      	cmp	r3, #91	; 0x5b
    25e0:	bf38      	it	cc
    25e2:	3320      	addcc	r3, #32
    25e4:	429a      	cmp	r2, r3
    25e6:	d0ee      	beq.n	25c6 <Code_579+0x14>
    25e8:	2600      	movs	r6, #0
    25ea:	bd0f      	pop	{r0, r1, r2, r3, pc}
    25ec:	2600      	movs	r6, #0
    25ee:	43f6      	mvns	r6, r6
    25f0:	bd0f      	pop	{r0, r1, r2, r3, pc}

000025f2 <Dictionary_584>:
    25f2:	00002606 	andeq	r2, r0, r6, lsl #12
    25f6:	63020000 	movwvs	r0, #8192	; 0x2000
    25fa:	b5000072 	strlt	r0, [r0, #-114]	; 0x72

000025fc <Code_584>:
    25fc:	b500      	push	{lr}
    25fe:	f000 f862 	bl	26c6 <dotgaensefuesschen>
    2602:	bd000a01 	vstrlt	s0, [r0, #-4]

00002606 <Dictionary_586>:
    2606:	00002618 	andeq	r2, r0, r8, lsl r6
    260a:	62020000 	andvs	r0, r2, #0
    260e:	f847006c 			; <UNDEFINED> instruction: 0xf847006c

00002610 <Code_586>:
    2610:	f847 6d04 	str.w	r6, [r7, #-4]!
    2614:	2620      	movs	r6, #32
    2616:	4770      	bx	lr

00002618 <Dictionary_589>:
    2618:	0000262c 	andeq	r2, r0, ip, lsr #12
    261c:	73050000 	movwvc	r0, #20480	; 0x5000
    2620:	65636170 	strbvs	r6, [r3, #-368]!	; 0x170

00002624 <Code_589>:
    2624:	f847 6d04 	str.w	r6, [r7, #-4]!
    2628:	2620      	movs	r6, #32
    262a:	e662      	b.n	22f2 <Code_539>

0000262c <Dictionary_592>:
    262c:	0000264c 	andeq	r2, r0, ip, asr #12
    2630:	73060000 	movwvc	r0, #24576	; 0x6000
    2634:	65636170 	strbvs	r6, [r3, #-368]!	; 0x170
    2638:	b5000073 	strlt	r0, [r0, #-115]	; 0x73

0000263a <Code_592>:
    263a:	b500      	push	{lr}
    263c:	2e00      	cmp	r6, #0
    263e:	dd03      	ble.n	2648 <Code_592+0xe>
    2640:	f7ff fff0 	bl	2624 <Code_589>
    2644:	3e01      	subs	r6, #1
    2646:	d1fb      	bne.n	2640 <Code_592+0x6>
    2648:	cf40      	ldmia	r7!, {r6}
    264a:	bd00      	pop	{pc}

0000264c <Dictionary_594>:
    264c:	0000265c 	andeq	r2, r0, ip, asr r6
    2650:	5b060050 	blpl	182798 <BIT20+0x82798>
    2654:	72616863 	rsbvc	r6, r1, #6488064	; 0x630000
    2658:	e005005d 	and	r0, r5, sp, asr r0

0000265a <Code_594>:
    265a:	e005      	b.n	2668 <Code_595>

0000265c <Dictionary_595>:
    265c:	00002674 	andeq	r2, r0, r4, ror r6
    2660:	63040000 	movwvs	r0, #16384	; 0x4000
    2664:	00726168 	rsbseq	r6, r2, r8, ror #2

00002668 <Code_595>:
    2668:	b500      	push	{lr}
    266a:	f001 fc45 	bl	3ef8 <Code_1079>
    266e:	cf40      	ldmia	r7!, {r6}
    2670:	7836      	ldrb	r6, [r6, #0]
    2672:	bd00      	pop	{pc}

00002674 <Dictionary_597>:
    2674:	00002684 	andeq	r2, r0, r4, lsl #13
    2678:	28010450 	stmdacs	r1, {r4, r6, sl}

0000267c <Code_597>:
    267c:	f847 6d04 	str.w	r6, [r7, #-4]!
    2680:	2629      	movs	r6, #41	; 0x29
    2682:	e006      	b.n	2692 <Code_600+0x6>

00002684 <Dictionary_600>:
    2684:	0000269e 	muleq	r0, lr, r6
    2688:	5c010450 	cfstrspl	mvf0, [r1], {80}	; 0x50

0000268c <Code_600>:
    268c:	f847 6d04 	str.w	r6, [r7, #-4]!
    2690:	2600      	movs	r6, #0
    2692:	b500      	push	{lr}
    2694:	f001 fc3a 	bl	3f0c <Code_1081>
    2698:	3704      	adds	r7, #4
    269a:	cf40      	ldmia	r7!, {r6}
    269c:	bd00      	pop	{pc}

0000269e <Dictionary_605>:
    269e:	000026e2 	andeq	r2, r0, r2, ror #13
    26a2:	2e020010 	mcrcs	0, 0, r0, cr2, cr0, {0}
    26a6:	489b0022 	ldmmi	fp, {r1, r5}

000026a8 <Code_605>:
    26a8:	489b      	ldr	r0, [pc, #620]	; (2918 <Code_644+0x94>)
    26aa:	b500      	push	{lr}
    26ac:	f847 6d04 	str.w	r6, [r7, #-4]!
    26b0:	0006      	movs	r6, r0
    26b2:	f000 fa5e 	bl	2b72 <Code_685>
    26b6:	f847 6d04 	str.w	r6, [r7, #-4]!
    26ba:	2622      	movs	r6, #34	; 0x22
    26bc:	f001 fc26 	bl	3f0c <Code_1081>
    26c0:	f000 fd68 	bl	3194 <Code_807>
    26c4:	bd00      	pop	{pc}

000026c6 <dotgaensefuesschen>:
    26c6:	b40a      	push	{r1, r3}
    26c8:	f847 6d04 	str.w	r6, [r7, #-4]!
    26cc:	4676      	mov	r6, lr
    26ce:	3e01      	subs	r6, #1
    26d0:	7833      	ldrb	r3, [r6, #0]
    26d2:	2101      	movs	r1, #1
    26d4:	3301      	adds	r3, #1
    26d6:	4019      	ands	r1, r3
    26d8:	185b      	adds	r3, r3, r1
    26da:	eb1e 0e03 	adds.w	lr, lr, r3
    26de:	bc0a      	pop	{r1, r3}
    26e0:	e039      	b.n	2756 <Code_620>

000026e2 <Dictionary_611>:
    26e2:	00002708 	andeq	r2, r0, r8, lsl #14
    26e6:	63020010 	movwvs	r0, #8208	; 0x2010
    26ea:	488b0022 	stmmi	fp, {r1, r5}

000026ec <Code_611>:
    26ec:	488b      	ldr	r0, [pc, #556]	; (291c <Code_644+0x98>)
    26ee:	e7dc      	b.n	26aa <Code_605+0x2>

000026f0 <dotcfuesschen>:
    26f0:	f847 6d04 	str.w	r6, [r7, #-4]!
    26f4:	4676      	mov	r6, lr
    26f6:	3e01      	subs	r6, #1
    26f8:	7833      	ldrb	r3, [r6, #0]
    26fa:	2101      	movs	r1, #1
    26fc:	3301      	adds	r3, #1
    26fe:	4019      	ands	r1, r3
    2700:	185b      	adds	r3, r3, r1
    2702:	eb1e 0e03 	adds.w	lr, lr, r3
    2706:	4770      	bx	lr

00002708 <Dictionary_613>:
    2708:	00002732 	andeq	r2, r0, r2, lsr r7
    270c:	73020010 	movwvc	r0, #8208	; 0x2010
    2710:	48830022 	stmmi	r3, {r1, r5}

00002712 <Code_613>:
    2712:	4883      	ldr	r0, [pc, #524]	; (2920 <Code_644+0x9c>)
    2714:	e7c9      	b.n	26aa <Code_605+0x2>

00002716 <dotsfuesschen>:
    2716:	f847 6d04 	str.w	r6, [r7, #-4]!
    271a:	4676      	mov	r6, lr
    271c:	f847 6d04 	str.w	r6, [r7, #-4]!
    2720:	3e01      	subs	r6, #1
    2722:	7836      	ldrb	r6, [r6, #0]
    2724:	2101      	movs	r1, #1
    2726:	1c73      	adds	r3, r6, #1
    2728:	4019      	ands	r1, r3
    272a:	185b      	adds	r3, r3, r1
    272c:	eb1e 0e03 	adds.w	lr, lr, r3
    2730:	4770      	bx	lr

00002732 <Dictionary_617>:
    2732:	0000274a 	andeq	r2, r0, sl, asr #14
    2736:	63050000 	movwvs	r0, #20480	; 0x5000
    273a:	746e756f 	strbtvc	r7, [lr], #-1391	; 0x56f

0000273e <Code_617>:
    273e:	3601      	adds	r6, #1
    2740:	f847 6d04 	str.w	r6, [r7, #-4]!
    2744:	3e01      	subs	r6, #1
    2746:	7836      	ldrb	r6, [r6, #0]
    2748:	4770      	bx	lr

0000274a <Dictionary_620>:
    274a:	00002772 	andeq	r2, r0, r2, ror r7
    274e:	63050000 	movwvs	r0, #20480	; 0x5000
    2752:	65707974 	ldrbvs	r7, [r0, #-2420]!	; 0x974

00002756 <Code_620>:
    2756:	b501      	push	{r0, lr}
    2758:	7830      	ldrb	r0, [r6, #0]
    275a:	2800      	cmp	r0, #0
    275c:	d007      	beq.n	276e <Code_620+0x18>
    275e:	3601      	adds	r6, #1
    2760:	f847 6d04 	str.w	r6, [r7, #-4]!
    2764:	7836      	ldrb	r6, [r6, #0]
    2766:	f7ff fdc4 	bl	22f2 <Code_539>
    276a:	3801      	subs	r0, #1
    276c:	d1f7      	bne.n	275e <Code_620+0x8>
    276e:	cf40      	ldmia	r7!, {r6}
    2770:	bd01      	pop	{r0, pc}

00002772 <Dictionary_624>:
    2772:	000027a0 	andeq	r2, r0, r0, lsr #15
    2776:	74040000 	strvc	r0, [r4]
    277a:	00657079 	rsbeq	r7, r5, r9, ror r0

0000277e <Code_624>:
    277e:	0031      	movs	r1, r6
    2780:	cf40      	ldmia	r7!, {r6}
    2782:	0030      	movs	r0, r6
    2784:	cf40      	ldmia	r7!, {r6}

00002786 <stype_addr_r0_len_r1>:
    2786:	b500      	push	{lr}
    2788:	2900      	cmp	r1, #0
    278a:	d008      	beq.n	279e <stype_addr_r0_len_r1+0x18>
    278c:	2200      	movs	r2, #0
    278e:	f847 6d04 	str.w	r6, [r7, #-4]!
    2792:	5c86      	ldrb	r6, [r0, r2]
    2794:	f7ff fdad 	bl	22f2 <Code_539>
    2798:	3201      	adds	r2, #1
    279a:	4291      	cmp	r1, r2
    279c:	d1f7      	bne.n	278e <stype_addr_r0_len_r1+0x8>
    279e:	bd00      	pop	{pc}

000027a0 <Dictionary_628>:
    27a0:	000027da 	ldrdeq	r2, [r0], -sl
    27a4:	68040000 	stmdavs	r4, {}	; <UNPREDICTABLE>
    27a8:	002e7865 	eoreq	r7, lr, r5, ror #16

000027ac <Code_628>:
    27ac:	b507      	push	{r0, r1, r2, lr}
    27ae:	0031      	movs	r1, r6
    27b0:	cf40      	ldmia	r7!, {r6}
    27b2:	2020      	movs	r0, #32
    27b4:	220f      	movs	r2, #15
    27b6:	3804      	subs	r0, #4
    27b8:	f847 6d04 	str.w	r6, [r7, #-4]!
    27bc:	000e      	movs	r6, r1
    27be:	40c6      	lsrs	r6, r0
    27c0:	4016      	ands	r6, r2
    27c2:	2e09      	cmp	r6, #9
    27c4:	d901      	bls.n	27ca <Code_628+0x1e>
    27c6:	3637      	adds	r6, #55	; 0x37
    27c8:	e000      	b.n	27cc <Code_628+0x20>
    27ca:	3630      	adds	r6, #48	; 0x30
    27cc:	f7ff fd91 	bl	22f2 <Code_539>
    27d0:	2800      	cmp	r0, #0
    27d2:	d1f0      	bne.n	27b6 <Code_628+0xa>
    27d4:	f7ff ff26 	bl	2624 <Code_589>
    27d8:	bd07      	pop	{r0, r1, r2, pc}

000027da <Dictionary_631>:
    27da:	000027ea 	andeq	r2, r0, sl, ror #15
    27de:	68030000 	stmdavs	r3, {}	; <UNPREDICTABLE>
    27e2:	b51f732e 	ldrlt	r7, [pc, #-814]	; 24bc <Code_558+0x42>

000027e4 <Code_631>:
    27e4:	b51f      	push	{r0, r1, r2, r3, r4, lr}
    27e6:	4c4f      	ldr	r4, [pc, #316]	; (2924 <Code_644+0xa0>)
    27e8:	e00e      	b.n	2808 <Code_633+0x4>

000027ea <Dictionary_632>:
    27ea:	000027fa 	strdeq	r2, [r0], -sl
    27ee:	75030000 	strvc	r0, [r3]
    27f2:	b51f732e 	ldrlt	r7, [pc, #-814]	; 24cc <Code_558+0x52>

000027f4 <Code_632>:
    27f4:	b51f      	push	{r0, r1, r2, r3, r4, lr}
    27f6:	4c4c      	ldr	r4, [pc, #304]	; (2928 <Code_644+0xa4>)
    27f8:	e006      	b.n	2808 <Code_633+0x4>

000027fa <Dictionary_633>:
    27fa:	00002878 	andeq	r2, r0, r8, ror r8
    27fe:	2e020000 	cdpcs	0, 0, cr0, cr2, cr0, {0}
    2802:	b51f0073 	ldrlt	r0, [pc, #-115]	; 2797 <stype_addr_r0_len_r1+0x11>

00002804 <Code_633>:
    2804:	b51f      	push	{r0, r1, r2, r3, r4, lr}
    2806:	4c49      	ldr	r4, [pc, #292]	; (292c <Code_644+0xa8>)
    2808:	4949      	ldr	r1, [pc, #292]	; (2930 <Code_644+0xac>)
    280a:	1bc9      	subs	r1, r1, r7
    280c:	0889      	lsrs	r1, r1, #2
    280e:	4a49      	ldr	r2, [pc, #292]	; (2934 <Code_644+0xb0>)
    2810:	6810      	ldr	r0, [r2, #0]
    2812:	b403      	push	{r0, r1}
    2814:	200a      	movs	r0, #10
    2816:	6010      	str	r0, [r2, #0]
    2818:	f7ff ff55 	bl	26c6 <dotgaensefuesschen>
    281c:	61745308 	cmnvs	r4, r8, lsl #6
    2820:	203a6b63 	eorscs	r6, sl, r3, ror #22
    2824:	f847005b 			; <UNDEFINED> instruction: 0xf847005b
    2828:	6d04      	ldr	r4, [r0, #80]	; 0x50
    282a:	000e      	movs	r6, r1
    282c:	f001 fd3d 	bl	42aa <Code_1147>
    2830:	f7ff ff49 	bl	26c6 <dotgaensefuesschen>
    2834:	00205d02 	eoreq	r5, r0, r2, lsl #26
    2838:	bc03      	pop	{r0, r1}
    283a:	4a3e      	ldr	r2, [pc, #248]	; (2934 <Code_644+0xb0>)
    283c:	6010      	str	r0, [r2, #0]
    283e:	2900      	cmp	r1, #0
    2840:	d00a      	beq.n	2858 <Code_633+0x54>
    2842:	4a3d      	ldr	r2, [pc, #244]	; (2938 <Code_644+0xb4>)
    2844:	6810      	ldr	r0, [r2, #0]
    2846:	b406      	push	{r1, r2}
    2848:	f847 6d04 	str.w	r6, [r7, #-4]!
    284c:	0006      	movs	r6, r0
    284e:	47a0      	blx	r4
    2850:	bc06      	pop	{r1, r2}
    2852:	3a04      	subs	r2, #4
    2854:	3901      	subs	r1, #1
    2856:	d1f5      	bne.n	2844 <Code_633+0x40>
    2858:	f7ff ff35 	bl	26c6 <dotgaensefuesschen>
    285c:	4f542006 	svcmi	0x00542006
    2860:	00203a53 	eoreq	r3, r0, r3, asr sl
    2864:	f847 6d04 	str.w	r6, [r7, #-4]!
    2868:	0036      	movs	r6, r6
    286a:	47a0      	blx	r4
    286c:	f7ff ff2b 	bl	26c6 <dotgaensefuesschen>
    2870:	3e2a2004 	cdpcc	0, 2, cr2, cr10, cr4, {0}
    2874:	bd1f000a 	ldclt	0, cr0, [pc, #-40]	; 2854 <Code_633+0x50>

00002878 <Dictionary_644>:
    2878:	0000293c 	andeq	r2, r0, ip, lsr r9
    287c:	77050000 	strvc	r0, [r5, -r0]
    2880:	7364726f 	cmnvc	r4, #-268435450	; 0xf0000006

00002884 <Code_644>:
    2884:	b500      	push	{lr}
    2886:	f7ff ff1e 	bl	26c6 <dotgaensefuesschen>
    288a:	f0000a01 			; <UNDEFINED> instruction: 0xf0000a01
    288e:	febf f7ff 	mrc2	7, 5, pc, cr15, cr15, {7}
    2892:	ff19 4109 	vrhadd.u16	d4, d9, d9
    2896:	65726464 	ldrbvs	r6, [r2, #-1124]!	; 0x464
    289a:	203a7373 	eorscs	r7, sl, r3, ror r3
    289e:	f847 6d04 	str.w	r6, [r7, #-4]!
    28a2:	f7ff ff83 	bl	27ac <Code_628>
    28a6:	f7ff ff0e 	bl	26c6 <dotgaensefuesschen>
    28aa:	6e694c06 	cdpvs	12, 6, cr4, cr9, cr6, {0}
    28ae:	00203a6b 	eoreq	r3, r0, fp, ror #20
    28b2:	f847 6d04 	str.w	r6, [r7, #-4]!
    28b6:	6836      	ldr	r6, [r6, #0]
    28b8:	f7ff ff78 	bl	27ac <Code_628>
    28bc:	f7ff ff03 	bl	26c6 <dotgaensefuesschen>
    28c0:	616c4607 	cmnvs	ip, r7, lsl #12
    28c4:	203a7367 	eorscs	r7, sl, r7, ror #6
    28c8:	f847 6d04 	str.w	r6, [r7, #-4]!
    28cc:	88b6      	ldrh	r6, [r6, #4]
    28ce:	f7ff ff6d 	bl	27ac <Code_628>
    28d2:	f7ff fef8 	bl	26c6 <dotgaensefuesschen>
    28d6:	646f4306 	strbtvs	r4, [pc], #-774	; 28de <Code_644+0x5a>
    28da:	00203a65 	eoreq	r3, r0, r5, ror #20
    28de:	1db0      	adds	r0, r6, #6
    28e0:	f000 fece 	bl	3680 <skipstring>
    28e4:	f847 6d04 	str.w	r6, [r7, #-4]!
    28e8:	0006      	movs	r6, r0
    28ea:	f7ff ff5f 	bl	27ac <Code_628>
    28ee:	f7ff feea 	bl	26c6 <dotgaensefuesschen>
    28f2:	6d614e06 	stclvs	14, cr4, [r1, #-24]!	; 0xffffffe8
    28f6:	00203a65 	eoreq	r3, r0, r5, ror #20
    28fa:	f847 6d04 	str.w	r6, [r7, #-4]!
    28fe:	3606      	adds	r6, #6
    2900:	f7ff ff29 	bl	2756 <Code_620>
    2904:	f7ff fedf 	bl	26c6 <dotgaensefuesschen>
    2908:	f0000a01 			; <UNDEFINED> instruction: 0xf0000a01
    290c:	fe97 0030 	mrc2	0, 4, r0, cr7, cr0, {1}
    2910:	cf40      	ldmia	r7!, {r6}
    2912:	d0bd      	beq.n	2890 <Code_644+0xc>
    2914:	cf40      	ldmia	r7!, {r6}
    2916:	bd00      	pop	{pc}
    2918:	000026c6 	andeq	r2, r0, r6, asr #13
    291c:	000026f0 	strdeq	r2, [r0], -r0
    2920:	00002716 	andeq	r2, r0, r6, lsl r7
    2924:	000027ad 	andeq	r2, r0, sp, lsr #15
    2928:	0000429b 	muleq	r0, fp, r2
    292c:	000042ab 	andeq	r4, r0, fp, lsr #5
    2930:	2000028c 	andcs	r0, r0, ip, lsl #5
    2934:	2001fffc 	strdcs	pc, [r1], -ip
    2938:	20000288 	andcs	r0, r0, r8, lsl #5

0000293c <Dictionary_664>:
    293c:	00002aa0 	andeq	r2, r0, r0, lsr #21
    2940:	310d0000 	mrscc	r0, (UNDEF: 13)
    2944:	74696232 	strbtvc	r6, [r9], #-562	; 0x232
    2948:	6f636e65 	svcvs	0x00636e65
    294c:	676e6964 	strbvs	r6, [lr, -r4, ror #18]!

00002950 <Code_664>:
    2950:	b50f      	push	{r0, r1, r2, r3, lr}
    2952:	2eff      	cmp	r6, #255	; 0xff
    2954:	d804      	bhi.n	2960 <Code_664+0x10>
    2956:	f847 6d04 	str.w	r6, [r7, #-4]!
    295a:	f05f 36ff 	movs.w	r6, #4294967295
    295e:	bd0f      	pop	{r0, r1, r2, r3, pc}
    2960:	f016 10ff 	ands.w	r0, r6, #16711935	; 0xff00ff
    2964:	42b0      	cmp	r0, r6
    2966:	d10e      	bne.n	2986 <Code_664+0x36>
    2968:	f64f 71ff 	movw	r1, #65535	; 0xffff
    296c:	4008      	ands	r0, r1
    296e:	0c31      	lsrs	r1, r6, #16
    2970:	4281      	cmp	r1, r0
    2972:	d108      	bne.n	2986 <Code_664+0x36>
    2974:	f016 06ff 	ands.w	r6, r6, #255	; 0xff
    2978:	f456 5680 	orrs.w	r6, r6, #4096	; 0x1000
    297c:	f847 6d04 	str.w	r6, [r7, #-4]!
    2980:	f05f 36ff 	movs.w	r6, #4294967295
    2984:	bd0f      	pop	{r0, r1, r2, r3, pc}
    2986:	f016 20ff 	ands.w	r0, r6, #4278255360	; 0xff00ff00
    298a:	42b0      	cmp	r0, r6
    298c:	d10f      	bne.n	29ae <Code_664+0x5e>
    298e:	f64f 71ff 	movw	r1, #65535	; 0xffff
    2992:	4008      	ands	r0, r1
    2994:	0c31      	lsrs	r1, r6, #16
    2996:	4281      	cmp	r1, r0
    2998:	d109      	bne.n	29ae <Code_664+0x5e>
    299a:	0a36      	lsrs	r6, r6, #8
    299c:	f016 06ff 	ands.w	r6, r6, #255	; 0xff
    29a0:	f456 5600 	orrs.w	r6, r6, #8192	; 0x2000
    29a4:	f847 6d04 	str.w	r6, [r7, #-4]!
    29a8:	f05f 36ff 	movs.w	r6, #4294967295
    29ac:	bd0f      	pop	{r0, r1, r2, r3, pc}
    29ae:	22ff      	movs	r2, #255	; 0xff
    29b0:	0031      	movs	r1, r6
    29b2:	4011      	ands	r1, r2
    29b4:	0a30      	lsrs	r0, r6, #8
    29b6:	4010      	ands	r0, r2
    29b8:	4288      	cmp	r0, r1
    29ba:	d110      	bne.n	29de <Code_664+0x8e>
    29bc:	0c30      	lsrs	r0, r6, #16
    29be:	4010      	ands	r0, r2
    29c0:	4288      	cmp	r0, r1
    29c2:	d10c      	bne.n	29de <Code_664+0x8e>
    29c4:	0e30      	lsrs	r0, r6, #24
    29c6:	4010      	ands	r0, r2
    29c8:	4288      	cmp	r0, r1
    29ca:	d108      	bne.n	29de <Code_664+0x8e>
    29cc:	f016 06ff 	ands.w	r6, r6, #255	; 0xff
    29d0:	f456 5640 	orrs.w	r6, r6, #12288	; 0x3000
    29d4:	f847 6d04 	str.w	r6, [r7, #-4]!
    29d8:	f05f 36ff 	movs.w	r6, #4294967295
    29dc:	bd0f      	pop	{r0, r1, r2, r3, pc}
    29de:	0030      	movs	r0, r6
    29e0:	2100      	movs	r1, #0
    29e2:	3101      	adds	r1, #1
    29e4:	1800      	adds	r0, r0, r0
    29e6:	f150 0000 	adcs.w	r0, r0, #0
    29ea:	f07f 027f 	mvns.w	r2, #127	; 0x7f
    29ee:	4002      	ands	r2, r0
    29f0:	2a80      	cmp	r2, #128	; 0x80
    29f2:	d005      	beq.n	2a00 <Code_664+0xb0>
    29f4:	291f      	cmp	r1, #31
    29f6:	d3f4      	bcc.n	29e2 <Code_664+0x92>
    29f8:	f847 6d04 	str.w	r6, [r7, #-4]!
    29fc:	2600      	movs	r6, #0
    29fe:	bd0f      	pop	{r0, r1, r2, r3, pc}
    2a00:	2908      	cmp	r1, #8
    2a02:	d3f9      	bcc.n	29f8 <Code_664+0xa8>
    2a04:	0006      	movs	r6, r0
    2a06:	f036 0680 	bics.w	r6, r6, #128	; 0x80
    2a0a:	f011 0001 	ands.w	r0, r1, #1
    2a0e:	01c0      	lsls	r0, r0, #7
    2a10:	4306      	orrs	r6, r0
    2a12:	f011 000e 	ands.w	r0, r1, #14
    2a16:	02c0      	lsls	r0, r0, #11
    2a18:	4306      	orrs	r6, r0
    2a1a:	f011 0010 	ands.w	r0, r1, #16
    2a1e:	0580      	lsls	r0, r0, #22
    2a20:	4306      	orrs	r6, r0
    2a22:	f847 6d04 	str.w	r6, [r7, #-4]!
    2a26:	f05f 36ff 	movs.w	r6, #4294967295
    2a2a:	bd0f      	pop	{r0, r1, r2, r3, pc}

00002a2c <movwkomma>:
    2a2c:	f847 6d04 	str.w	r6, [r7, #-4]!
    2a30:	f8df 6654 	ldr.w	r6, [pc, #1620]	; 3088 <setflags_ram+0x1e>
    2a34:	f45f 4170 	movs.w	r1, #61440	; 0xf000
    2a38:	ea10 0201 	ands.w	r2, r0, r1
    2a3c:	0112      	lsls	r2, r2, #4
    2a3e:	4316      	orrs	r6, r2
    2a40:	f45f 6100 	movs.w	r1, #2048	; 0x800
    2a44:	ea10 0201 	ands.w	r2, r0, r1
    2a48:	03d2      	lsls	r2, r2, #15
    2a4a:	4316      	orrs	r6, r2
    2a4c:	f45f 61e0 	movs.w	r1, #1792	; 0x700
    2a50:	ea10 0201 	ands.w	r2, r0, r1
    2a54:	0112      	lsls	r2, r2, #4
    2a56:	4316      	orrs	r6, r2
    2a58:	21ff      	movs	r1, #255	; 0xff
    2a5a:	ea10 0201 	ands.w	r2, r0, r1
    2a5e:	4316      	orrs	r6, r2
    2a60:	431e      	orrs	r6, r3
    2a62:	e387      	b.n	3174 <Code_804>

00002a64 <movtkomma>:
    2a64:	f847 6d04 	str.w	r6, [r7, #-4]!
    2a68:	f8df 6620 	ldr.w	r6, [pc, #1568]	; 308c <setflags_ram+0x22>
    2a6c:	f05f 4170 	movs.w	r1, #4026531840	; 0xf0000000
    2a70:	ea10 0201 	ands.w	r2, r0, r1
    2a74:	0b12      	lsrs	r2, r2, #12
    2a76:	4316      	orrs	r6, r2
    2a78:	f05f 6100 	movs.w	r1, #134217728	; 0x8000000
    2a7c:	ea10 0201 	ands.w	r2, r0, r1
    2a80:	0852      	lsrs	r2, r2, #1
    2a82:	4316      	orrs	r6, r2
    2a84:	f05f 61e0 	movs.w	r1, #117440512	; 0x7000000
    2a88:	ea10 0201 	ands.w	r2, r0, r1
    2a8c:	0b12      	lsrs	r2, r2, #12
    2a8e:	4316      	orrs	r6, r2
    2a90:	f45f 017f 	movs.w	r1, #16711680	; 0xff0000
    2a94:	ea10 0201 	ands.w	r2, r0, r1
    2a98:	0c12      	lsrs	r2, r2, #16
    2a9a:	4316      	orrs	r6, r2
    2a9c:	431e      	orrs	r6, r3
    2a9e:	e369      	b.n	3174 <Code_804>

00002aa0 <Dictionary_673>:
    2aa0:	00002b06 	andeq	r2, r0, r6, lsl #22
    2aa4:	72100000 	andsvc	r0, r0, #0
    2aa8:	73696765 	cmnvc	r9, #26476544	; 0x1940000
    2aac:	6c726574 	cfldr64vs	mvdx6, [r2], #-464	; 0xfffffe30
    2ab0:	72657469 	rsbvc	r7, r5, #1761607680	; 0x69000000
    2ab4:	002c6c61 	eoreq	r6, ip, r1, ror #24

00002ab8 <Code_673>:
    2ab8:	b50f      	push	{r0, r1, r2, r3, lr}
    2aba:	0033      	movs	r3, r6
    2abc:	cf40      	ldmia	r7!, {r6}
    2abe:	021b      	lsls	r3, r3, #8
    2ac0:	2eff      	cmp	r6, #255	; 0xff
    2ac2:	d805      	bhi.n	2ad0 <Code_673+0x18>
    2ac4:	f456 5600 	orrs.w	r6, r6, #8192	; 0x2000
    2ac8:	431e      	orrs	r6, r3
    2aca:	f000 fb24 	bl	3116 <Code_795>
    2ace:	bd0f      	pop	{r0, r1, r2, r3, pc}
    2ad0:	f7ff ff3e 	bl	2950 <Code_664>
    2ad4:	2e00      	cmp	r6, #0
    2ad6:	cf40      	ldmia	r7!, {r6}
    2ad8:	d006      	beq.n	2ae8 <Code_673+0x30>
    2ada:	f8df 05b4 	ldr.w	r0, [pc, #1460]	; 3090 <setflags_ram+0x26>
    2ade:	4306      	orrs	r6, r0
    2ae0:	431e      	orrs	r6, r3
    2ae2:	f000 fb47 	bl	3174 <Code_804>
    2ae6:	bd0f      	pop	{r0, r1, r2, r3, pc}
    2ae8:	43f6      	mvns	r6, r6
    2aea:	f7ff ff31 	bl	2950 <Code_664>
    2aee:	2e00      	cmp	r6, #0
    2af0:	cf40      	ldmia	r7!, {r6}
    2af2:	d006      	beq.n	2b02 <Code_673+0x4a>
    2af4:	f8df 059c 	ldr.w	r0, [pc, #1436]	; 3094 <setflags_ram+0x2a>
    2af8:	4306      	orrs	r6, r0
    2afa:	431e      	orrs	r6, r3
    2afc:	f000 fb3a 	bl	3174 <Code_804>
    2b00:	bd0f      	pop	{r0, r1, r2, r3, pc}
    2b02:	43f6      	mvns	r6, r6
    2b04:	e00b      	b.n	2b1e <movwmovt_register_r3>

00002b06 <Dictionary_677>:
    2b06:	00002b66 	andeq	r2, r0, r6, ror #22
    2b0a:	6d090000 	stcvs	0, cr0, [r9]
    2b0e:	6d77766f 	ldclvs	6, cr7, [r7, #-444]!	; 0xfffffe44
    2b12:	2c74766f 	ldclcs	6, cr7, [r4], #-444	; 0xfffffe44

00002b16 <Code_677>:
    2b16:	b50f      	push	{r0, r1, r2, r3, lr}
    2b18:	0033      	movs	r3, r6
    2b1a:	cf40      	ldmia	r7!, {r6}
    2b1c:	021b      	lsls	r3, r3, #8

00002b1e <movwmovt_register_r3>:
    2b1e:	0030      	movs	r0, r6
    2b20:	cf40      	ldmia	r7!, {r6}
    2b22:	f7ff ff83 	bl	2a2c <movwkomma>
    2b26:	f64f 71ff 	movw	r1, #65535	; 0xffff
    2b2a:	ea10 4001 	ands.w	r0, r0, r1, lsl #16
    2b2e:	d001      	beq.n	2b34 <movwmovt_register_r3+0x16>
    2b30:	f7ff ff98 	bl	2a64 <movtkomma>
    2b34:	bd0f      	pop	{r0, r1, r2, r3, pc}

00002b36 <callkommalang>:
    2b36:	b50f      	push	{r0, r1, r2, r3, lr}
    2b38:	3601      	adds	r6, #1
    2b3a:	0030      	movs	r0, r6
    2b3c:	cf40      	ldmia	r7!, {r6}
    2b3e:	2300      	movs	r3, #0
    2b40:	f7ff ff74 	bl	2a2c <movwkomma>
    2b44:	f7ff ff8e 	bl	2a64 <movtkomma>
    2b48:	e006      	b.n	2b58 <callkommakurz_intern>

00002b4a <callkommakurz>:
    2b4a:	b50f      	push	{r0, r1, r2, r3, lr}
    2b4c:	3601      	adds	r6, #1
    2b4e:	f847 6d04 	str.w	r6, [r7, #-4]!
    2b52:	2600      	movs	r6, #0
    2b54:	f7ff ffb0 	bl	2ab8 <Code_673>

00002b58 <callkommakurz_intern>:
    2b58:	f847 6d04 	str.w	r6, [r7, #-4]!
    2b5c:	f244 7680 	movw	r6, #18304	; 0x4780
    2b60:	f000 fad9 	bl	3116 <Code_795>
    2b64:	bd0f      	pop	{r0, r1, r2, r3, pc}

00002b66 <Dictionary_685>:
    2b66:	00002bcc 	andeq	r2, r0, ip, asr #23
    2b6a:	63050000 	movwvs	r0, #20480	; 0x5000
    2b6e:	2c6c6c61 	stclcs	12, cr6, [ip], #-388	; 0xfffffe7c

00002b72 <Code_685>:
    2b72:	b50f      	push	{r0, r1, r2, r3, lr}
    2b74:	0033      	movs	r3, r6
    2b76:	f000 fe26 	bl	37c6 <Code_911>
    2b7a:	0030      	movs	r0, r6
    2b7c:	cf40      	ldmia	r7!, {r6}
    2b7e:	1a1b      	subs	r3, r3, r0
    2b80:	3b04      	subs	r3, #4
    2b82:	f8df 1514 	ldr.w	r1, [pc, #1300]	; 3098 <setflags_ram+0x2e>
    2b86:	4019      	ands	r1, r3
    2b88:	2900      	cmp	r1, #0
    2b8a:	d006      	beq.n	2b9a <Code_685+0x28>
    2b8c:	f8df 250c 	ldr.w	r2, [pc, #1292]	; 309c <setflags_ram+0x32>
    2b90:	4291      	cmp	r1, r2
    2b92:	d002      	beq.n	2b9a <Code_685+0x28>
    2b94:	e8bd 400f 	ldmia.w	sp!, {r0, r1, r2, r3, lr}
    2b98:	e7d7      	b.n	2b4a <callkommakurz>
    2b9a:	cf40      	ldmia	r7!, {r6}
    2b9c:	085b      	lsrs	r3, r3, #1
    2b9e:	f8df 0500 	ldr.w	r0, [pc, #1280]	; 30a0 <setflags_ram+0x36>
    2ba2:	f240 71ff 	movw	r1, #2047	; 0x7ff
    2ba6:	4019      	ands	r1, r3
    2ba8:	4308      	orrs	r0, r1
    2baa:	0adb      	lsrs	r3, r3, #11
    2bac:	f240 31ff 	movw	r1, #1023	; 0x3ff
    2bb0:	4019      	ands	r1, r3
    2bb2:	0409      	lsls	r1, r1, #16
    2bb4:	4308      	orrs	r0, r1
    2bb6:	0a9b      	lsrs	r3, r3, #10
    2bb8:	f013 0101 	ands.w	r1, r3, #1
    2bbc:	0689      	lsls	r1, r1, #26
    2bbe:	4308      	orrs	r0, r1
    2bc0:	f847 6d04 	str.w	r6, [r7, #-4]!
    2bc4:	0006      	movs	r6, r0
    2bc6:	f000 fad5 	bl	3174 <Code_804>
    2bca:	bd0f      	pop	{r0, r1, r2, r3, pc}

00002bcc <Dictionary_690>:
    2bcc:	00002c02 	andeq	r2, r0, r2, lsl #24
    2bd0:	6c080000 	stcvs	0, cr0, [r8], {0}
    2bd4:	72657469 	rsbvc	r7, r5, #1761607680	; 0x69000000
    2bd8:	002c6c61 	eoreq	r6, ip, r1, ror #24

00002bdc <Code_690>:
    2bdc:	b508      	push	{r3, lr}
    2bde:	f847 6d04 	str.w	r6, [r7, #-4]!
    2be2:	f64f 0647 	movw	r6, #63559	; 0xf847
    2be6:	f000 fa96 	bl	3116 <Code_795>
    2bea:	f847 6d04 	str.w	r6, [r7, #-4]!
    2bee:	f646 5604 	movw	r6, #27908	; 0x6d04
    2bf2:	f000 fa90 	bl	3116 <Code_795>
    2bf6:	f847 6d04 	str.w	r6, [r7, #-4]!
    2bfa:	2606      	movs	r6, #6
    2bfc:	f7ff ff5c 	bl	2ab8 <Code_673>
    2c00:	bd08      	pop	{r3, pc}

00002c02 <Dictionary_697>:
    2c02:	00002c26 	andeq	r2, r0, r6, lsr #24
    2c06:	63060000 	movwvs	r0, #24576	; 0x6000
    2c0a:	74616572 	strbtvc	r6, [r1], #-1394	; 0x572
    2c0e:	b5000065 	strlt	r0, [r0, #-101]	; 0x65

00002c10 <Code_697>:
    2c10:	b500      	push	{lr}
    2c12:	f000 f833 	bl	2c7c <Code_702>
    2c16:	f642 4043 	movw	r0, #11331	; 0x2c43
    2c1a:	4780      	blx	r0
    2c1c:	f847 6d04 	str.w	r6, [r7, #-4]!
    2c20:	f1be 0601 	subs.w	r6, lr, #1
    2c24:	bd00      	pop	{pc}

00002c26 <Dictionary_699>:
    2c26:	00002c6e 	andeq	r2, r0, lr, ror #24
    2c2a:	64050020 	strvs	r0, [r5], #-32
    2c2e:	3e73656f 	cdpcc	5, 7, cr6, cr3, cr15, {3}

00002c32 <Code_699>:
    2c32:	f642 4043 	movw	r0, #11331	; 0x2c43
    2c36:	4780      	blx	r0
    2c38:	f847 6d04 	str.w	r6, [r7, #-4]!
    2c3c:	f1be 0601 	subs.w	r6, lr, #1
    2c40:	4770      	bx	lr

00002c42 <dodoes>:
    2c42:	f847 6d04 	str.w	r6, [r7, #-4]!
    2c46:	f1be 0601 	subs.w	r6, lr, #1
    2c4a:	f8df 2458 	ldr.w	r2, [pc, #1112]	; 30a4 <setflags_ram+0x3a>
    2c4e:	6813      	ldr	r3, [r2, #0]
    2c50:	f8df 1454 	ldr.w	r1, [pc, #1108]	; 30a8 <setflags_ram+0x3e>
    2c54:	6809      	ldr	r1, [r1, #0]
    2c56:	2002      	movs	r0, #2
    2c58:	4008      	ands	r0, r1
    2c5a:	d000      	beq.n	2c5e <dodoes+0x1c>
    2c5c:	3102      	adds	r1, #2
    2c5e:	3102      	adds	r1, #2
    2c60:	6011      	str	r1, [r2, #0]
    2c62:	f7ff ff68 	bl	2b36 <callkommalang>
    2c66:	6013      	str	r3, [r2, #0]
    2c68:	f000 f9c4 	bl	2ff4 <Code_782>
    2c6c:	bd00      	pop	{pc}

00002c6e <Dictionary_702>:
    2c6e:	00002cb0 			; <UNDEFINED> instruction: 0x00002cb0
    2c72:	3c070000 	stccc	0, cr0, [r7], {0}
    2c76:	6c697562 	cfstr64vs	mvdx7, [r9], #-392	; 0xfffffe78
    2c7a:	b5007364 	strlt	r7, [r0, #-868]	; 0x364

00002c7c <Code_702>:
    2c7c:	b500      	push	{lr}
    2c7e:	f000 fb55 	bl	332c <Code_826>
    2c82:	f000 fda0 	bl	37c6 <Code_911>
    2c86:	2002      	movs	r0, #2
    2c88:	4006      	ands	r6, r0
    2c8a:	cf40      	ldmia	r7!, {r6}
    2c8c:	d004      	beq.n	2c98 <Code_702+0x1c>
    2c8e:	f847 6d04 	str.w	r6, [r7, #-4]!
    2c92:	2636      	movs	r6, #54	; 0x36
    2c94:	f000 fa3f 	bl	3116 <Code_795>
    2c98:	f847 6d04 	str.w	r6, [r7, #-4]!
    2c9c:	f24b 5600 	movw	r6, #46336	; 0xb500
    2ca0:	f000 fa39 	bl	3116 <Code_795>
    2ca4:	f847 6d04 	str.w	r6, [r7, #-4]!
    2ca8:	260a      	movs	r6, #10
    2caa:	f000 faa6 	bl	31fa <Code_815>
    2cae:	bd00      	pop	{pc}

00002cb0 <Dictionary_710>:
    2cb0:	00002cbc 			; <UNDEFINED> instruction: 0x00002cbc
    2cb4:	5b030050 	blpl	c2dfc <BIT19+0x42dfc>
    2cb8:	e0035d27 	and	r5, r3, r7, lsr #26

00002cba <Code_710>:
    2cba:	e003      	b.n	2cc4 <Code_711>

00002cbc <Dictionary_711>:
    2cbc:	00002cd4 	ldrdeq	r2, [r0], -r4
    2cc0:	27010000 	strcs	r0, [r1, -r0]

00002cc4 <Code_711>:
    2cc4:	b500      	push	{lr}
    2cc6:	f001 f917 	bl	3ef8 <Code_1079>
    2cca:	f000 fd17 	bl	36fc <find_not_found>
    2cce:	0030      	movs	r0, r6
    2cd0:	cf40      	ldmia	r7!, {r6}
    2cd2:	bd00      	pop	{pc}

00002cd4 <Dictionary_713>:
    2cd4:	00002d0a 	andeq	r2, r0, sl, lsl #26
    2cd8:	70080030 	andvc	r0, r8, r0, lsr r0
    2cdc:	7074736f 	rsbsvc	r7, r4, pc, ror #6
    2ce0:	00656e6f 	rsbeq	r6, r5, pc, ror #28

00002ce4 <Code_713>:
    2ce4:	b500      	push	{lr}
    2ce6:	f7ff ffed 	bl	2cc4 <Code_711>
    2cea:	f847 6d04 	str.w	r6, [r7, #-4]!
    2cee:	0006      	movs	r6, r0
    2cf0:	6839      	ldr	r1, [r7, #0]
    2cf2:	603e      	str	r6, [r7, #0]
    2cf4:	460e      	mov	r6, r1
    2cf6:	f7ff ff71 	bl	2bdc <Code_690>
    2cfa:	f7ff ff6f 	bl	2bdc <Code_690>
    2cfe:	f847 6d04 	str.w	r6, [r7, #-4]!
    2d02:	4eea      	ldr	r6, [pc, #936]	; (30ac <setflags_ram+0x42>)
    2d04:	f7ff ff35 	bl	2b72 <Code_685>
    2d08:	bd00      	pop	{pc}

00002d0a <Dictionary_718>:
    2d0a:	00002d60 	andeq	r2, r0, r0, ror #26
    2d0e:	69070000 	stmdbvs	r7, {}	; <UNPREDICTABLE>
    2d12:	6e696c6e 	cdpvs	12, 6, cr6, cr9, cr14, {3}
    2d16:	b5002c65 	strlt	r2, [r0, #-3173]	; 0xc65

00002d18 <Code_718>:
    2d18:	b500      	push	{lr}
    2d1a:	f24b 5100 	movw	r1, #46336	; 0xb500
    2d1e:	f64b 5200 	movw	r2, #48384	; 0xbd00
    2d22:	f244 7370 	movw	r3, #18288	; 0x4770
    2d26:	8830      	ldrh	r0, [r6, #0]
    2d28:	4288      	cmp	r0, r1
    2d2a:	d008      	beq.n	2d3e <Code_718+0x26>
    2d2c:	4290      	cmp	r0, r2
    2d2e:	d008      	beq.n	2d42 <Code_718+0x2a>
    2d30:	4298      	cmp	r0, r3
    2d32:	d006      	beq.n	2d42 <Code_718+0x2a>
    2d34:	f847 6d04 	str.w	r6, [r7, #-4]!
    2d38:	0006      	movs	r6, r0
    2d3a:	f000 f9ec 	bl	3116 <Code_795>
    2d3e:	3602      	adds	r6, #2
    2d40:	e7f1      	b.n	2d26 <Code_718+0xe>
    2d42:	cf40      	ldmia	r7!, {r6}
    2d44:	bd00      	pop	{pc}

00002d46 <suchedefinitionsende>:
    2d46:	b40e      	push	{r1, r2, r3}
    2d48:	f64b 5200 	movw	r2, #48384	; 0xbd00
    2d4c:	f244 7370 	movw	r3, #18288	; 0x4770
    2d50:	8801      	ldrh	r1, [r0, #0]
    2d52:	3002      	adds	r0, #2
    2d54:	4291      	cmp	r1, r2
    2d56:	d001      	beq.n	2d5c <suchedefinitionsende+0x16>
    2d58:	4299      	cmp	r1, r3
    2d5a:	d1f9      	bne.n	2d50 <suchedefinitionsende+0xa>
    2d5c:	bc0e      	pop	{r1, r2, r3}
    2d5e:	4770      	bx	lr

00002d60 <Dictionary_722>:
    2d60:	00002d76 	andeq	r2, r0, r6, ror sp
    2d64:	72040000 	andvc	r0, r4, #0
    2d68:	002c7465 	eoreq	r7, ip, r5, ror #8

00002d6c <Code_722>:
    2d6c:	f847 6d04 	str.w	r6, [r7, #-4]!
    2d70:	f64b 5600 	movw	r6, #48384	; 0xbd00
    2d74:	e1cf      	b.n	3116 <Code_795>

00002d76 <Dictionary_725>:
    2d76:	00002d84 	andeq	r2, r0, r4, lsl #27
    2d7a:	65040030 	strvs	r0, [r4, #-48]	; 0x30
    2d7e:	00746978 	rsbseq	r6, r4, r8, ror r9

00002d82 <Code_725>:
    2d82:	e7f3      	b.n	2d6c <Code_722>

00002d84 <Dictionary_726>:
    2d84:	00002d9c 	muleq	r0, ip, sp
    2d88:	72070030 	andvc	r0, r7, #48	; 0x30
    2d8c:	72756365 	rsbsvc	r6, r5, #-1811939327	; 0x94000001
    2d90:	f8476573 			; <UNDEFINED> instruction: 0xf8476573

00002d92 <Code_726>:
    2d92:	f847 6d04 	str.w	r6, [r7, #-4]!
    2d96:	4ec4      	ldr	r6, [pc, #784]	; (30a8 <setflags_ram+0x3e>)
    2d98:	6836      	ldr	r6, [r6, #0]
    2d9a:	e6ea      	b.n	2b72 <Code_685>

00002d9c <Dictionary_728>:
    2d9c:	00002db4 			; <UNDEFINED> instruction: 0x00002db4
    2da0:	73050081 	movwvc	r0, #20609	; 0x5081
    2da4:	65746174 	ldrbvs	r6, [r4, #-372]!	; 0x174

00002da8 <Code_728>:
    2da8:	f847 6d04 	str.w	r6, [r7, #-4]!
    2dac:	4ec0      	ldr	r6, [pc, #768]	; (30b0 <setflags_ram+0x46>)
    2dae:	4770      	bx	lr
    2db0:	00000000 	andeq	r0, r0, r0

00002db4 <Dictionary_731>:
    2db4:	00002dc6 	andeq	r2, r0, r6, asr #27
    2db8:	5d010000 	stcpl	0, cr0, [r1]

00002dbc <Code_731>:
    2dbc:	48bc      	ldr	r0, [pc, #752]	; (30b0 <setflags_ram+0x46>)
    2dbe:	2100      	movs	r1, #0
    2dc0:	43c9      	mvns	r1, r1
    2dc2:	6001      	str	r1, [r0, #0]
    2dc4:	4770      	bx	lr

00002dc6 <Dictionary_732>:
    2dc6:	00002dd6 	ldrdeq	r2, [r0], -r6
    2dca:	5b010010 	blpl	42e12 <BIT18+0x2e12>

00002dce <Code_732>:
    2dce:	48b8      	ldr	r0, [pc, #736]	; (30b0 <setflags_ram+0x46>)
    2dd0:	2100      	movs	r1, #0
    2dd2:	6001      	str	r1, [r0, #0]
    2dd4:	4770      	bx	lr

00002dd6 <Dictionary_733>:
    2dd6:	00002df6 	strdeq	r2, [r0], -r6
    2dda:	3a010000 	bcc	42de2 <BIT18+0x2de2>

00002dde <Code_733>:
    2dde:	b500      	push	{lr}
    2de0:	48b4      	ldr	r0, [pc, #720]	; (30b4 <setflags_ram+0x4a>)
    2de2:	6007      	str	r7, [r0, #0]
    2de4:	f000 faa2 	bl	332c <Code_826>
    2de8:	48b1      	ldr	r0, [pc, #708]	; (30b0 <setflags_ram+0x46>)
    2dea:	2101      	movs	r1, #1
    2dec:	6001      	str	r1, [r0, #0]
    2dee:	48b2      	ldr	r0, [pc, #712]	; (30b8 <setflags_ram+0x4e>)
    2df0:	2100      	movs	r1, #0
    2df2:	6001      	str	r1, [r0, #0]
    2df4:	bd00      	pop	{pc}

00002df6 <Dictionary_734>:
    2df6:	00002e68 	andeq	r2, r0, r8, ror #28
    2dfa:	3b010830 	blcc	44ec2 <BIT18+0x4ec2>

00002dfe <Code_734>:
    2dfe:	b500      	push	{lr}
    2e00:	48ac      	ldr	r0, [pc, #688]	; (30b4 <setflags_ram+0x4a>)
    2e02:	6801      	ldr	r1, [r0, #0]
    2e04:	42b9      	cmp	r1, r7
    2e06:	d00e      	beq.n	2e26 <Code_734+0x28>
    2e08:	f7ff fc5d 	bl	26c6 <dotgaensefuesschen>
    2e0c:	74532015 	ldrbvc	r2, [r3], #-21
    2e10:	206b6361 	rsbcs	r6, fp, r1, ror #6
    2e14:	20746f6e 	rsbscs	r6, r4, lr, ror #30
    2e18:	616c6162 	cmnvs	ip, r2, ror #2
    2e1c:	6465636e 	strbtvs	r6, [r5], #-878	; 0x36e
    2e20:	f0010a2e 			; <UNDEFINED> instruction: 0xf0010a2e
    2e24:	bbda      	cbnz	r2, 2e9e <Dictionary_747+0xa>
    2e26:	48a2      	ldr	r0, [pc, #648]	; (30b0 <setflags_ram+0x46>)
    2e28:	6800      	ldr	r0, [r0, #0]
    2e2a:	1c41      	adds	r1, r0, #1
    2e2c:	d010      	beq.n	2e50 <Code_734+0x52>
    2e2e:	280b      	cmp	r0, #11
    2e30:	d805      	bhi.n	2e3e <Code_734+0x40>
    2e32:	f847 6d04 	str.w	r6, [r7, #-4]!
    2e36:	f640 0620 	movw	r6, #2080	; 0x820
    2e3a:	f000 f90a 	bl	3052 <Code_788>
    2e3e:	f847 6d04 	str.w	r6, [r7, #-4]!
    2e42:	f244 7670 	movw	r6, #18288	; 0x4770
    2e46:	f000 f966 	bl	3116 <Code_795>
    2e4a:	f001 facc 	bl	43e6 <inline_cache_schreiben>
    2e4e:	e005      	b.n	2e5c <Code_734+0x5e>
    2e50:	f847 6d04 	str.w	r6, [r7, #-4]!
    2e54:	f64b 5600 	movw	r6, #48384	; 0xbd00
    2e58:	f000 f95d 	bl	3116 <Code_795>
    2e5c:	f000 f8ca 	bl	2ff4 <Code_782>
    2e60:	4893      	ldr	r0, [pc, #588]	; (30b0 <setflags_ram+0x46>)
    2e62:	2100      	movs	r1, #0
    2e64:	6001      	str	r1, [r0, #0]
    2e66:	bd00      	pop	{pc}

00002e68 <Dictionary_742>:
    2e68:	00002e7c 	andeq	r2, r0, ip, ror lr
    2e6c:	65070000 	strvs	r0, [r7]
    2e70:	75636578 	strbvc	r6, [r3, #-1400]!	; 0x578
    2e74:	00306574 	eorseq	r6, r0, r4, ror r5

00002e76 <Code_742>:
    2e76:	0030      	movs	r0, r6
    2e78:	cf40      	ldmia	r7!, {r6}
    2e7a:	4687      	mov	pc, r0

00002e7c <Dictionary_744>:
    2e7c:	00002e94 	muleq	r0, r4, lr
    2e80:	69090010 	stmdbvs	r9, {r4}
    2e84:	64656d6d 	strbtvs	r6, [r5], #-3437	; 0xd6d
    2e88:	65746169 	ldrbvs	r6, [r4, #-361]!	; 0x169

00002e8c <Code_744>:
    2e8c:	f847 6d04 	str.w	r6, [r7, #-4]!
    2e90:	2610      	movs	r6, #16
    2e92:	e0de      	b.n	3052 <Code_788>

00002e94 <Dictionary_747>:
    2e94:	00002eaa 	andeq	r2, r0, sl, lsr #29
    2e98:	69060050 	stmdbvs	r6, {r4, r6}
    2e9c:	6e696c6e 	cdpvs	12, 6, cr6, cr9, cr14, {3}
    2ea0:	f8470065 			; <UNDEFINED> instruction: 0xf8470065

00002ea2 <Code_747>:
    2ea2:	f847 6d04 	str.w	r6, [r7, #-4]!
    2ea6:	2620      	movs	r6, #32
    2ea8:	e0d3      	b.n	3052 <Code_788>

00002eaa <Dictionary_750>:
    2eaa:	00002ec4 	andeq	r2, r0, r4, asr #29
    2eae:	630b0010 	movwvs	r0, #45072	; 0xb010
    2eb2:	69706d6f 	ldmdbvs	r0!, {r0, r1, r2, r3, r5, r6, r8, sl, fp, sp, lr}^
    2eb6:	6e6f656c 	cdpvs	5, 6, cr6, cr15, cr12, {3}
    2eba:	f847796c 			; <UNDEFINED> instruction: 0xf847796c

00002ebc <Code_750>:
    2ebc:	f847 6d04 	str.w	r6, [r7, #-4]!
    2ec0:	2630      	movs	r6, #48	; 0x30
    2ec2:	e0c6      	b.n	3052 <Code_788>

00002ec4 <Dictionary_753>:
    2ec4:	00002ede 	ldrdeq	r2, [r0], -lr
    2ec8:	300a0050 	andcc	r0, sl, r0, asr r0
    2ecc:	6c6f662d 	stclvs	6, cr6, [pc], #-180	; 2e20 <Code_734+0x22>
    2ed0:	6c626164 	stfvse	f6, [r2], #-400	; 0xfffffe70
    2ed4:	f8470065 			; <UNDEFINED> instruction: 0xf8470065

00002ed6 <Code_753>:
    2ed6:	f847 6d04 	str.w	r6, [r7, #-4]!
    2eda:	2640      	movs	r6, #64	; 0x40
    2edc:	e0b9      	b.n	3052 <Code_788>

00002ede <Dictionary_756>:
    2ede:	00002ef8 	strdeq	r2, [r0], -r8
    2ee2:	310a0050 	qaddcc	r0, r0, sl
    2ee6:	6c6f662d 	stclvs	6, cr6, [pc], #-180	; 2e38 <Code_734+0x3a>
    2eea:	6c626164 	stfvse	f6, [r2], #-400	; 0xfffffe70
    2eee:	f8470065 			; <UNDEFINED> instruction: 0xf8470065

00002ef0 <Code_756>:
    2ef0:	f847 6d04 	str.w	r6, [r7, #-4]!
    2ef4:	2641      	movs	r6, #65	; 0x41
    2ef6:	e0ac      	b.n	3052 <Code_788>

00002ef8 <Dictionary_759>:
    2ef8:	00002f12 	andeq	r2, r0, r2, lsl pc
    2efc:	320a0050 	andcc	r0, sl, #80	; 0x50
    2f00:	6c6f662d 	stclvs	6, cr6, [pc], #-180	; 2e54 <Code_734+0x56>
    2f04:	6c626164 	stfvse	f6, [r2], #-400	; 0xfffffe70
    2f08:	f8470065 			; <UNDEFINED> instruction: 0xf8470065

00002f0a <Code_759>:
    2f0a:	f847 6d04 	str.w	r6, [r7, #-4]!
    2f0e:	2642      	movs	r6, #66	; 0x42
    2f10:	e09f      	b.n	3052 <Code_788>

00002f12 <Dictionary_762>:
    2f12:	00002f2c 	andeq	r2, r0, ip, lsr #30
    2f16:	330a0050 	movwcc	r0, #41040	; 0xa050
    2f1a:	6c6f662d 	stclvs	6, cr6, [pc], #-180	; 2e6c <Dictionary_742+0x4>
    2f1e:	6c626164 	stfvse	f6, [r2], #-400	; 0xfffffe70
    2f22:	f8470065 			; <UNDEFINED> instruction: 0xf8470065

00002f24 <Code_762>:
    2f24:	f847 6d04 	str.w	r6, [r7, #-4]!
    2f28:	2643      	movs	r6, #67	; 0x43
    2f2a:	e092      	b.n	3052 <Code_788>

00002f2c <Dictionary_765>:
    2f2c:	00002f46 	andeq	r2, r0, r6, asr #30
    2f30:	340a0050 	strcc	r0, [sl], #-80	; 0x50
    2f34:	6c6f662d 	stclvs	6, cr6, [pc], #-180	; 2e88 <Dictionary_744+0xc>
    2f38:	6c626164 	stfvse	f6, [r2], #-400	; 0xfffffe70
    2f3c:	f8470065 			; <UNDEFINED> instruction: 0xf8470065

00002f3e <Code_765>:
    2f3e:	f847 6d04 	str.w	r6, [r7, #-4]!
    2f42:	2644      	movs	r6, #68	; 0x44
    2f44:	e085      	b.n	3052 <Code_788>

00002f46 <Dictionary_768>:
    2f46:	00002f60 	andeq	r2, r0, r0, ror #30
    2f4a:	350a0050 	strcc	r0, [sl, #-80]	; 0x50
    2f4e:	6c6f662d 	stclvs	6, cr6, [pc], #-180	; 2ea0 <Dictionary_747+0xc>
    2f52:	6c626164 	stfvse	f6, [r2], #-400	; 0xfffffe70
    2f56:	f8470065 			; <UNDEFINED> instruction: 0xf8470065

00002f58 <Code_768>:
    2f58:	f847 6d04 	str.w	r6, [r7, #-4]!
    2f5c:	2645      	movs	r6, #69	; 0x45
    2f5e:	e078      	b.n	3052 <Code_788>

00002f60 <Dictionary_771>:
    2f60:	00002f7a 	andeq	r2, r0, sl, ror pc
    2f64:	360a0050 			; <UNDEFINED> instruction: 0x360a0050
    2f68:	6c6f662d 	stclvs	6, cr6, [pc], #-180	; 2ebc <Code_750>
    2f6c:	6c626164 	stfvse	f6, [r2], #-400	; 0xfffffe70
    2f70:	f8470065 			; <UNDEFINED> instruction: 0xf8470065

00002f72 <Code_771>:
    2f72:	f847 6d04 	str.w	r6, [r7, #-4]!
    2f76:	2646      	movs	r6, #70	; 0x46
    2f78:	e06b      	b.n	3052 <Code_788>

00002f7a <Dictionary_774>:
    2f7a:	00002f94 	muleq	r0, r4, pc	; <UNPREDICTABLE>
    2f7e:	370a0050 	smlsdcc	sl, r0, r0, r0
    2f82:	6c6f662d 	stclvs	6, cr6, [pc], #-180	; 2ed4 <Dictionary_753+0x10>
    2f86:	6c626164 	stfvse	f6, [r2], #-400	; 0xfffffe70
    2f8a:	f8470065 			; <UNDEFINED> instruction: 0xf8470065

00002f8c <Code_774>:
    2f8c:	f847 6d04 	str.w	r6, [r7, #-4]!
    2f90:	2647      	movs	r6, #71	; 0x47
    2f92:	e05e      	b.n	3052 <Code_788>

00002f94 <Dictionary_777>:
    2f94:	00002fc4 	andeq	r2, r0, r4, asr #31
    2f98:	63080000 	movwvs	r0, #32768	; 0x8000
    2f9c:	74736e6f 	ldrbtvc	r6, [r3], #-3695	; 0xe6f
    2fa0:	00746e61 	rsbseq	r6, r4, r1, ror #28

00002fa4 <Code_777>:
    2fa4:	b500      	push	{lr}
    2fa6:	f000 f9c1 	bl	332c <Code_826>
    2faa:	f7ff fe17 	bl	2bdc <Code_690>
    2fae:	f847 6d04 	str.w	r6, [r7, #-4]!
    2fb2:	f244 7670 	movw	r6, #18288	; 0x4770
    2fb6:	f000 f8ae 	bl	3116 <Code_795>
    2fba:	f7ff ff8c 	bl	2ed6 <Code_753>
    2fbe:	f000 f819 	bl	2ff4 <Code_782>
    2fc2:	bd00      	pop	{pc}

00002fc4 <Dictionary_780>:
    2fc4:	00002fe6 	andeq	r2, r0, r6, ror #31
    2fc8:	32090000 	andcc	r0, r9, #0
    2fcc:	736e6f63 	cmnvc	lr, #396	; 0x18c
    2fd0:	746e6174 	strbtvc	r6, [lr], #-372	; 0x174

00002fd4 <Code_780>:
    2fd4:	b500      	push	{lr}
    2fd6:	f000 f9a9 	bl	332c <Code_826>
    2fda:	6839      	ldr	r1, [r7, #0]
    2fdc:	603e      	str	r6, [r7, #0]
    2fde:	460e      	mov	r6, r1
    2fe0:	f7ff fdfc 	bl	2bdc <Code_690>
    2fe4:	e7e1      	b.n	2faa <Code_777+0x6>

00002fe6 <Dictionary_782>:
    2fe6:	00003042 	andeq	r3, r0, r2, asr #32
    2fea:	73060000 	movwvc	r0, #24576	; 0x6000
    2fee:	6764756d 	strbvs	r7, [r4, -sp, ror #10]!
    2ff2:	b5000065 	strlt	r0, [r0, #-101]	; 0x65

00002ff4 <Code_782>:
    2ff4:	b500      	push	{lr}
    2ff6:	482b      	ldr	r0, [pc, #172]	; (30a4 <setflags_ram+0x3a>)
    2ff8:	6801      	ldr	r1, [r0, #0]
    2ffa:	4a2a      	ldr	r2, [pc, #168]	; (30a4 <setflags_ram+0x3a>)
    2ffc:	4291      	cmp	r1, r2
    2ffe:	d21a      	bcs.n	3036 <smudge_ram>
    3000:	3902      	subs	r1, #2
    3002:	880a      	ldrh	r2, [r1, #0]
    3004:	4b2d      	ldr	r3, [pc, #180]	; (30bc <setflags_ram+0x52>)
    3006:	429a      	cmp	r2, r3
    3008:	d104      	bne.n	3014 <Code_782+0x20>
    300a:	f847 6d04 	str.w	r6, [r7, #-4]!
    300e:	4e2c      	ldr	r6, [pc, #176]	; (30c0 <setflags_ram+0x56>)
    3010:	f000 f881 	bl	3116 <Code_795>
    3014:	f000 f86e 	bl	30f4 <Code_792>
    3018:	482a      	ldr	r0, [pc, #168]	; (30c4 <setflags_ram+0x5a>)
    301a:	6800      	ldr	r0, [r0, #0]
    301c:	f847 6d04 	str.w	r6, [r7, #-4]!
    3020:	0006      	movs	r6, r0
    3022:	4929      	ldr	r1, [pc, #164]	; (30c8 <setflags_ram+0x5e>)
    3024:	6809      	ldr	r1, [r1, #0]
    3026:	3104      	adds	r1, #4
    3028:	4a1e      	ldr	r2, [pc, #120]	; (30a4 <setflags_ram+0x3a>)
    302a:	6813      	ldr	r3, [r2, #0]
    302c:	6011      	str	r1, [r2, #0]
    302e:	f000 f872 	bl	3116 <Code_795>
    3032:	6013      	str	r3, [r2, #0]
    3034:	bd00      	pop	{pc}

00003036 <smudge_ram>:
    3036:	f000 f85d 	bl	30f4 <Code_792>
    303a:	f847 6d04 	str.w	r6, [r7, #-4]!
    303e:	2600      	movs	r6, #0
    3040:	e008      	b.n	3054 <setflags_intern>

00003042 <Dictionary_788>:
    3042:	000030cc 	andeq	r3, r0, ip, asr #1
    3046:	73080000 	movwvc	r0, #32768	; 0x8000
    304a:	6c667465 	cfstrdvs	mvd7, [r6], #-404	; 0xfffffe6c
    304e:	00736761 	rsbseq	r6, r3, r1, ror #14

00003052 <Code_788>:
    3052:	b500      	push	{lr}

00003054 <setflags_intern>:
    3054:	4813      	ldr	r0, [pc, #76]	; (30a4 <setflags_ram+0x3a>)
    3056:	6801      	ldr	r1, [r0, #0]
    3058:	4a12      	ldr	r2, [pc, #72]	; (30a4 <setflags_ram+0x3a>)
    305a:	4291      	cmp	r1, r2
    305c:	d205      	bcs.n	306a <setflags_ram>
    305e:	4819      	ldr	r0, [pc, #100]	; (30c4 <setflags_ram+0x5a>)
    3060:	6801      	ldr	r1, [r0, #0]
    3062:	4331      	orrs	r1, r6
    3064:	6001      	str	r1, [r0, #0]
    3066:	cf40      	ldmia	r7!, {r6}
    3068:	bd00      	pop	{pc}

0000306a <setflags_ram>:
    306a:	0032      	movs	r2, r6
    306c:	cf40      	ldmia	r7!, {r6}
    306e:	4816      	ldr	r0, [pc, #88]	; (30c8 <setflags_ram+0x5e>)
    3070:	6800      	ldr	r0, [r0, #0]
    3072:	3004      	adds	r0, #4
    3074:	8801      	ldrh	r1, [r0, #0]
    3076:	4b11      	ldr	r3, [pc, #68]	; (30bc <setflags_ram+0x52>)
    3078:	4299      	cmp	r1, r3
    307a:	d101      	bne.n	3080 <setflags_ram+0x16>
    307c:	0011      	movs	r1, r2
    307e:	e000      	b.n	3082 <setflags_ram+0x18>
    3080:	4311      	orrs	r1, r2
    3082:	8001      	strh	r1, [r0, #0]
    3084:	bd00      	pop	{pc}
    3086:	00000000 	andeq	r0, r0, r0
    308a:	0000f240 	andeq	pc, r0, r0, asr #4
    308e:	0000f2c0 	andeq	pc, r0, r0, asr #5
    3092:	0000f05f 	andeq	pc, r0, pc, asr r0	; <UNPREDICTABLE>
    3096:	0001f07f 	andeq	pc, r1, pc, ror r0	; <UNPREDICTABLE>
    309a:	0000ffc0 	andeq	pc, r0, r0, asr #31
    309e:	f800ffc0 			; <UNDEFINED> instruction: 0xf800ffc0
    30a2:	0000f000 	andeq	pc, r0, r0
    30a6:	00142000 	andseq	r2, r4, r0
    30aa:	42ea2000 	rscmi	r2, sl, #0
    30ae:	ffd80000 			; <UNDEFINED> instruction: 0xffd80000
    30b2:	00102001 	andseq	r2, r0, r1
    30b6:	005c2000 	subseq	r2, ip, r0
    30ba:	ffff2000 			; <UNDEFINED> instruction: 0xffff2000
    30be:	00000000 	andeq	r0, r0, r0
    30c2:	00200000 	eoreq	r0, r0, r0
    30c6:	00042000 	andeq	r2, r4, r0
    30ca:	30e82000 	rsccc	r2, r8, r0

000030cc <Dictionary_791>:
    30cc:	000030e8 	andeq	r3, r0, r8, ror #1
    30d0:	61070041 	tstvs	r7, r1, asr #32
    30d4:	6e67696c 	cdpvs	9, 6, cr6, cr7, cr12, {3}
    30d8:	20016465 	andcs	r6, r1, r5, ror #8

000030da <Code_791>:
    30da:	2001      	movs	r0, #1
    30dc:	4030      	ands	r0, r6
    30de:	1836      	adds	r6, r6, r0
    30e0:	2002      	movs	r0, #2
    30e2:	4030      	ands	r0, r6
    30e4:	1836      	adds	r6, r6, r0
    30e6:	4770      	bx	lr

000030e8 <Dictionary_792>:
    30e8:	0000310c 	andeq	r3, r0, ip, lsl #2
    30ec:	61050000 	mrsvs	r0, (UNDEF: 5)
    30f0:	6e67696c 	cdpvs	9, 6, cr6, cr7, cr12, {3}

000030f4 <Code_792>:
    30f4:	b500      	push	{lr}
    30f6:	4882      	ldr	r0, [pc, #520]	; (3300 <Zweitpointertausch+0x4e>)
    30f8:	6801      	ldr	r1, [r0, #0]
    30fa:	2002      	movs	r0, #2
    30fc:	4001      	ands	r1, r0
    30fe:	d004      	beq.n	310a <Code_792+0x16>
    3100:	f847 6d04 	str.w	r6, [r7, #-4]!
    3104:	2600      	movs	r6, #0
    3106:	f000 f806 	bl	3116 <Code_795>
    310a:	bd00      	pop	{pc}

0000310c <Dictionary_795>:
    310c:	00003150 	andeq	r3, r0, r0, asr r1
    3110:	68020000 	stmdavs	r2, {}	; <UNPREDICTABLE>
    3114:	b50f002c 	strlt	r0, [pc, #-44]	; 30f0 <Dictionary_792+0x8>

00003116 <Code_795>:
    3116:	b50f      	push	{r0, r1, r2, r3, lr}
    3118:	b2b6      	uxth	r6, r6
    311a:	487a      	ldr	r0, [pc, #488]	; (3304 <Zweitpointertausch+0x52>)
    311c:	6801      	ldr	r1, [r0, #0]
    311e:	2900      	cmp	r1, #0
    3120:	d002      	beq.n	3128 <Code_795+0x12>
    3122:	3101      	adds	r1, #1
    3124:	d000      	beq.n	3128 <Code_795+0x12>
    3126:	6001      	str	r1, [r0, #0]
    3128:	4875      	ldr	r0, [pc, #468]	; (3300 <Zweitpointertausch+0x4e>)
    312a:	6801      	ldr	r1, [r0, #0]
    312c:	4a74      	ldr	r2, [pc, #464]	; (3300 <Zweitpointertausch+0x4e>)
    312e:	4291      	cmp	r1, r2
    3130:	d205      	bcs.n	313e <hkomma_ram>
    3132:	f847 6d04 	str.w	r6, [r7, #-4]!
    3136:	000e      	movs	r6, r1
    3138:	f7fe fdf6 	bl	1d28 <Code_435>
    313c:	e002      	b.n	3144 <hkomma_fertig>

0000313e <hkomma_ram>:
    313e:	0032      	movs	r2, r6
    3140:	cf40      	ldmia	r7!, {r6}
    3142:	800a      	strh	r2, [r1, #0]

00003144 <hkomma_fertig>:
    3144:	f847 6d04 	str.w	r6, [r7, #-4]!
    3148:	2602      	movs	r6, #2
    314a:	f000 f856 	bl	31fa <Code_815>
    314e:	bd0f      	pop	{r0, r1, r2, r3, pc}

00003150 <Dictionary_801>:
    3150:	0000316a 	andeq	r3, r0, sl, ror #2
    3154:	2c010000 	stccs	0, cr0, [r1], {0}

00003158 <Code_801>:
    3158:	b500      	push	{lr}
    315a:	f847 6d04 	str.w	r6, [r7, #-4]!
    315e:	f7ff ffda 	bl	3116 <Code_795>
    3162:	0c36      	lsrs	r6, r6, #16
    3164:	f7ff ffd7 	bl	3116 <Code_795>
    3168:	bd00      	pop	{pc}

0000316a <Dictionary_804>:
    316a:	00003186 	andeq	r3, r0, r6, lsl #3
    316e:	3e030000 	cdpcc	0, 0, cr0, cr3, cr0, {0}
    3172:	b5002c3c 	strlt	r2, [r0, #-3132]	; 0xc3c

00003174 <Code_804>:
    3174:	b500      	push	{lr}
    3176:	f847 6d04 	str.w	r6, [r7, #-4]!
    317a:	0c36      	lsrs	r6, r6, #16
    317c:	f7ff ffcb 	bl	3116 <Code_795>
    3180:	f7ff ffc9 	bl	3116 <Code_795>
    3184:	bd00      	pop	{pc}

00003186 <Dictionary_807>:
    3186:	000031ee 	andeq	r3, r0, lr, ror #3
    318a:	73070000 	movwvc	r0, #28672	; 0x7000
    318e:	6e697274 	mcrvs	2, 3, r7, cr9, cr4, {3}
    3192:	b5072c67 	strlt	r2, [r7, #-3175]	; 0xc67

00003194 <Code_807>:
    3194:	b507      	push	{r0, r1, r2, lr}
    3196:	21ff      	movs	r1, #255	; 0xff
    3198:	4031      	ands	r1, r6
    319a:	cf40      	ldmia	r7!, {r6}
    319c:	0030      	movs	r0, r6
    319e:	cf40      	ldmia	r7!, {r6}
    31a0:	2900      	cmp	r1, #0
    31a2:	d105      	bne.n	31b0 <Code_807+0x1c>
    31a4:	f847 6d04 	str.w	r6, [r7, #-4]!
    31a8:	2600      	movs	r6, #0
    31aa:	f7ff ffb4 	bl	3116 <Code_795>
    31ae:	bd07      	pop	{r0, r1, r2, pc}
    31b0:	f847 6d04 	str.w	r6, [r7, #-4]!
    31b4:	7806      	ldrb	r6, [r0, #0]
    31b6:	0236      	lsls	r6, r6, #8
    31b8:	430e      	orrs	r6, r1
    31ba:	f7ff ffac 	bl	3116 <Code_795>
    31be:	3001      	adds	r0, #1
    31c0:	3901      	subs	r1, #1
    31c2:	2902      	cmp	r1, #2
    31c4:	d30a      	bcc.n	31dc <Code_807+0x48>
    31c6:	f847 6d04 	str.w	r6, [r7, #-4]!
    31ca:	7846      	ldrb	r6, [r0, #1]
    31cc:	0236      	lsls	r6, r6, #8
    31ce:	7802      	ldrb	r2, [r0, #0]
    31d0:	4316      	orrs	r6, r2
    31d2:	f7ff ffa0 	bl	3116 <Code_795>
    31d6:	3002      	adds	r0, #2
    31d8:	3902      	subs	r1, #2
    31da:	e7f2      	b.n	31c2 <Code_807+0x2e>
    31dc:	2900      	cmp	r1, #0
    31de:	d100      	bne.n	31e2 <Code_807+0x4e>
    31e0:	bd07      	pop	{r0, r1, r2, pc}
    31e2:	f847 6d04 	str.w	r6, [r7, #-4]!
    31e6:	7806      	ldrb	r6, [r0, #0]
    31e8:	f7ff ff95 	bl	3116 <Code_795>
    31ec:	bd07      	pop	{r0, r1, r2, pc}

000031ee <Dictionary_815>:
    31ee:	00003248 	andeq	r3, r0, r8, asr #4
    31f2:	61050000 	mrsvs	r0, (UNDEF: 5)
    31f6:	746f6c6c 	strbtvc	r6, [pc], #-3180	; 31fe <Code_815+0x4>

000031fa <Code_815>:
    31fa:	4841      	ldr	r0, [pc, #260]	; (3300 <Zweitpointertausch+0x4e>)
    31fc:	6801      	ldr	r1, [r0, #0]
    31fe:	4a40      	ldr	r2, [pc, #256]	; (3300 <Zweitpointertausch+0x4e>)
    3200:	4291      	cmp	r1, r2
    3202:	d20f      	bcs.n	3224 <allot_ram>
    3204:	0032      	movs	r2, r6
    3206:	cf40      	ldmia	r7!, {r6}
    3208:	1889      	adds	r1, r1, r2
    320a:	4a3f      	ldr	r2, [pc, #252]	; (3308 <Zweitpointertausch+0x56>)
    320c:	4291      	cmp	r1, r2
    320e:	d319      	bcc.n	3244 <allot_ok>
    3210:	f7ff fa59 	bl	26c6 <dotgaensefuesschen>
    3214:	616c460b 	cmnvs	ip, fp, lsl #12
    3218:	66206873 			; <UNDEFINED> instruction: 0x66206873
    321c:	0a6c6c75 	beq	1b1e3f8 <BIT24+0xb1e3f8>
    3220:	f001 b9db 	b.w	45da <Code_1206>

00003224 <allot_ram>:
    3224:	0032      	movs	r2, r6
    3226:	cf40      	ldmia	r7!, {r6}
    3228:	1889      	adds	r1, r1, r2
    322a:	4a38      	ldr	r2, [pc, #224]	; (330c <Zweitpointertausch+0x5a>)
    322c:	6812      	ldr	r2, [r2, #0]
    322e:	4291      	cmp	r1, r2
    3230:	d308      	bcc.n	3244 <allot_ok>
    3232:	f7ff fa48 	bl	26c6 <dotgaensefuesschen>
    3236:	6d615209 	sfmvs	f5, 2, [r1, #-36]!	; 0xffffffdc
    323a:	6c756620 	ldclvs	6, cr6, [r5], #-128	; 0xffffff80
    323e:	f0010a6c 			; <UNDEFINED> instruction: 0xf0010a6c
    3242:	b9cb      	cbnz	r3, 3278 <Dictionary_823+0x8>

00003244 <allot_ok>:
    3244:	6001      	str	r1, [r0, #0]
    3246:	4770      	bx	lr

00003248 <Dictionary_820>:
    3248:	00003270 	andeq	r3, r0, r0, ror r2
    324c:	630d0000 	movwvs	r0, #53248	; 0xd000
    3250:	69706d6f 	ldmdbvs	r0!, {r0, r1, r2, r3, r5, r6, r8, sl, fp, sp, lr}^
    3254:	6f74656c 	svcvs	0x0074656c
    3258:	3f6d6172 	svccc	0x006d6172

0000325c <Code_820>:
    325c:	f847 6d04 	str.w	r6, [r7, #-4]!
    3260:	2600      	movs	r6, #0
    3262:	4827      	ldr	r0, [pc, #156]	; (3300 <Zweitpointertausch+0x4e>)
    3264:	6800      	ldr	r0, [r0, #0]
    3266:	4926      	ldr	r1, [pc, #152]	; (3300 <Zweitpointertausch+0x4e>)
    3268:	4288      	cmp	r0, r1
    326a:	d348      	bcc.n	32fe <Zweitpointertausch+0x4c>
    326c:	43f6      	mvns	r6, r6
    326e:	4770      	bx	lr

00003270 <Dictionary_823>:
    3270:	00003290 	muleq	r0, r0, r2
    3274:	630c0000 	movwvs	r0, #49152	; 0xc000
    3278:	69706d6f 	ldmdbvs	r0!, {r0, r1, r2, r3, r5, r6, r8, sl, fp, sp, lr}^
    327c:	6f74656c 	svcvs	0x0074656c
    3280:	006d6172 	rsbeq	r6, sp, r2, ror r1

00003284 <Code_823>:
    3284:	481e      	ldr	r0, [pc, #120]	; (3300 <Zweitpointertausch+0x4e>)
    3286:	6800      	ldr	r0, [r0, #0]
    3288:	491d      	ldr	r1, [pc, #116]	; (3300 <Zweitpointertausch+0x4e>)
    328a:	4288      	cmp	r0, r1
    328c:	d311      	bcc.n	32b2 <Zweitpointertausch>
    328e:	4770      	bx	lr

00003290 <Dictionary_824>:
    3290:	0000331c 	andeq	r3, r0, ip, lsl r3
    3294:	630e0000 	movwvs	r0, #57344	; 0xe000
    3298:	69706d6f 	ldmdbvs	r0!, {r0, r1, r2, r3, r5, r6, r8, sl, fp, sp, lr}^
    329c:	6f74656c 	svcvs	0x0074656c
    32a0:	73616c66 	cmnvc	r1, #26112	; 0x6600
    32a4:	48160068 	ldmdami	r6, {r3, r5, r6}

000032a6 <Code_824>:
    32a6:	4816      	ldr	r0, [pc, #88]	; (3300 <Zweitpointertausch+0x4e>)
    32a8:	6800      	ldr	r0, [r0, #0]
    32aa:	4915      	ldr	r1, [pc, #84]	; (3300 <Zweitpointertausch+0x4e>)
    32ac:	4288      	cmp	r0, r1
    32ae:	d200      	bcs.n	32b2 <Zweitpointertausch>
    32b0:	4770      	bx	lr

000032b2 <Zweitpointertausch>:
    32b2:	4817      	ldr	r0, [pc, #92]	; (3310 <Zweitpointertausch+0x5e>)
    32b4:	4917      	ldr	r1, [pc, #92]	; (3314 <Zweitpointertausch+0x62>)
    32b6:	6802      	ldr	r2, [r0, #0]
    32b8:	680b      	ldr	r3, [r1, #0]
    32ba:	600a      	str	r2, [r1, #0]
    32bc:	6003      	str	r3, [r0, #0]
    32be:	4810      	ldr	r0, [pc, #64]	; (3300 <Zweitpointertausch+0x4e>)
    32c0:	4915      	ldr	r1, [pc, #84]	; (3318 <Zweitpointertausch+0x66>)
    32c2:	6802      	ldr	r2, [r0, #0]
    32c4:	680b      	ldr	r3, [r1, #0]
    32c6:	600a      	str	r2, [r1, #0]
    32c8:	6003      	str	r3, [r0, #0]
    32ca:	4810      	ldr	r0, [pc, #64]	; (330c <Zweitpointertausch+0x5a>)
    32cc:	6800      	ldr	r0, [r0, #0]
    32ce:	4283      	cmp	r3, r0
    32d0:	d315      	bcc.n	32fe <Zweitpointertausch+0x4c>
    32d2:	b500      	push	{lr}
    32d4:	f7ff f9f7 	bl	26c6 <dotgaensefuesschen>
    32d8:	61562023 	cmpvs	r6, r3, lsr #32
    32dc:	62616972 	rsbvs	r6, r1, #1867776	; 0x1c8000
    32e0:	2073656c 	rsbscs	r6, r3, ip, ror #10
    32e4:	6c6c6f63 	stclvs	15, cr6, [ip], #-396	; 0xfffffe74
    32e8:	20656469 	rsbcs	r6, r5, r9, ror #8
    32ec:	68746977 	ldmdavs	r4!, {r0, r1, r2, r4, r5, r6, r8, fp, sp, lr}^
    32f0:	63696420 	cmnvs	r9, #536870912	; 0x20000000
    32f4:	6e6f6974 	mcrvs	9, 3, r6, cr15, cr4, {3}
    32f8:	0a797261 	beq	1e5fc84 <BIT24+0xe5fc84>
    32fc:	bd00      	pop	{pc}
    32fe:	4770      	bx	lr
    3300:	20000000 	andcs	r0, r0, r0
    3304:	2001ffd8 	ldrdcs	pc, [r1], -r8
    3308:	00100000 	andseq	r0, r0, r0
    330c:	20000024 	andcs	r0, r0, r4, lsr #32
    3310:	20000004 	andcs	r0, r0, r4
    3314:	2000001c 	andcs	r0, r0, ip, lsl r0
    3318:	20000018 	andcs	r0, r0, r8, lsl r0

0000331c <Dictionary_826>:
    331c:	00003406 	andeq	r3, r0, r6, lsl #8
    3320:	28080000 	stmdacs	r8, {}	; <UNPREDICTABLE>
    3324:	61657263 	cmnvs	r5, r3, ror #4
    3328:	00296574 	eoreq	r6, r9, r4, ror r5

0000332c <Code_826>:
    332c:	b500      	push	{lr}
    332e:	f000 fde3 	bl	3ef8 <Code_1079>
    3332:	2e00      	cmp	r6, #0
    3334:	d10e      	bne.n	3354 <Code_826+0x28>
    3336:	f7ff f9c6 	bl	26c6 <dotgaensefuesschen>
    333a:	72432015 	subvc	r2, r3, #21
    333e:	65746165 	ldrbvs	r6, [r4, #-357]!	; 0x165
    3342:	65656e20 	strbvs	r6, [r5, #-3616]!	; 0xe20
    3346:	6e207364 	cdpvs	3, 2, cr7, cr0, cr4, {3}
    334a:	20656d61 	rsbcs	r6, r5, r1, ror #26
    334e:	f0010a21 			; <UNDEFINED> instruction: 0xf0010a21
    3352:	b943      	cbnz	r3, 3366 <Code_826+0x3a>
    3354:	6838      	ldr	r0, [r7, #0]
    3356:	f847 6d04 	str.w	r6, [r7, #-4]!
    335a:	3f04      	subs	r7, #4
    335c:	6038      	str	r0, [r7, #0]
    335e:	f000 f99e 	bl	369e <Code_889>
    3362:	cf40      	ldmia	r7!, {r6}
    3364:	2e00      	cmp	r6, #0
    3366:	cf40      	ldmia	r7!, {r6}
    3368:	d011      	beq.n	338e <Code_826+0x62>
    336a:	6838      	ldr	r0, [r7, #0]
    336c:	f847 6d04 	str.w	r6, [r7, #-4]!
    3370:	3f04      	subs	r7, #4
    3372:	6038      	str	r0, [r7, #0]
    3374:	f7ff f9a7 	bl	26c6 <dotgaensefuesschen>
    3378:	64655209 	strbtvs	r5, [r5], #-521	; 0x209
    337c:	6e696665 	cdpvs	6, 6, cr6, cr9, cr5, {3}
    3380:	f7ff2065 			; <UNDEFINED> instruction: 0xf7ff2065
    3384:	f9fc f7ff 	ldr??.w	pc, [ip, #2047]	; 0x7ff
    3388:	f99e 2e02 	ldrsb.w	r2, [lr, #3586]	; 0xe02
    338c:	f7ff000a 			; <UNDEFINED> instruction: 0xf7ff000a
    3390:	feb1 f000 	cdp2	0, 11, cr15, cr1, cr0, {0}
    3394:	fa18 488e 			; <UNDEFINED> instruction: 0xfa18488e
    3398:	6800      	ldr	r0, [r0, #0]
    339a:	498d      	ldr	r1, [pc, #564]	; (35d0 <rambuffer_ram+0x44>)
    339c:	4288      	cmp	r0, r1
    339e:	d21c      	bcs.n	33da <create_ram>
    33a0:	488c      	ldr	r0, [pc, #560]	; (35d4 <rambuffer_ram+0x48>)
    33a2:	2100      	movs	r1, #0
    33a4:	6001      	str	r1, [r0, #0]
    33a6:	f847 6d04 	str.w	r6, [r7, #-4]!
    33aa:	2606      	movs	r6, #6
    33ac:	f7ff ff25 	bl	31fa <Code_815>
    33b0:	f7fd fdc4 	bl	f3c <Code_210>
    33b4:	f7ff feee 	bl	3194 <Code_807>
    33b8:	4887      	ldr	r0, [pc, #540]	; (35d8 <rambuffer_ram+0x4c>)
    33ba:	6801      	ldr	r1, [r0, #0]
    33bc:	680a      	ldr	r2, [r1, #0]
    33be:	4b87      	ldr	r3, [pc, #540]	; (35dc <rambuffer_ram+0x50>)
    33c0:	429a      	cmp	r2, r3
    33c2:	d107      	bne.n	33d4 <Code_826+0xa8>
    33c4:	4a82      	ldr	r2, [pc, #520]	; (35d0 <rambuffer_ram+0x44>)
    33c6:	6813      	ldr	r3, [r2, #0]
    33c8:	6011      	str	r1, [r2, #0]
    33ca:	f847 6d04 	str.w	r6, [r7, #-4]!
    33ce:	f7ff fec3 	bl	3158 <Code_801>
    33d2:	6013      	str	r3, [r2, #0]
    33d4:	6006      	str	r6, [r0, #0]
    33d6:	cf40      	ldmia	r7!, {r6}
    33d8:	e010      	b.n	33fc <create_ende>

000033da <create_ram>:
    33da:	487f      	ldr	r0, [pc, #508]	; (35d8 <rambuffer_ram+0x4c>)
    33dc:	f847 6d04 	str.w	r6, [r7, #-4]!
    33e0:	6806      	ldr	r6, [r0, #0]
    33e2:	f7ff feb9 	bl	3158 <Code_801>
    33e6:	f847 6d04 	str.w	r6, [r7, #-4]!
    33ea:	4e7d      	ldr	r6, [pc, #500]	; (35e0 <rambuffer_ram+0x54>)
    33ec:	f7ff fe93 	bl	3116 <Code_795>
    33f0:	4879      	ldr	r0, [pc, #484]	; (35d8 <rambuffer_ram+0x4c>)
    33f2:	0031      	movs	r1, r6
    33f4:	cf40      	ldmia	r7!, {r6}
    33f6:	6001      	str	r1, [r0, #0]
    33f8:	f7ff fecc 	bl	3194 <Code_807>

000033fc <create_ende>:
    33fc:	4874      	ldr	r0, [pc, #464]	; (35d0 <rambuffer_ram+0x44>)
    33fe:	6801      	ldr	r1, [r0, #0]
    3400:	4878      	ldr	r0, [pc, #480]	; (35e4 <rambuffer_ram+0x58>)
    3402:	6001      	str	r1, [r0, #0]
    3404:	bd00      	pop	{pc}

00003406 <Dictionary_844>:
    3406:	0000341e 	andeq	r3, r0, lr, lsl r4
    340a:	76080000 	strvc	r0, [r8], -r0
    340e:	61697261 	cmnvs	r9, r1, ror #4
    3412:	00656c62 	rsbeq	r6, r5, r2, ror #24

00003416 <Code_844>:
    3416:	f847 6d04 	str.w	r6, [r7, #-4]!
    341a:	2601      	movs	r6, #1
    341c:	e013      	b.n	3446 <Code_850>

0000341e <Dictionary_847>:
    341e:	00003436 	andeq	r3, r0, r6, lsr r4
    3422:	32090000 	andcc	r0, r9, #0
    3426:	69726176 	ldmdbvs	r2!, {r1, r2, r4, r5, r6, r8, sp, lr}^
    342a:	656c6261 	strbvs	r6, [ip, #-609]!	; 0x261

0000342e <Code_847>:
    342e:	f847 6d04 	str.w	r6, [r7, #-4]!
    3432:	2602      	movs	r6, #2
    3434:	e007      	b.n	3446 <Code_850>

00003436 <Dictionary_850>:
    3436:	00003510 	andeq	r3, r0, r0, lsl r5
    343a:	6e090000 	cdpvs	0, 0, cr0, cr9, cr0, {0}
    343e:	69726176 	ldmdbvs	r2!, {r1, r2, r4, r5, r6, r8, sp, lr}^
    3442:	656c6261 	strbvs	r6, [ip, #-609]!	; 0x261

00003446 <Code_850>:
    3446:	b500      	push	{lr}
    3448:	f7ff ff70 	bl	332c <Code_826>
    344c:	4860      	ldr	r0, [pc, #384]	; (35d0 <rambuffer_ram+0x44>)
    344e:	6801      	ldr	r1, [r0, #0]
    3450:	4a5f      	ldr	r2, [pc, #380]	; (35d0 <rambuffer_ram+0x44>)
    3452:	4291      	cmp	r1, r2
    3454:	d234      	bcs.n	34c0 <variable_ram>
    3456:	200f      	movs	r0, #15
    3458:	4006      	ands	r6, r0
    345a:	00b2      	lsls	r2, r6, #2
    345c:	4862      	ldr	r0, [pc, #392]	; (35e8 <rambuffer_ram+0x5c>)
    345e:	6801      	ldr	r1, [r0, #0]
    3460:	1a89      	subs	r1, r1, r2
    3462:	4a62      	ldr	r2, [pc, #392]	; (35ec <rambuffer_ram+0x60>)
    3464:	4291      	cmp	r1, r2
    3466:	d20b      	bcs.n	3480 <Code_850+0x3a>
    3468:	f7ff f92d 	bl	26c6 <dotgaensefuesschen>
    346c:	746f4e0f 	strbtvc	r4, [pc], #-3599	; 3474 <Code_850+0x2e>
    3470:	6f6e6520 	svcvs	0x006e6520
    3474:	20686775 	rsbcs	r6, r8, r5, ror r7
    3478:	0a4d4152 	beq	13539c8 <BIT24+0x3539c8>
    347c:	f001 b8ad 	b.w	45da <Code_1206>
    3480:	6001      	str	r1, [r0, #0]
    3482:	f847 6d04 	str.w	r6, [r7, #-4]!
    3486:	000e      	movs	r6, r1
    3488:	f7ff fba8 	bl	2bdc <Code_690>
    348c:	f847 6d04 	str.w	r6, [r7, #-4]!
    3490:	f244 7670 	movw	r6, #18288	; 0x4770
    3494:	f7ff fe3f 	bl	3116 <Code_795>
    3498:	0030      	movs	r0, r6
    349a:	cf40      	ldmia	r7!, {r6}
    349c:	0002      	movs	r2, r0
    349e:	2800      	cmp	r0, #0
    34a0:	d005      	beq.n	34ae <Code_850+0x68>
    34a2:	600e      	str	r6, [r1, #0]
    34a4:	3104      	adds	r1, #4
    34a6:	f7ff fe57 	bl	3158 <Code_801>
    34aa:	3801      	subs	r0, #1
    34ac:	d1f9      	bne.n	34a2 <Code_850+0x5c>
    34ae:	f847 6d04 	str.w	r6, [r7, #-4]!
    34b2:	2680      	movs	r6, #128	; 0x80
    34b4:	4316      	orrs	r6, r2
    34b6:	f7ff fdcc 	bl	3052 <Code_788>
    34ba:	f7ff fd9b 	bl	2ff4 <Code_782>
    34be:	bd00      	pop	{pc}

000034c0 <variable_ram>:
    34c0:	f000 f981 	bl	37c6 <Code_911>
    34c4:	2002      	movs	r0, #2
    34c6:	4006      	ands	r6, r0
    34c8:	cf40      	ldmia	r7!, {r6}
    34ca:	d104      	bne.n	34d6 <variable_ram+0x16>
    34cc:	f847 6d04 	str.w	r6, [r7, #-4]!
    34d0:	2636      	movs	r6, #54	; 0x36
    34d2:	f7ff fe20 	bl	3116 <Code_795>
    34d6:	f847 6d04 	str.w	r6, [r7, #-4]!
    34da:	4e45      	ldr	r6, [pc, #276]	; (35f0 <rambuffer_ram+0x64>)
    34dc:	f7ff fe4a 	bl	3174 <Code_804>
    34e0:	f847 6d04 	str.w	r6, [r7, #-4]!
    34e4:	4e43      	ldr	r6, [pc, #268]	; (35f4 <rambuffer_ram+0x68>)
    34e6:	f7ff fe45 	bl	3174 <Code_804>
    34ea:	f847 6d04 	str.w	r6, [r7, #-4]!
    34ee:	f244 7670 	movw	r6, #18288	; 0x4770
    34f2:	f7ff fe10 	bl	3116 <Code_795>
    34f6:	0030      	movs	r0, r6
    34f8:	cf40      	ldmia	r7!, {r6}
    34fa:	2800      	cmp	r0, #0
    34fc:	d003      	beq.n	3506 <variable_ram+0x46>
    34fe:	f7ff fe2b 	bl	3158 <Code_801>
    3502:	3801      	subs	r0, #1
    3504:	d1fb      	bne.n	34fe <variable_ram+0x3e>
    3506:	f7ff fce6 	bl	2ed6 <Code_753>
    350a:	f7ff fd73 	bl	2ff4 <Code_782>
    350e:	bd00      	pop	{pc}

00003510 <Dictionary_867>:
    3510:	000035f8 	strdeq	r3, [r0], -r8
    3514:	62070000 	andvs	r0, r7, #0
    3518:	65666675 	strbvs	r6, [r6, #-1653]!	; 0x675
    351c:	b5003a72 	strlt	r3, [r0, #-2674]	; 0xa72

0000351e <Code_867>:
    351e:	b500      	push	{lr}
    3520:	f7ff ff04 	bl	332c <Code_826>
    3524:	2001      	movs	r0, #1
    3526:	4030      	ands	r0, r6
    3528:	1836      	adds	r6, r6, r0
    352a:	2002      	movs	r0, #2
    352c:	4030      	ands	r0, r6
    352e:	1836      	adds	r6, r6, r0
    3530:	4827      	ldr	r0, [pc, #156]	; (35d0 <rambuffer_ram+0x44>)
    3532:	6801      	ldr	r1, [r0, #0]
    3534:	4a26      	ldr	r2, [pc, #152]	; (35d0 <rambuffer_ram+0x44>)
    3536:	4291      	cmp	r1, r2
    3538:	d228      	bcs.n	358c <rambuffer_ram>
    353a:	482b      	ldr	r0, [pc, #172]	; (35e8 <rambuffer_ram+0x5c>)
    353c:	6801      	ldr	r1, [r0, #0]
    353e:	1b89      	subs	r1, r1, r6
    3540:	4a2a      	ldr	r2, [pc, #168]	; (35ec <rambuffer_ram+0x60>)
    3542:	4291      	cmp	r1, r2
    3544:	d20b      	bcs.n	355e <Code_867+0x40>
    3546:	f7ff f8be 	bl	26c6 <dotgaensefuesschen>
    354a:	746f4e0f 	strbtvc	r4, [pc], #-3599	; 3552 <Code_867+0x34>
    354e:	6f6e6520 	svcvs	0x006e6520
    3552:	20686775 	rsbcs	r6, r8, r5, ror r7
    3556:	0a4d4152 	beq	1353aa6 <BIT24+0x353aa6>
    355a:	f001 b83e 	b.w	45da <Code_1206>
    355e:	6001      	str	r1, [r0, #0]
    3560:	f847 6d04 	str.w	r6, [r7, #-4]!
    3564:	000e      	movs	r6, r1
    3566:	f7ff fb39 	bl	2bdc <Code_690>
    356a:	f847 6d04 	str.w	r6, [r7, #-4]!
    356e:	f244 7670 	movw	r6, #18288	; 0x4770
    3572:	f7ff fdd0 	bl	3116 <Code_795>
    3576:	f7ff fdef 	bl	3158 <Code_801>
    357a:	f847 6d04 	str.w	r6, [r7, #-4]!
    357e:	f240 1640 	movw	r6, #320	; 0x140
    3582:	f7ff fd66 	bl	3052 <Code_788>
    3586:	f7ff fd35 	bl	2ff4 <Code_782>
    358a:	bd00      	pop	{pc}

0000358c <rambuffer_ram>:
    358c:	f000 f91b 	bl	37c6 <Code_911>
    3590:	2002      	movs	r0, #2
    3592:	4006      	ands	r6, r0
    3594:	cf40      	ldmia	r7!, {r6}
    3596:	d104      	bne.n	35a2 <rambuffer_ram+0x16>
    3598:	f847 6d04 	str.w	r6, [r7, #-4]!
    359c:	2636      	movs	r6, #54	; 0x36
    359e:	f7ff fdba 	bl	3116 <Code_795>
    35a2:	f847 6d04 	str.w	r6, [r7, #-4]!
    35a6:	4e12      	ldr	r6, [pc, #72]	; (35f0 <rambuffer_ram+0x64>)
    35a8:	f7ff fde4 	bl	3174 <Code_804>
    35ac:	f847 6d04 	str.w	r6, [r7, #-4]!
    35b0:	4e10      	ldr	r6, [pc, #64]	; (35f4 <rambuffer_ram+0x68>)
    35b2:	f7ff fddf 	bl	3174 <Code_804>
    35b6:	f847 6d04 	str.w	r6, [r7, #-4]!
    35ba:	f244 7670 	movw	r6, #18288	; 0x4770
    35be:	f7ff fdaa 	bl	3116 <Code_795>
    35c2:	f7ff fe1a 	bl	31fa <Code_815>
    35c6:	f7ff fc86 	bl	2ed6 <Code_753>
    35ca:	f7ff fd13 	bl	2ff4 <Code_782>
    35ce:	bd00      	pop	{pc}
    35d0:	20000000 	andcs	r0, r0, r0
    35d4:	20000020 	andcs	r0, r0, r0, lsr #32
    35d8:	20000004 	andcs	r0, r0, r4
    35dc:	ffffffff 			; <UNDEFINED> instruction: 0xffffffff
    35e0:	0000ffff 	strdeq	pc, [r0], -pc	; <UNPREDICTABLE>
    35e4:	20000014 	andcs	r0, r0, r4, lsl r0
    35e8:	20000024 	andcs	r0, r0, r4, lsr #32
    35ec:	2000038c 	andcs	r0, r0, ip, lsl #7
    35f0:	3f04603e 	svccc	0x0004603e
    35f4:	467e3602 	ldrbtmi	r3, [lr], -r2, lsl #12

000035f8 <Dictionary_882>:
    35f8:	00003626 	andeq	r3, r0, r6, lsr #12
    35fc:	640f0000 	strvs	r0, [pc], #0	; 3604 <Dictionary_882+0xc>
    3600:	69746369 	ldmdbvs	r4!, {r0, r3, r5, r6, r8, r9, sp, lr}^
    3604:	72616e6f 	rsbvc	r6, r1, #1776	; 0x6f0
    3608:	61747379 	cmnvs	r4, r9, ror r3
    360c:	48417472 	stmdami	r1, {r1, r4, r5, r6, sl, ip, sp, lr}^

0000360e <Code_882>:
    360e:	4841      	ldr	r0, [pc, #260]	; (3714 <find_not_found+0x18>)
    3610:	6800      	ldr	r0, [r0, #0]
    3612:	4940      	ldr	r1, [pc, #256]	; (3714 <find_not_found+0x18>)
    3614:	f847 6d04 	str.w	r6, [r7, #-4]!
    3618:	4288      	cmp	r0, r1
    361a:	d201      	bcs.n	3620 <Code_882+0x12>
    361c:	4e3e      	ldr	r6, [pc, #248]	; (3718 <find_not_found+0x1c>)
    361e:	4770      	bx	lr
    3620:	4e3e      	ldr	r6, [pc, #248]	; (371c <find_not_found+0x20>)
    3622:	6836      	ldr	r6, [r6, #0]
    3624:	4770      	bx	lr

00003626 <Dictionary_884>:
    3626:	00003660 	andeq	r3, r0, r0, ror #12
    362a:	640e0000 	strvs	r0, [lr]
    362e:	69746369 	ldmdbvs	r4!, {r0, r3, r5, r6, r8, r9, sp, lr}^
    3632:	72616e6f 	rsbvc	r6, r1, #1776	; 0x6f0
    3636:	78656e79 	stmdavc	r5!, {r0, r3, r4, r5, r6, r9, sl, fp, sp, lr}^
    363a:	b5030074 	strlt	r0, [r3, #-116]	; 0x74

0000363c <Code_884>:
    363c:	b503      	push	{r0, r1, lr}
    363e:	6831      	ldr	r1, [r6, #0]
    3640:	4837      	ldr	r0, [pc, #220]	; (3720 <find_not_found+0x24>)
    3642:	4281      	cmp	r1, r0
    3644:	d007      	beq.n	3656 <Code_884+0x1a>
    3646:	7988      	ldrb	r0, [r1, #6]
    3648:	28ff      	cmp	r0, #255	; 0xff
    364a:	d004      	beq.n	3656 <Code_884+0x1a>
    364c:	000e      	movs	r6, r1
    364e:	f847 6d04 	str.w	r6, [r7, #-4]!
    3652:	2600      	movs	r6, #0
    3654:	bd03      	pop	{r0, r1, pc}
    3656:	f847 6d04 	str.w	r6, [r7, #-4]!
    365a:	2600      	movs	r6, #0
    365c:	43f6      	mvns	r6, r6
    365e:	bd03      	pop	{r0, r1, pc}

00003660 <Dictionary_888>:
    3660:	00003692 	muleq	r0, r2, r6
    3664:	730a0000 	movwvc	r0, #40960	; 0xa000
    3668:	7370696b 	cmnvc	r0, #1753088	; 0x1ac000
    366c:	6e697274 	mcrvs	2, 3, r7, cr9, cr4, {3}
    3670:	78310067 	ldmdavc	r1!, {r0, r1, r2, r5, r6}

00003672 <Code_888>:
    3672:	7831      	ldrb	r1, [r6, #0]
    3674:	3101      	adds	r1, #1
    3676:	2201      	movs	r2, #1
    3678:	400a      	ands	r2, r1
    367a:	1889      	adds	r1, r1, r2
    367c:	1876      	adds	r6, r6, r1
    367e:	4770      	bx	lr

00003680 <skipstring>:
    3680:	b406      	push	{r1, r2}
    3682:	7801      	ldrb	r1, [r0, #0]
    3684:	3101      	adds	r1, #1
    3686:	2201      	movs	r2, #1
    3688:	400a      	ands	r2, r1
    368a:	1889      	adds	r1, r1, r2
    368c:	1840      	adds	r0, r0, r1
    368e:	bc06      	pop	{r1, r2}
    3690:	4770      	bx	lr

00003692 <Dictionary_889>:
    3692:	00003728 	andeq	r3, r0, r8, lsr #14
    3696:	66040000 	strvs	r0, [r4], -r0
    369a:	00646e69 	rsbeq	r6, r4, r9, ror #28

0000369e <Code_889>:
    369e:	b53f      	push	{r0, r1, r2, r3, r4, r5, lr}
    36a0:	2200      	movs	r2, #0
    36a2:	2300      	movs	r3, #0
    36a4:	0035      	movs	r5, r6
    36a6:	cf40      	ldmia	r7!, {r6}
    36a8:	0034      	movs	r4, r6
    36aa:	cf40      	ldmia	r7!, {r6}
    36ac:	f7ff ffaf 	bl	360e <Code_882>
    36b0:	481c      	ldr	r0, [pc, #112]	; (3724 <find_not_found+0x28>)
    36b2:	88b1      	ldrh	r1, [r6, #4]
    36b4:	4288      	cmp	r0, r1
    36b6:	d017      	beq.n	36e8 <Code_889+0x4a>
    36b8:	f847 6d04 	str.w	r6, [r7, #-4]!
    36bc:	3606      	adds	r6, #6
    36be:	f7ff f83e 	bl	273e <Code_617>
    36c2:	f847 6d04 	str.w	r6, [r7, #-4]!
    36c6:	0026      	movs	r6, r4
    36c8:	f847 6d04 	str.w	r6, [r7, #-4]!
    36cc:	002e      	movs	r6, r5
    36ce:	f7fe ff70 	bl	25b2 <Code_579>
    36d2:	2e00      	cmp	r6, #0
    36d4:	cf40      	ldmia	r7!, {r6}
    36d6:	d007      	beq.n	36e8 <Code_889+0x4a>
    36d8:	1db0      	adds	r0, r6, #6
    36da:	f7ff ffd1 	bl	3680 <skipstring>
    36de:	0002      	movs	r2, r0
    36e0:	000b      	movs	r3, r1
    36e2:	480c      	ldr	r0, [pc, #48]	; (3714 <find_not_found+0x18>)
    36e4:	4282      	cmp	r2, r0
    36e6:	d204      	bcs.n	36f2 <Code_889+0x54>
    36e8:	f7ff ffa8 	bl	363c <Code_884>
    36ec:	0030      	movs	r0, r6
    36ee:	cf40      	ldmia	r7!, {r6}
    36f0:	d0de      	beq.n	36b0 <Code_889+0x12>
    36f2:	0016      	movs	r6, r2
    36f4:	f847 6d04 	str.w	r6, [r7, #-4]!
    36f8:	001e      	movs	r6, r3
    36fa:	bd3f      	pop	{r0, r1, r2, r3, r4, r5, pc}

000036fc <find_not_found>:
    36fc:	b500      	push	{lr}
    36fe:	0031      	movs	r1, r6
    3700:	6838      	ldr	r0, [r7, #0]
    3702:	f7ff ffcc 	bl	369e <Code_889>
    3706:	683a      	ldr	r2, [r7, #0]
    3708:	2a00      	cmp	r2, #0
    370a:	d101      	bne.n	3710 <find_not_found+0x14>
    370c:	f000 ff19 	bl	4542 <not_found_addr_r0_len_r1>
    3710:	bd00      	pop	{pc}
    3712:	00000000 	andeq	r0, r0, r0
    3716:	00b82000 	adcseq	r2, r8, r0
    371a:	00040000 	andeq	r0, r4, r0
    371e:	ffff2000 			; <UNDEFINED> instruction: 0xffff2000
    3722:	ffffffff 			; <UNDEFINED> instruction: 0xffffffff
	...

00003728 <Dictionary_902>:
    3728:	00003782 	andeq	r3, r0, r2, lsl #15
    372c:	63060000 	movwvs	r0, #24576	; 0x6000
    3730:	706d756a 	rsbvc	r7, sp, sl, ror #10
    3734:	0032002c 	eorseq	r0, r2, ip, lsr #32

00003736 <Code_902>:
    3736:	0032      	movs	r2, r6
    3738:	cf40      	ldmia	r7!, {r6}
    373a:	0031      	movs	r1, r6
    373c:	cf40      	ldmia	r7!, {r6}
    373e:	1b8b      	subs	r3, r1, r6
    3740:	3b04      	subs	r3, #4
    3742:	49e7      	ldr	r1, [pc, #924]	; (3ae0 <Code_981+0xe>)
    3744:	4019      	ands	r1, r3
    3746:	2900      	cmp	r1, #0
    3748:	d00d      	beq.n	3766 <jump_too_far+0x16>
    374a:	48e6      	ldr	r0, [pc, #920]	; (3ae4 <Code_981+0x12>)
    374c:	4281      	cmp	r1, r0
    374e:	d00a      	beq.n	3766 <jump_too_far+0x16>

00003750 <jump_too_far>:
    3750:	f7fe ffb9 	bl	26c6 <dotgaensefuesschen>
    3754:	6d754a0d 	vldmdbvs	r5!, {s9-s21}
    3758:	6f742070 	svcvs	0x00742070
    375c:	6166206f 	cmnvs	r6, pc, rrx
    3760:	f0000a72 			; <UNDEFINED> instruction: 0xf0000a72
    3764:	bf3a      	itte	cc
    3766:	105b      	asrcc	r3, r3, #1
    3768:	21ff      	movcc	r1, #255	; 0xff
    376a:	400b      	andcs	r3, r1
    376c:	4313      	orrs	r3, r2
    376e:	0030      	movs	r0, r6
    3770:	001e      	movs	r6, r3

00003772 <sprungbefehl_einfuegen>:
    3772:	b500      	push	{lr}
    3774:	4adc      	ldr	r2, [pc, #880]	; (3ae8 <Code_981+0x16>)
    3776:	6813      	ldr	r3, [r2, #0]
    3778:	6010      	str	r0, [r2, #0]
    377a:	f7ff fccc 	bl	3116 <Code_795>
    377e:	6013      	str	r3, [r2, #0]
    3780:	bd00      	pop	{pc}

00003782 <Dictionary_906>:
    3782:	000037ba 			; <UNDEFINED> instruction: 0x000037ba
    3786:	6a050000 	bvs	14378e <BIT20+0x4378e>
    378a:	2c706d75 	ldclcs	13, cr6, [r0], #-468	; 0xfffffe2c

0000378e <Code_906>:
    378e:	0031      	movs	r1, r6
    3790:	cf40      	ldmia	r7!, {r6}
    3792:	0030      	movs	r0, r6
    3794:	cf40      	ldmia	r7!, {r6}
    3796:	1a0b      	subs	r3, r1, r0
    3798:	3b04      	subs	r3, #4
    379a:	49d4      	ldr	r1, [pc, #848]	; (3aec <Code_981+0x1a>)
    379c:	4019      	ands	r1, r3
    379e:	2900      	cmp	r1, #0
    37a0:	d002      	beq.n	37a8 <Code_906+0x1a>
    37a2:	4ad3      	ldr	r2, [pc, #844]	; (3af0 <Code_981+0x1e>)
    37a4:	4291      	cmp	r1, r2
    37a6:	d1d3      	bne.n	3750 <jump_too_far>
    37a8:	105b      	asrs	r3, r3, #1
    37aa:	4ad2      	ldr	r2, [pc, #840]	; (3af4 <Code_981+0x22>)
    37ac:	4013      	ands	r3, r2
    37ae:	f453 4360 	orrs.w	r3, r3, #57344	; 0xe000
    37b2:	f847 6d04 	str.w	r6, [r7, #-4]!
    37b6:	001e      	movs	r6, r3
    37b8:	e7db      	b.n	3772 <sprungbefehl_einfuegen>

000037ba <Dictionary_911>:
    37ba:	000037d0 	ldrdeq	r3, [r0], -r0
    37be:	68040000 	stmdavs	r4, {}	; <UNPREDICTABLE>
    37c2:	00657265 	rsbeq	r7, r5, r5, ror #4

000037c6 <Code_911>:
    37c6:	f847 6d04 	str.w	r6, [r7, #-4]!
    37ca:	4ec7      	ldr	r6, [pc, #796]	; (3ae8 <Code_981+0x16>)
    37cc:	6836      	ldr	r6, [r6, #0]
    37ce:	4770      	bx	lr

000037d0 <Dictionary_913>:
    37d0:	00003906 	andeq	r3, r0, r6, lsl #18
    37d4:	660d0000 	strvs	r0, [sp], -r0
    37d8:	6873616c 	ldmdavs	r3!, {r2, r3, r5, r6, r8, sp, lr}^
    37dc:	2d726176 	ldfcse	f6, [r2, #-472]!	; 0xfffffe28
    37e0:	65726568 	ldrbvs	r6, [r2, #-1384]!	; 0x568

000037e4 <Code_913>:
    37e4:	f847 6d04 	str.w	r6, [r7, #-4]!
    37e8:	4ec3      	ldr	r6, [pc, #780]	; (3af8 <Code_981+0x26>)
    37ea:	6836      	ldr	r6, [r6, #0]
    37ec:	4770      	bx	lr

000037ee <nullprobekomma>:
    37ee:	b500      	push	{lr}
    37f0:	f847 6d04 	str.w	r6, [r7, #-4]!
    37f4:	f642 6600 	movw	r6, #11776	; 0x2e00
    37f8:	f7ff fc8d 	bl	3116 <Code_795>
    37fc:	f847 6d04 	str.w	r6, [r7, #-4]!
    3800:	f64c 7640 	movw	r6, #53056	; 0xcf40
    3804:	f7ff fc87 	bl	3116 <Code_795>
    3808:	bd00      	pop	{pc}

0000380a <branch_r>:
    380a:	e7dc      	b.n	37c6 <Code_911>

0000380c <r_branch_jne>:
    380c:	b500      	push	{lr}
    380e:	f000 f83a 	bl	3886 <branch_v>
    3812:	6839      	ldr	r1, [r7, #0]
    3814:	603e      	str	r6, [r7, #0]
    3816:	460e      	mov	r6, r1
    3818:	f847 6d04 	str.w	r6, [r7, #-4]!
    381c:	f24d 1600 	movw	r6, #53504	; 0xd100
    3820:	f7ff ff89 	bl	3736 <Code_902>
    3824:	bd00      	pop	{pc}

00003826 <r_branch_jvc>:
    3826:	b500      	push	{lr}
    3828:	f000 f82d 	bl	3886 <branch_v>
    382c:	6839      	ldr	r1, [r7, #0]
    382e:	603e      	str	r6, [r7, #0]
    3830:	460e      	mov	r6, r1
    3832:	f847 6d04 	str.w	r6, [r7, #-4]!
    3836:	f24d 7600 	movw	r6, #55040	; 0xd700
    383a:	f7ff ff7c 	bl	3736 <Code_902>
    383e:	bd00      	pop	{pc}

00003840 <r_nullbranch>:
    3840:	b500      	push	{lr}
    3842:	f7ff ffd4 	bl	37ee <nullprobekomma>
    3846:	f000 f81e 	bl	3886 <branch_v>
    384a:	6839      	ldr	r1, [r7, #0]
    384c:	603e      	str	r6, [r7, #0]
    384e:	460e      	mov	r6, r1
    3850:	f847 6d04 	str.w	r6, [r7, #-4]!
    3854:	f24d 0600 	movw	r6, #53248	; 0xd000
    3858:	f7ff ff6d 	bl	3736 <Code_902>
    385c:	bd00      	pop	{pc}

0000385e <r_branch>:
    385e:	b500      	push	{lr}
    3860:	f000 f811 	bl	3886 <branch_v>
    3864:	6839      	ldr	r1, [r7, #0]
    3866:	603e      	str	r6, [r7, #0]
    3868:	460e      	mov	r6, r1
    386a:	f7ff ff90 	bl	378e <Code_906>
    386e:	bd00      	pop	{pc}

00003870 <nullbranch_v>:
    3870:	b500      	push	{lr}
    3872:	f7ff ffbc 	bl	37ee <nullprobekomma>
    3876:	f7ff ffa6 	bl	37c6 <Code_911>
    387a:	f847 6d04 	str.w	r6, [r7, #-4]!
    387e:	2602      	movs	r6, #2
    3880:	f7ff fcbb 	bl	31fa <Code_815>
    3884:	bd00      	pop	{pc}

00003886 <branch_v>:
    3886:	b500      	push	{lr}
    3888:	f7ff ff9d 	bl	37c6 <Code_911>
    388c:	f847 6d04 	str.w	r6, [r7, #-4]!
    3890:	2602      	movs	r6, #2
    3892:	f7ff fcb2 	bl	31fa <Code_815>
    3896:	bd00      	pop	{pc}

00003898 <v_branch>:
    3898:	b500      	push	{lr}
    389a:	f7ff ff94 	bl	37c6 <Code_911>
    389e:	f7ff ff76 	bl	378e <Code_906>
    38a2:	bd00      	pop	{pc}

000038a4 <v_nullbranch>:
    38a4:	b500      	push	{lr}
    38a6:	f7ff ff8e 	bl	37c6 <Code_911>
    38aa:	f847 6d04 	str.w	r6, [r7, #-4]!
    38ae:	f24d 0600 	movw	r6, #53248	; 0xd000
    38b2:	f7ff ff40 	bl	3736 <Code_902>
    38b6:	bd00      	pop	{pc}

000038b8 <v_casebranch>:
    38b8:	b500      	push	{lr}
    38ba:	f7ff ff84 	bl	37c6 <Code_911>
    38be:	f847 6d04 	str.w	r6, [r7, #-4]!
    38c2:	f24d 1600 	movw	r6, #53504	; 0xd100
    38c6:	f7ff ff36 	bl	3736 <Code_902>
    38ca:	bd00      	pop	{pc}

000038cc <allocator_nullsprungprobe>:
    38cc:	b500      	push	{lr}
    38ce:	f7fc fd6d 	bl	3ac <expect_one_element>
    38d2:	f7fc fca1 	bl	218 <tidyup_register_allocator_5os>
    38d6:	f7fc fca4 	bl	222 <tidyup_register_allocator_4os>
    38da:	f7fc fca7 	bl	22c <tidyup_register_allocator_3os>
    38de:	6881      	ldr	r1, [r0, #8]
    38e0:	2928      	cmp	r1, #40	; 0x28
    38e2:	d101      	bne.n	38e8 <allocator_nullsprungprobe+0x1c>
    38e4:	f7fc fda8 	bl	438 <expect_nos_in_register>
    38e8:	f7fc fd9c 	bl	424 <expect_tos_in_register>
    38ec:	f847 6d04 	str.w	r6, [r7, #-4]!
    38f0:	f642 0600 	movw	r6, #10240	; 0x2800
    38f4:	0209      	lsls	r1, r1, #8
    38f6:	430e      	orrs	r6, r1
    38f8:	f7ff fc0d 	bl	3116 <Code_795>
    38fc:	f7fc fc55 	bl	1aa <eliminiere_tos>
    3900:	f7fc fc7e 	bl	200 <tidyup_register_allocator>
    3904:	bd00      	pop	{pc}

00003906 <Dictionary_939>:
    3906:	0000397a 	andeq	r3, r0, sl, ror r9
    390a:	69020630 	stmdbvs	r2, {r4, r5, r9, sl}
    390e:	b5000066 	strlt	r0, [r0, #-102]	; 0x66

00003910 <Code_939>:
    3910:	b500      	push	{lr}
    3912:	f7ff ffad 	bl	3870 <nullbranch_v>
    3916:	f847 6d04 	str.w	r6, [r7, #-4]!
    391a:	f24d 0600 	movw	r6, #53248	; 0xd000
    391e:	f847 6d04 	str.w	r6, [r7, #-4]!
    3922:	2602      	movs	r6, #2
    3924:	bd00      	pop	{pc}

00003926 <struktur_if_allokator>:
    3926:	b500      	push	{lr}
    3928:	f7fc fdd3 	bl	4d2 <push_lr_nachholen>
    392c:	f7fd fe9e 	bl	166c <eliminiere_tos_wenn_bmi>
    3930:	6a81      	ldr	r1, [r0, #40]	; 0x28
    3932:	2900      	cmp	r1, #0
    3934:	d010      	beq.n	3958 <struktur_if_allokator+0x32>
    3936:	b402      	push	{r1}
    3938:	f7fc fc62 	bl	200 <tidyup_register_allocator>
    393c:	f7ff ff43 	bl	37c6 <Code_911>
    3940:	f847 6d04 	str.w	r6, [r7, #-4]!
    3944:	2602      	movs	r6, #2
    3946:	f7ff fc58 	bl	31fa <Code_815>
    394a:	f847 6d04 	str.w	r6, [r7, #-4]!
    394e:	bc40      	pop	{r6}
    3950:	f847 6d04 	str.w	r6, [r7, #-4]!
    3954:	2602      	movs	r6, #2
    3956:	bd00      	pop	{pc}
    3958:	f7ff ffb8 	bl	38cc <allocator_nullsprungprobe>
    395c:	f7ff ff33 	bl	37c6 <Code_911>
    3960:	f847 6d04 	str.w	r6, [r7, #-4]!
    3964:	2602      	movs	r6, #2
    3966:	f7ff fc48 	bl	31fa <Code_815>
    396a:	f847 6d04 	str.w	r6, [r7, #-4]!
    396e:	f24d 0600 	movw	r6, #53248	; 0xd000
    3972:	f847 6d04 	str.w	r6, [r7, #-4]!
    3976:	2602      	movs	r6, #2
    3978:	bd00      	pop	{pc}

0000397a <Dictionary_955>:
    397a:	000039ac 	andeq	r3, r0, ip, lsr #19
    397e:	65040030 	strvs	r0, [r4, #-48]	; 0x30
    3982:	0065736c 	rsbeq	r7, r5, ip, ror #6

00003986 <Code_955>:
    3986:	b500      	push	{lr}
    3988:	2e02      	cmp	r6, #2
    398a:	d125      	bne.n	39d8 <strukturen_passen_nicht>
    398c:	cf40      	ldmia	r7!, {r6}
    398e:	f7ff ff7a 	bl	3886 <branch_v>
    3992:	f7fd fad3 	bl	f3c <Code_210>
    3996:	f7ff ff16 	bl	37c6 <Code_911>
    399a:	6839      	ldr	r1, [r7, #0]
    399c:	603e      	str	r6, [r7, #0]
    399e:	460e      	mov	r6, r1
    39a0:	f7ff fec9 	bl	3736 <Code_902>
    39a4:	f847 6d04 	str.w	r6, [r7, #-4]!
    39a8:	2605      	movs	r6, #5
    39aa:	bd00      	pop	{pc}

000039ac <Dictionary_960>:
    39ac:	000039f8 	strdeq	r3, [r0], -r8
    39b0:	74040030 	strvc	r0, [r4], #-48	; 0x30
    39b4:	006e6568 	rsbeq	r6, lr, r8, ror #10

000039b8 <Code_960>:
    39b8:	2e05      	cmp	r6, #5
    39ba:	d101      	bne.n	39c0 <Code_960+0x8>
    39bc:	cf40      	ldmia	r7!, {r6}
    39be:	e76b      	b.n	3898 <v_branch>
    39c0:	2e02      	cmp	r6, #2
    39c2:	d109      	bne.n	39d8 <strukturen_passen_nicht>
    39c4:	cf40      	ldmia	r7!, {r6}
    39c6:	b500      	push	{lr}
    39c8:	f7ff fefd 	bl	37c6 <Code_911>
    39cc:	6839      	ldr	r1, [r7, #0]
    39ce:	603e      	str	r6, [r7, #0]
    39d0:	460e      	mov	r6, r1
    39d2:	f7ff feb0 	bl	3736 <Code_902>
    39d6:	bd00      	pop	{pc}

000039d8 <strukturen_passen_nicht>:
    39d8:	f7fe fe75 	bl	26c6 <dotgaensefuesschen>
    39dc:	72745317 	rsbsvc	r5, r4, #1543503872	; 0x5c000000
    39e0:	75746375 	ldrbvc	r6, [r4, #-885]!	; 0x375
    39e4:	20736572 	rsbscs	r6, r3, r2, ror r5
    39e8:	276e6f64 	strbcs	r6, [lr, -r4, ror #30]!
    39ec:	616d2074 	smcvs	53764	; 0xd204
    39f0:	0a686374 	beq	1a1c7c8 <BIT24+0xa1c7c8>
    39f4:	f000 bdf1 	b.w	45da <Code_1206>

000039f8 <Dictionary_965>:
    39f8:	00003a26 	andeq	r3, r0, r6, lsr #20
    39fc:	72060030 	andvc	r0, r6, #48	; 0x30
    3a00:	61657065 	cmnvs	r5, r5, rrx
    3a04:	2e040074 	mcrcs	0, 0, r0, cr4, cr4, {3}

00003a06 <Code_965>:
    3a06:	2e04      	cmp	r6, #4
    3a08:	d1e6      	bne.n	39d8 <strukturen_passen_nicht>
    3a0a:	cf40      	ldmia	r7!, {r6}
    3a0c:	b500      	push	{lr}
    3a0e:	f7fd fa79 	bl	f04 <Code_209>
    3a12:	f7ff ff24 	bl	385e <r_branch>
    3a16:	f7ff fed6 	bl	37c6 <Code_911>
    3a1a:	6839      	ldr	r1, [r7, #0]
    3a1c:	603e      	str	r6, [r7, #0]
    3a1e:	460e      	mov	r6, r1
    3a20:	f7ff fe89 	bl	3736 <Code_902>
    3a24:	bd00      	pop	{pc}

00003a26 <Dictionary_968>:
    3a26:	00003a52 	andeq	r3, r0, r2, asr sl
    3a2a:	77050630 	smladxvc	r5, r0, r6, r0
    3a2e:	656c6968 	strbvs	r6, [ip, #-2408]!	; 0x968

00003a32 <Code_968>:
    3a32:	2e01      	cmp	r6, #1
    3a34:	d1d0      	bne.n	39d8 <strukturen_passen_nicht>
    3a36:	cf40      	ldmia	r7!, {r6}
    3a38:	b500      	push	{lr}
    3a3a:	f7ff ff69 	bl	3910 <Code_939>
    3a3e:	3602      	adds	r6, #2
    3a40:	bd00      	pop	{pc}
    3a42:	2e01      	cmp	r6, #1
    3a44:	d1c8      	bne.n	39d8 <strukturen_passen_nicht>
    3a46:	cf40      	ldmia	r7!, {r6}
    3a48:	b500      	push	{lr}
    3a4a:	f7ff ff6c 	bl	3926 <struktur_if_allokator>
    3a4e:	3602      	adds	r6, #2
    3a50:	bd00      	pop	{pc}

00003a52 <Dictionary_971>:
    3a52:	00003ab2 			; <UNDEFINED> instruction: 0x00003ab2
    3a56:	75050630 	strvc	r0, [r5, #-1584]	; 0x630
    3a5a:	6c69746e 	cfstrdvs	mvd7, [r9], #-440	; 0xfffffe48

00003a5e <Code_971>:
    3a5e:	2e01      	cmp	r6, #1
    3a60:	d1ba      	bne.n	39d8 <strukturen_passen_nicht>
    3a62:	cf40      	ldmia	r7!, {r6}
    3a64:	e6ec      	b.n	3840 <r_nullbranch>
    3a66:	4770      	bx	lr
    3a68:	2e01      	cmp	r6, #1
    3a6a:	d1b5      	bne.n	39d8 <strukturen_passen_nicht>
    3a6c:	cf40      	ldmia	r7!, {r6}
    3a6e:	b500      	push	{lr}
    3a70:	f7fd fdfc 	bl	166c <eliminiere_tos_wenn_bmi>
    3a74:	6a81      	ldr	r1, [r0, #40]	; 0x28
    3a76:	2900      	cmp	r1, #0
    3a78:	d00d      	beq.n	3a96 <Code_971+0x38>
    3a7a:	b402      	push	{r1}
    3a7c:	f7fc fbc0 	bl	200 <tidyup_register_allocator>
    3a80:	f7ff ff01 	bl	3886 <branch_v>
    3a84:	6839      	ldr	r1, [r7, #0]
    3a86:	603e      	str	r6, [r7, #0]
    3a88:	460e      	mov	r6, r1
    3a8a:	f847 6d04 	str.w	r6, [r7, #-4]!
    3a8e:	bc40      	pop	{r6}
    3a90:	f7ff fe51 	bl	3736 <Code_902>
    3a94:	bd00      	pop	{pc}
    3a96:	f7ff ff19 	bl	38cc <allocator_nullsprungprobe>
    3a9a:	f7ff fef4 	bl	3886 <branch_v>
    3a9e:	6839      	ldr	r1, [r7, #0]
    3aa0:	603e      	str	r6, [r7, #0]
    3aa2:	460e      	mov	r6, r1
    3aa4:	f847 6d04 	str.w	r6, [r7, #-4]!
    3aa8:	f24d 0600 	movw	r6, #53248	; 0xd000
    3aac:	f7ff fe43 	bl	3736 <Code_902>
    3ab0:	bd00      	pop	{pc}

00003ab2 <Dictionary_979>:
    3ab2:	00003ac6 	andeq	r3, r0, r6, asr #21
    3ab6:	61050030 	tstvs	r5, r0, lsr r0
    3aba:	6e696167 	powvsez	f6, f1, f7

00003abe <Code_979>:
    3abe:	2e01      	cmp	r6, #1
    3ac0:	d18a      	bne.n	39d8 <strukturen_passen_nicht>
    3ac2:	cf40      	ldmia	r7!, {r6}
    3ac4:	e6cb      	b.n	385e <r_branch>

00003ac6 <Dictionary_981>:
    3ac6:	00003afc 	strdeq	r3, [r0], -ip
    3aca:	62050030 	andvs	r0, r5, #48	; 0x30
    3ace:	6e696765 	cdpvs	7, 6, cr6, cr9, cr5, {3}

00003ad2 <Code_981>:
    3ad2:	b500      	push	{lr}
    3ad4:	f7ff fe99 	bl	380a <branch_r>
    3ad8:	f847 6d04 	str.w	r6, [r7, #-4]!
    3adc:	2601      	movs	r6, #1
    3ade:	bd00      	pop	{pc}
    3ae0:	ffffff01 			; <UNDEFINED> instruction: 0xffffff01
    3ae4:	ffffff00 			; <UNDEFINED> instruction: 0xffffff00
    3ae8:	20000000 	andcs	r0, r0, r0
    3aec:	fffff801 			; <UNDEFINED> instruction: 0xfffff801
    3af0:	fffff800 			; <UNDEFINED> instruction: 0xfffff800
    3af4:	000007ff 	strdeq	r0, [r0], -pc	; <UNPREDICTABLE>
    3af8:	20000024 	andcs	r0, r0, r4, lsr #32

00003afc <Dictionary_984>:
    3afc:	00003b16 	andeq	r3, r0, r6, lsl fp
    3b00:	6b010220 	blvs	44388 <BIT18+0x4388>

00003b04 <Code_984>:
    3b04:	f847 6d04 	str.w	r6, [r7, #-4]!
    3b08:	9e02      	ldr	r6, [sp, #8]
    3b0a:	4770      	bx	lr
    3b0c:	f847 6d04 	str.w	r6, [r7, #-4]!
    3b10:	f649 0602 	movw	r6, #38914	; 0x9802
    3b14:	e00b      	b.n	3b2e <loop_j_allocator>

00003b16 <Dictionary_988>:
    3b16:	00003b44 	andeq	r3, r0, r4, asr #22
    3b1a:	6a010220 	bvs	443a2 <BIT18+0x43a2>

00003b1e <Code_988>:
    3b1e:	f847 6d04 	str.w	r6, [r7, #-4]!
    3b22:	9e00      	ldr	r6, [sp, #0]
    3b24:	4770      	bx	lr

00003b26 <rfetch_allocator>:
    3b26:	f847 6d04 	str.w	r6, [r7, #-4]!
    3b2a:	f649 0600 	movw	r6, #38912	; 0x9800

00003b2e <loop_j_allocator>:
    3b2e:	b500      	push	{lr}
    3b30:	f7fc fb31 	bl	196 <befreie_tos>
    3b34:	f7fc fc06 	bl	344 <get_free_register>
    3b38:	6003      	str	r3, [r0, #0]
    3b3a:	021b      	lsls	r3, r3, #8
    3b3c:	431e      	orrs	r6, r3
    3b3e:	f7ff faea 	bl	3116 <Code_795>
    3b42:	bd00      	pop	{pc}

00003b44 <Dictionary_992>:
    3b44:	00003b70 	andeq	r3, r0, r0, ror fp
    3b48:	69010220 	stmdbvs	r1, {r5, r9}

00003b4c <Code_992>:
    3b4c:	f847 6d04 	str.w	r6, [r7, #-4]!
    3b50:	0026      	movs	r6, r4
    3b52:	4770      	bx	lr
    3b54:	b500      	push	{lr}
    3b56:	f847 6d04 	str.w	r6, [r7, #-4]!
    3b5a:	f240 0620 	movw	r6, #32
    3b5e:	f7fc fb1a 	bl	196 <befreie_tos>
    3b62:	f7fc fbef 	bl	344 <get_free_register>
    3b66:	6003      	str	r3, [r0, #0]
    3b68:	431e      	orrs	r6, r3
    3b6a:	f7ff fad4 	bl	3116 <Code_795>
    3b6e:	bd00      	pop	{pc}

00003b70 <Dictionary_997>:
    3b70:	00003bae 	andeq	r3, r0, lr, lsr #23
    3b74:	6c050030 	stcvs	0, cr0, [r5], {48}	; 0x30
    3b78:	65766165 	ldrbvs	r6, [r6, #-357]!	; 0x165

00003b7c <Code_997>:
    3b7c:	b500      	push	{lr}
    3b7e:	4875      	ldr	r0, [pc, #468]	; (3d54 <gemeinsame_schleifenoptimierung+0x82>)
    3b80:	6801      	ldr	r1, [r0, #0]
    3b82:	003b      	movs	r3, r7
    3b84:	3f04      	subs	r7, #4
    3b86:	681a      	ldr	r2, [r3, #0]
    3b88:	3b04      	subs	r3, #4
    3b8a:	601a      	str	r2, [r3, #0]
    3b8c:	3308      	adds	r3, #8
    3b8e:	428b      	cmp	r3, r1
    3b90:	d1f9      	bne.n	3b86 <Code_997+0xa>
    3b92:	b403      	push	{r0, r1}
    3b94:	f7ff fe77 	bl	3886 <branch_v>
    3b98:	bc03      	pop	{r0, r1}
    3b9a:	0033      	movs	r3, r6
    3b9c:	cf40      	ldmia	r7!, {r6}
    3b9e:	3904      	subs	r1, #4
    3ba0:	600b      	str	r3, [r1, #0]
    3ba2:	6001      	str	r1, [r0, #0]
    3ba4:	3904      	subs	r1, #4
    3ba6:	680a      	ldr	r2, [r1, #0]
    3ba8:	3201      	adds	r2, #1
    3baa:	600a      	str	r2, [r1, #0]
    3bac:	bd00      	pop	{pc}

00003bae <Dictionary_999>:
    3bae:	00003bc0 	andeq	r3, r0, r0, asr #23
    3bb2:	75060020 	strvc	r0, [r6, #-32]
    3bb6:	6f6f6c6e 	svcvs	0x006f6c6e
    3bba:	bc300070 	ldclt	0, cr0, [r0], #-448	; 0xfffffe40

00003bbc <Code_999>:
    3bbc:	bc30      	pop	{r4, r5}
    3bbe:	4770      	bx	lr

00003bc0 <Dictionary_1000>:
    3bc0:	00003bf8 	strdeq	r3, [r0], -r8
    3bc4:	2b050030 	blcs	143c8c <BIT20+0x43c8c>
    3bc8:	706f6f6c 	rsbvc	r6, pc, ip, ror #30

00003bcc <Code_1000>:
    3bcc:	2e03      	cmp	r6, #3
    3bce:	d000      	beq.n	3bd2 <Code_1000+0x6>
    3bd0:	e702      	b.n	39d8 <strukturen_passen_nicht>
    3bd2:	cf40      	ldmia	r7!, {r6}
    3bd4:	b500      	push	{lr}
    3bd6:	f847 6d04 	str.w	r6, [r7, #-4]!
    3bda:	4e5f      	ldr	r6, [pc, #380]	; (3d58 <gemeinsame_schleifenoptimierung+0x86>)
    3bdc:	f7ff f89c 	bl	2d18 <Code_718>
    3be0:	f7ff fe21 	bl	3826 <r_branch_jvc>
    3be4:	e01a      	b.n	3c1c <loop_intern>

00003be6 <struktur_plusloop>:
    3be6:	f114 4400 	adds.w	r4, r4, #2147483648	; 0x80000000
    3bea:	1b64      	subs	r4, r4, r5
    3bec:	19a4      	adds	r4, r4, r6
    3bee:	cf40      	ldmia	r7!, {r6}
    3bf0:	442c      	add	r4, r5
    3bf2:	f1a4 4400 	sub.w	r4, r4, #2147483648	; 0x80000000
    3bf6:	4770      	bx	lr

00003bf8 <Dictionary_1004>:
    3bf8:	00003c3a 	andeq	r3, r0, sl, lsr ip
    3bfc:	6c040030 	stcvs	0, cr0, [r4], {48}	; 0x30
    3c00:	00706f6f 	rsbseq	r6, r0, pc, ror #30

00003c04 <Code_1004>:
    3c04:	2e03      	cmp	r6, #3
    3c06:	d000      	beq.n	3c0a <Code_1004+0x6>
    3c08:	e6e6      	b.n	39d8 <strukturen_passen_nicht>
    3c0a:	cf40      	ldmia	r7!, {r6}
    3c0c:	b500      	push	{lr}
    3c0e:	f847 6d04 	str.w	r6, [r7, #-4]!
    3c12:	4e52      	ldr	r6, [pc, #328]	; (3d5c <gemeinsame_schleifenoptimierung+0x8a>)
    3c14:	f7ff f880 	bl	2d18 <Code_718>
    3c18:	f7ff fdf8 	bl	380c <r_branch_jne>

00003c1c <loop_intern>:
    3c1c:	f000 f952 	bl	3ec4 <spruenge_einpflegen>
    3c20:	484c      	ldr	r0, [pc, #304]	; (3d54 <gemeinsame_schleifenoptimierung+0x82>)
    3c22:	0031      	movs	r1, r6
    3c24:	cf40      	ldmia	r7!, {r6}
    3c26:	6001      	str	r1, [r0, #0]
    3c28:	f847 6d04 	str.w	r6, [r7, #-4]!
    3c2c:	4e4c      	ldr	r6, [pc, #304]	; (3d60 <gemeinsame_schleifenoptimierung+0x8e>)
    3c2e:	f7ff f873 	bl	2d18 <Code_718>
    3c32:	bd00      	pop	{pc}

00003c34 <struktur_loop>:
    3c34:	3401      	adds	r4, #1
    3c36:	42ac      	cmp	r4, r5
    3c38:	4770      	bx	lr

00003c3a <Dictionary_1009>:
    3c3a:	00003c82 	andeq	r3, r0, r2, lsl #25
    3c3e:	64020230 	strvs	r0, [r2], #-560	; 0x230
    3c42:	b500006f 	strlt	r0, [r0, #-111]	; 0x6f

00003c44 <Code_1009>:
    3c44:	b500      	push	{lr}
    3c46:	f847 6d04 	str.w	r6, [r7, #-4]!
    3c4a:	4e46      	ldr	r6, [pc, #280]	; (3d64 <gemeinsame_schleifenoptimierung+0x92>)
    3c4c:	f7ff f864 	bl	2d18 <Code_718>

00003c50 <do_rest_der_schleifenstruktur>:
    3c50:	4840      	ldr	r0, [pc, #256]	; (3d54 <gemeinsame_schleifenoptimierung+0x82>)
    3c52:	6801      	ldr	r1, [r0, #0]
    3c54:	f847 6d04 	str.w	r6, [r7, #-4]!
    3c58:	000e      	movs	r6, r1
    3c5a:	f847 6d04 	str.w	r6, [r7, #-4]!
    3c5e:	2600      	movs	r6, #0
    3c60:	6007      	str	r7, [r0, #0]
    3c62:	f7ff fdd2 	bl	380a <branch_r>
    3c66:	f847 6d04 	str.w	r6, [r7, #-4]!
    3c6a:	2603      	movs	r6, #3
    3c6c:	bd00      	pop	{pc}
    3c6e:	b500      	push	{lr}
    3c70:	f000 f82f 	bl	3cd2 <gemeinsame_schleifenoptimierung>
    3c74:	e7ec      	b.n	3c50 <do_rest_der_schleifenstruktur>

00003c76 <struktur_do>:
    3c76:	b430      	push	{r4, r5}
    3c78:	0034      	movs	r4, r6
    3c7a:	cf40      	ldmia	r7!, {r6}
    3c7c:	0035      	movs	r5, r6
    3c7e:	cf40      	ldmia	r7!, {r6}
    3c80:	4770      	bx	lr

00003c82 <Dictionary_1019>:
    3c82:	00003d68 	andeq	r3, r0, r8, ror #26
    3c86:	3f030230 	svccc	0x00030230
    3c8a:	b5006f64 	strlt	r6, [r0, #-3940]	; 0xf64

00003c8c <Code_1019>:
    3c8c:	b500      	push	{lr}
    3c8e:	f847 6d04 	str.w	r6, [r7, #-4]!
    3c92:	4e34      	ldr	r6, [pc, #208]	; (3d64 <gemeinsame_schleifenoptimierung+0x92>)
    3c94:	f7ff f840 	bl	2d18 <Code_718>

00003c98 <qdo_rest_der_schleifenstruktur>:
    3c98:	f847 6d04 	str.w	r6, [r7, #-4]!
    3c9c:	f244 26ac 	movw	r6, #17068	; 0x42ac
    3ca0:	f7ff fa39 	bl	3116 <Code_795>
    3ca4:	482b      	ldr	r0, [pc, #172]	; (3d54 <gemeinsame_schleifenoptimierung+0x82>)
    3ca6:	6801      	ldr	r1, [r0, #0]
    3ca8:	f847 6d04 	str.w	r6, [r7, #-4]!
    3cac:	000e      	movs	r6, r1
    3cae:	f7ff fdea 	bl	3886 <branch_v>
    3cb2:	3601      	adds	r6, #1
    3cb4:	f847 6d04 	str.w	r6, [r7, #-4]!
    3cb8:	2601      	movs	r6, #1
    3cba:	4826      	ldr	r0, [pc, #152]	; (3d54 <gemeinsame_schleifenoptimierung+0x82>)
    3cbc:	6007      	str	r7, [r0, #0]
    3cbe:	f7ff fda4 	bl	380a <branch_r>
    3cc2:	f847 6d04 	str.w	r6, [r7, #-4]!
    3cc6:	2603      	movs	r6, #3
    3cc8:	bd00      	pop	{pc}
    3cca:	b500      	push	{lr}
    3ccc:	f000 f801 	bl	3cd2 <gemeinsame_schleifenoptimierung>
    3cd0:	e7e2      	b.n	3c98 <qdo_rest_der_schleifenstruktur>

00003cd2 <gemeinsame_schleifenoptimierung>:
    3cd2:	b500      	push	{lr}
    3cd4:	f7fc fbfd 	bl	4d2 <push_lr_nachholen>
    3cd8:	f7fc fb72 	bl	3c0 <expect_two_elements>
    3cdc:	f7fc fa9c 	bl	218 <tidyup_register_allocator_5os>
    3ce0:	f7fc fa9f 	bl	222 <tidyup_register_allocator_4os>
    3ce4:	f7fc faa2 	bl	22c <tidyup_register_allocator_3os>
    3ce8:	f847 6d04 	str.w	r6, [r7, #-4]!
    3cec:	f24b 4630 	movw	r6, #46128	; 0xb430
    3cf0:	f7ff fa11 	bl	3116 <Code_795>
    3cf4:	6801      	ldr	r1, [r0, #0]
    3cf6:	2928      	cmp	r1, #40	; 0x28
    3cf8:	d008      	beq.n	3d0c <gemeinsame_schleifenoptimierung+0x3a>
    3cfa:	f847 6d04 	str.w	r6, [r7, #-4]!
    3cfe:	f240 0604 	movw	r6, #4
    3d02:	00c9      	lsls	r1, r1, #3
    3d04:	430e      	orrs	r6, r1
    3d06:	f7ff fa06 	bl	3116 <Code_795>
    3d0a:	e007      	b.n	3d1c <gemeinsame_schleifenoptimierung+0x4a>
    3d0c:	f847 6d04 	str.w	r6, [r7, #-4]!
    3d10:	6846      	ldr	r6, [r0, #4]
    3d12:	f847 6d04 	str.w	r6, [r7, #-4]!
    3d16:	2604      	movs	r6, #4
    3d18:	f7fe fece 	bl	2ab8 <Code_673>
    3d1c:	6881      	ldr	r1, [r0, #8]
    3d1e:	2928      	cmp	r1, #40	; 0x28
    3d20:	d008      	beq.n	3d34 <gemeinsame_schleifenoptimierung+0x62>
    3d22:	f847 6d04 	str.w	r6, [r7, #-4]!
    3d26:	f240 0605 	movw	r6, #5
    3d2a:	00c9      	lsls	r1, r1, #3
    3d2c:	430e      	orrs	r6, r1
    3d2e:	f7ff f9f2 	bl	3116 <Code_795>
    3d32:	e007      	b.n	3d44 <gemeinsame_schleifenoptimierung+0x72>
    3d34:	f847 6d04 	str.w	r6, [r7, #-4]!
    3d38:	68c6      	ldr	r6, [r0, #12]
    3d3a:	f847 6d04 	str.w	r6, [r7, #-4]!
    3d3e:	2605      	movs	r6, #5
    3d40:	f7fe feba 	bl	2ab8 <Code_673>
    3d44:	f7fc fa31 	bl	1aa <eliminiere_tos>
    3d48:	f7fc fa2f 	bl	1aa <eliminiere_tos>
    3d4c:	f7fc fa78 	bl	240 <tidyup_register_allocator_tos>
    3d50:	bd00      	pop	{pc}
    3d52:	000c0000 	andeq	r0, ip, r0
    3d56:	3be62000 	blcc	ff98bd5e <BIT31+0x7f98bd5e>
    3d5a:	3c340000 	ldccc	0, cr0, [r4]
    3d5e:	3bbc0000 	blcc	fef03d66 <BIT31+0x7ef03d66>
    3d62:	3c760000 	ldclcc	0, cr0, [r6]
	...

00003d68 <Dictionary_1041>:
    3d68:	00003d88 	andeq	r3, r0, r8, lsl #27
    3d6c:	63040030 	movwvs	r0, #16432	; 0x4030
    3d70:	00657361 	rsbeq	r7, r5, r1, ror #6

00003d74 <Code_1041>:
    3d74:	b500      	push	{lr}
    3d76:	f7fc fbac 	bl	4d2 <push_lr_nachholen>
    3d7a:	f847 6d04 	str.w	r6, [r7, #-4]!
    3d7e:	2600      	movs	r6, #0
    3d80:	f847 6d04 	str.w	r6, [r7, #-4]!
    3d84:	2608      	movs	r6, #8
    3d86:	bd00      	pop	{pc}

00003d88 <Dictionary_1046>:
    3d88:	00003d9e 	muleq	r0, lr, sp
    3d8c:	3f030030 	svccc	0x00030030
    3d90:	4871666f 	ldmdami	r1!, {r0, r1, r2, r3, r5, r6, r9, sl, sp, lr}^

00003d92 <Code_1046>:
    3d92:	4871      	ldr	r0, [pc, #452]	; (3f58 <Code_1081+0x4c>)
    3d94:	e009      	b.n	3daa <of_inneneinsprung>

00003d96 <struktur_qof>:
    3d96:	3e01      	subs	r6, #1
    3d98:	41b6      	sbcs	r6, r6
    3d9a:	cf40      	ldmia	r7!, {r6}
    3d9c:	4770      	bx	lr

00003d9e <Dictionary_1048>:
    3d9e:	00003e64 	andeq	r3, r0, r4, ror #28
    3da2:	6f020230 	svcvs	0x00020230
    3da6:	486c0066 	stmdami	ip!, {r1, r2, r5, r6}^

00003da8 <Code_1048>:
    3da8:	486c      	ldr	r0, [pc, #432]	; (3f5c <Code_1081+0x50>)

00003daa <of_inneneinsprung>:
    3daa:	2e08      	cmp	r6, #8
    3dac:	d000      	beq.n	3db0 <of_inneneinsprung+0x6>
    3dae:	e613      	b.n	39d8 <strukturen_passen_nicht>
    3db0:	cf40      	ldmia	r7!, {r6}
    3db2:	b500      	push	{lr}
    3db4:	f847 6d04 	str.w	r6, [r7, #-4]!
    3db8:	0006      	movs	r6, r0
    3dba:	f7fe ffad 	bl	2d18 <Code_718>

00003dbe <of_opcodiereinsprung>:
    3dbe:	f7ff fd62 	bl	3886 <branch_v>
    3dc2:	6839      	ldr	r1, [r7, #0]
    3dc4:	603e      	str	r6, [r7, #0]
    3dc6:	460e      	mov	r6, r1
    3dc8:	3601      	adds	r6, #1
    3dca:	f847 6d04 	str.w	r6, [r7, #-4]!
    3dce:	2609      	movs	r6, #9
    3dd0:	f847 6d04 	str.w	r6, [r7, #-4]!
    3dd4:	f64c 7640 	movw	r6, #53056	; 0xcf40
    3dd8:	f7ff f99d 	bl	3116 <Code_795>
    3ddc:	bd00      	pop	{pc}
    3dde:	2e08      	cmp	r6, #8
    3de0:	d000      	beq.n	3de4 <of_opcodiereinsprung+0x26>
    3de2:	e5f9      	b.n	39d8 <strukturen_passen_nicht>
    3de4:	cf40      	ldmia	r7!, {r6}
    3de6:	b500      	push	{lr}
    3de8:	f7fc faea 	bl	3c0 <expect_two_elements>
    3dec:	f7fc fa14 	bl	218 <tidyup_register_allocator_5os>
    3df0:	f7fc fa17 	bl	222 <tidyup_register_allocator_4os>
    3df4:	f7fc fa1a 	bl	22c <tidyup_register_allocator_3os>
    3df8:	f847 6d04 	str.w	r6, [r7, #-4]!
    3dfc:	f244 2680 	movw	r6, #17024	; 0x4280
    3e00:	f7fc fb1a 	bl	438 <expect_nos_in_register>
    3e04:	430e      	orrs	r6, r1
    3e06:	6802      	ldr	r2, [r0, #0]
    3e08:	2a28      	cmp	r2, #40	; 0x28
    3e0a:	d11e      	bne.n	3e4a <of_opcodiereinsprung+0x8c>
    3e0c:	6842      	ldr	r2, [r0, #4]
    3e0e:	2aff      	cmp	r2, #255	; 0xff
    3e10:	d808      	bhi.n	3e24 <of_opcodiereinsprung+0x66>
    3e12:	cf40      	ldmia	r7!, {r6}
    3e14:	f847 6d04 	str.w	r6, [r7, #-4]!
    3e18:	f642 0600 	movw	r6, #10240	; 0x2800
    3e1c:	4316      	orrs	r6, r2
    3e1e:	0209      	lsls	r1, r1, #8
    3e20:	430e      	orrs	r6, r1
    3e22:	e014      	b.n	3e4e <of_opcodiereinsprung+0x90>
    3e24:	f847 6d04 	str.w	r6, [r7, #-4]!
    3e28:	6846      	ldr	r6, [r0, #4]
    3e2a:	f7fe fd91 	bl	2950 <Code_664>
    3e2e:	cf04      	ldmia	r7!, {r2}
    3e30:	2e00      	cmp	r6, #0
    3e32:	cf40      	ldmia	r7!, {r6}
    3e34:	d006      	beq.n	3e44 <of_opcodiereinsprung+0x86>
    3e36:	4e4a      	ldr	r6, [pc, #296]	; (3f60 <Code_1081+0x54>)
    3e38:	4316      	orrs	r6, r2
    3e3a:	ea56 4601 	orrs.w	r6, r6, r1, lsl #16
    3e3e:	f7ff f999 	bl	3174 <Code_804>
    3e42:	e006      	b.n	3e52 <of_opcodiereinsprung+0x94>
    3e44:	f7fc faee 	bl	424 <expect_tos_in_register>
    3e48:	000a      	movs	r2, r1
    3e4a:	00d2      	lsls	r2, r2, #3
    3e4c:	4316      	orrs	r6, r2
    3e4e:	f7ff f962 	bl	3116 <Code_795>
    3e52:	f7fc f9aa 	bl	1aa <eliminiere_tos>
    3e56:	f7fc f9f3 	bl	240 <tidyup_register_allocator_tos>
    3e5a:	e7b0      	b.n	3dbe <of_opcodiereinsprung>

00003e5c <struktur_of>:
    3e5c:	0030      	movs	r0, r6
    3e5e:	cf40      	ldmia	r7!, {r6}
    3e60:	42b0      	cmp	r0, r6
    3e62:	4770      	bx	lr

00003e64 <Dictionary_1066>:
    3e64:	00003e9a 	muleq	r0, sl, lr
    3e68:	65050030 	strvs	r0, [r5, #-48]	; 0x30
    3e6c:	666f646e 	strbtvs	r6, [pc], -lr, ror #8

00003e70 <Code_1066>:
    3e70:	2e09      	cmp	r6, #9
    3e72:	d000      	beq.n	3e76 <Code_1066+0x6>
    3e74:	e5b0      	b.n	39d8 <strukturen_passen_nicht>
    3e76:	cf40      	ldmia	r7!, {r6}
    3e78:	b500      	push	{lr}
    3e7a:	b440      	push	{r6}
    3e7c:	cf40      	ldmia	r7!, {r6}
    3e7e:	f7ff fd02 	bl	3886 <branch_v>
    3e82:	6839      	ldr	r1, [r7, #0]
    3e84:	603e      	str	r6, [r7, #0]
    3e86:	460e      	mov	r6, r1
    3e88:	f7ff fd16 	bl	38b8 <v_casebranch>
    3e8c:	f847 6d04 	str.w	r6, [r7, #-4]!
    3e90:	bc40      	pop	{r6}
    3e92:	f847 6d04 	str.w	r6, [r7, #-4]!
    3e96:	2608      	movs	r6, #8
    3e98:	bd00      	pop	{pc}

00003e9a <Dictionary_1074>:
    3e9a:	00003eec 	andeq	r3, r0, ip, ror #29
    3e9e:	65070030 	strvs	r0, [r7, #-48]	; 0x30
    3ea2:	6163646e 	cmnvs	r3, lr, ror #8
    3ea6:	2e086573 	cfrshl64cs	mvdx8, mvdx3, r6

00003ea8 <Code_1074>:
    3ea8:	2e08      	cmp	r6, #8
    3eaa:	d000      	beq.n	3eae <Code_1074+0x6>
    3eac:	e594      	b.n	39d8 <strukturen_passen_nicht>
    3eae:	cf40      	ldmia	r7!, {r6}
    3eb0:	b500      	push	{lr}
    3eb2:	f847 6d04 	str.w	r6, [r7, #-4]!
    3eb6:	f64c 7640 	movw	r6, #53056	; 0xcf40
    3eba:	f7ff f92c 	bl	3116 <Code_795>
    3ebe:	f000 f801 	bl	3ec4 <spruenge_einpflegen>
    3ec2:	bd00      	pop	{pc}

00003ec4 <spruenge_einpflegen>:
    3ec4:	b500      	push	{lr}
    3ec6:	0030      	movs	r0, r6
    3ec8:	cf40      	ldmia	r7!, {r6}
    3eca:	2800      	cmp	r0, #0
    3ecc:	d00d      	beq.n	3eea <spruenge_einpflegen+0x26>
    3ece:	b403      	push	{r0, r1}
    3ed0:	2101      	movs	r1, #1
    3ed2:	4031      	ands	r1, r6
    3ed4:	2900      	cmp	r1, #0
    3ed6:	d003      	beq.n	3ee0 <spruenge_einpflegen+0x1c>
    3ed8:	3e01      	subs	r6, #1
    3eda:	f7ff fce3 	bl	38a4 <v_nullbranch>
    3ede:	e001      	b.n	3ee4 <spruenge_einpflegen+0x20>
    3ee0:	f7ff fcda 	bl	3898 <v_branch>
    3ee4:	bc03      	pop	{r0, r1}
    3ee6:	3801      	subs	r0, #1
    3ee8:	e7ef      	b.n	3eca <spruenge_einpflegen+0x6>
    3eea:	bd00      	pop	{pc}

00003eec <Dictionary_1079>:
    3eec:	00003f00 	andeq	r3, r0, r0, lsl #30
    3ef0:	74050000 	strvc	r0, [r5]
    3ef4:	6e656b6f 	vnmulvs.f64	d22, d5, d31

00003ef8 <Code_1079>:
    3ef8:	f847 6d04 	str.w	r6, [r7, #-4]!
    3efc:	2620      	movs	r6, #32
    3efe:	e005      	b.n	3f0c <Code_1081>

00003f00 <Dictionary_1081>:
    3f00:	00003f68 	andeq	r3, r0, r8, ror #30
    3f04:	70050000 	andvc	r0, r5, r0
    3f08:	65737261 	ldrbvs	r7, [r3, #-609]!	; 0x261

00003f0c <Code_1081>:
    3f0c:	b510      	push	{r4, lr}
    3f0e:	f7fe fb24 	bl	255a <Code_572>
    3f12:	0031      	movs	r1, r6
    3f14:	cf40      	ldmia	r7!, {r6}
    3f16:	0030      	movs	r0, r6
    3f18:	cf40      	ldmia	r7!, {r6}
    3f1a:	4a12      	ldr	r2, [pc, #72]	; (3f64 <Code_1081+0x58>)
    3f1c:	6812      	ldr	r2, [r2, #0]
    3f1e:	1884      	adds	r4, r0, r2
    3f20:	2e20      	cmp	r6, #32
    3f22:	d107      	bne.n	3f34 <Code_1081+0x28>
    3f24:	4291      	cmp	r1, r2
    3f26:	d00f      	beq.n	3f48 <Code_1081+0x3c>
    3f28:	5c83      	ldrb	r3, [r0, r2]
    3f2a:	42b3      	cmp	r3, r6
    3f2c:	d102      	bne.n	3f34 <Code_1081+0x28>
    3f2e:	3201      	adds	r2, #1
    3f30:	1884      	adds	r4, r0, r2
    3f32:	e7f7      	b.n	3f24 <Code_1081+0x18>
    3f34:	4291      	cmp	r1, r2
    3f36:	d007      	beq.n	3f48 <Code_1081+0x3c>
    3f38:	5c83      	ldrb	r3, [r0, r2]
    3f3a:	3201      	adds	r2, #1
    3f3c:	42b3      	cmp	r3, r6
    3f3e:	d1f9      	bne.n	3f34 <Code_1081+0x28>
    3f40:	1886      	adds	r6, r0, r2
    3f42:	1b36      	subs	r6, r6, r4
    3f44:	3e01      	subs	r6, #1
    3f46:	e001      	b.n	3f4c <Code_1081+0x40>
    3f48:	1886      	adds	r6, r0, r2
    3f4a:	1b36      	subs	r6, r6, r4
    3f4c:	3f04      	subs	r7, #4
    3f4e:	603c      	str	r4, [r7, #0]
    3f50:	4804      	ldr	r0, [pc, #16]	; (3f64 <Code_1081+0x58>)
    3f52:	6002      	str	r2, [r0, #0]
    3f54:	bd10      	pop	{r4, pc}
    3f56:	3d960000 	ldccc	0, cr0, [r6]
    3f5a:	3e5c0000 	cdpcc	0, 5, cr0, cr12, cr0, {0}
    3f5e:	0f000000 	svceq	0x00000000
    3f62:	ffe4f1b0 			; <UNDEFINED> instruction: 0xffe4f1b0
    3f66:	3fa62001 	svccc	0x00a62001

00003f68 <Dictionary_1084>:
    3f68:	00003fa6 	andeq	r3, r0, r6, lsr #31
    3f6c:	64050000 	strvs	r0, [r5]
    3f70:	74696769 	strbtvc	r6, [r9], #-1897	; 0x769

00003f74 <Code_1084>:
    3f74:	4bcf      	ldr	r3, [pc, #828]	; (42b4 <Code_1147+0xa>)
    3f76:	681b      	ldr	r3, [r3, #0]

00003f78 <digit_base_r3>:
    3f78:	3e30      	subs	r6, #48	; 0x30
    3f7a:	d30b      	bcc.n	3f94 <digit_base_r3+0x1c>
    3f7c:	2e0a      	cmp	r6, #10
    3f7e:	d30b      	bcc.n	3f98 <digit_base_r3+0x20>
    3f80:	3e07      	subs	r6, #7
    3f82:	2e0a      	cmp	r6, #10
    3f84:	d306      	bcc.n	3f94 <digit_base_r3+0x1c>
    3f86:	2e24      	cmp	r6, #36	; 0x24
    3f88:	d306      	bcc.n	3f98 <digit_base_r3+0x20>
    3f8a:	3e20      	subs	r6, #32
    3f8c:	2e0a      	cmp	r6, #10
    3f8e:	d301      	bcc.n	3f94 <digit_base_r3+0x1c>
    3f90:	2e24      	cmp	r6, #36	; 0x24
    3f92:	d301      	bcc.n	3f98 <digit_base_r3+0x20>
    3f94:	2600      	movs	r6, #0
    3f96:	4770      	bx	lr
    3f98:	429e      	cmp	r6, r3
    3f9a:	d2fb      	bcs.n	3f94 <digit_base_r3+0x1c>
    3f9c:	f847 6d04 	str.w	r6, [r7, #-4]!
    3fa0:	2600      	movs	r6, #0
    3fa2:	43f6      	mvns	r6, r6
    3fa4:	4770      	bx	lr

00003fa6 <Dictionary_1086>:
    3fa6:	000040b0 	strheq	r4, [r0], -r0
    3faa:	6e060000 	cdpvs	0, 0, cr0, cr6, cr0, {0}
    3fae:	65626d75 	strbvs	r6, [r2, #-3445]!	; 0xd75
    3fb2:	b53f0072 	ldrlt	r0, [pc, #-114]!	; 3f48 <Code_1081+0x3c>

00003fb4 <Code_1086>:
    3fb4:	b53f      	push	{r0, r1, r2, r3, r4, r5, lr}
    3fb6:	0031      	movs	r1, r6
    3fb8:	cf40      	ldmia	r7!, {r6}
    3fba:	1e70      	subs	r0, r6, #1
    3fbc:	2601      	movs	r6, #1
    3fbe:	2201      	movs	r2, #1
    3fc0:	b404      	push	{r2}
    3fc2:	4bbc      	ldr	r3, [pc, #752]	; (42b4 <Code_1147+0xa>)
    3fc4:	681b      	ldr	r3, [r3, #0]
    3fc6:	2400      	movs	r4, #0
    3fc8:	2500      	movs	r5, #0
    3fca:	2900      	cmp	r1, #0
    3fcc:	d03c      	beq.n	4048 <BIT14+0x48>
    3fce:	3001      	adds	r0, #1
    3fd0:	3901      	subs	r1, #1
    3fd2:	7802      	ldrb	r2, [r0, #0]
    3fd4:	2a2d      	cmp	r2, #45	; 0x2d
    3fd6:	d104      	bne.n	3fe2 <Code_1086+0x2e>
    3fd8:	b001      	add	sp, #4
    3fda:	2200      	movs	r2, #0
    3fdc:	43d2      	mvns	r2, r2
    3fde:	b404      	push	{r2}
    3fe0:	e7f3      	b.n	3fca <Code_1086+0x16>
    3fe2:	2a23      	cmp	r2, #35	; 0x23
    3fe4:	d101      	bne.n	3fea <Code_1086+0x36>
    3fe6:	230a      	movs	r3, #10
    3fe8:	e7ef      	b.n	3fca <Code_1086+0x16>
    3fea:	2a24      	cmp	r2, #36	; 0x24
    3fec:	d101      	bne.n	3ff2 <Code_1086+0x3e>
    3fee:	2310      	movs	r3, #16
    3ff0:	e7eb      	b.n	3fca <Code_1086+0x16>
    3ff2:	2a25      	cmp	r2, #37	; 0x25
    3ff4:	d101      	bne.n	3ffa <Code_1086+0x46>
    3ff6:	2302      	movs	r3, #2
    3ff8:	e7e7      	b.n	3fca <Code_1086+0x16>
    3ffa:	2a2e      	cmp	r2, #46	; 0x2e
    3ffc:	d101      	bne.n	4002 <BIT14+0x2>
    3ffe:	2602      	movs	r6, #2
    4000:	e7e3      	b.n	3fca <Code_1086+0x16>
    4002:	2a2c      	cmp	r2, #44	; 0x2c
    4004:	d036      	beq.n	4074 <number_nachkommastellen>
    4006:	f847 6d04 	str.w	r6, [r7, #-4]!
    400a:	0016      	movs	r6, r2
    400c:	f7ff ffb4 	bl	3f78 <digit_base_r3>
    4010:	2e00      	cmp	r6, #0
    4012:	cf40      	ldmia	r7!, {r6}
    4014:	d02b      	beq.n	406e <BIT14+0x6e>
    4016:	f847 6d04 	str.w	r6, [r7, #-4]!
    401a:	0026      	movs	r6, r4
    401c:	f847 6d04 	str.w	r6, [r7, #-4]!
    4020:	002e      	movs	r6, r5
    4022:	f847 6d04 	str.w	r6, [r7, #-4]!
    4026:	001e      	movs	r6, r3
    4028:	f847 6d04 	str.w	r6, [r7, #-4]!
    402c:	2600      	movs	r6, #0
    402e:	b40f      	push	{r0, r1, r2, r3}
    4030:	f7fc fc57 	bl	8e2 <Code_116>
    4034:	bc0f      	pop	{r0, r1, r2, r3}
    4036:	0035      	movs	r5, r6
    4038:	cf40      	ldmia	r7!, {r6}
    403a:	0034      	movs	r4, r6
    403c:	cf40      	ldmia	r7!, {r6}
    403e:	2200      	movs	r2, #0
    4040:	19a4      	adds	r4, r4, r6
    4042:	4155      	adcs	r5, r2
    4044:	cf40      	ldmia	r7!, {r6}
    4046:	e7c0      	b.n	3fca <Code_1086+0x16>
    4048:	bc04      	pop	{r2}
    404a:	2a00      	cmp	r2, #0
    404c:	d504      	bpl.n	4058 <BIT14+0x58>
    404e:	2200      	movs	r2, #0
    4050:	43e4      	mvns	r4, r4
    4052:	43ed      	mvns	r5, r5
    4054:	3401      	adds	r4, #1
    4056:	4155      	adcs	r5, r2
    4058:	0033      	movs	r3, r6
    405a:	0026      	movs	r6, r4
    405c:	2b01      	cmp	r3, #1
    405e:	d002      	beq.n	4066 <BIT14+0x66>
    4060:	f847 6d04 	str.w	r6, [r7, #-4]!
    4064:	002e      	movs	r6, r5
    4066:	f847 6d04 	str.w	r6, [r7, #-4]!
    406a:	001e      	movs	r6, r3
    406c:	bd3f      	pop	{r0, r1, r2, r3, r4, r5, pc}
    406e:	b001      	add	sp, #4
    4070:	2600      	movs	r6, #0
    4072:	bd3f      	pop	{r0, r1, r2, r3, r4, r5, pc}

00004074 <number_nachkommastellen>:
    4074:	0025      	movs	r5, r4
    4076:	2400      	movs	r4, #0
    4078:	2602      	movs	r6, #2
    407a:	2900      	cmp	r1, #0
    407c:	d0e4      	beq.n	4048 <BIT14+0x48>
    407e:	5c42      	ldrb	r2, [r0, r1]
    4080:	3901      	subs	r1, #1
    4082:	2a2e      	cmp	r2, #46	; 0x2e
    4084:	d0f9      	beq.n	407a <number_nachkommastellen+0x6>
    4086:	f847 6d04 	str.w	r6, [r7, #-4]!
    408a:	0016      	movs	r6, r2
    408c:	f7ff ff74 	bl	3f78 <digit_base_r3>
    4090:	2e00      	cmp	r6, #0
    4092:	cf40      	ldmia	r7!, {r6}
    4094:	d0eb      	beq.n	406e <BIT14+0x6e>
    4096:	3f04      	subs	r7, #4
    4098:	603c      	str	r4, [r7, #0]
    409a:	f847 6d04 	str.w	r6, [r7, #-4]!
    409e:	001e      	movs	r6, r3
    40a0:	b40f      	push	{r0, r1, r2, r3}
    40a2:	f7fc fccd 	bl	a40 <Code_152>
    40a6:	bc0f      	pop	{r0, r1, r2, r3}
    40a8:	0034      	movs	r4, r6
    40aa:	cf40      	ldmia	r7!, {r6}
    40ac:	cf40      	ldmia	r7!, {r6}
    40ae:	e7e4      	b.n	407a <number_nachkommastellen+0x6>

000040b0 <Dictionary_1113>:
    40b0:	000040d2 	ldrdeq	r4, [r0], -r2
    40b4:	2e060000 	cdpcs	0, 0, cr0, cr6, cr0, {0}
    40b8:	69676964 	stmdbvs	r7!, {r2, r5, r6, r8, fp, sp, lr}^
    40bc:	2e0a0074 	mcrcs	0, 0, r0, cr10, cr4, {3}

000040be <Code_1113>:
    40be:	2e0a      	cmp	r6, #10
    40c0:	d201      	bcs.n	40c6 <Code_1113+0x8>
    40c2:	3630      	adds	r6, #48	; 0x30
    40c4:	4770      	bx	lr
    40c6:	2e24      	cmp	r6, #36	; 0x24
    40c8:	d201      	bcs.n	40ce <Code_1113+0x10>
    40ca:	3637      	adds	r6, #55	; 0x37
    40cc:	4770      	bx	lr
    40ce:	2623      	movs	r6, #35	; 0x23
    40d0:	4770      	bx	lr

000040d2 <Dictionary_1114>:
    40d2:	00004108 	andeq	r4, r0, r8, lsl #2
    40d6:	68040000 	stmdavs	r4, {}	; <UNPREDICTABLE>
    40da:	00646c6f 	rsbeq	r6, r4, pc, ror #24

000040de <Code_1114>:
    40de:	0033      	movs	r3, r6
    40e0:	cf40      	ldmia	r7!, {r6}
    40e2:	4875      	ldr	r0, [pc, #468]	; (42b8 <Code_1147+0xe>)
    40e4:	7801      	ldrb	r1, [r0, #0]
    40e6:	293f      	cmp	r1, #63	; 0x3f
    40e8:	d20d      	bcs.n	4106 <Code_1114+0x28>
    40ea:	3101      	adds	r1, #1
    40ec:	7001      	strb	r1, [r0, #0]
    40ee:	1840      	adds	r0, r0, r1
    40f0:	2901      	cmp	r1, #1
    40f2:	d007      	beq.n	4104 <Code_1114+0x26>
    40f4:	3801      	subs	r0, #1
    40f6:	7802      	ldrb	r2, [r0, #0]
    40f8:	3001      	adds	r0, #1
    40fa:	7002      	strb	r2, [r0, #0]
    40fc:	3801      	subs	r0, #1
    40fe:	3901      	subs	r1, #1
    4100:	2901      	cmp	r1, #1
    4102:	d1f7      	bne.n	40f4 <Code_1114+0x16>
    4104:	7003      	strb	r3, [r0, #0]
    4106:	4770      	bx	lr

00004108 <Dictionary_1116>:
    4108:	00004128 	andeq	r4, r0, r8, lsr #2
    410c:	68050000 	stmdavs	r5, {}	; <UNPREDICTABLE>
    4110:	3c646c6f 	stclcc	12, cr6, [r4], #-444	; 0xfffffe44

00004114 <Code_1116>:
    4114:	0033      	movs	r3, r6
    4116:	cf40      	ldmia	r7!, {r6}
    4118:	4867      	ldr	r0, [pc, #412]	; (42b8 <Code_1147+0xe>)
    411a:	7801      	ldrb	r1, [r0, #0]
    411c:	293f      	cmp	r1, #63	; 0x3f
    411e:	d202      	bcs.n	4126 <Code_1116+0x12>
    4120:	3101      	adds	r1, #1
    4122:	7001      	strb	r1, [r0, #0]
    4124:	5443      	strb	r3, [r0, r1]
    4126:	4770      	bx	lr

00004128 <Dictionary_1118>:
    4128:	00004140 	andeq	r4, r0, r0, asr #2
    412c:	73040000 	movwvc	r0, #16384	; 0x4000
    4130:	006e6769 	rsbeq	r6, lr, r9, ror #14

00004134 <Code_1118>:
    4134:	2e00      	cmp	r6, #0
    4136:	d401      	bmi.n	413c <Code_1118+0x8>
    4138:	cf40      	ldmia	r7!, {r6}
    413a:	4770      	bx	lr
    413c:	262d      	movs	r6, #45	; 0x2d
    413e:	e7ce      	b.n	40de <Code_1114>

00004140 <Dictionary_1120>:
    4140:	00004154 	andeq	r4, r0, r4, asr r1
    4144:	23020000 	movwcs	r0, #8192	; 0x2000
    4148:	485b003e 	ldmdami	fp, {r1, r2, r3, r4, r5}^

0000414a <Code_1120>:
    414a:	485b      	ldr	r0, [pc, #364]	; (42b8 <Code_1147+0xe>)
    414c:	7806      	ldrb	r6, [r0, #0]
    414e:	3001      	adds	r0, #1
    4150:	6038      	str	r0, [r7, #0]
    4152:	4770      	bx	lr

00004154 <Dictionary_1121>:
    4154:	0000416c 	andeq	r4, r0, ip, ror #2
    4158:	66030000 	strvs	r0, [r3], -r0
    415c:	b5105323 	ldrlt	r5, [r0, #-803]	; 0x323

0000415e <Code_1121>:
    415e:	b510      	push	{r4, lr}
    4160:	2420      	movs	r4, #32
    4162:	f000 f808 	bl	4176 <Code_1122>
    4166:	3c01      	subs	r4, #1
    4168:	d1fb      	bne.n	4162 <Code_1121+0x4>
    416a:	bd10      	pop	{r4, pc}

0000416c <Dictionary_1122>:
    416c:	0000418e 	andeq	r4, r0, lr, lsl #3
    4170:	66020000 	strvs	r0, [r2], -r0
    4174:	b5000023 	strlt	r0, [r0, #-35]	; 0x23

00004176 <Code_1122>:
    4176:	b500      	push	{lr}
    4178:	f847 6d04 	str.w	r6, [r7, #-4]!
    417c:	4e4d      	ldr	r6, [pc, #308]	; (42b4 <Code_1147+0xa>)
    417e:	6836      	ldr	r6, [r6, #0]
    4180:	f7fc fb71 	bl	866 <Code_112>
    4184:	f7ff ff9b 	bl	40be <Code_1113>
    4188:	f7ff ffc4 	bl	4114 <Code_1116>
    418c:	bd00      	pop	{pc}

0000418e <Dictionary_1124>:
    418e:	000041aa 	andeq	r4, r0, sl, lsr #3
    4192:	23020000 	movwcs	r0, #8192	; 0x2000
    4196:	b5000053 	strlt	r0, [r0, #-83]	; 0x53

00004198 <Code_1124>:
    4198:	b500      	push	{lr}
    419a:	f000 f80a 	bl	41b2 <Code_1125>
    419e:	2e00      	cmp	r6, #0
    41a0:	d1fb      	bne.n	419a <Code_1124+0x2>
    41a2:	6838      	ldr	r0, [r7, #0]
    41a4:	2800      	cmp	r0, #0
    41a6:	d1f8      	bne.n	419a <Code_1124+0x2>
    41a8:	bd00      	pop	{pc}

000041aa <Dictionary_1125>:
    41aa:	000041d6 	ldrdeq	r4, [r0], -r6
    41ae:	23010000 	movwcs	r0, #4096	; 0x1000

000041b2 <Code_1125>:
    41b2:	b500      	push	{lr}
    41b4:	f847 6d04 	str.w	r6, [r7, #-4]!
    41b8:	4e3e      	ldr	r6, [pc, #248]	; (42b4 <Code_1147+0xa>)
    41ba:	6836      	ldr	r6, [r6, #0]
    41bc:	f847 6d04 	str.w	r6, [r7, #-4]!
    41c0:	2600      	movs	r6, #0
    41c2:	f7fc fc5c 	bl	a7e <Code_161>
    41c6:	f7fc f9bc 	bl	542 <Code_72>
    41ca:	cf40      	ldmia	r7!, {r6}
    41cc:	f7ff ff77 	bl	40be <Code_1113>
    41d0:	f7ff ff85 	bl	40de <Code_1114>
    41d4:	bd00      	pop	{pc}

000041d6 <Dictionary_1130>:
    41d6:	000041e8 	andeq	r4, r0, r8, ror #3
    41da:	3c020000 	stccc	0, cr0, [r2], {0}
    41de:	48350023 	ldmdami	r5!, {r0, r1, r5}

000041e0 <Code_1130>:
    41e0:	4835      	ldr	r0, [pc, #212]	; (42b8 <Code_1147+0xe>)
    41e2:	2100      	movs	r1, #0
    41e4:	7001      	strb	r1, [r0, #0]
    41e6:	4770      	bx	lr

000041e8 <Dictionary_1131>:
    41e8:	000041fa 	strdeq	r4, [r0], -sl
    41ec:	66020000 	strvs	r0, [r2], -r0
    41f0:	f847002e 			; <UNDEFINED> instruction: 0xf847002e

000041f2 <Code_1131>:
    41f2:	f847 6d04 	str.w	r6, [r7, #-4]!
    41f6:	2620      	movs	r6, #32
    41f8:	e004      	b.n	4204 <Code_1134>

000041fa <Dictionary_1134>:
    41fa:	00004248 	andeq	r4, r0, r8, asr #4
    41fe:	66030000 	strvs	r0, [r3], -r0
    4202:	b5006e2e 	strlt	r6, [r0, #-3630]	; 0xe2e

00004204 <Code_1134>:
    4204:	b500      	push	{lr}
    4206:	b410      	push	{r4}
    4208:	0034      	movs	r4, r6
    420a:	cf40      	ldmia	r7!, {r6}
    420c:	f7fc fe68 	bl	ee0 <Code_208>
    4210:	f7fc faae 	bl	770 <Code_100>
    4214:	f847 6d04 	str.w	r6, [r7, #-4]!
    4218:	2600      	movs	r6, #0
    421a:	f7ff ffe1 	bl	41e0 <Code_1130>
    421e:	f7ff ffbb 	bl	4198 <Code_1124>
    4222:	cf40      	ldmia	r7!, {r6}
    4224:	262c      	movs	r6, #44	; 0x2c
    4226:	f7ff ff75 	bl	4114 <Code_1116>
    422a:	2c00      	cmp	r4, #0
    422c:	d003      	beq.n	4236 <Code_1134+0x32>
    422e:	f7ff ffa2 	bl	4176 <Code_1122>
    4232:	3c01      	subs	r4, #1
    4234:	d1fb      	bne.n	422e <Code_1134+0x2a>
    4236:	bc10      	pop	{r4}
    4238:	cf40      	ldmia	r7!, {r6}
    423a:	f7ff ff7b 	bl	4134 <Code_1118>
    423e:	f847 6d04 	str.w	r6, [r7, #-4]!
    4242:	f847 6d04 	str.w	r6, [r7, #-4]!
    4246:	e01c      	b.n	4282 <abschluss_zahlenausgabe>

00004248 <Dictionary_1142>:
    4248:	0000425e 	andeq	r4, r0, lr, asr r2
    424c:	75030000 	strvc	r0, [r3]
    4250:	b5002e64 	strlt	r2, [r0, #-3684]	; 0xe64

00004252 <Code_1142>:
    4252:	b500      	push	{lr}
    4254:	f7ff ffc4 	bl	41e0 <Code_1130>
    4258:	f7ff ff9e 	bl	4198 <Code_1124>
    425c:	e011      	b.n	4282 <abschluss_zahlenausgabe>

0000425e <Dictionary_1143>:
    425e:	00004290 	muleq	r0, r0, r2
    4262:	64020000 	strvs	r0, [r2]
    4266:	b500002e 	strlt	r0, [r0, #-46]	; 0x2e

00004268 <Code_1143>:
    4268:	b500      	push	{lr}
    426a:	f7fc fe39 	bl	ee0 <Code_208>
    426e:	f7fc fa7f 	bl	770 <Code_100>
    4272:	f7ff ffb5 	bl	41e0 <Code_1130>
    4276:	f7ff ff8f 	bl	4198 <Code_1124>
    427a:	f7fc fe43 	bl	f04 <Code_209>
    427e:	f7ff ff59 	bl	4134 <Code_1118>

00004282 <abschluss_zahlenausgabe>:
    4282:	f7ff ff62 	bl	414a <Code_1120>
    4286:	f7fe fa7a 	bl	277e <Code_624>
    428a:	f7fe f9cb 	bl	2624 <Code_589>
    428e:	bd00      	pop	{pc}

00004290 <Dictionary_1144>:
    4290:	000042a2 	andeq	r4, r0, r2, lsr #5
    4294:	75020000 	strvc	r0, [r2]
    4298:	f847002e 			; <UNDEFINED> instruction: 0xf847002e

0000429a <Code_1144>:
    429a:	f847 6d04 	str.w	r6, [r7, #-4]!
    429e:	2600      	movs	r6, #0
    42a0:	e7d7      	b.n	4252 <Code_1142>

000042a2 <Dictionary_1147>:
    42a2:	0000446e 	andeq	r4, r0, lr, ror #8
    42a6:	2e010000 	cdpcs	0, 0, cr0, cr1, cr0, {0}

000042aa <Code_1147>:
    42aa:	f847 6d04 	str.w	r6, [r7, #-4]!
    42ae:	17f6      	asrs	r6, r6, #31
    42b0:	e7da      	b.n	4268 <Code_1143>
    42b2:	fffc0000 			; <UNDEFINED> instruction: 0xfffc0000
    42b6:	00842001 	addeq	r2, r4, r1
    42ba:	b5302000 	ldrlt	r2, [r0]!

000042bc <konstantenfaltungszeiger_setzen>:
    42bc:	b530      	push	{r4, r5, lr}
    42be:	4cd7      	ldr	r4, [pc, #860]	; (461c <quit_innenschleife+0x16>)
    42c0:	6825      	ldr	r5, [r4, #0]
    42c2:	2d00      	cmp	r5, #0
    42c4:	d101      	bne.n	42ca <konstantenfaltungszeiger_setzen+0xe>
    42c6:	003d      	movs	r5, r7
    42c8:	6025      	str	r5, [r4, #0]
    42ca:	bd30      	pop	{r4, r5, pc}

000042cc <konstantenfaltungszeiger_neusetzen>:
    42cc:	b530      	push	{r4, r5, lr}
    42ce:	4cd3      	ldr	r4, [pc, #844]	; (461c <quit_innenschleife+0x16>)
    42d0:	003d      	movs	r5, r7
    42d2:	6025      	str	r5, [r4, #0]
    42d4:	bd30      	pop	{r4, r5, pc}

000042d6 <konstantenfaltungszeiger_loeschen>:
    42d6:	b530      	push	{r4, r5, lr}
    42d8:	4cd0      	ldr	r4, [pc, #832]	; (461c <quit_innenschleife+0x16>)
    42da:	2500      	movs	r5, #0
    42dc:	6025      	str	r5, [r4, #0]
    42de:	bd30      	pop	{r4, r5, pc}

000042e0 <wievielefaltkonstanten>:
    42e0:	4bce      	ldr	r3, [pc, #824]	; (461c <quit_innenschleife+0x16>)
    42e2:	681b      	ldr	r3, [r3, #0]
    42e4:	1bdb      	subs	r3, r3, r7
    42e6:	089b      	lsrs	r3, r3, #2
    42e8:	4770      	bx	lr

000042ea <kompilator>:
    42ea:	b500      	push	{lr}
    42ec:	0031      	movs	r1, r6
    42ee:	cf40      	ldmia	r7!, {r6}
    42f0:	48cb      	ldr	r0, [pc, #812]	; (4620 <quit_innenschleife+0x1a>)
    42f2:	4008      	ands	r0, r1
    42f4:	d002      	beq.n	42fc <kompilator+0x12>
    42f6:	f000 f8a2 	bl	443e <inline_cache_parser>
    42fa:	bd00      	pop	{pc}
    42fc:	48c9      	ldr	r0, [pc, #804]	; (4624 <quit_innenschleife+0x1e>)
    42fe:	4008      	ands	r0, r1
    4300:	d101      	bne.n	4306 <kompilator+0x1c>
    4302:	f7fd f96e 	bl	15e2 <sprungschreiber_flaggenerator>
    4306:	0032      	movs	r2, r6
    4308:	cf40      	ldmia	r7!, {r6}
    430a:	f7ff ffd7 	bl	42bc <konstantenfaltungszeiger_setzen>
    430e:	48c6      	ldr	r0, [pc, #792]	; (4628 <quit_innenschleife+0x22>)
    4310:	4008      	ands	r0, r1
    4312:	d003      	beq.n	431c <kompilator+0x32>
    4314:	f847 6d04 	str.w	r6, [r7, #-4]!
    4318:	0016      	movs	r6, r2
    431a:	bd00      	pop	{pc}
    431c:	f7ff ffe0 	bl	42e0 <wievielefaltkonstanten>
    4320:	2080      	movs	r0, #128	; 0x80
    4322:	4008      	ands	r0, r1
    4324:	d106      	bne.n	4334 <.interpret_faltoptimierung>
    4326:	2040      	movs	r0, #64	; 0x40
    4328:	4008      	ands	r0, r1
    432a:	d009      	beq.n	4340 <.interpret_allocator>

0000432c <.interpret_genugkonstanten>:
    432c:	200f      	movs	r0, #15
    432e:	4008      	ands	r0, r1
    4330:	4283      	cmp	r3, r0
    4332:	d305      	bcc.n	4340 <.interpret_allocator>

00004334 <.interpret_faltoptimierung>:
    4334:	f847 6d04 	str.w	r6, [r7, #-4]!
    4338:	0016      	movs	r6, r2
    433a:	f7fe fd9c 	bl	2e76 <Code_742>
    433e:	bd00      	pop	{pc}

00004340 <.interpret_allocator>:
    4340:	48ba      	ldr	r0, [pc, #744]	; (462c <quit_innenschleife+0x26>)
    4342:	4008      	ands	r0, r1
    4344:	d014      	beq.n	4370 <.interpret_allocator_finished>
    4346:	f7fb feca 	bl	de <Code_31>
    434a:	f847 6d04 	str.w	r6, [r7, #-4]!
    434e:	0016      	movs	r6, r2
    4350:	f847 6d04 	str.w	r6, [r7, #-4]!
    4354:	000e      	movs	r6, r1
    4356:	f000 f830 	bl	43ba <add_to_inline_cache>
    435a:	0010      	movs	r0, r2
    435c:	f7fe fcf3 	bl	2d46 <suchedefinitionsende>
    4360:	1c42      	adds	r2, r0, #1
    4362:	48b3      	ldr	r0, [pc, #716]	; (4630 <quit_innenschleife+0x2a>)
    4364:	4790      	blx	r2
    4366:	f7ff ffb1 	bl	42cc <konstantenfaltungszeiger_neusetzen>
    436a:	f7fb fec7 	bl	fc <nfaltkonstanten_aufschwimmen>
    436e:	bd00      	pop	{pc}

00004370 <.interpret_allocator_finished>:
    4370:	f7fb feb5 	bl	de <Code_31>
    4374:	f847 6d04 	str.w	r6, [r7, #-4]!
    4378:	0016      	movs	r6, r2
    437a:	f847 6d04 	str.w	r6, [r7, #-4]!
    437e:	000e      	movs	r6, r1
    4380:	f000 f81b 	bl	43ba <add_to_inline_cache>
    4384:	f7fb ff3c 	bl	200 <tidyup_register_allocator>
    4388:	f7ff ffa5 	bl	42d6 <konstantenfaltungszeiger_loeschen>
    438c:	48a9      	ldr	r0, [pc, #676]	; (4634 <quit_innenschleife+0x2e>)
    438e:	4008      	ands	r0, r1
    4390:	d101      	bne.n	4396 <.prepared_for_classic>
    4392:	f7fc f89e 	bl	4d2 <push_lr_nachholen>

00004396 <.prepared_for_classic>:
    4396:	f847 6d04 	str.w	r6, [r7, #-4]!
    439a:	0016      	movs	r6, r2
    439c:	2210      	movs	r2, #16
    439e:	400a      	ands	r2, r1
    43a0:	d002      	beq.n	43a8 <.prepared_for_classic+0x12>
    43a2:	f7fe fd68 	bl	2e76 <Code_742>
    43a6:	bd00      	pop	{pc}
    43a8:	2220      	movs	r2, #32
    43aa:	400a      	ands	r2, r1
    43ac:	d002      	beq.n	43b4 <.prepared_for_classic+0x1e>
    43ae:	f7fe fcb3 	bl	2d18 <Code_718>
    43b2:	bd00      	pop	{pc}
    43b4:	f7fe fbdd 	bl	2b72 <Code_685>
    43b8:	bd00      	pop	{pc}

000043ba <add_to_inline_cache>:
    43ba:	b50f      	push	{r0, r1, r2, r3, lr}
    43bc:	0032      	movs	r2, r6
    43be:	cf40      	ldmia	r7!, {r6}
    43c0:	0033      	movs	r3, r6
    43c2:	cf40      	ldmia	r7!, {r6}
    43c4:	489c      	ldr	r0, [pc, #624]	; (4638 <quit_innenschleife+0x32>)
    43c6:	6801      	ldr	r1, [r0, #0]
    43c8:	2906      	cmp	r1, #6
    43ca:	d207      	bcs.n	43dc <add_to_inline_cache+0x22>
    43cc:	2006      	movs	r0, #6
    43ce:	4341      	muls	r1, r0
    43d0:	489a      	ldr	r0, [pc, #616]	; (463c <quit_innenschleife+0x36>)
    43d2:	1840      	adds	r0, r0, r1
    43d4:	8003      	strh	r3, [r0, #0]
    43d6:	0c1b      	lsrs	r3, r3, #16
    43d8:	8043      	strh	r3, [r0, #2]
    43da:	8082      	strh	r2, [r0, #4]
    43dc:	4896      	ldr	r0, [pc, #600]	; (4638 <quit_innenschleife+0x32>)
    43de:	6801      	ldr	r1, [r0, #0]
    43e0:	3101      	adds	r1, #1
    43e2:	6001      	str	r1, [r0, #0]
    43e4:	bd0f      	pop	{r0, r1, r2, r3, pc}

000043e6 <inline_cache_schreiben>:
    43e6:	b50f      	push	{r0, r1, r2, r3, lr}
    43e8:	4893      	ldr	r0, [pc, #588]	; (4638 <quit_innenschleife+0x32>)
    43ea:	6801      	ldr	r1, [r0, #0]
    43ec:	2906      	cmp	r1, #6
    43ee:	d81f      	bhi.n	4430 <inline_cache_schreiben+0x4a>
    43f0:	4892      	ldr	r0, [pc, #584]	; (463c <quit_innenschleife+0x36>)
    43f2:	3901      	subs	r1, #1
    43f4:	d01d      	beq.n	4432 <inline_cache_schreiben+0x4c>
    43f6:	f847 6d04 	str.w	r6, [r7, #-4]!
    43fa:	000e      	movs	r6, r1
    43fc:	f7fe fe8b 	bl	3116 <Code_795>
    4400:	f847 6d04 	str.w	r6, [r7, #-4]!
    4404:	8806      	ldrh	r6, [r0, #0]
    4406:	f7fe fe86 	bl	3116 <Code_795>
    440a:	f847 6d04 	str.w	r6, [r7, #-4]!
    440e:	8846      	ldrh	r6, [r0, #2]
    4410:	f7fe fe81 	bl	3116 <Code_795>
    4414:	f847 6d04 	str.w	r6, [r7, #-4]!
    4418:	8886      	ldrh	r6, [r0, #4]
    441a:	f7fe fe7c 	bl	3116 <Code_795>
    441e:	3006      	adds	r0, #6
    4420:	3901      	subs	r1, #1
    4422:	d1ed      	bne.n	4400 <inline_cache_schreiben+0x1a>
    4424:	f847 6d04 	str.w	r6, [r7, #-4]!
    4428:	f241 0600 	movw	r6, #4096	; 0x1000
    442c:	f7fe fe11 	bl	3052 <Code_788>
    4430:	bd0f      	pop	{r0, r1, r2, r3, pc}
    4432:	f847 6d04 	str.w	r6, [r7, #-4]!
    4436:	2640      	movs	r6, #64	; 0x40
    4438:	f7fe fe0b 	bl	3052 <Code_788>
    443c:	bd0f      	pop	{r0, r1, r2, r3, pc}

0000443e <inline_cache_parser>:
    443e:	b500      	push	{lr}
    4440:	0030      	movs	r0, r6
    4442:	cf40      	ldmia	r7!, {r6}
    4444:	f7fe fc7f 	bl	2d46 <suchedefinitionsende>
    4448:	8801      	ldrh	r1, [r0, #0]
    444a:	3002      	adds	r0, #2
    444c:	f847 6d04 	str.w	r6, [r7, #-4]!
    4450:	8806      	ldrh	r6, [r0, #0]
    4452:	8842      	ldrh	r2, [r0, #2]
    4454:	0412      	lsls	r2, r2, #16
    4456:	4316      	orrs	r6, r2
    4458:	f847 6d04 	str.w	r6, [r7, #-4]!
    445c:	8886      	ldrh	r6, [r0, #4]
    445e:	b403      	push	{r0, r1}
    4460:	f7ff ff43 	bl	42ea <kompilator>
    4464:	bc03      	pop	{r0, r1}
    4466:	3006      	adds	r0, #6
    4468:	3901      	subs	r1, #1
    446a:	d1ef      	bne.n	444c <inline_cache_parser+0xe>
    446c:	bd00      	pop	{pc}

0000446e <Dictionary_1179>:
    446e:	000044b6 			; <UNDEFINED> instruction: 0x000044b6
    4472:	65080000 	strvs	r0, [r8]
    4476:	756c6176 	strbvc	r6, [ip, #-374]!	; 0x176
    447a:	00657461 	rsbeq	r7, r5, r1, ror #8

0000447e <Code_1179>:
    447e:	b500      	push	{lr}
    4480:	f7fe f86b 	bl	255a <Code_572>
    4484:	cf01      	ldmia	r7!, {r0}
    4486:	b401      	push	{r0}
    4488:	b440      	push	{r6}
    448a:	cf40      	ldmia	r7!, {r6}
    448c:	486c      	ldr	r0, [pc, #432]	; (4640 <quit_innenschleife+0x3a>)
    448e:	6801      	ldr	r1, [r0, #0]
    4490:	b402      	push	{r1}
    4492:	2100      	movs	r1, #0
    4494:	6001      	str	r1, [r0, #0]
    4496:	f7fe f853 	bl	2540 <Code_570>
    449a:	f000 f814 	bl	44c6 <Code_1181>
    449e:	4868      	ldr	r0, [pc, #416]	; (4640 <quit_innenschleife+0x3a>)
    44a0:	bc02      	pop	{r1}
    44a2:	6001      	str	r1, [r0, #0]
    44a4:	f847 6d04 	str.w	r6, [r7, #-4]!
    44a8:	bc40      	pop	{r6}
    44aa:	bc01      	pop	{r0}
    44ac:	3f04      	subs	r7, #4
    44ae:	6038      	str	r0, [r7, #0]
    44b0:	f7fe f846 	bl	2540 <Code_570>
    44b4:	bd00      	pop	{pc}

000044b6 <Dictionary_1181>:
    44b6:	000045b2 			; <UNDEFINED> instruction: 0x000045b2
    44ba:	69090000 	stmdbvs	r9, {}	; <UNPREDICTABLE>
    44be:	7265746e 	rsbvc	r7, r5, #1845493760	; 0x6e000000
    44c2:	74657270 	strbtvc	r7, [r5], #-624	; 0x270

000044c6 <Code_1181>:
    44c6:	b500      	push	{lr}
    44c8:	485e      	ldr	r0, [pc, #376]	; (4644 <quit_innenschleife+0x3e>)
    44ca:	4287      	cmp	r7, r0
    44cc:	d90b      	bls.n	44e6 <Code_1181+0x20>
    44ce:	f7fe f8fa 	bl	26c6 <dotgaensefuesschen>
    44d2:	61745310 	cmnvs	r4, r0, lsl r3
    44d6:	75206b63 	strvc	r6, [r0, #-2915]!	; 0xb63
    44da:	7265646e 	rsbvc	r6, r5, #1845493760	; 0x6e000000
    44de:	776f6c66 	strbvc	r6, [pc, -r6, ror #24]!
    44e2:	e079000a 	rsbs	r0, r9, sl
    44e6:	4858      	ldr	r0, [pc, #352]	; (4648 <quit_innenschleife+0x42>)
    44e8:	4287      	cmp	r7, r0
    44ea:	d20a      	bcs.n	4502 <Code_1181+0x3c>
    44ec:	f7fe f8eb 	bl	26c6 <dotgaensefuesschen>
    44f0:	6174530f 	cmnvs	r4, pc, lsl #6
    44f4:	6f206b63 	svcvs	0x00206b63
    44f8:	66726576 			; <UNDEFINED> instruction: 0x66726576
    44fc:	0a776f6c 	beq	1de02b4 <BIT24+0xde02b4>
    4500:	e06b      	b.n	45da <Code_1206>
    4502:	f7ff fedb 	bl	42bc <konstantenfaltungszeiger_setzen>
    4506:	f7ff fcf7 	bl	3ef8 <Code_1079>
    450a:	2e00      	cmp	r6, #0
    450c:	d102      	bne.n	4514 <Code_1181+0x4e>
    450e:	3704      	adds	r7, #4
    4510:	cf40      	ldmia	r7!, {r6}
    4512:	bd00      	pop	{pc}
    4514:	6838      	ldr	r0, [r7, #0]
    4516:	f847 6d04 	str.w	r6, [r7, #-4]!
    451a:	3f04      	subs	r7, #4
    451c:	6038      	str	r0, [r7, #0]
    451e:	f7ff f8be 	bl	369e <Code_889>
    4522:	0031      	movs	r1, r6
    4524:	cf40      	ldmia	r7!, {r6}
    4526:	0032      	movs	r2, r6
    4528:	cf40      	ldmia	r7!, {r6}
    452a:	2a00      	cmp	r2, #0
    452c:	d115      	bne.n	455a <.interpret_token_found>
    452e:	6838      	ldr	r0, [r7, #0]
    4530:	0031      	movs	r1, r6
    4532:	f7fd f856 	bl	15e2 <sprungschreiber_flaggenerator>
    4536:	f7ff fd3d 	bl	3fb4 <Code_1086>
    453a:	0032      	movs	r2, r6
    453c:	cf40      	ldmia	r7!, {r6}
    453e:	2a00      	cmp	r2, #0
    4540:	d1c2      	bne.n	44c8 <Code_1181+0x2>

00004542 <not_found_addr_r0_len_r1>:
    4542:	f7fe f920 	bl	2786 <stype_addr_r0_len_r1>
    4546:	f7fe f8be 	bl	26c6 <dotgaensefuesschen>
    454a:	6f6e200c 	svcvs	0x006e200c
    454e:	6f662074 	svcvs	0x00662074
    4552:	2e646e75 	mcrcs	14, 3, r6, cr4, cr5, {3}
    4556:	e03f000a 	eors	r0, pc, sl

0000455a <.interpret_token_found>:
    455a:	4b3c      	ldr	r3, [pc, #240]	; (464c <quit_innenschleife+0x46>)
    455c:	681b      	ldr	r3, [r3, #0]
    455e:	2b00      	cmp	r3, #0
    4560:	d11c      	bne.n	459c <.ausfuehren+0x10>
    4562:	f7ff feb8 	bl	42d6 <konstantenfaltungszeiger_loeschen>
    4566:	2330      	movs	r3, #48	; 0x30
    4568:	400b      	ands	r3, r1
    456a:	2b30      	cmp	r3, #48	; 0x30
    456c:	d10e      	bne.n	458c <.ausfuehren>
    456e:	f7fe f906 	bl	277e <Code_624>
    4572:	f7fe f8a8 	bl	26c6 <dotgaensefuesschen>
    4576:	73692012 	cmnvc	r9, #18
    457a:	6d6f6320 	stclvs	3, cr6, [pc, #-128]!	; 4500 <Code_1181+0x3a>
    457e:	656c6970 	strbvs	r6, [ip, #-2416]!	; 0x970
    4582:	6c6e6f2d 	stclvs	15, cr6, [lr], #-180	; 0xffffff4c
    4586:	000a2e79 	andeq	r2, sl, r9, ror lr
    458a:	e026      	b.n	45da <Code_1206>

0000458c <.ausfuehren>:
    458c:	3704      	adds	r7, #4
    458e:	cf40      	ldmia	r7!, {r6}
    4590:	f847 6d04 	str.w	r6, [r7, #-4]!
    4594:	0016      	movs	r6, r2
    4596:	f7fe fc6e 	bl	2e76 <Code_742>
    459a:	e795      	b.n	44c8 <Code_1181+0x2>
    459c:	3704      	adds	r7, #4
    459e:	cf40      	ldmia	r7!, {r6}
    45a0:	f847 6d04 	str.w	r6, [r7, #-4]!
    45a4:	0016      	movs	r6, r2
    45a6:	f847 6d04 	str.w	r6, [r7, #-4]!
    45aa:	000e      	movs	r6, r1
    45ac:	f7ff fe9d 	bl	42ea <kompilator>
    45b0:	e78a      	b.n	44c8 <Code_1181+0x2>

000045b2 <Dictionary_1203>:
    45b2:	000045ce 	andeq	r4, r0, lr, asr #11
    45b6:	68090081 	stmdavs	r9, {r0, r7}
    45ba:	2d6b6f6f 	stclcs	15, cr6, [fp, #-444]!	; 0xfffffe44
    45be:	74697571 	strbtvc	r7, [r9], #-1393	; 0x571

000045c2 <Code_1203>:
    45c2:	f847 6d04 	str.w	r6, [r7, #-4]!
    45c6:	4e22      	ldr	r6, [pc, #136]	; (4650 <quit_innenschleife+0x4a>)
    45c8:	4770      	bx	lr
    45ca:	00004606 	andeq	r4, r0, r6, lsl #12

000045ce <Dictionary_1206>:
    45ce:	00004664 	andeq	r4, r0, r4, ror #12
    45d2:	71040000 	mrsvc	r0, (UNDEF: 4)
    45d6:	00746975 	rsbseq	r6, r4, r5, ror r9

000045da <Code_1206>:
    45da:	f8df d078 	ldr.w	sp, [pc, #120]	; 4654 <quit_innenschleife+0x4e>
    45de:	4f19      	ldr	r7, [pc, #100]	; (4644 <quit_innenschleife+0x3e>)
    45e0:	481d      	ldr	r0, [pc, #116]	; (4658 <quit_innenschleife+0x52>)
    45e2:	210a      	movs	r1, #10
    45e4:	6001      	str	r1, [r0, #0]
    45e6:	4819      	ldr	r0, [pc, #100]	; (464c <quit_innenschleife+0x46>)
    45e8:	2100      	movs	r1, #0
    45ea:	6001      	str	r1, [r0, #0]
    45ec:	480b      	ldr	r0, [pc, #44]	; (461c <quit_innenschleife+0x16>)
    45ee:	6001      	str	r1, [r0, #0]
    45f0:	f7fb fe4d 	bl	28e <init_register_allocator>
    45f4:	4812      	ldr	r0, [pc, #72]	; (4640 <quit_innenschleife+0x3a>)
    45f6:	6001      	str	r1, [r0, #0]
    45f8:	4818      	ldr	r0, [pc, #96]	; (465c <quit_innenschleife+0x56>)
    45fa:	6001      	str	r1, [r0, #0]
    45fc:	4918      	ldr	r1, [pc, #96]	; (4660 <quit_innenschleife+0x5a>)
    45fe:	6041      	str	r1, [r0, #4]

00004600 <quit_intern>:
    4600:	4813      	ldr	r0, [pc, #76]	; (4650 <quit_innenschleife+0x4a>)
    4602:	6800      	ldr	r0, [r0, #0]
    4604:	4687      	mov	pc, r0

00004606 <quit_innenschleife>:
    4606:	f7fd ffb6 	bl	2576 <Code_574>
    460a:	f7ff ff5c 	bl	44c6 <Code_1181>
    460e:	f7fe f85a 	bl	26c6 <dotgaensefuesschen>
    4612:	6b6f2005 	blvs	1bcc62e <BIT24+0xbcc62e>
    4616:	e7f50a2e 	ldrb	r0, [r5, lr, lsr #20]!
    461a:	00080000 	andeq	r0, r8, r0
    461e:	10002000 	andne	r2, r0, r0
    4622:	04000000 	streq	r0, [r0]
    4626:	20000000 	andcs	r0, r0, r0
    462a:	02000000 	andeq	r0, r0, #0
    462e:	00280000 	eoreq	r0, r8, r0
    4632:	08002000 	stmdaeq	r0, {sp}
    4636:	005c0000 	subseq	r0, ip, r0
    463a:	00602000 	rsbeq	r2, r0, r0
    463e:	ffe42000 			; <UNDEFINED> instruction: 0xffe42000
    4642:	028c2001 	addeq	r2, ip, #1
    4646:	018c2000 	orreq	r2, ip, r0
    464a:	ffd82000 			; <UNDEFINED> instruction: 0xffd82000
    464e:	ffd42001 			; <UNDEFINED> instruction: 0xffd42001
    4652:	038c2001 	orreq	r2, ip, #1
    4656:	fffc2000 			; <UNDEFINED> instruction: 0xfffc2000
    465a:	ffdc2001 			; <UNDEFINED> instruction: 0xffdc2001
    465e:	00c42001 	sbceq	r2, r4, r1
    4662:	467e2000 	ldrbtmi	r2, [lr], -r0

00004664 <Dictionary_1208>:
    4664:	0000467e 	andeq	r4, r0, lr, ror r6
    4668:	65050000 	strvs	r0, [r5]
    466c:	3f746e69 	svccc	0x00746e69

00004670 <Code_1208>:
    4670:	f847 6d04 	str.w	r6, [r7, #-4]!
    4674:	f3ef 8610 	mrs	r6, PRIMASK
    4678:	3e01      	subs	r6, #1
    467a:	41b6      	sbcs	r6, r6
    467c:	4770      	bx	lr

0000467e <Dictionary_1210>:
    467e:	0000468e 	andeq	r4, r0, lr, lsl #13
    4682:	65040020 	strvs	r0, [r4, #-32]
    4686:	00746e69 	rsbseq	r6, r4, r9, ror #28

0000468a <Code_1210>:
    468a:	b662      	cpsie	i
    468c:	4770      	bx	lr

0000468e <Dictionary_1211>:
    468e:	0000469e 	muleq	r0, lr, r6
    4692:	64040020 	strvs	r0, [r4], #-32
    4696:	00746e69 	rsbseq	r6, r4, r9, ror #28

0000469a <Code_1211>:
    469a:	b672      	cpsid	i
    469c:	4770      	bx	lr

0000469e <Dictionary_1212>:
    469e:	000046b4 			; <UNDEFINED> instruction: 0x000046b4
    46a2:	69040020 	stmdbvs	r4, {r5}
    46a6:	00727370 	rsbseq	r7, r2, r0, ror r3

000046aa <Code_1212>:
    46aa:	f847 6d04 	str.w	r6, [r7, #-4]!
    46ae:	f3ef 8605 	mrs	r6, IPSR
    46b2:	4770      	bx	lr

000046b4 <Dictionary_1214>:
    46b4:	000046c0 	andeq	r4, r0, r0, asr #13
    46b8:	6e030000 	cdpvs	0, 0, cr0, cr3, cr0, {0}
    46bc:	4770706f 	ldrbmi	r7, [r0, -pc, rrx]!

000046be <Code_1214>:
    46be:	4770      	bx	lr

000046c0 <Dictionary_1215>:
    46c0:	00004702 	andeq	r4, r0, r2, lsl #14
    46c4:	75090000 	strvc	r0, [r9]
    46c8:	6e61686e 	cdpvs	8, 6, cr6, cr1, cr14, {3}
    46cc:	64656c64 	strbtvs	r6, [r5], #-3172	; 0xc64

000046d0 <Code_1215>:
    46d0:	b500      	push	{lr}
    46d2:	f7fd fff8 	bl	26c6 <dotgaensefuesschen>
    46d6:	686e5514 	stmdavs	lr!, {r2, r4, r8, sl, ip, lr}^
    46da:	6c646e61 	stclvs	14, cr6, [r4], #-388	; 0xfffffe7c
    46de:	49206465 	stmdbmi	r0!, {r0, r2, r5, r6, sl, sp, lr}
    46e2:	7265746e 	rsbvc	r7, r5, #1845493760	; 0x6e000000
    46e6:	74707572 	ldrbtvc	r7, [r0], #-1394	; 0x572
    46ea:	f8470020 			; <UNDEFINED> instruction: 0xf8470020
    46ee:	6d04      	ldr	r4, [r0, #80]	; 0x50
    46f0:	f3ef 8605 	mrs	r6, IPSR
    46f4:	f7fe f85a 	bl	27ac <Code_628>
    46f8:	f7fd ffe5 	bl	26c6 <dotgaensefuesschen>
    46fc:	000a2102 	andeq	r2, sl, r2, lsl #2
    4700:	bd00      	pop	{pc}

00004702 <Dictionary_1219>:
    4702:	00004718 	andeq	r4, r0, r8, lsl r7
    4706:	72050000 	andvc	r0, r5, #0
    470a:	74657365 	strbtvc	r7, [r5], #-869	; 0x365

0000470e <Code_1219>:
    470e:	f8df 06a8 	ldr.w	r0, [pc, #1704]	; 4db8 <init_name+0x6>
    4712:	f8df 16a8 	ldr.w	r1, [pc, #1704]	; 4dbc <init_name+0xa>
    4716:	6001      	str	r1, [r0, #0]

00004718 <Dictionary_1221>:
    4718:	00004744 	andeq	r4, r0, r4, asr #14
    471c:	690b0081 	stmdbvs	fp, {r0, r7}
    4720:	732d7172 	teqvc	sp, #-2147483620	; 0x8000001c
    4724:	69747379 	ldmdbvs	r4!, {r0, r3, r4, r5, r6, r8, r9, ip, sp, lr}^
    4728:	f8476b63 			; <UNDEFINED> instruction: 0xf8476b63

0000472a <Code_1221>:
    472a:	f847 6d04 	str.w	r6, [r7, #-4]!
    472e:	f8df 6690 	ldr.w	r6, [pc, #1680]	; 4dc0 <init_name+0xe>
    4732:	4770      	bx	lr
    4734:	000046d0 	ldrdeq	r4, [r0], -r0

00004738 <irq_vektor_systick>:
    4738:	f64f 70d0 	movw	r0, #65488	; 0xffd0
    473c:	f2c2 0001 	movt	r0, #8193	; 0x2001
    4740:	6800      	ldr	r0, [r0, #0]
    4742:	4687      	mov	pc, r0

00004744 <Dictionary_1225>:
    4744:	0000476e 	andeq	r4, r0, lr, ror #14
    4748:	69090081 	stmdbvs	r9, {r0, r7}
    474c:	662d7172 			; <UNDEFINED> instruction: 0x662d7172
    4750:	746c7561 	strbtvc	r7, [ip], #-1377	; 0x561

00004754 <Code_1225>:
    4754:	f847 6d04 	str.w	r6, [r7, #-4]!
    4758:	f8df 6668 	ldr.w	r6, [pc, #1640]	; 4dc4 <init_name+0x12>
    475c:	4770      	bx	lr
    475e:	000046d0 	ldrdeq	r4, [r0], -r0

00004762 <faulthandler>:
    4762:	f64f 70cc 	movw	r0, #65484	; 0xffcc
    4766:	f2c2 0001 	movt	r0, #8193	; 0x2001
    476a:	6800      	ldr	r0, [r0, #0]
    476c:	4687      	mov	pc, r0

0000476e <Dictionary_1229>:
    476e:	0000479e 	muleq	r0, lr, r7
    4772:	690e0081 	stmdbvs	lr, {r0, r7}
    4776:	632d7172 	teqvs	sp, #-2147483620	; 0x8000001c
    477a:	656c6c6f 	strbvs	r6, [ip, #-3183]!	; 0xc6f
    477e:	6f697463 	svcvs	0x00697463
    4782:	f847006e 			; <UNDEFINED> instruction: 0xf847006e

00004784 <Code_1229>:
    4784:	f847 6d04 	str.w	r6, [r7, #-4]!
    4788:	f8df 663c 	ldr.w	r6, [pc, #1596]	; 4dc8 <init_name+0x16>
    478c:	4770      	bx	lr
    478e:	000046d0 	ldrdeq	r4, [r0], -r0

00004792 <nullhandler>:
    4792:	f64f 70c8 	movw	r0, #65480	; 0xffc8
    4796:	f2c2 0001 	movt	r0, #8193	; 0x2001
    479a:	6800      	ldr	r0, [r0, #0]
    479c:	4687      	mov	pc, r0

0000479e <Dictionary_1233>:
    479e:	000047c6 	andeq	r4, r0, r6, asr #15
    47a2:	69070081 	stmdbvs	r7, {r0, r7}
    47a6:	642d7172 	strtvs	r7, [sp], #-370	; 0x172
    47aa:	f847616d 			; <UNDEFINED> instruction: 0xf847616d

000047ac <Code_1233>:
    47ac:	f847 6d04 	str.w	r6, [r7, #-4]!
    47b0:	f8df 6618 	ldr.w	r6, [pc, #1560]	; 4dcc <init_name+0x1a>
    47b4:	4770      	bx	lr
    47b6:	000046d0 	ldrdeq	r4, [r0], -r0

000047ba <irq_vektor_dma>:
    47ba:	f64f 70c4 	movw	r0, #65476	; 0xffc4
    47be:	f2c2 0001 	movt	r0, #8193	; 0x2001
    47c2:	6800      	ldr	r0, [r0, #0]
    47c4:	4687      	mov	pc, r0

000047c6 <Dictionary_1237>:
    47c6:	000047f4 	strdeq	r4, [r0], -r4	; <UNPREDICTABLE>
    47ca:	690c0081 	stmdbvs	ip, {r0, r7}
    47ce:	672d7172 			; <UNDEFINED> instruction: 0x672d7172
    47d2:	656f6970 	strbvs	r6, [pc, #-2416]!	; 3e6a <Dictionary_1066+0x6>
    47d6:	006e6576 	rsbeq	r6, lr, r6, ror r5

000047da <Code_1237>:
    47da:	f847 6d04 	str.w	r6, [r7, #-4]!
    47de:	f8df 65f0 	ldr.w	r6, [pc, #1520]	; 4dd0 <init_name+0x1e>
    47e2:	4770      	bx	lr
    47e4:	000046d0 	ldrdeq	r4, [r0], -r0

000047e8 <irq_vektor_gpioeven>:
    47e8:	f64f 70c0 	movw	r0, #65472	; 0xffc0
    47ec:	f2c2 0001 	movt	r0, #8193	; 0x2001
    47f0:	6800      	ldr	r0, [r0, #0]
    47f2:	4687      	mov	pc, r0

000047f4 <Dictionary_1241>:
    47f4:	00004820 	andeq	r4, r0, r0, lsr #16
    47f8:	690a0081 	stmdbvs	sl, {r0, r7}
    47fc:	742d7172 	strtvc	r7, [sp], #-370	; 0x172
    4800:	72656d69 	rsbvc	r6, r5, #6720	; 0x1a40
    4804:	f8470030 			; <UNDEFINED> instruction: 0xf8470030

00004806 <Code_1241>:
    4806:	f847 6d04 	str.w	r6, [r7, #-4]!
    480a:	f8df 65c8 	ldr.w	r6, [pc, #1480]	; 4dd4 <init_name+0x22>
    480e:	4770      	bx	lr
    4810:	000046d0 	ldrdeq	r4, [r0], -r0

00004814 <irq_vektor_timer0>:
    4814:	f64f 70bc 	movw	r0, #65468	; 0xffbc
    4818:	f2c2 0001 	movt	r0, #8193	; 0x2001
    481c:	6800      	ldr	r0, [r0, #0]
    481e:	4687      	mov	pc, r0

00004820 <Dictionary_1245>:
    4820:	0000484e 	andeq	r4, r0, lr, asr #16
    4824:	690c0081 	stmdbvs	ip, {r0, r7}
    4828:	752d7172 	strvc	r7, [sp, #-370]!	; 0x172
    482c:	74726173 	ldrbtvc	r6, [r2], #-371	; 0x173
    4830:	00787230 	rsbseq	r7, r8, r0, lsr r2

00004834 <Code_1245>:
    4834:	f847 6d04 	str.w	r6, [r7, #-4]!
    4838:	f8df 659c 	ldr.w	r6, [pc, #1436]	; 4dd8 <init_name+0x26>
    483c:	4770      	bx	lr
    483e:	000046d0 	ldrdeq	r4, [r0], -r0

00004842 <irq_vektor_usart0rx>:
    4842:	f64f 70b8 	movw	r0, #65464	; 0xffb8
    4846:	f2c2 0001 	movt	r0, #8193	; 0x2001
    484a:	6800      	ldr	r0, [r0, #0]
    484c:	4687      	mov	pc, r0

0000484e <Dictionary_1249>:
    484e:	0000487c 	andeq	r4, r0, ip, ror r8
    4852:	690c0081 	stmdbvs	ip, {r0, r7}
    4856:	752d7172 	strvc	r7, [sp, #-370]!	; 0x172
    485a:	74726173 	ldrbtvc	r6, [r2], #-371	; 0x173
    485e:	00787430 	rsbseq	r7, r8, r0, lsr r4

00004862 <Code_1249>:
    4862:	f847 6d04 	str.w	r6, [r7, #-4]!
    4866:	f8df 6574 	ldr.w	r6, [pc, #1396]	; 4ddc <init_name+0x2a>
    486a:	4770      	bx	lr
    486c:	000046d0 	ldrdeq	r4, [r0], -r0

00004870 <irq_vektor_usart0tx>:
    4870:	f64f 70b4 	movw	r0, #65460	; 0xffb4
    4874:	f2c2 0001 	movt	r0, #8193	; 0x2001
    4878:	6800      	ldr	r0, [r0, #0]
    487a:	4687      	mov	pc, r0

0000487c <Dictionary_1253>:
    487c:	000048a6 	andeq	r4, r0, r6, lsr #17
    4880:	69090081 	stmdbvs	r9, {r0, r7}
    4884:	612d7172 	teqvs	sp, r2, ror r1
    4888:	30706d63 	rsbscc	r6, r0, r3, ror #26

0000488c <Code_1253>:
    488c:	f847 6d04 	str.w	r6, [r7, #-4]!
    4890:	f8df 654c 	ldr.w	r6, [pc, #1356]	; 4de0 <init_name+0x2e>
    4894:	4770      	bx	lr
    4896:	000046d0 	ldrdeq	r4, [r0], -r0

0000489a <irq_vektor_acmp0>:
    489a:	f64f 70b0 	movw	r0, #65456	; 0xffb0
    489e:	f2c2 0001 	movt	r0, #8193	; 0x2001
    48a2:	6800      	ldr	r0, [r0, #0]
    48a4:	4687      	mov	pc, r0

000048a6 <Dictionary_1257>:
    48a6:	000048d0 	ldrdeq	r4, [r0], -r0
    48aa:	69080081 	stmdbvs	r8, {r0, r7}
    48ae:	612d7172 	teqvs	sp, r2, ror r1
    48b2:	00306364 	eorseq	r6, r0, r4, ror #6

000048b6 <Code_1257>:
    48b6:	f847 6d04 	str.w	r6, [r7, #-4]!
    48ba:	f8df 6528 	ldr.w	r6, [pc, #1320]	; 4de4 <init_name+0x32>
    48be:	4770      	bx	lr
    48c0:	000046d0 	ldrdeq	r4, [r0], -r0

000048c4 <irq_vektor_adc0>:
    48c4:	f64f 70ac 	movw	r0, #65452	; 0xffac
    48c8:	f2c2 0001 	movt	r0, #8193	; 0x2001
    48cc:	6800      	ldr	r0, [r0, #0]
    48ce:	4687      	mov	pc, r0

000048d0 <Dictionary_1261>:
    48d0:	000048fa 	strdeq	r4, [r0], -sl
    48d4:	69080081 	stmdbvs	r8, {r0, r7}
    48d8:	642d7172 	strtvs	r7, [sp], #-370	; 0x172
    48dc:	00306361 	eorseq	r6, r0, r1, ror #6

000048e0 <Code_1261>:
    48e0:	f847 6d04 	str.w	r6, [r7, #-4]!
    48e4:	f8df 6500 	ldr.w	r6, [pc, #1280]	; 4de8 <init_name+0x36>
    48e8:	4770      	bx	lr
    48ea:	000046d0 	ldrdeq	r4, [r0], -r0

000048ee <irq_vektor_dac0>:
    48ee:	f64f 70a8 	movw	r0, #65448	; 0xffa8
    48f2:	f2c2 0001 	movt	r0, #8193	; 0x2001
    48f6:	6800      	ldr	r0, [r0, #0]
    48f8:	4687      	mov	pc, r0

000048fa <Dictionary_1265>:
    48fa:	00004924 	andeq	r4, r0, r4, lsr #18
    48fe:	69080081 	stmdbvs	r8, {r0, r7}
    4902:	692d7172 	pushvs	{r1, r4, r5, r6, r8, ip, sp, lr}
    4906:	00306332 	eorseq	r6, r0, r2, lsr r3

0000490a <Code_1265>:
    490a:	f847 6d04 	str.w	r6, [r7, #-4]!
    490e:	f8df 64dc 	ldr.w	r6, [pc, #1244]	; 4dec <init_name+0x3a>
    4912:	4770      	bx	lr
    4914:	000046d0 	ldrdeq	r4, [r0], -r0

00004918 <irq_vektor_i2c0>:
    4918:	f64f 70a4 	movw	r0, #65444	; 0xffa4
    491c:	f2c2 0001 	movt	r0, #8193	; 0x2001
    4920:	6800      	ldr	r0, [r0, #0]
    4922:	4687      	mov	pc, r0

00004924 <Dictionary_1269>:
    4924:	00004950 	andeq	r4, r0, r0, asr r9
    4928:	690b0081 	stmdbvs	fp, {r0, r7}
    492c:	672d7172 			; <UNDEFINED> instruction: 0x672d7172
    4930:	6f6f6970 	svcvs	0x006f6970
    4934:	f8476464 			; <UNDEFINED> instruction: 0xf8476464

00004936 <Code_1269>:
    4936:	f847 6d04 	str.w	r6, [r7, #-4]!
    493a:	f8df 64b4 	ldr.w	r6, [pc, #1204]	; 4df0 <init_name+0x3e>
    493e:	4770      	bx	lr
    4940:	000046d0 	ldrdeq	r4, [r0], -r0

00004944 <irq_vektor_gpioodd>:
    4944:	f64f 70a0 	movw	r0, #65440	; 0xffa0
    4948:	f2c2 0001 	movt	r0, #8193	; 0x2001
    494c:	6800      	ldr	r0, [r0, #0]
    494e:	4687      	mov	pc, r0

00004950 <Dictionary_1273>:
    4950:	0000497c 	andeq	r4, r0, ip, ror r9
    4954:	690a0081 	stmdbvs	sl, {r0, r7}
    4958:	742d7172 	strtvc	r7, [sp], #-370	; 0x172
    495c:	72656d69 	rsbvc	r6, r5, #6720	; 0x1a40
    4960:	f8470031 			; <UNDEFINED> instruction: 0xf8470031

00004962 <Code_1273>:
    4962:	f847 6d04 	str.w	r6, [r7, #-4]!
    4966:	f8df 648c 	ldr.w	r6, [pc, #1164]	; 4df4 <init_name+0x42>
    496a:	4770      	bx	lr
    496c:	000046d0 	ldrdeq	r4, [r0], -r0

00004970 <irq_vektor_timer1>:
    4970:	f64f 709c 	movw	r0, #65436	; 0xff9c
    4974:	f2c2 0001 	movt	r0, #8193	; 0x2001
    4978:	6800      	ldr	r0, [r0, #0]
    497a:	4687      	mov	pc, r0

0000497c <Dictionary_1277>:
    497c:	000049a8 	andeq	r4, r0, r8, lsr #19
    4980:	690a0081 	stmdbvs	sl, {r0, r7}
    4984:	742d7172 	strtvc	r7, [sp], #-370	; 0x172
    4988:	72656d69 	rsbvc	r6, r5, #6720	; 0x1a40
    498c:	f8470032 			; <UNDEFINED> instruction: 0xf8470032

0000498e <Code_1277>:
    498e:	f847 6d04 	str.w	r6, [r7, #-4]!
    4992:	f8df 6464 	ldr.w	r6, [pc, #1124]	; 4df8 <init_name+0x46>
    4996:	4770      	bx	lr
    4998:	000046d0 	ldrdeq	r4, [r0], -r0

0000499c <irq_vektor_timer2>:
    499c:	f64f 7098 	movw	r0, #65432	; 0xff98
    49a0:	f2c2 0001 	movt	r0, #8193	; 0x2001
    49a4:	6800      	ldr	r0, [r0, #0]
    49a6:	4687      	mov	pc, r0

000049a8 <Dictionary_1281>:
    49a8:	000049d6 	ldrdeq	r4, [r0], -r6
    49ac:	690c0081 	stmdbvs	ip, {r0, r7}
    49b0:	752d7172 	strvc	r7, [sp, #-370]!	; 0x172
    49b4:	74726173 	ldrbtvc	r6, [r2], #-371	; 0x173
    49b8:	00787231 	rsbseq	r7, r8, r1, lsr r2

000049bc <Code_1281>:
    49bc:	f847 6d04 	str.w	r6, [r7, #-4]!
    49c0:	f8df 6438 	ldr.w	r6, [pc, #1080]	; 4dfc <init_name+0x4a>
    49c4:	4770      	bx	lr
    49c6:	000046d0 	ldrdeq	r4, [r0], -r0

000049ca <irq_vektor_usart1rx>:
    49ca:	f64f 7094 	movw	r0, #65428	; 0xff94
    49ce:	f2c2 0001 	movt	r0, #8193	; 0x2001
    49d2:	6800      	ldr	r0, [r0, #0]
    49d4:	4687      	mov	pc, r0

000049d6 <Dictionary_1285>:
    49d6:	00004a04 	andeq	r4, r0, r4, lsl #20
    49da:	690c0081 	stmdbvs	ip, {r0, r7}
    49de:	752d7172 	strvc	r7, [sp, #-370]!	; 0x172
    49e2:	74726173 	ldrbtvc	r6, [r2], #-371	; 0x173
    49e6:	00787431 	rsbseq	r7, r8, r1, lsr r4

000049ea <Code_1285>:
    49ea:	f847 6d04 	str.w	r6, [r7, #-4]!
    49ee:	f8df 6410 	ldr.w	r6, [pc, #1040]	; 4e00 <init_name+0x4e>
    49f2:	4770      	bx	lr
    49f4:	000046d0 	ldrdeq	r4, [r0], -r0

000049f8 <irq_vektor_usart1tx>:
    49f8:	f64f 7090 	movw	r0, #65424	; 0xff90
    49fc:	f2c2 0001 	movt	r0, #8193	; 0x2001
    4a00:	6800      	ldr	r0, [r0, #0]
    4a02:	4687      	mov	pc, r0

00004a04 <Dictionary_1289>:
    4a04:	00004a30 	andeq	r4, r0, r0, lsr sl
    4a08:	690c0081 	stmdbvs	ip, {r0, r7}
    4a0c:	752d7172 	strvc	r7, [sp, #-370]!	; 0x172
    4a10:	74726173 	ldrbtvc	r6, [r2], #-371	; 0x173
    4a14:	00787232 	rsbseq	r7, r8, r2, lsr r2

00004a18 <Code_1289>:
    4a18:	f847 6d04 	str.w	r6, [r7, #-4]!
    4a1c:	4ef9      	ldr	r6, [pc, #996]	; (4e04 <init_name+0x52>)
    4a1e:	4770      	bx	lr
    4a20:	000046d0 	ldrdeq	r4, [r0], -r0

00004a24 <irq_vektor_usart2rx>:
    4a24:	f64f 708c 	movw	r0, #65420	; 0xff8c
    4a28:	f2c2 0001 	movt	r0, #8193	; 0x2001
    4a2c:	6800      	ldr	r0, [r0, #0]
    4a2e:	4687      	mov	pc, r0

00004a30 <Dictionary_1293>:
    4a30:	00004a5c 	andeq	r4, r0, ip, asr sl
    4a34:	690c0081 	stmdbvs	ip, {r0, r7}
    4a38:	752d7172 	strvc	r7, [sp, #-370]!	; 0x172
    4a3c:	74726173 	ldrbtvc	r6, [r2], #-371	; 0x173
    4a40:	00787432 	rsbseq	r7, r8, r2, lsr r4

00004a44 <Code_1293>:
    4a44:	f847 6d04 	str.w	r6, [r7, #-4]!
    4a48:	4eef      	ldr	r6, [pc, #956]	; (4e08 <init_name+0x56>)
    4a4a:	4770      	bx	lr
    4a4c:	000046d0 	ldrdeq	r4, [r0], -r0

00004a50 <irq_vektor_usart2tx>:
    4a50:	f64f 7088 	movw	r0, #65416	; 0xff88
    4a54:	f2c2 0001 	movt	r0, #8193	; 0x2001
    4a58:	6800      	ldr	r0, [r0, #0]
    4a5a:	4687      	mov	pc, r0

00004a5c <Dictionary_1297>:
    4a5c:	00004a86 	andeq	r4, r0, r6, lsl #21
    4a60:	690b0081 	stmdbvs	fp, {r0, r7}
    4a64:	752d7172 	strvc	r7, [sp, #-370]!	; 0x172
    4a68:	30747261 	rsbscc	r7, r4, r1, ror #4
    4a6c:	f8477872 			; <UNDEFINED> instruction: 0xf8477872

00004a6e <Code_1297>:
    4a6e:	f847 6d04 	str.w	r6, [r7, #-4]!
    4a72:	4ee6      	ldr	r6, [pc, #920]	; (4e0c <init_name+0x5a>)
    4a74:	4770      	bx	lr
    4a76:	000046d0 	ldrdeq	r4, [r0], -r0

00004a7a <irq_vektor_uart0rx>:
    4a7a:	f64f 7084 	movw	r0, #65412	; 0xff84
    4a7e:	f2c2 0001 	movt	r0, #8193	; 0x2001
    4a82:	6800      	ldr	r0, [r0, #0]
    4a84:	4687      	mov	pc, r0

00004a86 <Dictionary_1301>:
    4a86:	00004ab0 			; <UNDEFINED> instruction: 0x00004ab0
    4a8a:	690b0081 	stmdbvs	fp, {r0, r7}
    4a8e:	752d7172 	strvc	r7, [sp, #-370]!	; 0x172
    4a92:	30747261 	rsbscc	r7, r4, r1, ror #4
    4a96:	f8477874 			; <UNDEFINED> instruction: 0xf8477874

00004a98 <Code_1301>:
    4a98:	f847 6d04 	str.w	r6, [r7, #-4]!
    4a9c:	4edc      	ldr	r6, [pc, #880]	; (4e10 <init_name+0x5e>)
    4a9e:	4770      	bx	lr
    4aa0:	000046d0 	ldrdeq	r4, [r0], -r0

00004aa4 <irq_vektor_uart0tx>:
    4aa4:	f64f 7080 	movw	r0, #65408	; 0xff80
    4aa8:	f2c2 0001 	movt	r0, #8193	; 0x2001
    4aac:	6800      	ldr	r0, [r0, #0]
    4aae:	4687      	mov	pc, r0

00004ab0 <Dictionary_1305>:
    4ab0:	00004ada 	ldrdeq	r4, [r0], -sl
    4ab4:	690b0081 	stmdbvs	fp, {r0, r7}
    4ab8:	6c2d7172 	stfvss	f7, [sp], #-456	; 0xfffffe38
    4abc:	72617565 	rsbvc	r7, r1, #423624704	; 0x19400000
    4ac0:	f8473074 			; <UNDEFINED> instruction: 0xf8473074

00004ac2 <Code_1305>:
    4ac2:	f847 6d04 	str.w	r6, [r7, #-4]!
    4ac6:	4ed3      	ldr	r6, [pc, #844]	; (4e14 <init_name+0x62>)
    4ac8:	4770      	bx	lr
    4aca:	000046d0 	ldrdeq	r4, [r0], -r0

00004ace <irq_vektor_leuart0>:
    4ace:	f64f 707c 	movw	r0, #65404	; 0xff7c
    4ad2:	f2c2 0001 	movt	r0, #8193	; 0x2001
    4ad6:	6800      	ldr	r0, [r0, #0]
    4ad8:	4687      	mov	pc, r0

00004ada <Dictionary_1309>:
    4ada:	00004b04 	andeq	r4, r0, r4, lsl #22
    4ade:	690b0081 	stmdbvs	fp, {r0, r7}
    4ae2:	6c2d7172 	stfvss	f7, [sp], #-456	; 0xfffffe38
    4ae6:	72617565 	rsbvc	r7, r1, #423624704	; 0x19400000
    4aea:	f8473174 			; <UNDEFINED> instruction: 0xf8473174

00004aec <Code_1309>:
    4aec:	f847 6d04 	str.w	r6, [r7, #-4]!
    4af0:	4ec9      	ldr	r6, [pc, #804]	; (4e18 <init_name+0x66>)
    4af2:	4770      	bx	lr
    4af4:	000046d0 	ldrdeq	r4, [r0], -r0

00004af8 <irq_vektor_leuart1>:
    4af8:	f64f 7078 	movw	r0, #65400	; 0xff78
    4afc:	f2c2 0001 	movt	r0, #8193	; 0x2001
    4b00:	6800      	ldr	r0, [r0, #0]
    4b02:	4687      	mov	pc, r0

00004b04 <Dictionary_1313>:
    4b04:	00004b30 	andeq	r4, r0, r0, lsr fp
    4b08:	690c0081 	stmdbvs	ip, {r0, r7}
    4b0c:	6c2d7172 	stfvss	f7, [sp], #-456	; 0xfffffe38
    4b10:	6d697465 	cfstrdvs	mvd7, [r9, #-404]!	; 0xfffffe6c
    4b14:	00307265 	eorseq	r7, r0, r5, ror #4

00004b18 <Code_1313>:
    4b18:	f847 6d04 	str.w	r6, [r7, #-4]!
    4b1c:	4ebf      	ldr	r6, [pc, #764]	; (4e1c <init_name+0x6a>)
    4b1e:	4770      	bx	lr
    4b20:	000046d0 	ldrdeq	r4, [r0], -r0

00004b24 <irq_vektor_letimer0>:
    4b24:	f64f 7074 	movw	r0, #65396	; 0xff74
    4b28:	f2c2 0001 	movt	r0, #8193	; 0x2001
    4b2c:	6800      	ldr	r0, [r0, #0]
    4b2e:	4687      	mov	pc, r0

00004b30 <Dictionary_1317>:
    4b30:	00004b58 	andeq	r4, r0, r8, asr fp
    4b34:	69090081 	stmdbvs	r9, {r0, r7}
    4b38:	702d7172 	eorvc	r7, sp, r2, ror r1
    4b3c:	30746e63 	rsbscc	r6, r4, r3, ror #28

00004b40 <Code_1317>:
    4b40:	f847 6d04 	str.w	r6, [r7, #-4]!
    4b44:	4eb6      	ldr	r6, [pc, #728]	; (4e20 <init_name+0x6e>)
    4b46:	4770      	bx	lr
    4b48:	000046d0 	ldrdeq	r4, [r0], -r0

00004b4c <irq_vektor_pcnt0>:
    4b4c:	f64f 7070 	movw	r0, #65392	; 0xff70
    4b50:	f2c2 0001 	movt	r0, #8193	; 0x2001
    4b54:	6800      	ldr	r0, [r0, #0]
    4b56:	4687      	mov	pc, r0

00004b58 <Dictionary_1321>:
    4b58:	00004b80 	andeq	r4, r0, r0, lsl #23
    4b5c:	69090081 	stmdbvs	r9, {r0, r7}
    4b60:	702d7172 	eorvc	r7, sp, r2, ror r1
    4b64:	31746e63 	cmncc	r4, r3, ror #28

00004b68 <Code_1321>:
    4b68:	f847 6d04 	str.w	r6, [r7, #-4]!
    4b6c:	4ead      	ldr	r6, [pc, #692]	; (4e24 <init_name+0x72>)
    4b6e:	4770      	bx	lr
    4b70:	000046d0 	ldrdeq	r4, [r0], -r0

00004b74 <irq_vektor_pcnt1>:
    4b74:	f64f 706c 	movw	r0, #65388	; 0xff6c
    4b78:	f2c2 0001 	movt	r0, #8193	; 0x2001
    4b7c:	6800      	ldr	r0, [r0, #0]
    4b7e:	4687      	mov	pc, r0

00004b80 <Dictionary_1325>:
    4b80:	00004ba8 	andeq	r4, r0, r8, lsr #23
    4b84:	69090081 	stmdbvs	r9, {r0, r7}
    4b88:	702d7172 	eorvc	r7, sp, r2, ror r1
    4b8c:	32746e63 	rsbscc	r6, r4, #1584	; 0x630

00004b90 <Code_1325>:
    4b90:	f847 6d04 	str.w	r6, [r7, #-4]!
    4b94:	4ea4      	ldr	r6, [pc, #656]	; (4e28 <init_name+0x76>)
    4b96:	4770      	bx	lr
    4b98:	000046d0 	ldrdeq	r4, [r0], -r0

00004b9c <irq_vektor_pcnt2>:
    4b9c:	f64f 7068 	movw	r0, #65384	; 0xff68
    4ba0:	f2c2 0001 	movt	r0, #8193	; 0x2001
    4ba4:	6800      	ldr	r0, [r0, #0]
    4ba6:	4687      	mov	pc, r0

00004ba8 <Dictionary_1329>:
    4ba8:	00004bce 	andeq	r4, r0, lr, asr #23
    4bac:	69070081 	stmdbvs	r7, {r0, r7}
    4bb0:	722d7172 	eorvc	r7, sp, #-2147483620	; 0x8000001c
    4bb4:	f8476374 			; <UNDEFINED> instruction: 0xf8476374

00004bb6 <Code_1329>:
    4bb6:	f847 6d04 	str.w	r6, [r7, #-4]!
    4bba:	4e9c      	ldr	r6, [pc, #624]	; (4e2c <init_name+0x7a>)
    4bbc:	4770      	bx	lr
    4bbe:	000046d0 	ldrdeq	r4, [r0], -r0

00004bc2 <irq_vektor_rtc>:
    4bc2:	f64f 7064 	movw	r0, #65380	; 0xff64
    4bc6:	f2c2 0001 	movt	r0, #8193	; 0x2001
    4bca:	6800      	ldr	r0, [r0, #0]
    4bcc:	4687      	mov	pc, r0

00004bce <Dictionary_1333>:
    4bce:	00004bf4 	strdeq	r4, [r0], -r4	; <UNPREDICTABLE>
    4bd2:	69070081 	stmdbvs	r7, {r0, r7}
    4bd6:	632d7172 	teqvs	sp, #-2147483620	; 0x8000001c
    4bda:	f847756d 			; <UNDEFINED> instruction: 0xf847756d

00004bdc <Code_1333>:
    4bdc:	f847 6d04 	str.w	r6, [r7, #-4]!
    4be0:	4e93      	ldr	r6, [pc, #588]	; (4e30 <init_name+0x7e>)
    4be2:	4770      	bx	lr
    4be4:	000046d0 	ldrdeq	r4, [r0], -r0

00004be8 <irq_vektor_cmu>:
    4be8:	f64f 7060 	movw	r0, #65376	; 0xff60
    4bec:	f2c2 0001 	movt	r0, #8193	; 0x2001
    4bf0:	6800      	ldr	r0, [r0, #0]
    4bf2:	4687      	mov	pc, r0

00004bf4 <Dictionary_1337>:
    4bf4:	00004c1c 	andeq	r4, r0, ip, lsl ip
    4bf8:	69080081 	stmdbvs	r8, {r0, r7}
    4bfc:	762d7172 			; <UNDEFINED> instruction: 0x762d7172
    4c00:	00706d63 	rsbseq	r6, r0, r3, ror #26

00004c04 <Code_1337>:
    4c04:	f847 6d04 	str.w	r6, [r7, #-4]!
    4c08:	4e8a      	ldr	r6, [pc, #552]	; (4e34 <init_name+0x82>)
    4c0a:	4770      	bx	lr
    4c0c:	000046d0 	ldrdeq	r4, [r0], -r0

00004c10 <irq_vektor_vcmp>:
    4c10:	f64f 705c 	movw	r0, #65372	; 0xff5c
    4c14:	f2c2 0001 	movt	r0, #8193	; 0x2001
    4c18:	6800      	ldr	r0, [r0, #0]
    4c1a:	4687      	mov	pc, r0

00004c1c <Dictionary_1341>:
    4c1c:	00004c42 	andeq	r4, r0, r2, asr #24
    4c20:	69070081 	stmdbvs	r7, {r0, r7}
    4c24:	6c2d7172 	stfvss	f7, [sp], #-456	; 0xfffffe38
    4c28:	f8476463 			; <UNDEFINED> instruction: 0xf8476463

00004c2a <Code_1341>:
    4c2a:	f847 6d04 	str.w	r6, [r7, #-4]!
    4c2e:	4e82      	ldr	r6, [pc, #520]	; (4e38 <init_name+0x86>)
    4c30:	4770      	bx	lr
    4c32:	000046d0 	ldrdeq	r4, [r0], -r0

00004c36 <irq_vektor_lcd>:
    4c36:	f64f 7058 	movw	r0, #65368	; 0xff58
    4c3a:	f2c2 0001 	movt	r0, #8193	; 0x2001
    4c3e:	6800      	ldr	r0, [r0, #0]
    4c40:	4687      	mov	pc, r0

00004c42 <Dictionary_1345>:
    4c42:	00004c68 	andeq	r4, r0, r8, ror #24
    4c46:	69070081 	stmdbvs	r7, {r0, r7}
    4c4a:	6d2d7172 	stfvss	f7, [sp, #-456]!	; 0xfffffe38
    4c4e:	f8476373 			; <UNDEFINED> instruction: 0xf8476373

00004c50 <Code_1345>:
    4c50:	f847 6d04 	str.w	r6, [r7, #-4]!
    4c54:	4e79      	ldr	r6, [pc, #484]	; (4e3c <init_name+0x8a>)
    4c56:	4770      	bx	lr
    4c58:	000046d0 	ldrdeq	r4, [r0], -r0

00004c5c <irq_vektor_msc>:
    4c5c:	f64f 7054 	movw	r0, #65364	; 0xff54
    4c60:	f2c2 0001 	movt	r0, #8193	; 0x2001
    4c64:	6800      	ldr	r0, [r0, #0]
    4c66:	4687      	mov	pc, r0

00004c68 <Dictionary_1349>:
    4c68:	00004c8e 	andeq	r4, r0, lr, lsl #25
    4c6c:	69070081 	stmdbvs	r7, {r0, r7}
    4c70:	612d7172 	teqvs	sp, r2, ror r1
    4c74:	f8477365 			; <UNDEFINED> instruction: 0xf8477365

00004c76 <Code_1349>:
    4c76:	f847 6d04 	str.w	r6, [r7, #-4]!
    4c7a:	4e71      	ldr	r6, [pc, #452]	; (4e40 <init_name+0x8e>)
    4c7c:	4770      	bx	lr
    4c7e:	000046d0 	ldrdeq	r4, [r0], -r0

00004c82 <irq_vektor_aes>:
    4c82:	f64f 7050 	movw	r0, #65360	; 0xff50
    4c86:	f2c2 0001 	movt	r0, #8193	; 0x2001
    4c8a:	6800      	ldr	r0, [r0, #0]
    4c8c:	4687      	mov	pc, r0

00004c8e <Dictionary_1352>:
    4c8e:	00005000 	andeq	r5, r0, r0
    4c92:	2d18ffff 	ldccs	15, cr15, [r8, #-1020]	; 0xfffffc04
    4c96:	46202d2d 	strtmi	r2, [r0], -sp, lsr #26
    4c9a:	6873616c 	ldmdavs	r3!, {r2, r3, r5, r6, r8, sp, lr}^
    4c9e:	63694420 	cmnvs	r9, #536870912	; 0x20000000
    4ca2:	6e6f6974 	mcrvs	9, 3, r6, cr15, cr4, {3}
    4ca6:	20797261 	rsbscs	r7, r9, r1, ror #4
    4caa:	002d2d2d 	eoreq	r2, sp, sp, lsr #26

00004cae <Code_1352>:
    4cae:	f7fd fab9 	bl	2224 <uart_init>
    4cb2:	4864      	ldr	r0, [pc, #400]	; (4e44 <init_name+0x92>)
    4cb4:	4685      	mov	sp, r0
    4cb6:	4f64      	ldr	r7, [pc, #400]	; (4e48 <init_name+0x96>)
    4cb8:	262a      	movs	r6, #42	; 0x2a
    4cba:	4864      	ldr	r0, [pc, #400]	; (4e4c <init_name+0x9a>)
    4cbc:	4961      	ldr	r1, [pc, #388]	; (4e44 <init_name+0x92>)
    4cbe:	6001      	str	r1, [r0, #0]
    4cc0:	4863      	ldr	r0, [pc, #396]	; (4e50 <init_name+0x9e>)
    4cc2:	4964      	ldr	r1, [pc, #400]	; (4e54 <init_name+0xa2>)
    4cc4:	6001      	str	r1, [r0, #0]
    4cc6:	f847 6d04 	str.w	r6, [r7, #-4]!
    4cca:	4e62      	ldr	r6, [pc, #392]	; (4e54 <init_name+0xa2>)
    4ccc:	4d62      	ldr	r5, [pc, #392]	; (4e58 <init_name+0xa6>)

00004cce <SucheFlashPointer_Hangelschleife>:
    4cce:	88b1      	ldrh	r1, [r6, #4]
    4cd0:	4b62      	ldr	r3, [pc, #392]	; (4e5c <init_name+0xaa>)
    4cd2:	4299      	cmp	r1, r3
    4cd4:	d024      	beq.n	4d20 <Sucheflashpointer_Speicherbelegung_fertig>
    4cd6:	4b62      	ldr	r3, [pc, #392]	; (4e60 <init_name+0xae>)
    4cd8:	400b      	ands	r3, r1
    4cda:	d00a      	beq.n	4cf2 <SucheFlashPointer_Hangelschleife+0x24>
    4cdc:	1db0      	adds	r0, r6, #6
    4cde:	f7fe fccf 	bl	3680 <skipstring>
    4ce2:	f7fe f830 	bl	2d46 <suchedefinitionsende>
    4ce6:	8803      	ldrh	r3, [r0, #0]
    4ce8:	8840      	ldrh	r0, [r0, #2]
    4cea:	0400      	lsls	r0, r0, #16
    4cec:	4303      	orrs	r3, r0
    4cee:	1aed      	subs	r5, r5, r3
    4cf0:	e016      	b.n	4d20 <Sucheflashpointer_Speicherbelegung_fertig>
    4cf2:	2380      	movs	r3, #128	; 0x80
    4cf4:	400b      	ands	r3, r1
    4cf6:	d013      	beq.n	4d20 <Sucheflashpointer_Speicherbelegung_fertig>
    4cf8:	230f      	movs	r3, #15
    4cfa:	4019      	ands	r1, r3
    4cfc:	0089      	lsls	r1, r1, #2
    4cfe:	1a6d      	subs	r5, r5, r1
    4d00:	1db0      	adds	r0, r6, #6
    4d02:	f7fe fcbd 	bl	3680 <skipstring>
    4d06:	f7fe f81e 	bl	2d46 <suchedefinitionsende>
    4d0a:	f847 6d04 	str.w	r6, [r7, #-4]!
    4d0e:	0006      	movs	r6, r0
    4d10:	f847 6d04 	str.w	r6, [r7, #-4]!
    4d14:	002e      	movs	r6, r5
    4d16:	f847 6d04 	str.w	r6, [r7, #-4]!
    4d1a:	000e      	movs	r6, r1
    4d1c:	f7fc fd26 	bl	176c <Code_370>

00004d20 <Sucheflashpointer_Speicherbelegung_fertig>:
    4d20:	f7fe fc8c 	bl	363c <Code_884>
    4d24:	0030      	movs	r0, r6
    4d26:	cf40      	ldmia	r7!, {r6}
    4d28:	d0d1      	beq.n	4cce <SucheFlashPointer_Hangelschleife>
    4d2a:	484e      	ldr	r0, [pc, #312]	; (4e64 <init_name+0xb2>)
    4d2c:	6006      	str	r6, [r0, #0]
    4d2e:	cf40      	ldmia	r7!, {r6}
    4d30:	484d      	ldr	r0, [pc, #308]	; (4e68 <init_name+0xb6>)
    4d32:	6005      	str	r5, [r0, #0]
    4d34:	484d      	ldr	r0, [pc, #308]	; (4e6c <init_name+0xba>)
    4d36:	494e      	ldr	r1, [pc, #312]	; (4e70 <init_name+0xbe>)
    4d38:	4a48      	ldr	r2, [pc, #288]	; (4e5c <init_name+0xaa>)
    4d3a:	4288      	cmp	r0, r1
    4d3c:	d004      	beq.n	4d48 <Sucheflashpointer_Speicherbelegung_fertig+0x28>
    4d3e:	3802      	subs	r0, #2
    4d40:	8803      	ldrh	r3, [r0, #0]
    4d42:	4293      	cmp	r3, r2
    4d44:	d0f9      	beq.n	4d3a <Sucheflashpointer_Speicherbelegung_fertig+0x1a>
    4d46:	3002      	adds	r0, #2
    4d48:	494a      	ldr	r1, [pc, #296]	; (4e74 <init_name+0xc2>)
    4d4a:	6008      	str	r0, [r1, #0]
    4d4c:	f7fd fcbb 	bl	26c6 <dotgaensefuesschen>
    4d50:	63654d3b 	cmnvs	r5, #3776	; 0xec0
    4d54:	70736972 	rsbsvc	r6, r3, r2, ror r9
    4d58:	6574532d 	ldrbvs	r5, [r4, #-813]!	; 0x32d
    4d5c:	72616c6c 	rsbvc	r6, r1, #27648	; 0x6c00
    4d60:	52207369 	eorpl	r7, r0, #-1543503871	; 0xa4000001
    4d64:	2e322041 	cdpcs	0, 3, cr2, cr2, cr1, {2}
    4d68:	20312e32 	eorscs	r2, r1, r2, lsr lr
    4d6c:	20726f66 	rsbscs	r6, r2, r6, ror #30
    4d70:	334d4645 	movtcc	r4, #54853	; 0xd645
    4d74:	39474732 	stmdbcc	r7, {r1, r4, r5, r8, r9, sl, lr}^
    4d78:	62203039 	eorvs	r3, r0, #57	; 0x39
    4d7c:	614d2079 	hvcvs	53769	; 0xd209
    4d80:	69687474 	stmdbvs	r8!, {r2, r4, r5, r6, sl, ip, sp, lr}^
    4d84:	4b207361 	blmi	821b10 <BIT23+0x21b10>
    4d88:	0a68636f 	beq	1a1db4c <BIT24+0xa1db4c>
    4d8c:	483a      	ldr	r0, [pc, #232]	; (4e78 <init_name+0xc6>)
    4d8e:	2100      	movs	r1, #0
    4d90:	6001      	str	r1, [r0, #0]
    4d92:	f847 6d04 	str.w	r6, [r7, #-4]!
    4d96:	4e39      	ldr	r6, [pc, #228]	; (4e7c <init_name+0xca>)
    4d98:	f847 6d04 	str.w	r6, [r7, #-4]!
    4d9c:	2604      	movs	r6, #4
    4d9e:	f7fe fc7e 	bl	369e <Code_889>
    4da2:	cf40      	ldmia	r7!, {r6}
    4da4:	2e00      	cmp	r6, #0
    4da6:	d002      	beq.n	4dae <Sucheflashpointer_Speicherbelegung_fertig+0x8e>
    4da8:	f7fe f865 	bl	2e76 <Code_742>
    4dac:	e428      	b.n	4600 <quit_intern>
    4dae:	cf40      	ldmia	r7!, {r6}
    4db0:	e413      	b.n	45da <Code_1206>

00004db2 <init_name>:
    4db2:	74696e69 	strbtvc	r6, [r9], #-3689	; 0xe69
    4db6:	ed0c0000 	stc	0, cr0, [ip]
    4dba:	0004e000 	andeq	lr, r4, r0
    4dbe:	ffd005fa 			; <UNDEFINED> instruction: 0xffd005fa
    4dc2:	ffcc2001 			; <UNDEFINED> instruction: 0xffcc2001
    4dc6:	ffc82001 			; <UNDEFINED> instruction: 0xffc82001
    4dca:	ffc42001 			; <UNDEFINED> instruction: 0xffc42001
    4dce:	ffc02001 			; <UNDEFINED> instruction: 0xffc02001
    4dd2:	ffbc2001 			; <UNDEFINED> instruction: 0xffbc2001
    4dd6:	ffb82001 			; <UNDEFINED> instruction: 0xffb82001
    4dda:	ffb42001 			; <UNDEFINED> instruction: 0xffb42001
    4dde:	ffb02001 			; <UNDEFINED> instruction: 0xffb02001
    4de2:	ffac2001 			; <UNDEFINED> instruction: 0xffac2001
    4de6:	ffa82001 			; <UNDEFINED> instruction: 0xffa82001
    4dea:	ffa42001 			; <UNDEFINED> instruction: 0xffa42001
    4dee:	ffa02001 			; <UNDEFINED> instruction: 0xffa02001
    4df2:	ff9c2001 			; <UNDEFINED> instruction: 0xff9c2001
    4df6:	ff982001 			; <UNDEFINED> instruction: 0xff982001
    4dfa:	ff942001 			; <UNDEFINED> instruction: 0xff942001
    4dfe:	ff902001 			; <UNDEFINED> instruction: 0xff902001
    4e02:	ff8c2001 			; <UNDEFINED> instruction: 0xff8c2001
    4e06:	ff882001 			; <UNDEFINED> instruction: 0xff882001
    4e0a:	ff842001 			; <UNDEFINED> instruction: 0xff842001
    4e0e:	ff802001 			; <UNDEFINED> instruction: 0xff802001
    4e12:	ff7c2001 			; <UNDEFINED> instruction: 0xff7c2001
    4e16:	ff782001 			; <UNDEFINED> instruction: 0xff782001
    4e1a:	ff742001 			; <UNDEFINED> instruction: 0xff742001
    4e1e:	ff702001 			; <UNDEFINED> instruction: 0xff702001
    4e22:	ff6c2001 			; <UNDEFINED> instruction: 0xff6c2001
    4e26:	ff682001 			; <UNDEFINED> instruction: 0xff682001
    4e2a:	ff642001 			; <UNDEFINED> instruction: 0xff642001
    4e2e:	ff602001 			; <UNDEFINED> instruction: 0xff602001
    4e32:	ff5c2001 			; <UNDEFINED> instruction: 0xff5c2001
    4e36:	ff582001 			; <UNDEFINED> instruction: 0xff582001
    4e3a:	ff542001 			; <UNDEFINED> instruction: 0xff542001
    4e3e:	ff502001 			; <UNDEFINED> instruction: 0xff502001
    4e42:	038c2001 	orreq	r2, ip, #1
    4e46:	028c2000 	addeq	r2, ip, #0
    4e4a:	00002000 	andeq	r2, r0, r0
    4e4e:	00042000 	andeq	r2, r4, r0
    4e52:	00b82000 	adcseq	r2, r8, r0
    4e56:	00000000 	andeq	r0, r0, r0
    4e5a:	ffff2002 			; <UNDEFINED> instruction: 0xffff2002
    4e5e:	01000000 	mrseq	r0, (UNDEF: 0)
    4e62:	001c0000 	andseq	r0, ip, r0
    4e66:	00242000 	eoreq	r2, r4, r0
    4e6a:	00002000 	andeq	r2, r0, r0
    4e6e:	50000010 	andpl	r0, r0, r0, lsl r0
    4e72:	00180000 	andseq	r0, r8, r0
    4e76:	00082000 	andeq	r2, r8, r0
    4e7a:	4db22000 	ldcmi	0, cr2, [r2]
	...

Disassembly of section .ARM.attributes:

00000000 <.ARM.attributes>:
   0:	00002041 	andeq	r2, r0, r1, asr #32
   4:	61656100 	cmnvs	r5, r0, lsl #2
   8:	01006962 	tsteq	r0, r2, ror #18
   c:	00000016 	andeq	r0, r0, r6, lsl r0
  10:	726f4305 	rsbvc	r4, pc, #335544320	; 0x14000000
  14:	2d786574 	cfldr64cs	mvdx6, [r8, #-464]!	; 0xfffffe30
  18:	0600344d 	streq	r3, [r0], -sp, asr #8
  1c:	094d070d 	stmdbeq	sp, {r0, r2, r3, r8, r9, sl}^
  20:	Address 0x00000020 is out of bounds.

