
mecrisp-stellaris-lpc1115fbd48.elf:     file format elf32-littlearm


Disassembly of section .text:

00000000 <addresszero>:
       0:	10000430 	andne	r0, r0, r0, lsr r4
       4:	00003a9d 	muleq	r0, sp, sl
       8:	000039e9 	andeq	r3, r0, r9, ror #19
       c:	000039e9 	andeq	r3, r0, r9, ror #19
	...
      2c:	00003a13 	andeq	r3, r0, r3, lsl sl
	...
      38:	00003a13 	andeq	r3, r0, r3, lsl sl
      3c:	000039c7 	andeq	r3, r0, r7, asr #19
      40:	00003a13 	andeq	r3, r0, r3, lsl sl
      44:	00003a13 	andeq	r3, r0, r3, lsl sl
      48:	00003a13 	andeq	r3, r0, r3, lsl sl
      4c:	00003a13 	andeq	r3, r0, r3, lsl sl
      50:	00003a13 	andeq	r3, r0, r3, lsl sl
      54:	00003a13 	andeq	r3, r0, r3, lsl sl
      58:	00003a13 	andeq	r3, r0, r3, lsl sl
      5c:	00003a13 	andeq	r3, r0, r3, lsl sl
      60:	00003a13 	andeq	r3, r0, r3, lsl sl
      64:	00003a13 	andeq	r3, r0, r3, lsl sl
      68:	00003a13 	andeq	r3, r0, r3, lsl sl
      6c:	00003a13 	andeq	r3, r0, r3, lsl sl
      70:	00003a13 	andeq	r3, r0, r3, lsl sl
      74:	00003a13 	andeq	r3, r0, r3, lsl sl
      78:	00003a13 	andeq	r3, r0, r3, lsl sl
      7c:	00003a53 	andeq	r3, r0, r3, asr sl
      80:	00003a13 	andeq	r3, r0, r3, lsl sl
      84:	00003a13 	andeq	r3, r0, r3, lsl sl
      88:	00003a13 	andeq	r3, r0, r3, lsl sl
      8c:	00003a13 	andeq	r3, r0, r3, lsl sl
      90:	00003a13 	andeq	r3, r0, r3, lsl sl
      94:	00003a75 	andeq	r3, r0, r5, ror sl
      98:	00003a13 	andeq	r3, r0, r3, lsl sl
      9c:	00003a13 	andeq	r3, r0, r3, lsl sl
      a0:	00003a33 	andeq	r3, r0, r3, lsr sl
      a4:	00003a13 	andeq	r3, r0, r3, lsl sl
      a8:	00003a13 	andeq	r3, r0, r3, lsl sl
      ac:	00003a13 	andeq	r3, r0, r3, lsl sl
      b0:	00003a13 	andeq	r3, r0, r3, lsl sl
      b4:	00003a13 	andeq	r3, r0, r3, lsl sl
      b8:	00003a13 	andeq	r3, r0, r3, lsl sl
      bc:	00003a13 	andeq	r3, r0, r3, lsl sl
      c0:	ffffffff 			; <UNDEFINED> instruction: 0xffffffff
      c4:	ffffffff 			; <UNDEFINED> instruction: 0xffffffff
      c8:	ffffffff 			; <UNDEFINED> instruction: 0xffffffff
      cc:	ffffffff 			; <UNDEFINED> instruction: 0xffffffff
      d0:	ffffffff 			; <UNDEFINED> instruction: 0xffffffff
      d4:	ffffffff 			; <UNDEFINED> instruction: 0xffffffff
      d8:	ffffffff 			; <UNDEFINED> instruction: 0xffffffff
      dc:	ffffffff 			; <UNDEFINED> instruction: 0xffffffff
      e0:	ffffffff 			; <UNDEFINED> instruction: 0xffffffff
      e4:	ffffffff 			; <UNDEFINED> instruction: 0xffffffff
      e8:	ffffffff 			; <UNDEFINED> instruction: 0xffffffff
      ec:	ffffffff 			; <UNDEFINED> instruction: 0xffffffff
      f0:	ffffffff 			; <UNDEFINED> instruction: 0xffffffff
      f4:	ffffffff 			; <UNDEFINED> instruction: 0xffffffff
      f8:	ffffffff 			; <UNDEFINED> instruction: 0xffffffff
      fc:	ffffffff 			; <UNDEFINED> instruction: 0xffffffff
     100:	ffffffff 			; <UNDEFINED> instruction: 0xffffffff
     104:	ffffffff 			; <UNDEFINED> instruction: 0xffffffff
     108:	ffffffff 			; <UNDEFINED> instruction: 0xffffffff
     10c:	ffffffff 			; <UNDEFINED> instruction: 0xffffffff
     110:	ffffffff 			; <UNDEFINED> instruction: 0xffffffff
     114:	ffffffff 			; <UNDEFINED> instruction: 0xffffffff
     118:	ffffffff 			; <UNDEFINED> instruction: 0xffffffff
     11c:	ffffffff 			; <UNDEFINED> instruction: 0xffffffff
     120:	ffffffff 			; <UNDEFINED> instruction: 0xffffffff
     124:	ffffffff 			; <UNDEFINED> instruction: 0xffffffff
     128:	ffffffff 			; <UNDEFINED> instruction: 0xffffffff
     12c:	ffffffff 			; <UNDEFINED> instruction: 0xffffffff
     130:	ffffffff 			; <UNDEFINED> instruction: 0xffffffff
     134:	ffffffff 			; <UNDEFINED> instruction: 0xffffffff
     138:	ffffffff 			; <UNDEFINED> instruction: 0xffffffff
     13c:	ffffffff 			; <UNDEFINED> instruction: 0xffffffff
     140:	ffffffff 			; <UNDEFINED> instruction: 0xffffffff
     144:	ffffffff 			; <UNDEFINED> instruction: 0xffffffff
     148:	ffffffff 			; <UNDEFINED> instruction: 0xffffffff
     14c:	ffffffff 			; <UNDEFINED> instruction: 0xffffffff
     150:	ffffffff 			; <UNDEFINED> instruction: 0xffffffff
     154:	ffffffff 			; <UNDEFINED> instruction: 0xffffffff
     158:	ffffffff 			; <UNDEFINED> instruction: 0xffffffff
     15c:	ffffffff 			; <UNDEFINED> instruction: 0xffffffff
     160:	ffffffff 			; <UNDEFINED> instruction: 0xffffffff
     164:	ffffffff 			; <UNDEFINED> instruction: 0xffffffff
     168:	ffffffff 			; <UNDEFINED> instruction: 0xffffffff
     16c:	ffffffff 			; <UNDEFINED> instruction: 0xffffffff
     170:	ffffffff 			; <UNDEFINED> instruction: 0xffffffff
     174:	ffffffff 			; <UNDEFINED> instruction: 0xffffffff
     178:	ffffffff 			; <UNDEFINED> instruction: 0xffffffff
     17c:	ffffffff 			; <UNDEFINED> instruction: 0xffffffff
     180:	ffffffff 			; <UNDEFINED> instruction: 0xffffffff
     184:	ffffffff 			; <UNDEFINED> instruction: 0xffffffff
     188:	ffffffff 			; <UNDEFINED> instruction: 0xffffffff
     18c:	ffffffff 			; <UNDEFINED> instruction: 0xffffffff
     190:	ffffffff 			; <UNDEFINED> instruction: 0xffffffff
     194:	ffffffff 			; <UNDEFINED> instruction: 0xffffffff
     198:	ffffffff 			; <UNDEFINED> instruction: 0xffffffff
     19c:	ffffffff 			; <UNDEFINED> instruction: 0xffffffff
     1a0:	ffffffff 			; <UNDEFINED> instruction: 0xffffffff
     1a4:	ffffffff 			; <UNDEFINED> instruction: 0xffffffff
     1a8:	ffffffff 			; <UNDEFINED> instruction: 0xffffffff
     1ac:	ffffffff 			; <UNDEFINED> instruction: 0xffffffff
     1b0:	ffffffff 			; <UNDEFINED> instruction: 0xffffffff
     1b4:	ffffffff 			; <UNDEFINED> instruction: 0xffffffff
     1b8:	ffffffff 			; <UNDEFINED> instruction: 0xffffffff
     1bc:	ffffffff 			; <UNDEFINED> instruction: 0xffffffff
     1c0:	ffffffff 			; <UNDEFINED> instruction: 0xffffffff
     1c4:	ffffffff 			; <UNDEFINED> instruction: 0xffffffff
     1c8:	ffffffff 			; <UNDEFINED> instruction: 0xffffffff
     1cc:	ffffffff 			; <UNDEFINED> instruction: 0xffffffff
     1d0:	ffffffff 			; <UNDEFINED> instruction: 0xffffffff
     1d4:	ffffffff 			; <UNDEFINED> instruction: 0xffffffff
     1d8:	ffffffff 			; <UNDEFINED> instruction: 0xffffffff
     1dc:	ffffffff 			; <UNDEFINED> instruction: 0xffffffff
     1e0:	ffffffff 			; <UNDEFINED> instruction: 0xffffffff
     1e4:	ffffffff 			; <UNDEFINED> instruction: 0xffffffff
     1e8:	ffffffff 			; <UNDEFINED> instruction: 0xffffffff
     1ec:	ffffffff 			; <UNDEFINED> instruction: 0xffffffff
     1f0:	ffffffff 			; <UNDEFINED> instruction: 0xffffffff
     1f4:	ffffffff 			; <UNDEFINED> instruction: 0xffffffff
     1f8:	ffffffff 			; <UNDEFINED> instruction: 0xffffffff
     1fc:	ffffffff 			; <UNDEFINED> instruction: 0xffffffff
     200:	ffffffff 			; <UNDEFINED> instruction: 0xffffffff
     204:	ffffffff 			; <UNDEFINED> instruction: 0xffffffff
     208:	ffffffff 			; <UNDEFINED> instruction: 0xffffffff
     20c:	ffffffff 			; <UNDEFINED> instruction: 0xffffffff
     210:	ffffffff 			; <UNDEFINED> instruction: 0xffffffff
     214:	ffffffff 			; <UNDEFINED> instruction: 0xffffffff
     218:	ffffffff 			; <UNDEFINED> instruction: 0xffffffff
     21c:	ffffffff 			; <UNDEFINED> instruction: 0xffffffff
     220:	ffffffff 			; <UNDEFINED> instruction: 0xffffffff
     224:	ffffffff 			; <UNDEFINED> instruction: 0xffffffff
     228:	ffffffff 			; <UNDEFINED> instruction: 0xffffffff
     22c:	ffffffff 			; <UNDEFINED> instruction: 0xffffffff
     230:	ffffffff 			; <UNDEFINED> instruction: 0xffffffff
     234:	ffffffff 			; <UNDEFINED> instruction: 0xffffffff
     238:	ffffffff 			; <UNDEFINED> instruction: 0xffffffff
     23c:	ffffffff 			; <UNDEFINED> instruction: 0xffffffff
     240:	ffffffff 			; <UNDEFINED> instruction: 0xffffffff
     244:	ffffffff 			; <UNDEFINED> instruction: 0xffffffff
     248:	ffffffff 			; <UNDEFINED> instruction: 0xffffffff
     24c:	ffffffff 			; <UNDEFINED> instruction: 0xffffffff
     250:	ffffffff 			; <UNDEFINED> instruction: 0xffffffff
     254:	ffffffff 			; <UNDEFINED> instruction: 0xffffffff
     258:	ffffffff 			; <UNDEFINED> instruction: 0xffffffff
     25c:	ffffffff 			; <UNDEFINED> instruction: 0xffffffff
     260:	ffffffff 			; <UNDEFINED> instruction: 0xffffffff
     264:	ffffffff 			; <UNDEFINED> instruction: 0xffffffff
     268:	ffffffff 			; <UNDEFINED> instruction: 0xffffffff
     26c:	ffffffff 			; <UNDEFINED> instruction: 0xffffffff
     270:	ffffffff 			; <UNDEFINED> instruction: 0xffffffff
     274:	ffffffff 			; <UNDEFINED> instruction: 0xffffffff
     278:	ffffffff 			; <UNDEFINED> instruction: 0xffffffff
     27c:	ffffffff 			; <UNDEFINED> instruction: 0xffffffff
     280:	ffffffff 			; <UNDEFINED> instruction: 0xffffffff
     284:	ffffffff 			; <UNDEFINED> instruction: 0xffffffff
     288:	ffffffff 			; <UNDEFINED> instruction: 0xffffffff
     28c:	ffffffff 			; <UNDEFINED> instruction: 0xffffffff
     290:	ffffffff 			; <UNDEFINED> instruction: 0xffffffff
     294:	ffffffff 			; <UNDEFINED> instruction: 0xffffffff
     298:	ffffffff 			; <UNDEFINED> instruction: 0xffffffff
     29c:	ffffffff 			; <UNDEFINED> instruction: 0xffffffff
     2a0:	ffffffff 			; <UNDEFINED> instruction: 0xffffffff
     2a4:	ffffffff 			; <UNDEFINED> instruction: 0xffffffff
     2a8:	ffffffff 			; <UNDEFINED> instruction: 0xffffffff
     2ac:	ffffffff 			; <UNDEFINED> instruction: 0xffffffff
     2b0:	ffffffff 			; <UNDEFINED> instruction: 0xffffffff
     2b4:	ffffffff 			; <UNDEFINED> instruction: 0xffffffff
     2b8:	ffffffff 			; <UNDEFINED> instruction: 0xffffffff
     2bc:	ffffffff 			; <UNDEFINED> instruction: 0xffffffff
     2c0:	ffffffff 			; <UNDEFINED> instruction: 0xffffffff
     2c4:	ffffffff 			; <UNDEFINED> instruction: 0xffffffff
     2c8:	ffffffff 			; <UNDEFINED> instruction: 0xffffffff
     2cc:	ffffffff 			; <UNDEFINED> instruction: 0xffffffff
     2d0:	ffffffff 			; <UNDEFINED> instruction: 0xffffffff
     2d4:	ffffffff 			; <UNDEFINED> instruction: 0xffffffff
     2d8:	ffffffff 			; <UNDEFINED> instruction: 0xffffffff
     2dc:	ffffffff 			; <UNDEFINED> instruction: 0xffffffff
     2e0:	ffffffff 			; <UNDEFINED> instruction: 0xffffffff
     2e4:	ffffffff 			; <UNDEFINED> instruction: 0xffffffff
     2e8:	ffffffff 			; <UNDEFINED> instruction: 0xffffffff
     2ec:	ffffffff 			; <UNDEFINED> instruction: 0xffffffff
     2f0:	ffffffff 			; <UNDEFINED> instruction: 0xffffffff
     2f4:	ffffffff 			; <UNDEFINED> instruction: 0xffffffff
     2f8:	ffffffff 			; <UNDEFINED> instruction: 0xffffffff
     2fc:	ffffffff 			; <UNDEFINED> instruction: 0xffffffff

00000300 <CoreDictionaryAnfang>:
     300:	00000328 	andeq	r0, r0, r8, lsr #6
     304:	2d1effff 	ldccs	15, cr15, [lr, #-1020]	; 0xfffffc04
     308:	4d202d2d 	stcmi	13, cr2, [r0, #-180]!	; 0xffffff4c
     30c:	69726365 	ldmdbvs	r2!, {r0, r2, r5, r6, r8, r9, sp, lr}^
     310:	532d7073 	teqpl	sp, #115	; 0x73
     314:	6c6c6574 	cfstr64vs	mvdx6, [ip], #-464	; 0xfffffe30
     318:	73697261 	cmnvc	r9, #268435462	; 0x10000006
     31c:	726f4320 	rsbvc	r4, pc, #-2147483648	; 0x80000000
     320:	2d2d2065 	stccs	0, cr2, [sp, #-404]!	; 0xfffffe6c
     324:	46c0002d 	strbmi	r0, [r0], sp, lsr #32

00000326 <Code_19>:
     326:	46c0      	nop			; (mov r8, r8)

00000328 <Dictionary_20>:
     328:	00000340 	andeq	r0, r0, r0, asr #6
     32c:	32040042 	andcc	r0, r4, #66	; 0x42
     330:	00707564 	rsbseq	r7, r0, r4, ror #10

00000334 <Code_20>:
     334:	6838      	ldr	r0, [r7, #0]
     336:	3f04      	subs	r7, #4
     338:	603e      	str	r6, [r7, #0]
     33a:	3f04      	subs	r7, #4
     33c:	6038      	str	r0, [r7, #0]
     33e:	4770      	bx	lr

00000340 <Dictionary_22>:
     340:	00000354 	andeq	r0, r0, r4, asr r3
     344:	32050062 	andcc	r0, r5, #98	; 0x62
     348:	706f7264 	rsbvc	r7, pc, r4, ror #4

0000034c <Code_22>:
     34c:	3704      	adds	r7, #4
     34e:	cf40      	ldmia	r7!, {r6}
     350:	4770      	bx	lr
     352:	46c0      	nop			; (mov r8, r8)

00000354 <Dictionary_24>:
     354:	00000374 	andeq	r0, r0, r4, ror r3
     358:	32050044 	andcc	r0, r5, #68	; 0x44
     35c:	70617773 	rsbvc	r7, r1, r3, ror r7

00000360 <Code_24>:
     360:	cf07      	ldmia	r7!, {r0, r1, r2}
     362:	3f04      	subs	r7, #4
     364:	6038      	str	r0, [r7, #0]
     366:	3f04      	subs	r7, #4
     368:	603e      	str	r6, [r7, #0]
     36a:	3f04      	subs	r7, #4
     36c:	603a      	str	r2, [r7, #0]
     36e:	000e      	movs	r6, r1
     370:	4770      	bx	lr
     372:	46c0      	nop			; (mov r8, r8)

00000374 <Dictionary_26>:
     374:	00000388 	andeq	r0, r0, r8, lsl #7
     378:	32040062 	andcc	r0, r4, #98	; 0x62
     37c:	0070696e 	rsbseq	r6, r0, lr, ror #18

00000380 <Code_26>:
     380:	cf07      	ldmia	r7!, {r0, r1, r2}
     382:	3f04      	subs	r7, #4
     384:	6038      	str	r0, [r7, #0]
     386:	4770      	bx	lr

00000388 <Dictionary_27>:
     388:	000003a4 	andeq	r0, r0, r4, lsr #7
     38c:	32050044 	andcc	r0, r5, #68	; 0x44
     390:	7265766f 	rsbvc	r7, r5, #116391936	; 0x6f00000

00000394 <Code_27>:
     394:	68b8      	ldr	r0, [r7, #8]
     396:	3f04      	subs	r7, #4
     398:	603e      	str	r6, [r7, #0]
     39a:	3f04      	subs	r7, #4
     39c:	6038      	str	r0, [r7, #0]
     39e:	68fe      	ldr	r6, [r7, #12]
     3a0:	4770      	bx	lr
     3a2:	46c0      	nop			; (mov r8, r8)

000003a4 <Dictionary_29>:
     3a4:	000003c8 	andeq	r0, r0, r8, asr #7
     3a8:	32050044 	andcc	r0, r5, #68	; 0x44
     3ac:	6b637574 	blvs	18dd984 <BIT24+0x8dd984>

000003b0 <Code_29>:
     3b0:	cf07      	ldmia	r7!, {r0, r1, r2}
     3b2:	3f04      	subs	r7, #4
     3b4:	6038      	str	r0, [r7, #0]
     3b6:	3f04      	subs	r7, #4
     3b8:	603e      	str	r6, [r7, #0]
     3ba:	3f04      	subs	r7, #4
     3bc:	603a      	str	r2, [r7, #0]
     3be:	3f04      	subs	r7, #4
     3c0:	6039      	str	r1, [r7, #0]
     3c2:	3f04      	subs	r7, #4
     3c4:	6038      	str	r0, [r7, #0]
     3c6:	4770      	bx	lr

000003c8 <Dictionary_31>:
     3c8:	000003ec 	andeq	r0, r0, ip, ror #7
     3cc:	32040046 	andcc	r0, r4, #70	; 0x46
     3d0:	00746f72 	rsbseq	r6, r4, r2, ror pc

000003d4 <Code_31>:
     3d4:	6838      	ldr	r0, [r7, #0]
     3d6:	68b9      	ldr	r1, [r7, #8]
     3d8:	693a      	ldr	r2, [r7, #16]
     3da:	60b8      	str	r0, [r7, #8]
     3dc:	6139      	str	r1, [r7, #16]
     3de:	603a      	str	r2, [r7, #0]
     3e0:	6879      	ldr	r1, [r7, #4]
     3e2:	607e      	str	r6, [r7, #4]
     3e4:	68fe      	ldr	r6, [r7, #12]
     3e6:	60f9      	str	r1, [r7, #12]
     3e8:	4770      	bx	lr
     3ea:	46c0      	nop			; (mov r8, r8)

000003ec <Dictionary_32>:
     3ec:	00000410 	andeq	r0, r0, r0, lsl r4
     3f0:	32050046 	andcc	r0, r5, #70	; 0x46
     3f4:	746f722d 	strbtvc	r7, [pc], #-557	; 3fc <Code_32+0x4>

000003f8 <Code_32>:
     3f8:	6838      	ldr	r0, [r7, #0]
     3fa:	68b9      	ldr	r1, [r7, #8]
     3fc:	693a      	ldr	r2, [r7, #16]
     3fe:	6138      	str	r0, [r7, #16]
     400:	6039      	str	r1, [r7, #0]
     402:	60ba      	str	r2, [r7, #8]
     404:	68f9      	ldr	r1, [r7, #12]
     406:	60fe      	str	r6, [r7, #12]
     408:	687e      	ldr	r6, [r7, #4]
     40a:	6079      	str	r1, [r7, #4]
     40c:	4770      	bx	lr
     40e:	46c0      	nop			; (mov r8, r8)

00000410 <Dictionary_33>:
     410:	00000424 	andeq	r0, r0, r4, lsr #8
     414:	32030020 	andcc	r0, r3, #32
     418:	cf01723e 	svcgt	0x0001723e

0000041a <Code_33>:
     41a:	cf01      	ldmia	r7!, {r0}
     41c:	b401      	push	{r0}
     41e:	b440      	push	{r6}
     420:	cf40      	ldmia	r7!, {r6}
     422:	4770      	bx	lr

00000424 <Dictionary_34>:
     424:	0000043c 	andeq	r0, r0, ip, lsr r4
     428:	32030020 	andcc	r0, r3, #32
     42c:	3f043e72 	svccc	0x00043e72

0000042e <Code_34>:
     42e:	3f04      	subs	r7, #4
     430:	603e      	str	r6, [r7, #0]
     432:	bc40      	pop	{r6}
     434:	bc01      	pop	{r0}
     436:	3f04      	subs	r7, #4
     438:	6038      	str	r0, [r7, #0]
     43a:	4770      	bx	lr

0000043c <Dictionary_36>:
     43c:	00000454 	andeq	r0, r0, r4, asr r4
     440:	32030020 	andcc	r0, r3, #32
     444:	3f044072 	svccc	0x00044072

00000446 <Code_36>:
     446:	3f04      	subs	r7, #4
     448:	603e      	str	r6, [r7, #0]
     44a:	9e01      	ldr	r6, [sp, #4]
     44c:	3f04      	subs	r7, #4
     44e:	603e      	str	r6, [r7, #0]
     450:	9e00      	ldr	r6, [sp, #0]
     452:	4770      	bx	lr

00000454 <Dictionary_39>:
     454:	00000468 	andeq	r0, r0, r8, ror #8
     458:	32060020 	andcc	r0, r6, #32
     45c:	6f726472 	svcvs	0x00726472
     460:	b0020070 	andlt	r0, r2, r0, ror r0

00000462 <Code_39>:
     462:	b002      	add	sp, #8
     464:	4770      	bx	lr
     466:	46c0      	nop			; (mov r8, r8)

00000468 <Dictionary_40>:
     468:	00000480 	andeq	r0, r0, r0, lsl #9
     46c:	64030042 	strvs	r0, [r3], #-66	; 0x42
     470:	68382f32 	ldmdavs	r8!, {r1, r4, r5, r8, r9, sl, fp, sp}

00000472 <Code_40>:
     472:	6838      	ldr	r0, [r7, #0]
     474:	07f1      	lsls	r1, r6, #31
     476:	1076      	asrs	r6, r6, #1
     478:	0840      	lsrs	r0, r0, #1
     47a:	4308      	orrs	r0, r1
     47c:	6038      	str	r0, [r7, #0]
     47e:	4770      	bx	lr

00000480 <Dictionary_41>:
     480:	00000494 	muleq	r0, r4, r4
     484:	64030062 	strvs	r0, [r3], #-98	; 0x62
     488:	68382a32 	ldmdavs	r8!, {r1, r4, r5, r9, fp, sp}

0000048a <Code_41>:
     48a:	6838      	ldr	r0, [r7, #0]
     48c:	1800      	adds	r0, r0, r0
     48e:	4176      	adcs	r6, r6
     490:	6038      	str	r0, [r7, #0]
     492:	4770      	bx	lr

00000494 <Dictionary_42>:
     494:	000004b0 			; <UNDEFINED> instruction: 0x000004b0
     498:	64040042 	strvs	r0, [r4], #-66	; 0x42
     49c:	00726873 	rsbseq	r6, r2, r3, ror r8

000004a0 <Code_42>:
     4a0:	6838      	ldr	r0, [r7, #0]
     4a2:	07f1      	lsls	r1, r6, #31
     4a4:	0876      	lsrs	r6, r6, #1
     4a6:	0840      	lsrs	r0, r0, #1
     4a8:	4308      	orrs	r0, r1
     4aa:	6038      	str	r0, [r7, #0]
     4ac:	4770      	bx	lr
     4ae:	46c0      	nop			; (mov r8, r8)

000004b0 <Dictionary_43>:
     4b0:	000004c8 	andeq	r0, r0, r8, asr #9
     4b4:	64040062 	strvs	r0, [r4], #-98	; 0x62
     4b8:	006c6873 	rsbeq	r6, ip, r3, ror r8

000004bc <Code_43>:
     4bc:	6838      	ldr	r0, [r7, #0]
     4be:	1800      	adds	r0, r0, r0
     4c0:	4176      	adcs	r6, r6
     4c2:	6038      	str	r0, [r7, #0]
     4c4:	4770      	bx	lr
     4c6:	46c0      	nop			; (mov r8, r8)

000004c8 <Dictionary_44>:
     4c8:	000004dc 	ldrdeq	r0, [r0], -ip
     4cc:	64040042 	strvs	r0, [r4], #-66	; 0x42
     4d0:	00736261 	rsbseq	r6, r3, r1, ror #4

000004d4 <Code_44>:
     4d4:	2e00      	cmp	r6, #0
     4d6:	d408      	bmi.n	4ea <Code_45>
     4d8:	4770      	bx	lr
     4da:	46c0      	nop			; (mov r8, r8)

000004dc <Dictionary_45>:
     4dc:	000004fc 	strdeq	r0, [r0], -ip
     4e0:	64070042 	strvs	r0, [r7], #-66	; 0x42
     4e4:	6167656e 	cmnvs	r7, lr, ror #10
     4e8:	68386574 	ldmdavs	r8!, {r2, r4, r5, r6, r8, sl, sp, lr}

000004ea <Code_45>:
     4ea:	6838      	ldr	r0, [r7, #0]
     4ec:	2100      	movs	r1, #0
     4ee:	43c0      	mvns	r0, r0
     4f0:	43f6      	mvns	r6, r6
     4f2:	3001      	adds	r0, #1
     4f4:	414e      	adcs	r6, r1
     4f6:	6038      	str	r0, [r7, #0]
     4f8:	4770      	bx	lr
     4fa:	46c0      	nop			; (mov r8, r8)

000004fc <Dictionary_46>:
     4fc:	00000514 	andeq	r0, r0, r4, lsl r5
     500:	64020064 	strvs	r0, [r2], #-100	; 0x64
     504:	cf07002d 	svcgt	0x0007002d

00000506 <Code_46>:
     506:	cf07      	ldmia	r7!, {r0, r1, r2}
     508:	1a12      	subs	r2, r2, r0
     50a:	41b1      	sbcs	r1, r6
     50c:	000e      	movs	r6, r1
     50e:	3f04      	subs	r7, #4
     510:	603a      	str	r2, [r7, #0]
     512:	4770      	bx	lr

00000514 <Dictionary_47>:
     514:	0000052c 	andeq	r0, r0, ip, lsr #10
     518:	64020064 	strvs	r0, [r2], #-100	; 0x64
     51c:	cf07002b 	svcgt	0x0007002b

0000051e <Code_47>:
     51e:	cf07      	ldmia	r7!, {r0, r1, r2}
     520:	1812      	adds	r2, r2, r0
     522:	414e      	adcs	r6, r1
     524:	3f04      	subs	r7, #4
     526:	603a      	str	r2, [r7, #0]
     528:	4770      	bx	lr
     52a:	46c0      	nop			; (mov r8, r8)

0000052c <Dictionary_48>:
     52c:	00000540 	andeq	r0, r0, r0, asr #10
     530:	73030061 	movwvc	r0, #12385	; 0x3061
     534:	3f04643e 	svccc	0x0004643e

00000536 <Code_48>:
     536:	3f04      	subs	r7, #4
     538:	603e      	str	r6, [r7, #0]
     53a:	17f6      	asrs	r6, r6, #31
     53c:	4770      	bx	lr
     53e:	46c0      	nop			; (mov r8, r8)

00000540 <Dictionary_50>:
     540:	0000056c 	andeq	r0, r0, ip, ror #10
     544:	75030042 	strvc	r0, [r3, #-66]	; 0x42
     548:	68382a6d 	ldmdavs	r8!, {r0, r2, r3, r5, r6, r9, fp, sp}

0000054a <Code_50>:
     54a:	6838      	ldr	r0, [r7, #0]
     54c:	0003      	movs	r3, r0
     54e:	4373      	muls	r3, r6
     550:	603b      	str	r3, [r7, #0]
     552:	0c01      	lsrs	r1, r0, #16
     554:	0c32      	lsrs	r2, r6, #16
     556:	000b      	movs	r3, r1
     558:	4353      	muls	r3, r2
     55a:	b2b6      	uxth	r6, r6
     55c:	b280      	uxth	r0, r0
     55e:	434e      	muls	r6, r1
     560:	4350      	muls	r0, r2
     562:	1836      	adds	r6, r6, r0
     564:	0c36      	lsrs	r6, r6, #16
     566:	18f6      	adds	r6, r6, r3
     568:	4770      	bx	lr
     56a:	46c0      	nop			; (mov r8, r8)

0000056c <Dictionary_51>:
     56c:	0000059c 	muleq	r0, ip, r5
     570:	6d020042 	stcvs	0, cr0, [r2, #-264]	; 0xfffffef8
     574:	6838002a 	ldmdavs	r8!, {r1, r3, r5}

00000576 <Code_51>:
     576:	6838      	ldr	r0, [r7, #0]
     578:	17c1      	asrs	r1, r0, #31
     57a:	d005      	beq.n	588 <Code_51+0x12>
     57c:	4240      	negs	r0, r0
     57e:	6038      	str	r0, [r7, #0]
     580:	17f0      	asrs	r0, r6, #31
     582:	d004      	beq.n	58e <Code_51+0x18>
     584:	4276      	negs	r6, r6
     586:	e7e0      	b.n	54a <Code_50>
     588:	17f0      	asrs	r0, r6, #31
     58a:	d0de      	beq.n	54a <Code_50>
     58c:	4276      	negs	r6, r6
     58e:	b500      	push	{lr}
     590:	f7ff ffdb 	bl	54a <Code_50>
     594:	f7ff ffa9 	bl	4ea <Code_45>
     598:	bd00      	pop	{pc}
     59a:	46c0      	nop			; (mov r8, r8)

0000059c <Dictionary_52>:
     59c:	000005dc 	ldrdeq	r0, [r0], -ip
     5a0:	75030044 	strvc	r0, [r3, #-68]	; 0x44
     5a4:	cf072a64 	svcgt	0x00072a64

000005a6 <Code_52>:
     5a6:	cf07      	ldmia	r7!, {r0, r1, r2}
     5a8:	4356      	muls	r6, r2
     5aa:	4341      	muls	r1, r0
     5ac:	1876      	adds	r6, r6, r1
     5ae:	0c01      	lsrs	r1, r0, #16
     5b0:	0c13      	lsrs	r3, r2, #16
     5b2:	4359      	muls	r1, r3
     5b4:	1876      	adds	r6, r6, r1
     5b6:	0c01      	lsrs	r1, r0, #16
     5b8:	b280      	uxth	r0, r0
     5ba:	b292      	uxth	r2, r2
     5bc:	4351      	muls	r1, r2
     5be:	4343      	muls	r3, r0
     5c0:	4350      	muls	r0, r2
     5c2:	2200      	movs	r2, #0
     5c4:	18c9      	adds	r1, r1, r3
     5c6:	4152      	adcs	r2, r2
     5c8:	0412      	lsls	r2, r2, #16
     5ca:	18b6      	adds	r6, r6, r2
     5cc:	040a      	lsls	r2, r1, #16
     5ce:	0c09      	lsrs	r1, r1, #16
     5d0:	1880      	adds	r0, r0, r2
     5d2:	414e      	adcs	r6, r1
     5d4:	3f04      	subs	r7, #4
     5d6:	6038      	str	r0, [r7, #0]
     5d8:	4770      	bx	lr
     5da:	46c0      	nop			; (mov r8, r8)

000005dc <Dictionary_53>:
     5dc:	00000670 	andeq	r0, r0, r0, ror r6
     5e0:	75040044 	strvc	r0, [r4, #-68]	; 0x44
     5e4:	002a6d64 	eoreq	r6, sl, r4, ror #26

000005e8 <Code_53>:
     5e8:	b510      	push	{r4, lr}
     5ea:	2400      	movs	r4, #0
     5ec:	3f04      	subs	r7, #4
     5ee:	603e      	str	r6, [r7, #0]
     5f0:	687e      	ldr	r6, [r7, #4]
     5f2:	3f04      	subs	r7, #4
     5f4:	603e      	str	r6, [r7, #0]
     5f6:	693e      	ldr	r6, [r7, #16]
     5f8:	f7ff ffa7 	bl	54a <Code_50>
     5fc:	0031      	movs	r1, r6
     5fe:	cf40      	ldmia	r7!, {r6}
     600:	0030      	movs	r0, r6
     602:	cf40      	ldmia	r7!, {r6}
     604:	3f04      	subs	r7, #4
     606:	603e      	str	r6, [r7, #0]
     608:	683e      	ldr	r6, [r7, #0]
     60a:	3f04      	subs	r7, #4
     60c:	603e      	str	r6, [r7, #0]
     60e:	68fe      	ldr	r6, [r7, #12]
     610:	b403      	push	{r0, r1}
     612:	f7ff ff9a 	bl	54a <Code_50>
     616:	bc03      	pop	{r0, r1}
     618:	0033      	movs	r3, r6
     61a:	cf40      	ldmia	r7!, {r6}
     61c:	0032      	movs	r2, r6
     61e:	cf40      	ldmia	r7!, {r6}
     620:	3f04      	subs	r7, #4
     622:	603e      	str	r6, [r7, #0]
     624:	683e      	ldr	r6, [r7, #0]
     626:	3f04      	subs	r7, #4
     628:	603e      	str	r6, [r7, #0]
     62a:	693e      	ldr	r6, [r7, #16]
     62c:	b40f      	push	{r0, r1, r2, r3}
     62e:	f7ff ff8c 	bl	54a <Code_50>
     632:	bc0f      	pop	{r0, r1, r2, r3}
     634:	1992      	adds	r2, r2, r6
     636:	4163      	adcs	r3, r4
     638:	cf40      	ldmia	r7!, {r6}
     63a:	1989      	adds	r1, r1, r6
     63c:	4162      	adcs	r2, r4
     63e:	4163      	adcs	r3, r4
     640:	cf40      	ldmia	r7!, {r6}
     642:	3f04      	subs	r7, #4
     644:	603e      	str	r6, [r7, #0]
     646:	687e      	ldr	r6, [r7, #4]
     648:	3f04      	subs	r7, #4
     64a:	603e      	str	r6, [r7, #0]
     64c:	68fe      	ldr	r6, [r7, #12]
     64e:	b40f      	push	{r0, r1, r2, r3}
     650:	f7ff ff7b 	bl	54a <Code_50>
     654:	bc0f      	pop	{r0, r1, r2, r3}
     656:	1992      	adds	r2, r2, r6
     658:	4163      	adcs	r3, r4
     65a:	cf40      	ldmia	r7!, {r6}
     65c:	1989      	adds	r1, r1, r6
     65e:	4162      	adcs	r2, r4
     660:	4163      	adcs	r3, r4
     662:	cf40      	ldmia	r7!, {r6}
     664:	001e      	movs	r6, r3
     666:	603a      	str	r2, [r7, #0]
     668:	6079      	str	r1, [r7, #4]
     66a:	60b8      	str	r0, [r7, #8]
     66c:	bd10      	pop	{r4, pc}
     66e:	46c0      	nop			; (mov r8, r8)

00000670 <Dictionary_70>:
     670:	00000694 	muleq	r0, r4, r6
     674:	2a020043 	bcs	80788 <BIT19+0x788>
     678:	b500002f 	strlt	r0, [r0, #-47]	; 0x2f

0000067a <Code_70>:
     67a:	b500      	push	{lr}
     67c:	b440      	push	{r6}
     67e:	cf40      	ldmia	r7!, {r6}
     680:	f7ff ff79 	bl	576 <Code_51>
     684:	3f04      	subs	r7, #4
     686:	603e      	str	r6, [r7, #0]
     688:	bc40      	pop	{r6}
     68a:	f000 f84f 	bl	72c <Code_93>
     68e:	3704      	adds	r7, #4
     690:	bd00      	pop	{pc}
     692:	46c0      	nop			; (mov r8, r8)

00000694 <Dictionary_75>:
     694:	000006b8 			; <UNDEFINED> instruction: 0x000006b8
     698:	2a050043 	bcs	1407ac <BIT20+0x407ac>
     69c:	646f6d2f 	strbtvs	r6, [pc], #-3375	; 6a4 <Code_75+0x4>

000006a0 <Code_75>:
     6a0:	b500      	push	{lr}
     6a2:	b440      	push	{r6}
     6a4:	cf40      	ldmia	r7!, {r6}
     6a6:	f7ff ff66 	bl	576 <Code_51>
     6aa:	3f04      	subs	r7, #4
     6ac:	603e      	str	r6, [r7, #0]
     6ae:	bc40      	pop	{r6}
     6b0:	f000 f83c 	bl	72c <Code_93>
     6b4:	bd00      	pop	{pc}
     6b6:	46c0      	nop			; (mov r8, r8)

000006b8 <Dictionary_79>:
     6b8:	000006dc 	ldrdeq	r0, [r0], -ip
     6bc:	75030043 	strvc	r0, [r3, #-67]	; 0x43
     6c0:	b5002f2a 	strlt	r2, [r0, #-3882]	; 0xf2a

000006c2 <Code_79>:
     6c2:	b500      	push	{lr}
     6c4:	b440      	push	{r6}
     6c6:	cf40      	ldmia	r7!, {r6}
     6c8:	f7ff ff3f 	bl	54a <Code_50>
     6cc:	3f04      	subs	r7, #4
     6ce:	603e      	str	r6, [r7, #0]
     6d0:	bc40      	pop	{r6}
     6d2:	f000 f81c 	bl	70e <Code_88>
     6d6:	3704      	adds	r7, #4
     6d8:	bd00      	pop	{pc}
     6da:	46c0      	nop			; (mov r8, r8)

000006dc <Dictionary_84>:
     6dc:	00000700 	andeq	r0, r0, r0, lsl #14
     6e0:	75060043 	strvc	r0, [r6, #-67]	; 0x43
     6e4:	6f6d2f2a 	svcvs	0x006d2f2a
     6e8:	b5000064 	strlt	r0, [r0, #-100]	; 0x64

000006ea <Code_84>:
     6ea:	b500      	push	{lr}
     6ec:	b440      	push	{r6}
     6ee:	cf40      	ldmia	r7!, {r6}
     6f0:	f7ff ff2b 	bl	54a <Code_50>
     6f4:	3f04      	subs	r7, #4
     6f6:	603e      	str	r6, [r7, #0]
     6f8:	bc40      	pop	{r6}
     6fa:	f000 f808 	bl	70e <Code_88>
     6fe:	bd00      	pop	{pc}

00000700 <Dictionary_88>:
     700:	00000720 	andeq	r0, r0, r0, lsr #14
     704:	75060043 	strvc	r0, [r6, #-67]	; 0x43
     708:	6f6d2f6d 	svcvs	0x006d2f6d
     70c:	b5000064 	strlt	r0, [r0, #-100]	; 0x64

0000070e <Code_88>:
     70e:	b500      	push	{lr}
     710:	3f04      	subs	r7, #4
     712:	603e      	str	r6, [r7, #0]
     714:	2600      	movs	r6, #0
     716:	f000 f81a 	bl	74e <Code_97>
     71a:	cf40      	ldmia	r7!, {r6}
     71c:	3704      	adds	r7, #4
     71e:	bd00      	pop	{pc}

00000720 <Dictionary_93>:
     720:	00000740 	andeq	r0, r0, r0, asr #14
     724:	6d050043 	stcvs	0, cr0, [r5, #-268]	; 0xfffffef4
     728:	646f6d2f 	strbtvs	r6, [pc], #-3375	; 730 <Code_93+0x4>

0000072c <Code_93>:
     72c:	b500      	push	{lr}
     72e:	3f04      	subs	r7, #4
     730:	603e      	str	r6, [r7, #0]
     732:	17f6      	asrs	r6, r6, #31
     734:	f000 f834 	bl	7a0 <Code_99>
     738:	cf40      	ldmia	r7!, {r6}
     73a:	3704      	adds	r7, #4
     73c:	bd00      	pop	{pc}
     73e:	46c0      	nop			; (mov r8, r8)

00000740 <Dictionary_97>:
     740:	00000794 	muleq	r0, r4, r7
     744:	75060044 	strvc	r0, [r6, #-68]	; 0x44
     748:	6f6d2f64 	svcvs	0x006d2f64
     74c:	b4300064 	ldrtlt	r0, [r0], #-100	; 0x64

0000074e <Code_97>:
     74e:	b430      	push	{r4, r5}
     750:	2300      	movs	r3, #0
     752:	2200      	movs	r2, #0
     754:	6879      	ldr	r1, [r7, #4]
     756:	68b8      	ldr	r0, [r7, #8]

00000758 <ud_slash_mod_internal>:
     758:	0035      	movs	r5, r6
     75a:	683c      	ldr	r4, [r7, #0]
     75c:	2640      	movs	r6, #64	; 0x40
     75e:	0040      	lsls	r0, r0, #1
     760:	4149      	adcs	r1, r1
     762:	4152      	adcs	r2, r2
     764:	415b      	adcs	r3, r3
     766:	42ab      	cmp	r3, r5
     768:	d802      	bhi.n	770 <ud_slash_mod_internal+0x18>
     76a:	d304      	bcc.n	776 <ud_slash_mod_internal+0x1e>
     76c:	42a2      	cmp	r2, r4
     76e:	d302      	bcc.n	776 <ud_slash_mod_internal+0x1e>
     770:	1b12      	subs	r2, r2, r4
     772:	41ab      	sbcs	r3, r5
     774:	3001      	adds	r0, #1
     776:	3e01      	subs	r6, #1
     778:	d1f1      	bne.n	75e <ud_slash_mod_internal+0x6>
     77a:	000e      	movs	r6, r1
     77c:	6038      	str	r0, [r7, #0]
     77e:	607b      	str	r3, [r7, #4]
     780:	60ba      	str	r2, [r7, #8]
     782:	bc30      	pop	{r4, r5}
     784:	4770      	bx	lr

00000786 <uf_slash_mod>:
     786:	b430      	push	{r4, r5}
     788:	2300      	movs	r3, #0
     78a:	687a      	ldr	r2, [r7, #4]
     78c:	68b9      	ldr	r1, [r7, #8]
     78e:	2000      	movs	r0, #0
     790:	e7e2      	b.n	758 <ud_slash_mod_internal>
     792:	46c0      	nop			; (mov r8, r8)

00000794 <Dictionary_99>:
     794:	0000080c 	andeq	r0, r0, ip, lsl #16
     798:	64050044 	strvs	r0, [r5], #-68	; 0x44
     79c:	646f6d2f 	strbtvs	r6, [pc], #-3375	; 7a4 <Code_99+0x4>

000007a0 <Code_99>:
     7a0:	b500      	push	{lr}
     7a2:	17f0      	asrs	r0, r6, #31
     7a4:	d019      	beq.n	7da <Code_99+0x3a>
     7a6:	f7ff fea0 	bl	4ea <Code_45>
     7aa:	f7ff fdd9 	bl	360 <Code_24>
     7ae:	17f0      	asrs	r0, r6, #31
     7b0:	d00c      	beq.n	7cc <Code_99+0x2c>
     7b2:	f7ff fe9a 	bl	4ea <Code_45>
     7b6:	f7ff fdd3 	bl	360 <Code_24>
     7ba:	f7ff ffc8 	bl	74e <Code_97>
     7be:	f7ff fdcf 	bl	360 <Code_24>
     7c2:	f7ff fe92 	bl	4ea <Code_45>
     7c6:	f7ff fdcb 	bl	360 <Code_24>
     7ca:	bd00      	pop	{pc}
     7cc:	f7ff fdc8 	bl	360 <Code_24>
     7d0:	f7ff ffbd 	bl	74e <Code_97>
     7d4:	f7ff fe89 	bl	4ea <Code_45>
     7d8:	bd00      	pop	{pc}
     7da:	f7ff fdc1 	bl	360 <Code_24>
     7de:	17f0      	asrs	r0, r6, #31
     7e0:	d00e      	beq.n	800 <BIT11>
     7e2:	f7ff fe82 	bl	4ea <Code_45>
     7e6:	f7ff fdbb 	bl	360 <Code_24>
     7ea:	f7ff ffb0 	bl	74e <Code_97>
     7ee:	f7ff fe7c 	bl	4ea <Code_45>
     7f2:	f7ff fdb5 	bl	360 <Code_24>
     7f6:	f7ff fe78 	bl	4ea <Code_45>
     7fa:	f7ff fdb1 	bl	360 <Code_24>
     7fe:	bd00      	pop	{pc}
     800:	f7ff fdae 	bl	360 <Code_24>
     804:	f7ff ffa3 	bl	74e <Code_97>
     808:	bd00      	pop	{pc}
     80a:	46c0      	nop			; (mov r8, r8)

0000080c <Dictionary_100>:
     80c:	00000824 	andeq	r0, r0, r4, lsr #16
     810:	64020044 	strvs	r0, [r2], #-68	; 0x44
     814:	b500002f 	strlt	r0, [r0, #-47]	; 0x2f

00000816 <Code_100>:
     816:	b500      	push	{lr}
     818:	f7ff ffc2 	bl	7a0 <Code_99>
     81c:	f7ff fdb0 	bl	380 <Code_26>
     820:	bd00      	pop	{pc}
     822:	46c0      	nop			; (mov r8, r8)

00000824 <Dictionary_101>:
     824:	0000086c 	andeq	r0, r0, ip, ror #16
     828:	66020044 	strvs	r0, [r2], -r4, asr #32
     82c:	b500002a 	strlt	r0, [r0, #-42]	; 0x2a

0000082e <Code_101>:
     82e:	b500      	push	{lr}
     830:	17f0      	asrs	r0, r6, #31
     832:	d00d      	beq.n	850 <Code_101+0x22>
     834:	f7ff fe59 	bl	4ea <Code_45>
     838:	f7ff fd92 	bl	360 <Code_24>
     83c:	17f0      	asrs	r0, r6, #31
     83e:	d00d      	beq.n	85c <Code_101+0x2e>
     840:	f7ff fe53 	bl	4ea <Code_45>
     844:	f7ff fed0 	bl	5e8 <Code_53>
     848:	cf40      	ldmia	r7!, {r6}
     84a:	cf01      	ldmia	r7!, {r0}
     84c:	6038      	str	r0, [r7, #0]
     84e:	bd00      	pop	{pc}
     850:	f7ff fd86 	bl	360 <Code_24>
     854:	17f0      	asrs	r0, r6, #31
     856:	d0f5      	beq.n	844 <Code_101+0x16>
     858:	f7ff fe47 	bl	4ea <Code_45>
     85c:	f7ff fec4 	bl	5e8 <Code_53>
     860:	cf40      	ldmia	r7!, {r6}
     862:	cf01      	ldmia	r7!, {r0}
     864:	6038      	str	r0, [r7, #0]
     866:	f7ff fe40 	bl	4ea <Code_45>
     86a:	bd00      	pop	{pc}

0000086c <Dictionary_104>:
     86c:	000008b8 			; <UNDEFINED> instruction: 0x000008b8
     870:	66020044 	strvs	r0, [r2], -r4, asr #32
     874:	b500002f 	strlt	r0, [r0, #-47]	; 0x2f

00000876 <Code_104>:
     876:	b500      	push	{lr}
     878:	17f0      	asrs	r0, r6, #31
     87a:	d00e      	beq.n	89a <Code_104+0x24>
     87c:	f7ff fe35 	bl	4ea <Code_45>
     880:	f7ff fd6e 	bl	360 <Code_24>
     884:	17f0      	asrs	r0, r6, #31
     886:	d00e      	beq.n	8a6 <Code_104+0x30>
     888:	f7ff fe2f 	bl	4ea <Code_45>
     88c:	f7ff fd68 	bl	360 <Code_24>
     890:	f7ff ff79 	bl	786 <uf_slash_mod>
     894:	f7ff fd74 	bl	380 <Code_26>
     898:	bd00      	pop	{pc}
     89a:	f7ff fd61 	bl	360 <Code_24>
     89e:	17f0      	asrs	r0, r6, #31
     8a0:	d0f4      	beq.n	88c <Code_104+0x16>
     8a2:	f7ff fe22 	bl	4ea <Code_45>
     8a6:	f7ff fd5b 	bl	360 <Code_24>
     8aa:	f7ff ff6c 	bl	786 <uf_slash_mod>
     8ae:	f7ff fe1c 	bl	4ea <Code_45>
     8b2:	f7ff fd65 	bl	380 <Code_26>
     8b6:	bd00      	pop	{pc}

000008b8 <Dictionary_105>:
     8b8:	000008cc 	andeq	r0, r0, ip, asr #17
     8bc:	32020020 	andcc	r0, r2, #32
     8c0:	cf060021 	svcgt	0x00060021

000008c2 <Code_105>:
     8c2:	cf06      	ldmia	r7!, {r1, r2}
     8c4:	6031      	str	r1, [r6, #0]
     8c6:	6072      	str	r2, [r6, #4]
     8c8:	cf40      	ldmia	r7!, {r6}
     8ca:	4770      	bx	lr

000008cc <Dictionary_107>:
     8cc:	000008e0 	andeq	r0, r0, r0, ror #17
     8d0:	32020020 	andcc	r0, r2, #32
     8d4:	3f040040 	svccc	0x00040040

000008d6 <Code_107>:
     8d6:	3f04      	subs	r7, #4
     8d8:	6870      	ldr	r0, [r6, #4]
     8da:	6038      	str	r0, [r7, #0]
     8dc:	6836      	ldr	r6, [r6, #0]
     8de:	4770      	bx	lr

000008e0 <Dictionary_108>:
     8e0:	00000900 	andeq	r0, r0, r0, lsl #18
     8e4:	64030044 	strvs	r0, [r3], #-68	; 0x44
     8e8:	cf073c75 	svcgt	0x00073c75

000008ea <Code_108>:
     8ea:	cf07      	ldmia	r7!, {r0, r1, r2}
     8ec:	428e      	cmp	r6, r1
     8ee:	d804      	bhi.n	8fa <Code_108+0x10>
     8f0:	d101      	bne.n	8f6 <Code_108+0xc>
     8f2:	4290      	cmp	r0, r2
     8f4:	d801      	bhi.n	8fa <Code_108+0x10>
     8f6:	2600      	movs	r6, #0
     8f8:	4770      	bx	lr
     8fa:	2600      	movs	r6, #0
     8fc:	43f6      	mvns	r6, r6
     8fe:	4770      	bx	lr

00000900 <Dictionary_109>:
     900:	00000920 	andeq	r0, r0, r0, lsr #18
     904:	64030044 	strvs	r0, [r3], #-68	; 0x44
     908:	cf073e75 	svcgt	0x00073e75

0000090a <Code_109>:
     90a:	cf07      	ldmia	r7!, {r0, r1, r2}
     90c:	42b1      	cmp	r1, r6
     90e:	d804      	bhi.n	91a <Code_109+0x10>
     910:	d101      	bne.n	916 <Code_109+0xc>
     912:	4282      	cmp	r2, r0
     914:	d801      	bhi.n	91a <Code_109+0x10>
     916:	2600      	movs	r6, #0
     918:	4770      	bx	lr
     91a:	2600      	movs	r6, #0
     91c:	43f6      	mvns	r6, r6
     91e:	4770      	bx	lr

00000920 <Dictionary_110>:
     920:	00000940 	andeq	r0, r0, r0, asr #18
     924:	64020044 	strvs	r0, [r2], #-68	; 0x44
     928:	cf07003c 	svcgt	0x0007003c

0000092a <Code_110>:
     92a:	cf07      	ldmia	r7!, {r0, r1, r2}
     92c:	428e      	cmp	r6, r1
     92e:	dc04      	bgt.n	93a <Code_110+0x10>
     930:	d101      	bne.n	936 <Code_110+0xc>
     932:	4290      	cmp	r0, r2
     934:	dc01      	bgt.n	93a <Code_110+0x10>
     936:	2600      	movs	r6, #0
     938:	4770      	bx	lr
     93a:	2600      	movs	r6, #0
     93c:	43f6      	mvns	r6, r6
     93e:	4770      	bx	lr

00000940 <Dictionary_111>:
     940:	00000960 	andeq	r0, r0, r0, ror #18
     944:	64020044 	strvs	r0, [r2], #-68	; 0x44
     948:	cf07003e 	svcgt	0x0007003e

0000094a <Code_111>:
     94a:	cf07      	ldmia	r7!, {r0, r1, r2}
     94c:	42b1      	cmp	r1, r6
     94e:	dc04      	bgt.n	95a <Code_111+0x10>
     950:	d101      	bne.n	956 <Code_111+0xc>
     952:	4282      	cmp	r2, r0
     954:	dc01      	bgt.n	95a <Code_111+0x10>
     956:	2600      	movs	r6, #0
     958:	4770      	bx	lr
     95a:	2600      	movs	r6, #0
     95c:	43f6      	mvns	r6, r6
     95e:	4770      	bx	lr

00000960 <Dictionary_112>:
     960:	00000970 	andeq	r0, r0, r0, ror r9
     964:	64030062 	strvs	r0, [r3], #-98	; 0x62
     968:	37043c30 	smladxcc	r4, r0, ip, r3

0000096a <Code_112>:
     96a:	3704      	adds	r7, #4
     96c:	17f6      	asrs	r6, r6, #31
     96e:	4770      	bx	lr

00000970 <Dictionary_113>:
     970:	00000984 	andeq	r0, r0, r4, lsl #19
     974:	64030062 	strvs	r0, [r3], #-98	; 0x62
     978:	cf013d30 	svcgt	0x00013d30

0000097a <Code_113>:
     97a:	cf01      	ldmia	r7!, {r0}
     97c:	4306      	orrs	r6, r0
     97e:	3e01      	subs	r6, #1
     980:	41b6      	sbcs	r6, r6
     982:	4770      	bx	lr

00000984 <Dictionary_114>:
     984:	000009a0 	andeq	r0, r0, r0, lsr #19
     988:	64030044 	strvs	r0, [r3], #-68	; 0x44
     98c:	cf073e3c 	svcgt	0x00073e3c

0000098e <Code_114>:
     98e:	cf07      	ldmia	r7!, {r0, r1, r2}
     990:	4050      	eors	r0, r2
     992:	404e      	eors	r6, r1
     994:	4306      	orrs	r6, r0
     996:	3e01      	subs	r6, #1
     998:	41b6      	sbcs	r6, r6
     99a:	43f6      	mvns	r6, r6
     99c:	4770      	bx	lr
     99e:	46c0      	nop			; (mov r8, r8)

000009a0 <Dictionary_115>:
     9a0:	000009b8 			; <UNDEFINED> instruction: 0x000009b8
     9a4:	64020044 	strvs	r0, [r2], #-68	; 0x44
     9a8:	cf07003d 	svcgt	0x0007003d

000009aa <Code_115>:
     9aa:	cf07      	ldmia	r7!, {r0, r1, r2}
     9ac:	4050      	eors	r0, r2
     9ae:	404e      	eors	r6, r1
     9b0:	4306      	orrs	r6, r0
     9b2:	3e01      	subs	r6, #1
     9b4:	41b6      	sbcs	r6, r6
     9b6:	4770      	bx	lr

000009b8 <Dictionary_116>:
     9b8:	000009cc 	andeq	r0, r0, ip, asr #19
     9bc:	73030020 	movwvc	r0, #12320	; 0x3020
     9c0:	3f044070 	svccc	0x00044070

000009c2 <Code_116>:
     9c2:	3f04      	subs	r7, #4
     9c4:	603e      	str	r6, [r7, #0]
     9c6:	003e      	movs	r6, r7
     9c8:	4770      	bx	lr
     9ca:	46c0      	nop			; (mov r8, r8)

000009cc <Dictionary_118>:
     9cc:	000009dc 	ldrdeq	r0, [r0], -ip
     9d0:	73030020 	movwvc	r0, #12320	; 0x3020
     9d4:	00372170 	eorseq	r2, r7, r0, ror r1

000009d6 <Code_118>:
     9d6:	0037      	movs	r7, r6
     9d8:	cf40      	ldmia	r7!, {r6}
     9da:	4770      	bx	lr

000009dc <Dictionary_119>:
     9dc:	000009f0 	strdeq	r0, [r0], -r0	; <UNPREDICTABLE>
     9e0:	72030020 	andvc	r0, r3, #32
     9e4:	3f044070 	svccc	0x00044070

000009e6 <Code_119>:
     9e6:	3f04      	subs	r7, #4
     9e8:	603e      	str	r6, [r7, #0]
     9ea:	466e      	mov	r6, sp
     9ec:	4770      	bx	lr
     9ee:	46c0      	nop			; (mov r8, r8)

000009f0 <Dictionary_121>:
     9f0:	00000a00 	andeq	r0, r0, r0, lsl #20
     9f4:	72030020 	andvc	r0, r3, #32
     9f8:	46b52170 			; <UNDEFINED> instruction: 0x46b52170

000009fa <Code_121>:
     9fa:	46b5      	mov	sp, r6
     9fc:	cf40      	ldmia	r7!, {r6}
     9fe:	4770      	bx	lr

00000a00 <Dictionary_122>:
     a00:	00000a10 	andeq	r0, r0, r0, lsl sl
     a04:	64030061 	strvs	r0, [r3], #-97	; 0x61
     a08:	3f047075 	svccc	0x00047075

00000a0a <Code_122>:
     a0a:	3f04      	subs	r7, #4
     a0c:	603e      	str	r6, [r7, #0]
     a0e:	4770      	bx	lr

00000a10 <Dictionary_125>:
     a10:	00000a20 	andeq	r0, r0, r0, lsr #20
     a14:	64040061 	strvs	r0, [r4], #-97	; 0x61
     a18:	00706f72 	rsbseq	r6, r0, r2, ror pc

00000a1c <Code_125>:
     a1c:	cf40      	ldmia	r7!, {r6}
     a1e:	4770      	bx	lr

00000a20 <Dictionary_127>:
     a20:	00000a38 	andeq	r0, r0, r8, lsr sl
     a24:	3f040061 	svccc	0x00040061
     a28:	00707564 	rsbseq	r7, r0, r4, ror #10

00000a2c <Code_127>:
     a2c:	2e00      	cmp	r6, #0
     a2e:	d001      	beq.n	a34 <Code_127+0x8>
     a30:	3f04      	subs	r7, #4
     a32:	603e      	str	r6, [r7, #0]
     a34:	4770      	bx	lr
     a36:	46c0      	nop			; (mov r8, r8)

00000a38 <Dictionary_129>:
     a38:	00000a4c 	andeq	r0, r0, ip, asr #20
     a3c:	73040062 	movwvc	r0, #16482	; 0x4062
     a40:	00706177 	rsbseq	r6, r0, r7, ror r1

00000a44 <Code_129>:
     a44:	6839      	ldr	r1, [r7, #0]
     a46:	603e      	str	r6, [r7, #0]
     a48:	000e      	movs	r6, r1
     a4a:	4770      	bx	lr

00000a4c <Dictionary_130>:
     a4c:	00000a5c 	andeq	r0, r0, ip, asr sl
     a50:	6e030062 	cdpvs	0, 0, cr0, cr3, cr2, {3}
     a54:	37047069 	strcc	r7, [r4, -r9, rrx]

00000a56 <Code_130>:
     a56:	3704      	adds	r7, #4
     a58:	4770      	bx	lr
     a5a:	46c0      	nop			; (mov r8, r8)

00000a5c <Dictionary_132>:
     a5c:	00000a70 	andeq	r0, r0, r0, ror sl
     a60:	6f040062 	svcvs	0x00040062
     a64:	00726576 	rsbseq	r6, r2, r6, ror r5

00000a68 <Code_132>:
     a68:	3f04      	subs	r7, #4
     a6a:	603e      	str	r6, [r7, #0]
     a6c:	687e      	ldr	r6, [r7, #4]
     a6e:	4770      	bx	lr

00000a70 <Dictionary_134>:
     a70:	00000a88 	andeq	r0, r0, r8, lsl #21
     a74:	74040062 	strvc	r0, [r4], #-98	; 0x62
     a78:	006b6375 	rsbeq	r6, fp, r5, ror r3

00000a7c <Code_134>:
     a7c:	cf01      	ldmia	r7!, {r0}
     a7e:	3f08      	subs	r7, #8
     a80:	607e      	str	r6, [r7, #4]
     a82:	6038      	str	r0, [r7, #0]
     a84:	4770      	bx	lr
     a86:	46c0      	nop			; (mov r8, r8)

00000a88 <Dictionary_135>:
     a88:	00000aa0 	andeq	r0, r0, r0, lsr #21
     a8c:	72030063 	andvc	r0, r3, #99	; 0x63
     a90:	cf03746f 	svcgt	0x0003746f

00000a92 <Code_135>:
     a92:	cf03      	ldmia	r7!, {r0, r1}
     a94:	3f08      	subs	r7, #8
     a96:	6078      	str	r0, [r7, #4]
     a98:	603e      	str	r6, [r7, #0]
     a9a:	000e      	movs	r6, r1
     a9c:	4770      	bx	lr
     a9e:	46c0      	nop			; (mov r8, r8)

00000aa0 <Dictionary_136>:
     aa0:	00000ab8 			; <UNDEFINED> instruction: 0x00000ab8
     aa4:	2d040063 	stccs	0, cr0, [r4, #-396]	; 0xfffffe74
     aa8:	00746f72 	rsbseq	r6, r4, r2, ror pc

00000aac <Code_136>:
     aac:	cf03      	ldmia	r7!, {r0, r1}
     aae:	3f08      	subs	r7, #8
     ab0:	607e      	str	r6, [r7, #4]
     ab2:	6039      	str	r1, [r7, #0]
     ab4:	0006      	movs	r6, r0
     ab6:	4770      	bx	lr

00000ab8 <Dictionary_137>:
     ab8:	00000acc 	andeq	r0, r0, ip, asr #21
     abc:	70040020 	andvc	r0, r4, r0, lsr #32
     ac0:	006b6369 	rsbeq	r6, fp, r9, ror #6

00000ac4 <Code_137>:
     ac4:	00b0      	lsls	r0, r6, #2
     ac6:	583e      	ldr	r6, [r7, r0]
     ac8:	4770      	bx	lr
     aca:	46c0      	nop			; (mov r8, r8)

00000acc <Dictionary_138>:
     acc:	00000ae4 	andeq	r0, r0, r4, ror #21
     ad0:	64050000 	strvs	r0, [r5]
     ad4:	68747065 	ldmdavs	r4!, {r0, r2, r5, r6, ip, sp, lr}^

00000ad8 <Code_138>:
     ad8:	49c7      	ldr	r1, [pc, #796]	; (df8 <Code_182+0xc>)
     ada:	1bc9      	subs	r1, r1, r7
     adc:	3f04      	subs	r7, #4
     ade:	603e      	str	r6, [r7, #0]
     ae0:	088e      	lsrs	r6, r1, #2
     ae2:	4770      	bx	lr

00000ae4 <Dictionary_140>:
     ae4:	00000b00 	andeq	r0, r0, r0, lsl #22
     ae8:	72060000 	andvc	r0, r6, #0
     aec:	74706564 	ldrbtvc	r6, [r0], #-1380	; 0x564
     af0:	3f040068 	svccc	0x00040068

00000af2 <Code_140>:
     af2:	3f04      	subs	r7, #4
     af4:	603e      	str	r6, [r7, #0]
     af6:	466e      	mov	r6, sp
     af8:	49c0      	ldr	r1, [pc, #768]	; (dfc <Code_182+0x10>)
     afa:	1b89      	subs	r1, r1, r6
     afc:	088e      	lsrs	r6, r1, #2
     afe:	4770      	bx	lr

00000b00 <Dictionary_142>:
     b00:	00000b10 	andeq	r0, r0, r0, lsl fp
     b04:	3e020020 	cdpcc	0, 0, cr0, cr2, cr0, {1}
     b08:	b4400072 	strblt	r0, [r0], #-114	; 0x72

00000b0a <Code_142>:
     b0a:	b440      	push	{r6}
     b0c:	cf40      	ldmia	r7!, {r6}
     b0e:	4770      	bx	lr

00000b10 <Dictionary_143>:
     b10:	00000b24 	andeq	r0, r0, r4, lsr #22
     b14:	72020020 	andvc	r0, r2, #32
     b18:	3f04003e 	svccc	0x0004003e

00000b1a <Code_143>:
     b1a:	3f04      	subs	r7, #4
     b1c:	603e      	str	r6, [r7, #0]
     b1e:	bc40      	pop	{r6}
     b20:	4770      	bx	lr
     b22:	46c0      	nop			; (mov r8, r8)

00000b24 <Dictionary_145>:
     b24:	00000b38 	andeq	r0, r0, r8, lsr fp
     b28:	72020020 	andvc	r0, r2, #32
     b2c:	3f040040 	svccc	0x00040040

00000b2e <Code_145>:
     b2e:	3f04      	subs	r7, #4
     b30:	603e      	str	r6, [r7, #0]
     b32:	9e00      	ldr	r6, [sp, #0]
     b34:	4770      	bx	lr
     b36:	46c0      	nop			; (mov r8, r8)

00000b38 <Dictionary_147>:
     b38:	00000b48 	andeq	r0, r0, r8, asr #22
     b3c:	72050020 	andvc	r0, r5, #32
     b40:	706f7264 	rsbvc	r7, pc, r4, ror #4

00000b44 <Code_147>:
     b44:	b001      	add	sp, #4
     b46:	4770      	bx	lr

00000b48 <Dictionary_148>:
     b48:	00000b5c 	andeq	r0, r0, ip, asr fp
     b4c:	72050020 	andvc	r0, r5, #32
     b50:	6b636970 	blvs	18db118 <BIT24+0x8db118>

00000b54 <Code_148>:
     b54:	00b6      	lsls	r6, r6, #2
     b56:	446e      	add	r6, sp
     b58:	6836      	ldr	r6, [r6, #0]
     b5a:	4770      	bx	lr

00000b5c <Dictionary_149>:
     b5c:	00000b70 	andeq	r0, r0, r0, ror fp
     b60:	6103006a 	tstvs	r3, sl, rrx
     b64:	cf01646e 	svcgt	0x0001646e

00000b66 <Code_149>:
     b66:	cf01      	ldmia	r7!, {r0}
     b68:	4006      	ands	r6, r0
     b6a:	4770      	bx	lr
     b6c:	4006      	ands	r6, r0
     b6e:	46c0      	nop			; (mov r8, r8)

00000b70 <Dictionary_150>:
     b70:	00000b84 	andeq	r0, r0, r4, lsl #23
     b74:	6203006a 	andvs	r0, r3, #106	; 0x6a
     b78:	cf016369 	svcgt	0x00016369

00000b7a <Code_150>:
     b7a:	cf01      	ldmia	r7!, {r0}
     b7c:	43b0      	bics	r0, r6
     b7e:	0006      	movs	r6, r0
     b80:	4770      	bx	lr
     b82:	4386      	bics	r6, r0

00000b84 <Dictionary_151>:
     b84:	00000b98 	muleq	r0, r8, fp
     b88:	6f02006a 	svcvs	0x0002006a
     b8c:	cf010072 	svcgt	0x00010072

00000b8e <Code_151>:
     b8e:	cf01      	ldmia	r7!, {r0}
     b90:	4306      	orrs	r6, r0
     b92:	4770      	bx	lr
     b94:	4306      	orrs	r6, r0
     b96:	46c0      	nop			; (mov r8, r8)

00000b98 <Dictionary_152>:
     b98:	00000bac 	andeq	r0, r0, ip, lsr #23
     b9c:	7803006a 	stmdavc	r3, {r1, r3, r5, r6}
     ba0:	cf01726f 	svcgt	0x0001726f

00000ba2 <Code_152>:
     ba2:	cf01      	ldmia	r7!, {r0}
     ba4:	4046      	eors	r6, r0
     ba6:	4770      	bx	lr
     ba8:	4046      	eors	r6, r0
     baa:	46c0      	nop			; (mov r8, r8)

00000bac <Dictionary_153>:
     bac:	00000bbc 			; <UNDEFINED> instruction: 0x00000bbc
     bb0:	6e030061 	cdpvs	0, 0, cr0, cr3, cr1, {3}
     bb4:	43f6746f 	mvnsmi	r7, #1862270976	; 0x6f000000

00000bb6 <Code_153>:
     bb6:	43f6      	mvns	r6, r6
     bb8:	4770      	bx	lr
     bba:	46c0      	nop			; (mov r8, r8)

00000bbc <Dictionary_154>:
     bbc:	00000bdc 	ldrdeq	r0, [r0], -ip
     bc0:	63030041 	movwvs	r0, #12353	; 0x3041
     bc4:	00307a6c 	eorseq	r7, r0, ip, ror #20

00000bc6 <Code_154>:
     bc6:	0030      	movs	r0, r6
     bc8:	d006      	beq.n	bd8 <Code_154+0x12>
     bca:	2600      	movs	r6, #0
     bcc:	0040      	lsls	r0, r0, #1
     bce:	d002      	beq.n	bd6 <Code_154+0x10>
     bd0:	d201      	bcs.n	bd6 <Code_154+0x10>
     bd2:	3601      	adds	r6, #1
     bd4:	e7fa      	b.n	bcc <Code_154+0x6>
     bd6:	4770      	bx	lr
     bd8:	2620      	movs	r6, #32
     bda:	4770      	bx	lr

00000bdc <Dictionary_155>:
     bdc:	00000bec 	andeq	r0, r0, ip, ror #23
     be0:	73030061 	movwvc	r0, #12385	; 0x3061
     be4:	08767268 	ldmdaeq	r6!, {r3, r5, r6, r9, ip, sp, lr}^

00000be6 <Code_155>:
     be6:	0876      	lsrs	r6, r6, #1
     be8:	4770      	bx	lr
     bea:	46c0      	nop			; (mov r8, r8)

00000bec <Dictionary_156>:
     bec:	00000bfc 	strdeq	r0, [r0], -ip
     bf0:	73030061 	movwvc	r0, #12385	; 0x3061
     bf4:	00766c68 	rsbseq	r6, r6, r8, ror #24

00000bf6 <Code_156>:
     bf6:	0076      	lsls	r6, r6, #1
     bf8:	4770      	bx	lr
     bfa:	46c0      	nop			; (mov r8, r8)

00000bfc <Dictionary_157>:
     bfc:	00000c0c 	andeq	r0, r0, ip, lsl #24
     c00:	72030061 	andvc	r0, r3, #97	; 0x61
     c04:	2001726f 	andcs	r7, r1, pc, ror #4

00000c06 <Code_157>:
     c06:	2001      	movs	r0, #1
     c08:	41c6      	rors	r6, r0
     c0a:	4770      	bx	lr

00000c0c <Dictionary_158>:
     c0c:	00000c20 	andeq	r0, r0, r0, lsr #24
     c10:	72030061 	andvc	r0, r3, #97	; 0x61
     c14:	20006c6f 	andcs	r6, r0, pc, ror #24

00000c16 <Code_158>:
     c16:	2000      	movs	r0, #0
     c18:	19b6      	adds	r6, r6, r6
     c1a:	4146      	adcs	r6, r0
     c1c:	4770      	bx	lr
     c1e:	46c0      	nop			; (mov r8, r8)

00000c20 <Dictionary_159>:
     c20:	00000c3c 	andeq	r0, r0, ip, lsr ip
     c24:	7206006c 	andvc	r0, r6, #108	; 0x6c
     c28:	66696873 			; <UNDEFINED> instruction: 0x66696873
     c2c:	cf010074 	svcgt	0x00010074

00000c2e <Code_159>:
     c2e:	cf01      	ldmia	r7!, {r0}
     c30:	40f0      	lsrs	r0, r6
     c32:	0006      	movs	r6, r0
     c34:	4770      	bx	lr
     c36:	26000836 			; <UNDEFINED> instruction: 0x26000836
     c3a:	46c0      	nop			; (mov r8, r8)

00000c3c <Dictionary_160>:
     c3c:	00000c58 	andeq	r0, r0, r8, asr ip
     c40:	6107006c 	tstvs	r7, ip, rrx
     c44:	69687372 	stmdbvs	r8!, {r1, r4, r5, r6, r8, r9, ip, sp, lr}^
     c48:	cf017466 	svcgt	0x00017466

00000c4a <Code_160>:
     c4a:	cf01      	ldmia	r7!, {r0}
     c4c:	4130      	asrs	r0, r6
     c4e:	0006      	movs	r6, r0
     c50:	4770      	bx	lr
     c52:	17f61036 			; <UNDEFINED> instruction: 0x17f61036
     c56:	46c0      	nop			; (mov r8, r8)

00000c58 <Dictionary_161>:
     c58:	00000c74 	andeq	r0, r0, r4, ror ip
     c5c:	6c06006c 	stcvs	0, cr0, [r6], {108}	; 0x6c
     c60:	66696873 			; <UNDEFINED> instruction: 0x66696873
     c64:	cf010074 	svcgt	0x00010074

00000c66 <Code_161>:
     c66:	cf01      	ldmia	r7!, {r0}
     c68:	40b0      	lsls	r0, r6
     c6a:	0006      	movs	r6, r0
     c6c:	4770      	bx	lr
     c6e:	26000036 			; <UNDEFINED> instruction: 0x26000036
     c72:	46c0      	nop			; (mov r8, r8)

00000c74 <Dictionary_162>:
     c74:	00000c84 	andeq	r0, r0, r4, lsl #25
     c78:	30020061 	andcc	r0, r2, r1, rrx
     c7c:	3e01003d 	mcrcc	0, 0, r0, cr1, cr13, {1}

00000c7e <Code_162>:
     c7e:	3e01      	subs	r6, #1
     c80:	41b6      	sbcs	r6, r6
     c82:	4770      	bx	lr

00000c84 <Dictionary_163>:
     c84:	00000c98 	muleq	r0, r8, ip
     c88:	30030061 	andcc	r0, r3, r1, rrx
     c8c:	3e013e3c 	mcrcc	14, 0, r3, cr1, cr12, {1}

00000c8e <Code_163>:
     c8e:	3e01      	subs	r6, #1
     c90:	41b6      	sbcs	r6, r6
     c92:	43f6      	mvns	r6, r6
     c94:	4770      	bx	lr
     c96:	46c0      	nop			; (mov r8, r8)

00000c98 <Dictionary_164>:
     c98:	00000ca8 	andeq	r0, r0, r8, lsr #25
     c9c:	30020061 	andcc	r0, r2, r1, rrx
     ca0:	17f6003c 			; <UNDEFINED> instruction: 0x17f6003c

00000ca2 <Code_164>:
     ca2:	17f6      	asrs	r6, r6, #31
     ca4:	4770      	bx	lr
     ca6:	46c0      	nop			; (mov r8, r8)

00000ca8 <Dictionary_165>:
     ca8:	00000cc0 	andeq	r0, r0, r0, asr #25
     cac:	74040060 	strvc	r0, [r4], #-96	; 0x60
     cb0:	00657572 	rsbeq	r7, r5, r2, ror r5

00000cb4 <Code_165>:
     cb4:	3f04      	subs	r7, #4
     cb6:	603e      	str	r6, [r7, #0]

00000cb8 <generate_true>:
     cb8:	2600      	movs	r6, #0
     cba:	43f6      	mvns	r6, r6
     cbc:	4770      	bx	lr
     cbe:	46c0      	nop			; (mov r8, r8)

00000cc0 <Dictionary_167>:
     cc0:	00000cd4 	ldrdeq	r0, [r0], -r4
     cc4:	66050060 	strvs	r0, [r5], -r0, rrx
     cc8:	65736c61 	ldrbvs	r6, [r3, #-3169]!	; 0xc61

00000ccc <Code_167>:
     ccc:	3f04      	subs	r7, #4
     cce:	603e      	str	r6, [r7, #0]
     cd0:	2600      	movs	r6, #0
     cd2:	4770      	bx	lr

00000cd4 <Dictionary_169>:
     cd4:	00000ce8 	andeq	r0, r0, r8, ror #25
     cd8:	3e020042 	cdpcc	0, 0, cr0, cr2, cr2, {2}
     cdc:	cf01003d 	svcgt	0x0001003d

00000cde <Code_169>:
     cde:	cf01      	ldmia	r7!, {r0}
     ce0:	42b0      	cmp	r0, r6
     ce2:	dae9      	bge.n	cb8 <generate_true>
     ce4:	2600      	movs	r6, #0
     ce6:	4770      	bx	lr

00000ce8 <Dictionary_170>:
     ce8:	00000cfc 	strdeq	r0, [r0], -ip
     cec:	3c020042 	stccc	0, cr0, [r2], {66}	; 0x42
     cf0:	cf01003d 	svcgt	0x0001003d

00000cf2 <Code_170>:
     cf2:	cf01      	ldmia	r7!, {r0}
     cf4:	42b0      	cmp	r0, r6
     cf6:	dddf      	ble.n	cb8 <generate_true>
     cf8:	2600      	movs	r6, #0
     cfa:	4770      	bx	lr

00000cfc <Dictionary_171>:
     cfc:	00000d10 	andeq	r0, r0, r0, lsl sp
     d00:	3c010042 	stccc	0, cr0, [r1], {66}	; 0x42

00000d04 <Code_171>:
     d04:	cf01      	ldmia	r7!, {r0}
     d06:	42b0      	cmp	r0, r6
     d08:	dbd6      	blt.n	cb8 <generate_true>
     d0a:	2600      	movs	r6, #0
     d0c:	4770      	bx	lr
     d0e:	46c0      	nop			; (mov r8, r8)

00000d10 <Dictionary_172>:
     d10:	00000d24 	andeq	r0, r0, r4, lsr #26
     d14:	3e010042 	cdpcc	0, 0, cr0, cr1, cr2, {2}

00000d18 <Code_172>:
     d18:	cf01      	ldmia	r7!, {r0}
     d1a:	42b0      	cmp	r0, r6
     d1c:	dccc      	bgt.n	cb8 <generate_true>
     d1e:	2600      	movs	r6, #0
     d20:	4770      	bx	lr
     d22:	46c0      	nop			; (mov r8, r8)

00000d24 <Dictionary_173>:
     d24:	00000d38 	andeq	r0, r0, r8, lsr sp
     d28:	75030062 	strvc	r0, [r3, #-98]	; 0x62
     d2c:	cf013d3e 	svcgt	0x00013d3e

00000d2e <Code_173>:
     d2e:	cf01      	ldmia	r7!, {r0}
     d30:	1b86      	subs	r6, r0, r6
     d32:	41b6      	sbcs	r6, r6
     d34:	43f6      	mvns	r6, r6
     d36:	4770      	bx	lr

00000d38 <Dictionary_174>:
     d38:	00000d4c 	andeq	r0, r0, ip, asr #26
     d3c:	75030062 	strvc	r0, [r3, #-98]	; 0x62
     d40:	cf013d3c 	svcgt	0x00013d3c

00000d42 <Code_174>:
     d42:	cf01      	ldmia	r7!, {r0}
     d44:	1a36      	subs	r6, r6, r0
     d46:	41b6      	sbcs	r6, r6
     d48:	43f6      	mvns	r6, r6
     d4a:	4770      	bx	lr

00000d4c <Dictionary_175>:
     d4c:	00000d60 	andeq	r0, r0, r0, ror #26
     d50:	75020062 	strvc	r0, [r2, #-98]	; 0x62
     d54:	cf01003c 	svcgt	0x0001003c

00000d56 <Code_175>:
     d56:	cf01      	ldmia	r7!, {r0}
     d58:	1b86      	subs	r6, r0, r6
     d5a:	41b6      	sbcs	r6, r6
     d5c:	4770      	bx	lr
     d5e:	46c0      	nop			; (mov r8, r8)

00000d60 <Dictionary_176>:
     d60:	00000d74 	andeq	r0, r0, r4, ror sp
     d64:	75020062 	strvc	r0, [r2, #-98]	; 0x62
     d68:	cf01003e 	svcgt	0x0001003e

00000d6a <Code_176>:
     d6a:	cf01      	ldmia	r7!, {r0}
     d6c:	1a36      	subs	r6, r6, r0
     d6e:	41b6      	sbcs	r6, r6
     d70:	4770      	bx	lr
     d72:	46c0      	nop			; (mov r8, r8)

00000d74 <Dictionary_177>:
     d74:	00000d8c 	andeq	r0, r0, ip, lsl #27
     d78:	3c02006b 	stccc	0, cr0, [r2], {107}	; 0x6b
     d7c:	cf01003e 	svcgt	0x0001003e

00000d7e <Code_177>:
     d7e:	cf01      	ldmia	r7!, {r0}
     d80:	1a36      	subs	r6, r6, r0
     d82:	3e01      	subs	r6, #1
     d84:	41b6      	sbcs	r6, r6
     d86:	43f6      	mvns	r6, r6
     d88:	4770      	bx	lr
     d8a:	46c0      	nop			; (mov r8, r8)

00000d8c <Dictionary_178>:
     d8c:	00000da0 	andeq	r0, r0, r0, lsr #27
     d90:	3d01006b 	stccc	0, cr0, [r1, #-428]	; 0xfffffe54

00000d94 <Code_178>:
     d94:	cf01      	ldmia	r7!, {r0}
     d96:	1a36      	subs	r6, r6, r0
     d98:	3e01      	subs	r6, #1
     d9a:	41b6      	sbcs	r6, r6
     d9c:	4770      	bx	lr
     d9e:	46c0      	nop			; (mov r8, r8)

00000da0 <Dictionary_179>:
     da0:	00000db4 			; <UNDEFINED> instruction: 0x00000db4
     da4:	6d030062 	stcvs	0, cr0, [r3, #-392]	; 0xfffffe78
     da8:	cf016e69 	svcgt	0x00016e69

00000daa <Code_179>:
     daa:	cf01      	ldmia	r7!, {r0}
     dac:	42b0      	cmp	r0, r6
     dae:	dc00      	bgt.n	db2 <Code_179+0x8>
     db0:	0006      	movs	r6, r0
     db2:	4770      	bx	lr

00000db4 <Dictionary_180>:
     db4:	00000dc8 	andeq	r0, r0, r8, asr #27
     db8:	6d030062 	stcvs	0, cr0, [r3, #-392]	; 0xfffffe78
     dbc:	cf017861 	svcgt	0x00017861

00000dbe <Code_180>:
     dbe:	cf01      	ldmia	r7!, {r0}
     dc0:	42b0      	cmp	r0, r6
     dc2:	db00      	blt.n	dc6 <Code_180+0x8>
     dc4:	0006      	movs	r6, r0
     dc6:	4770      	bx	lr

00000dc8 <Dictionary_181>:
     dc8:	00000de0 	andeq	r0, r0, r0, ror #27
     dcc:	75040062 	strvc	r0, [r4, #-98]	; 0x62
     dd0:	0078616d 	rsbseq	r6, r8, sp, ror #2

00000dd4 <Code_181>:
     dd4:	cf01      	ldmia	r7!, {r0}
     dd6:	42b0      	cmp	r0, r6
     dd8:	d300      	bcc.n	ddc <Code_181+0x8>
     dda:	0006      	movs	r6, r0
     ddc:	4770      	bx	lr
     dde:	46c0      	nop			; (mov r8, r8)

00000de0 <Dictionary_182>:
     de0:	00000e00 	andeq	r0, r0, r0, lsl #28
     de4:	75040062 	strvc	r0, [r4, #-98]	; 0x62
     de8:	006e696d 	rsbeq	r6, lr, sp, ror #18

00000dec <Code_182>:
     dec:	cf01      	ldmia	r7!, {r0}
     dee:	42b0      	cmp	r0, r6
     df0:	d800      	bhi.n	df4 <Code_182+0x8>
     df2:	0006      	movs	r6, r0
     df4:	4770      	bx	lr
     df6:	03300000 	teqeq	r0, #0
     dfa:	04301000 	ldrteq	r1, [r0]
     dfe:	0e401000 	cdpeq	0, 4, cr1, cr0, cr0, {0}

00000e00 <Dictionary_183>:
     e00:	00000e40 	andeq	r0, r0, r0, asr #28
     e04:	6d040000 	stcvs	0, cr0, [r4]
     e08:	0065766f 	rsbeq	r7, r5, pc, ror #12

00000e0c <Code_183>:
     e0c:	b507      	push	{r0, r1, r2, lr}
     e0e:	0031      	movs	r1, r6
     e10:	cf40      	ldmia	r7!, {r6}
     e12:	0032      	movs	r2, r6
     e14:	cf40      	ldmia	r7!, {r6}
     e16:	2900      	cmp	r1, #0
     e18:	d00f      	beq.n	e3a <Code_183+0x2e>
     e1a:	42b2      	cmp	r2, r6
     e1c:	d00d      	beq.n	e3a <Code_183+0x2e>
     e1e:	d306      	bcc.n	e2e <Code_183+0x22>
     e20:	3e01      	subs	r6, #1
     e22:	3a01      	subs	r2, #1
     e24:	5c70      	ldrb	r0, [r6, r1]
     e26:	5450      	strb	r0, [r2, r1]
     e28:	3901      	subs	r1, #1
     e2a:	d1fb      	bne.n	e24 <Code_183+0x18>
     e2c:	e005      	b.n	e3a <Code_183+0x2e>
     e2e:	7830      	ldrb	r0, [r6, #0]
     e30:	7010      	strb	r0, [r2, #0]
     e32:	3601      	adds	r6, #1
     e34:	3201      	adds	r2, #1
     e36:	3901      	subs	r1, #1
     e38:	d1f9      	bne.n	e2e <Code_183+0x22>
     e3a:	cf40      	ldmia	r7!, {r6}
     e3c:	bd07      	pop	{r0, r1, r2, pc}
     e3e:	46c0      	nop			; (mov r8, r8)

00000e40 <Dictionary_187>:
     e40:	00000e64 	andeq	r0, r0, r4, ror #28
     e44:	66040000 	strvs	r0, [r4], -r0
     e48:	006c6c69 	rsbeq	r6, ip, r9, ror #24

00000e4c <Code_187>:
     e4c:	0030      	movs	r0, r6
     e4e:	cf40      	ldmia	r7!, {r6}
     e50:	0031      	movs	r1, r6
     e52:	cf40      	ldmia	r7!, {r6}
     e54:	2900      	cmp	r1, #0
     e56:	d002      	beq.n	e5e <Code_187+0x12>
     e58:	3901      	subs	r1, #1
     e5a:	5470      	strb	r0, [r6, r1]
     e5c:	d1fc      	bne.n	e58 <Code_187+0xc>
     e5e:	cf40      	ldmia	r7!, {r6}
     e60:	4770      	bx	lr
     e62:	46c0      	nop			; (mov r8, r8)

00000e64 <Dictionary_191>:
     e64:	00000e70 	andeq	r0, r0, r0, ror lr
     e68:	40010020 	andmi	r0, r1, r0, lsr #32

00000e6c <Code_191>:
     e6c:	6836      	ldr	r6, [r6, #0]
     e6e:	4770      	bx	lr

00000e70 <Dictionary_192>:
     e70:	00000e88 	andeq	r0, r0, r8, lsl #29
     e74:	2101006d 	tstcs	r1, sp, rrx

00000e78 <Code_192>:
     e78:	cf03      	ldmia	r7!, {r0, r1}
     e7a:	6030      	str	r0, [r6, #0]
     e7c:	000e      	movs	r6, r1
     e7e:	4770      	bx	lr
     e80:	6006      	str	r6, [r0, #0]
     e82:	4770      	bx	lr
     e84:	6001      	str	r1, [r0, #0]
     e86:	4770      	bx	lr

00000e88 <Dictionary_193>:
     e88:	00000eb0 			; <UNDEFINED> instruction: 0x00000eb0
     e8c:	2b02006d 	blcs	81048 <BIT19+0x1048>
     e90:	cf030021 	svcgt	0x00030021

00000e92 <Code_193>:
     e92:	cf03      	ldmia	r7!, {r0, r1}
     e94:	6832      	ldr	r2, [r6, #0]
     e96:	1812      	adds	r2, r2, r0
     e98:	6032      	str	r2, [r6, #0]
     e9a:	000e      	movs	r6, r1
     e9c:	4770      	bx	lr
     e9e:	6802      	ldr	r2, [r0, #0]
     ea0:	1992      	adds	r2, r2, r6
     ea2:	6002      	str	r2, [r0, #0]
     ea4:	4770      	bx	lr
     ea6:	6802      	ldr	r2, [r0, #0]
     ea8:	1852      	adds	r2, r2, r1
     eaa:	6002      	str	r2, [r0, #0]
     eac:	4770      	bx	lr
     eae:	46c0      	nop			; (mov r8, r8)

00000eb0 <Dictionary_194>:
     eb0:	00000ec0 	andeq	r0, r0, r0, asr #29
     eb4:	68020020 	stmdavs	r2, {r5}
     eb8:	88360040 	ldmdahi	r6!, {r6}

00000eba <Code_194>:
     eba:	8836      	ldrh	r6, [r6, #0]
     ebc:	4770      	bx	lr
     ebe:	46c0      	nop			; (mov r8, r8)

00000ec0 <Dictionary_195>:
     ec0:	00000edc 	ldrdeq	r0, [r0], -ip
     ec4:	6802006d 	stmdavs	r2, {r0, r2, r3, r5, r6}
     ec8:	cf030021 	svcgt	0x00030021

00000eca <Code_195>:
     eca:	cf03      	ldmia	r7!, {r0, r1}
     ecc:	8030      	strh	r0, [r6, #0]
     ece:	000e      	movs	r6, r1
     ed0:	4770      	bx	lr
     ed2:	8006      	strh	r6, [r0, #0]
     ed4:	4770      	bx	lr
     ed6:	8001      	strh	r1, [r0, #0]
     ed8:	4770      	bx	lr
     eda:	46c0      	nop			; (mov r8, r8)

00000edc <Dictionary_196>:
     edc:	00000f04 	andeq	r0, r0, r4, lsl #30
     ee0:	6803006d 	stmdavs	r3, {r0, r2, r3, r5, r6}
     ee4:	cf03212b 	svcgt	0x0003212b

00000ee6 <Code_196>:
     ee6:	cf03      	ldmia	r7!, {r0, r1}
     ee8:	8832      	ldrh	r2, [r6, #0]
     eea:	1812      	adds	r2, r2, r0
     eec:	8032      	strh	r2, [r6, #0]
     eee:	000e      	movs	r6, r1
     ef0:	4770      	bx	lr
     ef2:	8802      	ldrh	r2, [r0, #0]
     ef4:	1992      	adds	r2, r2, r6
     ef6:	8002      	strh	r2, [r0, #0]
     ef8:	4770      	bx	lr
     efa:	8802      	ldrh	r2, [r0, #0]
     efc:	1852      	adds	r2, r2, r1
     efe:	8002      	strh	r2, [r0, #0]
     f00:	4770      	bx	lr
     f02:	46c0      	nop			; (mov r8, r8)

00000f04 <Dictionary_197>:
     f04:	00000f14 	andeq	r0, r0, r4, lsl pc
     f08:	63020020 	movwvs	r0, #8224	; 0x2020
     f0c:	78360040 	ldmdavc	r6!, {r6}

00000f0e <Code_197>:
     f0e:	7836      	ldrb	r6, [r6, #0]
     f10:	4770      	bx	lr
     f12:	46c0      	nop			; (mov r8, r8)

00000f14 <Dictionary_198>:
     f14:	00000f30 	andeq	r0, r0, r0, lsr pc
     f18:	6302006d 	movwvs	r0, #8301	; 0x206d
     f1c:	cf030021 	svcgt	0x00030021

00000f1e <Code_198>:
     f1e:	cf03      	ldmia	r7!, {r0, r1}
     f20:	7030      	strb	r0, [r6, #0]
     f22:	000e      	movs	r6, r1
     f24:	4770      	bx	lr
     f26:	7006      	strb	r6, [r0, #0]
     f28:	4770      	bx	lr
     f2a:	7001      	strb	r1, [r0, #0]
     f2c:	4770      	bx	lr
     f2e:	46c0      	nop			; (mov r8, r8)

00000f30 <Dictionary_199>:
     f30:	00000f58 	andeq	r0, r0, r8, asr pc
     f34:	6303006d 	movwvs	r0, #12397	; 0x306d
     f38:	cf03212b 	svcgt	0x0003212b

00000f3a <Code_199>:
     f3a:	cf03      	ldmia	r7!, {r0, r1}
     f3c:	7832      	ldrb	r2, [r6, #0]
     f3e:	1812      	adds	r2, r2, r0
     f40:	7032      	strb	r2, [r6, #0]
     f42:	000e      	movs	r6, r1
     f44:	4770      	bx	lr
     f46:	7802      	ldrb	r2, [r0, #0]
     f48:	1992      	adds	r2, r2, r6
     f4a:	7002      	strb	r2, [r0, #0]
     f4c:	4770      	bx	lr
     f4e:	7802      	ldrb	r2, [r0, #0]
     f50:	1852      	adds	r2, r2, r1
     f52:	7002      	strb	r2, [r0, #0]
     f54:	4770      	bx	lr
     f56:	46c0      	nop			; (mov r8, r8)

00000f58 <Dictionary_200>:
     f58:	00000f80 	andeq	r0, r0, r0, lsl #31
     f5c:	6204006d 	andvs	r0, r4, #109	; 0x6d
     f60:	00217369 	eoreq	r7, r1, r9, ror #6

00000f64 <Code_200>:
     f64:	cf03      	ldmia	r7!, {r0, r1}
     f66:	6832      	ldr	r2, [r6, #0]
     f68:	4302      	orrs	r2, r0
     f6a:	6032      	str	r2, [r6, #0]
     f6c:	000e      	movs	r6, r1
     f6e:	4770      	bx	lr
     f70:	6802      	ldr	r2, [r0, #0]
     f72:	4332      	orrs	r2, r6
     f74:	6002      	str	r2, [r0, #0]
     f76:	4770      	bx	lr
     f78:	6802      	ldr	r2, [r0, #0]
     f7a:	430a      	orrs	r2, r1
     f7c:	6002      	str	r2, [r0, #0]
     f7e:	4770      	bx	lr

00000f80 <Dictionary_201>:
     f80:	00000fa8 	andeq	r0, r0, r8, lsr #31
     f84:	6204006d 	andvs	r0, r4, #109	; 0x6d
     f88:	00216369 	eoreq	r6, r1, r9, ror #6

00000f8c <Code_201>:
     f8c:	cf03      	ldmia	r7!, {r0, r1}
     f8e:	6832      	ldr	r2, [r6, #0]
     f90:	4382      	bics	r2, r0
     f92:	6032      	str	r2, [r6, #0]
     f94:	000e      	movs	r6, r1
     f96:	4770      	bx	lr
     f98:	6802      	ldr	r2, [r0, #0]
     f9a:	43b2      	bics	r2, r6
     f9c:	6002      	str	r2, [r0, #0]
     f9e:	4770      	bx	lr
     fa0:	6802      	ldr	r2, [r0, #0]
     fa2:	438a      	bics	r2, r1
     fa4:	6002      	str	r2, [r0, #0]
     fa6:	4770      	bx	lr

00000fa8 <Dictionary_202>:
     fa8:	00000fd0 	ldrdeq	r0, [r0], -r0	; <UNPREDICTABLE>
     fac:	7804006d 	stmdavc	r4, {r0, r2, r3, r5, r6}
     fb0:	0021726f 	eoreq	r7, r1, pc, ror #4

00000fb4 <Code_202>:
     fb4:	cf03      	ldmia	r7!, {r0, r1}
     fb6:	6832      	ldr	r2, [r6, #0]
     fb8:	4042      	eors	r2, r0
     fba:	6032      	str	r2, [r6, #0]
     fbc:	000e      	movs	r6, r1
     fbe:	4770      	bx	lr
     fc0:	6802      	ldr	r2, [r0, #0]
     fc2:	4072      	eors	r2, r6
     fc4:	6002      	str	r2, [r0, #0]
     fc6:	4770      	bx	lr
     fc8:	6802      	ldr	r2, [r0, #0]
     fca:	404a      	eors	r2, r1
     fcc:	6002      	str	r2, [r0, #0]
     fce:	4770      	bx	lr

00000fd0 <Dictionary_203>:
     fd0:	00001038 	andeq	r1, r0, r8, lsr r0
     fd4:	62040068 	andvs	r0, r4, #104	; 0x68
     fd8:	00407469 	subeq	r7, r0, r9, ror #8

00000fdc <Code_203>:
     fdc:	cf01      	ldmia	r7!, {r0}
     fde:	6836      	ldr	r6, [r6, #0]

00000fe0 <struktur_bitfetch>:
     fe0:	4006      	ands	r6, r0
     fe2:	3e01      	subs	r6, #1
     fe4:	41b6      	sbcs	r6, r6
     fe6:	43f6      	mvns	r6, r6
     fe8:	4770      	bx	lr
     fea:	4abc      	ldr	r2, [pc, #752]	; (12dc <erasesectors+0x1e>)

00000fec <bitfetch_opcoding>:
     fec:	b500      	push	{lr}
     fee:	2b01      	cmp	r3, #1
     ff0:	d10a      	bne.n	1008 <BIT12+0x8>
     ff2:	3f04      	subs	r7, #4
     ff4:	603e      	str	r6, [r7, #0]
     ff6:	2600      	movs	r6, #0
     ff8:	f000 fef4 	bl	1de4 <Code_430>
     ffc:	3f04      	subs	r7, #4
     ffe:	603e      	str	r6, [r7, #0]
    1000:	0016      	movs	r6, r2
    1002:	f001 faba 	bl	257a <Code_577>
    1006:	e011      	b.n	102c <BIT12+0x2c>
    1008:	cf02      	ldmia	r7!, {r1}
    100a:	3b01      	subs	r3, #1
    100c:	f002 fc11 	bl	3832 <konstantenschreiben>
    1010:	3f04      	subs	r7, #4
    1012:	603e      	str	r6, [r7, #0]
    1014:	2636      	movs	r6, #54	; 0x36
    1016:	4316      	orrs	r6, r2
    1018:	f001 faaf 	bl	257a <Code_577>
    101c:	3f04      	subs	r7, #4
    101e:	603e      	str	r6, [r7, #0]
    1020:	000e      	movs	r6, r1
    1022:	3f04      	subs	r7, #4
    1024:	603e      	str	r6, [r7, #0]
    1026:	2600      	movs	r6, #0
    1028:	f000 fedc 	bl	1de4 <Code_430>
    102c:	3f04      	subs	r7, #4
    102e:	603e      	str	r6, [r7, #0]
    1030:	4eab      	ldr	r6, [pc, #684]	; (12e0 <erasesectors+0x22>)
    1032:	f001 f89c 	bl	216e <Code_499>
    1036:	bd00      	pop	{pc}

00001038 <Dictionary_215>:
    1038:	00001060 	andeq	r1, r0, r0, rrx
    103c:	6805006d 	stmdavs	r5, {r0, r2, r3, r5, r6}
    1040:	21736962 	cmncs	r3, r2, ror #18

00001044 <Code_215>:
    1044:	cf03      	ldmia	r7!, {r0, r1}
    1046:	8832      	ldrh	r2, [r6, #0]
    1048:	4302      	orrs	r2, r0
    104a:	8032      	strh	r2, [r6, #0]
    104c:	000e      	movs	r6, r1
    104e:	4770      	bx	lr
    1050:	8802      	ldrh	r2, [r0, #0]
    1052:	4332      	orrs	r2, r6
    1054:	8002      	strh	r2, [r0, #0]
    1056:	4770      	bx	lr
    1058:	8802      	ldrh	r2, [r0, #0]
    105a:	430a      	orrs	r2, r1
    105c:	8002      	strh	r2, [r0, #0]
    105e:	4770      	bx	lr

00001060 <Dictionary_216>:
    1060:	00001088 	andeq	r1, r0, r8, lsl #1
    1064:	6805006d 	stmdavs	r5, {r0, r2, r3, r5, r6}
    1068:	21636962 	cmncs	r3, r2, ror #18

0000106c <Code_216>:
    106c:	cf03      	ldmia	r7!, {r0, r1}
    106e:	8832      	ldrh	r2, [r6, #0]
    1070:	4382      	bics	r2, r0
    1072:	8032      	strh	r2, [r6, #0]
    1074:	000e      	movs	r6, r1
    1076:	4770      	bx	lr
    1078:	8802      	ldrh	r2, [r0, #0]
    107a:	43b2      	bics	r2, r6
    107c:	8002      	strh	r2, [r0, #0]
    107e:	4770      	bx	lr
    1080:	8802      	ldrh	r2, [r0, #0]
    1082:	438a      	bics	r2, r1
    1084:	8002      	strh	r2, [r0, #0]
    1086:	4770      	bx	lr

00001088 <Dictionary_217>:
    1088:	000010b0 	strheq	r1, [r0], -r0
    108c:	6805006d 	stmdavs	r5, {r0, r2, r3, r5, r6}
    1090:	21726f78 	cmncs	r2, r8, ror pc

00001094 <Code_217>:
    1094:	cf03      	ldmia	r7!, {r0, r1}
    1096:	8832      	ldrh	r2, [r6, #0]
    1098:	4042      	eors	r2, r0
    109a:	8032      	strh	r2, [r6, #0]
    109c:	000e      	movs	r6, r1
    109e:	4770      	bx	lr
    10a0:	8802      	ldrh	r2, [r0, #0]
    10a2:	4072      	eors	r2, r6
    10a4:	8002      	strh	r2, [r0, #0]
    10a6:	4770      	bx	lr
    10a8:	8802      	ldrh	r2, [r0, #0]
    10aa:	404a      	eors	r2, r1
    10ac:	8002      	strh	r2, [r0, #0]
    10ae:	4770      	bx	lr

000010b0 <Dictionary_218>:
    10b0:	000010d0 	ldrdeq	r1, [r0], -r0
    10b4:	68050068 	stmdavs	r5, {r3, r5, r6}
    10b8:	40746962 	rsbsmi	r6, r4, r2, ror #18

000010bc <Code_218>:
    10bc:	cf01      	ldmia	r7!, {r0}
    10be:	8836      	ldrh	r6, [r6, #0]
    10c0:	4006      	ands	r6, r0
    10c2:	3e01      	subs	r6, #1
    10c4:	41b6      	sbcs	r6, r6
    10c6:	43f6      	mvns	r6, r6
    10c8:	4770      	bx	lr
    10ca:	4a86      	ldr	r2, [pc, #536]	; (12e4 <erasesectors+0x26>)
    10cc:	e78e      	b.n	fec <bitfetch_opcoding>
    10ce:	46c0      	nop			; (mov r8, r8)

000010d0 <Dictionary_219>:
    10d0:	000010f8 	strdeq	r1, [r0], -r8
    10d4:	6305006d 	movwvs	r0, #20589	; 0x506d
    10d8:	21736962 	cmncs	r3, r2, ror #18

000010dc <Code_219>:
    10dc:	cf03      	ldmia	r7!, {r0, r1}
    10de:	7832      	ldrb	r2, [r6, #0]
    10e0:	4302      	orrs	r2, r0
    10e2:	7032      	strb	r2, [r6, #0]
    10e4:	000e      	movs	r6, r1
    10e6:	4770      	bx	lr
    10e8:	7802      	ldrb	r2, [r0, #0]
    10ea:	4332      	orrs	r2, r6
    10ec:	7002      	strb	r2, [r0, #0]
    10ee:	4770      	bx	lr
    10f0:	7802      	ldrb	r2, [r0, #0]
    10f2:	430a      	orrs	r2, r1
    10f4:	7002      	strb	r2, [r0, #0]
    10f6:	4770      	bx	lr

000010f8 <Dictionary_220>:
    10f8:	00001120 	andeq	r1, r0, r0, lsr #2
    10fc:	6305006d 	movwvs	r0, #20589	; 0x506d
    1100:	21636962 	cmncs	r3, r2, ror #18

00001104 <Code_220>:
    1104:	cf03      	ldmia	r7!, {r0, r1}
    1106:	7832      	ldrb	r2, [r6, #0]
    1108:	4382      	bics	r2, r0
    110a:	7032      	strb	r2, [r6, #0]
    110c:	000e      	movs	r6, r1
    110e:	4770      	bx	lr
    1110:	7802      	ldrb	r2, [r0, #0]
    1112:	43b2      	bics	r2, r6
    1114:	7002      	strb	r2, [r0, #0]
    1116:	4770      	bx	lr
    1118:	7802      	ldrb	r2, [r0, #0]
    111a:	438a      	bics	r2, r1
    111c:	7002      	strb	r2, [r0, #0]
    111e:	4770      	bx	lr

00001120 <Dictionary_221>:
    1120:	00001148 	andeq	r1, r0, r8, asr #2
    1124:	6305006d 	movwvs	r0, #20589	; 0x506d
    1128:	21726f78 	cmncs	r2, r8, ror pc

0000112c <Code_221>:
    112c:	cf03      	ldmia	r7!, {r0, r1}
    112e:	7832      	ldrb	r2, [r6, #0]
    1130:	4042      	eors	r2, r0
    1132:	7032      	strb	r2, [r6, #0]
    1134:	000e      	movs	r6, r1
    1136:	4770      	bx	lr
    1138:	7802      	ldrb	r2, [r0, #0]
    113a:	4072      	eors	r2, r6
    113c:	7002      	strb	r2, [r0, #0]
    113e:	4770      	bx	lr
    1140:	7802      	ldrb	r2, [r0, #0]
    1142:	404a      	eors	r2, r1
    1144:	7002      	strb	r2, [r0, #0]
    1146:	4770      	bx	lr

00001148 <Dictionary_222>:
    1148:	00001168 	andeq	r1, r0, r8, ror #2
    114c:	63050068 	movwvs	r0, #20584	; 0x5068
    1150:	40746962 	rsbsmi	r6, r4, r2, ror #18

00001154 <Code_222>:
    1154:	cf01      	ldmia	r7!, {r0}
    1156:	7836      	ldrb	r6, [r6, #0]
    1158:	4006      	ands	r6, r0
    115a:	3e01      	subs	r6, #1
    115c:	41b6      	sbcs	r6, r6
    115e:	43f6      	mvns	r6, r6
    1160:	4770      	bx	lr
    1162:	4a61      	ldr	r2, [pc, #388]	; (12e8 <erasesectors+0x2a>)
    1164:	e742      	b.n	fec <bitfetch_opcoding>
    1166:	46c0      	nop			; (mov r8, r8)

00001168 <Dictionary_223>:
    1168:	00001178 	andeq	r1, r0, r8, ror r1
    116c:	63050061 	movwvs	r0, #20577	; 0x5061
    1170:	2b6c6c65 	blcs	1b1c30c <BIT24+0xb1c30c>

00001174 <Code_223>:
    1174:	3604      	adds	r6, #4
    1176:	4770      	bx	lr

00001178 <Dictionary_224>:
    1178:	00001188 	andeq	r1, r0, r8, lsl #3
    117c:	63050061 	movwvs	r0, #20577	; 0x5061
    1180:	736c6c65 	cmnvc	ip, #25856	; 0x6500

00001184 <Code_224>:
    1184:	00b6      	lsls	r6, r6, #2
    1186:	4770      	bx	lr

00001188 <Dictionary_225>:
    1188:	000011cc 	andeq	r1, r0, ip, asr #3
    118c:	66090081 	strvs	r0, [r9], -r1, lsl #1
    1190:	6873616c 	ldmdavs	r3!, {r2, r3, r5, r6, r8, sp, lr}^
    1194:	7a686b2d 	bvc	1a1be50 <BIT24+0xa1be50>

00001198 <Code_225>:
    1198:	3f04      	subs	r7, #4
    119a:	603e      	str	r6, [r7, #0]
    119c:	4e53      	ldr	r6, [pc, #332]	; (12ec <erasesectors+0x2e>)
    119e:	4770      	bx	lr
    11a0:	00002ee0 	andeq	r2, r0, r0, ror #29

000011a4 <hexflashstore_fehler>:
    11a4:	f000 fcd0 	bl	1b48 <dotgaensefuesschen>
    11a8:	616c461e 	cmnvs	ip, lr, lsl r6
    11ac:	63206873 	teqvs	r0, #7536640	; 0x730000
    11b0:	6f6e6e61 	svcvs	0x006e6e61
    11b4:	65622074 	strbvs	r2, [r2, #-116]!	; 0x74
    11b8:	69727720 	ldmdbvs	r2!, {r5, r8, r9, sl, ip, sp, lr}^
    11bc:	6e657474 	mcrvs	4, 3, r7, cr5, cr4, {3}
    11c0:	69777420 	ldmdbvs	r7!, {r5, sl, ip, sp, lr}^
    11c4:	000a6563 	andeq	r6, sl, r3, ror #10
    11c8:	f002 fb5a 	bl	3880 <Code_955>

000011cc <Dictionary_229>:
    11cc:	00001278 	andeq	r1, r0, r8, ror r2
    11d0:	31080000 	mrscc	r0, (UNDEF: 8)
    11d4:	616c6636 	cmnvs	ip, r6, lsr r6
    11d8:	00216873 	eoreq	r6, r1, r3, ror r8

000011dc <Code_229>:
    11dc:	b53f      	push	{r0, r1, r2, r3, r4, r5, lr}
    11de:	200f      	movs	r0, #15
    11e0:	4030      	ands	r0, r6
    11e2:	d015      	beq.n	1210 <Code_229+0x34>
    11e4:	f000 fcb0 	bl	1b48 <dotgaensefuesschen>
    11e8:	66363122 	ldrtvs	r3, [r6], -r2, lsr #2
    11ec:	6873616c 	ldmdavs	r3!, {r2, r3, r5, r6, r8, sp, lr}^
    11f0:	656e2021 	strbvs	r2, [lr, #-33]!	; 0x21
    11f4:	20736465 	rsbscs	r6, r3, r5, ror #8
    11f8:	612d3631 	teqvs	sp, r1, lsr r6
    11fc:	6e67696c 	cdpvs	9, 6, cr6, cr7, cr12, {3}
    1200:	61206465 	teqvs	r0, r5, ror #8
    1204:	65726464 	ldrbvs	r6, [r2, #-1124]!	; 0x464
    1208:	000a7373 	andeq	r7, sl, r3, ror r3
    120c:	f002 fb38 	bl	3880 <Code_955>
    1210:	6830      	ldr	r0, [r6, #0]
    1212:	3001      	adds	r0, #1
    1214:	d1c6      	bne.n	11a4 <hexflashstore_fehler>
    1216:	6870      	ldr	r0, [r6, #4]
    1218:	3001      	adds	r0, #1
    121a:	d1c3      	bne.n	11a4 <hexflashstore_fehler>
    121c:	68b0      	ldr	r0, [r6, #8]
    121e:	3001      	adds	r0, #1
    1220:	d1c0      	bne.n	11a4 <hexflashstore_fehler>
    1222:	68f0      	ldr	r0, [r6, #12]
    1224:	3001      	adds	r0, #1
    1226:	d1bd      	bne.n	11a4 <hexflashstore_fehler>
    1228:	f000 f846 	bl	12b8 <preparesectors>
    122c:	cf08      	ldmia	r7!, {r3}
    122e:	cf04      	ldmia	r7!, {r2}
    1230:	cf02      	ldmia	r7!, {r1}
    1232:	cf01      	ldmia	r7!, {r0}
    1234:	3f80      	subs	r7, #128	; 0x80
    1236:	3f80      	subs	r7, #128	; 0x80
    1238:	b401      	push	{r0}
    123a:	0038      	movs	r0, r7
    123c:	2440      	movs	r4, #64	; 0x40
    123e:	4d2c      	ldr	r5, [pc, #176]	; (12f0 <erasesectors+0x32>)
    1240:	c020      	stmia	r0!, {r5}
    1242:	3c01      	subs	r4, #1
    1244:	d1fc      	bne.n	1240 <Code_229+0x64>
    1246:	bc01      	pop	{r0}
    1248:	24ff      	movs	r4, #255	; 0xff
    124a:	4034      	ands	r4, r6
    124c:	19e4      	adds	r4, r4, r7
    124e:	c40f      	stmia	r4!, {r0, r1, r2, r3}
    1250:	25ff      	movs	r5, #255	; 0xff
    1252:	43ae      	bics	r6, r5
    1254:	4827      	ldr	r0, [pc, #156]	; (12f4 <erasesectors+0x36>)
    1256:	2133      	movs	r1, #51	; 0x33
    1258:	6001      	str	r1, [r0, #0]
    125a:	6046      	str	r6, [r0, #4]
    125c:	6087      	str	r7, [r0, #8]
    125e:	2180      	movs	r1, #128	; 0x80
    1260:	3180      	adds	r1, #128	; 0x80
    1262:	60c1      	str	r1, [r0, #12]
    1264:	4921      	ldr	r1, [pc, #132]	; (12ec <erasesectors+0x2e>)
    1266:	6809      	ldr	r1, [r1, #0]
    1268:	6101      	str	r1, [r0, #16]
    126a:	4923      	ldr	r1, [pc, #140]	; (12f8 <erasesectors+0x3a>)
    126c:	4a23      	ldr	r2, [pc, #140]	; (12fc <erasesectors+0x3e>)
    126e:	4790      	blx	r2
    1270:	3780      	adds	r7, #128	; 0x80
    1272:	3780      	adds	r7, #128	; 0x80
    1274:	cf40      	ldmia	r7!, {r6}
    1276:	bd3f      	pop	{r0, r1, r2, r3, r4, r5, pc}

00001278 <Dictionary_232>:
    1278:	00001300 	andeq	r1, r0, r0, lsl #6
    127c:	650a0000 	strvs	r0, [sl]
    1280:	65736172 	ldrbvs	r6, [r3, #-370]!	; 0x172
    1284:	73616c66 	cmnvc	r1, #26112	; 0x6600
    1288:	b6720068 	ldrbtlt	r0, [r2], -r8, rrx

0000128a <Code_232>:
    128a:	b672      	cpsid	i
    128c:	f000 f814 	bl	12b8 <preparesectors>
    1290:	f000 f815 	bl	12be <erasesectors>
    1294:	f000 fc58 	bl	1b48 <dotgaensefuesschen>
    1298:	6e69461a 	mcrvs	6, 3, r4, cr9, cr10, {0}
    129c:	65687369 	strbvs	r7, [r8, #-873]!	; 0x369
    12a0:	72652064 	rsbvc	r2, r5, #100	; 0x64
    12a4:	6e697361 	cdpvs	3, 6, cr7, cr9, cr1, {3}
    12a8:	52202e67 	eorpl	r2, r0, #1648	; 0x670
    12ac:	74657365 	strbtvc	r7, [r5], #-869	; 0x365
    12b0:	000a2120 	andeq	r2, sl, r0, lsr #2
    12b4:	f002 fb74 	bl	39a0 <Code_968>

000012b8 <preparesectors>:
    12b8:	b500      	push	{lr}
    12ba:	2132      	movs	r1, #50	; 0x32
    12bc:	e001      	b.n	12c2 <erasesectors+0x4>

000012be <erasesectors>:
    12be:	b500      	push	{lr}
    12c0:	2134      	movs	r1, #52	; 0x34
    12c2:	480c      	ldr	r0, [pc, #48]	; (12f4 <erasesectors+0x36>)
    12c4:	6001      	str	r1, [r0, #0]
    12c6:	2104      	movs	r1, #4
    12c8:	6041      	str	r1, [r0, #4]
    12ca:	210f      	movs	r1, #15
    12cc:	6081      	str	r1, [r0, #8]
    12ce:	4907      	ldr	r1, [pc, #28]	; (12ec <erasesectors+0x2e>)
    12d0:	6809      	ldr	r1, [r1, #0]
    12d2:	60c1      	str	r1, [r0, #12]
    12d4:	4908      	ldr	r1, [pc, #32]	; (12f8 <erasesectors+0x3a>)
    12d6:	4a09      	ldr	r2, [pc, #36]	; (12fc <erasesectors+0x3e>)
    12d8:	4790      	blx	r2
    12da:	bd00      	pop	{pc}
    12dc:	00006800 	andeq	r6, r0, r0, lsl #16
    12e0:	00000fe0 	andeq	r0, r0, r0, ror #31
    12e4:	00008800 	andeq	r8, r0, r0, lsl #16
    12e8:	00007800 	andeq	r7, r0, r0, lsl #16
    12ec:	10001fdc 	ldrdne	r1, [r0], -ip
    12f0:	ffffffff 			; <UNDEFINED> instruction: 0xffffffff
    12f4:	100006b0 			; <UNDEFINED> instruction: 0x100006b0
    12f8:	100006c4 	andne	r0, r0, r4, asr #13
    12fc:	1fff1ff1 	svcne	0x00ff1ff1

00001300 <Dictionary_234>:
    1300:	00001320 	andeq	r1, r0, r0, lsr #6
    1304:	69090000 	stmdbvs	r9, {}	; <UNPREDICTABLE>
    1308:	6674696e 	ldrbtvs	r6, [r4], -lr, ror #18
    130c:	6873616c 	ldmdavs	r3!, {r2, r3, r5, r6, r8, sp, lr}^

00001310 <Code_234>:
    1310:	4853      	ldr	r0, [pc, #332]	; (1460 <flushblock+0x2a>)
    1312:	4954      	ldr	r1, [pc, #336]	; (1464 <flushblock+0x2e>)
    1314:	2200      	movs	r2, #0
    1316:	7002      	strb	r2, [r0, #0]
    1318:	3001      	adds	r0, #1
    131a:	3901      	subs	r1, #1
    131c:	d1fb      	bne.n	1316 <Code_234+0x6>
    131e:	4770      	bx	lr

00001320 <Dictionary_235>:
    1320:	00001408 	andeq	r1, r0, r8, lsl #8
    1324:	68070000 	stmdavs	r7, {}	; <UNPREDICTABLE>
    1328:	73616c66 	cmnvc	r1, #26112	; 0x6600
    132c:	b5302168 	ldrlt	r2, [r0, #-360]!	; 0x168

0000132e <Code_235>:
    132e:	b530      	push	{r4, r5, lr}
    1330:	0032      	movs	r2, r6
    1332:	cf40      	ldmia	r7!, {r6}
    1334:	0850      	lsrs	r0, r2, #1
    1336:	d313      	bcc.n	1360 <Code_235+0x32>
    1338:	f000 fc06 	bl	1b48 <dotgaensefuesschen>
    133c:	6c66681e 	stclvs	8, cr6, [r6], #-120	; 0xffffff88
    1340:	21687361 	cmncs	r8, r1, ror #6
    1344:	65656e20 	strbvs	r6, [r5, #-3616]!	; 0xe20
    1348:	65207364 	strvs	r7, [r0, #-868]!	; 0x364
    134c:	206e6576 	rsbcs	r6, lr, r6, ror r5
    1350:	72646461 	rsbvc	r6, r4, #1627389952	; 0x61000000
    1354:	65737365 	ldrbvs	r7, [r3, #-869]!	; 0x365
    1358:	000a2e73 	andeq	r2, sl, r3, ror lr
    135c:	f002 fa90 	bl	3880 <Code_955>
    1360:	4b41      	ldr	r3, [pc, #260]	; (1468 <flushblock+0x32>)
    1362:	429a      	cmp	r2, r3
    1364:	d210      	bcs.n	1388 <Code_235+0x5a>
    1366:	f000 fbef 	bl	1b48 <dotgaensefuesschen>
    136a:	6e614319 	mcrvs	3, 3, r4, cr1, cr9, {0}
    136e:	20746f6e 	rsbscs	r6, r4, lr, ror #30
    1372:	74697277 	strbtvc	r7, [r9], #-631	; 0x277
    1376:	6e692065 	cdpvs	0, 6, cr2, cr9, cr5, {3}
    137a:	63206f74 	teqvs	r0, #464	; 0x1d0
    137e:	2065726f 	rsbcs	r7, r5, pc, ror #4
    1382:	f0020a21 			; <UNDEFINED> instruction: 0xf0020a21
    1386:	fa7c 0913 			; <UNDEFINED> instruction: 0xfa7c0913
    138a:	4835      	ldr	r0, [pc, #212]	; (1460 <flushblock+0x2a>)
    138c:	2120      	movs	r1, #32
    138e:	6804      	ldr	r4, [r0, #0]
    1390:	0924      	lsrs	r4, r4, #4
    1392:	429c      	cmp	r4, r3
    1394:	d026      	beq.n	13e4 <hflashstoreemulation_gefunden>
    1396:	3014      	adds	r0, #20
    1398:	3901      	subs	r1, #1
    139a:	d1f8      	bne.n	138e <Code_235+0x60>
    139c:	4830      	ldr	r0, [pc, #192]	; (1460 <flushblock+0x2a>)
    139e:	2120      	movs	r1, #32
    13a0:	6804      	ldr	r4, [r0, #0]
    13a2:	2c00      	cmp	r4, #0
    13a4:	d017      	beq.n	13d6 <hflashstoreemulation_leerestelle>
    13a6:	3014      	adds	r0, #20
    13a8:	3901      	subs	r1, #1
    13aa:	d1f9      	bne.n	13a0 <Code_235+0x72>
    13ac:	f000 fbcc 	bl	1b48 <dotgaensefuesschen>
    13b0:	6f6f5421 	svcvs	0x006f5421
    13b4:	6e616d20 	cdpvs	13, 6, cr6, cr1, cr0, {1}
    13b8:	63732079 	cmnvs	r3, #121	; 0x79
    13bc:	65747461 	ldrbvs	r7, [r4, #-1121]!	; 0x461
    13c0:	20646572 	rsbcs	r6, r4, r2, ror r5
    13c4:	73616c46 	cmnvc	r1, #17920	; 0x4600
    13c8:	72772068 	rsbsvc	r2, r7, #104	; 0x68
    13cc:	73657469 	cmnvc	r5, #1761607680	; 0x69000000
    13d0:	f0020a2e 			; <UNDEFINED> instruction: 0xf0020a2e
    13d4:	fa55 011b 			; <UNDEFINED> instruction: 0xfa55011b

000013d6 <hflashstoreemulation_leerestelle>:
    13d6:	011b      	lsls	r3, r3, #4
    13d8:	6003      	str	r3, [r0, #0]
    13da:	3901      	subs	r1, #1
    13dc:	6041      	str	r1, [r0, #4]
    13de:	6081      	str	r1, [r0, #8]
    13e0:	60c1      	str	r1, [r0, #12]
    13e2:	6101      	str	r1, [r0, #16]

000013e4 <hflashstoreemulation_gefunden>:
    13e4:	210f      	movs	r1, #15
    13e6:	4011      	ands	r1, r2
    13e8:	3104      	adds	r1, #4
    13ea:	5246      	strh	r6, [r0, r1]
    13ec:	cf40      	ldmia	r7!, {r6}
    13ee:	6801      	ldr	r1, [r0, #0]
    13f0:	3101      	adds	r1, #1
    13f2:	6001      	str	r1, [r0, #0]
    13f4:	220f      	movs	r2, #15
    13f6:	4011      	ands	r1, r2
    13f8:	2908      	cmp	r1, #8
    13fa:	d103      	bne.n	1404 <hflashstoreemulation_fertig>
    13fc:	f000 f81b 	bl	1436 <flushblock>
    1400:	f7ff feec 	bl	11dc <Code_229>

00001404 <hflashstoreemulation_fertig>:
    1404:	bd30      	pop	{r4, r5, pc}
    1406:	46c0      	nop			; (mov r8, r8)

00001408 <Dictionary_241>:
    1408:	0000146c 	andeq	r1, r0, ip, ror #8
    140c:	660a0000 	strvs	r0, [sl], -r0
    1410:	6873756c 	ldmdavs	r3!, {r2, r3, r5, r6, r8, sl, ip, sp, lr}^
    1414:	73616c66 	cmnvc	r1, #26112	; 0x6600
    1418:	b5000068 	strlt	r0, [r0, #-104]	; 0x68

0000141a <Code_241>:
    141a:	b500      	push	{lr}
    141c:	4810      	ldr	r0, [pc, #64]	; (1460 <flushblock+0x2a>)
    141e:	2120      	movs	r1, #32
    1420:	6802      	ldr	r2, [r0, #0]
    1422:	2a00      	cmp	r2, #0
    1424:	d003      	beq.n	142e <Code_241+0x14>
    1426:	f000 f806 	bl	1436 <flushblock>
    142a:	f7ff fed7 	bl	11dc <Code_229>
    142e:	3014      	adds	r0, #20
    1430:	3901      	subs	r1, #1
    1432:	d1f5      	bne.n	1420 <Code_241+0x6>
    1434:	bd00      	pop	{pc}

00001436 <flushblock>:
    1436:	3f04      	subs	r7, #4
    1438:	603e      	str	r6, [r7, #0]
    143a:	6846      	ldr	r6, [r0, #4]
    143c:	3f04      	subs	r7, #4
    143e:	603e      	str	r6, [r7, #0]
    1440:	6886      	ldr	r6, [r0, #8]
    1442:	3f04      	subs	r7, #4
    1444:	603e      	str	r6, [r7, #0]
    1446:	68c6      	ldr	r6, [r0, #12]
    1448:	3f04      	subs	r7, #4
    144a:	603e      	str	r6, [r7, #0]
    144c:	6906      	ldr	r6, [r0, #16]
    144e:	3f04      	subs	r7, #4
    1450:	603e      	str	r6, [r7, #0]
    1452:	260f      	movs	r6, #15
    1454:	43f6      	mvns	r6, r6
    1456:	6802      	ldr	r2, [r0, #0]
    1458:	4016      	ands	r6, r2
    145a:	2200      	movs	r2, #0
    145c:	6002      	str	r2, [r0, #0]
    145e:	4770      	bx	lr
    1460:	10000430 	andne	r0, r0, r0, lsr r4
    1464:	00000280 	andeq	r0, r0, r0, lsl #5
    1468:	00004000 	andeq	r4, r0, r0

0000146c <Dictionary_247>:
    146c:	00001480 	andeq	r1, r0, r0, lsl #9
    1470:	2b010069 	blcs	4161c <BIT18+0x161c>

00001474 <Code_247>:
    1474:	cf01      	ldmia	r7!, {r0}
    1476:	1836      	adds	r6, r6, r0
    1478:	4770      	bx	lr
    147a:	1836      	adds	r6, r6, r0
    147c:	3600      	adds	r6, #0
    147e:	46c0      	nop			; (mov r8, r8)

00001480 <Dictionary_248>:
    1480:	00001494 	muleq	r0, r4, r4
    1484:	2d010069 	stccs	0, cr0, [r1, #-420]	; 0xfffffe5c

00001488 <Code_248>:
    1488:	cf01      	ldmia	r7!, {r0}
    148a:	1b86      	subs	r6, r0, r6
    148c:	4770      	bx	lr
    148e:	1a36      	subs	r6, r6, r0
    1490:	3e00      	subs	r6, #0
    1492:	46c0      	nop			; (mov r8, r8)

00001494 <Dictionary_249>:
    1494:	000014a4 	andeq	r1, r0, r4, lsr #9
    1498:	31020061 	tstcc	r2, r1, rrx
    149c:	3e01002d 	cdpcc	0, 0, cr0, cr1, cr13, {1}

0000149e <Code_249>:
    149e:	3e01      	subs	r6, #1
    14a0:	4770      	bx	lr
    14a2:	46c0      	nop			; (mov r8, r8)

000014a4 <Dictionary_250>:
    14a4:	000014b4 			; <UNDEFINED> instruction: 0x000014b4
    14a8:	31020061 	tstcc	r2, r1, rrx
    14ac:	3601002b 	strcc	r0, [r1], -fp, lsr #32

000014ae <Code_250>:
    14ae:	3601      	adds	r6, #1
    14b0:	4770      	bx	lr
    14b2:	46c0      	nop			; (mov r8, r8)

000014b4 <Dictionary_251>:
    14b4:	000014c4 	andeq	r1, r0, r4, asr #9
    14b8:	32020061 	andcc	r0, r2, #97	; 0x61
    14bc:	3e02002d 	cdpcc	0, 0, cr0, cr2, cr13, {1}

000014be <Code_251>:
    14be:	3e02      	subs	r6, #2
    14c0:	4770      	bx	lr
    14c2:	46c0      	nop			; (mov r8, r8)

000014c4 <Dictionary_252>:
    14c4:	000014d4 	ldrdeq	r1, [r0], -r4
    14c8:	32020061 	andcc	r0, r2, #97	; 0x61
    14cc:	3602002b 	strcc	r0, [r2], -fp, lsr #32

000014ce <Code_252>:
    14ce:	3602      	adds	r6, #2
    14d0:	4770      	bx	lr
    14d2:	46c0      	nop			; (mov r8, r8)

000014d4 <Dictionary_253>:
    14d4:	000014e8 	andeq	r1, r0, r8, ror #9
    14d8:	6e060061 	cdpvs	0, 0, cr0, cr6, cr1, {3}
    14dc:	74616765 	strbtvc	r6, [r1], #-1893	; 0x765
    14e0:	42760065 	rsbsmi	r0, r6, #101	; 0x65

000014e2 <Code_253>:
    14e2:	4276      	negs	r6, r6
    14e4:	4770      	bx	lr
    14e6:	46c0      	nop			; (mov r8, r8)

000014e8 <Dictionary_254>:
    14e8:	000014fc 	strdeq	r1, [r0], -ip
    14ec:	61030061 	tstvs	r3, r1, rrx
    14f0:	17f07362 	ldrbne	r7, [r0, r2, ror #6]!

000014f2 <Code_254>:
    14f2:	17f0      	asrs	r0, r6, #31
    14f4:	1836      	adds	r6, r6, r0
    14f6:	4046      	eors	r6, r0
    14f8:	4770      	bx	lr
    14fa:	46c0      	nop			; (mov r8, r8)

000014fc <Dictionary_255>:
    14fc:	00001544 	andeq	r1, r0, r4, asr #10
    1500:	75050042 	strvc	r0, [r5, #-66]	; 0x42
    1504:	646f6d2f 	strbtvs	r6, [pc], #-3375	; 150c <Code_255+0x4>

00001508 <Code_255>:
    1508:	0031      	movs	r1, r6
    150a:	cf40      	ldmia	r7!, {r6}
    150c:	2900      	cmp	r1, #0
    150e:	d103      	bne.n	1518 <Code_255+0x10>
    1510:	3f04      	subs	r7, #4
    1512:	603e      	str	r6, [r7, #0]
    1514:	2600      	movs	r6, #0
    1516:	4770      	bx	lr
    1518:	2201      	movs	r2, #1
    151a:	2300      	movs	r3, #0
    151c:	428e      	cmp	r6, r1
    151e:	d906      	bls.n	152e <Code_255+0x26>
    1520:	3100      	adds	r1, #0
    1522:	d404      	bmi.n	152e <Code_255+0x26>
    1524:	0052      	lsls	r2, r2, #1
    1526:	0049      	lsls	r1, r1, #1
    1528:	d401      	bmi.n	152e <Code_255+0x26>
    152a:	428e      	cmp	r6, r1
    152c:	d8fa      	bhi.n	1524 <Code_255+0x1c>
    152e:	428e      	cmp	r6, r1
    1530:	d301      	bcc.n	1536 <Code_255+0x2e>
    1532:	1a76      	subs	r6, r6, r1
    1534:	4313      	orrs	r3, r2
    1536:	0849      	lsrs	r1, r1, #1
    1538:	0852      	lsrs	r2, r2, #1
    153a:	d1f8      	bne.n	152e <Code_255+0x26>
    153c:	3f04      	subs	r7, #4
    153e:	603e      	str	r6, [r7, #0]
    1540:	001e      	movs	r6, r3
    1542:	4770      	bx	lr

00001544 <Dictionary_261>:
    1544:	000015b4 			; <UNDEFINED> instruction: 0x000015b4
    1548:	2f040042 	svccs	0x00040042
    154c:	00646f6d 	rsbeq	r6, r4, sp, ror #30

00001550 <Code_261>:
    1550:	b500      	push	{lr}
    1552:	0030      	movs	r0, r6
    1554:	cf40      	ldmia	r7!, {r6}
    1556:	2e00      	cmp	r6, #0
    1558:	da1c      	bge.n	1594 <divmod_plus>
    155a:	4276      	negs	r6, r6

0000155c <divmod_minus>:
    155c:	2800      	cmp	r0, #0
    155e:	da0c      	bge.n	157a <divmod_minus_plus>

00001560 <divmod_minus_minus>:
    1560:	4240      	negs	r0, r0
    1562:	3f04      	subs	r7, #4
    1564:	603e      	str	r6, [r7, #0]
    1566:	0006      	movs	r6, r0
    1568:	f7ff ffce 	bl	1508 <Code_255>
    156c:	0030      	movs	r0, r6
    156e:	cf40      	ldmia	r7!, {r6}
    1570:	4276      	negs	r6, r6
    1572:	3f04      	subs	r7, #4
    1574:	603e      	str	r6, [r7, #0]
    1576:	0006      	movs	r6, r0
    1578:	bd00      	pop	{pc}

0000157a <divmod_minus_plus>:
    157a:	3f04      	subs	r7, #4
    157c:	603e      	str	r6, [r7, #0]
    157e:	0006      	movs	r6, r0
    1580:	f7ff ffc2 	bl	1508 <Code_255>
    1584:	0030      	movs	r0, r6
    1586:	cf40      	ldmia	r7!, {r6}
    1588:	4240      	negs	r0, r0
    158a:	4276      	negs	r6, r6
    158c:	3f04      	subs	r7, #4
    158e:	603e      	str	r6, [r7, #0]
    1590:	0006      	movs	r6, r0
    1592:	bd00      	pop	{pc}

00001594 <divmod_plus>:
    1594:	2800      	cmp	r0, #0
    1596:	da07      	bge.n	15a8 <divmod_plus_plus>

00001598 <divmod_plus_minus>:
    1598:	4240      	negs	r0, r0
    159a:	3f04      	subs	r7, #4
    159c:	603e      	str	r6, [r7, #0]
    159e:	0006      	movs	r6, r0
    15a0:	f7ff ffb2 	bl	1508 <Code_255>
    15a4:	4276      	negs	r6, r6
    15a6:	bd00      	pop	{pc}

000015a8 <divmod_plus_plus>:
    15a8:	3f04      	subs	r7, #4
    15aa:	603e      	str	r6, [r7, #0]
    15ac:	0006      	movs	r6, r0
    15ae:	f7ff ffab 	bl	1508 <Code_255>
    15b2:	bd00      	pop	{pc}

000015b4 <Dictionary_277>:
    15b4:	000015c8 	andeq	r1, r0, r8, asr #11
    15b8:	6d030042 	stcvs	0, cr0, [r3, #-264]	; 0xfffffef8
    15bc:	b500646f 	strlt	r6, [r0, #-1135]	; 0x46f

000015be <Code_277>:
    15be:	b500      	push	{lr}
    15c0:	f7ff ffc6 	bl	1550 <Code_261>
    15c4:	cf40      	ldmia	r7!, {r6}
    15c6:	bd00      	pop	{pc}

000015c8 <Dictionary_279>:
    15c8:	000015dc 	ldrdeq	r1, [r0], -ip
    15cc:	2f010042 	svccs	0x00010042

000015d0 <Code_279>:
    15d0:	b500      	push	{lr}
    15d2:	f7ff ffbd 	bl	1550 <Code_261>
    15d6:	3704      	adds	r7, #4
    15d8:	bd00      	pop	{pc}
    15da:	46c0      	nop			; (mov r8, r8)

000015dc <Dictionary_280>:
    15dc:	000015ec 	andeq	r1, r0, ip, ror #11
    15e0:	2a01006a 	bcs	41790 <BIT18+0x1790>

000015e4 <Code_280>:
    15e4:	cf01      	ldmia	r7!, {r0}
    15e6:	4346      	muls	r6, r0
    15e8:	4770      	bx	lr
    15ea:	4346      	muls	r6, r0

000015ec <Dictionary_281>:
    15ec:	000015fc 	strdeq	r1, [r0], -ip
    15f0:	32020061 	andcc	r0, r2, #97	; 0x61
    15f4:	0076002a 	rsbseq	r0, r6, sl, lsr #32

000015f6 <Code_281>:
    15f6:	0076      	lsls	r6, r6, #1
    15f8:	4770      	bx	lr
    15fa:	46c0      	nop			; (mov r8, r8)

000015fc <Dictionary_282>:
    15fc:	0000160c 	andeq	r1, r0, ip, lsl #12
    1600:	32020061 	andcc	r0, r2, #97	; 0x61
    1604:	1076002f 	rsbsne	r0, r6, pc, lsr #32

00001606 <Code_282>:
    1606:	1076      	asrs	r6, r6, #1
    1608:	4770      	bx	lr
    160a:	46c0      	nop			; (mov r8, r8)

0000160c <Dictionary_283>:
    160c:	00001620 	andeq	r1, r0, r0, lsr #12
    1610:	65040061 	strvs	r0, [r4, #-97]	; 0x61
    1614:	006e6576 	rsbeq	r6, lr, r6, ror r5

00001618 <Code_283>:
    1618:	2001      	movs	r0, #1
    161a:	4030      	ands	r0, r6
    161c:	1836      	adds	r6, r6, r0
    161e:	4770      	bx	lr

00001620 <Dictionary_284>:
    1620:	00001638 	andeq	r1, r0, r8, lsr r6
    1624:	62040081 	andvs	r0, r4, #129	; 0x81
    1628:	00657361 	rsbeq	r7, r5, r1, ror #6

0000162c <Code_284>:
    162c:	3f04      	subs	r7, #4
    162e:	603e      	str	r6, [r7, #0]
    1630:	4e90      	ldr	r6, [pc, #576]	; (1874 <Code_319+0x1a>)
    1632:	4770      	bx	lr
    1634:	0000000a 	andeq	r0, r0, sl

00001638 <Dictionary_287>:
    1638:	00001650 	andeq	r1, r0, r0, asr r6
    163c:	62060000 	andvs	r0, r6, #0
    1640:	72616e69 	rsbvc	r6, r1, #1680	; 0x690
    1644:	488b0079 	stmmi	fp, {r0, r3, r4, r5, r6}

00001646 <Code_287>:
    1646:	488b      	ldr	r0, [pc, #556]	; (1874 <Code_319+0x1a>)
    1648:	2102      	movs	r1, #2
    164a:	6001      	str	r1, [r0, #0]
    164c:	4770      	bx	lr
    164e:	46c0      	nop			; (mov r8, r8)

00001650 <Dictionary_288>:
    1650:	00001668 	andeq	r1, r0, r8, ror #12
    1654:	64070000 	strvs	r0, [r7]
    1658:	6d696365 	stclvs	3, cr6, [r9, #-404]!	; 0xfffffe6c
    165c:	48856c61 	stmmi	r5, {r0, r5, r6, sl, fp, sp, lr}

0000165e <Code_288>:
    165e:	4885      	ldr	r0, [pc, #532]	; (1874 <Code_319+0x1a>)
    1660:	210a      	movs	r1, #10
    1662:	6001      	str	r1, [r0, #0]
    1664:	4770      	bx	lr
    1666:	46c0      	nop			; (mov r8, r8)

00001668 <Dictionary_289>:
    1668:	000016c4 	andeq	r1, r0, r4, asr #13
    166c:	68030000 	stmdavs	r3, {}	; <UNPREDICTABLE>
    1670:	48807865 	stmmi	r0, {r0, r2, r5, r6, fp, ip, sp, lr}

00001672 <Code_289>:
    1672:	4880      	ldr	r0, [pc, #512]	; (1874 <Code_319+0x1a>)
    1674:	2110      	movs	r1, #16
    1676:	6001      	str	r1, [r0, #0]
    1678:	4770      	bx	lr

0000167a <uart_init>:
    167a:	487f      	ldr	r0, [pc, #508]	; (1878 <Code_319+0x1e>)
    167c:	4a7f      	ldr	r2, [pc, #508]	; (187c <Code_319+0x22>)
    167e:	6801      	ldr	r1, [r0, #0]
    1680:	4311      	orrs	r1, r2
    1682:	6001      	str	r1, [r0, #0]
    1684:	487e      	ldr	r0, [pc, #504]	; (1880 <Code_319+0x26>)
    1686:	21c1      	movs	r1, #193	; 0xc1
    1688:	6001      	str	r1, [r0, #0]
    168a:	487e      	ldr	r0, [pc, #504]	; (1884 <Code_319+0x2a>)
    168c:	6001      	str	r1, [r0, #0]
    168e:	487a      	ldr	r0, [pc, #488]	; (1878 <Code_319+0x1e>)
    1690:	4a7d      	ldr	r2, [pc, #500]	; (1888 <Code_319+0x2e>)
    1692:	6801      	ldr	r1, [r0, #0]
    1694:	4311      	orrs	r1, r2
    1696:	6001      	str	r1, [r0, #0]
    1698:	487c      	ldr	r0, [pc, #496]	; (188c <Code_319+0x32>)
    169a:	2101      	movs	r1, #1
    169c:	6001      	str	r1, [r0, #0]
    169e:	487c      	ldr	r0, [pc, #496]	; (1890 <Code_319+0x36>)
    16a0:	2180      	movs	r1, #128	; 0x80
    16a2:	6001      	str	r1, [r0, #0]
    16a4:	487b      	ldr	r0, [pc, #492]	; (1894 <Code_319+0x3a>)
    16a6:	2185      	movs	r1, #133	; 0x85
    16a8:	6001      	str	r1, [r0, #0]
    16aa:	487b      	ldr	r0, [pc, #492]	; (1898 <Code_319+0x3e>)
    16ac:	2104      	movs	r1, #4
    16ae:	6001      	str	r1, [r0, #0]
    16b0:	487a      	ldr	r0, [pc, #488]	; (189c <Code_319+0x42>)
    16b2:	2100      	movs	r1, #0
    16b4:	6001      	str	r1, [r0, #0]
    16b6:	4876      	ldr	r0, [pc, #472]	; (1890 <Code_319+0x36>)
    16b8:	2103      	movs	r1, #3
    16ba:	6001      	str	r1, [r0, #0]
    16bc:	4878      	ldr	r0, [pc, #480]	; (18a0 <Code_319+0x46>)
    16be:	2107      	movs	r1, #7
    16c0:	6001      	str	r1, [r0, #0]
    16c2:	4770      	bx	lr

000016c4 <Dictionary_290>:
    16c4:	000016e0 	andeq	r1, r0, r0, ror #13
    16c8:	68090081 	stmdavs	r9, {r0, r7}
    16cc:	2d6b6f6f 	stclcs	15, cr6, [fp, #-444]!	; 0xfffffe44
    16d0:	74696d65 	strbtvc	r6, [r9], #-3429	; 0xd65

000016d4 <Code_290>:
    16d4:	3f04      	subs	r7, #4
    16d6:	603e      	str	r6, [r7, #0]
    16d8:	4e72      	ldr	r6, [pc, #456]	; (18a4 <Code_319+0x4a>)
    16da:	4770      	bx	lr
    16dc:	000017d6 	ldrdeq	r1, [r0], -r6

000016e0 <Dictionary_293>:
    16e0:	000016fc 	strdeq	r1, [r0], -ip
    16e4:	68080081 	stmdavs	r8, {r0, r7}
    16e8:	2d6b6f6f 	stclcs	15, cr6, [fp, #-444]!	; 0xfffffe44
    16ec:	0079656b 	rsbseq	r6, r9, fp, ror #10

000016f0 <Code_293>:
    16f0:	3f04      	subs	r7, #4
    16f2:	603e      	str	r6, [r7, #0]
    16f4:	4e6c      	ldr	r6, [pc, #432]	; (18a8 <Code_319+0x4e>)
    16f6:	4770      	bx	lr
    16f8:	000017fe 	strdeq	r1, [r0], -lr

000016fc <Dictionary_296>:
    16fc:	0000171c 	andeq	r1, r0, ip, lsl r7
    1700:	680a0081 	stmdavs	sl, {r0, r7}
    1704:	2d6b6f6f 	stclcs	15, cr6, [fp, #-444]!	; 0xfffffe44
    1708:	74696d65 	strbtvc	r6, [r9], #-3429	; 0xd65
    170c:	3f04003f 	svccc	0x0004003f

0000170e <Code_296>:
    170e:	3f04      	subs	r7, #4
    1710:	603e      	str	r6, [r7, #0]
    1712:	4e66      	ldr	r6, [pc, #408]	; (18ac <Code_319+0x52>)
    1714:	4770      	bx	lr
    1716:	0000182c 	andeq	r1, r0, ip, lsr #16
    171a:	173846c0 	ldrne	r4, [r8, -r0, asr #13]!

0000171c <Dictionary_299>:
    171c:	00001738 	andeq	r1, r0, r8, lsr r7
    1720:	68090081 	stmdavs	r9, {r0, r7}
    1724:	2d6b6f6f 	stclcs	15, cr6, [fp, #-444]!	; 0xfffffe44
    1728:	3f79656b 	svccc	0x0079656b

0000172c <Code_299>:
    172c:	3f04      	subs	r7, #4
    172e:	603e      	str	r6, [r7, #0]
    1730:	4e5f      	ldr	r6, [pc, #380]	; (18b0 <Code_319+0x56>)
    1732:	4770      	bx	lr
    1734:	0000185a 	andeq	r1, r0, sl, asr r8

00001738 <Dictionary_302>:
    1738:	00001758 	andeq	r1, r0, r8, asr r7
    173c:	680a0081 	stmdavs	sl, {r0, r7}
    1740:	2d6b6f6f 	stclcs	15, cr6, [fp, #-444]!	; 0xfffffe44
    1744:	73756170 	cmnvc	r5, #28
    1748:	3f040065 	svccc	0x00040065

0000174a <Code_302>:
    174a:	3f04      	subs	r7, #4
    174c:	603e      	str	r6, [r7, #0]
    174e:	4e59      	ldr	r6, [pc, #356]	; (18b4 <Code_319+0x5a>)
    1750:	4770      	bx	lr
    1752:	0000394e 	andeq	r3, r0, lr, asr #18
    1756:	177046c0 	ldrbne	r4, [r0, -r0, asr #13]!

00001758 <Dictionary_305>:
    1758:	00001770 	andeq	r1, r0, r0, ror r7
    175c:	65040000 	strvs	r0, [r4]
    1760:	0074696d 	rsbseq	r6, r4, sp, ror #18

00001764 <Code_305>:
    1764:	b50f      	push	{r0, r1, r2, r3, lr}
    1766:	484f      	ldr	r0, [pc, #316]	; (18a4 <Code_319+0x4a>)
    1768:	f000 f829 	bl	17be <hook_intern>
    176c:	bd0f      	pop	{r0, r1, r2, r3, pc}
    176e:	46c0      	nop			; (mov r8, r8)

00001770 <Dictionary_306>:
    1770:	00001784 	andeq	r1, r0, r4, lsl #15
    1774:	6b030000 	blvs	c177c <BIT19+0x4177c>
    1778:	b50f7965 	strlt	r7, [pc, #-2405]	; e1b <Code_183+0xf>

0000177a <Code_306>:
    177a:	b50f      	push	{r0, r1, r2, r3, lr}
    177c:	484a      	ldr	r0, [pc, #296]	; (18a8 <Code_319+0x4e>)
    177e:	f000 f81e 	bl	17be <hook_intern>
    1782:	bd0f      	pop	{r0, r1, r2, r3, pc}

00001784 <Dictionary_307>:
    1784:	00001798 	muleq	r0, r8, r7
    1788:	65050000 	strvs	r0, [r5]
    178c:	3f74696d 	svccc	0x0074696d

00001790 <Code_307>:
    1790:	4846      	ldr	r0, [pc, #280]	; (18ac <Code_319+0x52>)
    1792:	6800      	ldr	r0, [r0, #0]
    1794:	4687      	mov	pc, r0
    1796:	46c0      	nop			; (mov r8, r8)

00001798 <Dictionary_308>:
    1798:	000017ac 	andeq	r1, r0, ip, lsr #15
    179c:	6b040000 	blvs	1017a4 <BIT20+0x17a4>
    17a0:	003f7965 	eorseq	r7, pc, r5, ror #18

000017a4 <Code_308>:
    17a4:	4842      	ldr	r0, [pc, #264]	; (18b0 <Code_319+0x56>)
    17a6:	6800      	ldr	r0, [r0, #0]
    17a8:	4687      	mov	pc, r0
    17aa:	46c0      	nop			; (mov r8, r8)

000017ac <Dictionary_309>:
    17ac:	000017c4 	andeq	r1, r0, r4, asr #15
    17b0:	70050000 	andvc	r0, r5, r0
    17b4:	65737561 	ldrbvs	r7, [r3, #-1377]!	; 0x561

000017b8 <Code_309>:
    17b8:	483e      	ldr	r0, [pc, #248]	; (18b4 <Code_319+0x5a>)
    17ba:	6800      	ldr	r0, [r0, #0]
    17bc:	4687      	mov	pc, r0

000017be <hook_intern>:
    17be:	6800      	ldr	r0, [r0, #0]
    17c0:	4687      	mov	pc, r0
    17c2:	46c0      	nop			; (mov r8, r8)

000017c4 <Dictionary_310>:
    17c4:	000017ec 	andeq	r1, r0, ip, ror #15
    17c8:	730b0000 	movwvc	r0, #45056	; 0xb000
    17cc:	61697265 	cmnvs	r9, r5, ror #4
    17d0:	6d652d6c 	stclvs	13, cr2, [r5, #-432]!	; 0xfffffe50
    17d4:	b5007469 	strlt	r7, [r0, #-1129]	; 0x469

000017d6 <Code_310>:
    17d6:	b500      	push	{lr}
    17d8:	f000 f828 	bl	182c <Code_316>
    17dc:	2e00      	cmp	r6, #0
    17de:	cf40      	ldmia	r7!, {r6}
    17e0:	d0fa      	beq.n	17d8 <Code_310+0x2>
    17e2:	b2f6      	uxtb	r6, r6
    17e4:	482c      	ldr	r0, [pc, #176]	; (1898 <Code_319+0x3e>)
    17e6:	6006      	str	r6, [r0, #0]
    17e8:	cf40      	ldmia	r7!, {r6}
    17ea:	bd00      	pop	{pc}

000017ec <Dictionary_313>:
    17ec:	00001818 	andeq	r1, r0, r8, lsl r8
    17f0:	730a0000 	movwvc	r0, #40960	; 0xa000
    17f4:	61697265 	cmnvs	r9, r5, ror #4
    17f8:	656b2d6c 	strbvs	r2, [fp, #-3436]!	; 0xd6c
    17fc:	b5000079 	strlt	r0, [r0, #-121]	; 0x79

000017fe <Code_313>:
    17fe:	b500      	push	{lr}
    1800:	f000 f82b 	bl	185a <Code_319>
    1804:	2e00      	cmp	r6, #0
    1806:	cf40      	ldmia	r7!, {r6}
    1808:	d0fa      	beq.n	1800 <Code_313+0x2>
    180a:	3f04      	subs	r7, #4
    180c:	603e      	str	r6, [r7, #0]
    180e:	4e22      	ldr	r6, [pc, #136]	; (1898 <Code_319+0x3e>)
    1810:	6836      	ldr	r6, [r6, #0]
    1812:	b2f6      	uxtb	r6, r6
    1814:	bd00      	pop	{pc}
    1816:	46c0      	nop			; (mov r8, r8)

00001818 <Dictionary_316>:
    1818:	00001848 	andeq	r1, r0, r8, asr #16
    181c:	730c0000 	movwvc	r0, #49152	; 0xc000
    1820:	61697265 	cmnvs	r9, r5, ror #4
    1824:	6d652d6c 	stclvs	13, cr2, [r5, #-432]!	; 0xfffffe50
    1828:	003f7469 	eorseq	r7, pc, r9, ror #8

0000182c <Code_316>:
    182c:	b500      	push	{lr}
    182e:	f7ff ffc3 	bl	17b8 <Code_309>
    1832:	3f04      	subs	r7, #4
    1834:	603e      	str	r6, [r7, #0]
    1836:	2600      	movs	r6, #0
    1838:	481f      	ldr	r0, [pc, #124]	; (18b8 <Code_319+0x5e>)
    183a:	2220      	movs	r2, #32
    183c:	6801      	ldr	r1, [r0, #0]
    183e:	4011      	ands	r1, r2
    1840:	d000      	beq.n	1844 <Code_316+0x18>
    1842:	43f6      	mvns	r6, r6
    1844:	bd00      	pop	{pc}
    1846:	46c0      	nop			; (mov r8, r8)

00001848 <Dictionary_319>:
    1848:	000018bc 			; <UNDEFINED> instruction: 0x000018bc
    184c:	730b0000 	movwvc	r0, #45056	; 0xb000
    1850:	61697265 	cmnvs	r9, r5, ror #4
    1854:	656b2d6c 	strbvs	r2, [fp, #-3436]!	; 0xd6c
    1858:	b5003f79 	strlt	r3, [r0, #-3961]	; 0xf79

0000185a <Code_319>:
    185a:	b500      	push	{lr}
    185c:	f7ff ffac 	bl	17b8 <Code_309>
    1860:	3f04      	subs	r7, #4
    1862:	603e      	str	r6, [r7, #0]
    1864:	2600      	movs	r6, #0
    1866:	4814      	ldr	r0, [pc, #80]	; (18b8 <Code_319+0x5e>)
    1868:	2201      	movs	r2, #1
    186a:	6801      	ldr	r1, [r0, #0]
    186c:	4011      	ands	r1, r2
    186e:	d000      	beq.n	1872 <Code_319+0x18>
    1870:	43f6      	mvns	r6, r6
    1872:	bd00      	pop	{pc}
    1874:	10001fd8 	ldrdne	r1, [r0], -r8
    1878:	40048080 	andmi	r8, r4, r0, lsl #1
    187c:	00010040 	andeq	r0, r1, r0, asr #32
    1880:	400440a4 	andmi	r4, r4, r4, lsr #1
    1884:	400440a8 	andmi	r4, r4, r8, lsr #1
    1888:	00001000 	andeq	r1, r0, r0
    188c:	40048098 	mulmi	r4, r8, r0
    1890:	4000800c 	andmi	r8, r0, ip
    1894:	40008028 	andmi	r8, r0, r8, lsr #32
    1898:	40008000 	andmi	r8, r0, r0
    189c:	40008004 	andmi	r8, r0, r4
    18a0:	40008008 	andmi	r8, r0, r8
    18a4:	10001fd4 	ldrdne	r1, [r0], -r4
    18a8:	10001fd0 	ldrdne	r1, [r0], -r0
    18ac:	10001fcc 	andne	r1, r0, ip, asr #31
    18b0:	10001fc8 	andne	r1, r0, r8, asr #31
    18b4:	10001fc4 	andne	r1, r0, r4, asr #31
    18b8:	40008014 	andmi	r8, r0, r4, lsl r0

000018bc <Dictionary_322>:
    18bc:	000018e0 	andeq	r1, r0, r0, ror #17
    18c0:	63070000 	movwvs	r0, #28672	; 0x7000
    18c4:	65707865 	ldrbvs	r7, [r0, #-2149]!	; 0x865
    18c8:	b5007463 	strlt	r7, [r0, #-1123]	; 0x463

000018ca <Code_322>:
    18ca:	b500      	push	{lr}
    18cc:	6838      	ldr	r0, [r7, #0]
    18ce:	b401      	push	{r0}
    18d0:	3001      	adds	r0, #1
    18d2:	6038      	str	r0, [r7, #0]
    18d4:	f000 f80b 	bl	18ee <Code_324>
    18d8:	bc01      	pop	{r0}
    18da:	7006      	strb	r6, [r0, #0]
    18dc:	cf40      	ldmia	r7!, {r6}
    18de:	bd00      	pop	{pc}

000018e0 <Dictionary_324>:
    18e0:	00001958 	andeq	r1, r0, r8, asr r9
    18e4:	61060000 	mrsvs	r0, (UNDEF: 6)
    18e8:	70656363 	rsbvc	r6, r5, r3, ror #6
    18ec:	b5000074 	strlt	r0, [r0, #-116]	; 0x74

000018ee <Code_324>:
    18ee:	b500      	push	{lr}
    18f0:	cf02      	ldmia	r7!, {r1}
    18f2:	3901      	subs	r1, #1
    18f4:	2200      	movs	r2, #0
    18f6:	f7ff ff40 	bl	177a <Code_306>
    18fa:	0030      	movs	r0, r6
    18fc:	cf40      	ldmia	r7!, {r6}
    18fe:	287f      	cmp	r0, #127	; 0x7f
    1900:	d009      	beq.n	1916 <Code_324+0x28>
    1902:	2820      	cmp	r0, #32
    1904:	d219      	bcs.n	193a <Code_324+0x4c>
    1906:	2809      	cmp	r0, #9
    1908:	d016      	beq.n	1938 <Code_324+0x4a>
    190a:	280a      	cmp	r0, #10
    190c:	d01f      	beq.n	194e <Code_324+0x60>
    190e:	280d      	cmp	r0, #13
    1910:	d01d      	beq.n	194e <Code_324+0x60>
    1912:	2808      	cmp	r0, #8
    1914:	d1ef      	bne.n	18f6 <Code_324+0x8>
    1916:	2a00      	cmp	r2, #0
    1918:	d0ed      	beq.n	18f6 <Code_324+0x8>
    191a:	f000 f915 	bl	1b48 <dotgaensefuesschen>
    191e:	08200803 	stmdaeq	r0!, {r0, r1, fp}
    1922:	2a00      	cmp	r2, #0
    1924:	d0e7      	beq.n	18f6 <Code_324+0x8>
    1926:	5c88      	ldrb	r0, [r1, r2]
    1928:	3a01      	subs	r2, #1
    192a:	2380      	movs	r3, #128	; 0x80
    192c:	4003      	ands	r3, r0
    192e:	d0e2      	beq.n	18f6 <Code_324+0x8>
    1930:	2340      	movs	r3, #64	; 0x40
    1932:	4003      	ands	r3, r0
    1934:	d0f5      	beq.n	1922 <Code_324+0x34>
    1936:	e7de      	b.n	18f6 <Code_324+0x8>
    1938:	2020      	movs	r0, #32
    193a:	42b2      	cmp	r2, r6
    193c:	d2db      	bcs.n	18f6 <Code_324+0x8>
    193e:	3f04      	subs	r7, #4
    1940:	603e      	str	r6, [r7, #0]
    1942:	0006      	movs	r6, r0
    1944:	f7ff ff0e 	bl	1764 <Code_305>
    1948:	3201      	adds	r2, #1
    194a:	5488      	strb	r0, [r1, r2]
    194c:	e7d3      	b.n	18f6 <Code_324+0x8>
    194e:	0016      	movs	r6, r2
    1950:	f000 f8a8 	bl	1aa4 <Code_355>
    1954:	bd00      	pop	{pc}
    1956:	46c0      	nop			; (mov r8, r8)

00001958 <Dictionary_328>:
    1958:	0000196c 	andeq	r1, r0, ip, ror #18
    195c:	74030040 	strvc	r0, [r3], #-64	; 0x40
    1960:	3f046269 	svccc	0x00046269

00001962 <Code_328>:
    1962:	3f04      	subs	r7, #4
    1964:	603e      	str	r6, [r7, #0]
    1966:	4e2b      	ldr	r6, [pc, #172]	; (1a14 <Code_340+0x20>)
    1968:	4770      	bx	lr
    196a:	46c0      	nop			; (mov r8, r8)

0000196c <Dictionary_330>:
    196c:	00001984 	andeq	r1, r0, r4, lsl #19
    1970:	3e030081 	cdpcc	0, 0, cr0, cr3, cr1, {4}
    1974:	3f046e69 	svccc	0x00046e69

00001976 <Code_330>:
    1976:	3f04      	subs	r7, #4
    1978:	603e      	str	r6, [r7, #0]
    197a:	4e27      	ldr	r6, [pc, #156]	; (1a18 <Code_340+0x24>)
    197c:	4770      	bx	lr
    197e:	00000000 	andeq	r0, r0, r0
    1982:	19ac46c0 	stmibne	ip!, {r6, r7, r9, sl, lr}

00001984 <Dictionary_333>:
    1984:	000019ac 	andeq	r1, r0, ip, lsr #19
    1988:	630e0082 	movwvs	r0, #57474	; 0xe082
    198c:	65727275 	ldrbvs	r7, [r2, #-629]!	; 0x275
    1990:	732d746e 	teqvc	sp, #1845493760	; 0x6e000000
    1994:	6372756f 	cmnvs	r2, #465567744	; 0x1bc00000
    1998:	3f040065 	svccc	0x00040065

0000199a <Code_333>:
    199a:	3f04      	subs	r7, #4
    199c:	603e      	str	r6, [r7, #0]
    199e:	4e1f      	ldr	r6, [pc, #124]	; (1a1c <Code_340+0x28>)
    19a0:	4770      	bx	lr
    19a2:	00000000 	andeq	r0, r0, r0
    19a6:	10000068 	andne	r0, r0, r8, rrx
    19aa:	19c846c0 	stmibne	r8, {r6, r7, r9, sl, lr}^

000019ac <Dictionary_336>:
    19ac:	000019c8 	andeq	r1, r0, r8, asr #19
    19b0:	73090000 	movwvc	r0, #36864	; 0x9000
    19b4:	6f737465 	svcvs	0x00737465
    19b8:	65637275 	strbvs	r7, [r3, #-629]!	; 0x275

000019bc <Code_336>:
    19bc:	4817      	ldr	r0, [pc, #92]	; (1a1c <Code_340+0x28>)
    19be:	cf02      	ldmia	r7!, {r1}
    19c0:	6006      	str	r6, [r0, #0]
    19c2:	6041      	str	r1, [r0, #4]
    19c4:	cf40      	ldmia	r7!, {r6}
    19c6:	4770      	bx	lr

000019c8 <Dictionary_338>:
    19c8:	000019e8 	andeq	r1, r0, r8, ror #19
    19cc:	73060000 	movwvc	r0, #24576	; 0x6000
    19d0:	6372756f 	cmnvs	r2, #465567744	; 0x1bc00000
    19d4:	3f040065 	svccc	0x00040065

000019d6 <Code_338>:
    19d6:	3f04      	subs	r7, #4
    19d8:	603e      	str	r6, [r7, #0]
    19da:	4e10      	ldr	r6, [pc, #64]	; (1a1c <Code_340+0x28>)
    19dc:	3f04      	subs	r7, #4
    19de:	6870      	ldr	r0, [r6, #4]
    19e0:	6038      	str	r0, [r7, #0]
    19e2:	6836      	ldr	r6, [r6, #0]
    19e4:	4770      	bx	lr
    19e6:	46c0      	nop			; (mov r8, r8)

000019e8 <Dictionary_340>:
    19e8:	00001a20 	andeq	r1, r0, r0, lsr #20
    19ec:	71050000 	mrsvc	r0, (UNDEF: 5)
    19f0:	79726575 	ldmdbvc	r2!, {r0, r2, r4, r5, r6, r8, sl, sp, lr}^

000019f4 <Code_340>:
    19f4:	b50f      	push	{r0, r1, r2, r3, lr}
    19f6:	4808      	ldr	r0, [pc, #32]	; (1a18 <Code_340+0x24>)
    19f8:	2100      	movs	r1, #0
    19fa:	6001      	str	r1, [r0, #0]
    19fc:	f7ff ffb1 	bl	1962 <Code_328>
    1a00:	3f04      	subs	r7, #4
    1a02:	603e      	str	r6, [r7, #0]
    1a04:	3f04      	subs	r7, #4
    1a06:	603e      	str	r6, [r7, #0]
    1a08:	26c8      	movs	r6, #200	; 0xc8
    1a0a:	f7ff ff70 	bl	18ee <Code_324>
    1a0e:	f7ff ffd5 	bl	19bc <Code_336>
    1a12:	bd0f      	pop	{r0, r1, r2, r3, pc}
    1a14:	10000068 	andne	r0, r0, r8, rrx
    1a18:	10001fc0 	andne	r1, r0, r0, asr #31
    1a1c:	10001fb8 			; <UNDEFINED> instruction: 0x10001fb8

00001a20 <Dictionary_345>:
    1a20:	00001a70 	andeq	r1, r0, r0, ror sl
    1a24:	63070000 	movwvs	r0, #28672	; 0x7000
    1a28:	61706d6f 	cmnvs	r0, pc, ror #26
    1a2c:	b50f6572 	strlt	r6, [pc, #-1394]	; 14c2 <Code_251+0x4>

00001a2e <Code_345>:
    1a2e:	b50f      	push	{r0, r1, r2, r3, lr}
    1a30:	0031      	movs	r1, r6
    1a32:	cf40      	ldmia	r7!, {r6}
    1a34:	cf01      	ldmia	r7!, {r0}
    1a36:	4288      	cmp	r0, r1
    1a38:	d002      	beq.n	1a40 <Code_345+0x12>
    1a3a:	cf40      	ldmia	r7!, {r6}
    1a3c:	2600      	movs	r6, #0
    1a3e:	bd0f      	pop	{r0, r1, r2, r3, pc}
    1a40:	cf02      	ldmia	r7!, {r1}
    1a42:	2800      	cmp	r0, #0
    1a44:	d010      	beq.n	1a68 <Code_345+0x3a>
    1a46:	3801      	subs	r0, #1
    1a48:	5c0a      	ldrb	r2, [r1, r0]
    1a4a:	5c33      	ldrb	r3, [r6, r0]
    1a4c:	2a41      	cmp	r2, #65	; 0x41
    1a4e:	d302      	bcc.n	1a56 <Code_345+0x28>
    1a50:	2a5b      	cmp	r2, #91	; 0x5b
    1a52:	d200      	bcs.n	1a56 <Code_345+0x28>
    1a54:	3220      	adds	r2, #32
    1a56:	2b41      	cmp	r3, #65	; 0x41
    1a58:	d302      	bcc.n	1a60 <Code_345+0x32>
    1a5a:	2b5b      	cmp	r3, #91	; 0x5b
    1a5c:	d200      	bcs.n	1a60 <Code_345+0x32>
    1a5e:	3320      	adds	r3, #32
    1a60:	429a      	cmp	r2, r3
    1a62:	d0ee      	beq.n	1a42 <Code_345+0x14>
    1a64:	2600      	movs	r6, #0
    1a66:	bd0f      	pop	{r0, r1, r2, r3, pc}
    1a68:	2600      	movs	r6, #0
    1a6a:	43f6      	mvns	r6, r6
    1a6c:	bd0f      	pop	{r0, r1, r2, r3, pc}
    1a6e:	46c0      	nop			; (mov r8, r8)

00001a70 <Dictionary_350>:
    1a70:	00001a84 	andeq	r1, r0, r4, lsl #21
    1a74:	63020000 	movwvs	r0, #8192	; 0x2000
    1a78:	b5000072 	strlt	r0, [r0, #-114]	; 0x72

00001a7a <Code_350>:
    1a7a:	b500      	push	{lr}
    1a7c:	f000 f864 	bl	1b48 <dotgaensefuesschen>
    1a80:	bd000a01 	vstrlt	s0, [r0, #-4]

00001a84 <Dictionary_352>:
    1a84:	00001a98 	muleq	r0, r8, sl
    1a88:	62020000 	andvs	r0, r2, #0
    1a8c:	3f04006c 	svccc	0x0004006c

00001a8e <Code_352>:
    1a8e:	3f04      	subs	r7, #4
    1a90:	603e      	str	r6, [r7, #0]
    1a92:	2620      	movs	r6, #32
    1a94:	4770      	bx	lr
    1a96:	46c0      	nop			; (mov r8, r8)

00001a98 <Dictionary_355>:
    1a98:	00001aac 	andeq	r1, r0, ip, lsr #21
    1a9c:	73050000 	movwvc	r0, #20480	; 0x5000
    1aa0:	65636170 	strbvs	r6, [r3, #-368]!	; 0x170

00001aa4 <Code_355>:
    1aa4:	3f04      	subs	r7, #4
    1aa6:	603e      	str	r6, [r7, #0]
    1aa8:	2620      	movs	r6, #32
    1aaa:	e65b      	b.n	1764 <Code_305>

00001aac <Dictionary_358>:
    1aac:	00001acc 	andeq	r1, r0, ip, asr #21
    1ab0:	73060000 	movwvc	r0, #24576	; 0x6000
    1ab4:	65636170 	strbvs	r6, [r3, #-368]!	; 0x170
    1ab8:	b5000073 	strlt	r0, [r0, #-115]	; 0x73

00001aba <Code_358>:
    1aba:	b500      	push	{lr}
    1abc:	2e00      	cmp	r6, #0
    1abe:	dd03      	ble.n	1ac8 <Code_358+0xe>
    1ac0:	f7ff fff0 	bl	1aa4 <Code_355>
    1ac4:	3e01      	subs	r6, #1
    1ac6:	d1fb      	bne.n	1ac0 <Code_358+0x6>
    1ac8:	cf40      	ldmia	r7!, {r6}
    1aca:	bd00      	pop	{pc}

00001acc <Dictionary_360>:
    1acc:	00001adc 	ldrdeq	r1, [r0], -ip
    1ad0:	5b060050 	blpl	181c18 <BIT20+0x81c18>
    1ad4:	72616863 	rsbvc	r6, r1, #6488064	; 0x630000
    1ad8:	e005005d 	and	r0, r5, sp, asr r0

00001ada <Code_360>:
    1ada:	e005      	b.n	1ae8 <Code_361>

00001adc <Dictionary_361>:
    1adc:	00001af4 	strdeq	r1, [r0], -r4
    1ae0:	63040000 	movwvs	r0, #16384	; 0x4000
    1ae4:	00726168 	rsbseq	r6, r2, r8, ror #2

00001ae8 <Code_361>:
    1ae8:	b500      	push	{lr}
    1aea:	f001 fb57 	bl	319c <Code_832>
    1aee:	cf40      	ldmia	r7!, {r6}
    1af0:	7836      	ldrb	r6, [r6, #0]
    1af2:	bd00      	pop	{pc}

00001af4 <Dictionary_363>:
    1af4:	00001b04 	andeq	r1, r0, r4, lsl #22
    1af8:	28010050 	stmdacs	r1, {r4, r6}

00001afc <Code_363>:
    1afc:	3f04      	subs	r7, #4
    1afe:	603e      	str	r6, [r7, #0]
    1b00:	2629      	movs	r6, #41	; 0x29
    1b02:	e006      	b.n	1b12 <Code_366+0x6>

00001b04 <Dictionary_366>:
    1b04:	00001b20 	andeq	r1, r0, r0, lsr #22
    1b08:	5c010050 	stcpl	0, cr0, [r1], {80}	; 0x50

00001b0c <Code_366>:
    1b0c:	3f04      	subs	r7, #4
    1b0e:	603e      	str	r6, [r7, #0]
    1b10:	2600      	movs	r6, #0
    1b12:	b500      	push	{lr}
    1b14:	f001 fb4c 	bl	31b0 <Code_834>
    1b18:	3704      	adds	r7, #4
    1b1a:	cf40      	ldmia	r7!, {r6}
    1b1c:	bd00      	pop	{pc}
    1b1e:	46c0      	nop			; (mov r8, r8)

00001b20 <Dictionary_371>:
    1b20:	00001b68 	andeq	r1, r0, r8, ror #22
    1b24:	2e020010 	mcrcs	0, 0, r0, cr2, cr0, {0}
    1b28:	489f0022 	ldmmi	pc, {r1, r5}	; <UNPREDICTABLE>

00001b2a <Code_371>:
    1b2a:	489f      	ldr	r0, [pc, #636]	; (1da8 <Code_410+0x94>)
    1b2c:	b500      	push	{lr}
    1b2e:	3f04      	subs	r7, #4
    1b30:	603e      	str	r6, [r7, #0]
    1b32:	0006      	movs	r6, r0
    1b34:	f000 f9f8 	bl	1f28 <Code_457>
    1b38:	3f04      	subs	r7, #4
    1b3a:	603e      	str	r6, [r7, #0]
    1b3c:	2622      	movs	r6, #34	; 0x22
    1b3e:	f001 fb37 	bl	31b0 <Code_834>
    1b42:	f000 fd54 	bl	25ee <Code_589>
    1b46:	bd00      	pop	{pc}

00001b48 <dotgaensefuesschen>:
    1b48:	b40a      	push	{r1, r3}
    1b4a:	3f04      	subs	r7, #4
    1b4c:	603e      	str	r6, [r7, #0]
    1b4e:	4676      	mov	r6, lr
    1b50:	3e01      	subs	r6, #1
    1b52:	7833      	ldrb	r3, [r6, #0]
    1b54:	2101      	movs	r1, #1
    1b56:	3301      	adds	r3, #1
    1b58:	4019      	ands	r1, r3
    1b5a:	185b      	adds	r3, r3, r1
    1b5c:	4671      	mov	r1, lr
    1b5e:	18c9      	adds	r1, r1, r3
    1b60:	468e      	mov	lr, r1
    1b62:	bc0a      	pop	{r1, r3}
    1b64:	e03c      	b.n	1be0 <Code_386>
    1b66:	46c0      	nop			; (mov r8, r8)

00001b68 <Dictionary_377>:
    1b68:	00001b90 	muleq	r0, r0, fp
    1b6c:	63020010 	movwvs	r0, #8208	; 0x2010
    1b70:	488e0022 	stmmi	lr, {r1, r5}

00001b72 <Code_377>:
    1b72:	488e      	ldr	r0, [pc, #568]	; (1dac <Code_410+0x98>)
    1b74:	e7da      	b.n	1b2c <Code_371+0x2>

00001b76 <dotcfuesschen>:
    1b76:	3f04      	subs	r7, #4
    1b78:	603e      	str	r6, [r7, #0]
    1b7a:	4676      	mov	r6, lr
    1b7c:	3e01      	subs	r6, #1
    1b7e:	7833      	ldrb	r3, [r6, #0]
    1b80:	2101      	movs	r1, #1
    1b82:	3301      	adds	r3, #1
    1b84:	4019      	ands	r1, r3
    1b86:	185b      	adds	r3, r3, r1
    1b88:	4671      	mov	r1, lr
    1b8a:	18c9      	adds	r1, r1, r3
    1b8c:	468e      	mov	lr, r1
    1b8e:	4770      	bx	lr

00001b90 <Dictionary_379>:
    1b90:	00001bbc 			; <UNDEFINED> instruction: 0x00001bbc
    1b94:	73020010 	movwvc	r0, #8208	; 0x2010
    1b98:	48850022 	stmmi	r5, {r1, r5}

00001b9a <Code_379>:
    1b9a:	4885      	ldr	r0, [pc, #532]	; (1db0 <Code_410+0x9c>)
    1b9c:	e7c6      	b.n	1b2c <Code_371+0x2>

00001b9e <dotsfuesschen>:
    1b9e:	3f04      	subs	r7, #4
    1ba0:	603e      	str	r6, [r7, #0]
    1ba2:	4676      	mov	r6, lr
    1ba4:	3f04      	subs	r7, #4
    1ba6:	603e      	str	r6, [r7, #0]
    1ba8:	3e01      	subs	r6, #1
    1baa:	7836      	ldrb	r6, [r6, #0]
    1bac:	2101      	movs	r1, #1
    1bae:	1c73      	adds	r3, r6, #1
    1bb0:	4019      	ands	r1, r3
    1bb2:	185b      	adds	r3, r3, r1
    1bb4:	4671      	mov	r1, lr
    1bb6:	18c9      	adds	r1, r1, r3
    1bb8:	468e      	mov	lr, r1
    1bba:	4770      	bx	lr

00001bbc <Dictionary_383>:
    1bbc:	00001bd4 	ldrdeq	r1, [r0], -r4
    1bc0:	63050000 	movwvs	r0, #20480	; 0x5000
    1bc4:	746e756f 	strbtvc	r7, [lr], #-1391	; 0x56f

00001bc8 <Code_383>:
    1bc8:	3601      	adds	r6, #1
    1bca:	3f04      	subs	r7, #4
    1bcc:	603e      	str	r6, [r7, #0]
    1bce:	3e01      	subs	r6, #1
    1bd0:	7836      	ldrb	r6, [r6, #0]
    1bd2:	4770      	bx	lr

00001bd4 <Dictionary_386>:
    1bd4:	00001bfc 	strdeq	r1, [r0], -ip
    1bd8:	63050000 	movwvs	r0, #20480	; 0x5000
    1bdc:	65707974 	ldrbvs	r7, [r0, #-2420]!	; 0x974

00001be0 <Code_386>:
    1be0:	b501      	push	{r0, lr}
    1be2:	7830      	ldrb	r0, [r6, #0]
    1be4:	2800      	cmp	r0, #0
    1be6:	d007      	beq.n	1bf8 <Code_386+0x18>
    1be8:	3601      	adds	r6, #1
    1bea:	3f04      	subs	r7, #4
    1bec:	603e      	str	r6, [r7, #0]
    1bee:	7836      	ldrb	r6, [r6, #0]
    1bf0:	f7ff fdb8 	bl	1764 <Code_305>
    1bf4:	3801      	subs	r0, #1
    1bf6:	d1f7      	bne.n	1be8 <Code_386+0x8>
    1bf8:	cf40      	ldmia	r7!, {r6}
    1bfa:	bd01      	pop	{r0, pc}

00001bfc <Dictionary_390>:
    1bfc:	00001c2c 	andeq	r1, r0, ip, lsr #24
    1c00:	74040000 	strvc	r0, [r4]
    1c04:	00657079 	rsbeq	r7, r5, r9, ror r0

00001c08 <Code_390>:
    1c08:	0031      	movs	r1, r6
    1c0a:	cf40      	ldmia	r7!, {r6}
    1c0c:	0030      	movs	r0, r6
    1c0e:	cf40      	ldmia	r7!, {r6}

00001c10 <stype_addr_r0_len_r1>:
    1c10:	b500      	push	{lr}
    1c12:	2900      	cmp	r1, #0
    1c14:	d008      	beq.n	1c28 <stype_addr_r0_len_r1+0x18>
    1c16:	2200      	movs	r2, #0
    1c18:	3f04      	subs	r7, #4
    1c1a:	603e      	str	r6, [r7, #0]
    1c1c:	5c86      	ldrb	r6, [r0, r2]
    1c1e:	f7ff fda1 	bl	1764 <Code_305>
    1c22:	3201      	adds	r2, #1
    1c24:	4291      	cmp	r1, r2
    1c26:	d1f7      	bne.n	1c18 <stype_addr_r0_len_r1+0x8>
    1c28:	bd00      	pop	{pc}
    1c2a:	46c0      	nop			; (mov r8, r8)

00001c2c <Dictionary_394>:
    1c2c:	00001c68 	andeq	r1, r0, r8, ror #24
    1c30:	68040000 	stmdavs	r4, {}	; <UNPREDICTABLE>
    1c34:	002e7865 	eoreq	r7, lr, r5, ror #16

00001c38 <Code_394>:
    1c38:	b507      	push	{r0, r1, r2, lr}
    1c3a:	0031      	movs	r1, r6
    1c3c:	cf40      	ldmia	r7!, {r6}
    1c3e:	2020      	movs	r0, #32
    1c40:	220f      	movs	r2, #15
    1c42:	3804      	subs	r0, #4
    1c44:	3f04      	subs	r7, #4
    1c46:	603e      	str	r6, [r7, #0]
    1c48:	000e      	movs	r6, r1
    1c4a:	40c6      	lsrs	r6, r0
    1c4c:	4016      	ands	r6, r2
    1c4e:	2e09      	cmp	r6, #9
    1c50:	d901      	bls.n	1c56 <Code_394+0x1e>
    1c52:	3637      	adds	r6, #55	; 0x37
    1c54:	e000      	b.n	1c58 <Code_394+0x20>
    1c56:	3630      	adds	r6, #48	; 0x30
    1c58:	f7ff fd84 	bl	1764 <Code_305>
    1c5c:	2800      	cmp	r0, #0
    1c5e:	d1f0      	bne.n	1c42 <Code_394+0xa>
    1c60:	f7ff ff20 	bl	1aa4 <Code_355>
    1c64:	bd07      	pop	{r0, r1, r2, pc}
    1c66:	46c0      	nop			; (mov r8, r8)

00001c68 <Dictionary_397>:
    1c68:	00001c78 	andeq	r1, r0, r8, ror ip
    1c6c:	68030000 	stmdavs	r3, {}	; <UNPREDICTABLE>
    1c70:	b51f732e 	ldrlt	r7, [pc, #-814]	; 194a <Code_324+0x5c>

00001c72 <Code_397>:
    1c72:	b51f      	push	{r0, r1, r2, r3, r4, lr}
    1c74:	4c4f      	ldr	r4, [pc, #316]	; (1db4 <Code_410+0xa0>)
    1c76:	e00e      	b.n	1c96 <Code_399+0x4>

00001c78 <Dictionary_398>:
    1c78:	00001c88 	andeq	r1, r0, r8, lsl #25
    1c7c:	75030000 	strvc	r0, [r3]
    1c80:	b51f732e 	ldrlt	r7, [pc, #-814]	; 195a <Dictionary_328+0x2>

00001c82 <Code_398>:
    1c82:	b51f      	push	{r0, r1, r2, r3, r4, lr}
    1c84:	4c4c      	ldr	r4, [pc, #304]	; (1db8 <Code_410+0xa4>)
    1c86:	e006      	b.n	1c96 <Code_399+0x4>

00001c88 <Dictionary_399>:
    1c88:	00001d08 	andeq	r1, r0, r8, lsl #26
    1c8c:	2e020000 	cdpcs	0, 0, cr0, cr2, cr0, {0}
    1c90:	b51f0073 	ldrlt	r0, [pc, #-115]	; 1c25 <stype_addr_r0_len_r1+0x15>

00001c92 <Code_399>:
    1c92:	b51f      	push	{r0, r1, r2, r3, r4, lr}
    1c94:	4c49      	ldr	r4, [pc, #292]	; (1dbc <Code_410+0xa8>)
    1c96:	494a      	ldr	r1, [pc, #296]	; (1dc0 <Code_410+0xac>)
    1c98:	1bc9      	subs	r1, r1, r7
    1c9a:	0889      	lsrs	r1, r1, #2
    1c9c:	4a49      	ldr	r2, [pc, #292]	; (1dc4 <Code_410+0xb0>)
    1c9e:	6810      	ldr	r0, [r2, #0]
    1ca0:	b403      	push	{r0, r1}
    1ca2:	200a      	movs	r0, #10
    1ca4:	6010      	str	r0, [r2, #0]
    1ca6:	f7ff ff4f 	bl	1b48 <dotgaensefuesschen>
    1caa:	61745308 	cmnvs	r4, r8, lsl #6
    1cae:	203a6b63 	eorscs	r6, sl, r3, ror #22
    1cb2:	3f04005b 	svccc	0x0004005b
    1cb6:	603e      	str	r6, [r7, #0]
    1cb8:	000e      	movs	r6, r1
    1cba:	f001 fc65 	bl	3588 <Code_900>
    1cbe:	f7ff ff43 	bl	1b48 <dotgaensefuesschen>
    1cc2:	00205d02 	eoreq	r5, r0, r2, lsl #26
    1cc6:	bc03      	pop	{r0, r1}
    1cc8:	4a3e      	ldr	r2, [pc, #248]	; (1dc4 <Code_410+0xb0>)
    1cca:	6010      	str	r0, [r2, #0]
    1ccc:	2900      	cmp	r1, #0
    1cce:	d00a      	beq.n	1ce6 <Code_399+0x54>
    1cd0:	4a3d      	ldr	r2, [pc, #244]	; (1dc8 <Code_410+0xb4>)
    1cd2:	6810      	ldr	r0, [r2, #0]
    1cd4:	b406      	push	{r1, r2}
    1cd6:	3f04      	subs	r7, #4
    1cd8:	603e      	str	r6, [r7, #0]
    1cda:	0006      	movs	r6, r0
    1cdc:	47a0      	blx	r4
    1cde:	bc06      	pop	{r1, r2}
    1ce0:	3a04      	subs	r2, #4
    1ce2:	3901      	subs	r1, #1
    1ce4:	d1f5      	bne.n	1cd2 <Code_399+0x40>
    1ce6:	f7ff ff2f 	bl	1b48 <dotgaensefuesschen>
    1cea:	4f542006 	svcmi	0x00542006
    1cee:	00203a53 	eoreq	r3, r0, r3, asr sl
    1cf2:	3f04      	subs	r7, #4
    1cf4:	603e      	str	r6, [r7, #0]
    1cf6:	0036      	movs	r6, r6
    1cf8:	47a0      	blx	r4
    1cfa:	f7ff ff25 	bl	1b48 <dotgaensefuesschen>
    1cfe:	3e2a2004 	cdpcc	0, 2, cr2, cr10, cr4, {0}
    1d02:	bd1f000a 	ldclt	0, cr0, [pc, #-40]	; 1ce0 <Code_399+0x4e>
    1d06:	46c0      	nop			; (mov r8, r8)

00001d08 <Dictionary_410>:
    1d08:	00001dcc 	andeq	r1, r0, ip, asr #27
    1d0c:	77050000 	strvc	r0, [r5, -r0]
    1d10:	7364726f 	cmnvc	r4, #-268435450	; 0xf0000006

00001d14 <Code_410>:
    1d14:	b500      	push	{lr}
    1d16:	f7ff ff17 	bl	1b48 <dotgaensefuesschen>
    1d1a:	f0000a01 			; <UNDEFINED> instruction: 0xf0000a01
    1d1e:	fead f7ff 	mcr2	7, 5, pc, cr13, cr15, {7}	; <UNPREDICTABLE>
    1d22:	ff12 4109 	vrhadd.u16	d4, d2, d9
    1d26:	65726464 	ldrbvs	r6, [r2, #-1124]!	; 0x464
    1d2a:	203a7373 	eorscs	r7, sl, r3, ror r3
    1d2e:	3f04      	subs	r7, #4
    1d30:	603e      	str	r6, [r7, #0]
    1d32:	f7ff ff81 	bl	1c38 <Code_394>
    1d36:	f7ff ff07 	bl	1b48 <dotgaensefuesschen>
    1d3a:	6e694c06 	cdpvs	12, 6, cr4, cr9, cr6, {0}
    1d3e:	00203a6b 	eoreq	r3, r0, fp, ror #20
    1d42:	3f04      	subs	r7, #4
    1d44:	603e      	str	r6, [r7, #0]
    1d46:	6836      	ldr	r6, [r6, #0]
    1d48:	f7ff ff76 	bl	1c38 <Code_394>
    1d4c:	f7ff fefc 	bl	1b48 <dotgaensefuesschen>
    1d50:	616c4607 	cmnvs	ip, r7, lsl #12
    1d54:	203a7367 	eorscs	r7, sl, r7, ror #6
    1d58:	3f04      	subs	r7, #4
    1d5a:	603e      	str	r6, [r7, #0]
    1d5c:	88b6      	ldrh	r6, [r6, #4]
    1d5e:	f7ff ff6b 	bl	1c38 <Code_394>
    1d62:	f7ff fef1 	bl	1b48 <dotgaensefuesschen>
    1d66:	646f4306 	strbtvs	r4, [pc], #-774	; 1d6e <Code_410+0x5a>
    1d6a:	00203a65 	eoreq	r3, r0, r5, ror #20
    1d6e:	1db0      	adds	r0, r6, #6
    1d70:	f000 febe 	bl	2af0 <skipstring>
    1d74:	3f04      	subs	r7, #4
    1d76:	603e      	str	r6, [r7, #0]
    1d78:	0006      	movs	r6, r0
    1d7a:	f7ff ff5d 	bl	1c38 <Code_394>
    1d7e:	f7ff fee3 	bl	1b48 <dotgaensefuesschen>
    1d82:	6d614e06 	stclvs	14, cr4, [r1, #-24]!	; 0xffffffe8
    1d86:	00203a65 	eoreq	r3, r0, r5, ror #20
    1d8a:	3f04      	subs	r7, #4
    1d8c:	603e      	str	r6, [r7, #0]
    1d8e:	3606      	adds	r6, #6
    1d90:	f7ff ff26 	bl	1be0 <Code_386>
    1d94:	f7ff fed8 	bl	1b48 <dotgaensefuesschen>
    1d98:	f0000a01 			; <UNDEFINED> instruction: 0xf0000a01
    1d9c:	fe86 0030 	mcr2	0, 4, r0, cr6, cr0, {1}
    1da0:	cf40      	ldmia	r7!, {r6}
    1da2:	d0bd      	beq.n	1d20 <Code_410+0xc>
    1da4:	cf40      	ldmia	r7!, {r6}
    1da6:	bd00      	pop	{pc}
    1da8:	00001b48 	andeq	r1, r0, r8, asr #22
    1dac:	00001b76 	andeq	r1, r0, r6, ror fp
    1db0:	00001b9e 	muleq	r0, lr, fp
    1db4:	00001c39 	andeq	r1, r0, r9, lsr ip
    1db8:	00003577 	andeq	r3, r0, r7, ror r5
    1dbc:	00003589 	andeq	r3, r0, r9, lsl #11
    1dc0:	10000330 	andne	r0, r0, r0, lsr r3
    1dc4:	10001fd8 	ldrdne	r1, [r0], -r8
    1dc8:	1000032c 	andne	r0, r0, ip, lsr #6

00001dcc <Dictionary_430>:
    1dcc:	00001f1c 	andeq	r1, r0, ip, lsl pc
    1dd0:	72100000 	andsvc	r0, r0, #0
    1dd4:	73696765 	cmnvc	r9, #26476544	; 0x1940000
    1dd8:	6c726574 	cfldr64vs	mvdx6, [r2], #-464	; 0xfffffe30
    1ddc:	72657469 	rsbvc	r7, r5, #1761607680	; 0x69000000
    1de0:	002c6c61 	eoreq	r6, ip, r1, ror #24

00001de4 <Code_430>:
    1de4:	b53f      	push	{r0, r1, r2, r3, r4, r5, lr}
    1de6:	4bb4      	ldr	r3, [pc, #720]	; (20b8 <builds_ram+0x2c>)
    1de8:	6838      	ldr	r0, [r7, #0]
    1dea:	4018      	ands	r0, r3
    1dec:	4298      	cmp	r0, r3
    1dee:	d10f      	bne.n	1e10 <Code_430+0x2c>
    1df0:	6838      	ldr	r0, [r7, #0]
    1df2:	43c0      	mvns	r0, r0
    1df4:	6038      	str	r0, [r7, #0]
    1df6:	b440      	push	{r6}
    1df8:	f000 f80d 	bl	1e16 <registerliteralkomma_intern>
    1dfc:	3f04      	subs	r7, #4
    1dfe:	603e      	str	r6, [r7, #0]
    1e00:	4eae      	ldr	r6, [pc, #696]	; (20bc <builds_ram+0x30>)
    1e02:	bc01      	pop	{r0}
    1e04:	4306      	orrs	r6, r0
    1e06:	00c0      	lsls	r0, r0, #3
    1e08:	4306      	orrs	r6, r0
    1e0a:	f000 fbb6 	bl	257a <Code_577>
    1e0e:	bd3f      	pop	{r0, r1, r2, r3, r4, r5, pc}
    1e10:	f000 f801 	bl	1e16 <registerliteralkomma_intern>
    1e14:	bd3f      	pop	{r0, r1, r2, r3, r4, r5, pc}

00001e16 <registerliteralkomma_intern>:
    1e16:	b500      	push	{lr}
    1e18:	0035      	movs	r5, r6
    1e1a:	cf40      	ldmia	r7!, {r6}
    1e1c:	0029      	movs	r1, r5
    1e1e:	00c9      	lsls	r1, r1, #3
    1e20:	4329      	orrs	r1, r5
    1e22:	022d      	lsls	r5, r5, #8
    1e24:	48a6      	ldr	r0, [pc, #664]	; (20c0 <builds_ram+0x34>)
    1e26:	4305      	orrs	r5, r0
    1e28:	23ff      	movs	r3, #255	; 0xff
    1e2a:	2200      	movs	r2, #0
    1e2c:	0030      	movs	r0, r6
    1e2e:	40d0      	lsrs	r0, r2
    1e30:	4398      	bics	r0, r3
    1e32:	d001      	beq.n	1e38 <registerliteralkomma_intern+0x22>
    1e34:	3201      	adds	r2, #1
    1e36:	e7f9      	b.n	1e2c <registerliteralkomma_intern+0x16>
    1e38:	0030      	movs	r0, r6
    1e3a:	40d0      	lsrs	r0, r2
    1e3c:	4018      	ands	r0, r3
    1e3e:	4328      	orrs	r0, r5
    1e40:	3f04      	subs	r7, #4
    1e42:	603e      	str	r6, [r7, #0]
    1e44:	0006      	movs	r6, r0
    1e46:	f000 fb98 	bl	257a <Code_577>
    1e4a:	489e      	ldr	r0, [pc, #632]	; (20c4 <builds_ram+0x38>)
    1e4c:	4305      	orrs	r5, r0
    1e4e:	0018      	movs	r0, r3
    1e50:	4090      	lsls	r0, r2
    1e52:	4386      	bics	r6, r0
    1e54:	d010      	beq.n	1e78 <registerliteralkomma_intern+0x62>
    1e56:	2400      	movs	r4, #0
    1e58:	0030      	movs	r0, r6
    1e5a:	40e0      	lsrs	r0, r4
    1e5c:	4398      	bics	r0, r3
    1e5e:	d001      	beq.n	1e64 <registerliteralkomma_intern+0x4e>
    1e60:	3401      	adds	r4, #1
    1e62:	e7f9      	b.n	1e58 <registerliteralkomma_intern+0x42>
    1e64:	1b10      	subs	r0, r2, r4
    1e66:	3f04      	subs	r7, #4
    1e68:	603e      	str	r6, [r7, #0]
    1e6a:	000e      	movs	r6, r1
    1e6c:	0180      	lsls	r0, r0, #6
    1e6e:	4306      	orrs	r6, r0
    1e70:	f000 fb83 	bl	257a <Code_577>
    1e74:	0022      	movs	r2, r4
    1e76:	e7df      	b.n	1e38 <registerliteralkomma_intern+0x22>
    1e78:	2a00      	cmp	r2, #0
    1e7a:	d006      	beq.n	1e8a <registerliteralkomma_intern+0x74>
    1e7c:	3f04      	subs	r7, #4
    1e7e:	603e      	str	r6, [r7, #0]
    1e80:	000e      	movs	r6, r1
    1e82:	0192      	lsls	r2, r2, #6
    1e84:	4316      	orrs	r6, r2
    1e86:	f000 fb78 	bl	257a <Code_577>
    1e8a:	cf40      	ldmia	r7!, {r6}
    1e8c:	bd00      	pop	{pc}

00001e8e <registerliteralkommalang>:
    1e8e:	b51f      	push	{r0, r1, r2, r3, r4, lr}
    1e90:	0031      	movs	r1, r6
    1e92:	cf40      	ldmia	r7!, {r6}
    1e94:	4c8c      	ldr	r4, [pc, #560]	; (20c8 <builds_ram+0x3c>)
    1e96:	430c      	orrs	r4, r1
    1e98:	00c9      	lsls	r1, r1, #3
    1e9a:	430c      	orrs	r4, r1
    1e9c:	0149      	lsls	r1, r1, #5
    1e9e:	0030      	movs	r0, r6
    1ea0:	cf40      	ldmia	r7!, {r6}
    1ea2:	0e02      	lsrs	r2, r0, #24
    1ea4:	23ff      	movs	r3, #255	; 0xff
    1ea6:	401a      	ands	r2, r3
    1ea8:	4b85      	ldr	r3, [pc, #532]	; (20c0 <builds_ram+0x34>)
    1eaa:	430b      	orrs	r3, r1
    1eac:	4313      	orrs	r3, r2
    1eae:	3f04      	subs	r7, #4
    1eb0:	603e      	str	r6, [r7, #0]
    1eb2:	001e      	movs	r6, r3
    1eb4:	f000 fb61 	bl	257a <Code_577>
    1eb8:	3f04      	subs	r7, #4
    1eba:	603e      	str	r6, [r7, #0]
    1ebc:	0026      	movs	r6, r4
    1ebe:	f000 fb5c 	bl	257a <Code_577>
    1ec2:	0c02      	lsrs	r2, r0, #16
    1ec4:	23ff      	movs	r3, #255	; 0xff
    1ec6:	401a      	ands	r2, r3
    1ec8:	4b80      	ldr	r3, [pc, #512]	; (20cc <builds_ram+0x40>)
    1eca:	430b      	orrs	r3, r1
    1ecc:	4313      	orrs	r3, r2
    1ece:	3f04      	subs	r7, #4
    1ed0:	603e      	str	r6, [r7, #0]
    1ed2:	001e      	movs	r6, r3
    1ed4:	f000 fb51 	bl	257a <Code_577>
    1ed8:	3f04      	subs	r7, #4
    1eda:	603e      	str	r6, [r7, #0]
    1edc:	0026      	movs	r6, r4
    1ede:	f000 fb4c 	bl	257a <Code_577>
    1ee2:	0a02      	lsrs	r2, r0, #8
    1ee4:	23ff      	movs	r3, #255	; 0xff
    1ee6:	401a      	ands	r2, r3
    1ee8:	4b78      	ldr	r3, [pc, #480]	; (20cc <builds_ram+0x40>)
    1eea:	430b      	orrs	r3, r1
    1eec:	4313      	orrs	r3, r2
    1eee:	3f04      	subs	r7, #4
    1ef0:	603e      	str	r6, [r7, #0]
    1ef2:	001e      	movs	r6, r3
    1ef4:	f000 fb41 	bl	257a <Code_577>
    1ef8:	3f04      	subs	r7, #4
    1efa:	603e      	str	r6, [r7, #0]
    1efc:	0026      	movs	r6, r4
    1efe:	f000 fb3c 	bl	257a <Code_577>
    1f02:	0002      	movs	r2, r0
    1f04:	23ff      	movs	r3, #255	; 0xff
    1f06:	401a      	ands	r2, r3
    1f08:	4b70      	ldr	r3, [pc, #448]	; (20cc <builds_ram+0x40>)
    1f0a:	430b      	orrs	r3, r1
    1f0c:	4313      	orrs	r3, r2
    1f0e:	3f04      	subs	r7, #4
    1f10:	603e      	str	r6, [r7, #0]
    1f12:	001e      	movs	r6, r3
    1f14:	f000 fb31 	bl	257a <Code_577>
    1f18:	bd1f      	pop	{r0, r1, r2, r3, r4, pc}
    1f1a:	46c0      	nop			; (mov r8, r8)

00001f1c <Dictionary_457>:
    1f1c:	00001f8c 	andeq	r1, r0, ip, lsl #31
    1f20:	63050000 	movwvs	r0, #20480	; 0x5000
    1f24:	2c6c6c61 	stclcs	12, cr6, [ip], #-388	; 0xfffffe7c

00001f28 <Code_457>:
    1f28:	b50f      	push	{r0, r1, r2, r3, lr}
    1f2a:	0033      	movs	r3, r6
    1f2c:	f000 fe7a 	bl	2c24 <Code_695>
    1f30:	0030      	movs	r0, r6
    1f32:	cf40      	ldmia	r7!, {r6}
    1f34:	1a1b      	subs	r3, r3, r0
    1f36:	3b04      	subs	r3, #4
    1f38:	4965      	ldr	r1, [pc, #404]	; (20d0 <builds_ram+0x44>)
    1f3a:	4019      	ands	r1, r3
    1f3c:	2900      	cmp	r1, #0
    1f3e:	d00e      	beq.n	1f5e <Code_457+0x36>
    1f40:	4a64      	ldr	r2, [pc, #400]	; (20d4 <builds_ram+0x48>)
    1f42:	4291      	cmp	r1, r2
    1f44:	d00b      	beq.n	1f5e <Code_457+0x36>
    1f46:	3601      	adds	r6, #1
    1f48:	3f04      	subs	r7, #4
    1f4a:	603e      	str	r6, [r7, #0]
    1f4c:	2600      	movs	r6, #0
    1f4e:	f7ff ff49 	bl	1de4 <Code_430>
    1f52:	3f04      	subs	r7, #4
    1f54:	603e      	str	r6, [r7, #0]
    1f56:	4e60      	ldr	r6, [pc, #384]	; (20d8 <builds_ram+0x4c>)
    1f58:	f000 fb0f 	bl	257a <Code_577>
    1f5c:	bd0f      	pop	{r0, r1, r2, r3, pc}
    1f5e:	cf40      	ldmia	r7!, {r6}
    1f60:	085b      	lsrs	r3, r3, #1
    1f62:	485e      	ldr	r0, [pc, #376]	; (20dc <builds_ram+0x50>)
    1f64:	495e      	ldr	r1, [pc, #376]	; (20e0 <builds_ram+0x54>)
    1f66:	4019      	ands	r1, r3
    1f68:	4308      	orrs	r0, r1
    1f6a:	0adb      	lsrs	r3, r3, #11
    1f6c:	495d      	ldr	r1, [pc, #372]	; (20e4 <builds_ram+0x58>)
    1f6e:	4019      	ands	r1, r3
    1f70:	0409      	lsls	r1, r1, #16
    1f72:	4308      	orrs	r0, r1
    1f74:	0a9b      	lsrs	r3, r3, #10
    1f76:	2101      	movs	r1, #1
    1f78:	4019      	ands	r1, r3
    1f7a:	0689      	lsls	r1, r1, #26
    1f7c:	4308      	orrs	r0, r1
    1f7e:	3f04      	subs	r7, #4
    1f80:	603e      	str	r6, [r7, #0]
    1f82:	0006      	movs	r6, r0
    1f84:	f000 fb23 	bl	25ce <Code_586>
    1f88:	bd0f      	pop	{r0, r1, r2, r3, pc}
    1f8a:	46c0      	nop			; (mov r8, r8)

00001f8c <Dictionary_466>:
    1f8c:	00001fc0 	andeq	r1, r0, r0, asr #31
    1f90:	6c080000 	stcvs	0, cr0, [r8], {0}
    1f94:	72657469 	rsbvc	r7, r5, #1761607680	; 0x69000000
    1f98:	002c6c61 	eoreq	r6, ip, r1, ror #24

00001f9c <Code_466>:
    1f9c:	b500      	push	{lr}
    1f9e:	3f04      	subs	r7, #4
    1fa0:	603e      	str	r6, [r7, #0]
    1fa2:	4e51      	ldr	r6, [pc, #324]	; (20e8 <builds_ram+0x5c>)
    1fa4:	f000 fae9 	bl	257a <Code_577>
    1fa8:	3f04      	subs	r7, #4
    1faa:	603e      	str	r6, [r7, #0]
    1fac:	4e4f      	ldr	r6, [pc, #316]	; (20ec <builds_ram+0x60>)
    1fae:	f000 fae4 	bl	257a <Code_577>
    1fb2:	3f04      	subs	r7, #4
    1fb4:	603e      	str	r6, [r7, #0]
    1fb6:	2606      	movs	r6, #6
    1fb8:	f7ff ff14 	bl	1de4 <Code_430>
    1fbc:	bd00      	pop	{pc}
    1fbe:	46c0      	nop			; (mov r8, r8)

00001fc0 <Dictionary_473>:
    1fc0:	00001fe8 	andeq	r1, r0, r8, ror #31
    1fc4:	63060000 	movwvs	r0, #24576	; 0x6000
    1fc8:	74616572 	strbtvc	r6, [r1], #-1394	; 0x572
    1fcc:	b5000065 	strlt	r0, [r0, #-101]	; 0x65

00001fce <Code_473>:
    1fce:	b500      	push	{lr}
    1fd0:	f000 f847 	bl	2062 <Code_482>
    1fd4:	2020      	movs	r0, #32
    1fd6:	0200      	lsls	r0, r0, #8
    1fd8:	3007      	adds	r0, #7
    1fda:	4780      	blx	r0
    1fdc:	3f04      	subs	r7, #4
    1fde:	603e      	str	r6, [r7, #0]
    1fe0:	4676      	mov	r6, lr
    1fe2:	3e01      	subs	r6, #1
    1fe4:	bd00      	pop	{pc}
    1fe6:	46c0      	nop			; (mov r8, r8)

00001fe8 <Dictionary_475>:
    1fe8:	00002054 	andeq	r2, r0, r4, asr r0
    1fec:	64050020 	strvs	r0, [r5], #-32
    1ff0:	3e73656f 	cdpcc	5, 7, cr6, cr3, cr15, {3}

00001ff4 <Code_475>:
    1ff4:	2020      	movs	r0, #32
    1ff6:	0200      	lsls	r0, r0, #8
    1ff8:	3007      	adds	r0, #7
    1ffa:	4780      	blx	r0
    1ffc:	3f04      	subs	r7, #4
    1ffe:	603e      	str	r6, [r7, #0]
    2000:	4676      	mov	r6, lr
    2002:	3e01      	subs	r6, #1
    2004:	4770      	bx	lr

00002006 <dodoes>:
    2006:	3f04      	subs	r7, #4
    2008:	603e      	str	r6, [r7, #0]
    200a:	4676      	mov	r6, lr
    200c:	3e01      	subs	r6, #1
    200e:	4a38      	ldr	r2, [pc, #224]	; (20f0 <builds_ram+0x64>)
    2010:	6813      	ldr	r3, [r2, #0]
    2012:	4938      	ldr	r1, [pc, #224]	; (20f4 <builds_ram+0x68>)
    2014:	6809      	ldr	r1, [r1, #0]
    2016:	4836      	ldr	r0, [pc, #216]	; (20f0 <builds_ram+0x64>)
    2018:	4283      	cmp	r3, r0
    201a:	d205      	bcs.n	2028 <dodoes_ram>
    201c:	200f      	movs	r0, #15
    201e:	4008      	ands	r0, r1
    2020:	280e      	cmp	r0, #14
    2022:	d005      	beq.n	2030 <dodoes_ram+0x8>
    2024:	3102      	adds	r1, #2
    2026:	e7f9      	b.n	201c <dodoes+0x16>

00002028 <dodoes_ram>:
    2028:	2002      	movs	r0, #2
    202a:	4008      	ands	r0, r1
    202c:	d100      	bne.n	2030 <dodoes_ram+0x8>
    202e:	3102      	adds	r1, #2
    2030:	3102      	adds	r1, #2
    2032:	6011      	str	r1, [r2, #0]
    2034:	3601      	adds	r6, #1
    2036:	3f04      	subs	r7, #4
    2038:	603e      	str	r6, [r7, #0]
    203a:	2600      	movs	r6, #0
    203c:	f7ff ff27 	bl	1e8e <registerliteralkommalang>
    2040:	3f04      	subs	r7, #4
    2042:	603e      	str	r6, [r7, #0]
    2044:	4e24      	ldr	r6, [pc, #144]	; (20d8 <builds_ram+0x4c>)
    2046:	f000 fa98 	bl	257a <Code_577>
    204a:	6013      	str	r3, [r2, #0]
    204c:	f000 f9f3 	bl	2436 <Code_561>
    2050:	bd00      	pop	{pc}
    2052:	46c0      	nop			; (mov r8, r8)

00002054 <Dictionary_482>:
    2054:	000020fc 	strdeq	r2, [r0], -ip
    2058:	3c070000 	stccc	0, cr0, [r7], {0}
    205c:	6c697562 	cfstr64vs	mvdx7, [r9], #-392	; 0xfffffe78
    2060:	b5007364 	strlt	r7, [r0, #-868]	; 0x364

00002062 <Code_482>:
    2062:	b500      	push	{lr}
    2064:	f000 fb8e 	bl	2784 <Code_608>
    2068:	4821      	ldr	r0, [pc, #132]	; (20f0 <builds_ram+0x64>)
    206a:	6801      	ldr	r1, [r0, #0]
    206c:	4a20      	ldr	r2, [pc, #128]	; (20f0 <builds_ram+0x64>)
    206e:	4291      	cmp	r1, r2
    2070:	d20c      	bcs.n	208c <builds_ram>
    2072:	f000 fdd7 	bl	2c24 <Code_695>
    2076:	200f      	movs	r0, #15
    2078:	4006      	ands	r6, r0
    207a:	2e0e      	cmp	r6, #14
    207c:	cf40      	ldmia	r7!, {r6}
    207e:	d010      	beq.n	20a2 <builds_ram+0x16>
    2080:	3f04      	subs	r7, #4
    2082:	603e      	str	r6, [r7, #0]
    2084:	2636      	movs	r6, #54	; 0x36
    2086:	f000 fa78 	bl	257a <Code_577>
    208a:	e7f2      	b.n	2072 <Code_482+0x10>

0000208c <builds_ram>:
    208c:	f000 fdca 	bl	2c24 <Code_695>
    2090:	2002      	movs	r0, #2
    2092:	4006      	ands	r6, r0
    2094:	cf40      	ldmia	r7!, {r6}
    2096:	d104      	bne.n	20a2 <builds_ram+0x16>
    2098:	3f04      	subs	r7, #4
    209a:	603e      	str	r6, [r7, #0]
    209c:	2636      	movs	r6, #54	; 0x36
    209e:	f000 fa6c 	bl	257a <Code_577>
    20a2:	3f04      	subs	r7, #4
    20a4:	603e      	str	r6, [r7, #0]
    20a6:	4e14      	ldr	r6, [pc, #80]	; (20f8 <builds_ram+0x6c>)
    20a8:	f000 fa67 	bl	257a <Code_577>
    20ac:	3f04      	subs	r7, #4
    20ae:	603e      	str	r6, [r7, #0]
    20b0:	2610      	movs	r6, #16
    20b2:	f000 facf 	bl	2654 <Code_597>
    20b6:	bd00      	pop	{pc}
    20b8:	ffff0000 			; <UNDEFINED> instruction: 0xffff0000
    20bc:	000043c0 	andeq	r4, r0, r0, asr #7
    20c0:	00002000 	andeq	r2, r0, r0
    20c4:	00001000 	andeq	r1, r0, r0
    20c8:	00000200 	andeq	r0, r0, r0, lsl #4
    20cc:	00003000 	andeq	r3, r0, r0
    20d0:	ffc00001 			; <UNDEFINED> instruction: 0xffc00001
    20d4:	ffc00000 			; <UNDEFINED> instruction: 0xffc00000
    20d8:	00004780 	andeq	r4, r0, r0, lsl #15
    20dc:	f000f800 			; <UNDEFINED> instruction: 0xf000f800
    20e0:	000007ff 	strdeq	r0, [r0], -pc	; <UNPREDICTABLE>
    20e4:	000003ff 	strdeq	r0, [r0], -pc	; <UNPREDICTABLE>
    20e8:	00003f04 	andeq	r3, r0, r4, lsl #30
    20ec:	0000603e 	andeq	r6, r0, lr, lsr r0
    20f0:	10000000 	andne	r0, r0, r0
    20f4:	10000014 	andne	r0, r0, r4, lsl r0
    20f8:	0000b500 	andeq	fp, r0, r0, lsl #10

000020fc <Dictionary_493>:
    20fc:	00002108 	andeq	r2, r0, r8, lsl #2
    2100:	5b030050 	blpl	c2248 <BIT19+0x42248>
    2104:	e0035d27 	and	r5, r3, r7, lsr #26

00002106 <Code_493>:
    2106:	e003      	b.n	2110 <Code_494>

00002108 <Dictionary_494>:
    2108:	00002120 	andeq	r2, r0, r0, lsr #2
    210c:	27010000 	strcs	r0, [r1, -r0]

00002110 <Code_494>:
    2110:	b500      	push	{lr}
    2112:	f001 f843 	bl	319c <Code_832>
    2116:	f000 fd2a 	bl	2b6e <find_not_found>
    211a:	0030      	movs	r0, r6
    211c:	cf40      	ldmia	r7!, {r6}
    211e:	bd00      	pop	{pc}

00002120 <Dictionary_496>:
    2120:	00002160 	andeq	r2, r0, r0, ror #2
    2124:	70080030 	andvc	r0, r8, r0, lsr r0
    2128:	7074736f 	rsbsvc	r7, r4, pc, ror #6
    212c:	00656e6f 	rsbeq	r6, r5, pc, ror #28

00002130 <Code_496>:
    2130:	b500      	push	{lr}
    2132:	f7ff ffed 	bl	2110 <Code_494>
    2136:	2110      	movs	r1, #16
    2138:	4001      	ands	r1, r0
    213a:	d10d      	bne.n	2158 <Code_496+0x28>
    213c:	2120      	movs	r1, #32
    213e:	4001      	ands	r1, r0
    2140:	d005      	beq.n	214e <Code_496+0x1e>
    2142:	f7ff ff2b 	bl	1f9c <Code_466>
    2146:	3f04      	subs	r7, #4
    2148:	603e      	str	r6, [r7, #0]
    214a:	4ee1      	ldr	r6, [pc, #900]	; (24d0 <setflags_ram+0x1c>)
    214c:	e004      	b.n	2158 <Code_496+0x28>
    214e:	f7ff ff25 	bl	1f9c <Code_466>
    2152:	3f04      	subs	r7, #4
    2154:	603e      	str	r6, [r7, #0]
    2156:	4edf      	ldr	r6, [pc, #892]	; (24d4 <setflags_ram+0x20>)
    2158:	f7ff fee6 	bl	1f28 <Code_457>
    215c:	bd00      	pop	{pc}
    215e:	46c0      	nop			; (mov r8, r8)

00002160 <Dictionary_499>:
    2160:	000021ac 	andeq	r2, r0, ip, lsr #3
    2164:	69070000 	stmdbvs	r7, {}	; <UNPREDICTABLE>
    2168:	6e696c6e 	cdpvs	12, 6, cr6, cr9, cr14, {3}
    216c:	b5002c65 	strlt	r2, [r0, #-3173]	; 0xc65

0000216e <Code_499>:
    216e:	b500      	push	{lr}
    2170:	49d9      	ldr	r1, [pc, #868]	; (24d8 <setflags_ram+0x24>)
    2172:	4ada      	ldr	r2, [pc, #872]	; (24dc <setflags_ram+0x28>)
    2174:	4bda      	ldr	r3, [pc, #872]	; (24e0 <setflags_ram+0x2c>)
    2176:	8830      	ldrh	r0, [r6, #0]
    2178:	4288      	cmp	r0, r1
    217a:	d008      	beq.n	218e <Code_499+0x20>
    217c:	4290      	cmp	r0, r2
    217e:	d008      	beq.n	2192 <Code_499+0x24>
    2180:	4298      	cmp	r0, r3
    2182:	d006      	beq.n	2192 <Code_499+0x24>
    2184:	3f04      	subs	r7, #4
    2186:	603e      	str	r6, [r7, #0]
    2188:	0006      	movs	r6, r0
    218a:	f000 f9f6 	bl	257a <Code_577>
    218e:	3602      	adds	r6, #2
    2190:	e7f1      	b.n	2176 <Code_499+0x8>
    2192:	cf40      	ldmia	r7!, {r6}
    2194:	bd00      	pop	{pc}

00002196 <suchedefinitionsende>:
    2196:	b40e      	push	{r1, r2, r3}
    2198:	4ad0      	ldr	r2, [pc, #832]	; (24dc <setflags_ram+0x28>)
    219a:	4bd1      	ldr	r3, [pc, #836]	; (24e0 <setflags_ram+0x2c>)
    219c:	8801      	ldrh	r1, [r0, #0]
    219e:	3002      	adds	r0, #2
    21a0:	4291      	cmp	r1, r2
    21a2:	d001      	beq.n	21a8 <suchedefinitionsende+0x12>
    21a4:	4299      	cmp	r1, r3
    21a6:	d1f9      	bne.n	219c <suchedefinitionsende+0x6>
    21a8:	bc0e      	pop	{r1, r2, r3}
    21aa:	4770      	bx	lr

000021ac <Dictionary_503>:
    21ac:	000021c0 	andeq	r2, r0, r0, asr #3
    21b0:	72040000 	andvc	r0, r4, #0
    21b4:	002c7465 	eoreq	r7, ip, r5, ror #8

000021b8 <Code_503>:
    21b8:	3f04      	subs	r7, #4
    21ba:	603e      	str	r6, [r7, #0]
    21bc:	4ec7      	ldr	r6, [pc, #796]	; (24dc <setflags_ram+0x28>)
    21be:	e1dc      	b.n	257a <Code_577>

000021c0 <Dictionary_506>:
    21c0:	000021d0 	ldrdeq	r2, [r0], -r0
    21c4:	65040030 	strvs	r0, [r4, #-48]	; 0x30
    21c8:	00746978 	rsbseq	r6, r4, r8, ror r9

000021cc <Code_506>:
    21cc:	e7f4      	b.n	21b8 <Code_503>
    21ce:	46c0      	nop			; (mov r8, r8)

000021d0 <Dictionary_507>:
    21d0:	000021e8 	andeq	r2, r0, r8, ror #3
    21d4:	72070030 	andvc	r0, r7, #48	; 0x30
    21d8:	72756365 	rsbsvc	r6, r5, #-1811939327	; 0x94000001
    21dc:	3f046573 	svccc	0x00046573

000021de <Code_507>:
    21de:	3f04      	subs	r7, #4
    21e0:	603e      	str	r6, [r7, #0]
    21e2:	4ec0      	ldr	r6, [pc, #768]	; (24e4 <setflags_ram+0x30>)
    21e4:	6836      	ldr	r6, [r6, #0]
    21e6:	e69f      	b.n	1f28 <Code_457>

000021e8 <Dictionary_509>:
    21e8:	00002200 	andeq	r2, r0, r0, lsl #4
    21ec:	73050081 	movwvc	r0, #20609	; 0x5081
    21f0:	65746174 	ldrbvs	r6, [r4, #-372]!	; 0x174

000021f4 <Code_509>:
    21f4:	3f04      	subs	r7, #4
    21f6:	603e      	str	r6, [r7, #0]
    21f8:	4ebb      	ldr	r6, [pc, #748]	; (24e8 <setflags_ram+0x34>)
    21fa:	4770      	bx	lr
    21fc:	00000000 	andeq	r0, r0, r0

00002200 <Dictionary_512>:
    2200:	00002214 	andeq	r2, r0, r4, lsl r2
    2204:	5d010000 	stcpl	0, cr0, [r1]

00002208 <Code_512>:
    2208:	48b7      	ldr	r0, [pc, #732]	; (24e8 <setflags_ram+0x34>)
    220a:	2100      	movs	r1, #0
    220c:	43c9      	mvns	r1, r1
    220e:	6001      	str	r1, [r0, #0]
    2210:	4770      	bx	lr
    2212:	46c0      	nop			; (mov r8, r8)

00002214 <Dictionary_513>:
    2214:	00002224 	andeq	r2, r0, r4, lsr #4
    2218:	5b010010 	blpl	42260 <BIT18+0x2260>

0000221c <Code_513>:
    221c:	48b2      	ldr	r0, [pc, #712]	; (24e8 <setflags_ram+0x34>)
    221e:	2100      	movs	r1, #0
    2220:	6001      	str	r1, [r0, #0]
    2222:	4770      	bx	lr

00002224 <Dictionary_514>:
    2224:	0000224c 	andeq	r2, r0, ip, asr #4
    2228:	3a010000 	bcc	42230 <BIT18+0x2230>

0000222c <Code_514>:
    222c:	b500      	push	{lr}
    222e:	48af      	ldr	r0, [pc, #700]	; (24ec <setflags_ram+0x38>)
    2230:	6007      	str	r7, [r0, #0]
    2232:	f000 faa7 	bl	2784 <Code_608>
    2236:	3f04      	subs	r7, #4
    2238:	603e      	str	r6, [r7, #0]
    223a:	4ea7      	ldr	r6, [pc, #668]	; (24d8 <setflags_ram+0x24>)
    223c:	f000 f99d 	bl	257a <Code_577>
    2240:	48a9      	ldr	r0, [pc, #676]	; (24e8 <setflags_ram+0x34>)
    2242:	2100      	movs	r1, #0
    2244:	43c9      	mvns	r1, r1
    2246:	6001      	str	r1, [r0, #0]
    2248:	bd00      	pop	{pc}
    224a:	46c0      	nop			; (mov r8, r8)

0000224c <Dictionary_517>:
    224c:	00002294 	muleq	r0, r4, r2
    2250:	3b010030 	blcc	42318 <BIT18+0x2318>

00002254 <Code_517>:
    2254:	b500      	push	{lr}
    2256:	48a5      	ldr	r0, [pc, #660]	; (24ec <setflags_ram+0x38>)
    2258:	6801      	ldr	r1, [r0, #0]
    225a:	42b9      	cmp	r1, r7
    225c:	d00e      	beq.n	227c <Code_517+0x28>
    225e:	f7ff fc73 	bl	1b48 <dotgaensefuesschen>
    2262:	74532015 	ldrbvc	r2, [r3], #-21
    2266:	206b6361 	rsbcs	r6, fp, r1, ror #6
    226a:	20746f6e 	rsbscs	r6, r4, lr, ror #30
    226e:	616c6162 	cmnvs	ip, r2, ror #2
    2272:	6465636e 	strbtvs	r6, [r5], #-878	; 0x36e
    2276:	f0010a2e 			; <UNDEFINED> instruction: 0xf0010a2e
    227a:	fb02 3f04 	mla	pc, r2, r4, r3
    227e:	603e      	str	r6, [r7, #0]
    2280:	4e96      	ldr	r6, [pc, #600]	; (24dc <setflags_ram+0x28>)
    2282:	f000 f97a 	bl	257a <Code_577>
    2286:	f000 f8d6 	bl	2436 <Code_561>
    228a:	4897      	ldr	r0, [pc, #604]	; (24e8 <setflags_ram+0x34>)
    228c:	2100      	movs	r1, #0
    228e:	6001      	str	r1, [r0, #0]
    2290:	bd00      	pop	{pc}
    2292:	46c0      	nop			; (mov r8, r8)

00002294 <Dictionary_521>:
    2294:	000022a8 	andeq	r2, r0, r8, lsr #5
    2298:	65070000 	strvs	r0, [r7]
    229c:	75636578 	strbvc	r6, [r3, #-1400]!	; 0x578
    22a0:	00306574 	eorseq	r6, r0, r4, ror r5

000022a2 <Code_521>:
    22a2:	0030      	movs	r0, r6
    22a4:	cf40      	ldmia	r7!, {r6}
    22a6:	4687      	mov	pc, r0

000022a8 <Dictionary_523>:
    22a8:	000022c0 	andeq	r2, r0, r0, asr #5
    22ac:	69090010 	stmdbvs	r9, {r4}
    22b0:	64656d6d 	strbtvs	r6, [r5], #-3437	; 0xd6d
    22b4:	65746169 	ldrbvs	r6, [r4, #-361]!	; 0x169

000022b8 <Code_523>:
    22b8:	3f04      	subs	r7, #4
    22ba:	603e      	str	r6, [r7, #0]
    22bc:	2610      	movs	r6, #16
    22be:	e0ed      	b.n	249c <Code_567>

000022c0 <Dictionary_526>:
    22c0:	000022d8 	ldrdeq	r2, [r0], -r8
    22c4:	69060050 	stmdbvs	r6, {r4, r6}
    22c8:	6e696c6e 	cdpvs	12, 6, cr6, cr9, cr14, {3}
    22cc:	3f040065 	svccc	0x00040065

000022ce <Code_526>:
    22ce:	3f04      	subs	r7, #4
    22d0:	603e      	str	r6, [r7, #0]
    22d2:	2620      	movs	r6, #32
    22d4:	e0e2      	b.n	249c <Code_567>
    22d6:	46c0      	nop			; (mov r8, r8)

000022d8 <Dictionary_529>:
    22d8:	000022f4 	strdeq	r2, [r0], -r4
    22dc:	630b0010 	movwvs	r0, #45072	; 0xb010
    22e0:	69706d6f 	ldmdbvs	r0!, {r0, r1, r2, r3, r5, r6, r8, sl, fp, sp, lr}^
    22e4:	6e6f656c 	cdpvs	5, 6, cr6, cr15, cr12, {3}
    22e8:	3f04796c 	svccc	0x0004796c

000022ea <Code_529>:
    22ea:	3f04      	subs	r7, #4
    22ec:	603e      	str	r6, [r7, #0]
    22ee:	2630      	movs	r6, #48	; 0x30
    22f0:	e0d4      	b.n	249c <Code_567>
    22f2:	46c0      	nop			; (mov r8, r8)

000022f4 <Dictionary_532>:
    22f4:	00002310 	andeq	r2, r0, r0, lsl r3
    22f8:	300a0050 	andcc	r0, sl, r0, asr r0
    22fc:	6c6f662d 	stclvs	6, cr6, [pc], #-180	; 2250 <Dictionary_517+0x4>
    2300:	6c626164 	stfvse	f6, [r2], #-400	; 0xfffffe70
    2304:	3f040065 	svccc	0x00040065

00002306 <Code_532>:
    2306:	3f04      	subs	r7, #4
    2308:	603e      	str	r6, [r7, #0]
    230a:	2640      	movs	r6, #64	; 0x40
    230c:	e0c6      	b.n	249c <Code_567>
    230e:	46c0      	nop			; (mov r8, r8)

00002310 <Dictionary_535>:
    2310:	0000232c 	andeq	r2, r0, ip, lsr #6
    2314:	310a0050 	qaddcc	r0, r0, sl
    2318:	6c6f662d 	stclvs	6, cr6, [pc], #-180	; 226c <Code_517+0x18>
    231c:	6c626164 	stfvse	f6, [r2], #-400	; 0xfffffe70
    2320:	3f040065 	svccc	0x00040065

00002322 <Code_535>:
    2322:	3f04      	subs	r7, #4
    2324:	603e      	str	r6, [r7, #0]
    2326:	2641      	movs	r6, #65	; 0x41
    2328:	e0b8      	b.n	249c <Code_567>
    232a:	46c0      	nop			; (mov r8, r8)

0000232c <Dictionary_538>:
    232c:	00002348 	andeq	r2, r0, r8, asr #6
    2330:	320a0050 	andcc	r0, sl, #80	; 0x50
    2334:	6c6f662d 	stclvs	6, cr6, [pc], #-180	; 2288 <Code_517+0x34>
    2338:	6c626164 	stfvse	f6, [r2], #-400	; 0xfffffe70
    233c:	3f040065 	svccc	0x00040065

0000233e <Code_538>:
    233e:	3f04      	subs	r7, #4
    2340:	603e      	str	r6, [r7, #0]
    2342:	2642      	movs	r6, #66	; 0x42
    2344:	e0aa      	b.n	249c <Code_567>
    2346:	46c0      	nop			; (mov r8, r8)

00002348 <Dictionary_541>:
    2348:	00002364 	andeq	r2, r0, r4, ror #6
    234c:	330a0050 	movwcc	r0, #41040	; 0xa050
    2350:	6c6f662d 	stclvs	6, cr6, [pc], #-180	; 22a4 <Code_521+0x2>
    2354:	6c626164 	stfvse	f6, [r2], #-400	; 0xfffffe70
    2358:	3f040065 	svccc	0x00040065

0000235a <Code_541>:
    235a:	3f04      	subs	r7, #4
    235c:	603e      	str	r6, [r7, #0]
    235e:	2643      	movs	r6, #67	; 0x43
    2360:	e09c      	b.n	249c <Code_567>
    2362:	46c0      	nop			; (mov r8, r8)

00002364 <Dictionary_544>:
    2364:	00002380 	andeq	r2, r0, r0, lsl #7
    2368:	340a0050 	strcc	r0, [sl], #-80	; 0x50
    236c:	6c6f662d 	stclvs	6, cr6, [pc], #-180	; 22c0 <Dictionary_526>
    2370:	6c626164 	stfvse	f6, [r2], #-400	; 0xfffffe70
    2374:	3f040065 	svccc	0x00040065

00002376 <Code_544>:
    2376:	3f04      	subs	r7, #4
    2378:	603e      	str	r6, [r7, #0]
    237a:	2644      	movs	r6, #68	; 0x44
    237c:	e08e      	b.n	249c <Code_567>
    237e:	46c0      	nop			; (mov r8, r8)

00002380 <Dictionary_547>:
    2380:	0000239c 	muleq	r0, ip, r3
    2384:	350a0050 	strcc	r0, [sl, #-80]	; 0x50
    2388:	6c6f662d 	stclvs	6, cr6, [pc], #-180	; 22dc <Dictionary_529+0x4>
    238c:	6c626164 	stfvse	f6, [r2], #-400	; 0xfffffe70
    2390:	3f040065 	svccc	0x00040065

00002392 <Code_547>:
    2392:	3f04      	subs	r7, #4
    2394:	603e      	str	r6, [r7, #0]
    2396:	2645      	movs	r6, #69	; 0x45
    2398:	e080      	b.n	249c <Code_567>
    239a:	46c0      	nop			; (mov r8, r8)

0000239c <Dictionary_550>:
    239c:	000023b8 			; <UNDEFINED> instruction: 0x000023b8
    23a0:	360a0050 			; <UNDEFINED> instruction: 0x360a0050
    23a4:	6c6f662d 	stclvs	6, cr6, [pc], #-180	; 22f8 <Dictionary_532+0x4>
    23a8:	6c626164 	stfvse	f6, [r2], #-400	; 0xfffffe70
    23ac:	3f040065 	svccc	0x00040065

000023ae <Code_550>:
    23ae:	3f04      	subs	r7, #4
    23b0:	603e      	str	r6, [r7, #0]
    23b2:	2646      	movs	r6, #70	; 0x46
    23b4:	e072      	b.n	249c <Code_567>
    23b6:	46c0      	nop			; (mov r8, r8)

000023b8 <Dictionary_553>:
    23b8:	000023d4 	ldrdeq	r2, [r0], -r4
    23bc:	370a0050 	smlsdcc	sl, r0, r0, r0
    23c0:	6c6f662d 	stclvs	6, cr6, [pc], #-180	; 2314 <Dictionary_535+0x4>
    23c4:	6c626164 	stfvse	f6, [r2], #-400	; 0xfffffe70
    23c8:	3f040065 	svccc	0x00040065

000023ca <Code_553>:
    23ca:	3f04      	subs	r7, #4
    23cc:	603e      	str	r6, [r7, #0]
    23ce:	2647      	movs	r6, #71	; 0x47
    23d0:	e064      	b.n	249c <Code_567>
    23d2:	46c0      	nop			; (mov r8, r8)

000023d4 <Dictionary_556>:
    23d4:	00002404 	andeq	r2, r0, r4, lsl #8
    23d8:	63080000 	movwvs	r0, #32768	; 0x8000
    23dc:	74736e6f 	ldrbtvc	r6, [r3], #-3695	; 0xe6f
    23e0:	00746e61 	rsbseq	r6, r4, r1, ror #28

000023e4 <Code_556>:
    23e4:	b500      	push	{lr}
    23e6:	f000 f9cd 	bl	2784 <Code_608>
    23ea:	f7ff fdd7 	bl	1f9c <Code_466>
    23ee:	3f04      	subs	r7, #4
    23f0:	603e      	str	r6, [r7, #0]
    23f2:	4e3b      	ldr	r6, [pc, #236]	; (24e0 <setflags_ram+0x2c>)
    23f4:	f000 f8c1 	bl	257a <Code_577>
    23f8:	f7ff ff85 	bl	2306 <Code_532>
    23fc:	f000 f81b 	bl	2436 <Code_561>
    2400:	bd00      	pop	{pc}
    2402:	46c0      	nop			; (mov r8, r8)

00002404 <Dictionary_559>:
    2404:	00002428 	andeq	r2, r0, r8, lsr #8
    2408:	32090000 	andcc	r0, r9, #0
    240c:	736e6f63 	cmnvc	lr, #396	; 0x18c
    2410:	746e6174 	strbtvc	r6, [lr], #-372	; 0x174

00002414 <Code_559>:
    2414:	b500      	push	{lr}
    2416:	f000 f9b5 	bl	2784 <Code_608>
    241a:	6839      	ldr	r1, [r7, #0]
    241c:	603e      	str	r6, [r7, #0]
    241e:	460e      	mov	r6, r1
    2420:	f7ff fdbc 	bl	1f9c <Code_466>
    2424:	e7e1      	b.n	23ea <Code_556+0x6>
    2426:	46c0      	nop			; (mov r8, r8)

00002428 <Dictionary_561>:
    2428:	0000248c 	andeq	r2, r0, ip, lsl #9
    242c:	73060000 	movwvc	r0, #24576	; 0x6000
    2430:	6764756d 	strbvs	r7, [r4, -sp, ror #10]!
    2434:	b5000065 	strlt	r0, [r0, #-101]	; 0x65

00002436 <Code_561>:
    2436:	b500      	push	{lr}
    2438:	482d      	ldr	r0, [pc, #180]	; (24f0 <setflags_ram+0x3c>)
    243a:	6801      	ldr	r1, [r0, #0]
    243c:	4a2c      	ldr	r2, [pc, #176]	; (24f0 <setflags_ram+0x3c>)
    243e:	4291      	cmp	r1, r2
    2440:	d21e      	bcs.n	2480 <smudge_ram>
    2442:	3902      	subs	r1, #2
    2444:	880a      	ldrh	r2, [r1, #0]
    2446:	4b2b      	ldr	r3, [pc, #172]	; (24f4 <setflags_ram+0x40>)
    2448:	429a      	cmp	r2, r3
    244a:	d104      	bne.n	2456 <Code_561+0x20>
    244c:	3f04      	subs	r7, #4
    244e:	603e      	str	r6, [r7, #0]
    2450:	4e29      	ldr	r6, [pc, #164]	; (24f8 <setflags_ram+0x44>)
    2452:	f000 f892 	bl	257a <Code_577>
    2456:	f000 f869 	bl	252c <Code_571>
    245a:	f000 f87b 	bl	2554 <Code_574>
    245e:	4827      	ldr	r0, [pc, #156]	; (24fc <setflags_ram+0x48>)
    2460:	6800      	ldr	r0, [r0, #0]
    2462:	3f04      	subs	r7, #4
    2464:	603e      	str	r6, [r7, #0]
    2466:	0006      	movs	r6, r0
    2468:	4925      	ldr	r1, [pc, #148]	; (2500 <setflags_ram+0x4c>)
    246a:	6809      	ldr	r1, [r1, #0]
    246c:	3104      	adds	r1, #4
    246e:	4a20      	ldr	r2, [pc, #128]	; (24f0 <setflags_ram+0x3c>)
    2470:	6813      	ldr	r3, [r2, #0]
    2472:	6011      	str	r1, [r2, #0]
    2474:	f000 f881 	bl	257a <Code_577>
    2478:	6013      	str	r3, [r2, #0]
    247a:	f7fe ffce 	bl	141a <Code_241>
    247e:	bd00      	pop	{pc}

00002480 <smudge_ram>:
    2480:	f000 f854 	bl	252c <Code_571>
    2484:	3f04      	subs	r7, #4
    2486:	603e      	str	r6, [r7, #0]
    2488:	2600      	movs	r6, #0
    248a:	e008      	b.n	249e <setflags_intern>

0000248c <Dictionary_567>:
    248c:	00002504 	andeq	r2, r0, r4, lsl #10
    2490:	73080000 	movwvc	r0, #32768	; 0x8000
    2494:	6c667465 	cfstrdvs	mvd7, [r6], #-404	; 0xfffffe6c
    2498:	00736761 	rsbseq	r6, r3, r1, ror #14

0000249c <Code_567>:
    249c:	b500      	push	{lr}

0000249e <setflags_intern>:
    249e:	4814      	ldr	r0, [pc, #80]	; (24f0 <setflags_ram+0x3c>)
    24a0:	6801      	ldr	r1, [r0, #0]
    24a2:	4a13      	ldr	r2, [pc, #76]	; (24f0 <setflags_ram+0x3c>)
    24a4:	4291      	cmp	r1, r2
    24a6:	d205      	bcs.n	24b4 <setflags_ram>
    24a8:	4814      	ldr	r0, [pc, #80]	; (24fc <setflags_ram+0x48>)
    24aa:	6801      	ldr	r1, [r0, #0]
    24ac:	4331      	orrs	r1, r6
    24ae:	6001      	str	r1, [r0, #0]
    24b0:	cf40      	ldmia	r7!, {r6}
    24b2:	bd00      	pop	{pc}

000024b4 <setflags_ram>:
    24b4:	0032      	movs	r2, r6
    24b6:	cf40      	ldmia	r7!, {r6}
    24b8:	4811      	ldr	r0, [pc, #68]	; (2500 <setflags_ram+0x4c>)
    24ba:	6800      	ldr	r0, [r0, #0]
    24bc:	3004      	adds	r0, #4
    24be:	8801      	ldrh	r1, [r0, #0]
    24c0:	4b0c      	ldr	r3, [pc, #48]	; (24f4 <setflags_ram+0x40>)
    24c2:	4299      	cmp	r1, r3
    24c4:	d101      	bne.n	24ca <setflags_ram+0x16>
    24c6:	0011      	movs	r1, r2
    24c8:	e000      	b.n	24cc <setflags_ram+0x18>
    24ca:	4311      	orrs	r1, r2
    24cc:	8001      	strh	r1, [r0, #0]
    24ce:	bd00      	pop	{pc}
    24d0:	0000216e 	andeq	r2, r0, lr, ror #2
    24d4:	00001f28 	andeq	r1, r0, r8, lsr #30
    24d8:	0000b500 	andeq	fp, r0, r0, lsl #10
    24dc:	0000bd00 	andeq	fp, r0, r0, lsl #26
    24e0:	00004770 	andeq	r4, r0, r0, ror r7
    24e4:	10000014 	andne	r0, r0, r4, lsl r0
    24e8:	10001fb4 			; <UNDEFINED> instruction: 0x10001fb4
    24ec:	10000010 	andne	r0, r0, r0, lsl r0
    24f0:	10000000 	andne	r0, r0, r0
    24f4:	0000ffff 	strdeq	pc, [r0], -pc	; <UNPREDICTABLE>
    24f8:	00000000 	andeq	r0, r0, r0
    24fc:	10000020 	andne	r0, r0, r0, lsr #32
    2500:	10000004 	andne	r0, r0, r4

00002504 <Dictionary_570>:
    2504:	00002520 	andeq	r2, r0, r0, lsr #10
    2508:	61070041 	tstvs	r7, r1, asr #32
    250c:	6e67696c 	cdpvs	9, 6, cr6, cr7, cr12, {3}
    2510:	20016465 	andcs	r6, r1, r5, ror #8

00002512 <Code_570>:
    2512:	2001      	movs	r0, #1
    2514:	4030      	ands	r0, r6
    2516:	1836      	adds	r6, r6, r0
    2518:	2002      	movs	r0, #2
    251a:	4030      	ands	r0, r6
    251c:	1836      	adds	r6, r6, r0
    251e:	4770      	bx	lr

00002520 <Dictionary_571>:
    2520:	00002544 	andeq	r2, r0, r4, asr #10
    2524:	61050000 	mrsvs	r0, (UNDEF: 5)
    2528:	6e67696c 	cdpvs	9, 6, cr6, cr7, cr12, {3}

0000252c <Code_571>:
    252c:	b500      	push	{lr}
    252e:	488b      	ldr	r0, [pc, #556]	; (275c <Zweitpointertausch+0x4e>)
    2530:	6801      	ldr	r1, [r0, #0]
    2532:	2002      	movs	r0, #2
    2534:	4001      	ands	r1, r0
    2536:	d004      	beq.n	2542 <Code_571+0x16>
    2538:	3f04      	subs	r7, #4
    253a:	603e      	str	r6, [r7, #0]
    253c:	2600      	movs	r6, #0
    253e:	f000 f81c 	bl	257a <Code_577>
    2542:	bd00      	pop	{pc}

00002544 <Dictionary_574>:
    2544:	00002570 	andeq	r2, r0, r0, ror r5
    2548:	61080000 	mrsvs	r0, (UNDEF: 8)
    254c:	6e67696c 	cdpvs	9, 6, cr6, cr7, cr12, {3}
    2550:	002c3631 	eoreq	r3, ip, r1, lsr r6

00002554 <Code_574>:
    2554:	b500      	push	{lr}
    2556:	4881      	ldr	r0, [pc, #516]	; (275c <Zweitpointertausch+0x4e>)
    2558:	6801      	ldr	r1, [r0, #0]
    255a:	200f      	movs	r0, #15
    255c:	4001      	ands	r1, r0
    255e:	d005      	beq.n	256c <Code_574+0x18>
    2560:	3f04      	subs	r7, #4
    2562:	603e      	str	r6, [r7, #0]
    2564:	2600      	movs	r6, #0
    2566:	f000 f808 	bl	257a <Code_577>
    256a:	e7f4      	b.n	2556 <Code_574+0x2>
    256c:	bd00      	pop	{pc}
    256e:	46c0      	nop			; (mov r8, r8)

00002570 <Dictionary_577>:
    2570:	000025a8 	andeq	r2, r0, r8, lsr #11
    2574:	68020000 	stmdavs	r2, {}	; <UNPREDICTABLE>
    2578:	b50f002c 	strlt	r0, [pc, #-44]	; 2554 <Code_574>

0000257a <Code_577>:
    257a:	b50f      	push	{r0, r1, r2, r3, lr}
    257c:	b2b6      	uxth	r6, r6
    257e:	4877      	ldr	r0, [pc, #476]	; (275c <Zweitpointertausch+0x4e>)
    2580:	6801      	ldr	r1, [r0, #0]
    2582:	4a76      	ldr	r2, [pc, #472]	; (275c <Zweitpointertausch+0x4e>)
    2584:	4291      	cmp	r1, r2
    2586:	d205      	bcs.n	2594 <hkomma_ram>
    2588:	3f04      	subs	r7, #4
    258a:	603e      	str	r6, [r7, #0]
    258c:	000e      	movs	r6, r1
    258e:	f7fe fece 	bl	132e <Code_235>
    2592:	e002      	b.n	259a <hkomma_fertig>

00002594 <hkomma_ram>:
    2594:	0032      	movs	r2, r6
    2596:	cf40      	ldmia	r7!, {r6}
    2598:	800a      	strh	r2, [r1, #0]

0000259a <hkomma_fertig>:
    259a:	3f04      	subs	r7, #4
    259c:	603e      	str	r6, [r7, #0]
    259e:	2602      	movs	r6, #2
    25a0:	f000 f858 	bl	2654 <Code_597>
    25a4:	bd0f      	pop	{r0, r1, r2, r3, pc}
    25a6:	46c0      	nop			; (mov r8, r8)

000025a8 <Dictionary_583>:
    25a8:	000025c4 	andeq	r2, r0, r4, asr #11
    25ac:	2c010000 	stccs	0, cr0, [r1], {0}

000025b0 <Code_583>:
    25b0:	b500      	push	{lr}
    25b2:	3f04      	subs	r7, #4
    25b4:	603e      	str	r6, [r7, #0]
    25b6:	f7ff ffe0 	bl	257a <Code_577>
    25ba:	0c36      	lsrs	r6, r6, #16
    25bc:	f7ff ffdd 	bl	257a <Code_577>
    25c0:	bd00      	pop	{pc}
    25c2:	46c0      	nop			; (mov r8, r8)

000025c4 <Dictionary_586>:
    25c4:	000025e0 	andeq	r2, r0, r0, ror #11
    25c8:	3e030000 	cdpcc	0, 0, cr0, cr3, cr0, {0}
    25cc:	b5002c3c 	strlt	r2, [r0, #-3132]	; 0xc3c

000025ce <Code_586>:
    25ce:	b500      	push	{lr}
    25d0:	3f04      	subs	r7, #4
    25d2:	603e      	str	r6, [r7, #0]
    25d4:	0c36      	lsrs	r6, r6, #16
    25d6:	f7ff ffd0 	bl	257a <Code_577>
    25da:	f7ff ffce 	bl	257a <Code_577>
    25de:	bd00      	pop	{pc}

000025e0 <Dictionary_589>:
    25e0:	00002648 	andeq	r2, r0, r8, asr #12
    25e4:	73070000 	movwvc	r0, #28672	; 0x7000
    25e8:	6e697274 	mcrvs	2, 3, r7, cr9, cr4, {3}
    25ec:	b5072c67 	strlt	r2, [r7, #-3175]	; 0xc67

000025ee <Code_589>:
    25ee:	b507      	push	{r0, r1, r2, lr}
    25f0:	21ff      	movs	r1, #255	; 0xff
    25f2:	4031      	ands	r1, r6
    25f4:	cf40      	ldmia	r7!, {r6}
    25f6:	0030      	movs	r0, r6
    25f8:	cf40      	ldmia	r7!, {r6}
    25fa:	2900      	cmp	r1, #0
    25fc:	d105      	bne.n	260a <Code_589+0x1c>
    25fe:	3f04      	subs	r7, #4
    2600:	603e      	str	r6, [r7, #0]
    2602:	2600      	movs	r6, #0
    2604:	f7ff ffb9 	bl	257a <Code_577>
    2608:	bd07      	pop	{r0, r1, r2, pc}
    260a:	3f04      	subs	r7, #4
    260c:	603e      	str	r6, [r7, #0]
    260e:	7806      	ldrb	r6, [r0, #0]
    2610:	0236      	lsls	r6, r6, #8
    2612:	430e      	orrs	r6, r1
    2614:	f7ff ffb1 	bl	257a <Code_577>
    2618:	3001      	adds	r0, #1
    261a:	3901      	subs	r1, #1
    261c:	2902      	cmp	r1, #2
    261e:	d30a      	bcc.n	2636 <Code_589+0x48>
    2620:	3f04      	subs	r7, #4
    2622:	603e      	str	r6, [r7, #0]
    2624:	7846      	ldrb	r6, [r0, #1]
    2626:	0236      	lsls	r6, r6, #8
    2628:	7802      	ldrb	r2, [r0, #0]
    262a:	4316      	orrs	r6, r2
    262c:	f7ff ffa5 	bl	257a <Code_577>
    2630:	3002      	adds	r0, #2
    2632:	3902      	subs	r1, #2
    2634:	e7f2      	b.n	261c <Code_589+0x2e>
    2636:	2900      	cmp	r1, #0
    2638:	d100      	bne.n	263c <Code_589+0x4e>
    263a:	bd07      	pop	{r0, r1, r2, pc}
    263c:	3f04      	subs	r7, #4
    263e:	603e      	str	r6, [r7, #0]
    2640:	7806      	ldrb	r6, [r0, #0]
    2642:	f7ff ff9a 	bl	257a <Code_577>
    2646:	bd07      	pop	{r0, r1, r2, pc}

00002648 <Dictionary_597>:
    2648:	000026a4 	andeq	r2, r0, r4, lsr #13
    264c:	61050000 	mrsvs	r0, (UNDEF: 5)
    2650:	746f6c6c 	strbtvc	r6, [pc], #-3180	; 2658 <Code_597+0x4>

00002654 <Code_597>:
    2654:	4841      	ldr	r0, [pc, #260]	; (275c <Zweitpointertausch+0x4e>)
    2656:	6801      	ldr	r1, [r0, #0]
    2658:	4a40      	ldr	r2, [pc, #256]	; (275c <Zweitpointertausch+0x4e>)
    265a:	4291      	cmp	r1, r2
    265c:	d20f      	bcs.n	267e <allot_ram>
    265e:	0032      	movs	r2, r6
    2660:	cf40      	ldmia	r7!, {r6}
    2662:	1889      	adds	r1, r1, r2
    2664:	4a3e      	ldr	r2, [pc, #248]	; (2760 <Zweitpointertausch+0x52>)
    2666:	4291      	cmp	r1, r2
    2668:	d319      	bcc.n	269e <allot_ok>
    266a:	f7ff fa6d 	bl	1b48 <dotgaensefuesschen>
    266e:	616c460b 	cmnvs	ip, fp, lsl #12
    2672:	66206873 			; <UNDEFINED> instruction: 0x66206873
    2676:	0a6c6c75 	beq	1b1d852 <BIT24+0xb1d852>
    267a:	f001 f901 	bl	3880 <Code_955>

0000267e <allot_ram>:
    267e:	0032      	movs	r2, r6
    2680:	cf40      	ldmia	r7!, {r6}
    2682:	1889      	adds	r1, r1, r2
    2684:	4a37      	ldr	r2, [pc, #220]	; (2764 <Zweitpointertausch+0x56>)
    2686:	6812      	ldr	r2, [r2, #0]
    2688:	4291      	cmp	r1, r2
    268a:	d308      	bcc.n	269e <allot_ok>
    268c:	f7ff fa5c 	bl	1b48 <dotgaensefuesschen>
    2690:	6d615209 	sfmvs	f5, 2, [r1, #-36]!	; 0xffffffdc
    2694:	6c756620 	ldclvs	6, cr6, [r5], #-128	; 0xffffff80
    2698:	f0010a6c 			; <UNDEFINED> instruction: 0xf0010a6c
    269c:	f8f1 6001 	ldr??.w	r6, [r1, #1]

0000269e <allot_ok>:
    269e:	6001      	str	r1, [r0, #0]
    26a0:	4770      	bx	lr
    26a2:	46c0      	nop			; (mov r8, r8)

000026a4 <Dictionary_602>:
    26a4:	000026cc 	andeq	r2, r0, ip, asr #13
    26a8:	630d0000 	movwvs	r0, #53248	; 0xd000
    26ac:	69706d6f 	ldmdbvs	r0!, {r0, r1, r2, r3, r5, r6, r8, sl, fp, sp, lr}^
    26b0:	6f74656c 	svcvs	0x0074656c
    26b4:	3f6d6172 	svccc	0x006d6172

000026b8 <Code_602>:
    26b8:	3f04      	subs	r7, #4
    26ba:	603e      	str	r6, [r7, #0]
    26bc:	2600      	movs	r6, #0
    26be:	4827      	ldr	r0, [pc, #156]	; (275c <Zweitpointertausch+0x4e>)
    26c0:	6800      	ldr	r0, [r0, #0]
    26c2:	4926      	ldr	r1, [pc, #152]	; (275c <Zweitpointertausch+0x4e>)
    26c4:	4288      	cmp	r0, r1
    26c6:	d348      	bcc.n	275a <Zweitpointertausch+0x4c>
    26c8:	43f6      	mvns	r6, r6
    26ca:	4770      	bx	lr

000026cc <Dictionary_605>:
    26cc:	000026ec 	andeq	r2, r0, ip, ror #13
    26d0:	630c0000 	movwvs	r0, #49152	; 0xc000
    26d4:	69706d6f 	ldmdbvs	r0!, {r0, r1, r2, r3, r5, r6, r8, sl, fp, sp, lr}^
    26d8:	6f74656c 	svcvs	0x0074656c
    26dc:	006d6172 	rsbeq	r6, sp, r2, ror r1

000026e0 <Code_605>:
    26e0:	481e      	ldr	r0, [pc, #120]	; (275c <Zweitpointertausch+0x4e>)
    26e2:	6800      	ldr	r0, [r0, #0]
    26e4:	491d      	ldr	r1, [pc, #116]	; (275c <Zweitpointertausch+0x4e>)
    26e6:	4288      	cmp	r0, r1
    26e8:	d311      	bcc.n	270e <Zweitpointertausch>
    26ea:	4770      	bx	lr

000026ec <Dictionary_606>:
    26ec:	00002774 	andeq	r2, r0, r4, ror r7
    26f0:	630e0000 	movwvs	r0, #57344	; 0xe000
    26f4:	69706d6f 	ldmdbvs	r0!, {r0, r1, r2, r3, r5, r6, r8, sl, fp, sp, lr}^
    26f8:	6f74656c 	svcvs	0x0074656c
    26fc:	73616c66 	cmnvc	r1, #26112	; 0x6600
    2700:	48160068 	ldmdami	r6, {r3, r5, r6}

00002702 <Code_606>:
    2702:	4816      	ldr	r0, [pc, #88]	; (275c <Zweitpointertausch+0x4e>)
    2704:	6800      	ldr	r0, [r0, #0]
    2706:	4915      	ldr	r1, [pc, #84]	; (275c <Zweitpointertausch+0x4e>)
    2708:	4288      	cmp	r0, r1
    270a:	d200      	bcs.n	270e <Zweitpointertausch>
    270c:	4770      	bx	lr

0000270e <Zweitpointertausch>:
    270e:	4816      	ldr	r0, [pc, #88]	; (2768 <Zweitpointertausch+0x5a>)
    2710:	4916      	ldr	r1, [pc, #88]	; (276c <Zweitpointertausch+0x5e>)
    2712:	6802      	ldr	r2, [r0, #0]
    2714:	680b      	ldr	r3, [r1, #0]
    2716:	600a      	str	r2, [r1, #0]
    2718:	6003      	str	r3, [r0, #0]
    271a:	4810      	ldr	r0, [pc, #64]	; (275c <Zweitpointertausch+0x4e>)
    271c:	4914      	ldr	r1, [pc, #80]	; (2770 <Zweitpointertausch+0x62>)
    271e:	6802      	ldr	r2, [r0, #0]
    2720:	680b      	ldr	r3, [r1, #0]
    2722:	600a      	str	r2, [r1, #0]
    2724:	6003      	str	r3, [r0, #0]
    2726:	480f      	ldr	r0, [pc, #60]	; (2764 <Zweitpointertausch+0x56>)
    2728:	6800      	ldr	r0, [r0, #0]
    272a:	4283      	cmp	r3, r0
    272c:	d315      	bcc.n	275a <Zweitpointertausch+0x4c>
    272e:	b500      	push	{lr}
    2730:	f7ff fa0a 	bl	1b48 <dotgaensefuesschen>
    2734:	61562023 	cmpvs	r6, r3, lsr #32
    2738:	62616972 	rsbvs	r6, r1, #1867776	; 0x1c8000
    273c:	2073656c 	rsbscs	r6, r3, ip, ror #10
    2740:	6c6c6f63 	stclvs	15, cr6, [ip], #-396	; 0xfffffe74
    2744:	20656469 	rsbcs	r6, r5, r9, ror #8
    2748:	68746977 	ldmdavs	r4!, {r0, r1, r2, r4, r5, r6, r8, fp, sp, lr}^
    274c:	63696420 	cmnvs	r9, #536870912	; 0x20000000
    2750:	6e6f6974 	mcrvs	9, 3, r6, cr15, cr4, {3}
    2754:	0a797261 	beq	1e5f0e0 <BIT24+0xe5f0e0>
    2758:	bd00      	pop	{pc}
    275a:	4770      	bx	lr
    275c:	10000000 	andne	r0, r0, r0
    2760:	00010000 	andeq	r0, r1, r0
    2764:	10000024 	andne	r0, r0, r4, lsr #32
    2768:	10000004 	andne	r0, r0, r4
    276c:	1000001c 	andne	r0, r0, ip, lsl r0
    2770:	10000018 	andne	r0, r0, r8, lsl r0

00002774 <Dictionary_608>:
    2774:	00002870 	andeq	r2, r0, r0, ror r8
    2778:	28080000 	stmdacs	r8, {}	; <UNPREDICTABLE>
    277c:	61657263 	cmnvs	r5, r3, ror #4
    2780:	00296574 	eoreq	r6, r9, r4, ror r5

00002784 <Code_608>:
    2784:	b500      	push	{lr}
    2786:	f000 fd09 	bl	319c <Code_832>
    278a:	2e00      	cmp	r6, #0
    278c:	d10e      	bne.n	27ac <Code_608+0x28>
    278e:	f7ff f9db 	bl	1b48 <dotgaensefuesschen>
    2792:	72432015 	subvc	r2, r3, #21
    2796:	65746165 	ldrbvs	r6, [r4, #-357]!	; 0x165
    279a:	65656e20 	strbvs	r6, [r5, #-3616]!	; 0xe20
    279e:	6e207364 	cdpvs	3, 2, cr7, cr0, cr4, {3}
    27a2:	20656d61 	rsbcs	r6, r5, r1, ror #26
    27a6:	f0010a21 			; <UNDEFINED> instruction: 0xf0010a21
    27aa:	f86a 6838 	str??.w	r6, [sl, <undefined>]
    27ae:	3f04      	subs	r7, #4
    27b0:	603e      	str	r6, [r7, #0]
    27b2:	3f04      	subs	r7, #4
    27b4:	6038      	str	r0, [r7, #0]
    27b6:	f000 f9ab 	bl	2b10 <Code_673>
    27ba:	cf40      	ldmia	r7!, {r6}
    27bc:	2e00      	cmp	r6, #0
    27be:	cf40      	ldmia	r7!, {r6}
    27c0:	d011      	beq.n	27e6 <Code_608+0x62>
    27c2:	6838      	ldr	r0, [r7, #0]
    27c4:	3f04      	subs	r7, #4
    27c6:	603e      	str	r6, [r7, #0]
    27c8:	3f04      	subs	r7, #4
    27ca:	6038      	str	r0, [r7, #0]
    27cc:	f7ff f9bc 	bl	1b48 <dotgaensefuesschen>
    27d0:	64655209 	strbtvs	r5, [r5], #-521	; 0x209
    27d4:	6e696665 	cdpvs	6, 6, cr6, cr9, cr5, {3}
    27d8:	f7ff2065 			; <UNDEFINED> instruction: 0xf7ff2065
    27dc:	fa15 f7ff 			; <UNDEFINED> instruction: 0xfa15f7ff
    27e0:	f9b3 2e02 	ldrsh.w	r2, [r3, #3586]	; 0xe02
    27e4:	f7ff000a 			; <UNDEFINED> instruction: 0xf7ff000a
    27e8:	fea1 4892 	mcr2	8, 5, r4, cr1, cr2, {4}
    27ec:	6800      	ldr	r0, [r0, #0]
    27ee:	4991      	ldr	r1, [pc, #580]	; (2a34 <rambuffer_ram+0x44>)
    27f0:	4288      	cmp	r0, r1
    27f2:	d225      	bcs.n	2840 <create_ram>
    27f4:	4890      	ldr	r0, [pc, #576]	; (2a38 <rambuffer_ram+0x48>)
    27f6:	2100      	movs	r1, #0
    27f8:	6001      	str	r1, [r0, #0]
    27fa:	f7ff feab 	bl	2554 <Code_574>
    27fe:	3f04      	subs	r7, #4
    2800:	603e      	str	r6, [r7, #0]
    2802:	260c      	movs	r6, #12
    2804:	f7ff ff26 	bl	2654 <Code_597>
    2808:	f000 fa0c 	bl	2c24 <Code_695>
    280c:	3f04      	subs	r7, #4
    280e:	603e      	str	r6, [r7, #0]
    2810:	2606      	movs	r6, #6
    2812:	f7ff ff1f 	bl	2654 <Code_597>
    2816:	f7fe f949 	bl	aac <Code_136>
    281a:	f7ff fee8 	bl	25ee <Code_589>
    281e:	4887      	ldr	r0, [pc, #540]	; (2a3c <rambuffer_ram+0x4c>)
    2820:	6801      	ldr	r1, [r0, #0]
    2822:	680a      	ldr	r2, [r1, #0]
    2824:	4b86      	ldr	r3, [pc, #536]	; (2a40 <rambuffer_ram+0x50>)
    2826:	429a      	cmp	r2, r3
    2828:	d107      	bne.n	283a <Code_608+0xb6>
    282a:	4a82      	ldr	r2, [pc, #520]	; (2a34 <rambuffer_ram+0x44>)
    282c:	6813      	ldr	r3, [r2, #0]
    282e:	6011      	str	r1, [r2, #0]
    2830:	3f04      	subs	r7, #4
    2832:	603e      	str	r6, [r7, #0]
    2834:	f7ff febc 	bl	25b0 <Code_583>
    2838:	6013      	str	r3, [r2, #0]
    283a:	6006      	str	r6, [r0, #0]
    283c:	cf40      	ldmia	r7!, {r6}
    283e:	e012      	b.n	2866 <create_ende>

00002840 <create_ram>:
    2840:	f000 f9f0 	bl	2c24 <Code_695>
    2844:	487d      	ldr	r0, [pc, #500]	; (2a3c <rambuffer_ram+0x4c>)
    2846:	3f04      	subs	r7, #4
    2848:	603e      	str	r6, [r7, #0]
    284a:	6806      	ldr	r6, [r0, #0]
    284c:	f7ff feb0 	bl	25b0 <Code_583>
    2850:	3f04      	subs	r7, #4
    2852:	603e      	str	r6, [r7, #0]
    2854:	4e7b      	ldr	r6, [pc, #492]	; (2a44 <rambuffer_ram+0x54>)
    2856:	f7ff fe90 	bl	257a <Code_577>
    285a:	4878      	ldr	r0, [pc, #480]	; (2a3c <rambuffer_ram+0x4c>)
    285c:	0031      	movs	r1, r6
    285e:	cf40      	ldmia	r7!, {r6}
    2860:	6001      	str	r1, [r0, #0]
    2862:	f7ff fec4 	bl	25ee <Code_589>

00002866 <create_ende>:
    2866:	4873      	ldr	r0, [pc, #460]	; (2a34 <rambuffer_ram+0x44>)
    2868:	6801      	ldr	r1, [r0, #0]
    286a:	4877      	ldr	r0, [pc, #476]	; (2a48 <rambuffer_ram+0x58>)
    286c:	6001      	str	r1, [r0, #0]
    286e:	bd00      	pop	{pc}

00002870 <Dictionary_628>:
    2870:	00002888 	andeq	r2, r0, r8, lsl #17
    2874:	76080000 	strvc	r0, [r8], -r0
    2878:	61697261 	cmnvs	r9, r1, ror #4
    287c:	00656c62 	rsbeq	r6, r5, r2, ror #24

00002880 <Code_628>:
    2880:	3f04      	subs	r7, #4
    2882:	603e      	str	r6, [r7, #0]
    2884:	2601      	movs	r6, #1
    2886:	e013      	b.n	28b0 <Code_634>

00002888 <Dictionary_631>:
    2888:	000028a0 	andeq	r2, r0, r0, lsr #17
    288c:	32090000 	andcc	r0, r9, #0
    2890:	69726176 	ldmdbvs	r2!, {r1, r2, r4, r5, r6, r8, sp, lr}^
    2894:	656c6261 	strbvs	r6, [ip, #-609]!	; 0x261

00002898 <Code_631>:
    2898:	3f04      	subs	r7, #4
    289a:	603e      	str	r6, [r7, #0]
    289c:	2602      	movs	r6, #2
    289e:	e007      	b.n	28b0 <Code_634>

000028a0 <Dictionary_634>:
    28a0:	00002978 	andeq	r2, r0, r8, ror r9
    28a4:	6e090000 	cdpvs	0, 0, cr0, cr9, cr0, {0}
    28a8:	69726176 	ldmdbvs	r2!, {r1, r2, r4, r5, r6, r8, sp, lr}^
    28ac:	656c6261 	strbvs	r6, [ip, #-609]!	; 0x261

000028b0 <Code_634>:
    28b0:	b500      	push	{lr}
    28b2:	f7ff ff67 	bl	2784 <Code_608>
    28b6:	485f      	ldr	r0, [pc, #380]	; (2a34 <rambuffer_ram+0x44>)
    28b8:	6801      	ldr	r1, [r0, #0]
    28ba:	4a5e      	ldr	r2, [pc, #376]	; (2a34 <rambuffer_ram+0x44>)
    28bc:	4291      	cmp	r1, r2
    28be:	d233      	bcs.n	2928 <variable_ram>
    28c0:	200f      	movs	r0, #15
    28c2:	4006      	ands	r6, r0
    28c4:	00b2      	lsls	r2, r6, #2
    28c6:	4861      	ldr	r0, [pc, #388]	; (2a4c <rambuffer_ram+0x5c>)
    28c8:	6801      	ldr	r1, [r0, #0]
    28ca:	1a89      	subs	r1, r1, r2
    28cc:	4a60      	ldr	r2, [pc, #384]	; (2a50 <rambuffer_ram+0x60>)
    28ce:	4291      	cmp	r1, r2
    28d0:	d20b      	bcs.n	28ea <Code_634+0x3a>
    28d2:	f7ff f939 	bl	1b48 <dotgaensefuesschen>
    28d6:	746f4e0f 	strbtvc	r4, [pc], #-3599	; 28de <Code_634+0x2e>
    28da:	6f6e6520 	svcvs	0x006e6520
    28de:	20686775 	rsbcs	r6, r8, r5, ror r7
    28e2:	0a4d4152 	beq	1352e32 <BIT24+0x352e32>
    28e6:	f000 ffcb 	bl	3880 <Code_955>
    28ea:	6001      	str	r1, [r0, #0]
    28ec:	3f04      	subs	r7, #4
    28ee:	603e      	str	r6, [r7, #0]
    28f0:	000e      	movs	r6, r1
    28f2:	f7ff fb53 	bl	1f9c <Code_466>
    28f6:	3f04      	subs	r7, #4
    28f8:	603e      	str	r6, [r7, #0]
    28fa:	4e56      	ldr	r6, [pc, #344]	; (2a54 <rambuffer_ram+0x64>)
    28fc:	f7ff fe3d 	bl	257a <Code_577>
    2900:	0030      	movs	r0, r6
    2902:	cf40      	ldmia	r7!, {r6}
    2904:	0002      	movs	r2, r0
    2906:	2800      	cmp	r0, #0
    2908:	d005      	beq.n	2916 <Code_634+0x66>
    290a:	600e      	str	r6, [r1, #0]
    290c:	3104      	adds	r1, #4
    290e:	f7ff fe4f 	bl	25b0 <Code_583>
    2912:	3801      	subs	r0, #1
    2914:	d1f9      	bne.n	290a <Code_634+0x5a>
    2916:	3f04      	subs	r7, #4
    2918:	603e      	str	r6, [r7, #0]
    291a:	2680      	movs	r6, #128	; 0x80
    291c:	4316      	orrs	r6, r2
    291e:	f7ff fdbd 	bl	249c <Code_567>
    2922:	f7ff fd88 	bl	2436 <Code_561>
    2926:	bd00      	pop	{pc}

00002928 <variable_ram>:
    2928:	f000 f97c 	bl	2c24 <Code_695>
    292c:	2002      	movs	r0, #2
    292e:	4006      	ands	r6, r0
    2930:	cf40      	ldmia	r7!, {r6}
    2932:	d104      	bne.n	293e <variable_ram+0x16>
    2934:	3f04      	subs	r7, #4
    2936:	603e      	str	r6, [r7, #0]
    2938:	2636      	movs	r6, #54	; 0x36
    293a:	f7ff fe1e 	bl	257a <Code_577>
    293e:	3f04      	subs	r7, #4
    2940:	603e      	str	r6, [r7, #0]
    2942:	4e45      	ldr	r6, [pc, #276]	; (2a58 <rambuffer_ram+0x68>)
    2944:	f7ff fe43 	bl	25ce <Code_586>
    2948:	3f04      	subs	r7, #4
    294a:	603e      	str	r6, [r7, #0]
    294c:	4e43      	ldr	r6, [pc, #268]	; (2a5c <rambuffer_ram+0x6c>)
    294e:	f7ff fe3e 	bl	25ce <Code_586>
    2952:	3f04      	subs	r7, #4
    2954:	603e      	str	r6, [r7, #0]
    2956:	4e3f      	ldr	r6, [pc, #252]	; (2a54 <rambuffer_ram+0x64>)
    2958:	f7ff fe0f 	bl	257a <Code_577>
    295c:	0030      	movs	r0, r6
    295e:	cf40      	ldmia	r7!, {r6}
    2960:	2800      	cmp	r0, #0
    2962:	d003      	beq.n	296c <variable_ram+0x44>
    2964:	f7ff fe24 	bl	25b0 <Code_583>
    2968:	3801      	subs	r0, #1
    296a:	d1fb      	bne.n	2964 <variable_ram+0x3c>
    296c:	f7ff fccb 	bl	2306 <Code_532>
    2970:	f7ff fd61 	bl	2436 <Code_561>
    2974:	bd00      	pop	{pc}
    2976:	46c0      	nop			; (mov r8, r8)

00002978 <Dictionary_651>:
    2978:	00002a64 	andeq	r2, r0, r4, ror #20
    297c:	62070000 	andvs	r0, r7, #0
    2980:	65666675 	strbvs	r6, [r6, #-1653]!	; 0x675
    2984:	b5003a72 	strlt	r3, [r0, #-2674]	; 0xa72

00002986 <Code_651>:
    2986:	b500      	push	{lr}
    2988:	f7ff fefc 	bl	2784 <Code_608>
    298c:	2001      	movs	r0, #1
    298e:	4030      	ands	r0, r6
    2990:	1836      	adds	r6, r6, r0
    2992:	2002      	movs	r0, #2
    2994:	4030      	ands	r0, r6
    2996:	1836      	adds	r6, r6, r0
    2998:	4826      	ldr	r0, [pc, #152]	; (2a34 <rambuffer_ram+0x44>)
    299a:	6801      	ldr	r1, [r0, #0]
    299c:	4a25      	ldr	r2, [pc, #148]	; (2a34 <rambuffer_ram+0x44>)
    299e:	4291      	cmp	r1, r2
    29a0:	d226      	bcs.n	29f0 <rambuffer_ram>
    29a2:	482a      	ldr	r0, [pc, #168]	; (2a4c <rambuffer_ram+0x5c>)
    29a4:	6801      	ldr	r1, [r0, #0]
    29a6:	1b89      	subs	r1, r1, r6
    29a8:	4a29      	ldr	r2, [pc, #164]	; (2a50 <rambuffer_ram+0x60>)
    29aa:	4291      	cmp	r1, r2
    29ac:	d20b      	bcs.n	29c6 <Code_651+0x40>
    29ae:	f7ff f8cb 	bl	1b48 <dotgaensefuesschen>
    29b2:	746f4e0f 	strbtvc	r4, [pc], #-3599	; 29ba <Code_651+0x34>
    29b6:	6f6e6520 	svcvs	0x006e6520
    29ba:	20686775 	rsbcs	r6, r8, r5, ror r7
    29be:	0a4d4152 	beq	1352f0e <BIT24+0x352f0e>
    29c2:	f000 ff5d 	bl	3880 <Code_955>
    29c6:	6001      	str	r1, [r0, #0]
    29c8:	3f04      	subs	r7, #4
    29ca:	603e      	str	r6, [r7, #0]
    29cc:	000e      	movs	r6, r1
    29ce:	f7ff fae5 	bl	1f9c <Code_466>
    29d2:	3f04      	subs	r7, #4
    29d4:	603e      	str	r6, [r7, #0]
    29d6:	4e1f      	ldr	r6, [pc, #124]	; (2a54 <rambuffer_ram+0x64>)
    29d8:	f7ff fdcf 	bl	257a <Code_577>
    29dc:	f7ff fde8 	bl	25b0 <Code_583>
    29e0:	3f04      	subs	r7, #4
    29e2:	603e      	str	r6, [r7, #0]
    29e4:	4e1e      	ldr	r6, [pc, #120]	; (2a60 <rambuffer_ram+0x70>)
    29e6:	f7ff fd59 	bl	249c <Code_567>
    29ea:	f7ff fd24 	bl	2436 <Code_561>
    29ee:	bd00      	pop	{pc}

000029f0 <rambuffer_ram>:
    29f0:	f000 f918 	bl	2c24 <Code_695>
    29f4:	2002      	movs	r0, #2
    29f6:	4006      	ands	r6, r0
    29f8:	cf40      	ldmia	r7!, {r6}
    29fa:	d104      	bne.n	2a06 <rambuffer_ram+0x16>
    29fc:	3f04      	subs	r7, #4
    29fe:	603e      	str	r6, [r7, #0]
    2a00:	2636      	movs	r6, #54	; 0x36
    2a02:	f7ff fdba 	bl	257a <Code_577>
    2a06:	3f04      	subs	r7, #4
    2a08:	603e      	str	r6, [r7, #0]
    2a0a:	4e13      	ldr	r6, [pc, #76]	; (2a58 <rambuffer_ram+0x68>)
    2a0c:	f7ff fddf 	bl	25ce <Code_586>
    2a10:	3f04      	subs	r7, #4
    2a12:	603e      	str	r6, [r7, #0]
    2a14:	4e11      	ldr	r6, [pc, #68]	; (2a5c <rambuffer_ram+0x6c>)
    2a16:	f7ff fdda 	bl	25ce <Code_586>
    2a1a:	3f04      	subs	r7, #4
    2a1c:	603e      	str	r6, [r7, #0]
    2a1e:	4e0d      	ldr	r6, [pc, #52]	; (2a54 <rambuffer_ram+0x64>)
    2a20:	f7ff fdab 	bl	257a <Code_577>
    2a24:	f7ff fe16 	bl	2654 <Code_597>
    2a28:	f7ff fc6d 	bl	2306 <Code_532>
    2a2c:	f7ff fd03 	bl	2436 <Code_561>
    2a30:	bd00      	pop	{pc}
    2a32:	00000000 	andeq	r0, r0, r0
    2a36:	00201000 	eoreq	r1, r0, r0
    2a3a:	00041000 	andeq	r1, r4, r0
    2a3e:	ffff1000 			; <UNDEFINED> instruction: 0xffff1000
    2a42:	ffffffff 			; <UNDEFINED> instruction: 0xffffffff
    2a46:	00140000 	andseq	r0, r4, r0
    2a4a:	00241000 	eoreq	r1, r4, r0
    2a4e:	06d41000 	ldrbeq	r1, [r4], r0
    2a52:	47701000 	ldrbmi	r1, [r0, -r0]!
    2a56:	603e0000 	eorsvs	r0, lr, r0
    2a5a:	36023f04 	strcc	r3, [r2], -r4, lsl #30
    2a5e:	0140467e 	hvceq	1134	; 0x46e
	...

00002a64 <Dictionary_666>:
    2a64:	00002a94 	muleq	r0, r4, sl
    2a68:	640f0000 	strvs	r0, [pc], #0	; 2a70 <Dictionary_666+0xc>
    2a6c:	69746369 	ldmdbvs	r4!, {r0, r3, r5, r6, r8, r9, sp, lr}^
    2a70:	72616e6f 	rsbvc	r6, r1, #1776	; 0x6f0
    2a74:	61747379 	cmnvs	r4, r9, ror r3
    2a78:	48eb7472 	stmiami	fp!, {r1, r4, r5, r6, sl, ip, sp, lr}^

00002a7a <Code_666>:
    2a7a:	48eb      	ldr	r0, [pc, #940]	; (2e28 <Code_742+0x10>)
    2a7c:	6800      	ldr	r0, [r0, #0]
    2a7e:	49ea      	ldr	r1, [pc, #936]	; (2e28 <Code_742+0x10>)
    2a80:	3f04      	subs	r7, #4
    2a82:	603e      	str	r6, [r7, #0]
    2a84:	4288      	cmp	r0, r1
    2a86:	d201      	bcs.n	2a8c <Code_666+0x12>
    2a88:	4ee8      	ldr	r6, [pc, #928]	; (2e2c <Code_742+0x14>)
    2a8a:	4770      	bx	lr
    2a8c:	4ee8      	ldr	r6, [pc, #928]	; (2e30 <Code_742+0x18>)
    2a8e:	6836      	ldr	r6, [r6, #0]
    2a90:	4770      	bx	lr
    2a92:	46c0      	nop			; (mov r8, r8)

00002a94 <Dictionary_668>:
    2a94:	00002ad0 	ldrdeq	r2, [r0], -r0
    2a98:	640e0000 	strvs	r0, [lr]
    2a9c:	69746369 	ldmdbvs	r4!, {r0, r3, r5, r6, r8, r9, sp, lr}^
    2aa0:	72616e6f 	rsbvc	r6, r1, #1776	; 0x6f0
    2aa4:	78656e79 	stmdavc	r5!, {r0, r3, r4, r5, r6, r9, sl, fp, sp, lr}^
    2aa8:	b5030074 	strlt	r0, [r3, #-116]	; 0x74

00002aaa <Code_668>:
    2aaa:	b503      	push	{r0, r1, lr}
    2aac:	6831      	ldr	r1, [r6, #0]
    2aae:	48e1      	ldr	r0, [pc, #900]	; (2e34 <Code_742+0x1c>)
    2ab0:	4281      	cmp	r1, r0
    2ab2:	d007      	beq.n	2ac4 <Code_668+0x1a>
    2ab4:	7988      	ldrb	r0, [r1, #6]
    2ab6:	28ff      	cmp	r0, #255	; 0xff
    2ab8:	d004      	beq.n	2ac4 <Code_668+0x1a>
    2aba:	000e      	movs	r6, r1
    2abc:	3f04      	subs	r7, #4
    2abe:	603e      	str	r6, [r7, #0]
    2ac0:	2600      	movs	r6, #0
    2ac2:	bd03      	pop	{r0, r1, pc}
    2ac4:	3f04      	subs	r7, #4
    2ac6:	603e      	str	r6, [r7, #0]
    2ac8:	2600      	movs	r6, #0
    2aca:	43f6      	mvns	r6, r6
    2acc:	bd03      	pop	{r0, r1, pc}
    2ace:	46c0      	nop			; (mov r8, r8)

00002ad0 <Dictionary_672>:
    2ad0:	00002b04 	andeq	r2, r0, r4, lsl #22
    2ad4:	730a0000 	movwvc	r0, #40960	; 0xa000
    2ad8:	7370696b 	cmnvc	r0, #1753088	; 0x1ac000
    2adc:	6e697274 	mcrvs	2, 3, r7, cr9, cr4, {3}
    2ae0:	78310067 	ldmdavc	r1!, {r0, r1, r2, r5, r6}

00002ae2 <Code_672>:
    2ae2:	7831      	ldrb	r1, [r6, #0]
    2ae4:	3101      	adds	r1, #1
    2ae6:	2201      	movs	r2, #1
    2ae8:	400a      	ands	r2, r1
    2aea:	1889      	adds	r1, r1, r2
    2aec:	1876      	adds	r6, r6, r1
    2aee:	4770      	bx	lr

00002af0 <skipstring>:
    2af0:	b406      	push	{r1, r2}
    2af2:	7801      	ldrb	r1, [r0, #0]
    2af4:	3101      	adds	r1, #1
    2af6:	2201      	movs	r2, #1
    2af8:	400a      	ands	r2, r1
    2afa:	1889      	adds	r1, r1, r2
    2afc:	1840      	adds	r0, r0, r1
    2afe:	bc06      	pop	{r1, r2}
    2b00:	4770      	bx	lr
    2b02:	46c0      	nop			; (mov r8, r8)

00002b04 <Dictionary_673>:
    2b04:	00002b84 	andeq	r2, r0, r4, lsl #23
    2b08:	66040000 	strvs	r0, [r4], -r0
    2b0c:	00646e69 	rsbeq	r6, r4, r9, ror #28

00002b10 <Code_673>:
    2b10:	b53f      	push	{r0, r1, r2, r3, r4, r5, lr}
    2b12:	2200      	movs	r2, #0
    2b14:	2300      	movs	r3, #0
    2b16:	0035      	movs	r5, r6
    2b18:	cf40      	ldmia	r7!, {r6}
    2b1a:	0034      	movs	r4, r6
    2b1c:	cf40      	ldmia	r7!, {r6}
    2b1e:	f7ff ffac 	bl	2a7a <Code_666>
    2b22:	48c5      	ldr	r0, [pc, #788]	; (2e38 <Code_742+0x20>)
    2b24:	88b1      	ldrh	r1, [r6, #4]
    2b26:	4288      	cmp	r0, r1
    2b28:	d017      	beq.n	2b5a <Code_673+0x4a>
    2b2a:	3f04      	subs	r7, #4
    2b2c:	603e      	str	r6, [r7, #0]
    2b2e:	3606      	adds	r6, #6
    2b30:	f7ff f84a 	bl	1bc8 <Code_383>
    2b34:	3f04      	subs	r7, #4
    2b36:	603e      	str	r6, [r7, #0]
    2b38:	0026      	movs	r6, r4
    2b3a:	3f04      	subs	r7, #4
    2b3c:	603e      	str	r6, [r7, #0]
    2b3e:	002e      	movs	r6, r5
    2b40:	f7fe ff75 	bl	1a2e <Code_345>
    2b44:	2e00      	cmp	r6, #0
    2b46:	cf40      	ldmia	r7!, {r6}
    2b48:	d007      	beq.n	2b5a <Code_673+0x4a>
    2b4a:	1db0      	adds	r0, r6, #6
    2b4c:	f7ff ffd0 	bl	2af0 <skipstring>
    2b50:	0002      	movs	r2, r0
    2b52:	000b      	movs	r3, r1
    2b54:	48b4      	ldr	r0, [pc, #720]	; (2e28 <Code_742+0x10>)
    2b56:	4282      	cmp	r2, r0
    2b58:	d204      	bcs.n	2b64 <Code_673+0x54>
    2b5a:	f7ff ffa6 	bl	2aaa <Code_668>
    2b5e:	0030      	movs	r0, r6
    2b60:	cf40      	ldmia	r7!, {r6}
    2b62:	d0de      	beq.n	2b22 <Code_673+0x12>
    2b64:	0016      	movs	r6, r2
    2b66:	3f04      	subs	r7, #4
    2b68:	603e      	str	r6, [r7, #0]
    2b6a:	001e      	movs	r6, r3
    2b6c:	bd3f      	pop	{r0, r1, r2, r3, r4, r5, pc}

00002b6e <find_not_found>:
    2b6e:	b500      	push	{lr}
    2b70:	0031      	movs	r1, r6
    2b72:	6838      	ldr	r0, [r7, #0]
    2b74:	f7ff ffcc 	bl	2b10 <Code_673>
    2b78:	683a      	ldr	r2, [r7, #0]
    2b7a:	2a00      	cmp	r2, #0
    2b7c:	d101      	bne.n	2b82 <find_not_found+0x14>
    2b7e:	f000 fd77 	bl	3670 <not_found_addr_r0_len_r1>
    2b82:	bd00      	pop	{pc}

00002b84 <Dictionary_686>:
    2b84:	00002be0 	andeq	r2, r0, r0, ror #23
    2b88:	63060000 	movwvs	r0, #24576	; 0x6000
    2b8c:	706d756a 	rsbvc	r7, sp, sl, ror #10
    2b90:	0032002c 	eorseq	r0, r2, ip, lsr #32

00002b92 <Code_686>:
    2b92:	0032      	movs	r2, r6
    2b94:	cf40      	ldmia	r7!, {r6}
    2b96:	0031      	movs	r1, r6
    2b98:	cf40      	ldmia	r7!, {r6}
    2b9a:	1b8b      	subs	r3, r1, r6
    2b9c:	3b04      	subs	r3, #4
    2b9e:	49a7      	ldr	r1, [pc, #668]	; (2e3c <Code_742+0x24>)
    2ba0:	4019      	ands	r1, r3
    2ba2:	2900      	cmp	r1, #0
    2ba4:	d00d      	beq.n	2bc2 <jump_too_far+0x16>
    2ba6:	48a6      	ldr	r0, [pc, #664]	; (2e40 <Code_742+0x28>)
    2ba8:	4281      	cmp	r1, r0
    2baa:	d00a      	beq.n	2bc2 <jump_too_far+0x16>

00002bac <jump_too_far>:
    2bac:	f7fe ffcc 	bl	1b48 <dotgaensefuesschen>
    2bb0:	6d754a0d 	vldmdbvs	r5!, {s9-s21}
    2bb4:	6f742070 	svcvs	0x00742070
    2bb8:	6166206f 	cmnvs	r6, pc, rrx
    2bbc:	f0000a72 			; <UNDEFINED> instruction: 0xf0000a72
    2bc0:	fe5f 105b 	mrc2	0, 2, r1, cr15, cr11, {2}
    2bc4:	21ff      	movs	r1, #255	; 0xff
    2bc6:	400b      	ands	r3, r1
    2bc8:	4313      	orrs	r3, r2
    2bca:	0030      	movs	r0, r6
    2bcc:	001e      	movs	r6, r3

00002bce <sprungbefehl_einfuegen>:
    2bce:	b500      	push	{lr}
    2bd0:	4a95      	ldr	r2, [pc, #596]	; (2e28 <Code_742+0x10>)
    2bd2:	6813      	ldr	r3, [r2, #0]
    2bd4:	6010      	str	r0, [r2, #0]
    2bd6:	f7ff fcd0 	bl	257a <Code_577>
    2bda:	6013      	str	r3, [r2, #0]
    2bdc:	bd00      	pop	{pc}
    2bde:	46c0      	nop			; (mov r8, r8)

00002be0 <Dictionary_690>:
    2be0:	00002c18 	andeq	r2, r0, r8, lsl ip
    2be4:	6a050000 	bvs	142bec <BIT20+0x42bec>
    2be8:	2c706d75 	ldclcs	13, cr6, [r0], #-468	; 0xfffffe2c

00002bec <Code_690>:
    2bec:	0031      	movs	r1, r6
    2bee:	cf40      	ldmia	r7!, {r6}
    2bf0:	0030      	movs	r0, r6
    2bf2:	cf40      	ldmia	r7!, {r6}
    2bf4:	1a0b      	subs	r3, r1, r0
    2bf6:	3b04      	subs	r3, #4
    2bf8:	4992      	ldr	r1, [pc, #584]	; (2e44 <Code_742+0x2c>)
    2bfa:	4019      	ands	r1, r3
    2bfc:	2900      	cmp	r1, #0
    2bfe:	d002      	beq.n	2c06 <Code_690+0x1a>
    2c00:	4a91      	ldr	r2, [pc, #580]	; (2e48 <Code_742+0x30>)
    2c02:	4291      	cmp	r1, r2
    2c04:	d1d2      	bne.n	2bac <jump_too_far>
    2c06:	105b      	asrs	r3, r3, #1
    2c08:	4a90      	ldr	r2, [pc, #576]	; (2e4c <Code_742+0x34>)
    2c0a:	4013      	ands	r3, r2
    2c0c:	4a90      	ldr	r2, [pc, #576]	; (2e50 <Code_742+0x38>)
    2c0e:	4313      	orrs	r3, r2
    2c10:	3f04      	subs	r7, #4
    2c12:	603e      	str	r6, [r7, #0]
    2c14:	001e      	movs	r6, r3
    2c16:	e7da      	b.n	2bce <sprungbefehl_einfuegen>

00002c18 <Dictionary_695>:
    2c18:	00002c30 	andeq	r2, r0, r0, lsr ip
    2c1c:	68040000 	stmdavs	r4, {}	; <UNPREDICTABLE>
    2c20:	00657265 	rsbeq	r7, r5, r5, ror #4

00002c24 <Code_695>:
    2c24:	3f04      	subs	r7, #4
    2c26:	603e      	str	r6, [r7, #0]
    2c28:	4e7f      	ldr	r6, [pc, #508]	; (2e28 <Code_742+0x10>)
    2c2a:	6836      	ldr	r6, [r6, #0]
    2c2c:	4770      	bx	lr
    2c2e:	46c0      	nop			; (mov r8, r8)

00002c30 <Dictionary_697>:
    2c30:	00002d20 	andeq	r2, r0, r0, lsr #26
    2c34:	660d0000 	strvs	r0, [sp], -r0
    2c38:	6873616c 	ldmdavs	r3!, {r2, r3, r5, r6, r8, sp, lr}^
    2c3c:	2d726176 	ldfcse	f6, [r2, #-472]!	; 0xfffffe28
    2c40:	65726568 	ldrbvs	r6, [r2, #-1384]!	; 0x568

00002c44 <Code_697>:
    2c44:	3f04      	subs	r7, #4
    2c46:	603e      	str	r6, [r7, #0]
    2c48:	4e82      	ldr	r6, [pc, #520]	; (2e54 <Code_742+0x3c>)
    2c4a:	6836      	ldr	r6, [r6, #0]
    2c4c:	4770      	bx	lr

00002c4e <nullprobekomma>:
    2c4e:	b500      	push	{lr}
    2c50:	3f04      	subs	r7, #4
    2c52:	603e      	str	r6, [r7, #0]
    2c54:	4e80      	ldr	r6, [pc, #512]	; (2e58 <Code_742+0x40>)
    2c56:	f7ff fc90 	bl	257a <Code_577>
    2c5a:	3f04      	subs	r7, #4
    2c5c:	603e      	str	r6, [r7, #0]
    2c5e:	4e7f      	ldr	r6, [pc, #508]	; (2e5c <Code_742+0x44>)
    2c60:	f7ff fc8b 	bl	257a <Code_577>
    2c64:	bd00      	pop	{pc}

00002c66 <branch_r>:
    2c66:	e7dd      	b.n	2c24 <Code_695>

00002c68 <r_branch_jne>:
    2c68:	b500      	push	{lr}
    2c6a:	f000 f837 	bl	2cdc <branch_v>
    2c6e:	6839      	ldr	r1, [r7, #0]
    2c70:	603e      	str	r6, [r7, #0]
    2c72:	460e      	mov	r6, r1
    2c74:	3f04      	subs	r7, #4
    2c76:	603e      	str	r6, [r7, #0]
    2c78:	4e79      	ldr	r6, [pc, #484]	; (2e60 <Code_742+0x48>)
    2c7a:	f7ff ff8a 	bl	2b92 <Code_686>
    2c7e:	bd00      	pop	{pc}

00002c80 <r_branch_jvc>:
    2c80:	b500      	push	{lr}
    2c82:	f000 f82b 	bl	2cdc <branch_v>
    2c86:	6839      	ldr	r1, [r7, #0]
    2c88:	603e      	str	r6, [r7, #0]
    2c8a:	460e      	mov	r6, r1
    2c8c:	3f04      	subs	r7, #4
    2c8e:	603e      	str	r6, [r7, #0]
    2c90:	4e74      	ldr	r6, [pc, #464]	; (2e64 <Code_742+0x4c>)
    2c92:	f7ff ff7e 	bl	2b92 <Code_686>
    2c96:	bd00      	pop	{pc}

00002c98 <r_nullbranch>:
    2c98:	b500      	push	{lr}
    2c9a:	f7ff ffd8 	bl	2c4e <nullprobekomma>
    2c9e:	f000 f81d 	bl	2cdc <branch_v>
    2ca2:	6839      	ldr	r1, [r7, #0]
    2ca4:	603e      	str	r6, [r7, #0]
    2ca6:	460e      	mov	r6, r1
    2ca8:	3f04      	subs	r7, #4
    2caa:	603e      	str	r6, [r7, #0]
    2cac:	4e6e      	ldr	r6, [pc, #440]	; (2e68 <Code_742+0x50>)
    2cae:	f7ff ff70 	bl	2b92 <Code_686>
    2cb2:	bd00      	pop	{pc}

00002cb4 <r_branch>:
    2cb4:	b500      	push	{lr}
    2cb6:	f000 f811 	bl	2cdc <branch_v>
    2cba:	6839      	ldr	r1, [r7, #0]
    2cbc:	603e      	str	r6, [r7, #0]
    2cbe:	460e      	mov	r6, r1
    2cc0:	f7ff ff94 	bl	2bec <Code_690>
    2cc4:	bd00      	pop	{pc}

00002cc6 <nullbranch_v>:
    2cc6:	b500      	push	{lr}
    2cc8:	f7ff ffc1 	bl	2c4e <nullprobekomma>
    2ccc:	f7ff ffaa 	bl	2c24 <Code_695>
    2cd0:	3f04      	subs	r7, #4
    2cd2:	603e      	str	r6, [r7, #0]
    2cd4:	2602      	movs	r6, #2
    2cd6:	f7ff fcbd 	bl	2654 <Code_597>
    2cda:	bd00      	pop	{pc}

00002cdc <branch_v>:
    2cdc:	b500      	push	{lr}
    2cde:	f7ff ffa1 	bl	2c24 <Code_695>
    2ce2:	3f04      	subs	r7, #4
    2ce4:	603e      	str	r6, [r7, #0]
    2ce6:	2602      	movs	r6, #2
    2ce8:	f7ff fcb4 	bl	2654 <Code_597>
    2cec:	bd00      	pop	{pc}

00002cee <v_branch>:
    2cee:	b500      	push	{lr}
    2cf0:	f7ff ff98 	bl	2c24 <Code_695>
    2cf4:	f7ff ff7a 	bl	2bec <Code_690>
    2cf8:	bd00      	pop	{pc}

00002cfa <v_nullbranch>:
    2cfa:	b500      	push	{lr}
    2cfc:	f7ff ff92 	bl	2c24 <Code_695>
    2d00:	3f04      	subs	r7, #4
    2d02:	603e      	str	r6, [r7, #0]
    2d04:	4e58      	ldr	r6, [pc, #352]	; (2e68 <Code_742+0x50>)
    2d06:	f7ff ff44 	bl	2b92 <Code_686>
    2d0a:	bd00      	pop	{pc}

00002d0c <v_casebranch>:
    2d0c:	b500      	push	{lr}
    2d0e:	f7ff ff89 	bl	2c24 <Code_695>
    2d12:	3f04      	subs	r7, #4
    2d14:	603e      	str	r6, [r7, #0]
    2d16:	4e52      	ldr	r6, [pc, #328]	; (2e60 <Code_742+0x48>)
    2d18:	f7ff ff3b 	bl	2b92 <Code_686>
    2d1c:	bd00      	pop	{pc}
    2d1e:	46c0      	nop			; (mov r8, r8)

00002d20 <Dictionary_721>:
    2d20:	00002d5c 	andeq	r2, r0, ip, asr sp
    2d24:	74040030 	strvc	r0, [r4], #-48	; 0x30
    2d28:	006e6568 	rsbeq	r6, lr, r8, ror #10

00002d2c <Code_721>:
    2d2c:	2e05      	cmp	r6, #5
    2d2e:	d101      	bne.n	2d34 <Code_721+0x8>
    2d30:	cf40      	ldmia	r7!, {r6}
    2d32:	e7dc      	b.n	2cee <v_branch>
    2d34:	2e02      	cmp	r6, #2
    2d36:	d101      	bne.n	2d3c <strukturen_passen_nicht>
    2d38:	cf40      	ldmia	r7!, {r6}
    2d3a:	e7de      	b.n	2cfa <v_nullbranch>

00002d3c <strukturen_passen_nicht>:
    2d3c:	f7fe ff04 	bl	1b48 <dotgaensefuesschen>
    2d40:	72745317 	rsbsvc	r5, r4, #1543503872	; 0x5c000000
    2d44:	75746375 	ldrbvc	r6, [r4, #-885]!	; 0x375
    2d48:	20736572 	rsbscs	r6, r3, r2, ror r5
    2d4c:	276e6f64 	strbcs	r6, [lr, -r4, ror #30]!
    2d50:	616d2074 	smcvs	53764	; 0xd204
    2d54:	0a686374 	beq	1a1bb2c <BIT24+0xa1bb2c>
    2d58:	f000 fd92 	bl	3880 <Code_955>

00002d5c <Dictionary_725>:
    2d5c:	00002d88 	andeq	r2, r0, r8, lsl #27
    2d60:	65040030 	strvs	r0, [r4, #-48]	; 0x30
    2d64:	0065736c 	rsbeq	r7, r5, ip, ror #6

00002d68 <Code_725>:
    2d68:	b500      	push	{lr}
    2d6a:	2e02      	cmp	r6, #2
    2d6c:	d1e6      	bne.n	2d3c <strukturen_passen_nicht>
    2d6e:	cf40      	ldmia	r7!, {r6}
    2d70:	f7ff ffb4 	bl	2cdc <branch_v>
    2d74:	6839      	ldr	r1, [r7, #0]
    2d76:	603e      	str	r6, [r7, #0]
    2d78:	460e      	mov	r6, r1
    2d7a:	f7ff ffbe 	bl	2cfa <v_nullbranch>
    2d7e:	3f04      	subs	r7, #4
    2d80:	603e      	str	r6, [r7, #0]
    2d82:	2605      	movs	r6, #5
    2d84:	bd00      	pop	{pc}
    2d86:	46c0      	nop			; (mov r8, r8)

00002d88 <Dictionary_730>:
    2d88:	00002da0 	andeq	r2, r0, r0, lsr #27
    2d8c:	69020030 	stmdbvs	r2, {r4, r5}
    2d90:	b5000066 	strlt	r0, [r0, #-102]	; 0x66

00002d92 <Code_730>:
    2d92:	b500      	push	{lr}
    2d94:	f7ff ff97 	bl	2cc6 <nullbranch_v>
    2d98:	3f04      	subs	r7, #4
    2d9a:	603e      	str	r6, [r7, #0]
    2d9c:	2602      	movs	r6, #2
    2d9e:	bd00      	pop	{pc}

00002da0 <Dictionary_733>:
    2da0:	00002dc8 	andeq	r2, r0, r8, asr #27
    2da4:	72060030 	andvc	r0, r6, #48	; 0x30
    2da8:	61657065 	cmnvs	r5, r5, rrx
    2dac:	2e040074 	mcrcs	0, 0, r0, cr4, cr4, {3}

00002dae <Code_733>:
    2dae:	2e04      	cmp	r6, #4
    2db0:	d1c4      	bne.n	2d3c <strukturen_passen_nicht>
    2db2:	cf40      	ldmia	r7!, {r6}
    2db4:	6839      	ldr	r1, [r7, #0]
    2db6:	603e      	str	r6, [r7, #0]
    2db8:	460e      	mov	r6, r1
    2dba:	b500      	push	{lr}
    2dbc:	f7ff ff7a 	bl	2cb4 <r_branch>
    2dc0:	f7ff ff9b 	bl	2cfa <v_nullbranch>
    2dc4:	bd00      	pop	{pc}
    2dc6:	46c0      	nop			; (mov r8, r8)

00002dc8 <Dictionary_736>:
    2dc8:	00002de4 	andeq	r2, r0, r4, ror #27
    2dcc:	77050030 	smladxvc	r5, r0, r0, r0
    2dd0:	656c6968 	strbvs	r6, [ip, #-2408]!	; 0x968

00002dd4 <Code_736>:
    2dd4:	2e01      	cmp	r6, #1
    2dd6:	d1b1      	bne.n	2d3c <strukturen_passen_nicht>
    2dd8:	cf40      	ldmia	r7!, {r6}
    2dda:	b500      	push	{lr}
    2ddc:	f7ff ffd9 	bl	2d92 <Code_730>
    2de0:	3602      	adds	r6, #2
    2de2:	bd00      	pop	{pc}

00002de4 <Dictionary_738>:
    2de4:	00002df8 	strdeq	r2, [r0], -r8
    2de8:	75050030 	strvc	r0, [r5, #-48]	; 0x30
    2dec:	6c69746e 	cfstrdvs	mvd7, [r9], #-440	; 0xfffffe48

00002df0 <Code_738>:
    2df0:	2e01      	cmp	r6, #1
    2df2:	d1a3      	bne.n	2d3c <strukturen_passen_nicht>
    2df4:	cf40      	ldmia	r7!, {r6}
    2df6:	e74f      	b.n	2c98 <r_nullbranch>

00002df8 <Dictionary_740>:
    2df8:	00002e0c 	andeq	r2, r0, ip, lsl #28
    2dfc:	61050030 	tstvs	r5, r0, lsr r0
    2e00:	6e696167 	powvsez	f6, f1, f7

00002e04 <Code_740>:
    2e04:	2e01      	cmp	r6, #1
    2e06:	d199      	bne.n	2d3c <strukturen_passen_nicht>
    2e08:	cf40      	ldmia	r7!, {r6}
    2e0a:	e753      	b.n	2cb4 <r_branch>

00002e0c <Dictionary_742>:
    2e0c:	00002e6c 	andeq	r2, r0, ip, ror #28
    2e10:	62050030 	andvs	r0, r5, #48	; 0x30
    2e14:	6e696765 	cdpvs	7, 6, cr6, cr9, cr5, {3}

00002e18 <Code_742>:
    2e18:	b500      	push	{lr}
    2e1a:	f7ff ff24 	bl	2c66 <branch_r>
    2e1e:	3f04      	subs	r7, #4
    2e20:	603e      	str	r6, [r7, #0]
    2e22:	2601      	movs	r6, #1
    2e24:	bd00      	pop	{pc}
    2e26:	00000000 	andeq	r0, r0, r0
    2e2a:	03001000 	movweq	r1, #0
    2e2e:	00040000 	andeq	r0, r4, r0
    2e32:	ffff1000 			; <UNDEFINED> instruction: 0xffff1000
    2e36:	ffffffff 			; <UNDEFINED> instruction: 0xffffffff
    2e3a:	ff010000 			; <UNDEFINED> instruction: 0xff010000
    2e3e:	ff00ffff 			; <UNDEFINED> instruction: 0xff00ffff
    2e42:	f801ffff 			; <UNDEFINED> instruction: 0xf801ffff
    2e46:	f800ffff 			; <UNDEFINED> instruction: 0xf800ffff
    2e4a:	07ffffff 			; <UNDEFINED> instruction: 0x07ffffff
    2e4e:	e0000000 	and	r0, r0, r0
    2e52:	00240000 	eoreq	r0, r4, r0
    2e56:	2e001000 	cdpcs	0, 0, cr1, cr0, cr0, {0}
    2e5a:	cf400000 	svcgt	0x00400000
    2e5e:	d1000000 	mrsle	r0, (UNDEF: 0)
    2e62:	d7000000 	strle	r0, [r0, -r0]
    2e66:	d0000000 	andle	r0, r0, r0
	...

00002e6c <Dictionary_745>:
    2e6c:	00002e7c 	andeq	r2, r0, ip, ror lr
    2e70:	6b010020 	blvs	42ef8 <BIT18+0x2ef8>

00002e74 <Code_745>:
    2e74:	3f04      	subs	r7, #4
    2e76:	603e      	str	r6, [r7, #0]
    2e78:	9e02      	ldr	r6, [sp, #8]
    2e7a:	4770      	bx	lr

00002e7c <Dictionary_747>:
    2e7c:	00002e8c 	andeq	r2, r0, ip, lsl #29
    2e80:	6a010020 	bvs	42f08 <BIT18+0x2f08>

00002e84 <Code_747>:
    2e84:	3f04      	subs	r7, #4
    2e86:	603e      	str	r6, [r7, #0]
    2e88:	9e00      	ldr	r6, [sp, #0]
    2e8a:	4770      	bx	lr

00002e8c <Dictionary_749>:
    2e8c:	00002e9c 	muleq	r0, ip, lr
    2e90:	69010020 	stmdbvs	r1, {r5}

00002e94 <Code_749>:
    2e94:	3f04      	subs	r7, #4
    2e96:	603e      	str	r6, [r7, #0]
    2e98:	0026      	movs	r6, r4
    2e9a:	4770      	bx	lr

00002e9c <Dictionary_752>:
    2e9c:	00002edc 	ldrdeq	r2, [r0], -ip
    2ea0:	6c050030 	stcvs	0, cr0, [r5], {48}	; 0x30
    2ea4:	65766165 	ldrbvs	r6, [r6, #-357]!	; 0x165

00002ea8 <Code_752>:
    2ea8:	b500      	push	{lr}
    2eaa:	48d4      	ldr	r0, [pc, #848]	; (31fc <Code_834+0x4c>)
    2eac:	6801      	ldr	r1, [r0, #0]
    2eae:	003b      	movs	r3, r7
    2eb0:	3f04      	subs	r7, #4
    2eb2:	681a      	ldr	r2, [r3, #0]
    2eb4:	3b04      	subs	r3, #4
    2eb6:	601a      	str	r2, [r3, #0]
    2eb8:	3308      	adds	r3, #8
    2eba:	428b      	cmp	r3, r1
    2ebc:	d1f9      	bne.n	2eb2 <Code_752+0xa>
    2ebe:	b403      	push	{r0, r1}
    2ec0:	f7ff ff0c 	bl	2cdc <branch_v>
    2ec4:	bc03      	pop	{r0, r1}
    2ec6:	0033      	movs	r3, r6
    2ec8:	cf40      	ldmia	r7!, {r6}
    2eca:	3904      	subs	r1, #4
    2ecc:	600b      	str	r3, [r1, #0]
    2ece:	6001      	str	r1, [r0, #0]
    2ed0:	3904      	subs	r1, #4
    2ed2:	680a      	ldr	r2, [r1, #0]
    2ed4:	3201      	adds	r2, #1
    2ed6:	600a      	str	r2, [r1, #0]
    2ed8:	bd00      	pop	{pc}
    2eda:	46c0      	nop			; (mov r8, r8)

00002edc <Dictionary_754>:
    2edc:	00002ef0 	strdeq	r2, [r0], -r0
    2ee0:	75060020 	strvc	r0, [r6, #-32]
    2ee4:	6f6f6c6e 	svcvs	0x006f6c6e
    2ee8:	bc300070 	ldclt	0, cr0, [r0], #-448	; 0xfffffe40

00002eea <Code_754>:
    2eea:	bc30      	pop	{r4, r5}
    2eec:	4770      	bx	lr
    2eee:	46c0      	nop			; (mov r8, r8)

00002ef0 <Dictionary_755>:
    2ef0:	00002f28 	andeq	r2, r0, r8, lsr #30
    2ef4:	2b050030 	blcs	142fbc <BIT20+0x42fbc>
    2ef8:	706f6f6c 	rsbvc	r6, pc, ip, ror #30

00002efc <Code_755>:
    2efc:	2e03      	cmp	r6, #3
    2efe:	d000      	beq.n	2f02 <Code_755+0x6>
    2f00:	e71c      	b.n	2d3c <strukturen_passen_nicht>
    2f02:	cf40      	ldmia	r7!, {r6}
    2f04:	b500      	push	{lr}
    2f06:	3f04      	subs	r7, #4
    2f08:	603e      	str	r6, [r7, #0]
    2f0a:	4ebd      	ldr	r6, [pc, #756]	; (3200 <Code_834+0x50>)
    2f0c:	f7ff f92f 	bl	216e <Code_499>
    2f10:	f7ff feb6 	bl	2c80 <r_branch_jvc>
    2f14:	e01a      	b.n	2f4c <loop_intern>

00002f16 <struktur_plusloop>:
    2f16:	2080      	movs	r0, #128	; 0x80
    2f18:	0600      	lsls	r0, r0, #24
    2f1a:	1900      	adds	r0, r0, r4
    2f1c:	19a4      	adds	r4, r4, r6
    2f1e:	1b40      	subs	r0, r0, r5
    2f20:	1980      	adds	r0, r0, r6
    2f22:	cf40      	ldmia	r7!, {r6}
    2f24:	4770      	bx	lr
    2f26:	46c0      	nop			; (mov r8, r8)

00002f28 <Dictionary_759>:
    2f28:	00002f6c 	andeq	r2, r0, ip, ror #30
    2f2c:	6c040030 	stcvs	0, cr0, [r4], {48}	; 0x30
    2f30:	00706f6f 	rsbseq	r6, r0, pc, ror #30

00002f34 <Code_759>:
    2f34:	2e03      	cmp	r6, #3
    2f36:	d000      	beq.n	2f3a <Code_759+0x6>
    2f38:	e700      	b.n	2d3c <strukturen_passen_nicht>
    2f3a:	cf40      	ldmia	r7!, {r6}
    2f3c:	b500      	push	{lr}
    2f3e:	3f04      	subs	r7, #4
    2f40:	603e      	str	r6, [r7, #0]
    2f42:	4eb0      	ldr	r6, [pc, #704]	; (3204 <Code_834+0x54>)
    2f44:	f7ff f913 	bl	216e <Code_499>
    2f48:	f7ff fe8e 	bl	2c68 <r_branch_jne>

00002f4c <loop_intern>:
    2f4c:	f000 f90c 	bl	3168 <spruenge_einpflegen>
    2f50:	48aa      	ldr	r0, [pc, #680]	; (31fc <Code_834+0x4c>)
    2f52:	0031      	movs	r1, r6
    2f54:	cf40      	ldmia	r7!, {r6}
    2f56:	6001      	str	r1, [r0, #0]
    2f58:	3f04      	subs	r7, #4
    2f5a:	603e      	str	r6, [r7, #0]
    2f5c:	4eaa      	ldr	r6, [pc, #680]	; (3208 <Code_834+0x58>)
    2f5e:	f7ff f906 	bl	216e <Code_499>
    2f62:	bd00      	pop	{pc}

00002f64 <struktur_loop>:
    2f64:	3401      	adds	r4, #1
    2f66:	42ac      	cmp	r4, r5
    2f68:	4770      	bx	lr
    2f6a:	46c0      	nop			; (mov r8, r8)

00002f6c <Dictionary_764>:
    2f6c:	00002fb4 			; <UNDEFINED> instruction: 0x00002fb4
    2f70:	64020078 	strvs	r0, [r2], #-120	; 0x78
    2f74:	b500006f 	strlt	r0, [r0, #-111]	; 0x6f

00002f76 <Code_764>:
    2f76:	b500      	push	{lr}
    2f78:	3f04      	subs	r7, #4
    2f7a:	603e      	str	r6, [r7, #0]
    2f7c:	4ea3      	ldr	r6, [pc, #652]	; (320c <Code_834+0x5c>)
    2f7e:	f7ff f8f6 	bl	216e <Code_499>

00002f82 <do_rest_der_schleifenstruktur>:
    2f82:	489e      	ldr	r0, [pc, #632]	; (31fc <Code_834+0x4c>)
    2f84:	6801      	ldr	r1, [r0, #0]
    2f86:	3f04      	subs	r7, #4
    2f88:	603e      	str	r6, [r7, #0]
    2f8a:	000e      	movs	r6, r1
    2f8c:	3f04      	subs	r7, #4
    2f8e:	603e      	str	r6, [r7, #0]
    2f90:	2600      	movs	r6, #0
    2f92:	6007      	str	r7, [r0, #0]
    2f94:	f7ff fe67 	bl	2c66 <branch_r>
    2f98:	3f04      	subs	r7, #4
    2f9a:	603e      	str	r6, [r7, #0]
    2f9c:	2603      	movs	r6, #3
    2f9e:	bd00      	pop	{pc}
    2fa0:	b500      	push	{lr}
    2fa2:	f000 f82e 	bl	3002 <gemeinsame_schleifenoptimierung>
    2fa6:	e7ec      	b.n	2f82 <do_rest_der_schleifenstruktur>

00002fa8 <struktur_do>:
    2fa8:	b430      	push	{r4, r5}
    2faa:	0034      	movs	r4, r6
    2fac:	cf40      	ldmia	r7!, {r6}
    2fae:	0035      	movs	r5, r6
    2fb0:	cf40      	ldmia	r7!, {r6}
    2fb2:	4770      	bx	lr

00002fb4 <Dictionary_774>:
    2fb4:	00003048 	andeq	r3, r0, r8, asr #32
    2fb8:	3f030078 	svccc	0x00030078
    2fbc:	b5006f64 	strlt	r6, [r0, #-3940]	; 0xf64

00002fbe <Code_774>:
    2fbe:	b500      	push	{lr}
    2fc0:	3f04      	subs	r7, #4
    2fc2:	603e      	str	r6, [r7, #0]
    2fc4:	4e91      	ldr	r6, [pc, #580]	; (320c <Code_834+0x5c>)
    2fc6:	f7ff f8d2 	bl	216e <Code_499>

00002fca <qdo_rest_der_schleifenstruktur>:
    2fca:	3f04      	subs	r7, #4
    2fcc:	603e      	str	r6, [r7, #0]
    2fce:	4e90      	ldr	r6, [pc, #576]	; (3210 <Code_834+0x60>)
    2fd0:	f7ff fad3 	bl	257a <Code_577>
    2fd4:	4889      	ldr	r0, [pc, #548]	; (31fc <Code_834+0x4c>)
    2fd6:	6801      	ldr	r1, [r0, #0]
    2fd8:	3f04      	subs	r7, #4
    2fda:	603e      	str	r6, [r7, #0]
    2fdc:	000e      	movs	r6, r1
    2fde:	f7ff fe7d 	bl	2cdc <branch_v>
    2fe2:	3601      	adds	r6, #1
    2fe4:	3f04      	subs	r7, #4
    2fe6:	603e      	str	r6, [r7, #0]
    2fe8:	2601      	movs	r6, #1
    2fea:	4884      	ldr	r0, [pc, #528]	; (31fc <Code_834+0x4c>)
    2fec:	6007      	str	r7, [r0, #0]
    2fee:	f7ff fe3a 	bl	2c66 <branch_r>
    2ff2:	3f04      	subs	r7, #4
    2ff4:	603e      	str	r6, [r7, #0]
    2ff6:	2603      	movs	r6, #3
    2ff8:	bd00      	pop	{pc}
    2ffa:	b500      	push	{lr}
    2ffc:	f000 f801 	bl	3002 <gemeinsame_schleifenoptimierung>
    3000:	e7e3      	b.n	2fca <qdo_rest_der_schleifenstruktur>

00003002 <gemeinsame_schleifenoptimierung>:
    3002:	b500      	push	{lr}
    3004:	3f04      	subs	r7, #4
    3006:	603e      	str	r6, [r7, #0]
    3008:	4e82      	ldr	r6, [pc, #520]	; (3214 <Code_834+0x64>)
    300a:	f7ff fab6 	bl	257a <Code_577>
    300e:	3f04      	subs	r7, #4
    3010:	603e      	str	r6, [r7, #0]
    3012:	2604      	movs	r6, #4
    3014:	f7fe fee6 	bl	1de4 <Code_430>
    3018:	3b01      	subs	r3, #1
    301a:	d008      	beq.n	302e <gemeinsame_schleifenoptimierung+0x2c>
    301c:	3f04      	subs	r7, #4
    301e:	603e      	str	r6, [r7, #0]
    3020:	2605      	movs	r6, #5
    3022:	f7fe fedf 	bl	1de4 <Code_430>
    3026:	3b01      	subs	r3, #1
    3028:	f000 fc03 	bl	3832 <konstantenschreiben>
    302c:	bd00      	pop	{pc}
    302e:	3f04      	subs	r7, #4
    3030:	603e      	str	r6, [r7, #0]
    3032:	2635      	movs	r6, #53	; 0x35
    3034:	f7ff faa1 	bl	257a <Code_577>
    3038:	3f04      	subs	r7, #4
    303a:	603e      	str	r6, [r7, #0]
    303c:	4e76      	ldr	r6, [pc, #472]	; (3218 <Code_834+0x68>)
    303e:	f7ff fa9c 	bl	257a <Code_577>
    3042:	f000 fbf6 	bl	3832 <konstantenschreiben>
    3046:	bd00      	pop	{pc}

00003048 <Dictionary_794>:
    3048:	00003064 	andeq	r3, r0, r4, rrx
    304c:	63040030 	movwvs	r0, #16432	; 0x4030
    3050:	00657361 	rsbeq	r7, r5, r1, ror #6

00003054 <Code_794>:
    3054:	3f04      	subs	r7, #4
    3056:	603e      	str	r6, [r7, #0]
    3058:	2600      	movs	r6, #0
    305a:	3f04      	subs	r7, #4
    305c:	603e      	str	r6, [r7, #0]
    305e:	2608      	movs	r6, #8
    3060:	4770      	bx	lr
    3062:	46c0      	nop			; (mov r8, r8)

00003064 <Dictionary_799>:
    3064:	0000307c 	andeq	r3, r0, ip, ror r0
    3068:	3f030030 	svccc	0x00030030
    306c:	486b666f 	stmdami	fp!, {r0, r1, r2, r3, r5, r6, r9, sl, sp, lr}^

0000306e <Code_799>:
    306e:	486b      	ldr	r0, [pc, #428]	; (321c <Code_834+0x6c>)
    3070:	e00a      	b.n	3088 <of_inneneinsprung>

00003072 <struktur_qof>:
    3072:	3e01      	subs	r6, #1
    3074:	41b6      	sbcs	r6, r6
    3076:	cf40      	ldmia	r7!, {r6}
    3078:	4770      	bx	lr
    307a:	46c0      	nop			; (mov r8, r8)

0000307c <Dictionary_801>:
    307c:	00003108 	andeq	r3, r0, r8, lsl #2
    3080:	6f020078 	svcvs	0x00020078
    3084:	48660066 	stmdami	r6!, {r1, r2, r5, r6}^

00003086 <Code_801>:
    3086:	4866      	ldr	r0, [pc, #408]	; (3220 <Code_834+0x70>)

00003088 <of_inneneinsprung>:
    3088:	2e08      	cmp	r6, #8
    308a:	d000      	beq.n	308e <of_inneneinsprung+0x6>
    308c:	e656      	b.n	2d3c <strukturen_passen_nicht>
    308e:	cf40      	ldmia	r7!, {r6}
    3090:	b500      	push	{lr}
    3092:	3f04      	subs	r7, #4
    3094:	603e      	str	r6, [r7, #0]
    3096:	0006      	movs	r6, r0
    3098:	f7ff f869 	bl	216e <Code_499>

0000309c <of_opcodiereinsprung>:
    309c:	f7ff fe1e 	bl	2cdc <branch_v>
    30a0:	6839      	ldr	r1, [r7, #0]
    30a2:	603e      	str	r6, [r7, #0]
    30a4:	460e      	mov	r6, r1
    30a6:	3601      	adds	r6, #1
    30a8:	3f04      	subs	r7, #4
    30aa:	603e      	str	r6, [r7, #0]
    30ac:	2609      	movs	r6, #9
    30ae:	3f04      	subs	r7, #4
    30b0:	603e      	str	r6, [r7, #0]
    30b2:	4e59      	ldr	r6, [pc, #356]	; (3218 <Code_834+0x68>)
    30b4:	f7ff fa61 	bl	257a <Code_577>
    30b8:	bd00      	pop	{pc}
    30ba:	b500      	push	{lr}
    30bc:	0030      	movs	r0, r6
    30be:	cf40      	ldmia	r7!, {r6}
    30c0:	3b01      	subs	r3, #1
    30c2:	b401      	push	{r0}
    30c4:	f000 fbb5 	bl	3832 <konstantenschreiben>
    30c8:	bc01      	pop	{r0}
    30ca:	2e08      	cmp	r6, #8
    30cc:	d000      	beq.n	30d0 <of_opcodiereinsprung+0x34>
    30ce:	e635      	b.n	2d3c <strukturen_passen_nicht>
    30d0:	cf40      	ldmia	r7!, {r6}
    30d2:	3f04      	subs	r7, #4
    30d4:	603e      	str	r6, [r7, #0]
    30d6:	0006      	movs	r6, r0
    30d8:	21ff      	movs	r1, #255	; 0xff
    30da:	4031      	ands	r1, r6
    30dc:	42b1      	cmp	r1, r6
    30de:	d104      	bne.n	30ea <of_opcodiereinsprung+0x4e>
    30e0:	4950      	ldr	r1, [pc, #320]	; (3224 <Code_834+0x74>)
    30e2:	430e      	orrs	r6, r1
    30e4:	f7ff fa49 	bl	257a <Code_577>
    30e8:	e7d8      	b.n	309c <of_opcodiereinsprung>
    30ea:	3f04      	subs	r7, #4
    30ec:	603e      	str	r6, [r7, #0]
    30ee:	2600      	movs	r6, #0
    30f0:	f7fe fe78 	bl	1de4 <Code_430>
    30f4:	3f04      	subs	r7, #4
    30f6:	603e      	str	r6, [r7, #0]
    30f8:	4e4b      	ldr	r6, [pc, #300]	; (3228 <Code_834+0x78>)
    30fa:	f7ff fa3e 	bl	257a <Code_577>
    30fe:	e7cd      	b.n	309c <of_opcodiereinsprung>

00003100 <struktur_of>:
    3100:	0030      	movs	r0, r6
    3102:	cf40      	ldmia	r7!, {r6}
    3104:	42b0      	cmp	r0, r6
    3106:	4770      	bx	lr

00003108 <Dictionary_819>:
    3108:	00003140 	andeq	r3, r0, r0, asr #2
    310c:	65050030 	strvs	r0, [r5, #-48]	; 0x30
    3110:	666f646e 	strbtvs	r6, [pc], -lr, ror #8

00003114 <Code_819>:
    3114:	2e09      	cmp	r6, #9
    3116:	d000      	beq.n	311a <Code_819+0x6>
    3118:	e610      	b.n	2d3c <strukturen_passen_nicht>
    311a:	cf40      	ldmia	r7!, {r6}
    311c:	b500      	push	{lr}
    311e:	b440      	push	{r6}
    3120:	cf40      	ldmia	r7!, {r6}
    3122:	f7ff fddb 	bl	2cdc <branch_v>
    3126:	6839      	ldr	r1, [r7, #0]
    3128:	603e      	str	r6, [r7, #0]
    312a:	460e      	mov	r6, r1
    312c:	f7ff fdee 	bl	2d0c <v_casebranch>
    3130:	3f04      	subs	r7, #4
    3132:	603e      	str	r6, [r7, #0]
    3134:	bc40      	pop	{r6}
    3136:	3f04      	subs	r7, #4
    3138:	603e      	str	r6, [r7, #0]
    313a:	2608      	movs	r6, #8
    313c:	bd00      	pop	{pc}
    313e:	46c0      	nop			; (mov r8, r8)

00003140 <Dictionary_827>:
    3140:	00003190 	muleq	r0, r0, r1
    3144:	65070030 	strvs	r0, [r7, #-48]	; 0x30
    3148:	6163646e 	cmnvs	r3, lr, ror #8
    314c:	2e086573 	cfrshl64cs	mvdx8, mvdx3, r6

0000314e <Code_827>:
    314e:	2e08      	cmp	r6, #8
    3150:	d000      	beq.n	3154 <Code_827+0x6>
    3152:	e5f3      	b.n	2d3c <strukturen_passen_nicht>
    3154:	cf40      	ldmia	r7!, {r6}
    3156:	b500      	push	{lr}
    3158:	3f04      	subs	r7, #4
    315a:	603e      	str	r6, [r7, #0]
    315c:	4e2e      	ldr	r6, [pc, #184]	; (3218 <Code_834+0x68>)
    315e:	f7ff fa0c 	bl	257a <Code_577>
    3162:	f000 f801 	bl	3168 <spruenge_einpflegen>
    3166:	bd00      	pop	{pc}

00003168 <spruenge_einpflegen>:
    3168:	b500      	push	{lr}
    316a:	0030      	movs	r0, r6
    316c:	cf40      	ldmia	r7!, {r6}
    316e:	2800      	cmp	r0, #0
    3170:	d00d      	beq.n	318e <spruenge_einpflegen+0x26>
    3172:	b403      	push	{r0, r1}
    3174:	2101      	movs	r1, #1
    3176:	4031      	ands	r1, r6
    3178:	2900      	cmp	r1, #0
    317a:	d003      	beq.n	3184 <spruenge_einpflegen+0x1c>
    317c:	3e01      	subs	r6, #1
    317e:	f7ff fdbc 	bl	2cfa <v_nullbranch>
    3182:	e001      	b.n	3188 <spruenge_einpflegen+0x20>
    3184:	f7ff fdb3 	bl	2cee <v_branch>
    3188:	bc03      	pop	{r0, r1}
    318a:	3801      	subs	r0, #1
    318c:	e7ef      	b.n	316e <spruenge_einpflegen+0x6>
    318e:	bd00      	pop	{pc}

00003190 <Dictionary_832>:
    3190:	000031a4 	andeq	r3, r0, r4, lsr #3
    3194:	74050000 	strvc	r0, [r5]
    3198:	6e656b6f 	vnmulvs.f64	d22, d5, d31

0000319c <Code_832>:
    319c:	3f04      	subs	r7, #4
    319e:	603e      	str	r6, [r7, #0]
    31a0:	2620      	movs	r6, #32
    31a2:	e005      	b.n	31b0 <Code_834>

000031a4 <Dictionary_834>:
    31a4:	00003230 	andeq	r3, r0, r0, lsr r2
    31a8:	70050000 	andvc	r0, r5, r0
    31ac:	65737261 	ldrbvs	r7, [r3, #-609]!	; 0x261

000031b0 <Code_834>:
    31b0:	b510      	push	{r4, lr}
    31b2:	f7fe fc10 	bl	19d6 <Code_338>
    31b6:	0031      	movs	r1, r6
    31b8:	cf40      	ldmia	r7!, {r6}
    31ba:	0030      	movs	r0, r6
    31bc:	cf40      	ldmia	r7!, {r6}
    31be:	4a1b      	ldr	r2, [pc, #108]	; (322c <Code_834+0x7c>)
    31c0:	6812      	ldr	r2, [r2, #0]
    31c2:	1884      	adds	r4, r0, r2
    31c4:	2e20      	cmp	r6, #32
    31c6:	d107      	bne.n	31d8 <Code_834+0x28>
    31c8:	4291      	cmp	r1, r2
    31ca:	d00f      	beq.n	31ec <Code_834+0x3c>
    31cc:	5c83      	ldrb	r3, [r0, r2]
    31ce:	42b3      	cmp	r3, r6
    31d0:	d102      	bne.n	31d8 <Code_834+0x28>
    31d2:	3201      	adds	r2, #1
    31d4:	1884      	adds	r4, r0, r2
    31d6:	e7f7      	b.n	31c8 <Code_834+0x18>
    31d8:	4291      	cmp	r1, r2
    31da:	d007      	beq.n	31ec <Code_834+0x3c>
    31dc:	5c83      	ldrb	r3, [r0, r2]
    31de:	3201      	adds	r2, #1
    31e0:	42b3      	cmp	r3, r6
    31e2:	d1f9      	bne.n	31d8 <Code_834+0x28>
    31e4:	1886      	adds	r6, r0, r2
    31e6:	1b36      	subs	r6, r6, r4
    31e8:	3e01      	subs	r6, #1
    31ea:	e001      	b.n	31f0 <Code_834+0x40>
    31ec:	1886      	adds	r6, r0, r2
    31ee:	1b36      	subs	r6, r6, r4
    31f0:	3f04      	subs	r7, #4
    31f2:	603c      	str	r4, [r7, #0]
    31f4:	480d      	ldr	r0, [pc, #52]	; (322c <Code_834+0x7c>)
    31f6:	6002      	str	r2, [r0, #0]
    31f8:	bd10      	pop	{r4, pc}
    31fa:	000c0000 	andeq	r0, ip, r0
    31fe:	2f161000 	svccs	0x00161000
    3202:	2f640000 	svccs	0x00640000
    3206:	2eea0000 	cdpcs	0, 14, cr0, cr10, cr0, {0}
    320a:	2fa80000 	svccs	0x00a80000
    320e:	42ac0000 	adcmi	r0, ip, #0
    3212:	b4300000 	ldrtlt	r0, [r0]
    3216:	cf400000 	svcgt	0x00400000
    321a:	30720000 	rsbscc	r0, r2, r0
    321e:	31000000 	mrscc	r0, (UNDEF: 0)
    3222:	2e000000 	cdpcs	0, 0, cr0, cr0, cr0, {0}
    3226:	42b00000 	adcsmi	r0, r0, #0
    322a:	1fc00000 	svcne	0x00c00000
    322e:	32701000 	rsbscc	r1, r0, #0

00003230 <Dictionary_837>:
    3230:	00003270 	andeq	r3, r0, r0, ror r2
    3234:	64050000 	strvs	r0, [r5]
    3238:	74696769 	strbtvc	r6, [r9], #-1897	; 0x769

0000323c <Code_837>:
    323c:	4bd4      	ldr	r3, [pc, #848]	; (3590 <Code_900+0x8>)
    323e:	681b      	ldr	r3, [r3, #0]

00003240 <digit_base_r3>:
    3240:	3e30      	subs	r6, #48	; 0x30
    3242:	d30b      	bcc.n	325c <digit_base_r3+0x1c>
    3244:	2e0a      	cmp	r6, #10
    3246:	d30b      	bcc.n	3260 <digit_base_r3+0x20>
    3248:	3e07      	subs	r6, #7
    324a:	2e0a      	cmp	r6, #10
    324c:	d306      	bcc.n	325c <digit_base_r3+0x1c>
    324e:	2e24      	cmp	r6, #36	; 0x24
    3250:	d306      	bcc.n	3260 <digit_base_r3+0x20>
    3252:	3e20      	subs	r6, #32
    3254:	2e0a      	cmp	r6, #10
    3256:	d301      	bcc.n	325c <digit_base_r3+0x1c>
    3258:	2e24      	cmp	r6, #36	; 0x24
    325a:	d301      	bcc.n	3260 <digit_base_r3+0x20>
    325c:	2600      	movs	r6, #0
    325e:	4770      	bx	lr
    3260:	429e      	cmp	r6, r3
    3262:	d2fb      	bcs.n	325c <digit_base_r3+0x1c>
    3264:	3f04      	subs	r7, #4
    3266:	603e      	str	r6, [r7, #0]
    3268:	2600      	movs	r6, #0
    326a:	43f6      	mvns	r6, r6
    326c:	4770      	bx	lr
    326e:	46c0      	nop			; (mov r8, r8)

00003270 <Dictionary_839>:
    3270:	0000337c 	andeq	r3, r0, ip, ror r3
    3274:	6e060000 	cdpvs	0, 0, cr0, cr6, cr0, {0}
    3278:	65626d75 	strbvs	r6, [r2, #-3445]!	; 0xd75
    327c:	b53f0072 	ldrlt	r0, [pc, #-114]!	; 3212 <Code_834+0x62>

0000327e <Code_839>:
    327e:	b53f      	push	{r0, r1, r2, r3, r4, r5, lr}
    3280:	0031      	movs	r1, r6
    3282:	cf40      	ldmia	r7!, {r6}
    3284:	1e70      	subs	r0, r6, #1
    3286:	2601      	movs	r6, #1
    3288:	2201      	movs	r2, #1
    328a:	b404      	push	{r2}
    328c:	4bc0      	ldr	r3, [pc, #768]	; (3590 <Code_900+0x8>)
    328e:	681b      	ldr	r3, [r3, #0]
    3290:	2400      	movs	r4, #0
    3292:	2500      	movs	r5, #0
    3294:	2900      	cmp	r1, #0
    3296:	d03c      	beq.n	3312 <Code_839+0x94>
    3298:	3001      	adds	r0, #1
    329a:	3901      	subs	r1, #1
    329c:	7802      	ldrb	r2, [r0, #0]
    329e:	2a2d      	cmp	r2, #45	; 0x2d
    32a0:	d104      	bne.n	32ac <Code_839+0x2e>
    32a2:	b001      	add	sp, #4
    32a4:	2200      	movs	r2, #0
    32a6:	43d2      	mvns	r2, r2
    32a8:	b404      	push	{r2}
    32aa:	e7f3      	b.n	3294 <Code_839+0x16>
    32ac:	2a23      	cmp	r2, #35	; 0x23
    32ae:	d101      	bne.n	32b4 <Code_839+0x36>
    32b0:	230a      	movs	r3, #10
    32b2:	e7ef      	b.n	3294 <Code_839+0x16>
    32b4:	2a24      	cmp	r2, #36	; 0x24
    32b6:	d101      	bne.n	32bc <Code_839+0x3e>
    32b8:	2310      	movs	r3, #16
    32ba:	e7eb      	b.n	3294 <Code_839+0x16>
    32bc:	2a25      	cmp	r2, #37	; 0x25
    32be:	d101      	bne.n	32c4 <Code_839+0x46>
    32c0:	2302      	movs	r3, #2
    32c2:	e7e7      	b.n	3294 <Code_839+0x16>
    32c4:	2a2e      	cmp	r2, #46	; 0x2e
    32c6:	d101      	bne.n	32cc <Code_839+0x4e>
    32c8:	2602      	movs	r6, #2
    32ca:	e7e3      	b.n	3294 <Code_839+0x16>
    32cc:	2a2c      	cmp	r2, #44	; 0x2c
    32ce:	d036      	beq.n	333e <number_nachkommastellen>
    32d0:	3f04      	subs	r7, #4
    32d2:	603e      	str	r6, [r7, #0]
    32d4:	0016      	movs	r6, r2
    32d6:	f7ff ffb3 	bl	3240 <digit_base_r3>
    32da:	2e00      	cmp	r6, #0
    32dc:	cf40      	ldmia	r7!, {r6}
    32de:	d02b      	beq.n	3338 <Code_839+0xba>
    32e0:	3f04      	subs	r7, #4
    32e2:	603e      	str	r6, [r7, #0]
    32e4:	0026      	movs	r6, r4
    32e6:	3f04      	subs	r7, #4
    32e8:	603e      	str	r6, [r7, #0]
    32ea:	002e      	movs	r6, r5
    32ec:	3f04      	subs	r7, #4
    32ee:	603e      	str	r6, [r7, #0]
    32f0:	001e      	movs	r6, r3
    32f2:	3f04      	subs	r7, #4
    32f4:	603e      	str	r6, [r7, #0]
    32f6:	2600      	movs	r6, #0
    32f8:	b40f      	push	{r0, r1, r2, r3}
    32fa:	f7fd f954 	bl	5a6 <Code_52>
    32fe:	bc0f      	pop	{r0, r1, r2, r3}
    3300:	0035      	movs	r5, r6
    3302:	cf40      	ldmia	r7!, {r6}
    3304:	0034      	movs	r4, r6
    3306:	cf40      	ldmia	r7!, {r6}
    3308:	2200      	movs	r2, #0
    330a:	19a4      	adds	r4, r4, r6
    330c:	4155      	adcs	r5, r2
    330e:	cf40      	ldmia	r7!, {r6}
    3310:	e7c0      	b.n	3294 <Code_839+0x16>
    3312:	bc04      	pop	{r2}
    3314:	2a00      	cmp	r2, #0
    3316:	d504      	bpl.n	3322 <Code_839+0xa4>
    3318:	2200      	movs	r2, #0
    331a:	43e4      	mvns	r4, r4
    331c:	43ed      	mvns	r5, r5
    331e:	3401      	adds	r4, #1
    3320:	4155      	adcs	r5, r2
    3322:	0033      	movs	r3, r6
    3324:	0026      	movs	r6, r4
    3326:	2b01      	cmp	r3, #1
    3328:	d002      	beq.n	3330 <Code_839+0xb2>
    332a:	3f04      	subs	r7, #4
    332c:	603e      	str	r6, [r7, #0]
    332e:	002e      	movs	r6, r5
    3330:	3f04      	subs	r7, #4
    3332:	603e      	str	r6, [r7, #0]
    3334:	001e      	movs	r6, r3
    3336:	bd3f      	pop	{r0, r1, r2, r3, r4, r5, pc}
    3338:	b001      	add	sp, #4
    333a:	2600      	movs	r6, #0
    333c:	bd3f      	pop	{r0, r1, r2, r3, r4, r5, pc}

0000333e <number_nachkommastellen>:
    333e:	0025      	movs	r5, r4
    3340:	2400      	movs	r4, #0
    3342:	2602      	movs	r6, #2
    3344:	2900      	cmp	r1, #0
    3346:	d0e4      	beq.n	3312 <Code_839+0x94>
    3348:	5c42      	ldrb	r2, [r0, r1]
    334a:	3901      	subs	r1, #1
    334c:	2a2e      	cmp	r2, #46	; 0x2e
    334e:	d0f9      	beq.n	3344 <number_nachkommastellen+0x6>
    3350:	3f04      	subs	r7, #4
    3352:	603e      	str	r6, [r7, #0]
    3354:	0016      	movs	r6, r2
    3356:	f7ff ff73 	bl	3240 <digit_base_r3>
    335a:	2e00      	cmp	r6, #0
    335c:	cf40      	ldmia	r7!, {r6}
    335e:	d0eb      	beq.n	3338 <Code_839+0xba>
    3360:	3f04      	subs	r7, #4
    3362:	603c      	str	r4, [r7, #0]
    3364:	3f04      	subs	r7, #4
    3366:	603e      	str	r6, [r7, #0]
    3368:	001e      	movs	r6, r3
    336a:	b40f      	push	{r0, r1, r2, r3}
    336c:	f7fd f9cf 	bl	70e <Code_88>
    3370:	bc0f      	pop	{r0, r1, r2, r3}
    3372:	0034      	movs	r4, r6
    3374:	cf40      	ldmia	r7!, {r6}
    3376:	cf40      	ldmia	r7!, {r6}
    3378:	e7e4      	b.n	3344 <number_nachkommastellen+0x6>
    337a:	46c0      	nop			; (mov r8, r8)

0000337c <Dictionary_866>:
    337c:	000033a0 	andeq	r3, r0, r0, lsr #7
    3380:	2e060000 	cdpcs	0, 0, cr0, cr6, cr0, {0}
    3384:	69676964 	stmdbvs	r7!, {r2, r5, r6, r8, fp, sp, lr}^
    3388:	2e0a0074 	mcrcs	0, 0, r0, cr10, cr4, {3}

0000338a <Code_866>:
    338a:	2e0a      	cmp	r6, #10
    338c:	d201      	bcs.n	3392 <Code_866+0x8>
    338e:	3630      	adds	r6, #48	; 0x30
    3390:	4770      	bx	lr
    3392:	2e24      	cmp	r6, #36	; 0x24
    3394:	d201      	bcs.n	339a <Code_866+0x10>
    3396:	3637      	adds	r6, #55	; 0x37
    3398:	4770      	bx	lr
    339a:	2623      	movs	r6, #35	; 0x23
    339c:	4770      	bx	lr
    339e:	46c0      	nop			; (mov r8, r8)

000033a0 <Dictionary_867>:
    33a0:	000033d8 	ldrdeq	r3, [r0], -r8
    33a4:	68040000 	stmdavs	r4, {}	; <UNPREDICTABLE>
    33a8:	00646c6f 	rsbeq	r6, r4, pc, ror #24

000033ac <Code_867>:
    33ac:	0033      	movs	r3, r6
    33ae:	cf40      	ldmia	r7!, {r6}
    33b0:	4878      	ldr	r0, [pc, #480]	; (3594 <Code_900+0xc>)
    33b2:	7801      	ldrb	r1, [r0, #0]
    33b4:	293f      	cmp	r1, #63	; 0x3f
    33b6:	d20d      	bcs.n	33d4 <Code_867+0x28>
    33b8:	3101      	adds	r1, #1
    33ba:	7001      	strb	r1, [r0, #0]
    33bc:	1840      	adds	r0, r0, r1
    33be:	2901      	cmp	r1, #1
    33c0:	d007      	beq.n	33d2 <Code_867+0x26>
    33c2:	3801      	subs	r0, #1
    33c4:	7802      	ldrb	r2, [r0, #0]
    33c6:	3001      	adds	r0, #1
    33c8:	7002      	strb	r2, [r0, #0]
    33ca:	3801      	subs	r0, #1
    33cc:	3901      	subs	r1, #1
    33ce:	2901      	cmp	r1, #1
    33d0:	d1f7      	bne.n	33c2 <Code_867+0x16>
    33d2:	7003      	strb	r3, [r0, #0]
    33d4:	4770      	bx	lr
    33d6:	46c0      	nop			; (mov r8, r8)

000033d8 <Dictionary_869>:
    33d8:	000033f8 	strdeq	r3, [r0], -r8
    33dc:	68050000 	stmdavs	r5, {}	; <UNPREDICTABLE>
    33e0:	3c646c6f 	stclcc	12, cr6, [r4], #-444	; 0xfffffe44

000033e4 <Code_869>:
    33e4:	0033      	movs	r3, r6
    33e6:	cf40      	ldmia	r7!, {r6}
    33e8:	486a      	ldr	r0, [pc, #424]	; (3594 <Code_900+0xc>)
    33ea:	7801      	ldrb	r1, [r0, #0]
    33ec:	293f      	cmp	r1, #63	; 0x3f
    33ee:	d202      	bcs.n	33f6 <Code_869+0x12>
    33f0:	3101      	adds	r1, #1
    33f2:	7001      	strb	r1, [r0, #0]
    33f4:	5443      	strb	r3, [r0, r1]
    33f6:	4770      	bx	lr

000033f8 <Dictionary_871>:
    33f8:	00003410 	andeq	r3, r0, r0, lsl r4
    33fc:	73040000 	movwvc	r0, #16384	; 0x4000
    3400:	006e6769 	rsbeq	r6, lr, r9, ror #14

00003404 <Code_871>:
    3404:	2e00      	cmp	r6, #0
    3406:	d401      	bmi.n	340c <Code_871+0x8>
    3408:	cf40      	ldmia	r7!, {r6}
    340a:	4770      	bx	lr
    340c:	262d      	movs	r6, #45	; 0x2d
    340e:	e7cd      	b.n	33ac <Code_867>

00003410 <Dictionary_873>:
    3410:	00003424 	andeq	r3, r0, r4, lsr #8
    3414:	23020000 	movwcs	r0, #8192	; 0x2000
    3418:	485e003e 	ldmdami	lr, {r1, r2, r3, r4, r5}^

0000341a <Code_873>:
    341a:	485e      	ldr	r0, [pc, #376]	; (3594 <Code_900+0xc>)
    341c:	7806      	ldrb	r6, [r0, #0]
    341e:	3001      	adds	r0, #1
    3420:	6038      	str	r0, [r7, #0]
    3422:	4770      	bx	lr

00003424 <Dictionary_874>:
    3424:	0000343c 	andeq	r3, r0, ip, lsr r4
    3428:	66030000 	strvs	r0, [r3], -r0
    342c:	b5105323 	ldrlt	r5, [r0, #-803]	; 0x323

0000342e <Code_874>:
    342e:	b510      	push	{r4, lr}
    3430:	2420      	movs	r4, #32
    3432:	f000 f808 	bl	3446 <Code_875>
    3436:	3c01      	subs	r4, #1
    3438:	d1fb      	bne.n	3432 <Code_874+0x4>
    343a:	bd10      	pop	{r4, pc}

0000343c <Dictionary_875>:
    343c:	00003460 	andeq	r3, r0, r0, ror #8
    3440:	66020000 	strvs	r0, [r2], -r0
    3444:	b5000023 	strlt	r0, [r0, #-35]	; 0x23

00003446 <Code_875>:
    3446:	b500      	push	{lr}
    3448:	3f04      	subs	r7, #4
    344a:	603e      	str	r6, [r7, #0]
    344c:	4e50      	ldr	r6, [pc, #320]	; (3590 <Code_900+0x8>)
    344e:	6836      	ldr	r6, [r6, #0]
    3450:	f7fd f87b 	bl	54a <Code_50>
    3454:	f7ff ff99 	bl	338a <Code_866>
    3458:	f7ff ffc4 	bl	33e4 <Code_869>
    345c:	bd00      	pop	{pc}
    345e:	46c0      	nop			; (mov r8, r8)

00003460 <Dictionary_877>:
    3460:	0000347c 	andeq	r3, r0, ip, ror r4
    3464:	23020000 	movwcs	r0, #8192	; 0x2000
    3468:	b5000053 	strlt	r0, [r0, #-83]	; 0x53

0000346a <Code_877>:
    346a:	b500      	push	{lr}
    346c:	f000 f80a 	bl	3484 <Code_878>
    3470:	2e00      	cmp	r6, #0
    3472:	d1fb      	bne.n	346c <Code_877+0x2>
    3474:	6838      	ldr	r0, [r7, #0]
    3476:	2800      	cmp	r0, #0
    3478:	d1f8      	bne.n	346c <Code_877+0x2>
    347a:	bd00      	pop	{pc}

0000347c <Dictionary_878>:
    347c:	000034a8 	andeq	r3, r0, r8, lsr #9
    3480:	23010000 	movwcs	r0, #4096	; 0x1000

00003484 <Code_878>:
    3484:	b500      	push	{lr}
    3486:	3f04      	subs	r7, #4
    3488:	603e      	str	r6, [r7, #0]
    348a:	4e41      	ldr	r6, [pc, #260]	; (3590 <Code_900+0x8>)
    348c:	6836      	ldr	r6, [r6, #0]
    348e:	3f04      	subs	r7, #4
    3490:	603e      	str	r6, [r7, #0]
    3492:	2600      	movs	r6, #0
    3494:	f7fd f95b 	bl	74e <Code_97>
    3498:	f7fc ff62 	bl	360 <Code_24>
    349c:	cf40      	ldmia	r7!, {r6}
    349e:	f7ff ff74 	bl	338a <Code_866>
    34a2:	f7ff ff83 	bl	33ac <Code_867>
    34a6:	bd00      	pop	{pc}

000034a8 <Dictionary_883>:
    34a8:	000034bc 			; <UNDEFINED> instruction: 0x000034bc
    34ac:	3c020000 	stccc	0, cr0, [r2], {0}
    34b0:	48380023 	ldmdami	r8!, {r0, r1, r5}

000034b2 <Code_883>:
    34b2:	4838      	ldr	r0, [pc, #224]	; (3594 <Code_900+0xc>)
    34b4:	2100      	movs	r1, #0
    34b6:	7001      	strb	r1, [r0, #0]
    34b8:	4770      	bx	lr
    34ba:	46c0      	nop			; (mov r8, r8)

000034bc <Dictionary_884>:
    34bc:	000034d0 	ldrdeq	r3, [r0], -r0
    34c0:	66020000 	strvs	r0, [r2], -r0
    34c4:	3f04002e 	svccc	0x0004002e

000034c6 <Code_884>:
    34c6:	3f04      	subs	r7, #4
    34c8:	603e      	str	r6, [r7, #0]
    34ca:	2620      	movs	r6, #32
    34cc:	e005      	b.n	34da <Code_887>
    34ce:	46c0      	nop			; (mov r8, r8)

000034d0 <Dictionary_887>:
    34d0:	00003520 	andeq	r3, r0, r0, lsr #10
    34d4:	66030000 	strvs	r0, [r3], -r0
    34d8:	b5006e2e 	strlt	r6, [r0, #-3630]	; 0xe2e

000034da <Code_887>:
    34da:	b500      	push	{lr}
    34dc:	b410      	push	{r4}
    34de:	0034      	movs	r4, r6
    34e0:	cf40      	ldmia	r7!, {r6}
    34e2:	f7fd facb 	bl	a7c <Code_134>
    34e6:	f7fc fff5 	bl	4d4 <Code_44>
    34ea:	3f04      	subs	r7, #4
    34ec:	603e      	str	r6, [r7, #0]
    34ee:	2600      	movs	r6, #0
    34f0:	f7ff ffdf 	bl	34b2 <Code_883>
    34f4:	f7ff ffb9 	bl	346a <Code_877>
    34f8:	cf40      	ldmia	r7!, {r6}
    34fa:	262c      	movs	r6, #44	; 0x2c
    34fc:	f7ff ff72 	bl	33e4 <Code_869>
    3500:	2c00      	cmp	r4, #0
    3502:	d003      	beq.n	350c <Code_887+0x32>
    3504:	f7ff ff9f 	bl	3446 <Code_875>
    3508:	3c01      	subs	r4, #1
    350a:	d1fb      	bne.n	3504 <Code_887+0x2a>
    350c:	bc10      	pop	{r4}
    350e:	cf40      	ldmia	r7!, {r6}
    3510:	f7ff ff78 	bl	3404 <Code_871>
    3514:	3f04      	subs	r7, #4
    3516:	603e      	str	r6, [r7, #0]
    3518:	3f04      	subs	r7, #4
    351a:	603e      	str	r6, [r7, #0]
    351c:	e01e      	b.n	355c <abschluss_zahlenausgabe>
    351e:	46c0      	nop			; (mov r8, r8)

00003520 <Dictionary_895>:
    3520:	00003538 	andeq	r3, r0, r8, lsr r5
    3524:	75030000 	strvc	r0, [r3]
    3528:	b5002e64 	strlt	r2, [r0, #-3684]	; 0xe64

0000352a <Code_895>:
    352a:	b500      	push	{lr}
    352c:	f7ff ffc1 	bl	34b2 <Code_883>
    3530:	f7ff ff9b 	bl	346a <Code_877>
    3534:	e012      	b.n	355c <abschluss_zahlenausgabe>
    3536:	46c0      	nop			; (mov r8, r8)

00003538 <Dictionary_896>:
    3538:	0000356c 	andeq	r3, r0, ip, ror #10
    353c:	64020000 	strvs	r0, [r2]
    3540:	b500002e 	strlt	r0, [r0, #-46]	; 0x2e

00003542 <Code_896>:
    3542:	b500      	push	{lr}
    3544:	f7fd fa9a 	bl	a7c <Code_134>
    3548:	f7fc ffc4 	bl	4d4 <Code_44>
    354c:	f7ff ffb1 	bl	34b2 <Code_883>
    3550:	f7ff ff8b 	bl	346a <Code_877>
    3554:	f7fd fa9d 	bl	a92 <Code_135>
    3558:	f7ff ff54 	bl	3404 <Code_871>

0000355c <abschluss_zahlenausgabe>:
    355c:	f7ff ff5d 	bl	341a <Code_873>
    3560:	f7fe fb52 	bl	1c08 <Code_390>
    3564:	f7fe fa9e 	bl	1aa4 <Code_355>
    3568:	bd00      	pop	{pc}
    356a:	46c0      	nop			; (mov r8, r8)

0000356c <Dictionary_897>:
    356c:	00003580 	andeq	r3, r0, r0, lsl #11
    3570:	75020000 	strvc	r0, [r2]
    3574:	3f04002e 	svccc	0x0004002e

00003576 <Code_897>:
    3576:	3f04      	subs	r7, #4
    3578:	603e      	str	r6, [r7, #0]
    357a:	2600      	movs	r6, #0
    357c:	e7d5      	b.n	352a <Code_895>
    357e:	46c0      	nop			; (mov r8, r8)

00003580 <Dictionary_900>:
    3580:	00003598 	muleq	r0, r8, r5
    3584:	2e010000 	cdpcs	0, 0, cr0, cr1, cr0, {0}

00003588 <Code_900>:
    3588:	3f04      	subs	r7, #4
    358a:	603e      	str	r6, [r7, #0]
    358c:	17f6      	asrs	r6, r6, #31
    358e:	e7d8      	b.n	3542 <Code_896>
    3590:	10001fd8 	ldrdne	r1, [r0], -r8
    3594:	10000028 	andne	r0, r0, r8, lsr #32

00003598 <Dictionary_902>:
    3598:	000035e0 	andeq	r3, r0, r0, ror #11
    359c:	65080000 	strvs	r0, [r8]
    35a0:	756c6176 	strbvc	r6, [ip, #-374]!	; 0x176
    35a4:	00657461 	rsbeq	r7, r5, r1, ror #8

000035a8 <Code_902>:
    35a8:	b500      	push	{lr}
    35aa:	f7fe fa14 	bl	19d6 <Code_338>
    35ae:	cf01      	ldmia	r7!, {r0}
    35b0:	b401      	push	{r0}
    35b2:	b440      	push	{r6}
    35b4:	cf40      	ldmia	r7!, {r6}
    35b6:	48c2      	ldr	r0, [pc, #776]	; (38c0 <quit_innenschleife+0x14>)
    35b8:	6801      	ldr	r1, [r0, #0]
    35ba:	b402      	push	{r1}
    35bc:	2100      	movs	r1, #0
    35be:	6001      	str	r1, [r0, #0]
    35c0:	f7fe f9fc 	bl	19bc <Code_336>
    35c4:	f000 f814 	bl	35f0 <Code_904>
    35c8:	48bd      	ldr	r0, [pc, #756]	; (38c0 <quit_innenschleife+0x14>)
    35ca:	bc02      	pop	{r1}
    35cc:	6001      	str	r1, [r0, #0]
    35ce:	3f04      	subs	r7, #4
    35d0:	603e      	str	r6, [r7, #0]
    35d2:	bc40      	pop	{r6}
    35d4:	bc01      	pop	{r0}
    35d6:	3f04      	subs	r7, #4
    35d8:	6038      	str	r0, [r7, #0]
    35da:	f7fe f9ef 	bl	19bc <Code_336>
    35de:	bd00      	pop	{pc}

000035e0 <Dictionary_904>:
    35e0:	00003858 	andeq	r3, r0, r8, asr r8
    35e4:	69090000 	stmdbvs	r9, {}	; <UNPREDICTABLE>
    35e8:	7265746e 	rsbvc	r7, r5, #1845493760	; 0x6e000000
    35ec:	74657270 	strbtvc	r7, [r5], #-624	; 0x270

000035f0 <Code_904>:
    35f0:	b530      	push	{r4, r5, lr}
    35f2:	48b4      	ldr	r0, [pc, #720]	; (38c4 <quit_innenschleife+0x18>)
    35f4:	4287      	cmp	r7, r0
    35f6:	d90b      	bls.n	3610 <Code_904+0x20>
    35f8:	f7fe faa6 	bl	1b48 <dotgaensefuesschen>
    35fc:	61745310 	cmnvs	r4, r0, lsl r3
    3600:	75206b63 	strvc	r6, [r0, #-2915]!	; 0xb63
    3604:	7265646e 	rsbvc	r6, r5, #1845493760	; 0x6e000000
    3608:	776f6c66 	strbvc	r6, [pc, -r6, ror #24]!
    360c:	e137000a 	teq	r7, sl
    3610:	48ad      	ldr	r0, [pc, #692]	; (38c8 <quit_innenschleife+0x1c>)
    3612:	4287      	cmp	r7, r0
    3614:	d20a      	bcs.n	362c <Code_904+0x3c>
    3616:	f7fe fa97 	bl	1b48 <dotgaensefuesschen>
    361a:	6174530f 	cmnvs	r4, pc, lsl #6
    361e:	6f206b63 	svcvs	0x00206b63
    3622:	66726576 			; <UNDEFINED> instruction: 0x66726576
    3626:	0a776f6c 	beq	1ddf3de <BIT24+0xddf3de>
    362a:	e129      	b.n	3880 <Code_955>
    362c:	4ca7      	ldr	r4, [pc, #668]	; (38cc <quit_innenschleife+0x20>)
    362e:	6825      	ldr	r5, [r4, #0]
    3630:	2d00      	cmp	r5, #0
    3632:	d101      	bne.n	3638 <Code_904+0x48>
    3634:	003d      	movs	r5, r7
    3636:	6025      	str	r5, [r4, #0]
    3638:	f7ff fdb0 	bl	319c <Code_832>
    363c:	2e00      	cmp	r6, #0
    363e:	d102      	bne.n	3646 <Code_904+0x56>
    3640:	3704      	adds	r7, #4
    3642:	cf40      	ldmia	r7!, {r6}
    3644:	bd30      	pop	{r4, r5, pc}
    3646:	6838      	ldr	r0, [r7, #0]
    3648:	3f04      	subs	r7, #4
    364a:	603e      	str	r6, [r7, #0]
    364c:	3f04      	subs	r7, #4
    364e:	6038      	str	r0, [r7, #0]
    3650:	f7ff fa5e 	bl	2b10 <Code_673>
    3654:	0031      	movs	r1, r6
    3656:	cf40      	ldmia	r7!, {r6}
    3658:	0032      	movs	r2, r6
    365a:	cf40      	ldmia	r7!, {r6}
    365c:	2a00      	cmp	r2, #0
    365e:	d113      	bne.n	3688 <not_found_addr_r0_len_r1+0x18>
    3660:	6838      	ldr	r0, [r7, #0]
    3662:	0031      	movs	r1, r6
    3664:	f7ff fe0b 	bl	327e <Code_839>
    3668:	0032      	movs	r2, r6
    366a:	cf40      	ldmia	r7!, {r6}
    366c:	2a00      	cmp	r2, #0
    366e:	d1c0      	bne.n	35f2 <Code_904+0x2>

00003670 <not_found_addr_r0_len_r1>:
    3670:	f7fe face 	bl	1c10 <stype_addr_r0_len_r1>
    3674:	f7fe fa68 	bl	1b48 <dotgaensefuesschen>
    3678:	6f6e200c 	svcvs	0x006e200c
    367c:	6f662074 	svcvs	0x00662074
    3680:	2e646e75 	mcrcs	14, 3, r6, cr4, cr5, {3}
    3684:	e0fb000a 	rscs	r0, fp, sl
    3688:	4b91      	ldr	r3, [pc, #580]	; (38d0 <quit_innenschleife+0x24>)
    368a:	681b      	ldr	r3, [r3, #0]
    368c:	2b00      	cmp	r3, #0
    368e:	d11d      	bne.n	36cc <.ausfuehren+0x12>
    3690:	2500      	movs	r5, #0
    3692:	6025      	str	r5, [r4, #0]
    3694:	2330      	movs	r3, #48	; 0x30
    3696:	400b      	ands	r3, r1
    3698:	2b30      	cmp	r3, #48	; 0x30
    369a:	d10e      	bne.n	36ba <.ausfuehren>
    369c:	f7fe fab4 	bl	1c08 <Code_390>
    36a0:	f7fe fa52 	bl	1b48 <dotgaensefuesschen>
    36a4:	73692012 	cmnvc	r9, #18
    36a8:	6d6f6320 	stclvs	3, cr6, [pc, #-128]!	; 3630 <Code_904+0x40>
    36ac:	656c6970 	strbvs	r6, [ip, #-2416]!	; 0x970
    36b0:	6c6e6f2d 	stclvs	15, cr6, [lr], #-180	; 0xffffff4c
    36b4:	000a2e79 	andeq	r2, sl, r9, ror lr
    36b8:	e0e2      	b.n	3880 <Code_955>

000036ba <.ausfuehren>:
    36ba:	3704      	adds	r7, #4
    36bc:	cf40      	ldmia	r7!, {r6}
    36be:	3f04      	subs	r7, #4
    36c0:	603e      	str	r6, [r7, #0]
    36c2:	0016      	movs	r6, r2
    36c4:	f7fe fded 	bl	22a2 <Code_521>
    36c8:	f7ff ff93 	bl	35f2 <Code_904+0x2>
    36cc:	3704      	adds	r7, #4
    36ce:	cf40      	ldmia	r7!, {r6}
    36d0:	2080      	movs	r0, #128	; 0x80
    36d2:	4008      	ands	r0, r1
    36d4:	d10e      	bne.n	36f4 <.interpret_faltoptimierung>
    36d6:	1beb      	subs	r3, r5, r7
    36d8:	089b      	lsrs	r3, r3, #2
    36da:	2040      	movs	r0, #64	; 0x40
    36dc:	4008      	ands	r0, r1
    36de:	d00f      	beq.n	3700 <.konstantenschleife>
    36e0:	2008      	movs	r0, #8
    36e2:	4008      	ands	r0, r1
    36e4:	d002      	beq.n	36ec <.interpret_genugkonstanten>
    36e6:	2b00      	cmp	r3, #0
    36e8:	d000      	beq.n	36ec <.interpret_genugkonstanten>
    36ea:	e01d      	b.n	3728 <.interpret_opcodierbar>

000036ec <.interpret_genugkonstanten>:
    36ec:	200f      	movs	r0, #15
    36ee:	4008      	ands	r0, r1
    36f0:	4283      	cmp	r3, r0
    36f2:	d305      	bcc.n	3700 <.konstantenschleife>

000036f4 <.interpret_faltoptimierung>:
    36f4:	3f04      	subs	r7, #4
    36f6:	603e      	str	r6, [r7, #0]
    36f8:	0016      	movs	r6, r2
    36fa:	f7fe fdd2 	bl	22a2 <Code_521>
    36fe:	e778      	b.n	35f2 <Code_904+0x2>

00003700 <.konstantenschleife>:
    3700:	f000 f897 	bl	3832 <konstantenschreiben>
    3704:	3f04      	subs	r7, #4
    3706:	603e      	str	r6, [r7, #0]
    3708:	0016      	movs	r6, r2
    370a:	2210      	movs	r2, #16
    370c:	400a      	ands	r2, r1
    370e:	d002      	beq.n	3716 <.konstantenschleife+0x16>
    3710:	f7fe fdc7 	bl	22a2 <Code_521>
    3714:	e76d      	b.n	35f2 <Code_904+0x2>
    3716:	2220      	movs	r2, #32
    3718:	400a      	ands	r2, r1
    371a:	d002      	beq.n	3722 <.konstantenschleife+0x22>
    371c:	f7fe fd27 	bl	216e <Code_499>
    3720:	e767      	b.n	35f2 <Code_904+0x2>
    3722:	f7fe fc01 	bl	1f28 <Code_457>
    3726:	e764      	b.n	35f2 <Code_904+0x2>

00003728 <.interpret_opcodierbar>:
    3728:	2007      	movs	r0, #7
    372a:	4001      	ands	r1, r0
    372c:	0010      	movs	r0, r2
    372e:	f7fe fd32 	bl	2196 <suchedefinitionsende>
    3732:	2901      	cmp	r1, #1
    3734:	d115      	bne.n	3762 <.interpret_opcodierbar_rechenlogik>
    3736:	2b01      	cmp	r3, #1
    3738:	d1dc      	bne.n	36f4 <.interpret_faltoptimierung>
    373a:	21ff      	movs	r1, #255	; 0xff
    373c:	4031      	ands	r1, r6
    373e:	42b1      	cmp	r1, r6
    3740:	d104      	bne.n	374c <.interpret_opcodieren_ueber_r0>
    3742:	8840      	ldrh	r0, [r0, #2]
    3744:	4306      	orrs	r6, r0
    3746:	f7fe ff18 	bl	257a <Code_577>
    374a:	e752      	b.n	35f2 <Code_904+0x2>

0000374c <.interpret_opcodieren_ueber_r0>:
    374c:	3f04      	subs	r7, #4
    374e:	603e      	str	r6, [r7, #0]
    3750:	2600      	movs	r6, #0
    3752:	f7fe fb47 	bl	1de4 <Code_430>
    3756:	3f04      	subs	r7, #4
    3758:	603e      	str	r6, [r7, #0]
    375a:	8806      	ldrh	r6, [r0, #0]
    375c:	f7fe ff0d 	bl	257a <Code_577>
    3760:	e747      	b.n	35f2 <Code_904+0x2>

00003762 <.interpret_opcodierbar_rechenlogik>:
    3762:	2902      	cmp	r1, #2
    3764:	d102      	bne.n	376c <.interpret_opcodierbar_gleichungleich>
    3766:	2b01      	cmp	r3, #1
    3768:	d1c4      	bne.n	36f4 <.interpret_faltoptimierung>
    376a:	e7ef      	b.n	374c <.interpret_opcodieren_ueber_r0>

0000376c <.interpret_opcodierbar_gleichungleich>:
    376c:	2903      	cmp	r1, #3
    376e:	d11c      	bne.n	37aa <.interpret_opcodierbar_schieben>
    3770:	2b01      	cmp	r3, #1
    3772:	d1bf      	bne.n	36f4 <.interpret_faltoptimierung>
    3774:	21ff      	movs	r1, #255	; 0xff
    3776:	4031      	ands	r1, r6
    3778:	42b1      	cmp	r1, r6
    377a:	d10a      	bne.n	3792 <.interpret_opcodierbar_gleichungleich+0x26>
    377c:	4955      	ldr	r1, [pc, #340]	; (38d4 <quit_innenschleife+0x28>)
    377e:	430e      	orrs	r6, r1
    3780:	f7fe fefb 	bl	257a <Code_577>
    3784:	3204      	adds	r2, #4
    3786:	3f04      	subs	r7, #4
    3788:	603e      	str	r6, [r7, #0]
    378a:	0016      	movs	r6, r2
    378c:	f7fe fcef 	bl	216e <Code_499>
    3790:	e72f      	b.n	35f2 <Code_904+0x2>
    3792:	3f04      	subs	r7, #4
    3794:	603e      	str	r6, [r7, #0]
    3796:	2600      	movs	r6, #0
    3798:	f7fe fb24 	bl	1de4 <Code_430>
    379c:	3202      	adds	r2, #2
    379e:	3f04      	subs	r7, #4
    37a0:	603e      	str	r6, [r7, #0]
    37a2:	0016      	movs	r6, r2
    37a4:	f7fe fce3 	bl	216e <Code_499>
    37a8:	e723      	b.n	35f2 <Code_904+0x2>

000037aa <.interpret_opcodierbar_schieben>:
    37aa:	2904      	cmp	r1, #4
    37ac:	d118      	bne.n	37e0 <.interpret_opcodierbar_speicherschreiben>
    37ae:	2b01      	cmp	r3, #1
    37b0:	d1a0      	bne.n	36f4 <.interpret_faltoptimierung>
    37b2:	0033      	movs	r3, r6
    37b4:	cf40      	ldmia	r7!, {r6}
    37b6:	2b00      	cmp	r3, #0
    37b8:	d100      	bne.n	37bc <.interpret_opcodierbar_schieben+0x12>
    37ba:	e71a      	b.n	35f2 <Code_904+0x2>
    37bc:	221f      	movs	r2, #31
    37be:	401a      	ands	r2, r3
    37c0:	429a      	cmp	r2, r3
    37c2:	d005      	beq.n	37d0 <.interpret_opcodierbar_schieben+0x26>
    37c4:	3f04      	subs	r7, #4
    37c6:	603e      	str	r6, [r7, #0]
    37c8:	8846      	ldrh	r6, [r0, #2]
    37ca:	f7fe fed6 	bl	257a <Code_577>
    37ce:	e710      	b.n	35f2 <Code_904+0x2>
    37d0:	3f04      	subs	r7, #4
    37d2:	603e      	str	r6, [r7, #0]
    37d4:	8806      	ldrh	r6, [r0, #0]
    37d6:	019b      	lsls	r3, r3, #6
    37d8:	431e      	orrs	r6, r3
    37da:	f7fe fece 	bl	257a <Code_577>
    37de:	e708      	b.n	35f2 <Code_904+0x2>

000037e0 <.interpret_opcodierbar_speicherschreiben>:
    37e0:	2905      	cmp	r1, #5
    37e2:	d123      	bne.n	382c <.interpret_opcodierbar_andere>
    37e4:	2b01      	cmp	r3, #1
    37e6:	d10f      	bne.n	3808 <.interpret_opcodierbar_speicherschreiben+0x28>
    37e8:	3f04      	subs	r7, #4
    37ea:	603e      	str	r6, [r7, #0]
    37ec:	2600      	movs	r6, #0
    37ee:	f7fe faf9 	bl	1de4 <Code_430>
    37f2:	3f04      	subs	r7, #4
    37f4:	603e      	str	r6, [r7, #0]
    37f6:	0006      	movs	r6, r0
    37f8:	f7fe fcb9 	bl	216e <Code_499>
    37fc:	3f04      	subs	r7, #4
    37fe:	603e      	str	r6, [r7, #0]
    3800:	4e35      	ldr	r6, [pc, #212]	; (38d8 <quit_innenschleife+0x2c>)
    3802:	f7fe feba 	bl	257a <Code_577>
    3806:	e6f4      	b.n	35f2 <Code_904+0x2>
    3808:	3f04      	subs	r7, #4
    380a:	603e      	str	r6, [r7, #0]
    380c:	2600      	movs	r6, #0
    380e:	f7fe fae9 	bl	1de4 <Code_430>
    3812:	3f04      	subs	r7, #4
    3814:	603e      	str	r6, [r7, #0]
    3816:	2601      	movs	r6, #1
    3818:	f7fe fae4 	bl	1de4 <Code_430>
    381c:	f7fe fcbb 	bl	2196 <suchedefinitionsende>
    3820:	3f04      	subs	r7, #4
    3822:	603e      	str	r6, [r7, #0]
    3824:	0006      	movs	r6, r0
    3826:	f7fe fca2 	bl	216e <Code_499>
    382a:	e6e2      	b.n	35f2 <Code_904+0x2>

0000382c <.interpret_opcodierbar_andere>:
    382c:	3001      	adds	r0, #1
    382e:	4780      	blx	r0
    3830:	e6df      	b.n	35f2 <Code_904+0x2>

00003832 <konstantenschreiben>:
    3832:	b500      	push	{lr}
    3834:	2b00      	cmp	r3, #0
    3836:	d00b      	beq.n	3850 <.konstanteninnenschleife+0x18>

00003838 <.konstanteninnenschleife>:
    3838:	3b01      	subs	r3, #1
    383a:	3f04      	subs	r7, #4
    383c:	603e      	str	r6, [r7, #0]
    383e:	009e      	lsls	r6, r3, #2
    3840:	59be      	ldr	r6, [r7, r6]
    3842:	f7fe fbab 	bl	1f9c <Code_466>
    3846:	2b00      	cmp	r3, #0
    3848:	d1f6      	bne.n	3838 <.konstanteninnenschleife>
    384a:	3d04      	subs	r5, #4
    384c:	002f      	movs	r7, r5
    384e:	cf40      	ldmia	r7!, {r6}
    3850:	2500      	movs	r5, #0
    3852:	6025      	str	r5, [r4, #0]
    3854:	bd00      	pop	{pc}
    3856:	46c0      	nop			; (mov r8, r8)

00003858 <Dictionary_952>:
    3858:	00003874 	andeq	r3, r0, r4, ror r8
    385c:	68090081 	stmdavs	r9, {r0, r7}
    3860:	2d6b6f6f 	stclcs	15, cr6, [fp, #-444]!	; 0xfffffe44
    3864:	74697571 	strbtvc	r7, [r9], #-1393	; 0x571

00003868 <Code_952>:
    3868:	3f04      	subs	r7, #4
    386a:	603e      	str	r6, [r7, #0]
    386c:	4e1b      	ldr	r6, [pc, #108]	; (38dc <quit_innenschleife+0x30>)
    386e:	4770      	bx	lr
    3870:	000038ac 	andeq	r3, r0, ip, lsr #17

00003874 <Dictionary_955>:
    3874:	000038f0 	strdeq	r3, [r0], -r0
    3878:	71040000 	mrsvc	r0, (UNDEF: 4)
    387c:	00746975 	rsbseq	r6, r4, r5, ror r9

00003880 <Code_955>:
    3880:	4817      	ldr	r0, [pc, #92]	; (38e0 <quit_innenschleife+0x34>)
    3882:	4685      	mov	sp, r0
    3884:	4f0f      	ldr	r7, [pc, #60]	; (38c4 <quit_innenschleife+0x18>)
    3886:	f7fd fd43 	bl	1310 <Code_234>
    388a:	4816      	ldr	r0, [pc, #88]	; (38e4 <quit_innenschleife+0x38>)
    388c:	210a      	movs	r1, #10
    388e:	6001      	str	r1, [r0, #0]
    3890:	480f      	ldr	r0, [pc, #60]	; (38d0 <quit_innenschleife+0x24>)
    3892:	2100      	movs	r1, #0
    3894:	6001      	str	r1, [r0, #0]
    3896:	480d      	ldr	r0, [pc, #52]	; (38cc <quit_innenschleife+0x20>)
    3898:	6001      	str	r1, [r0, #0]
    389a:	4809      	ldr	r0, [pc, #36]	; (38c0 <quit_innenschleife+0x14>)
    389c:	6001      	str	r1, [r0, #0]
    389e:	4812      	ldr	r0, [pc, #72]	; (38e8 <quit_innenschleife+0x3c>)
    38a0:	6001      	str	r1, [r0, #0]
    38a2:	4912      	ldr	r1, [pc, #72]	; (38ec <quit_innenschleife+0x40>)
    38a4:	6041      	str	r1, [r0, #4]

000038a6 <quit_intern>:
    38a6:	480d      	ldr	r0, [pc, #52]	; (38dc <quit_innenschleife+0x30>)
    38a8:	6800      	ldr	r0, [r0, #0]
    38aa:	4687      	mov	pc, r0

000038ac <quit_innenschleife>:
    38ac:	f7fe f8a2 	bl	19f4 <Code_340>
    38b0:	f7ff fe9e 	bl	35f0 <Code_904>
    38b4:	f7fe f948 	bl	1b48 <dotgaensefuesschen>
    38b8:	6b6f2005 	blvs	1bcb8d4 <BIT24+0xbcb8d4>
    38bc:	e7f50a2e 	ldrb	r0, [r5, lr, lsr #20]!
    38c0:	10001fc0 	andne	r1, r0, r0, asr #31
    38c4:	10000330 	andne	r0, r0, r0, lsr r3
    38c8:	10000130 	andne	r0, r0, r0, lsr r1
    38cc:	10000008 	andne	r0, r0, r8
    38d0:	10001fb4 			; <UNDEFINED> instruction: 0x10001fb4
    38d4:	00003e00 	andeq	r3, r0, r0, lsl #28
    38d8:	0000cf40 	andeq	ip, r0, r0, asr #30
    38dc:	10001fb0 			; <UNDEFINED> instruction: 0x10001fb0
    38e0:	10000430 	andne	r0, r0, r0, lsr r4
    38e4:	10001fd8 	ldrdne	r1, [r0], -r8
    38e8:	10001fb8 			; <UNDEFINED> instruction: 0x10001fb8
    38ec:	10000068 	andne	r0, r0, r8, rrx

000038f0 <Dictionary_957>:
    38f0:	0000390c 	andeq	r3, r0, ip, lsl #18
    38f4:	65050000 	strvs	r0, [r5]
    38f8:	3f746e69 	svccc	0x00746e69

000038fc <Code_957>:
    38fc:	3f04      	subs	r7, #4
    38fe:	603e      	str	r6, [r7, #0]
    3900:	f3ef 8610 	mrs	r6, PRIMASK
    3904:	3e01      	subs	r6, #1
    3906:	41b6      	sbcs	r6, r6
    3908:	4770      	bx	lr
    390a:	46c0      	nop			; (mov r8, r8)

0000390c <Dictionary_959>:
    390c:	0000391c 	andeq	r3, r0, ip, lsl r9
    3910:	65040020 	strvs	r0, [r4, #-32]
    3914:	00746e69 	rsbseq	r6, r4, r9, ror #28

00003918 <Code_959>:
    3918:	b662      	cpsie	i
    391a:	4770      	bx	lr

0000391c <Dictionary_960>:
    391c:	0000392c 	andeq	r3, r0, ip, lsr #18
    3920:	64040020 	strvs	r0, [r4], #-32
    3924:	00746e69 	rsbseq	r6, r4, r9, ror #28

00003928 <Code_960>:
    3928:	b672      	cpsid	i
    392a:	4770      	bx	lr

0000392c <Dictionary_961>:
    392c:	00003944 	andeq	r3, r0, r4, asr #18
    3930:	69040020 	stmdbvs	r4, {r5}
    3934:	00727370 	rsbseq	r7, r2, r0, ror r3

00003938 <Code_961>:
    3938:	3f04      	subs	r7, #4
    393a:	603e      	str	r6, [r7, #0]
    393c:	f3ef 8605 	mrs	r6, IPSR
    3940:	4770      	bx	lr
    3942:	46c0      	nop			; (mov r8, r8)

00003944 <Dictionary_963>:
    3944:	00003950 	andeq	r3, r0, r0, asr r9
    3948:	6e030000 	cdpvs	0, 0, cr0, cr3, cr0, {0}
    394c:	4770706f 	ldrbmi	r7, [r0, -pc, rrx]!

0000394e <Code_963>:
    394e:	4770      	bx	lr

00003950 <Dictionary_964>:
    3950:	00003994 	muleq	r0, r4, r9
    3954:	75090000 	strvc	r0, [r9]
    3958:	6e61686e 	cdpvs	8, 6, cr6, cr1, cr14, {3}
    395c:	64656c64 	strbtvs	r6, [r5], #-3172	; 0xc64

00003960 <Code_964>:
    3960:	b500      	push	{lr}
    3962:	f7fe f8f1 	bl	1b48 <dotgaensefuesschen>
    3966:	686e5514 	stmdavs	lr!, {r2, r4, r8, sl, ip, lr}^
    396a:	6c646e61 	stclvs	14, cr6, [r4], #-388	; 0xfffffe7c
    396e:	49206465 	stmdbmi	r0!, {r0, r2, r5, r6, sl, sp, lr}
    3972:	7265746e 	rsbvc	r7, r5, #1845493760	; 0x6e000000
    3976:	74707572 	ldrbtvc	r7, [r0], #-1394	; 0x572
    397a:	3f040020 	svccc	0x00040020
    397e:	603e      	str	r6, [r7, #0]
    3980:	f3ef 8605 	mrs	r6, IPSR
    3984:	f7fe f958 	bl	1c38 <Code_394>
    3988:	f7fe f8de 	bl	1b48 <dotgaensefuesschen>
    398c:	000a2102 	andeq	r2, sl, r2, lsl #2
    3990:	bd00      	pop	{pc}
    3992:	46c0      	nop			; (mov r8, r8)

00003994 <Dictionary_968>:
    3994:	000039a8 	andeq	r3, r0, r8, lsr #19
    3998:	72050000 	andvc	r0, r5, #0
    399c:	74657365 	strbtvc	r7, [r5], #-869	; 0x365

000039a0 <Code_968>:
    39a0:	4884      	ldr	r0, [pc, #528]	; (3bb4 <init_name+0x4>)
    39a2:	4985      	ldr	r1, [pc, #532]	; (3bb8 <init_name+0x8>)
    39a4:	6001      	str	r1, [r0, #0]
    39a6:	46c0      	nop			; (mov r8, r8)

000039a8 <Dictionary_970>:
    39a8:	000039cc 	andeq	r3, r0, ip, asr #19
    39ac:	690b0081 	stmdbvs	fp, {r0, r7}
    39b0:	732d7172 	teqvc	sp, #-2147483620	; 0x8000001c
    39b4:	69747379 	ldmdbvs	r4!, {r0, r3, r4, r5, r6, r8, r9, ip, sp, lr}^
    39b8:	3f046b63 	svccc	0x00046b63

000039ba <Code_970>:
    39ba:	3f04      	subs	r7, #4
    39bc:	603e      	str	r6, [r7, #0]
    39be:	4e7f      	ldr	r6, [pc, #508]	; (3bbc <init_name+0xc>)
    39c0:	4770      	bx	lr
    39c2:	00003960 	andeq	r3, r0, r0, ror #18

000039c6 <irq_vektor_systick>:
    39c6:	487d      	ldr	r0, [pc, #500]	; (3bbc <init_name+0xc>)
    39c8:	6800      	ldr	r0, [r0, #0]
    39ca:	4687      	mov	pc, r0

000039cc <Dictionary_974>:
    39cc:	000039f0 	strdeq	r3, [r0], -r0
    39d0:	69090081 	stmdbvs	r9, {r0, r7}
    39d4:	662d7172 			; <UNDEFINED> instruction: 0x662d7172
    39d8:	746c7561 	strbtvc	r7, [ip], #-1377	; 0x561

000039dc <Code_974>:
    39dc:	3f04      	subs	r7, #4
    39de:	603e      	str	r6, [r7, #0]
    39e0:	4e77      	ldr	r6, [pc, #476]	; (3bc0 <init_name+0x10>)
    39e2:	4770      	bx	lr
    39e4:	00003960 	andeq	r3, r0, r0, ror #18

000039e8 <faulthandler>:
    39e8:	4875      	ldr	r0, [pc, #468]	; (3bc0 <init_name+0x10>)
    39ea:	6800      	ldr	r0, [r0, #0]
    39ec:	4687      	mov	pc, r0
    39ee:	46c0      	nop			; (mov r8, r8)

000039f0 <Dictionary_978>:
    39f0:	00003a18 	andeq	r3, r0, r8, lsl sl
    39f4:	690e0081 	stmdbvs	lr, {r0, r7}
    39f8:	632d7172 	teqvs	sp, #-2147483620	; 0x8000001c
    39fc:	656c6c6f 	strbvs	r6, [ip, #-3183]!	; 0xc6f
    3a00:	6f697463 	svcvs	0x00697463
    3a04:	3f04006e 	svccc	0x0004006e

00003a06 <Code_978>:
    3a06:	3f04      	subs	r7, #4
    3a08:	603e      	str	r6, [r7, #0]
    3a0a:	4e6e      	ldr	r6, [pc, #440]	; (3bc4 <init_name+0x14>)
    3a0c:	4770      	bx	lr
    3a0e:	00003960 	andeq	r3, r0, r0, ror #18

00003a12 <nullhandler>:
    3a12:	486c      	ldr	r0, [pc, #432]	; (3bc4 <init_name+0x14>)
    3a14:	6800      	ldr	r0, [r0, #0]
    3a16:	4687      	mov	pc, r0

00003a18 <Dictionary_982>:
    3a18:	00003a38 	andeq	r3, r0, r8, lsr sl
    3a1c:	69070081 	stmdbvs	r7, {r0, r7}
    3a20:	612d7172 	teqvs	sp, r2, ror r1
    3a24:	3f046364 	svccc	0x00046364

00003a26 <Code_982>:
    3a26:	3f04      	subs	r7, #4
    3a28:	603e      	str	r6, [r7, #0]
    3a2a:	4e67      	ldr	r6, [pc, #412]	; (3bc8 <init_name+0x18>)
    3a2c:	4770      	bx	lr
    3a2e:	00003960 	andeq	r3, r0, r0, ror #18

00003a32 <irq_vektor_adc>:
    3a32:	4865      	ldr	r0, [pc, #404]	; (3bc8 <init_name+0x18>)
    3a34:	6800      	ldr	r0, [r0, #0]
    3a36:	4687      	mov	pc, r0

00003a38 <Dictionary_986>:
    3a38:	00003a58 	andeq	r3, r0, r8, asr sl
    3a3c:	69070081 	stmdbvs	r7, {r0, r7}
    3a40:	692d7172 	pushvs	{r1, r4, r5, r6, r8, ip, sp, lr}
    3a44:	3f046332 	svccc	0x00046332

00003a46 <Code_986>:
    3a46:	3f04      	subs	r7, #4
    3a48:	603e      	str	r6, [r7, #0]
    3a4a:	4e60      	ldr	r6, [pc, #384]	; (3bcc <init_name+0x1c>)
    3a4c:	4770      	bx	lr
    3a4e:	00003960 	andeq	r3, r0, r0, ror #18

00003a52 <irq_vektor_i2c>:
    3a52:	485e      	ldr	r0, [pc, #376]	; (3bcc <init_name+0x1c>)
    3a54:	6800      	ldr	r0, [r0, #0]
    3a56:	4687      	mov	pc, r0

00003a58 <Dictionary_990>:
    3a58:	00003a7c 	andeq	r3, r0, ip, ror sl
    3a5c:	69080081 	stmdbvs	r8, {r0, r7}
    3a60:	752d7172 	strvc	r7, [sp, #-370]!	; 0x172
    3a64:	00747261 	rsbseq	r7, r4, r1, ror #4

00003a68 <Code_990>:
    3a68:	3f04      	subs	r7, #4
    3a6a:	603e      	str	r6, [r7, #0]
    3a6c:	4e58      	ldr	r6, [pc, #352]	; (3bd0 <init_name+0x20>)
    3a6e:	4770      	bx	lr
    3a70:	00003960 	andeq	r3, r0, r0, ror #18

00003a74 <irq_vektor_uart>:
    3a74:	4856      	ldr	r0, [pc, #344]	; (3bd0 <init_name+0x20>)
    3a76:	6800      	ldr	r0, [r0, #0]
    3a78:	4687      	mov	pc, r0
    3a7a:	46c0      	nop			; (mov r8, r8)

00003a7c <Dictionary_993>:
    3a7c:	0000400c 	andeq	r4, r0, ip
    3a80:	2d18ffff 	ldccs	15, cr15, [r8, #-1020]	; 0xfffffc04
    3a84:	46202d2d 	strtmi	r2, [r0], -sp, lsr #26
    3a88:	6873616c 	ldmdavs	r3!, {r2, r3, r5, r6, r8, sp, lr}^
    3a8c:	63694420 	cmnvs	r9, #536870912	; 0x20000000
    3a90:	6e6f6974 	mcrvs	9, 3, r6, cr15, cr4, {3}
    3a94:	20797261 	rsbscs	r7, r9, r1, ror #4
    3a98:	002d2d2d 	eoreq	r2, sp, sp, lsr #26

00003a9c <Code_993>:
    3a9c:	f7fd fded 	bl	167a <uart_init>
    3aa0:	484c      	ldr	r0, [pc, #304]	; (3bd4 <init_name+0x24>)
    3aa2:	4685      	mov	sp, r0
    3aa4:	4f4c      	ldr	r7, [pc, #304]	; (3bd8 <init_name+0x28>)
    3aa6:	262a      	movs	r6, #42	; 0x2a
    3aa8:	484c      	ldr	r0, [pc, #304]	; (3bdc <init_name+0x2c>)
    3aaa:	494d      	ldr	r1, [pc, #308]	; (3be0 <init_name+0x30>)
    3aac:	6001      	str	r1, [r0, #0]
    3aae:	484d      	ldr	r0, [pc, #308]	; (3be4 <init_name+0x34>)
    3ab0:	494d      	ldr	r1, [pc, #308]	; (3be8 <init_name+0x38>)
    3ab2:	6001      	str	r1, [r0, #0]
    3ab4:	3f04      	subs	r7, #4
    3ab6:	603e      	str	r6, [r7, #0]
    3ab8:	4e4b      	ldr	r6, [pc, #300]	; (3be8 <init_name+0x38>)
    3aba:	4d4c      	ldr	r5, [pc, #304]	; (3bec <init_name+0x3c>)

00003abc <SucheFlashPointer_Hangelschleife>:
    3abc:	88b1      	ldrh	r1, [r6, #4]
    3abe:	4b4c      	ldr	r3, [pc, #304]	; (3bf0 <init_name+0x40>)
    3ac0:	4299      	cmp	r1, r3
    3ac2:	d024      	beq.n	3b0e <Sucheflashpointer_Speicherbelegung_fertig>
    3ac4:	4b4b      	ldr	r3, [pc, #300]	; (3bf4 <init_name+0x44>)
    3ac6:	400b      	ands	r3, r1
    3ac8:	d00a      	beq.n	3ae0 <SucheFlashPointer_Hangelschleife+0x24>
    3aca:	1db0      	adds	r0, r6, #6
    3acc:	f7ff f810 	bl	2af0 <skipstring>
    3ad0:	f7fe fb61 	bl	2196 <suchedefinitionsende>
    3ad4:	8803      	ldrh	r3, [r0, #0]
    3ad6:	8840      	ldrh	r0, [r0, #2]
    3ad8:	0400      	lsls	r0, r0, #16
    3ada:	4303      	orrs	r3, r0
    3adc:	1aed      	subs	r5, r5, r3
    3ade:	e016      	b.n	3b0e <Sucheflashpointer_Speicherbelegung_fertig>
    3ae0:	2380      	movs	r3, #128	; 0x80
    3ae2:	400b      	ands	r3, r1
    3ae4:	d013      	beq.n	3b0e <Sucheflashpointer_Speicherbelegung_fertig>
    3ae6:	230f      	movs	r3, #15
    3ae8:	4019      	ands	r1, r3
    3aea:	0089      	lsls	r1, r1, #2
    3aec:	1a6d      	subs	r5, r5, r1
    3aee:	1db0      	adds	r0, r6, #6
    3af0:	f7fe fffe 	bl	2af0 <skipstring>
    3af4:	f7fe fb4f 	bl	2196 <suchedefinitionsende>
    3af8:	3f04      	subs	r7, #4
    3afa:	603e      	str	r6, [r7, #0]
    3afc:	0006      	movs	r6, r0
    3afe:	3f04      	subs	r7, #4
    3b00:	603e      	str	r6, [r7, #0]
    3b02:	002e      	movs	r6, r5
    3b04:	3f04      	subs	r7, #4
    3b06:	603e      	str	r6, [r7, #0]
    3b08:	000e      	movs	r6, r1
    3b0a:	f7fd f97f 	bl	e0c <Code_183>

00003b0e <Sucheflashpointer_Speicherbelegung_fertig>:
    3b0e:	f7fe ffcc 	bl	2aaa <Code_668>
    3b12:	0030      	movs	r0, r6
    3b14:	cf40      	ldmia	r7!, {r6}
    3b16:	d0d1      	beq.n	3abc <SucheFlashPointer_Hangelschleife>
    3b18:	4837      	ldr	r0, [pc, #220]	; (3bf8 <init_name+0x48>)
    3b1a:	6006      	str	r6, [r0, #0]
    3b1c:	cf40      	ldmia	r7!, {r6}
    3b1e:	4837      	ldr	r0, [pc, #220]	; (3bfc <init_name+0x4c>)
    3b20:	6005      	str	r5, [r0, #0]
    3b22:	4837      	ldr	r0, [pc, #220]	; (3c00 <init_name+0x50>)
    3b24:	4937      	ldr	r1, [pc, #220]	; (3c04 <init_name+0x54>)
    3b26:	4a32      	ldr	r2, [pc, #200]	; (3bf0 <init_name+0x40>)
    3b28:	4288      	cmp	r0, r1
    3b2a:	d004      	beq.n	3b36 <Sucheflashpointer_Speicherbelegung_fertig+0x28>
    3b2c:	3802      	subs	r0, #2
    3b2e:	8803      	ldrh	r3, [r0, #0]
    3b30:	4293      	cmp	r3, r2
    3b32:	d0f9      	beq.n	3b28 <Sucheflashpointer_Speicherbelegung_fertig+0x1a>
    3b34:	3002      	adds	r0, #2
    3b36:	4934      	ldr	r1, [pc, #208]	; (3c08 <init_name+0x58>)
    3b38:	6008      	str	r0, [r1, #0]
    3b3a:	f7fd fbe9 	bl	1310 <Code_234>
    3b3e:	f7fe f803 	bl	1b48 <dotgaensefuesschen>
    3b42:	63654d47 	cmnvs	r5, #4544	; 0x11c0
    3b46:	70736972 	rsbsvc	r6, r3, r2, ror r9
    3b4a:	6574532d 	ldrbvs	r5, [r4, #-813]!	; 0x32d
    3b4e:	72616c6c 	rsbvc	r6, r1, #27648	; 0x6c00
    3b52:	32207369 	eorcc	r7, r0, #-1543503871	; 0xa4000001
    3b56:	312e322e 	teqcc	lr, lr, lsr #4
    3b5a:	74697720 	strbtvc	r7, [r9], #-1824	; 0x720
    3b5e:	304d2068 	subcc	r2, sp, r8, rrx
    3b62:	726f6320 	rsbvc	r6, pc, #-2147483648	; 0x80000000
    3b66:	6f662065 	svcvs	0x00662065
    3b6a:	504c2072 	subpl	r2, ip, r2, ror r0
    3b6e:	31313143 	teqcc	r1, r3, asr #2
    3b72:	44424635 	strbmi	r4, [r2], #-1589	; 0x635
    3b76:	62203834 	eorvs	r3, r0, #3407872	; 0x340000
    3b7a:	614d2079 	hvcvs	53769	; 0xd209
    3b7e:	69687474 	stmdbvs	r8!, {r2, r4, r5, r6, sl, ip, sp, lr}^
    3b82:	4b207361 	blmi	82090e <BIT23+0x2090e>
    3b86:	0a68636f 	beq	1a1c94a <BIT24+0xa1c94a>
    3b8a:	4820      	ldr	r0, [pc, #128]	; (3c0c <init_name+0x5c>)
    3b8c:	2100      	movs	r1, #0
    3b8e:	6001      	str	r1, [r0, #0]
    3b90:	3f04      	subs	r7, #4
    3b92:	603e      	str	r6, [r7, #0]
    3b94:	4e1e      	ldr	r6, [pc, #120]	; (3c10 <init_name+0x60>)
    3b96:	3f04      	subs	r7, #4
    3b98:	603e      	str	r6, [r7, #0]
    3b9a:	2604      	movs	r6, #4
    3b9c:	f7fe ffb8 	bl	2b10 <Code_673>
    3ba0:	cf40      	ldmia	r7!, {r6}
    3ba2:	2e00      	cmp	r6, #0
    3ba4:	d002      	beq.n	3bac <Sucheflashpointer_Speicherbelegung_fertig+0x9e>
    3ba6:	f7fe fb7c 	bl	22a2 <Code_521>
    3baa:	e67c      	b.n	38a6 <quit_intern>
    3bac:	cf40      	ldmia	r7!, {r6}
    3bae:	e667      	b.n	3880 <Code_955>

00003bb0 <init_name>:
    3bb0:	74696e69 	strbtvc	r6, [r9], #-3689	; 0xe69
    3bb4:	e000ed0c 	and	lr, r0, ip, lsl #26
    3bb8:	05fa0004 	ldrbeq	r0, [sl, #4]!
    3bbc:	10001fac 	andne	r1, r0, ip, lsr #31
    3bc0:	10001fa8 	andne	r1, r0, r8, lsr #31
    3bc4:	10001fa4 	andne	r1, r0, r4, lsr #31
    3bc8:	10001fa0 	andne	r1, r0, r0, lsr #31
    3bcc:	10001f9c 	mulne	r0, ip, pc	; <UNPREDICTABLE>
    3bd0:	10001f98 	mulne	r0, r8, pc	; <UNPREDICTABLE>
    3bd4:	10000430 	andne	r0, r0, r0, lsr r4
    3bd8:	10000330 	andne	r0, r0, r0, lsr r3
    3bdc:	10000000 	andne	r0, r0, r0
    3be0:	100006d4 	ldrdne	r0, [r0], -r4
    3be4:	10000004 	andne	r0, r0, r4
    3be8:	00000300 	andeq	r0, r0, r0, lsl #6
    3bec:	10001fe0 	andne	r1, r0, r0, ror #31
    3bf0:	0000ffff 	strdeq	pc, [r0], -pc	; <UNPREDICTABLE>
    3bf4:	00000100 	andeq	r0, r0, r0, lsl #2
    3bf8:	1000001c 	andne	r0, r0, ip, lsl r0
    3bfc:	10000024 	andne	r0, r0, r4, lsr #32
    3c00:	00010000 	andeq	r0, r1, r0
    3c04:	00004000 	andeq	r4, r0, r0
    3c08:	10000018 	andne	r0, r0, r8, lsl r0
    3c0c:	10000008 	andne	r0, r0, r8
    3c10:	00003bb0 			; <UNDEFINED> instruction: 0x00003bb0

Disassembly of section .ARM.attributes:

00000000 <.ARM.attributes>:
   0:	00002241 	andeq	r2, r0, r1, asr #4
   4:	61656100 	cmnvs	r5, r0, lsl #2
   8:	01006962 	tsteq	r0, r2, ror #18
   c:	00000018 	andeq	r0, r0, r8, lsl r0
  10:	726f4305 	rsbvc	r4, pc, #335544320	; 0x14000000
  14:	2d786574 	cfldr64cs	mvdx6, [r8, #-464]!	; 0xfffffe30
  18:	0600304d 	streq	r3, [r0], -sp, asr #32
  1c:	094d070c 	stmdbeq	sp, {r2, r3, r8, r9, sl}^
  20:	Address 0x00000020 is out of bounds.

