
mecrisp-stellaris-tm4c1294.elf:     file format elf32-littlearm


Disassembly of section .text:

00000000 <CoreDictionaryAnfang-0x1fc>:
       0:	2000038c 	andcs	r0, r0, ip, lsl #7
       4:	00004ec3 	andeq	r4, r0, r3, asr #29
       8:	0000498b 	andeq	r4, r0, fp, lsl #19
       c:	0000498b 	andeq	r4, r0, fp, lsl #19
      10:	0000498b 	andeq	r4, r0, fp, lsl #19
      14:	0000498b 	andeq	r4, r0, fp, lsl #19
      18:	0000498b 	andeq	r4, r0, fp, lsl #19
	...
      2c:	000049bb 			; <UNDEFINED> instruction: 0x000049bb
      30:	000049bb 			; <UNDEFINED> instruction: 0x000049bb
      34:	00000000 	andeq	r0, r0, r0
      38:	000049bb 			; <UNDEFINED> instruction: 0x000049bb
      3c:	00004961 	andeq	r4, r0, r1, ror #18
      40:	00004a13 	andeq	r4, r0, r3, lsl sl
      44:	00004a3d 	andeq	r4, r0, sp, lsr sl
      48:	00004a67 	andeq	r4, r0, r7, ror #20
      4c:	00004a91 	muleq	r0, r1, sl
      50:	00004abb 			; <UNDEFINED> instruction: 0x00004abb
      54:	000049e9 	andeq	r4, r0, r9, ror #19
      58:	000049bb 			; <UNDEFINED> instruction: 0x000049bb
      5c:	000049bb 			; <UNDEFINED> instruction: 0x000049bb
      60:	000049bb 			; <UNDEFINED> instruction: 0x000049bb
      64:	000049bb 			; <UNDEFINED> instruction: 0x000049bb
      68:	000049bb 			; <UNDEFINED> instruction: 0x000049bb
      6c:	000049bb 			; <UNDEFINED> instruction: 0x000049bb
      70:	000049bb 			; <UNDEFINED> instruction: 0x000049bb
      74:	000049bb 			; <UNDEFINED> instruction: 0x000049bb
      78:	00004be5 	andeq	r4, r0, r5, ror #23
      7c:	00004c13 	andeq	r4, r0, r3, lsl ip
      80:	00004c3f 	andeq	r4, r0, pc, lsr ip
      84:	00004c6b 	andeq	r4, r0, fp, ror #24
      88:	000049bb 			; <UNDEFINED> instruction: 0x000049bb
      8c:	00004d45 	andeq	r4, r0, r5, asr #26
      90:	00004d6f 	andeq	r4, r0, pc, ror #26
      94:	00004d99 	muleq	r0, r9, sp
      98:	00004dc3 	andeq	r4, r0, r3, asr #27
      9c:	00004ded 	andeq	r4, r0, sp, ror #27
      a0:	00004e17 	andeq	r4, r0, r7, lsl lr
      a4:	000049bb 			; <UNDEFINED> instruction: 0x000049bb
      a8:	000049bb 			; <UNDEFINED> instruction: 0x000049bb
      ac:	000049bb 			; <UNDEFINED> instruction: 0x000049bb
      b0:	000049bb 			; <UNDEFINED> instruction: 0x000049bb
      b4:	000049bb 			; <UNDEFINED> instruction: 0x000049bb
      b8:	00004ae5 	andeq	r4, r0, r5, ror #21
      bc:	00004b0f 	andeq	r4, r0, pc, lsl #22
      c0:	00004b39 	andeq	r4, r0, r9, lsr fp
      c4:	000049bb 			; <UNDEFINED> instruction: 0x000049bb
      c8:	000049bb 			; <UNDEFINED> instruction: 0x000049bb
      cc:	00004e41 	andeq	r4, r0, r1, asr #28
      d0:	00004e6b 	andeq	r4, r0, fp, ror #28
      d4:	000049bb 			; <UNDEFINED> instruction: 0x000049bb
      d8:	000049bb 			; <UNDEFINED> instruction: 0x000049bb
      dc:	000049bb 			; <UNDEFINED> instruction: 0x000049bb
      e0:	00004e97 	muleq	r0, r7, lr
      e4:	000049bb 			; <UNDEFINED> instruction: 0x000049bb
      e8:	000049bb 			; <UNDEFINED> instruction: 0x000049bb
      ec:	000049bb 			; <UNDEFINED> instruction: 0x000049bb
      f0:	000049bb 			; <UNDEFINED> instruction: 0x000049bb
      f4:	000049bb 			; <UNDEFINED> instruction: 0x000049bb
      f8:	00004c97 	muleq	r0, r7, ip
      fc:	00004cc3 	andeq	r4, r0, r3, asr #25
     100:	00004cef 	andeq	r4, r0, pc, ror #25
     104:	00004d1b 	andeq	r4, r0, fp, lsl sp
     108:	000049bb 			; <UNDEFINED> instruction: 0x000049bb
     10c:	00004b63 	andeq	r4, r0, r3, ror #22
     110:	00004b8d 	andeq	r4, r0, sp, lsl #23
     114:	00004bb7 			; <UNDEFINED> instruction: 0x00004bb7
     118:	000049bb 			; <UNDEFINED> instruction: 0x000049bb
     11c:	000049bb 			; <UNDEFINED> instruction: 0x000049bb
     120:	000049bb 			; <UNDEFINED> instruction: 0x000049bb
     124:	000049bb 			; <UNDEFINED> instruction: 0x000049bb
     128:	000049bb 			; <UNDEFINED> instruction: 0x000049bb
     12c:	000049bb 			; <UNDEFINED> instruction: 0x000049bb
     130:	000049bb 			; <UNDEFINED> instruction: 0x000049bb
     134:	000049bb 			; <UNDEFINED> instruction: 0x000049bb
     138:	000049bb 			; <UNDEFINED> instruction: 0x000049bb
     13c:	000049bb 			; <UNDEFINED> instruction: 0x000049bb
     140:	000049bb 			; <UNDEFINED> instruction: 0x000049bb
     144:	000049bb 			; <UNDEFINED> instruction: 0x000049bb
     148:	000049bb 			; <UNDEFINED> instruction: 0x000049bb
     14c:	000049bb 			; <UNDEFINED> instruction: 0x000049bb
	...
     158:	000049bb 			; <UNDEFINED> instruction: 0x000049bb
     15c:	000049bb 			; <UNDEFINED> instruction: 0x000049bb
     160:	000049bb 			; <UNDEFINED> instruction: 0x000049bb
     164:	000049bb 			; <UNDEFINED> instruction: 0x000049bb
     168:	00000000 	andeq	r0, r0, r0
     16c:	000049bb 			; <UNDEFINED> instruction: 0x000049bb
     170:	000049bb 			; <UNDEFINED> instruction: 0x000049bb
     174:	000049bb 			; <UNDEFINED> instruction: 0x000049bb
     178:	000049bb 			; <UNDEFINED> instruction: 0x000049bb
     17c:	000049bb 			; <UNDEFINED> instruction: 0x000049bb
     180:	000049bb 			; <UNDEFINED> instruction: 0x000049bb
     184:	000049bb 			; <UNDEFINED> instruction: 0x000049bb
     188:	000049bb 			; <UNDEFINED> instruction: 0x000049bb
     18c:	000049bb 			; <UNDEFINED> instruction: 0x000049bb
     190:	000049bb 			; <UNDEFINED> instruction: 0x000049bb
     194:	000049bb 			; <UNDEFINED> instruction: 0x000049bb
     198:	000049bb 			; <UNDEFINED> instruction: 0x000049bb
     19c:	000049bb 			; <UNDEFINED> instruction: 0x000049bb
     1a0:	000049bb 			; <UNDEFINED> instruction: 0x000049bb
     1a4:	000049bb 			; <UNDEFINED> instruction: 0x000049bb
     1a8:	000049bb 			; <UNDEFINED> instruction: 0x000049bb
     1ac:	000049bb 			; <UNDEFINED> instruction: 0x000049bb
	...
     1c8:	000049bb 			; <UNDEFINED> instruction: 0x000049bb
     1cc:	000049bb 			; <UNDEFINED> instruction: 0x000049bb
     1d0:	000049bb 			; <UNDEFINED> instruction: 0x000049bb
     1d4:	000049bb 			; <UNDEFINED> instruction: 0x000049bb
     1d8:	000049bb 			; <UNDEFINED> instruction: 0x000049bb
     1dc:	000049bb 			; <UNDEFINED> instruction: 0x000049bb
	...
     1f4:	000049bb 			; <UNDEFINED> instruction: 0x000049bb
     1f8:	000049bb 			; <UNDEFINED> instruction: 0x000049bb

000001fc <CoreDictionaryAnfang>:
     1fc:	00000638 	andeq	r0, r0, r8, lsr r6
     200:	2d1effff 	ldccs	15, cr15, [lr, #-1020]	; 0xfffffc04
     204:	4d202d2d 	stcmi	13, cr2, [r0, #-180]!	; 0xffffff4c
     208:	69726365 	ldmdbvs	r2!, {r0, r2, r5, r6, r8, r9, sp, lr}^
     20c:	532d7073 	teqpl	sp, #115	; 0x73
     210:	6c6c6574 	cfstr64vs	mvdx6, [ip], #-464	; 0xfffffe30
     214:	73697261 	cmnvc	r9, #268435462	; 0x10000006
     218:	726f4320 	rsbvc	r4, pc, #-2147483648	; 0x80000000
     21c:	2d2d2065 	stccs	0, cr2, [sp, #-404]!	; 0xfffffe6c
     220:	b507002d 	strlt	r0, [r7, #-45]	; 0x2d

00000222 <Code_31>:
     222:	b507      	push	{r0, r1, r2, lr}
     224:	488f      	ldr	r0, [pc, #572]	; (464 <r0_unfrei+0x18>)
     226:	2b00      	cmp	r3, #0
     228:	d009      	beq.n	23e <Code_31+0x1c>
     22a:	f000 f83b 	bl	2a4 <free_5os_element>
     22e:	f000 f841 	bl	2b4 <elemente_einen_weiterrutschen_lassen>
     232:	f000 f827 	bl	284 <nget_faltkonstante>
     236:	6042      	str	r2, [r0, #4]
     238:	2128      	movs	r1, #40	; 0x28
     23a:	6001      	str	r1, [r0, #0]
     23c:	e7f3      	b.n	226 <Code_31+0x4>
     23e:	bd07      	pop	{r0, r1, r2, pc}

00000240 <nfaltkonstanten_aufschwimmen>:
     240:	b500      	push	{lr}
     242:	4888      	ldr	r0, [pc, #544]	; (464 <r0_unfrei+0x18>)
     244:	2300      	movs	r3, #0
     246:	6801      	ldr	r1, [r0, #0]
     248:	2928      	cmp	r1, #40	; 0x28
     24a:	d105      	bne.n	258 <nfaltkonstanten_aufschwimmen+0x18>
     24c:	6842      	ldr	r2, [r0, #4]
     24e:	f000 f804 	bl	25a <npush_faltkonstante>
     252:	f000 f84c 	bl	2ee <eliminiere_tos>
     256:	e7f6      	b.n	246 <nfaltkonstanten_aufschwimmen+0x6>
     258:	bd00      	pop	{pc}

0000025a <npush_faltkonstante>:
     25a:	b503      	push	{r0, r1, lr}
     25c:	f847 6d04 	str.w	r6, [r7, #-4]!
     260:	0016      	movs	r6, r2
     262:	f847 6d04 	str.w	r6, [r7, #-4]!
     266:	001e      	movs	r6, r3
     268:	b408      	push	{r3}
     26a:	f000 ffb5 	bl	11d8 <Code_231>
     26e:	bc08      	pop	{r3}
     270:	3301      	adds	r3, #1
     272:	f847 6d04 	str.w	r6, [r7, #-4]!
     276:	4e7c      	ldr	r6, [pc, #496]	; (468 <r0_unfrei+0x1c>)
     278:	f847 6d04 	str.w	r6, [r7, #-4]!
     27c:	4e7b      	ldr	r6, [pc, #492]	; (46c <r0_unfrei+0x20>)
     27e:	f004 f9b0 	bl	45e2 <add_to_inline_cache>
     282:	bd03      	pop	{r0, r1, pc}

00000284 <nget_faltkonstante>:
     284:	b503      	push	{r0, r1, lr}
     286:	3b01      	subs	r3, #1
     288:	f847 6d04 	str.w	r6, [r7, #-4]!
     28c:	001e      	movs	r6, r3
     28e:	b408      	push	{r3}
     290:	f000 ff8c 	bl	11ac <Code_229>
     294:	bc08      	pop	{r3}
     296:	0032      	movs	r2, r6
     298:	f847 6d04 	str.w	r6, [r7, #-4]!
     29c:	4e74      	ldr	r6, [pc, #464]	; (470 <r0_unfrei+0x24>)
     29e:	f004 f9a0 	bl	45e2 <add_to_inline_cache>
     2a2:	bd03      	pop	{r0, r1, pc}

000002a4 <free_5os_element>:
     2a4:	b503      	push	{r0, r1, lr}
     2a6:	4873      	ldr	r0, [pc, #460]	; (474 <r0_unfrei+0x28>)
     2a8:	6801      	ldr	r1, [r0, #0]
     2aa:	291e      	cmp	r1, #30
     2ac:	d001      	beq.n	2b2 <free_5os_element+0xe>
     2ae:	f000 f834 	bl	31a <element_to_stack>
     2b2:	bd03      	pop	{r0, r1, pc}

000002b4 <elemente_einen_weiterrutschen_lassen>:
     2b4:	6981      	ldr	r1, [r0, #24]
     2b6:	6201      	str	r1, [r0, #32]
     2b8:	6901      	ldr	r1, [r0, #16]
     2ba:	6181      	str	r1, [r0, #24]
     2bc:	6881      	ldr	r1, [r0, #8]
     2be:	6101      	str	r1, [r0, #16]
     2c0:	6801      	ldr	r1, [r0, #0]
     2c2:	6081      	str	r1, [r0, #8]
     2c4:	69c1      	ldr	r1, [r0, #28]
     2c6:	6241      	str	r1, [r0, #36]	; 0x24
     2c8:	6941      	ldr	r1, [r0, #20]
     2ca:	61c1      	str	r1, [r0, #28]
     2cc:	68c1      	ldr	r1, [r0, #12]
     2ce:	6141      	str	r1, [r0, #20]
     2d0:	6841      	ldr	r1, [r0, #4]
     2d2:	60c1      	str	r1, [r0, #12]
     2d4:	211e      	movs	r1, #30
     2d6:	6001      	str	r1, [r0, #0]
     2d8:	4770      	bx	lr

000002da <befreie_tos>:
     2da:	b50f      	push	{r0, r1, r2, r3, lr}
     2dc:	4861      	ldr	r0, [pc, #388]	; (464 <r0_unfrei+0x18>)
     2de:	6801      	ldr	r1, [r0, #0]
     2e0:	291e      	cmp	r1, #30
     2e2:	d003      	beq.n	2ec <befreie_tos+0x12>
     2e4:	f7ff ffde 	bl	2a4 <free_5os_element>
     2e8:	f7ff ffe4 	bl	2b4 <elemente_einen_weiterrutschen_lassen>
     2ec:	bd0f      	pop	{r0, r1, r2, r3, pc}

000002ee <eliminiere_tos>:
     2ee:	b502      	push	{r1, lr}
     2f0:	6881      	ldr	r1, [r0, #8]
     2f2:	6001      	str	r1, [r0, #0]
     2f4:	68c1      	ldr	r1, [r0, #12]
     2f6:	6041      	str	r1, [r0, #4]
     2f8:	e000      	b.n	2fc <eliminiere_nos+0x2>

000002fa <eliminiere_nos>:
     2fa:	b502      	push	{r1, lr}
     2fc:	6901      	ldr	r1, [r0, #16]
     2fe:	6081      	str	r1, [r0, #8]
     300:	6941      	ldr	r1, [r0, #20]
     302:	60c1      	str	r1, [r0, #12]
     304:	6981      	ldr	r1, [r0, #24]
     306:	6101      	str	r1, [r0, #16]
     308:	69c1      	ldr	r1, [r0, #28]
     30a:	6141      	str	r1, [r0, #20]
     30c:	6a01      	ldr	r1, [r0, #32]
     30e:	6181      	str	r1, [r0, #24]
     310:	6a41      	ldr	r1, [r0, #36]	; 0x24
     312:	61c1      	str	r1, [r0, #28]
     314:	211e      	movs	r1, #30
     316:	6201      	str	r1, [r0, #32]
     318:	bd02      	pop	{r1, pc}

0000031a <element_to_stack>:
     31a:	b508      	push	{r3, lr}
     31c:	6801      	ldr	r1, [r0, #0]
     31e:	221e      	movs	r2, #30
     320:	6002      	str	r2, [r0, #0]
     322:	2908      	cmp	r1, #8
     324:	d201      	bcs.n	32a <element_to_stack+0x10>
     326:	000b      	movs	r3, r1
     328:	e004      	b.n	334 <element_to_stack+0x1a>
     32a:	2928      	cmp	r1, #40	; 0x28
     32c:	d109      	bne.n	342 <element_to_stack+0x28>
     32e:	6843      	ldr	r3, [r0, #4]
     330:	f000 f85b 	bl	3ea <generiere_konstante>
     334:	f847 6d04 	str.w	r6, [r7, #-4]!
     338:	4e4f      	ldr	r6, [pc, #316]	; (478 <r0_unfrei+0x2c>)
     33a:	ea56 3603 	orrs.w	r6, r6, r3, lsl #12
     33e:	f003 f82a 	bl	3396 <Code_820>
     342:	bd08      	pop	{r3, pc}

00000344 <tidyup_register_allocator>:
     344:	b500      	push	{lr}
     346:	f000 f809 	bl	35c <tidyup_register_allocator_5os>
     34a:	f000 f80c 	bl	366 <tidyup_register_allocator_4os>
     34e:	f000 f80f 	bl	370 <tidyup_register_allocator_3os>
     352:	f000 f812 	bl	37a <tidyup_register_allocator_nos>
     356:	f000 f815 	bl	384 <tidyup_register_allocator_tos>
     35a:	bd00      	pop	{pc}

0000035c <tidyup_register_allocator_5os>:
     35c:	b50f      	push	{r0, r1, r2, r3, lr}
     35e:	4845      	ldr	r0, [pc, #276]	; (474 <r0_unfrei+0x28>)
     360:	f7ff ffdb 	bl	31a <element_to_stack>
     364:	bd0f      	pop	{r0, r1, r2, r3, pc}

00000366 <tidyup_register_allocator_4os>:
     366:	b50f      	push	{r0, r1, r2, r3, lr}
     368:	4844      	ldr	r0, [pc, #272]	; (47c <r0_unfrei+0x30>)
     36a:	f7ff ffd6 	bl	31a <element_to_stack>
     36e:	bd0f      	pop	{r0, r1, r2, r3, pc}

00000370 <tidyup_register_allocator_3os>:
     370:	b50f      	push	{r0, r1, r2, r3, lr}
     372:	4843      	ldr	r0, [pc, #268]	; (480 <r0_unfrei+0x34>)
     374:	f7ff ffd1 	bl	31a <element_to_stack>
     378:	bd0f      	pop	{r0, r1, r2, r3, pc}

0000037a <tidyup_register_allocator_nos>:
     37a:	b50f      	push	{r0, r1, r2, r3, lr}
     37c:	4841      	ldr	r0, [pc, #260]	; (484 <r0_unfrei+0x38>)
     37e:	f7ff ffcc 	bl	31a <element_to_stack>
     382:	bd0f      	pop	{r0, r1, r2, r3, pc}

00000384 <tidyup_register_allocator_tos>:
     384:	b50f      	push	{r0, r1, r2, r3, lr}
     386:	4837      	ldr	r0, [pc, #220]	; (464 <r0_unfrei+0x18>)
     388:	6801      	ldr	r1, [r0, #0]
     38a:	2206      	movs	r2, #6
     38c:	6002      	str	r2, [r0, #0]
     38e:	291e      	cmp	r1, #30
     390:	d106      	bne.n	3a0 <tidyup_register_allocator_tos+0x1c>
     392:	f847 6d04 	str.w	r6, [r7, #-4]!
     396:	f64c 7640 	movw	r6, #53056	; 0xcf40
     39a:	f002 ffcd 	bl	3338 <Code_811>
     39e:	e015      	b.n	3cc <tidyup_finish>
     3a0:	2928      	cmp	r1, #40	; 0x28
     3a2:	d109      	bne.n	3b8 <tidyup_register_allocator_tos+0x34>
     3a4:	6843      	ldr	r3, [r0, #4]
     3a6:	f847 6d04 	str.w	r6, [r7, #-4]!
     3aa:	001e      	movs	r6, r3
     3ac:	f847 6d04 	str.w	r6, [r7, #-4]!
     3b0:	2606      	movs	r6, #6
     3b2:	f002 fc65 	bl	2c80 <Code_680>
     3b6:	e009      	b.n	3cc <tidyup_finish>
     3b8:	2906      	cmp	r1, #6
     3ba:	d007      	beq.n	3cc <tidyup_finish>
     3bc:	f847 6d04 	str.w	r6, [r7, #-4]!
     3c0:	f244 6606 	movw	r6, #17926	; 0x4606
     3c4:	00c9      	lsls	r1, r1, #3
     3c6:	430e      	orrs	r6, r1
     3c8:	f002 ffb6 	bl	3338 <Code_811>

000003cc <tidyup_finish>:
     3cc:	f000 f801 	bl	3d2 <init_register_allocator>
     3d0:	bd0f      	pop	{r0, r1, r2, r3, pc}

000003d2 <init_register_allocator>:
     3d2:	4824      	ldr	r0, [pc, #144]	; (464 <r0_unfrei+0x18>)
     3d4:	211e      	movs	r1, #30
     3d6:	6201      	str	r1, [r0, #32]
     3d8:	6181      	str	r1, [r0, #24]
     3da:	6101      	str	r1, [r0, #16]
     3dc:	6081      	str	r1, [r0, #8]
     3de:	62c1      	str	r1, [r0, #44]	; 0x2c
     3e0:	2106      	movs	r1, #6
     3e2:	6001      	str	r1, [r0, #0]
     3e4:	2100      	movs	r1, #0
     3e6:	6281      	str	r1, [r0, #40]	; 0x28
     3e8:	4770      	bx	lr

000003ea <generiere_konstante>:
     3ea:	b507      	push	{r0, r1, r2, lr}
     3ec:	f847 6d04 	str.w	r6, [r7, #-4]!
     3f0:	001e      	movs	r6, r3
     3f2:	f000 f849 	bl	488 <get_free_register>
     3f6:	f847 6d04 	str.w	r6, [r7, #-4]!
     3fa:	001e      	movs	r6, r3
     3fc:	f002 fc40 	bl	2c80 <Code_680>
     400:	bd07      	pop	{r0, r1, r2, pc}

00000402 <generiere_adresskonstante>:
     402:	b507      	push	{r0, r1, r2, lr}
     404:	6ac1      	ldr	r1, [r0, #44]	; 0x2c
     406:	2928      	cmp	r1, #40	; 0x28
     408:	d104      	bne.n	414 <generiere_adresskonstante+0x12>
     40a:	6b01      	ldr	r1, [r0, #48]	; 0x30
     40c:	4299      	cmp	r1, r3
     40e:	d101      	bne.n	414 <generiere_adresskonstante+0x12>
     410:	2300      	movs	r3, #0
     412:	bd07      	pop	{r0, r1, r2, pc}
     414:	6801      	ldr	r1, [r0, #0]
     416:	2900      	cmp	r1, #0
     418:	d018      	beq.n	44c <r0_unfrei>
     41a:	6881      	ldr	r1, [r0, #8]
     41c:	2900      	cmp	r1, #0
     41e:	d015      	beq.n	44c <r0_unfrei>
     420:	6901      	ldr	r1, [r0, #16]
     422:	2900      	cmp	r1, #0
     424:	d012      	beq.n	44c <r0_unfrei>
     426:	6981      	ldr	r1, [r0, #24]
     428:	2900      	cmp	r1, #0
     42a:	d00f      	beq.n	44c <r0_unfrei>
     42c:	6a01      	ldr	r1, [r0, #32]
     42e:	2900      	cmp	r1, #0
     430:	d00c      	beq.n	44c <r0_unfrei>
     432:	6303      	str	r3, [r0, #48]	; 0x30
     434:	f847 6d04 	str.w	r6, [r7, #-4]!
     438:	001e      	movs	r6, r3
     43a:	f847 6d04 	str.w	r6, [r7, #-4]!
     43e:	2600      	movs	r6, #0
     440:	f002 fc1e 	bl	2c80 <Code_680>
     444:	2128      	movs	r1, #40	; 0x28
     446:	62c1      	str	r1, [r0, #44]	; 0x2c
     448:	2300      	movs	r3, #0
     44a:	bd07      	pop	{r0, r1, r2, pc}

0000044c <r0_unfrei>:
     44c:	f847 6d04 	str.w	r6, [r7, #-4]!
     450:	001e      	movs	r6, r3
     452:	f000 f819 	bl	488 <get_free_register>
     456:	f847 6d04 	str.w	r6, [r7, #-4]!
     45a:	001e      	movs	r6, r3
     45c:	f002 fc10 	bl	2c80 <Code_680>
     460:	bd07      	pop	{r0, r1, r2, pc}
     462:	00280000 	eoreq	r0, r8, r0
     466:	0f602000 	svceq	0x00602000
     46a:	02610000 	rsbeq	r0, r1, #0
     46e:	20000000 	andcs	r0, r0, r0
     472:	00480000 	subeq	r0, r8, r0
     476:	0d042000 	stceq	0, cr2, [r4]
     47a:	0040f847 	subeq	pc, r0, r7, asr #16
     47e:	00382000 	eorseq	r2, r8, r0
     482:	00302000 	eorseq	r2, r0, r0
     486:	b5372000 	ldrlt	r2, [r7]!

00000488 <get_free_register>:
     488:	b537      	push	{r0, r1, r2, r4, r5, lr}
     48a:	4836      	ldr	r0, [pc, #216]	; (564 <expect_four_elements+0x26>)
     48c:	6801      	ldr	r1, [r0, #0]
     48e:	6882      	ldr	r2, [r0, #8]
     490:	6903      	ldr	r3, [r0, #16]
     492:	6984      	ldr	r4, [r0, #24]
     494:	6a05      	ldr	r5, [r0, #32]
     496:	2006      	movs	r0, #6
     498:	f000 f80e 	bl	4b8 <get_free_register_intern>
     49c:	2003      	movs	r0, #3
     49e:	f000 f80b 	bl	4b8 <get_free_register_intern>
     4a2:	2002      	movs	r0, #2
     4a4:	f000 f808 	bl	4b8 <get_free_register_intern>
     4a8:	2001      	movs	r0, #1
     4aa:	f000 f805 	bl	4b8 <get_free_register_intern>
     4ae:	2300      	movs	r3, #0
     4b0:	482c      	ldr	r0, [pc, #176]	; (564 <expect_four_elements+0x26>)
     4b2:	211e      	movs	r1, #30
     4b4:	62c1      	str	r1, [r0, #44]	; 0x2c
     4b6:	bd37      	pop	{r0, r1, r2, r4, r5, pc}

000004b8 <get_free_register_intern>:
     4b8:	4281      	cmp	r1, r0
     4ba:	d009      	beq.n	4d0 <get_free_register_intern+0x18>
     4bc:	4282      	cmp	r2, r0
     4be:	d007      	beq.n	4d0 <get_free_register_intern+0x18>
     4c0:	4283      	cmp	r3, r0
     4c2:	d005      	beq.n	4d0 <get_free_register_intern+0x18>
     4c4:	4284      	cmp	r4, r0
     4c6:	d003      	beq.n	4d0 <get_free_register_intern+0x18>
     4c8:	4285      	cmp	r5, r0
     4ca:	d001      	beq.n	4d0 <get_free_register_intern+0x18>
     4cc:	0003      	movs	r3, r0
     4ce:	bd37      	pop	{r0, r1, r2, r4, r5, pc}
     4d0:	4770      	bx	lr

000004d2 <erstes_element_belegen>:
     4d2:	f847 6d04 	str.w	r6, [r7, #-4]!
     4d6:	f64c 7600 	movw	r6, #52992	; 0xcf00

000004da <element_belegen>:
     4da:	b500      	push	{lr}
     4dc:	5881      	ldr	r1, [r0, r2]
     4de:	291e      	cmp	r1, #30
     4e0:	d105      	bne.n	4ee <element_belegen+0x14>
     4e2:	f7ff ffd1 	bl	488 <get_free_register>
     4e6:	5083      	str	r3, [r0, r2]
     4e8:	2101      	movs	r1, #1
     4ea:	4099      	lsls	r1, r3
     4ec:	430e      	orrs	r6, r1
     4ee:	bd00      	pop	{pc}

000004f0 <expect_one_element>:
     4f0:	b500      	push	{lr}
     4f2:	6801      	ldr	r1, [r0, #0]
     4f4:	291e      	cmp	r1, #30
     4f6:	d104      	bne.n	502 <expect_one_element+0x12>
     4f8:	2200      	movs	r2, #0
     4fa:	f7ff ffea 	bl	4d2 <erstes_element_belegen>
     4fe:	f002 ff1b 	bl	3338 <Code_811>
     502:	bd00      	pop	{pc}

00000504 <expect_two_elements>:
     504:	b500      	push	{lr}
     506:	6881      	ldr	r1, [r0, #8]
     508:	291e      	cmp	r1, #30
     50a:	d107      	bne.n	51c <expect_two_elements+0x18>
     50c:	2208      	movs	r2, #8
     50e:	f7ff ffe0 	bl	4d2 <erstes_element_belegen>
     512:	2200      	movs	r2, #0
     514:	f7ff ffe1 	bl	4da <element_belegen>
     518:	f002 ff0e 	bl	3338 <Code_811>
     51c:	bd00      	pop	{pc}

0000051e <expect_three_elements>:
     51e:	b500      	push	{lr}
     520:	6901      	ldr	r1, [r0, #16]
     522:	291e      	cmp	r1, #30
     524:	d10a      	bne.n	53c <expect_three_elements+0x1e>
     526:	2210      	movs	r2, #16
     528:	f7ff ffd3 	bl	4d2 <erstes_element_belegen>
     52c:	2208      	movs	r2, #8
     52e:	f7ff ffd4 	bl	4da <element_belegen>
     532:	2200      	movs	r2, #0
     534:	f7ff ffd1 	bl	4da <element_belegen>
     538:	f002 fefe 	bl	3338 <Code_811>
     53c:	bd00      	pop	{pc}

0000053e <expect_four_elements>:
     53e:	b500      	push	{lr}
     540:	6981      	ldr	r1, [r0, #24]
     542:	291e      	cmp	r1, #30
     544:	d10d      	bne.n	562 <expect_four_elements+0x24>
     546:	2218      	movs	r2, #24
     548:	f7ff ffc3 	bl	4d2 <erstes_element_belegen>
     54c:	2210      	movs	r2, #16
     54e:	f7ff ffc4 	bl	4da <element_belegen>
     552:	2208      	movs	r2, #8
     554:	f7ff ffc1 	bl	4da <element_belegen>
     558:	2200      	movs	r2, #0
     55a:	f7ff ffbe 	bl	4da <element_belegen>
     55e:	f002 feeb 	bl	3338 <Code_811>
     562:	bd00      	pop	{pc}
     564:	20000028 	andcs	r0, r0, r8, lsr #32

00000568 <expect_tos_in_register>:
     568:	b500      	push	{lr}
     56a:	6801      	ldr	r1, [r0, #0]
     56c:	2928      	cmp	r1, #40	; 0x28
     56e:	d104      	bne.n	57a <expect_tos_in_register+0x12>
     570:	6843      	ldr	r3, [r0, #4]
     572:	f7ff ff3a 	bl	3ea <generiere_konstante>
     576:	6003      	str	r3, [r0, #0]
     578:	0019      	movs	r1, r3
     57a:	bd00      	pop	{pc}

0000057c <expect_nos_in_register>:
     57c:	b500      	push	{lr}
     57e:	6881      	ldr	r1, [r0, #8]
     580:	2928      	cmp	r1, #40	; 0x28
     582:	d104      	bne.n	58e <expect_nos_in_register+0x12>
     584:	68c3      	ldr	r3, [r0, #12]
     586:	f7ff ff30 	bl	3ea <generiere_konstante>
     58a:	6083      	str	r3, [r0, #8]
     58c:	0019      	movs	r1, r3
     58e:	bd00      	pop	{pc}

00000590 <expect_3os_in_register>:
     590:	b500      	push	{lr}
     592:	6901      	ldr	r1, [r0, #16]
     594:	2928      	cmp	r1, #40	; 0x28
     596:	d104      	bne.n	5a2 <expect_3os_in_register+0x12>
     598:	6943      	ldr	r3, [r0, #20]
     59a:	f7ff ff26 	bl	3ea <generiere_konstante>
     59e:	6103      	str	r3, [r0, #16]
     5a0:	0019      	movs	r1, r3
     5a2:	bd00      	pop	{pc}

000005a4 <nos_change_tos_away_later>:
     5a4:	b53e      	push	{r1, r2, r3, r4, r5, lr}
     5a6:	6882      	ldr	r2, [r0, #8]
     5a8:	6903      	ldr	r3, [r0, #16]
     5aa:	6984      	ldr	r4, [r0, #24]
     5ac:	6a05      	ldr	r5, [r0, #32]
     5ae:	429a      	cmp	r2, r3
     5b0:	d003      	beq.n	5ba <nos_change_tos_away_later+0x16>
     5b2:	42a2      	cmp	r2, r4
     5b4:	d001      	beq.n	5ba <nos_change_tos_away_later+0x16>
     5b6:	42aa      	cmp	r2, r5
     5b8:	d10a      	bne.n	5d0 <nos_change_tos_away_later+0x2c>
     5ba:	2a07      	cmp	r2, #7
     5bc:	d808      	bhi.n	5d0 <nos_change_tos_away_later+0x2c>
     5be:	f847 6d04 	str.w	r6, [r7, #-4]!
     5c2:	00d6      	lsls	r6, r2, #3
     5c4:	f7ff ff60 	bl	488 <get_free_register>
     5c8:	431e      	orrs	r6, r3
     5ca:	6083      	str	r3, [r0, #8]
     5cc:	f002 feb4 	bl	3338 <Code_811>
     5d0:	bd3e      	pop	{r1, r2, r3, r4, r5, pc}

000005d2 <make_tos_changeable>:
     5d2:	b53e      	push	{r1, r2, r3, r4, r5, lr}
     5d4:	6801      	ldr	r1, [r0, #0]
     5d6:	6882      	ldr	r2, [r0, #8]
     5d8:	6903      	ldr	r3, [r0, #16]
     5da:	6984      	ldr	r4, [r0, #24]
     5dc:	6a05      	ldr	r5, [r0, #32]
     5de:	4291      	cmp	r1, r2
     5e0:	d006      	beq.n	5f0 <make_tos_changeable+0x1e>
     5e2:	4299      	cmp	r1, r3
     5e4:	d004      	beq.n	5f0 <make_tos_changeable+0x1e>
     5e6:	42a1      	cmp	r1, r4
     5e8:	d002      	beq.n	5f0 <make_tos_changeable+0x1e>
     5ea:	42a9      	cmp	r1, r5
     5ec:	d000      	beq.n	5f0 <make_tos_changeable+0x1e>
     5ee:	bd3e      	pop	{r1, r2, r3, r4, r5, pc}
     5f0:	f847 6d04 	str.w	r6, [r7, #-4]!
     5f4:	00ce      	lsls	r6, r1, #3
     5f6:	f7ff ff47 	bl	488 <get_free_register>
     5fa:	431e      	orrs	r6, r3
     5fc:	6003      	str	r3, [r0, #0]
     5fe:	f002 fe9b 	bl	3338 <Code_811>
     602:	bd3e      	pop	{r1, r2, r3, r4, r5, pc}

00000604 <tos_registerwechsel>:
     604:	b500      	push	{lr}
     606:	f7ff fe72 	bl	2ee <eliminiere_tos>
     60a:	f7ff fe66 	bl	2da <befreie_tos>
     60e:	f7ff ff3b 	bl	488 <get_free_register>
     612:	6003      	str	r3, [r0, #0]
     614:	bd00      	pop	{pc}

00000616 <push_lr_nachholen>:
     616:	b501      	push	{r0, lr}
     618:	4806      	ldr	r0, [pc, #24]	; (634 <push_lr_nachholen+0x1e>)
     61a:	6803      	ldr	r3, [r0, #0]
     61c:	3301      	adds	r3, #1
     61e:	d008      	beq.n	632 <push_lr_nachholen+0x1c>
     620:	2300      	movs	r3, #0
     622:	43db      	mvns	r3, r3
     624:	6003      	str	r3, [r0, #0]
     626:	f847 6d04 	str.w	r6, [r7, #-4]!
     62a:	f24b 5600 	movw	r6, #46336	; 0xb500
     62e:	f002 fe83 	bl	3338 <Code_811>
     632:	bd01      	pop	{r0, pc}
     634:	2003ffd8 	ldrdcs	pc, [r3], -r8

00000638 <Dictionary_68>:
     638:	0000065c 	andeq	r0, r0, ip, asr r6
     63c:	32040242 	andcc	r0, r4, #536870916	; 0x20000004
     640:	00707564 	rsbseq	r7, r0, r4, ror #10

00000644 <Code_68>:
     644:	6838      	ldr	r0, [r7, #0]
     646:	f847 6d04 	str.w	r6, [r7, #-4]!
     64a:	3f04      	subs	r7, #4
     64c:	6038      	str	r0, [r7, #0]
     64e:	4770      	bx	lr
     650:	b500      	push	{lr}
     652:	f000 fcd7 	bl	1004 <over_allocator>
     656:	f000 fcd5 	bl	1004 <over_allocator>
     65a:	bd00      	pop	{pc}

0000065c <Dictionary_70>:
     65c:	0000067a 	andeq	r0, r0, sl, ror r6
     660:	32050262 	andcc	r0, r5, #536870918	; 0x20000006
     664:	706f7264 	rsbvc	r7, pc, r4, ror #4

00000668 <Code_70>:
     668:	3704      	adds	r7, #4
     66a:	cf40      	ldmia	r7!, {r6}
     66c:	4770      	bx	lr
     66e:	b500      	push	{lr}
     670:	f000 fc78 	bl	f64 <drop_allocator>
     674:	f000 fc76 	bl	f64 <drop_allocator>
     678:	bd00      	pop	{pc}

0000067a <Dictionary_72>:
     67a:	000006c0 	andeq	r0, r0, r0, asr #13
     67e:	32050244 	andcc	r0, r5, #1073741828	; 0x40000004
     682:	70617773 	rsbvc	r7, r1, r3, ror r7

00000686 <Code_72>:
     686:	cf07      	ldmia	r7!, {r0, r1, r2}
     688:	3f04      	subs	r7, #4
     68a:	6038      	str	r0, [r7, #0]
     68c:	f847 6d04 	str.w	r6, [r7, #-4]!
     690:	3f04      	subs	r7, #4
     692:	603a      	str	r2, [r7, #0]
     694:	000e      	movs	r6, r1
     696:	4770      	bx	lr

00000698 <dswap_allocator>:
     698:	b500      	push	{lr}
     69a:	f7ff ff50 	bl	53e <expect_four_elements>
     69e:	6802      	ldr	r2, [r0, #0]
     6a0:	6903      	ldr	r3, [r0, #16]
     6a2:	6003      	str	r3, [r0, #0]
     6a4:	6102      	str	r2, [r0, #16]
     6a6:	6842      	ldr	r2, [r0, #4]
     6a8:	6943      	ldr	r3, [r0, #20]
     6aa:	6043      	str	r3, [r0, #4]
     6ac:	6142      	str	r2, [r0, #20]
     6ae:	6882      	ldr	r2, [r0, #8]
     6b0:	6983      	ldr	r3, [r0, #24]
     6b2:	6083      	str	r3, [r0, #8]
     6b4:	6182      	str	r2, [r0, #24]
     6b6:	68c2      	ldr	r2, [r0, #12]
     6b8:	69c3      	ldr	r3, [r0, #28]
     6ba:	60c3      	str	r3, [r0, #12]
     6bc:	61c2      	str	r2, [r0, #28]
     6be:	bd00      	pop	{pc}

000006c0 <Dictionary_74>:
     6c0:	000006e8 	andeq	r0, r0, r8, ror #13
     6c4:	32040262 	andcc	r0, r4, #536870918	; 0x20000006
     6c8:	0070696e 	rsbseq	r6, r0, lr, ror #18

000006cc <Code_74>:
     6cc:	cf07      	ldmia	r7!, {r0, r1, r2}
     6ce:	3f04      	subs	r7, #4
     6d0:	6038      	str	r0, [r7, #0]
     6d2:	4770      	bx	lr
     6d4:	b500      	push	{lr}
     6d6:	f7ff ff32 	bl	53e <expect_four_elements>
     6da:	f7ff ffdd 	bl	698 <dswap_allocator>
     6de:	f7ff fe06 	bl	2ee <eliminiere_tos>
     6e2:	f7ff fe04 	bl	2ee <eliminiere_tos>
     6e6:	bd00      	pop	{pc}

000006e8 <Dictionary_75>:
     6e8:	00000702 	andeq	r0, r0, r2, lsl #14
     6ec:	32050044 	andcc	r0, r5, #68	; 0x44
     6f0:	7265766f 	rsbvc	r7, r5, #116391936	; 0x6f00000

000006f4 <Code_75>:
     6f4:	68b8      	ldr	r0, [r7, #8]
     6f6:	f847 6d04 	str.w	r6, [r7, #-4]!
     6fa:	3f04      	subs	r7, #4
     6fc:	6038      	str	r0, [r7, #0]
     6fe:	68fe      	ldr	r6, [r7, #12]
     700:	4770      	bx	lr

00000702 <Dictionary_77>:
     702:	00000726 	andeq	r0, r0, r6, lsr #14
     706:	32050044 	andcc	r0, r5, #68	; 0x44
     70a:	6b637574 	blvs	18ddce2 <BIT24+0x8ddce2>

0000070e <Code_77>:
     70e:	cf07      	ldmia	r7!, {r0, r1, r2}
     710:	3f04      	subs	r7, #4
     712:	6038      	str	r0, [r7, #0]
     714:	f847 6d04 	str.w	r6, [r7, #-4]!
     718:	3f04      	subs	r7, #4
     71a:	603a      	str	r2, [r7, #0]
     71c:	3f04      	subs	r7, #4
     71e:	6039      	str	r1, [r7, #0]
     720:	3f04      	subs	r7, #4
     722:	6038      	str	r0, [r7, #0]
     724:	4770      	bx	lr

00000726 <Dictionary_79>:
     726:	00000748 	andeq	r0, r0, r8, asr #14
     72a:	32040046 	andcc	r0, r4, #70	; 0x46
     72e:	00746f72 	rsbseq	r6, r4, r2, ror pc

00000732 <Code_79>:
     732:	6838      	ldr	r0, [r7, #0]
     734:	68b9      	ldr	r1, [r7, #8]
     736:	693a      	ldr	r2, [r7, #16]
     738:	60b8      	str	r0, [r7, #8]
     73a:	6139      	str	r1, [r7, #16]
     73c:	603a      	str	r2, [r7, #0]
     73e:	6879      	ldr	r1, [r7, #4]
     740:	607e      	str	r6, [r7, #4]
     742:	68fe      	ldr	r6, [r7, #12]
     744:	60f9      	str	r1, [r7, #12]
     746:	4770      	bx	lr

00000748 <Dictionary_80>:
     748:	0000076a 	andeq	r0, r0, sl, ror #14
     74c:	32050046 	andcc	r0, r5, #70	; 0x46
     750:	746f722d 	strbtvc	r7, [pc], #-557	; 758 <Code_80+0x4>

00000754 <Code_80>:
     754:	6838      	ldr	r0, [r7, #0]
     756:	68b9      	ldr	r1, [r7, #8]
     758:	693a      	ldr	r2, [r7, #16]
     75a:	6138      	str	r0, [r7, #16]
     75c:	6039      	str	r1, [r7, #0]
     75e:	60ba      	str	r2, [r7, #8]
     760:	68f9      	ldr	r1, [r7, #12]
     762:	60fe      	str	r6, [r7, #12]
     764:	687e      	ldr	r6, [r7, #4]
     766:	6079      	str	r1, [r7, #4]
     768:	4770      	bx	lr

0000076a <Dictionary_81>:
     76a:	00000792 	muleq	r0, r2, r7
     76e:	32030220 	andcc	r0, r3, #2
     772:	cf01723e 	svcgt	0x0001723e

00000774 <Code_81>:
     774:	cf01      	ldmia	r7!, {r0}
     776:	b401      	push	{r0}
     778:	b440      	push	{r6}
     77a:	cf40      	ldmia	r7!, {r6}
     77c:	4770      	bx	lr
     77e:	b500      	push	{lr}
     780:	f7ff ff49 	bl	616 <push_lr_nachholen>
     784:	f000 fc11 	bl	faa <swap_allocator>
     788:	f000 fcb1 	bl	10ee <allocator_to_r>
     78c:	f000 fcaf 	bl	10ee <allocator_to_r>
     790:	bd00      	pop	{pc}

00000792 <Dictionary_82>:
     792:	000007be 			; <UNDEFINED> instruction: 0x000007be
     796:	32030220 	andcc	r0, r3, #2
     79a:	f8473e72 			; <UNDEFINED> instruction: 0xf8473e72

0000079c <Code_82>:
     79c:	f847 6d04 	str.w	r6, [r7, #-4]!
     7a0:	bc40      	pop	{r6}
     7a2:	bc01      	pop	{r0}
     7a4:	3f04      	subs	r7, #4
     7a6:	6038      	str	r0, [r7, #0]
     7a8:	4770      	bx	lr
     7aa:	b500      	push	{lr}
     7ac:	f7ff ff33 	bl	616 <push_lr_nachholen>
     7b0:	f000 fcb9 	bl	1126 <allocator_r_from>
     7b4:	f000 fcb7 	bl	1126 <allocator_r_from>
     7b8:	f000 fbf7 	bl	faa <swap_allocator>
     7bc:	bd00      	pop	{pc}

000007be <Dictionary_84>:
     7be:	000007ee 	andeq	r0, r0, lr, ror #15
     7c2:	32030220 	andcc	r0, r3, #2
     7c6:	f8474072 			; <UNDEFINED> instruction: 0xf8474072

000007c8 <Code_84>:
     7c8:	f847 6d04 	str.w	r6, [r7, #-4]!
     7cc:	9e01      	ldr	r6, [sp, #4]
     7ce:	f847 6d04 	str.w	r6, [r7, #-4]!
     7d2:	9e00      	ldr	r6, [sp, #0]
     7d4:	4770      	bx	lr
     7d6:	b500      	push	{lr}
     7d8:	f7ff ff1d 	bl	616 <push_lr_nachholen>
     7dc:	f847 6d04 	str.w	r6, [r7, #-4]!
     7e0:	f649 0601 	movw	r6, #38913	; 0x9801
     7e4:	f003 fab7 	bl	3d56 <loop_j_allocator>
     7e8:	f003 fab1 	bl	3d4e <rfetch_allocator>
     7ec:	bd00      	pop	{pc}

000007ee <Dictionary_89>:
     7ee:	00000814 	andeq	r0, r0, r4, lsl r8
     7f2:	32060220 	andcc	r0, r6, #2
     7f6:	6f726472 	svcvs	0x00726472
     7fa:	b0020070 	andlt	r0, r2, r0, ror r0

000007fc <Code_89>:
     7fc:	b002      	add	sp, #8
     7fe:	4770      	bx	lr
     800:	b500      	push	{lr}
     802:	f7ff ff08 	bl	616 <push_lr_nachholen>
     806:	f847 6d04 	str.w	r6, [r7, #-4]!
     80a:	f24b 0602 	movw	r6, #45058	; 0xb002
     80e:	f002 fd93 	bl	3338 <Code_811>
     812:	bd00      	pop	{pc}

00000814 <Dictionary_92>:
     814:	0000082c 	andeq	r0, r0, ip, lsr #16
     818:	64030042 	strvs	r0, [r3], #-66	; 0x42
     81c:	68382f32 	ldmdavs	r8!, {r1, r4, r5, r8, r9, sl, fp, sp}

0000081e <Code_92>:
     81e:	6838      	ldr	r0, [r7, #0]
     820:	07f1      	lsls	r1, r6, #31
     822:	1076      	asrs	r6, r6, #1
     824:	0840      	lsrs	r0, r0, #1
     826:	4308      	orrs	r0, r1
     828:	6038      	str	r0, [r7, #0]
     82a:	4770      	bx	lr

0000082c <Dictionary_93>:
     82c:	00000842 	andeq	r0, r0, r2, asr #16
     830:	64030262 	strvs	r0, [r3], #-610	; 0x262
     834:	68382a32 	ldmdavs	r8!, {r1, r4, r5, r9, fp, sp}

00000836 <Code_93>:
     836:	6838      	ldr	r0, [r7, #0]
     838:	1800      	adds	r0, r0, r0
     83a:	4176      	adcs	r6, r6
     83c:	6038      	str	r0, [r7, #0]
     83e:	4770      	bx	lr
     840:	e017      	b.n	872 <Code_95+0xa>

00000842 <Dictionary_94>:
     842:	0000085c 	andeq	r0, r0, ip, asr r8
     846:	64040042 	strvs	r0, [r4], #-66	; 0x42
     84a:	00726873 	rsbseq	r6, r2, r3, ror r8

0000084e <Code_94>:
     84e:	6838      	ldr	r0, [r7, #0]
     850:	07f1      	lsls	r1, r6, #31
     852:	0876      	lsrs	r6, r6, #1
     854:	0840      	lsrs	r0, r0, #1
     856:	4308      	orrs	r0, r1
     858:	6038      	str	r0, [r7, #0]
     85a:	4770      	bx	lr

0000085c <Dictionary_95>:
     85c:	000008a8 	andeq	r0, r0, r8, lsr #17
     860:	64040262 	strvs	r0, [r4], #-610	; 0x262
     864:	006c6873 	rsbeq	r6, ip, r3, ror r8

00000868 <Code_95>:
     868:	6838      	ldr	r0, [r7, #0]
     86a:	1800      	adds	r0, r0, r0
     86c:	4176      	adcs	r6, r6
     86e:	6038      	str	r0, [r7, #0]
     870:	4770      	bx	lr
     872:	b500      	push	{lr}
     874:	f7ff fe46 	bl	504 <expect_two_elements>
     878:	f7ff fe76 	bl	568 <expect_tos_in_register>
     87c:	f7ff fea9 	bl	5d2 <make_tos_changeable>
     880:	f000 fb93 	bl	faa <swap_allocator>
     884:	f7ff fe70 	bl	568 <expect_tos_in_register>
     888:	f7ff fea3 	bl	5d2 <make_tos_changeable>
     88c:	f847 6d04 	str.w	r6, [r7, #-4]!
     890:	2640      	movs	r6, #64	; 0x40
     892:	f001 fcb3 	bl	21fc <smalltworegisters>
     896:	f000 fb88 	bl	faa <swap_allocator>
     89a:	f847 6d04 	str.w	r6, [r7, #-4]!
     89e:	f244 1640 	movw	r6, #16704	; 0x4140
     8a2:	f001 fcab 	bl	21fc <smalltworegisters>
     8a6:	bd00      	pop	{pc}

000008a8 <Dictionary_100>:
     8a8:	000008ba 			; <UNDEFINED> instruction: 0x000008ba
     8ac:	64040042 	strvs	r0, [r4], #-66	; 0x42
     8b0:	00736261 	rsbseq	r6, r3, r1, ror #4

000008b4 <Code_100>:
     8b4:	2e00      	cmp	r6, #0
     8b6:	d407      	bmi.n	8c8 <Code_101>
     8b8:	4770      	bx	lr

000008ba <Dictionary_101>:
     8ba:	000008d8 	ldrdeq	r0, [r0], -r8
     8be:	64070042 	strvs	r0, [r7], #-66	; 0x42
     8c2:	6167656e 	cmnvs	r7, lr, ror #10
     8c6:	68386574 	ldmdavs	r8!, {r2, r4, r5, r6, r8, sl, sp, lr}

000008c8 <Code_101>:
     8c8:	6838      	ldr	r0, [r7, #0]
     8ca:	2100      	movs	r1, #0
     8cc:	43c0      	mvns	r0, r0
     8ce:	43f6      	mvns	r6, r6
     8d0:	3001      	adds	r0, #1
     8d2:	414e      	adcs	r6, r1
     8d4:	6038      	str	r0, [r7, #0]
     8d6:	4770      	bx	lr

000008d8 <Dictionary_102>:
     8d8:	00000928 	andeq	r0, r0, r8, lsr #18
     8dc:	64020264 	strvs	r0, [r2], #-612	; 0x264
     8e0:	cf07002d 	svcgt	0x0007002d

000008e2 <Code_102>:
     8e2:	cf07      	ldmia	r7!, {r0, r1, r2}
     8e4:	1a12      	subs	r2, r2, r0
     8e6:	41b1      	sbcs	r1, r6
     8e8:	000e      	movs	r6, r1
     8ea:	3f04      	subs	r7, #4
     8ec:	603a      	str	r2, [r7, #0]
     8ee:	4770      	bx	lr
     8f0:	b500      	push	{lr}
     8f2:	f7ff fe24 	bl	53e <expect_four_elements>
     8f6:	f000 fbad 	bl	1054 <rot_allocator>
     8fa:	f7ff fe35 	bl	568 <expect_tos_in_register>
     8fe:	f7ff fe68 	bl	5d2 <make_tos_changeable>
     902:	f000 fb52 	bl	faa <swap_allocator>
     906:	f7ff fe2f 	bl	568 <expect_tos_in_register>
     90a:	f7ff fe62 	bl	5d2 <make_tos_changeable>
     90e:	f7ff fec3 	bl	698 <dswap_allocator>
     912:	f001 fbdd 	bl	20d0 <minus_allocator>
     916:	f000 fbb9 	bl	108c <minusrot_allocator>
     91a:	f847 6d04 	str.w	r6, [r7, #-4]!
     91e:	f244 1680 	movw	r6, #16768	; 0x4180
     922:	f000 fd45 	bl	13b0 <alloc_unkommutativ>
     926:	bd00      	pop	{pc}

00000928 <Dictionary_105>:
     928:	00000976 	andeq	r0, r0, r6, ror r9
     92c:	64020264 	strvs	r0, [r2], #-612	; 0x264
     930:	cf07002b 	svcgt	0x0007002b

00000932 <Code_105>:
     932:	cf07      	ldmia	r7!, {r0, r1, r2}
     934:	1812      	adds	r2, r2, r0
     936:	414e      	adcs	r6, r1
     938:	3f04      	subs	r7, #4
     93a:	603a      	str	r2, [r7, #0]
     93c:	4770      	bx	lr
     93e:	b500      	push	{lr}
     940:	f7ff fdfd 	bl	53e <expect_four_elements>
     944:	f000 fb86 	bl	1054 <rot_allocator>
     948:	f7ff fe0e 	bl	568 <expect_tos_in_register>
     94c:	f7ff fe41 	bl	5d2 <make_tos_changeable>
     950:	f000 fb2b 	bl	faa <swap_allocator>
     954:	f7ff fe08 	bl	568 <expect_tos_in_register>
     958:	f7ff fe3b 	bl	5d2 <make_tos_changeable>
     95c:	f7ff fe9c 	bl	698 <dswap_allocator>
     960:	f001 fb9b 	bl	209a <plus_allocator>
     964:	f000 fb92 	bl	108c <minusrot_allocator>
     968:	f847 6d04 	str.w	r6, [r7, #-4]!
     96c:	f244 1640 	movw	r6, #16704	; 0x4140
     970:	f000 fd22 	bl	13b8 <alloc_kommutativ>
     974:	bd00      	pop	{pc}

00000976 <Dictionary_108>:
     976:	000009a0 	andeq	r0, r0, r0, lsr #19
     97a:	73030261 	movwvc	r0, #12897	; 0x3261
     97e:	f847643e 			; <UNDEFINED> instruction: 0xf847643e

00000980 <Code_108>:
     980:	f847 6d04 	str.w	r6, [r7, #-4]!
     984:	17f6      	asrs	r6, r6, #31
     986:	4770      	bx	lr
     988:	b500      	push	{lr}
     98a:	f000 fad9 	bl	f40 <dup_allocator>
     98e:	f7ff fe20 	bl	5d2 <make_tos_changeable>
     992:	f847 6d04 	str.w	r6, [r7, #-4]!
     996:	f241 76c0 	movw	r6, #6080	; 0x17c0
     99a:	f001 fc2f 	bl	21fc <smalltworegisters>
     99e:	bd00      	pop	{pc}

000009a0 <Dictionary_112>:
     9a0:	000009fe 	strdeq	r0, [r0], -lr
     9a4:	75030262 	strvc	r0, [r3, #-610]	; 0x262
     9a8:	68382a6d 	ldmdavs	r8!, {r0, r2, r3, r5, r6, r9, fp, sp}

000009aa <Code_112>:
     9aa:	6838      	ldr	r0, [r7, #0]
     9ac:	fba0 0606 	umull	r0, r6, r0, r6
     9b0:	6038      	str	r0, [r7, #0]
     9b2:	4770      	bx	lr
     9b4:	f847 6d04 	str.w	r6, [r7, #-4]!
     9b8:	f8df 6528 	ldr.w	r6, [pc, #1320]	; ee4 <dgleichungleich_common+0x1e>

000009bc <alloc_multiplikation_m3>:
     9bc:	b500      	push	{lr}
     9be:	f7ff fda1 	bl	504 <expect_two_elements>
     9c2:	f7ff fdd1 	bl	568 <expect_tos_in_register>
     9c6:	f7ff fdd9 	bl	57c <expect_nos_in_register>
     9ca:	6801      	ldr	r1, [r0, #0]
     9cc:	430e      	orrs	r6, r1
     9ce:	6881      	ldr	r1, [r0, #8]
     9d0:	ea56 4601 	orrs.w	r6, r6, r1, lsl #16
     9d4:	f7ff fc8b 	bl	2ee <eliminiere_tos>
     9d8:	f7ff fc89 	bl	2ee <eliminiere_tos>
     9dc:	f7ff fc7d 	bl	2da <befreie_tos>
     9e0:	f7ff fd52 	bl	488 <get_free_register>
     9e4:	6003      	str	r3, [r0, #0]
     9e6:	ea56 3603 	orrs.w	r6, r6, r3, lsl #12
     9ea:	f7ff fc76 	bl	2da <befreie_tos>
     9ee:	f7ff fd4b 	bl	488 <get_free_register>
     9f2:	6003      	str	r3, [r0, #0]
     9f4:	ea56 2603 	orrs.w	r6, r6, r3, lsl #8
     9f8:	f002 fccd 	bl	3396 <Code_820>
     9fc:	bd00      	pop	{pc}

000009fe <Dictionary_114>:
     9fe:	00000a1c 	andeq	r0, r0, ip, lsl sl
     a02:	6d020262 	sfmvs	f0, 4, [r2, #-392]	; 0xfffffe78
     a06:	6838002a 	ldmdavs	r8!, {r1, r3, r5}

00000a08 <Code_114>:
     a08:	6838      	ldr	r0, [r7, #0]
     a0a:	fb80 0606 	smull	r0, r6, r0, r6
     a0e:	6038      	str	r0, [r7, #0]
     a10:	4770      	bx	lr
     a12:	f847 6d04 	str.w	r6, [r7, #-4]!
     a16:	f8df 64d0 	ldr.w	r6, [pc, #1232]	; ee8 <dgleichungleich_common+0x22>
     a1a:	e7cf      	b.n	9bc <alloc_multiplikation_m3>

00000a1c <Dictionary_116>:
     a1c:	00000a5a 	andeq	r0, r0, sl, asr sl
     a20:	75030044 	strvc	r0, [r3, #-68]	; 0x44
     a24:	cf072a64 	svcgt	0x00072a64

00000a26 <Code_116>:
     a26:	cf07      	ldmia	r7!, {r0, r1, r2}
     a28:	4356      	muls	r6, r2
     a2a:	4341      	muls	r1, r0
     a2c:	1876      	adds	r6, r6, r1
     a2e:	0c01      	lsrs	r1, r0, #16
     a30:	0c13      	lsrs	r3, r2, #16
     a32:	4359      	muls	r1, r3
     a34:	1876      	adds	r6, r6, r1
     a36:	0c01      	lsrs	r1, r0, #16
     a38:	b280      	uxth	r0, r0
     a3a:	b292      	uxth	r2, r2
     a3c:	4351      	muls	r1, r2
     a3e:	4343      	muls	r3, r0
     a40:	4350      	muls	r0, r2
     a42:	2200      	movs	r2, #0
     a44:	18c9      	adds	r1, r1, r3
     a46:	4152      	adcs	r2, r2
     a48:	0412      	lsls	r2, r2, #16
     a4a:	18b6      	adds	r6, r6, r2
     a4c:	040a      	lsls	r2, r1, #16
     a4e:	0c09      	lsrs	r1, r1, #16
     a50:	1880      	adds	r0, r0, r2
     a52:	414e      	adcs	r6, r1
     a54:	3f04      	subs	r7, #4
     a56:	6038      	str	r0, [r7, #0]
     a58:	4770      	bx	lr

00000a5a <Dictionary_117>:
     a5a:	00000aec 	andeq	r0, r0, ip, ror #21
     a5e:	75040044 	strvc	r0, [r4, #-68]	; 0x44
     a62:	002a6d64 	eoreq	r6, sl, r4, ror #26

00000a66 <Code_117>:
     a66:	b510      	push	{r4, lr}
     a68:	2400      	movs	r4, #0
     a6a:	f847 6d04 	str.w	r6, [r7, #-4]!
     a6e:	687e      	ldr	r6, [r7, #4]
     a70:	f847 6d04 	str.w	r6, [r7, #-4]!
     a74:	693e      	ldr	r6, [r7, #16]
     a76:	f7ff ff98 	bl	9aa <Code_112>
     a7a:	0031      	movs	r1, r6
     a7c:	cf40      	ldmia	r7!, {r6}
     a7e:	0030      	movs	r0, r6
     a80:	cf40      	ldmia	r7!, {r6}
     a82:	f847 6d04 	str.w	r6, [r7, #-4]!
     a86:	683e      	ldr	r6, [r7, #0]
     a88:	f847 6d04 	str.w	r6, [r7, #-4]!
     a8c:	68fe      	ldr	r6, [r7, #12]
     a8e:	b403      	push	{r0, r1}
     a90:	f7ff ff8b 	bl	9aa <Code_112>
     a94:	bc03      	pop	{r0, r1}
     a96:	0033      	movs	r3, r6
     a98:	cf40      	ldmia	r7!, {r6}
     a9a:	0032      	movs	r2, r6
     a9c:	cf40      	ldmia	r7!, {r6}
     a9e:	f847 6d04 	str.w	r6, [r7, #-4]!
     aa2:	683e      	ldr	r6, [r7, #0]
     aa4:	f847 6d04 	str.w	r6, [r7, #-4]!
     aa8:	693e      	ldr	r6, [r7, #16]
     aaa:	b40f      	push	{r0, r1, r2, r3}
     aac:	f7ff ff7d 	bl	9aa <Code_112>
     ab0:	bc0f      	pop	{r0, r1, r2, r3}
     ab2:	1992      	adds	r2, r2, r6
     ab4:	4163      	adcs	r3, r4
     ab6:	cf40      	ldmia	r7!, {r6}
     ab8:	1989      	adds	r1, r1, r6
     aba:	4162      	adcs	r2, r4
     abc:	4163      	adcs	r3, r4
     abe:	cf40      	ldmia	r7!, {r6}
     ac0:	f847 6d04 	str.w	r6, [r7, #-4]!
     ac4:	687e      	ldr	r6, [r7, #4]
     ac6:	f847 6d04 	str.w	r6, [r7, #-4]!
     aca:	68fe      	ldr	r6, [r7, #12]
     acc:	b40f      	push	{r0, r1, r2, r3}
     ace:	f7ff ff6c 	bl	9aa <Code_112>
     ad2:	bc0f      	pop	{r0, r1, r2, r3}
     ad4:	1992      	adds	r2, r2, r6
     ad6:	4163      	adcs	r3, r4
     ad8:	cf40      	ldmia	r7!, {r6}
     ada:	1989      	adds	r1, r1, r6
     adc:	4162      	adcs	r2, r4
     ade:	4163      	adcs	r3, r4
     ae0:	cf40      	ldmia	r7!, {r6}
     ae2:	001e      	movs	r6, r3
     ae4:	603a      	str	r2, [r7, #0]
     ae6:	6079      	str	r1, [r7, #4]
     ae8:	60b8      	str	r0, [r7, #8]
     aea:	bd10      	pop	{r4, pc}

00000aec <Dictionary_134>:
     aec:	00000b0e 	andeq	r0, r0, lr, lsl #22
     af0:	2a020043 	bcs	80c04 <BIT19+0xc04>
     af4:	b500002f 	strlt	r0, [r0, #-47]	; 0x2f

00000af6 <Code_134>:
     af6:	b500      	push	{lr}
     af8:	b440      	push	{r6}
     afa:	cf40      	ldmia	r7!, {r6}
     afc:	f7ff ff84 	bl	a08 <Code_114>
     b00:	f847 6d04 	str.w	r6, [r7, #-4]!
     b04:	bc40      	pop	{r6}
     b06:	f000 f84c 	bl	ba2 <Code_157>
     b0a:	3704      	adds	r7, #4
     b0c:	bd00      	pop	{pc}

00000b0e <Dictionary_139>:
     b0e:	00000b30 	andeq	r0, r0, r0, lsr fp
     b12:	2a050043 	bcs	140c26 <BIT20+0x40c26>
     b16:	646f6d2f 	strbtvs	r6, [pc], #-3375	; b1e <Code_139+0x4>

00000b1a <Code_139>:
     b1a:	b500      	push	{lr}
     b1c:	b440      	push	{r6}
     b1e:	cf40      	ldmia	r7!, {r6}
     b20:	f7ff ff72 	bl	a08 <Code_114>
     b24:	f847 6d04 	str.w	r6, [r7, #-4]!
     b28:	bc40      	pop	{r6}
     b2a:	f000 f83a 	bl	ba2 <Code_157>
     b2e:	bd00      	pop	{pc}

00000b30 <Dictionary_143>:
     b30:	00000b52 	andeq	r0, r0, r2, asr fp
     b34:	75030043 	strvc	r0, [r3, #-67]	; 0x43
     b38:	b5002f2a 	strlt	r2, [r0, #-3882]	; 0xf2a

00000b3a <Code_143>:
     b3a:	b500      	push	{lr}
     b3c:	b440      	push	{r6}
     b3e:	cf40      	ldmia	r7!, {r6}
     b40:	f7ff ff33 	bl	9aa <Code_112>
     b44:	f847 6d04 	str.w	r6, [r7, #-4]!
     b48:	bc40      	pop	{r6}
     b4a:	f000 f81b 	bl	b84 <Code_152>
     b4e:	3704      	adds	r7, #4
     b50:	bd00      	pop	{pc}

00000b52 <Dictionary_148>:
     b52:	00000b76 	andeq	r0, r0, r6, ror fp
     b56:	75060043 	strvc	r0, [r6, #-67]	; 0x43
     b5a:	6f6d2f2a 	svcvs	0x006d2f2a
     b5e:	b5000064 	strlt	r0, [r0, #-100]	; 0x64

00000b60 <Code_148>:
     b60:	b500      	push	{lr}
     b62:	b440      	push	{r6}
     b64:	cf40      	ldmia	r7!, {r6}
     b66:	f7ff ff20 	bl	9aa <Code_112>
     b6a:	f847 6d04 	str.w	r6, [r7, #-4]!
     b6e:	bc40      	pop	{r6}
     b70:	f000 f808 	bl	b84 <Code_152>
     b74:	bd00      	pop	{pc}

00000b76 <Dictionary_152>:
     b76:	00000b96 	muleq	r0, r6, fp
     b7a:	75060043 	strvc	r0, [r6, #-67]	; 0x43
     b7e:	6f6d2f6d 	svcvs	0x006d2f6d
     b82:	b5000064 	strlt	r0, [r0, #-100]	; 0x64

00000b84 <Code_152>:
     b84:	b500      	push	{lr}
     b86:	f847 6d04 	str.w	r6, [r7, #-4]!
     b8a:	2600      	movs	r6, #0
     b8c:	f000 f819 	bl	bc2 <Code_161>
     b90:	cf40      	ldmia	r7!, {r6}
     b92:	3704      	adds	r7, #4
     b94:	bd00      	pop	{pc}

00000b96 <Dictionary_157>:
     b96:	00000bb4 			; <UNDEFINED> instruction: 0x00000bb4
     b9a:	6d050043 	stcvs	0, cr0, [r5, #-268]	; 0xfffffef4
     b9e:	646f6d2f 	strbtvs	r6, [pc], #-3375	; ba6 <Code_157+0x4>

00000ba2 <Code_157>:
     ba2:	b500      	push	{lr}
     ba4:	f847 6d04 	str.w	r6, [r7, #-4]!
     ba8:	17f6      	asrs	r6, r6, #31
     baa:	f000 f832 	bl	c12 <Code_163>
     bae:	cf40      	ldmia	r7!, {r6}
     bb0:	3704      	adds	r7, #4
     bb2:	bd00      	pop	{pc}

00000bb4 <Dictionary_161>:
     bb4:	00000c06 	andeq	r0, r0, r6, lsl #24
     bb8:	75060044 	strvc	r0, [r6, #-68]	; 0x44
     bbc:	6f6d2f64 	svcvs	0x006d2f64
     bc0:	b4300064 	ldrtlt	r0, [r0], #-100	; 0x64

00000bc2 <Code_161>:
     bc2:	b430      	push	{r4, r5}
     bc4:	2300      	movs	r3, #0
     bc6:	2200      	movs	r2, #0
     bc8:	6879      	ldr	r1, [r7, #4]
     bca:	68b8      	ldr	r0, [r7, #8]

00000bcc <ud_slash_mod_internal>:
     bcc:	0035      	movs	r5, r6
     bce:	683c      	ldr	r4, [r7, #0]
     bd0:	2640      	movs	r6, #64	; 0x40
     bd2:	0040      	lsls	r0, r0, #1
     bd4:	4149      	adcs	r1, r1
     bd6:	4152      	adcs	r2, r2
     bd8:	415b      	adcs	r3, r3
     bda:	42ab      	cmp	r3, r5
     bdc:	d802      	bhi.n	be4 <ud_slash_mod_internal+0x18>
     bde:	d304      	bcc.n	bea <ud_slash_mod_internal+0x1e>
     be0:	42a2      	cmp	r2, r4
     be2:	d302      	bcc.n	bea <ud_slash_mod_internal+0x1e>
     be4:	1b12      	subs	r2, r2, r4
     be6:	41ab      	sbcs	r3, r5
     be8:	3001      	adds	r0, #1
     bea:	3e01      	subs	r6, #1
     bec:	d1f1      	bne.n	bd2 <ud_slash_mod_internal+0x6>
     bee:	000e      	movs	r6, r1
     bf0:	6038      	str	r0, [r7, #0]
     bf2:	607b      	str	r3, [r7, #4]
     bf4:	60ba      	str	r2, [r7, #8]
     bf6:	bc30      	pop	{r4, r5}
     bf8:	4770      	bx	lr

00000bfa <uf_slash_mod>:
     bfa:	b430      	push	{r4, r5}
     bfc:	2300      	movs	r3, #0
     bfe:	687a      	ldr	r2, [r7, #4]
     c00:	68b9      	ldr	r1, [r7, #8]
     c02:	2000      	movs	r0, #0
     c04:	e7e2      	b.n	bcc <ud_slash_mod_internal>

00000c06 <Dictionary_163>:
     c06:	00000c7c 	andeq	r0, r0, ip, ror ip
     c0a:	64050044 	strvs	r0, [r5], #-68	; 0x44
     c0e:	646f6d2f 	strbtvs	r6, [pc], #-3375	; c16 <Code_163+0x4>

00000c12 <Code_163>:
     c12:	b500      	push	{lr}
     c14:	17f0      	asrs	r0, r6, #31
     c16:	d019      	beq.n	c4c <Code_163+0x3a>
     c18:	f7ff fe56 	bl	8c8 <Code_101>
     c1c:	f7ff fd33 	bl	686 <Code_72>
     c20:	17f0      	asrs	r0, r6, #31
     c22:	d00c      	beq.n	c3e <Code_163+0x2c>
     c24:	f7ff fe50 	bl	8c8 <Code_101>
     c28:	f7ff fd2d 	bl	686 <Code_72>
     c2c:	f7ff ffc9 	bl	bc2 <Code_161>
     c30:	f7ff fd29 	bl	686 <Code_72>
     c34:	f7ff fe48 	bl	8c8 <Code_101>
     c38:	f7ff fd25 	bl	686 <Code_72>
     c3c:	bd00      	pop	{pc}
     c3e:	f7ff fd22 	bl	686 <Code_72>
     c42:	f7ff ffbe 	bl	bc2 <Code_161>
     c46:	f7ff fe3f 	bl	8c8 <Code_101>
     c4a:	bd00      	pop	{pc}
     c4c:	f7ff fd1b 	bl	686 <Code_72>
     c50:	17f0      	asrs	r0, r6, #31
     c52:	d00e      	beq.n	c72 <Code_163+0x60>
     c54:	f7ff fe38 	bl	8c8 <Code_101>
     c58:	f7ff fd15 	bl	686 <Code_72>
     c5c:	f7ff ffb1 	bl	bc2 <Code_161>
     c60:	f7ff fe32 	bl	8c8 <Code_101>
     c64:	f7ff fd0f 	bl	686 <Code_72>
     c68:	f7ff fe2e 	bl	8c8 <Code_101>
     c6c:	f7ff fd0b 	bl	686 <Code_72>
     c70:	bd00      	pop	{pc}
     c72:	f7ff fd08 	bl	686 <Code_72>
     c76:	f7ff ffa4 	bl	bc2 <Code_161>
     c7a:	bd00      	pop	{pc}

00000c7c <Dictionary_164>:
     c7c:	00000c92 	muleq	r0, r2, ip
     c80:	64020044 	strvs	r0, [r2], #-68	; 0x44
     c84:	b500002f 	strlt	r0, [r0, #-47]	; 0x2f

00000c86 <Code_164>:
     c86:	b500      	push	{lr}
     c88:	f7ff ffc3 	bl	c12 <Code_163>
     c8c:	f7ff fd1e 	bl	6cc <Code_74>
     c90:	bd00      	pop	{pc}

00000c92 <Dictionary_165>:
     c92:	00000cda 	ldrdeq	r0, [r0], -sl
     c96:	66020044 	strvs	r0, [r2], -r4, asr #32
     c9a:	b500002a 	strlt	r0, [r0, #-42]	; 0x2a

00000c9c <Code_165>:
     c9c:	b500      	push	{lr}
     c9e:	17f0      	asrs	r0, r6, #31
     ca0:	d00d      	beq.n	cbe <Code_165+0x22>
     ca2:	f7ff fe11 	bl	8c8 <Code_101>
     ca6:	f7ff fcee 	bl	686 <Code_72>
     caa:	17f0      	asrs	r0, r6, #31
     cac:	d00d      	beq.n	cca <Code_165+0x2e>
     cae:	f7ff fe0b 	bl	8c8 <Code_101>
     cb2:	f7ff fed8 	bl	a66 <Code_117>
     cb6:	cf40      	ldmia	r7!, {r6}
     cb8:	cf01      	ldmia	r7!, {r0}
     cba:	6038      	str	r0, [r7, #0]
     cbc:	bd00      	pop	{pc}
     cbe:	f7ff fce2 	bl	686 <Code_72>
     cc2:	17f0      	asrs	r0, r6, #31
     cc4:	d0f5      	beq.n	cb2 <Code_165+0x16>
     cc6:	f7ff fdff 	bl	8c8 <Code_101>
     cca:	f7ff fecc 	bl	a66 <Code_117>
     cce:	cf40      	ldmia	r7!, {r6}
     cd0:	cf01      	ldmia	r7!, {r0}
     cd2:	6038      	str	r0, [r7, #0]
     cd4:	f7ff fdf8 	bl	8c8 <Code_101>
     cd8:	bd00      	pop	{pc}

00000cda <Dictionary_168>:
     cda:	00000d26 	andeq	r0, r0, r6, lsr #26
     cde:	66020044 	strvs	r0, [r2], -r4, asr #32
     ce2:	b500002f 	strlt	r0, [r0, #-47]	; 0x2f

00000ce4 <Code_168>:
     ce4:	b500      	push	{lr}
     ce6:	17f0      	asrs	r0, r6, #31
     ce8:	d00e      	beq.n	d08 <Code_168+0x24>
     cea:	f7ff fded 	bl	8c8 <Code_101>
     cee:	f7ff fcca 	bl	686 <Code_72>
     cf2:	17f0      	asrs	r0, r6, #31
     cf4:	d00e      	beq.n	d14 <Code_168+0x30>
     cf6:	f7ff fde7 	bl	8c8 <Code_101>
     cfa:	f7ff fcc4 	bl	686 <Code_72>
     cfe:	f7ff ff7c 	bl	bfa <uf_slash_mod>
     d02:	f7ff fce3 	bl	6cc <Code_74>
     d06:	bd00      	pop	{pc}
     d08:	f7ff fcbd 	bl	686 <Code_72>
     d0c:	17f0      	asrs	r0, r6, #31
     d0e:	d0f4      	beq.n	cfa <Code_168+0x16>
     d10:	f7ff fdda 	bl	8c8 <Code_101>
     d14:	f7ff fcb7 	bl	686 <Code_72>
     d18:	f7ff ff6f 	bl	bfa <uf_slash_mod>
     d1c:	f7ff fdd4 	bl	8c8 <Code_101>
     d20:	f7ff fcd4 	bl	6cc <Code_74>
     d24:	bd00      	pop	{pc}

00000d26 <Dictionary_169>:
     d26:	00000d6e 	andeq	r0, r0, lr, ror #26
     d2a:	32020220 	andcc	r0, r2, #2
     d2e:	cf060021 	svcgt	0x00060021

00000d30 <Code_169>:
     d30:	cf06      	ldmia	r7!, {r1, r2}
     d32:	6031      	str	r1, [r6, #0]
     d34:	6072      	str	r2, [r6, #4]
     d36:	cf40      	ldmia	r7!, {r6}
     d38:	4770      	bx	lr
     d3a:	b500      	push	{lr}
     d3c:	f7ff fbef 	bl	51e <expect_three_elements>
     d40:	6801      	ldr	r1, [r0, #0]
     d42:	6842      	ldr	r2, [r0, #4]
     d44:	b406      	push	{r1, r2}
     d46:	f000 fe06 	bl	1956 <allocator_4store>
     d4a:	f7ff fac6 	bl	2da <befreie_tos>
     d4e:	bc06      	pop	{r1, r2}
     d50:	6001      	str	r1, [r0, #0]
     d52:	2928      	cmp	r1, #40	; 0x28
     d54:	d006      	beq.n	d64 <Code_169+0x34>
     d56:	f847 6d04 	str.w	r6, [r7, #-4]!
     d5a:	f246 0640 	movw	r6, #24640	; 0x6040
     d5e:	f000 fdfe 	bl	195e <allocator_4store_anderer_opcode>
     d62:	bd00      	pop	{pc}
     d64:	3204      	adds	r2, #4
     d66:	6042      	str	r2, [r0, #4]
     d68:	f000 fdf5 	bl	1956 <allocator_4store>
     d6c:	bd00      	pop	{pc}

00000d6e <Dictionary_173>:
     d6e:	00000db8 			; <UNDEFINED> instruction: 0x00000db8
     d72:	32020220 	andcc	r0, r2, #2
     d76:	3f040040 	svccc	0x00040040

00000d78 <Code_173>:
     d78:	3f04      	subs	r7, #4
     d7a:	6870      	ldr	r0, [r6, #4]
     d7c:	6038      	str	r0, [r7, #0]
     d7e:	6836      	ldr	r6, [r6, #0]
     d80:	4770      	bx	lr
     d82:	b500      	push	{lr}
     d84:	f000 f8dc 	bl	f40 <dup_allocator>
     d88:	6801      	ldr	r1, [r0, #0]
     d8a:	2928      	cmp	r1, #40	; 0x28
     d8c:	d00a      	beq.n	da4 <Code_173+0x2c>
     d8e:	f847 6d04 	str.w	r6, [r7, #-4]!
     d92:	f646 0640 	movw	r6, #26688	; 0x6840
     d96:	f000 fdbf 	bl	1918 <allocator_4fetch_anderer_opcode>
     d9a:	f000 f906 	bl	faa <swap_allocator>
     d9e:	f000 fdb7 	bl	1910 <allocator_4fetch>
     da2:	bd00      	pop	{pc}
     da4:	6841      	ldr	r1, [r0, #4]
     da6:	3104      	adds	r1, #4
     da8:	6041      	str	r1, [r0, #4]
     daa:	f000 fdb1 	bl	1910 <allocator_4fetch>
     dae:	f000 f8fc 	bl	faa <swap_allocator>
     db2:	f000 fdad 	bl	1910 <allocator_4fetch>
     db6:	bd00      	pop	{pc}

00000db8 <Dictionary_176>:
     db8:	00000dd8 	ldrdeq	r0, [r0], -r8
     dbc:	64030044 	strvs	r0, [r3], #-68	; 0x44
     dc0:	cf073c75 	svcgt	0x00073c75

00000dc2 <Code_176>:
     dc2:	cf07      	ldmia	r7!, {r0, r1, r2}
     dc4:	428e      	cmp	r6, r1
     dc6:	d804      	bhi.n	dd2 <Code_176+0x10>
     dc8:	d101      	bne.n	dce <Code_176+0xc>
     dca:	4290      	cmp	r0, r2
     dcc:	d801      	bhi.n	dd2 <Code_176+0x10>
     dce:	2600      	movs	r6, #0
     dd0:	4770      	bx	lr
     dd2:	2600      	movs	r6, #0
     dd4:	43f6      	mvns	r6, r6
     dd6:	4770      	bx	lr

00000dd8 <Dictionary_177>:
     dd8:	00000df8 	strdeq	r0, [r0], -r8
     ddc:	64030044 	strvs	r0, [r3], #-68	; 0x44
     de0:	cf073e75 	svcgt	0x00073e75

00000de2 <Code_177>:
     de2:	cf07      	ldmia	r7!, {r0, r1, r2}
     de4:	42b1      	cmp	r1, r6
     de6:	d804      	bhi.n	df2 <Code_177+0x10>
     de8:	d101      	bne.n	dee <Code_177+0xc>
     dea:	4282      	cmp	r2, r0
     dec:	d801      	bhi.n	df2 <Code_177+0x10>
     dee:	2600      	movs	r6, #0
     df0:	4770      	bx	lr
     df2:	2600      	movs	r6, #0
     df4:	43f6      	mvns	r6, r6
     df6:	4770      	bx	lr

00000df8 <Dictionary_178>:
     df8:	00000e18 	andeq	r0, r0, r8, lsl lr
     dfc:	64020044 	strvs	r0, [r2], #-68	; 0x44
     e00:	cf07003c 	svcgt	0x0007003c

00000e02 <Code_178>:
     e02:	cf07      	ldmia	r7!, {r0, r1, r2}
     e04:	428e      	cmp	r6, r1
     e06:	dc04      	bgt.n	e12 <Code_178+0x10>
     e08:	d101      	bne.n	e0e <Code_178+0xc>
     e0a:	4290      	cmp	r0, r2
     e0c:	dc01      	bgt.n	e12 <Code_178+0x10>
     e0e:	2600      	movs	r6, #0
     e10:	4770      	bx	lr
     e12:	2600      	movs	r6, #0
     e14:	43f6      	mvns	r6, r6
     e16:	4770      	bx	lr

00000e18 <Dictionary_179>:
     e18:	00000e38 	andeq	r0, r0, r8, lsr lr
     e1c:	64020044 	strvs	r0, [r2], #-68	; 0x44
     e20:	cf07003e 	svcgt	0x0007003e

00000e22 <Code_179>:
     e22:	cf07      	ldmia	r7!, {r0, r1, r2}
     e24:	42b1      	cmp	r1, r6
     e26:	dc04      	bgt.n	e32 <Code_179+0x10>
     e28:	d101      	bne.n	e2e <Code_179+0xc>
     e2a:	4282      	cmp	r2, r0
     e2c:	dc01      	bgt.n	e32 <Code_179+0x10>
     e2e:	2600      	movs	r6, #0
     e30:	4770      	bx	lr
     e32:	2600      	movs	r6, #0
     e34:	43f6      	mvns	r6, r6
     e36:	4770      	bx	lr

00000e38 <Dictionary_180>:
     e38:	00000e54 	andeq	r0, r0, r4, asr lr
     e3c:	64030262 	strvs	r0, [r3], #-610	; 0x262
     e40:	37043c30 	smladxcc	r4, r0, ip, r3

00000e42 <Code_180>:
     e42:	3704      	adds	r7, #4
     e44:	17f6      	asrs	r6, r6, #31
     e46:	4770      	bx	lr
     e48:	b500      	push	{lr}
     e4a:	f000 f8c1 	bl	fd0 <nip_allocator>
     e4e:	f000 fb3d 	bl	14cc <alloc_nullkleiner>
     e52:	bd00      	pop	{pc}

00000e54 <Dictionary_181>:
     e54:	00000e7c 	andeq	r0, r0, ip, ror lr
     e58:	64030262 	strvs	r0, [r3], #-610	; 0x262
     e5c:	cf013d30 	svcgt	0x00013d30

00000e5e <Code_181>:
     e5e:	cf01      	ldmia	r7!, {r0}
     e60:	4306      	orrs	r6, r0
     e62:	3e01      	subs	r6, #1
     e64:	41b6      	sbcs	r6, r6
     e66:	4770      	bx	lr
     e68:	b500      	push	{lr}
     e6a:	f847 6d04 	str.w	r6, [r7, #-4]!
     e6e:	f244 3600 	movw	r6, #17152	; 0x4300
     e72:	f000 faa1 	bl	13b8 <alloc_kommutativ>
     e76:	f000 fb05 	bl	1484 <allocator_equal_zero>
     e7a:	bd00      	pop	{pc}

00000e7c <Dictionary_184>:
     e7c:	00000ea2 	andeq	r0, r0, r2, lsr #29
     e80:	64030244 	strvs	r0, [r3], #-580	; 0x244
     e84:	cf073e3c 	svcgt	0x00073e3c

00000e86 <Code_184>:
     e86:	cf07      	ldmia	r7!, {r0, r1, r2}
     e88:	4050      	eors	r0, r2
     e8a:	404e      	eors	r6, r1
     e8c:	4306      	orrs	r6, r0
     e8e:	3e01      	subs	r6, #1
     e90:	41b6      	sbcs	r6, r6
     e92:	43f6      	mvns	r6, r6
     e94:	4770      	bx	lr
     e96:	b500      	push	{lr}
     e98:	f000 f815 	bl	ec6 <dgleichungleich_common>
     e9c:	f000 fb05 	bl	14aa <allocator_unequal_zero>
     ea0:	bd00      	pop	{pc}

00000ea2 <Dictionary_185>:
     ea2:	00000eec 	andeq	r0, r0, ip, ror #29
     ea6:	64020244 	strvs	r0, [r2], #-580	; 0x244
     eaa:	cf07003d 	svcgt	0x0007003d

00000eac <Code_185>:
     eac:	cf07      	ldmia	r7!, {r0, r1, r2}
     eae:	4050      	eors	r0, r2
     eb0:	404e      	eors	r6, r1
     eb2:	4306      	orrs	r6, r0
     eb4:	3e01      	subs	r6, #1
     eb6:	41b6      	sbcs	r6, r6
     eb8:	4770      	bx	lr
     eba:	b500      	push	{lr}
     ebc:	f000 f803 	bl	ec6 <dgleichungleich_common>
     ec0:	f000 fae0 	bl	1484 <allocator_equal_zero>
     ec4:	bd00      	pop	{pc}

00000ec6 <dgleichungleich_common>:
     ec6:	b500      	push	{lr}
     ec8:	f7ff fb39 	bl	53e <expect_four_elements>
     ecc:	f000 f8c2 	bl	1054 <rot_allocator>
     ed0:	f000 f9c4 	bl	125c <xor_allocator>
     ed4:	f000 f8da 	bl	108c <minusrot_allocator>
     ed8:	f000 f9c0 	bl	125c <xor_allocator>
     edc:	f000 f9b1 	bl	1242 <or_allocator>
     ee0:	bd00      	pop	{pc}
     ee2:	00000000 	andeq	r0, r0, r0
     ee6:	0000fba0 	andeq	pc, r0, r0, lsr #23
     eea:	0efefb80 	cdpeq	11, 15, cr15, cr14, cr0, {4}

00000eec <Dictionary_186>:
     eec:	00000efe 	strdeq	r0, [r0], -lr
     ef0:	73030020 	movwvc	r0, #12320	; 0x3020
     ef4:	f8474070 			; <UNDEFINED> instruction: 0xf8474070

00000ef6 <Code_186>:
     ef6:	f847 6d04 	str.w	r6, [r7, #-4]!
     efa:	003e      	movs	r6, r7
     efc:	4770      	bx	lr

00000efe <Dictionary_188>:
     efe:	00000f0e 	andeq	r0, r0, lr, lsl #30
     f02:	73030020 	movwvc	r0, #12320	; 0x3020
     f06:	00372170 	eorseq	r2, r7, r0, ror r1

00000f08 <Code_188>:
     f08:	0037      	movs	r7, r6
     f0a:	cf40      	ldmia	r7!, {r6}
     f0c:	4770      	bx	lr

00000f0e <Dictionary_189>:
     f0e:	00000f20 	andeq	r0, r0, r0, lsr #30
     f12:	72030020 	andvc	r0, r3, #32
     f16:	f8474070 			; <UNDEFINED> instruction: 0xf8474070

00000f18 <Code_189>:
     f18:	f847 6d04 	str.w	r6, [r7, #-4]!
     f1c:	466e      	mov	r6, sp
     f1e:	4770      	bx	lr

00000f20 <Dictionary_191>:
     f20:	00000f30 	andeq	r0, r0, r0, lsr pc
     f24:	72030020 	andvc	r0, r3, #32
     f28:	46b52170 			; <UNDEFINED> instruction: 0x46b52170

00000f2a <Code_191>:
     f2a:	46b5      	mov	sp, r6
     f2c:	cf40      	ldmia	r7!, {r6}
     f2e:	4770      	bx	lr

00000f30 <Dictionary_192>:
     f30:	00000f54 	andeq	r0, r0, r4, asr pc
     f34:	64030261 	strvs	r0, [r3], #-609	; 0x261
     f38:	f8477075 			; <UNDEFINED> instruction: 0xf8477075

00000f3a <Code_192>:
     f3a:	f847 6d04 	str.w	r6, [r7, #-4]!
     f3e:	4770      	bx	lr

00000f40 <dup_allocator>:
     f40:	b506      	push	{r1, r2, lr}
     f42:	f7ff fad5 	bl	4f0 <expect_one_element>
     f46:	6801      	ldr	r1, [r0, #0]
     f48:	6842      	ldr	r2, [r0, #4]
     f4a:	f7ff f9c6 	bl	2da <befreie_tos>
     f4e:	6001      	str	r1, [r0, #0]
     f50:	6042      	str	r2, [r0, #4]
     f52:	bd06      	pop	{r1, r2, pc}

00000f54 <Dictionary_195>:
     f54:	00000f80 	andeq	r0, r0, r0, lsl #31
     f58:	64040261 	strvs	r0, [r4], #-609	; 0x261
     f5c:	00706f72 	rsbseq	r6, r0, r2, ror pc

00000f60 <Code_195>:
     f60:	cf40      	ldmia	r7!, {r6}
     f62:	4770      	bx	lr

00000f64 <drop_allocator>:
     f64:	b500      	push	{lr}
     f66:	6801      	ldr	r1, [r0, #0]
     f68:	291e      	cmp	r1, #30
     f6a:	d106      	bne.n	f7a <drop_allocator+0x16>
     f6c:	f847 6d04 	str.w	r6, [r7, #-4]!
     f70:	f243 7604 	movw	r6, #14084	; 0x3704
     f74:	f002 f9e0 	bl	3338 <Code_811>
     f78:	bd00      	pop	{pc}
     f7a:	f7ff f9b8 	bl	2ee <eliminiere_tos>
     f7e:	bd00      	pop	{pc}

00000f80 <Dictionary_199>:
     f80:	00000f96 	muleq	r0, r6, pc	; <UNPREDICTABLE>
     f84:	3f040061 	svccc	0x00040061
     f88:	00707564 	rsbseq	r7, r0, r4, ror #10

00000f8c <Code_199>:
     f8c:	2e00      	cmp	r6, #0
     f8e:	d001      	beq.n	f94 <Code_199+0x8>
     f90:	f847 6d04 	str.w	r6, [r7, #-4]!
     f94:	4770      	bx	lr

00000f96 <Dictionary_201>:
     f96:	00000fc2 	andeq	r0, r0, r2, asr #31
     f9a:	73040262 	movwvc	r0, #16994	; 0x4262
     f9e:	00706177 	rsbseq	r6, r0, r7, ror r1

00000fa2 <Code_201>:
     fa2:	6839      	ldr	r1, [r7, #0]
     fa4:	603e      	str	r6, [r7, #0]
     fa6:	000e      	movs	r6, r1
     fa8:	4770      	bx	lr

00000faa <swap_allocator>:
     faa:	b50c      	push	{r2, r3, lr}
     fac:	f7ff faaa 	bl	504 <expect_two_elements>
     fb0:	6802      	ldr	r2, [r0, #0]
     fb2:	6883      	ldr	r3, [r0, #8]
     fb4:	6003      	str	r3, [r0, #0]
     fb6:	6082      	str	r2, [r0, #8]
     fb8:	6842      	ldr	r2, [r0, #4]
     fba:	68c3      	ldr	r3, [r0, #12]
     fbc:	6043      	str	r3, [r0, #4]
     fbe:	60c2      	str	r2, [r0, #12]
     fc0:	bd0c      	pop	{r2, r3, pc}

00000fc2 <Dictionary_202>:
     fc2:	00000ff0 	strdeq	r0, [r0], -r0	; <UNPREDICTABLE>
     fc6:	6e030262 	cdpvs	2, 0, cr0, cr3, cr2, {3}
     fca:	37047069 	strcc	r7, [r4, -r9, rrx]

00000fcc <Code_202>:
     fcc:	3704      	adds	r7, #4
     fce:	4770      	bx	lr

00000fd0 <nip_allocator>:
     fd0:	b500      	push	{lr}
     fd2:	f7ff fa8d 	bl	4f0 <expect_one_element>
     fd6:	6881      	ldr	r1, [r0, #8]
     fd8:	291e      	cmp	r1, #30
     fda:	d002      	beq.n	fe2 <nip_allocator+0x12>
     fdc:	f7ff f98d 	bl	2fa <eliminiere_nos>
     fe0:	bd00      	pop	{pc}
     fe2:	f847 6d04 	str.w	r6, [r7, #-4]!
     fe6:	f243 7604 	movw	r6, #14084	; 0x3704
     fea:	f002 f9a5 	bl	3338 <Code_811>
     fee:	bd00      	pop	{pc}

00000ff0 <Dictionary_206>:
     ff0:	00001018 	andeq	r1, r0, r8, lsl r0
     ff4:	6f040262 	svcvs	0x00040262
     ff8:	00726576 	rsbseq	r6, r2, r6, ror r5

00000ffc <Code_206>:
     ffc:	f847 6d04 	str.w	r6, [r7, #-4]!
    1000:	687e      	ldr	r6, [r7, #4]
    1002:	4770      	bx	lr

00001004 <over_allocator>:
    1004:	b500      	push	{lr}
    1006:	f7ff fa7d 	bl	504 <expect_two_elements>
    100a:	6881      	ldr	r1, [r0, #8]
    100c:	68c2      	ldr	r2, [r0, #12]
    100e:	f7ff f964 	bl	2da <befreie_tos>
    1012:	6001      	str	r1, [r0, #0]
    1014:	6042      	str	r2, [r0, #4]
    1016:	bd00      	pop	{pc}

00001018 <Dictionary_208>:
    1018:	0000103e 	andeq	r1, r0, lr, lsr r0
    101c:	74040262 	strvc	r0, [r4], #-610	; 0x262
    1020:	006b6375 	rsbeq	r6, fp, r5, ror r3

00001024 <Code_208>:
    1024:	cf01      	ldmia	r7!, {r0}
    1026:	3f08      	subs	r7, #8
    1028:	607e      	str	r6, [r7, #4]
    102a:	6038      	str	r0, [r7, #0]
    102c:	4770      	bx	lr
    102e:	b500      	push	{lr}
    1030:	f7ff fa68 	bl	504 <expect_two_elements>
    1034:	f7ff ff84 	bl	f40 <dup_allocator>
    1038:	f000 f828 	bl	108c <minusrot_allocator>
    103c:	bd00      	pop	{pc}

0000103e <Dictionary_209>:
    103e:	00001074 	andeq	r1, r0, r4, ror r0
    1042:	72030263 	andvc	r0, r3, #805306374	; 0x30000006
    1046:	cf03746f 	svcgt	0x0003746f

00001048 <Code_209>:
    1048:	cf03      	ldmia	r7!, {r0, r1}
    104a:	3f08      	subs	r7, #8
    104c:	6078      	str	r0, [r7, #4]
    104e:	603e      	str	r6, [r7, #0]
    1050:	000e      	movs	r6, r1
    1052:	4770      	bx	lr

00001054 <rot_allocator>:
    1054:	b50e      	push	{r1, r2, r3, lr}
    1056:	f7ff fa62 	bl	51e <expect_three_elements>
    105a:	6801      	ldr	r1, [r0, #0]
    105c:	6882      	ldr	r2, [r0, #8]
    105e:	6903      	ldr	r3, [r0, #16]
    1060:	6081      	str	r1, [r0, #8]
    1062:	6102      	str	r2, [r0, #16]
    1064:	6003      	str	r3, [r0, #0]
    1066:	6841      	ldr	r1, [r0, #4]
    1068:	68c2      	ldr	r2, [r0, #12]
    106a:	6943      	ldr	r3, [r0, #20]
    106c:	60c1      	str	r1, [r0, #12]
    106e:	6142      	str	r2, [r0, #20]
    1070:	6043      	str	r3, [r0, #4]
    1072:	bd0e      	pop	{r1, r2, r3, pc}

00001074 <Dictionary_210>:
    1074:	00001098 	muleq	r0, r8, r0
    1078:	2d040263 	sfmcs	f0, 4, [r4, #-396]	; 0xfffffe74
    107c:	00746f72 	rsbseq	r6, r4, r2, ror pc

00001080 <Code_210>:
    1080:	cf03      	ldmia	r7!, {r0, r1}
    1082:	3f08      	subs	r7, #8
    1084:	607e      	str	r6, [r7, #4]
    1086:	6039      	str	r1, [r7, #0]
    1088:	0006      	movs	r6, r0
    108a:	4770      	bx	lr

0000108c <minusrot_allocator>:
    108c:	b500      	push	{lr}
    108e:	f7ff ffe1 	bl	1054 <rot_allocator>
    1092:	f7ff ffdf 	bl	1054 <rot_allocator>
    1096:	bd00      	pop	{pc}

00001098 <Dictionary_211>:
    1098:	000010aa 	andeq	r1, r0, sl, lsr #1
    109c:	70040020 	andvc	r0, r4, r0, lsr #32
    10a0:	006b6369 	rsbeq	r6, fp, r9, ror #6

000010a4 <Code_211>:
    10a4:	f857 6026 	ldr.w	r6, [r7, r6, lsl #2]
    10a8:	4770      	bx	lr

000010aa <Dictionary_212>:
    10aa:	000010c2 	andeq	r1, r0, r2, asr #1
    10ae:	64050000 	strvs	r0, [r5]
    10b2:	68747065 	ldmdavs	r4!, {r0, r2, r5, r6, ip, sp, lr}^

000010b6 <Code_212>:
    10b6:	494f      	ldr	r1, [pc, #316]	; (11f4 <Code_231+0x1c>)
    10b8:	1bc9      	subs	r1, r1, r7
    10ba:	f847 6d04 	str.w	r6, [r7, #-4]!
    10be:	088e      	lsrs	r6, r1, #2
    10c0:	4770      	bx	lr

000010c2 <Dictionary_214>:
    10c2:	000010de 	ldrdeq	r1, [r0], -lr
    10c6:	72060000 	andvc	r0, r6, #0
    10ca:	74706564 	ldrbtvc	r6, [r0], #-1380	; 0x564
    10ce:	f8470068 			; <UNDEFINED> instruction: 0xf8470068

000010d0 <Code_214>:
    10d0:	f847 6d04 	str.w	r6, [r7, #-4]!
    10d4:	466e      	mov	r6, sp
    10d6:	4948      	ldr	r1, [pc, #288]	; (11f8 <Code_231+0x20>)
    10d8:	1b89      	subs	r1, r1, r6
    10da:	088e      	lsrs	r6, r1, #2
    10dc:	4770      	bx	lr

000010de <Dictionary_216>:
    10de:	00001114 	andeq	r1, r0, r4, lsl r1
    10e2:	3e020220 	cdpcc	2, 0, cr0, cr2, cr0, {1}
    10e6:	b4400072 	strblt	r0, [r0], #-114	; 0x72

000010e8 <Code_216>:
    10e8:	b440      	push	{r6}
    10ea:	cf40      	ldmia	r7!, {r6}
    10ec:	4770      	bx	lr

000010ee <allocator_to_r>:
    10ee:	b500      	push	{lr}
    10f0:	f7ff fa91 	bl	616 <push_lr_nachholen>
    10f4:	f7ff f9fc 	bl	4f0 <expect_one_element>
    10f8:	f7ff fa36 	bl	568 <expect_tos_in_register>
    10fc:	f847 6d04 	str.w	r6, [r7, #-4]!
    1100:	f24b 4600 	movw	r6, #46080	; 0xb400
    1104:	2201      	movs	r2, #1
    1106:	408a      	lsls	r2, r1
    1108:	4316      	orrs	r6, r2
    110a:	f002 f915 	bl	3338 <Code_811>
    110e:	f7ff f8ee 	bl	2ee <eliminiere_tos>
    1112:	bd00      	pop	{pc}

00001114 <Dictionary_219>:
    1114:	0000114a 	andeq	r1, r0, sl, asr #2
    1118:	72020220 	andvc	r0, r2, #2
    111c:	f847003e 			; <UNDEFINED> instruction: 0xf847003e

0000111e <Code_219>:
    111e:	f847 6d04 	str.w	r6, [r7, #-4]!
    1122:	bc40      	pop	{r6}
    1124:	4770      	bx	lr

00001126 <allocator_r_from>:
    1126:	b500      	push	{lr}
    1128:	f7ff fa75 	bl	616 <push_lr_nachholen>
    112c:	f7ff f8d5 	bl	2da <befreie_tos>
    1130:	f7ff f9aa 	bl	488 <get_free_register>
    1134:	6003      	str	r3, [r0, #0]
    1136:	f847 6d04 	str.w	r6, [r7, #-4]!
    113a:	f64b 4600 	movw	r6, #48128	; 0xbc00
    113e:	2201      	movs	r2, #1
    1140:	409a      	lsls	r2, r3
    1142:	4316      	orrs	r6, r2
    1144:	f002 f8f8 	bl	3338 <Code_811>
    1148:	bd00      	pop	{pc}

0000114a <Dictionary_223>:
    114a:	00001168 	andeq	r1, r0, r8, ror #2
    114e:	72020220 	andvc	r0, r2, #2
    1152:	f8470040 			; <UNDEFINED> instruction: 0xf8470040

00001154 <Code_223>:
    1154:	f847 6d04 	str.w	r6, [r7, #-4]!
    1158:	9e00      	ldr	r6, [sp, #0]
    115a:	4770      	bx	lr
    115c:	b500      	push	{lr}
    115e:	f7ff fa5a 	bl	616 <push_lr_nachholen>
    1162:	f002 fdf4 	bl	3d4e <rfetch_allocator>
    1166:	bd00      	pop	{pc}

00001168 <Dictionary_225>:
    1168:	0000118c 	andeq	r1, r0, ip, lsl #3
    116c:	72050220 	andvc	r0, r5, #2
    1170:	706f7264 	rsbvc	r7, pc, r4, ror #4

00001174 <Code_225>:
    1174:	b001      	add	sp, #4
    1176:	4770      	bx	lr
    1178:	b500      	push	{lr}
    117a:	f7ff fa4c 	bl	616 <push_lr_nachholen>
    117e:	f847 6d04 	str.w	r6, [r7, #-4]!
    1182:	f24b 0601 	movw	r6, #45057	; 0xb001
    1186:	f002 f8d7 	bl	3338 <Code_811>
    118a:	bd00      	pop	{pc}

0000118c <Dictionary_228>:
    118c:	000011a0 	andeq	r1, r0, r0, lsr #3
    1190:	72050020 	andvc	r0, r5, #32
    1194:	6b636970 	blvs	18db75c <BIT24+0x8db75c>

00001198 <Code_228>:
    1198:	00b6      	lsls	r6, r6, #2
    119a:	446e      	add	r6, sp
    119c:	6836      	ldr	r6, [r6, #0]
    119e:	4770      	bx	lr

000011a0 <Dictionary_229>:
    11a0:	000011cc 	andeq	r1, r0, ip, asr #3
    11a4:	72040000 	andvc	r0, r4, #0
    11a8:	006c6c6f 	rsbeq	r6, ip, pc, ror #24

000011ac <Code_229>:
    11ac:	2e00      	cmp	r6, #0
    11ae:	d101      	bne.n	11b4 <Code_229+0x8>
    11b0:	cf40      	ldmia	r7!, {r6}
    11b2:	4770      	bx	lr
    11b4:	00b0      	lsls	r0, r6, #2
    11b6:	5839      	ldr	r1, [r7, r0]
    11b8:	19c0      	adds	r0, r0, r7
    11ba:	1f03      	subs	r3, r0, #4
    11bc:	681a      	ldr	r2, [r3, #0]
    11be:	6002      	str	r2, [r0, #0]
    11c0:	3804      	subs	r0, #4
    11c2:	3e01      	subs	r6, #1
    11c4:	d1f9      	bne.n	11ba <Code_229+0xe>
    11c6:	3704      	adds	r7, #4
    11c8:	000e      	movs	r6, r1
    11ca:	4770      	bx	lr

000011cc <Dictionary_231>:
    11cc:	000011fc 	strdeq	r1, [r0], -ip
    11d0:	2d050000 	stccs	0, cr0, [r5]
    11d4:	6c6c6f72 	stclvs	15, cr6, [ip], #-456	; 0xfffffe38

000011d8 <Code_231>:
    11d8:	2e00      	cmp	r6, #0
    11da:	d101      	bne.n	11e0 <Code_231+0x8>
    11dc:	cf40      	ldmia	r7!, {r6}
    11de:	4770      	bx	lr
    11e0:	6838      	ldr	r0, [r7, #0]
    11e2:	4639      	mov	r1, r7
    11e4:	684a      	ldr	r2, [r1, #4]
    11e6:	600a      	str	r2, [r1, #0]
    11e8:	3104      	adds	r1, #4
    11ea:	3e01      	subs	r6, #1
    11ec:	d1fa      	bne.n	11e4 <Code_231+0xc>
    11ee:	6008      	str	r0, [r1, #0]
    11f0:	cf40      	ldmia	r7!, {r6}
    11f2:	4770      	bx	lr
    11f4:	2000028c 	andcs	r0, r0, ip, lsl #5
    11f8:	2000038c 	andcs	r0, r0, ip, lsl #7

000011fc <Dictionary_234>:
    11fc:	00001216 	andeq	r1, r0, r6, lsl r2
    1200:	61030262 	tstvs	r3, r2, ror #4
    1204:	cf01646e 	svcgt	0x0001646e

00001206 <Code_234>:
    1206:	cf01      	ldmia	r7!, {r0}
    1208:	4006      	ands	r6, r0
    120a:	4770      	bx	lr
    120c:	f847 6d04 	str.w	r6, [r7, #-4]!
    1210:	f244 0600 	movw	r6, #16384	; 0x4000
    1214:	e0d0      	b.n	13b8 <alloc_kommutativ>

00001216 <Dictionary_237>:
    1216:	00001232 	andeq	r1, r0, r2, lsr r2
    121a:	62030262 	andvs	r0, r3, #536870918	; 0x20000006
    121e:	cf016369 	svcgt	0x00016369

00001220 <Code_237>:
    1220:	cf01      	ldmia	r7!, {r0}
    1222:	43b0      	bics	r0, r6
    1224:	0006      	movs	r6, r0
    1226:	4770      	bx	lr
    1228:	f847 6d04 	str.w	r6, [r7, #-4]!
    122c:	f244 3680 	movw	r6, #17280	; 0x4380
    1230:	e0be      	b.n	13b0 <alloc_unkommutativ>

00001232 <Dictionary_240>:
    1232:	0000124c 	andeq	r1, r0, ip, asr #4
    1236:	6f020262 	svcvs	0x00020262
    123a:	cf010072 	svcgt	0x00010072

0000123c <Code_240>:
    123c:	cf01      	ldmia	r7!, {r0}
    123e:	4306      	orrs	r6, r0
    1240:	4770      	bx	lr

00001242 <or_allocator>:
    1242:	f847 6d04 	str.w	r6, [r7, #-4]!
    1246:	f244 3600 	movw	r6, #17152	; 0x4300
    124a:	e0b5      	b.n	13b8 <alloc_kommutativ>

0000124c <Dictionary_243>:
    124c:	00001266 	andeq	r1, r0, r6, ror #4
    1250:	78030262 	stmdavc	r3, {r1, r5, r6, r9}
    1254:	cf01726f 	svcgt	0x0001726f

00001256 <Code_243>:
    1256:	cf01      	ldmia	r7!, {r0}
    1258:	4046      	eors	r6, r0
    125a:	4770      	bx	lr

0000125c <xor_allocator>:
    125c:	f847 6d04 	str.w	r6, [r7, #-4]!
    1260:	f244 0640 	movw	r6, #16448	; 0x4040
    1264:	e0a8      	b.n	13b8 <alloc_kommutativ>

00001266 <Dictionary_246>:
    1266:	0000127e 	andeq	r1, r0, lr, ror r2
    126a:	2a010262 	bcs	41bfa <BIT18+0x1bfa>

0000126e <Code_246>:
    126e:	cf01      	ldmia	r7!, {r0}
    1270:	4346      	muls	r6, r0
    1272:	4770      	bx	lr
    1274:	f847 6d04 	str.w	r6, [r7, #-4]!
    1278:	f244 3640 	movw	r6, #17216	; 0x4340
    127c:	e09c      	b.n	13b8 <alloc_kommutativ>

0000127e <Dictionary_249>:
    127e:	000012b2 			; <UNDEFINED> instruction: 0x000012b2
    1282:	63030261 	movwvs	r0, #12897	; 0x3261
    1286:	fab67a6c 	blx	fed9fc3e <BIT31+0x7ed9fc3e>

00001288 <Code_249>:
    1288:	fab6 f686 	clz	r6, r6
    128c:	4770      	bx	lr
    128e:	b500      	push	{lr}
    1290:	f7ff f92e 	bl	4f0 <expect_one_element>
    1294:	f847 6d04 	str.w	r6, [r7, #-4]!
    1298:	4e6f      	ldr	r6, [pc, #444]	; (1458 <m3_opcodieren+0x26>)
    129a:	f7ff f965 	bl	568 <expect_tos_in_register>
    129e:	430e      	orrs	r6, r1
    12a0:	ea56 4601 	orrs.w	r6, r6, r1, lsl #16
    12a4:	f7ff f9ae 	bl	604 <tos_registerwechsel>
    12a8:	ea56 2603 	orrs.w	r6, r6, r3, lsl #8
    12ac:	f002 f873 	bl	3396 <Code_820>
    12b0:	bd00      	pop	{pc}

000012b2 <Dictionary_251>:
    12b2:	000012c2 	andeq	r1, r0, r2, asr #5
    12b6:	72030061 	andvc	r0, r3, #97	; 0x61
    12ba:	ea5f726f 	b	17ddc7e <BIT24+0x7ddc7e>

000012bc <Code_251>:
    12bc:	ea5f 0676 	movs.w	r6, r6, ror #1
    12c0:	4770      	bx	lr

000012c2 <Dictionary_252>:
    12c2:	000012d4 	ldrdeq	r1, [r0], -r4
    12c6:	72030061 	andvc	r0, r3, #97	; 0x61
    12ca:	19b66c6f 	ldmibne	r6!, {r0, r1, r2, r3, r5, r6, sl, fp, sp, lr}

000012cc <Code_252>:
    12cc:	19b6      	adds	r6, r6, r6
    12ce:	f156 0600 	adcs.w	r6, r6, #0
    12d2:	4770      	bx	lr

000012d4 <Dictionary_253>:
    12d4:	0000130c 	andeq	r1, r0, ip, lsl #6
    12d8:	61070262 	tstvs	r7, r2, ror #4
    12dc:	69687372 	stmdbvs	r8!, {r1, r4, r5, r6, r8, r9, ip, sp, lr}^
    12e0:	cf017466 	svcgt	0x00017466

000012e2 <Code_253>:
    12e2:	cf01      	ldmia	r7!, {r0}
    12e4:	4130      	asrs	r0, r6
    12e6:	0006      	movs	r6, r0
    12e8:	4770      	bx	lr
    12ea:	b500      	push	{lr}
    12ec:	f847 6d04 	str.w	r6, [r7, #-4]!
    12f0:	f244 1600 	movw	r6, #16640	; 0x4100
    12f4:	f847 6d04 	str.w	r6, [r7, #-4]!
    12f8:	f241 0600 	movw	r6, #4096	; 0x1000
    12fc:	f7ff f902 	bl	504 <expect_two_elements>
    1300:	6841      	ldr	r1, [r0, #4]
    1302:	291f      	cmp	r1, #31
    1304:	d92a      	bls.n	135c <Code_263+0x18>
    1306:	211f      	movs	r1, #31
    1308:	6041      	str	r1, [r0, #4]
    130a:	e027      	b.n	135c <Code_263+0x18>

0000130c <Dictionary_258>:
    130c:	00001336 	andeq	r1, r0, r6, lsr r3
    1310:	72060262 	andvc	r0, r6, #536870918	; 0x20000006
    1314:	66696873 			; <UNDEFINED> instruction: 0x66696873
    1318:	cf010074 	svcgt	0x00010074

0000131a <Code_258>:
    131a:	cf01      	ldmia	r7!, {r0}
    131c:	40f0      	lsrs	r0, r6
    131e:	0006      	movs	r6, r0
    1320:	4770      	bx	lr
    1322:	b500      	push	{lr}
    1324:	f847 6d04 	str.w	r6, [r7, #-4]!
    1328:	f244 06c0 	movw	r6, #16576	; 0x40c0
    132c:	f847 6d04 	str.w	r6, [r7, #-4]!
    1330:	f640 0600 	movw	r6, #2048	; 0x800
    1334:	e012      	b.n	135c <Code_263+0x18>

00001336 <Dictionary_263>:
    1336:	00001474 	andeq	r1, r0, r4, ror r4
    133a:	6c060262 	sfmvs	f0, 4, [r6], {98}	; 0x62
    133e:	66696873 			; <UNDEFINED> instruction: 0x66696873
    1342:	cf010074 	svcgt	0x00010074

00001344 <Code_263>:
    1344:	cf01      	ldmia	r7!, {r0}
    1346:	40b0      	lsls	r0, r6
    1348:	0006      	movs	r6, r0
    134a:	4770      	bx	lr
    134c:	b500      	push	{lr}
    134e:	f847 6d04 	str.w	r6, [r7, #-4]!
    1352:	f244 0680 	movw	r6, #16512	; 0x4080
    1356:	f847 6d04 	str.w	r6, [r7, #-4]!
    135a:	2600      	movs	r6, #0
    135c:	f7ff f8d2 	bl	504 <expect_two_elements>
    1360:	6801      	ldr	r1, [r0, #0]
    1362:	2928      	cmp	r1, #40	; 0x28
    1364:	d003      	beq.n	136e <Code_263+0x2a>
    1366:	cf40      	ldmia	r7!, {r6}
    1368:	f000 f822 	bl	13b0 <alloc_unkommutativ>
    136c:	bd00      	pop	{pc}
    136e:	3704      	adds	r7, #4
    1370:	6841      	ldr	r1, [r0, #4]
    1372:	f7fe ffbc 	bl	2ee <eliminiere_tos>
    1376:	2900      	cmp	r1, #0
    1378:	d101      	bne.n	137e <Code_263+0x3a>
    137a:	cf40      	ldmia	r7!, {r6}
    137c:	bd00      	pop	{pc}
    137e:	291f      	cmp	r1, #31
    1380:	d80a      	bhi.n	1398 <Code_263+0x54>
    1382:	0189      	lsls	r1, r1, #6
    1384:	430e      	orrs	r6, r1
    1386:	6802      	ldr	r2, [r0, #0]
    1388:	00d2      	lsls	r2, r2, #3
    138a:	4316      	orrs	r6, r2
    138c:	f7ff f93a 	bl	604 <tos_registerwechsel>
    1390:	431e      	orrs	r6, r3
    1392:	f001 ffd1 	bl	3338 <Code_811>
    1396:	bd00      	pop	{pc}
    1398:	cf40      	ldmia	r7!, {r6}
    139a:	f7ff f933 	bl	604 <tos_registerwechsel>
    139e:	f847 6d04 	str.w	r6, [r7, #-4]!
    13a2:	f242 0600 	movw	r6, #8192	; 0x2000
    13a6:	021b      	lsls	r3, r3, #8
    13a8:	431e      	orrs	r6, r3
    13aa:	f001 ffc5 	bl	3338 <Code_811>
    13ae:	bd00      	pop	{pc}

000013b0 <alloc_unkommutativ>:
    13b0:	b50f      	push	{r0, r1, r2, r3, lr}

000013b2 <alloc_unkommutativ_ohneregister>:
    13b2:	f7ff f8a7 	bl	504 <expect_two_elements>
    13b6:	e00c      	b.n	13d2 <alloc_logic_gemeinsam>

000013b8 <alloc_kommutativ>:
    13b8:	b50f      	push	{r0, r1, r2, r3, lr}

000013ba <alloc_kommutativ_ohneregister>:
    13ba:	f7ff f8a3 	bl	504 <expect_two_elements>
    13be:	6801      	ldr	r1, [r0, #0]
    13c0:	2906      	cmp	r1, #6
    13c2:	d101      	bne.n	13c8 <alloc_kommutativ_ohneregister+0xe>
    13c4:	f7ff fdf1 	bl	faa <swap_allocator>
    13c8:	6882      	ldr	r2, [r0, #8]
    13ca:	2a28      	cmp	r2, #40	; 0x28
    13cc:	d101      	bne.n	13d2 <alloc_logic_gemeinsam>
    13ce:	f7ff fdec 	bl	faa <swap_allocator>

000013d2 <alloc_logic_gemeinsam>:
    13d2:	f7ff f8d3 	bl	57c <expect_nos_in_register>
    13d6:	6801      	ldr	r1, [r0, #0]
    13d8:	2928      	cmp	r1, #40	; 0x28
    13da:	d11c      	bne.n	1416 <alloc_logic_gemeinsam+0x44>
    13dc:	f847 6d04 	str.w	r6, [r7, #-4]!
    13e0:	6846      	ldr	r6, [r0, #4]
    13e2:	f001 fb99 	bl	2b18 <Code_671>
    13e6:	cf02      	ldmia	r7!, {r1}
    13e8:	2e00      	cmp	r6, #0
    13ea:	cf40      	ldmia	r7!, {r6}
    13ec:	d013      	beq.n	1416 <alloc_logic_gemeinsam+0x44>
    13ee:	f5b6 4f80 	cmp.w	r6, #16384	; 0x4000
    13f2:	d101      	bne.n	13f8 <alloc_logic_gemeinsam+0x26>
    13f4:	4e19      	ldr	r6, [pc, #100]	; (145c <m3_opcodieren+0x2a>)
    13f6:	e01c      	b.n	1432 <m3_opcodieren>
    13f8:	4a19      	ldr	r2, [pc, #100]	; (1460 <m3_opcodieren+0x2e>)
    13fa:	4296      	cmp	r6, r2
    13fc:	d101      	bne.n	1402 <alloc_logic_gemeinsam+0x30>
    13fe:	4e19      	ldr	r6, [pc, #100]	; (1464 <m3_opcodieren+0x32>)
    1400:	e017      	b.n	1432 <m3_opcodieren>
    1402:	f5b6 4f86 	cmp.w	r6, #17152	; 0x4300
    1406:	d101      	bne.n	140c <alloc_logic_gemeinsam+0x3a>
    1408:	4e17      	ldr	r6, [pc, #92]	; (1468 <m3_opcodieren+0x36>)
    140a:	e012      	b.n	1432 <m3_opcodieren>
    140c:	4a17      	ldr	r2, [pc, #92]	; (146c <m3_opcodieren+0x3a>)
    140e:	4296      	cmp	r6, r2
    1410:	d101      	bne.n	1416 <alloc_logic_gemeinsam+0x44>
    1412:	4e17      	ldr	r6, [pc, #92]	; (1470 <m3_opcodieren+0x3e>)
    1414:	e00d      	b.n	1432 <m3_opcodieren>
    1416:	f7ff f8c5 	bl	5a4 <nos_change_tos_away_later>
    141a:	f7ff f8a5 	bl	568 <expect_tos_in_register>
    141e:	00c9      	lsls	r1, r1, #3
    1420:	6882      	ldr	r2, [r0, #8]
    1422:	430e      	orrs	r6, r1
    1424:	4316      	orrs	r6, r2
    1426:	f001 ff87 	bl	3338 <Code_811>
    142a:	f7fe ff60 	bl	2ee <eliminiere_tos>
    142e:	bd0f      	pop	{r0, r1, r2, r3, pc}

00001430 <m3_opcodieren_anderswo>:
    1430:	b50f      	push	{r0, r1, r2, r3, lr}

00001432 <m3_opcodieren>:
    1432:	430e      	orrs	r6, r1
    1434:	6881      	ldr	r1, [r0, #8]
    1436:	ea56 4601 	orrs.w	r6, r6, r1, lsl #16
    143a:	f7fe ff58 	bl	2ee <eliminiere_tos>
    143e:	f7fe ff56 	bl	2ee <eliminiere_tos>
    1442:	f7fe ff4a 	bl	2da <befreie_tos>
    1446:	f7ff f81f 	bl	488 <get_free_register>
    144a:	6003      	str	r3, [r0, #0]
    144c:	ea56 2603 	orrs.w	r6, r6, r3, lsl #8
    1450:	f001 ffa1 	bl	3396 <Code_820>
    1454:	bd0f      	pop	{r0, r1, r2, r3, pc}
    1456:	f0800000 			; <UNDEFINED> instruction: 0xf0800000
    145a:	0000fab0 			; <UNDEFINED> instruction: 0x0000fab0
    145e:	4040f010 	submi	pc, r0, r0, lsl r0	; <UNPREDICTABLE>
    1462:	00000000 	andeq	r0, r0, r0
    1466:	0000f090 	muleq	r0, r0, r0
    146a:	4380f050 	orrmi	pc, r0, #80	; 0x50
    146e:	00000000 	andeq	r0, r0, r0
    1472:	1498f030 	ldrne	pc, [r8], #48	; 0x30

00001474 <Dictionary_276>:
    1474:	00001498 	muleq	r0, r8, r4
    1478:	30020261 	andcc	r0, r2, r1, ror #4
    147c:	3e01003d 	mcrcc	0, 0, r0, cr1, cr13, {1}

0000147e <Code_276>:
    147e:	3e01      	subs	r6, #1
    1480:	41b6      	sbcs	r6, r6
    1482:	4770      	bx	lr

00001484 <allocator_equal_zero>:
    1484:	b500      	push	{lr}
    1486:	f000 f8fd 	bl	1684 <prepare_single_compare>
    148a:	f000 fe74 	bl	2176 <allocator_one_minus>
    148e:	f7fe ff2e 	bl	2ee <eliminiere_tos>
    1492:	4979      	ldr	r1, [pc, #484]	; (1678 <Code_330+0x18>)
    1494:	6281      	str	r1, [r0, #40]	; 0x28
    1496:	bd00      	pop	{pc}

00001498 <Dictionary_277>:
    1498:	000014be 			; <UNDEFINED> instruction: 0x000014be
    149c:	30030261 	andcc	r0, r3, r1, ror #4
    14a0:	3e013e3c 	mcrcc	14, 0, r3, cr1, cr12, {1}

000014a2 <Code_277>:
    14a2:	3e01      	subs	r6, #1
    14a4:	41b6      	sbcs	r6, r6
    14a6:	43f6      	mvns	r6, r6
    14a8:	4770      	bx	lr

000014aa <allocator_unequal_zero>:
    14aa:	b500      	push	{lr}
    14ac:	f000 f8ea 	bl	1684 <prepare_single_compare>
    14b0:	f000 fe61 	bl	2176 <allocator_one_minus>
    14b4:	f7fe ff1b 	bl	2ee <eliminiere_tos>
    14b8:	4970      	ldr	r1, [pc, #448]	; (167c <Code_330+0x1c>)
    14ba:	6281      	str	r1, [r0, #40]	; 0x28
    14bc:	bd00      	pop	{pc}

000014be <Dictionary_278>:
    14be:	000014e4 	andeq	r1, r0, r4, ror #9
    14c2:	30020261 	andcc	r0, r2, r1, ror #4
    14c6:	17f6003c 			; <UNDEFINED> instruction: 0x17f6003c

000014c8 <Code_278>:
    14c8:	17f6      	asrs	r6, r6, #31
    14ca:	4770      	bx	lr

000014cc <alloc_nullkleiner>:
    14cc:	b500      	push	{lr}
    14ce:	f000 f8d9 	bl	1684 <prepare_single_compare>
    14d2:	f847 6d04 	str.w	r6, [r7, #-4]!
    14d6:	f241 76c0 	movw	r6, #6080	; 0x17c0
    14da:	f000 fe8f 	bl	21fc <smalltworegisters>
    14de:	4968      	ldr	r1, [pc, #416]	; (1680 <Code_330+0x20>)
    14e0:	6281      	str	r1, [r0, #40]	; 0x28
    14e2:	bd00      	pop	{pc}

000014e4 <Dictionary_281>:
    14e4:	000014fa 	strdeq	r1, [r0], -sl
    14e8:	74040060 	strvc	r0, [r4], #-96	; 0x60
    14ec:	00657572 	rsbeq	r7, r5, r2, ror r5

000014f0 <Code_281>:
    14f0:	f847 6d04 	str.w	r6, [r7, #-4]!

000014f4 <generate_true>:
    14f4:	2600      	movs	r6, #0
    14f6:	43f6      	mvns	r6, r6
    14f8:	4770      	bx	lr

000014fa <Dictionary_283>:
    14fa:	0000150e 	andeq	r1, r0, lr, lsl #10
    14fe:	66050060 	strvs	r0, [r5], -r0, rrx
    1502:	65736c61 	ldrbvs	r6, [r3, #-3169]!	; 0xc61

00001506 <Code_283>:
    1506:	f847 6d04 	str.w	r6, [r7, #-4]!
    150a:	2600      	movs	r6, #0
    150c:	4770      	bx	lr

0000150e <Dictionary_285>:
    150e:	00001534 	andeq	r1, r0, r4, lsr r5
    1512:	3e020242 	cdpcc	2, 0, cr0, cr2, cr2, {2}
    1516:	cf01003d 	svcgt	0x0001003d

00001518 <Code_285>:
    1518:	cf01      	ldmia	r7!, {r0}
    151a:	42b0      	cmp	r0, r6
    151c:	daea      	bge.n	14f4 <generate_true>
    151e:	2600      	movs	r6, #0
    1520:	4770      	bx	lr
    1522:	f847 6d04 	str.w	r6, [r7, #-4]!
    1526:	f64d 3600 	movw	r6, #56064	; 0xdb00
    152a:	f847 6d04 	str.w	r6, [r7, #-4]!
    152e:	f64d 2600 	movw	r6, #55808	; 0xda00
    1532:	e0b3      	b.n	169c <prepare_compare>

00001534 <Dictionary_290>:
    1534:	0000155a 	andeq	r1, r0, sl, asr r5
    1538:	3c020242 	sfmcc	f0, 4, [r2], {66}	; 0x42
    153c:	cf01003d 	svcgt	0x0001003d

0000153e <Code_290>:
    153e:	cf01      	ldmia	r7!, {r0}
    1540:	42b0      	cmp	r0, r6
    1542:	ddd7      	ble.n	14f4 <generate_true>
    1544:	2600      	movs	r6, #0
    1546:	4770      	bx	lr
    1548:	f847 6d04 	str.w	r6, [r7, #-4]!
    154c:	f64d 4600 	movw	r6, #56320	; 0xdc00
    1550:	f847 6d04 	str.w	r6, [r7, #-4]!
    1554:	f64d 5600 	movw	r6, #56576	; 0xdd00
    1558:	e0a0      	b.n	169c <prepare_compare>

0000155a <Dictionary_295>:
    155a:	0000157e 	andeq	r1, r0, lr, ror r5
    155e:	3c010242 	sfmcc	f0, 4, [r1], {66}	; 0x42

00001562 <Code_295>:
    1562:	cf01      	ldmia	r7!, {r0}
    1564:	42b0      	cmp	r0, r6
    1566:	dbc5      	blt.n	14f4 <generate_true>
    1568:	2600      	movs	r6, #0
    156a:	4770      	bx	lr
    156c:	f847 6d04 	str.w	r6, [r7, #-4]!
    1570:	f64d 2600 	movw	r6, #55808	; 0xda00
    1574:	f847 6d04 	str.w	r6, [r7, #-4]!
    1578:	f64d 3600 	movw	r6, #56064	; 0xdb00
    157c:	e08e      	b.n	169c <prepare_compare>

0000157e <Dictionary_300>:
    157e:	000015a2 	andeq	r1, r0, r2, lsr #11
    1582:	3e010242 	cdpcc	2, 0, cr0, cr1, cr2, {2}

00001586 <Code_300>:
    1586:	cf01      	ldmia	r7!, {r0}
    1588:	42b0      	cmp	r0, r6
    158a:	dcb3      	bgt.n	14f4 <generate_true>
    158c:	2600      	movs	r6, #0
    158e:	4770      	bx	lr
    1590:	f847 6d04 	str.w	r6, [r7, #-4]!
    1594:	f64d 5600 	movw	r6, #56576	; 0xdd00
    1598:	f847 6d04 	str.w	r6, [r7, #-4]!
    159c:	f64d 4600 	movw	r6, #56320	; 0xdc00
    15a0:	e07c      	b.n	169c <prepare_compare>

000015a2 <Dictionary_305>:
    15a2:	000015c8 	andeq	r1, r0, r8, asr #11
    15a6:	75030262 	strvc	r0, [r3, #-610]	; 0x262
    15aa:	cf013d3e 	svcgt	0x00013d3e

000015ac <Code_305>:
    15ac:	cf01      	ldmia	r7!, {r0}
    15ae:	1b86      	subs	r6, r0, r6
    15b0:	41b6      	sbcs	r6, r6
    15b2:	43f6      	mvns	r6, r6
    15b4:	4770      	bx	lr
    15b6:	f847 6d04 	str.w	r6, [r7, #-4]!
    15ba:	f24d 3600 	movw	r6, #54016	; 0xd300
    15be:	f847 6d04 	str.w	r6, [r7, #-4]!
    15c2:	f24d 2600 	movw	r6, #53760	; 0xd200
    15c6:	e069      	b.n	169c <prepare_compare>

000015c8 <Dictionary_310>:
    15c8:	000015ee 	andeq	r1, r0, lr, ror #11
    15cc:	75030262 	strvc	r0, [r3, #-610]	; 0x262
    15d0:	cf013d3c 	svcgt	0x00013d3c

000015d2 <Code_310>:
    15d2:	cf01      	ldmia	r7!, {r0}
    15d4:	1a36      	subs	r6, r6, r0
    15d6:	41b6      	sbcs	r6, r6
    15d8:	43f6      	mvns	r6, r6
    15da:	4770      	bx	lr
    15dc:	f847 6d04 	str.w	r6, [r7, #-4]!
    15e0:	f64d 0600 	movw	r6, #55296	; 0xd800
    15e4:	f847 6d04 	str.w	r6, [r7, #-4]!
    15e8:	f64d 1600 	movw	r6, #55552	; 0xd900
    15ec:	e056      	b.n	169c <prepare_compare>

000015ee <Dictionary_315>:
    15ee:	00001612 	andeq	r1, r0, r2, lsl r6
    15f2:	75020262 	strvc	r0, [r2, #-610]	; 0x262
    15f6:	cf01003c 	svcgt	0x0001003c

000015f8 <Code_315>:
    15f8:	cf01      	ldmia	r7!, {r0}
    15fa:	1b86      	subs	r6, r0, r6
    15fc:	41b6      	sbcs	r6, r6
    15fe:	4770      	bx	lr
    1600:	f847 6d04 	str.w	r6, [r7, #-4]!
    1604:	f24d 2600 	movw	r6, #53760	; 0xd200
    1608:	f847 6d04 	str.w	r6, [r7, #-4]!
    160c:	f24d 3600 	movw	r6, #54016	; 0xd300
    1610:	e044      	b.n	169c <prepare_compare>

00001612 <Dictionary_320>:
    1612:	00001636 	andeq	r1, r0, r6, lsr r6
    1616:	75020262 	strvc	r0, [r2, #-610]	; 0x262
    161a:	cf01003e 	svcgt	0x0001003e

0000161c <Code_320>:
    161c:	cf01      	ldmia	r7!, {r0}
    161e:	1a36      	subs	r6, r6, r0
    1620:	41b6      	sbcs	r6, r6
    1622:	4770      	bx	lr
    1624:	f847 6d04 	str.w	r6, [r7, #-4]!
    1628:	f64d 1600 	movw	r6, #55552	; 0xd900
    162c:	f847 6d04 	str.w	r6, [r7, #-4]!
    1630:	f64d 0600 	movw	r6, #55296	; 0xd800
    1634:	e032      	b.n	169c <prepare_compare>

00001636 <Dictionary_325>:
    1636:	00001658 	andeq	r1, r0, r8, asr r6
    163a:	3c020262 	sfmcc	f0, 4, [r2], {98}	; 0x62
    163e:	cf01003e 	svcgt	0x0001003e

00001640 <Code_325>:
    1640:	cf01      	ldmia	r7!, {r0}
    1642:	1b81      	subs	r1, r0, r6
    1644:	1a36      	subs	r6, r6, r0
    1646:	430e      	orrs	r6, r1
    1648:	4770      	bx	lr
    164a:	f847 6d04 	str.w	r6, [r7, #-4]!
    164e:	f24d 0600 	movw	r6, #53248	; 0xd000
    1652:	f847 6d04 	str.w	r6, [r7, #-4]!
    1656:	e021      	b.n	169c <prepare_compare>

00001658 <Dictionary_330>:
    1658:	000017c0 	andeq	r1, r0, r0, asr #15
    165c:	3d010262 	sfmcc	f0, 4, [r1, #-392]	; 0xfffffe78

00001660 <Code_330>:
    1660:	cf01      	ldmia	r7!, {r0}
    1662:	1a36      	subs	r6, r6, r0
    1664:	3e01      	subs	r6, #1
    1666:	41b6      	sbcs	r6, r6
    1668:	4770      	bx	lr
    166a:	f847 6d04 	str.w	r6, [r7, #-4]!
    166e:	f24d 1600 	movw	r6, #53504	; 0xd100
    1672:	f847 6d04 	str.w	r6, [r7, #-4]!
    1676:	e011      	b.n	169c <prepare_compare>
    1678:	0000d200 	andeq	sp, r0, r0, lsl #4
    167c:	0000d300 	andeq	sp, r0, r0, lsl #6
    1680:	0000d500 	andeq	sp, r0, r0, lsl #10

00001684 <prepare_single_compare>:
    1684:	b500      	push	{lr}
    1686:	f7fe ff33 	bl	4f0 <expect_one_element>
    168a:	f7fe fe67 	bl	35c <tidyup_register_allocator_5os>
    168e:	f7fe fe6a 	bl	366 <tidyup_register_allocator_4os>
    1692:	f7fe fe6d 	bl	370 <tidyup_register_allocator_3os>
    1696:	f7fe ff71 	bl	57c <expect_nos_in_register>
    169a:	bd00      	pop	{pc}

0000169c <prepare_compare>:
    169c:	b500      	push	{lr}
    169e:	f7fe ff31 	bl	504 <expect_two_elements>
    16a2:	f7fe fe5b 	bl	35c <tidyup_register_allocator_5os>
    16a6:	f7fe fe5e 	bl	366 <tidyup_register_allocator_4os>
    16aa:	f7fe ff71 	bl	590 <expect_3os_in_register>
    16ae:	6882      	ldr	r2, [r0, #8]
    16b0:	2a28      	cmp	r2, #40	; 0x28
    16b2:	d104      	bne.n	16be <prepare_compare+0x22>
    16b4:	f7ff fc79 	bl	faa <swap_allocator>
    16b8:	6839      	ldr	r1, [r7, #0]
    16ba:	603e      	str	r6, [r7, #0]
    16bc:	460e      	mov	r6, r1
    16be:	cf40      	ldmia	r7!, {r6}
    16c0:	6801      	ldr	r1, [r0, #0]
    16c2:	2928      	cmp	r1, #40	; 0x28
    16c4:	d11d      	bne.n	1702 <prepare_compare+0x66>
    16c6:	6841      	ldr	r1, [r0, #4]
    16c8:	29ff      	cmp	r1, #255	; 0xff
    16ca:	d807      	bhi.n	16dc <prepare_compare+0x40>
    16cc:	f847 6d04 	str.w	r6, [r7, #-4]!
    16d0:	f642 0600 	movw	r6, #10240	; 0x2800
    16d4:	430e      	orrs	r6, r1
    16d6:	6881      	ldr	r1, [r0, #8]
    16d8:	0209      	lsls	r1, r1, #8
    16da:	e01a      	b.n	1712 <prepare_compare+0x76>
    16dc:	f847 6d04 	str.w	r6, [r7, #-4]!
    16e0:	6846      	ldr	r6, [r0, #4]
    16e2:	f001 fa19 	bl	2b18 <Code_671>
    16e6:	cf02      	ldmia	r7!, {r1}
    16e8:	2e00      	cmp	r6, #0
    16ea:	cf40      	ldmia	r7!, {r6}
    16ec:	d009      	beq.n	1702 <prepare_compare+0x66>
    16ee:	f847 6d04 	str.w	r6, [r7, #-4]!
    16f2:	4e69      	ldr	r6, [pc, #420]	; (1898 <alloc_minmax+0x5e>)
    16f4:	430e      	orrs	r6, r1
    16f6:	6881      	ldr	r1, [r0, #8]
    16f8:	ea56 4601 	orrs.w	r6, r6, r1, lsl #16
    16fc:	f001 fe4b 	bl	3396 <Code_820>
    1700:	e00a      	b.n	1718 <prepare_compare+0x7c>
    1702:	f7fe ff31 	bl	568 <expect_tos_in_register>
    1706:	f847 6d04 	str.w	r6, [r7, #-4]!
    170a:	f244 2680 	movw	r6, #17024	; 0x4280
    170e:	00c9      	lsls	r1, r1, #3
    1710:	4316      	orrs	r6, r2
    1712:	430e      	orrs	r6, r1
    1714:	f001 fe10 	bl	3338 <Code_811>
    1718:	f7fe fde9 	bl	2ee <eliminiere_tos>
    171c:	f7fe fde7 	bl	2ee <eliminiere_tos>
    1720:	6286      	str	r6, [r0, #40]	; 0x28
    1722:	cf40      	ldmia	r7!, {r6}
    1724:	bd00      	pop	{pc}

00001726 <sprungschreiber_flaggenerator>:
    1726:	b50f      	push	{r0, r1, r2, r3, lr}
    1728:	485c      	ldr	r0, [pc, #368]	; (189c <alloc_minmax+0x62>)
    172a:	6a81      	ldr	r1, [r0, #40]	; 0x28
    172c:	2900      	cmp	r1, #0
    172e:	d033      	beq.n	1798 <sprungschreiber_flaggenerator+0x72>
    1730:	f847 6d04 	str.w	r6, [r7, #-4]!
    1734:	6a86      	ldr	r6, [r0, #40]	; 0x28
    1736:	2100      	movs	r1, #0
    1738:	6281      	str	r1, [r0, #40]	; 0x28
    173a:	0a31      	lsrs	r1, r6, #8
    173c:	29d5      	cmp	r1, #213	; 0xd5
    173e:	d101      	bne.n	1744 <sprungschreiber_flaggenerator+0x1e>
    1740:	cf40      	ldmia	r7!, {r6}
    1742:	bd0f      	pop	{r0, r1, r2, r3, pc}
    1744:	f7fe fdc9 	bl	2da <befreie_tos>
    1748:	f7fe fe9e 	bl	488 <get_free_register>
    174c:	6003      	str	r3, [r0, #0]
    174e:	29d2      	cmp	r1, #210	; 0xd2
    1750:	d103      	bne.n	175a <sprungschreiber_flaggenerator+0x34>
    1752:	4e53      	ldr	r6, [pc, #332]	; (18a0 <alloc_minmax+0x66>)
    1754:	f000 fd52 	bl	21fc <smalltworegisters>
    1758:	bd0f      	pop	{r0, r1, r2, r3, pc}
    175a:	29d3      	cmp	r1, #211	; 0xd3
    175c:	d105      	bne.n	176a <sprungschreiber_flaggenerator+0x44>
    175e:	4e50      	ldr	r6, [pc, #320]	; (18a0 <alloc_minmax+0x66>)
    1760:	f000 fd4c 	bl	21fc <smalltworegisters>
    1764:	f000 fd5d 	bl	2222 <allocator_not>
    1768:	bd0f      	pop	{r0, r1, r2, r3, pc}
    176a:	3602      	adds	r6, #2
    176c:	f001 fde4 	bl	3338 <Code_811>
    1770:	f847 6d04 	str.w	r6, [r7, #-4]!
    1774:	f242 0600 	movw	r6, #8192	; 0x2000
    1778:	f000 f80f 	bl	179a <smallplusminus>
    177c:	f000 fd51 	bl	2222 <allocator_not>
    1780:	f847 6d04 	str.w	r6, [r7, #-4]!
    1784:	f24e 0600 	movw	r6, #57344	; 0xe000
    1788:	f001 fdd6 	bl	3338 <Code_811>
    178c:	f847 6d04 	str.w	r6, [r7, #-4]!
    1790:	f242 0600 	movw	r6, #8192	; 0x2000
    1794:	f000 f801 	bl	179a <smallplusminus>
    1798:	bd0f      	pop	{r0, r1, r2, r3, pc}

0000179a <smallplusminus>:
    179a:	b500      	push	{lr}
    179c:	f7fe fea8 	bl	4f0 <expect_one_element>
    17a0:	f7fe ff17 	bl	5d2 <make_tos_changeable>
    17a4:	6801      	ldr	r1, [r0, #0]
    17a6:	0209      	lsls	r1, r1, #8
    17a8:	430e      	orrs	r6, r1
    17aa:	f001 fdc5 	bl	3338 <Code_811>
    17ae:	bd00      	pop	{pc}

000017b0 <eliminiere_tos_wenn_bmi>:
    17b0:	b500      	push	{lr}
    17b2:	6a81      	ldr	r1, [r0, #40]	; 0x28
    17b4:	0a09      	lsrs	r1, r1, #8
    17b6:	29d5      	cmp	r1, #213	; 0xd5
    17b8:	d101      	bne.n	17be <eliminiere_tos_wenn_bmi+0xe>
    17ba:	f7fe fd98 	bl	2ee <eliminiere_tos>
    17be:	bd00      	pop	{pc}

000017c0 <Dictionary_353>:
    17c0:	000017de 	ldrdeq	r1, [r0], -lr
    17c4:	6d030262 	sfmvs	f0, 4, [r3, #-392]	; 0xfffffe78
    17c8:	cf016e69 	svcgt	0x00016e69

000017ca <Code_353>:
    17ca:	cf01      	ldmia	r7!, {r0}
    17cc:	42b0      	cmp	r0, r6
    17ce:	dc00      	bgt.n	17d2 <Code_353+0x8>
    17d0:	0006      	movs	r6, r0
    17d2:	4770      	bx	lr
    17d4:	f847 6d04 	str.w	r6, [r7, #-4]!
    17d8:	f64d 3600 	movw	r6, #56064	; 0xdb00
    17dc:	e02d      	b.n	183a <alloc_minmax>

000017de <Dictionary_356>:
    17de:	000017fc 	strdeq	r1, [r0], -ip
    17e2:	6d030262 	sfmvs	f0, 4, [r3, #-392]	; 0xfffffe78
    17e6:	cf017861 	svcgt	0x00017861

000017e8 <Code_356>:
    17e8:	cf01      	ldmia	r7!, {r0}
    17ea:	42b0      	cmp	r0, r6
    17ec:	db00      	blt.n	17f0 <Code_356+0x8>
    17ee:	0006      	movs	r6, r0
    17f0:	4770      	bx	lr
    17f2:	f847 6d04 	str.w	r6, [r7, #-4]!
    17f6:	f64d 4600 	movw	r6, #56320	; 0xdc00
    17fa:	e01e      	b.n	183a <alloc_minmax>

000017fc <Dictionary_359>:
    17fc:	0000181c 	andeq	r1, r0, ip, lsl r8
    1800:	75040262 	strvc	r0, [r4, #-610]	; 0x262
    1804:	0078616d 	rsbseq	r6, r8, sp, ror #2

00001808 <Code_359>:
    1808:	cf01      	ldmia	r7!, {r0}
    180a:	42b0      	cmp	r0, r6
    180c:	d300      	bcc.n	1810 <Code_359+0x8>
    180e:	0006      	movs	r6, r0
    1810:	4770      	bx	lr
    1812:	f847 6d04 	str.w	r6, [r7, #-4]!
    1816:	f64d 0600 	movw	r6, #55296	; 0xd800
    181a:	e00e      	b.n	183a <alloc_minmax>

0000181c <Dictionary_362>:
    181c:	000018a4 	andeq	r1, r0, r4, lsr #17
    1820:	75040262 	strvc	r0, [r4, #-610]	; 0x262
    1824:	006e696d 	rsbeq	r6, lr, sp, ror #18

00001828 <Code_362>:
    1828:	cf01      	ldmia	r7!, {r0}
    182a:	42b0      	cmp	r0, r6
    182c:	d800      	bhi.n	1830 <Code_362+0x8>
    182e:	0006      	movs	r6, r0
    1830:	4770      	bx	lr
    1832:	f847 6d04 	str.w	r6, [r7, #-4]!
    1836:	f24d 3600 	movw	r6, #54016	; 0xd300

0000183a <alloc_minmax>:
    183a:	b500      	push	{lr}
    183c:	f7fe fe62 	bl	504 <expect_two_elements>
    1840:	6801      	ldr	r1, [r0, #0]
    1842:	6882      	ldr	r2, [r0, #8]
    1844:	4291      	cmp	r1, r2
    1846:	d103      	bne.n	1850 <alloc_minmax+0x16>
    1848:	cf40      	ldmia	r7!, {r6}
    184a:	f7fe fd56 	bl	2fa <eliminiere_nos>
    184e:	bd00      	pop	{pc}
    1850:	2a06      	cmp	r2, #6
    1852:	d101      	bne.n	1858 <alloc_minmax+0x1e>
    1854:	f7ff fba9 	bl	faa <swap_allocator>
    1858:	6801      	ldr	r1, [r0, #0]
    185a:	2928      	cmp	r1, #40	; 0x28
    185c:	d101      	bne.n	1862 <alloc_minmax+0x28>
    185e:	f7ff fba4 	bl	faa <swap_allocator>
    1862:	f7fe feb6 	bl	5d2 <make_tos_changeable>
    1866:	f7fe fe89 	bl	57c <expect_nos_in_register>
    186a:	00c9      	lsls	r1, r1, #3
    186c:	6802      	ldr	r2, [r0, #0]
    186e:	f847 6d04 	str.w	r6, [r7, #-4]!
    1872:	f244 2680 	movw	r6, #17024	; 0x4280
    1876:	430e      	orrs	r6, r1
    1878:	4316      	orrs	r6, r2
    187a:	f001 fd5d 	bl	3338 <Code_811>
    187e:	f001 fd5b 	bl	3338 <Code_811>
    1882:	f847 6d04 	str.w	r6, [r7, #-4]!
    1886:	f244 6600 	movw	r6, #17920	; 0x4600
    188a:	430e      	orrs	r6, r1
    188c:	4316      	orrs	r6, r2
    188e:	f001 fd53 	bl	3338 <Code_811>
    1892:	f7fe fd32 	bl	2fa <eliminiere_nos>
    1896:	bd00      	pop	{pc}
    1898:	f1b00f00 			; <UNDEFINED> instruction: 0xf1b00f00
    189c:	20000028 	andcs	r0, r0, r8, lsr #32
    18a0:	00004180 	andeq	r4, r0, r0, lsl #3

000018a4 <Dictionary_370>:
    18a4:	000018e2 	andeq	r1, r0, r2, ror #17
    18a8:	6d040000 	stcvs	0, cr0, [r4]
    18ac:	0065766f 	rsbeq	r7, r5, pc, ror #12

000018b0 <Code_370>:
    18b0:	b507      	push	{r0, r1, r2, lr}
    18b2:	0031      	movs	r1, r6
    18b4:	cf40      	ldmia	r7!, {r6}
    18b6:	0032      	movs	r2, r6
    18b8:	cf40      	ldmia	r7!, {r6}
    18ba:	2900      	cmp	r1, #0
    18bc:	d00f      	beq.n	18de <Code_370+0x2e>
    18be:	42b2      	cmp	r2, r6
    18c0:	d00d      	beq.n	18de <Code_370+0x2e>
    18c2:	d306      	bcc.n	18d2 <Code_370+0x22>
    18c4:	3e01      	subs	r6, #1
    18c6:	3a01      	subs	r2, #1
    18c8:	5c70      	ldrb	r0, [r6, r1]
    18ca:	5450      	strb	r0, [r2, r1]
    18cc:	3901      	subs	r1, #1
    18ce:	d1fb      	bne.n	18c8 <Code_370+0x18>
    18d0:	e005      	b.n	18de <Code_370+0x2e>
    18d2:	7830      	ldrb	r0, [r6, #0]
    18d4:	7010      	strb	r0, [r2, #0]
    18d6:	3601      	adds	r6, #1
    18d8:	3201      	adds	r2, #1
    18da:	3901      	subs	r1, #1
    18dc:	d1f9      	bne.n	18d2 <Code_370+0x22>
    18de:	cf40      	ldmia	r7!, {r6}
    18e0:	bd07      	pop	{r0, r1, r2, pc}

000018e2 <Dictionary_374>:
    18e2:	00001904 	andeq	r1, r0, r4, lsl #18
    18e6:	66040000 	strvs	r0, [r4], -r0
    18ea:	006c6c69 	rsbeq	r6, ip, r9, ror #24

000018ee <Code_374>:
    18ee:	0030      	movs	r0, r6
    18f0:	cf40      	ldmia	r7!, {r6}
    18f2:	0031      	movs	r1, r6
    18f4:	cf40      	ldmia	r7!, {r6}
    18f6:	2900      	cmp	r1, #0
    18f8:	d002      	beq.n	1900 <Code_374+0x12>
    18fa:	3901      	subs	r1, #1
    18fc:	5470      	strb	r0, [r6, r1]
    18fe:	d1fc      	bne.n	18fa <Code_374+0xc>
    1900:	cf40      	ldmia	r7!, {r6}
    1902:	4770      	bx	lr

00001904 <Dictionary_378>:
    1904:	00001946 	andeq	r1, r0, r6, asr #18
    1908:	40010220 	andmi	r0, r1, r0, lsr #4

0000190c <Code_378>:
    190c:	6836      	ldr	r6, [r6, #0]
    190e:	4770      	bx	lr

00001910 <allocator_4fetch>:
    1910:	f847 6d04 	str.w	r6, [r7, #-4]!
    1914:	f646 0600 	movw	r6, #26624	; 0x6800

00001918 <allocator_4fetch_anderer_opcode>:
    1918:	b500      	push	{lr}
    191a:	f7fe fde9 	bl	4f0 <expect_one_element>
    191e:	6803      	ldr	r3, [r0, #0]
    1920:	2b28      	cmp	r3, #40	; 0x28
    1922:	d108      	bne.n	1936 <allocator_4fetch_anderer_opcode+0x1e>
    1924:	6843      	ldr	r3, [r0, #4]
    1926:	217c      	movs	r1, #124	; 0x7c
    1928:	4019      	ands	r1, r3
    192a:	0109      	lsls	r1, r1, #4
    192c:	430e      	orrs	r6, r1
    192e:	217c      	movs	r1, #124	; 0x7c
    1930:	438b      	bics	r3, r1
    1932:	f7fe fd66 	bl	402 <generiere_adresskonstante>
    1936:	00db      	lsls	r3, r3, #3
    1938:	431e      	orrs	r6, r3
    193a:	f7fe fe63 	bl	604 <tos_registerwechsel>
    193e:	431e      	orrs	r6, r3
    1940:	f001 fcfa 	bl	3338 <Code_811>
    1944:	bd00      	pop	{pc}

00001946 <Dictionary_381>:
    1946:	0000199e 	muleq	r0, lr, r9
    194a:	21010220 	tstcs	r1, r0, lsr #4

0000194e <Code_381>:
    194e:	cf03      	ldmia	r7!, {r0, r1}
    1950:	6030      	str	r0, [r6, #0]
    1952:	000e      	movs	r6, r1
    1954:	4770      	bx	lr

00001956 <allocator_4store>:
    1956:	f847 6d04 	str.w	r6, [r7, #-4]!
    195a:	f246 0600 	movw	r6, #24576	; 0x6000

0000195e <allocator_4store_anderer_opcode>:
    195e:	b500      	push	{lr}
    1960:	f7fe fdd0 	bl	504 <expect_two_elements>
    1964:	6803      	ldr	r3, [r0, #0]
    1966:	2b28      	cmp	r3, #40	; 0x28
    1968:	d109      	bne.n	197e <allocator_4store_anderer_opcode+0x20>
    196a:	6843      	ldr	r3, [r0, #4]
    196c:	217c      	movs	r1, #124	; 0x7c
    196e:	4019      	ands	r1, r3
    1970:	0109      	lsls	r1, r1, #4
    1972:	430e      	orrs	r6, r1
    1974:	217c      	movs	r1, #124	; 0x7c
    1976:	438b      	bics	r3, r1
    1978:	f7fe fd43 	bl	402 <generiere_adresskonstante>
    197c:	6003      	str	r3, [r0, #0]
    197e:	00db      	lsls	r3, r3, #3
    1980:	431e      	orrs	r6, r3
    1982:	6883      	ldr	r3, [r0, #8]
    1984:	2b28      	cmp	r3, #40	; 0x28
    1986:	d102      	bne.n	198e <allocator_4store_anderer_opcode+0x30>
    1988:	68c3      	ldr	r3, [r0, #12]
    198a:	f7fe fd2e 	bl	3ea <generiere_konstante>
    198e:	431e      	orrs	r6, r3
    1990:	f001 fcd2 	bl	3338 <Code_811>
    1994:	f7fe fcab 	bl	2ee <eliminiere_tos>
    1998:	f7fe fca9 	bl	2ee <eliminiere_tos>
    199c:	bd00      	pop	{pc}

0000199e <Dictionary_384>:
    199e:	000019d4 	ldrdeq	r1, [r0], -r4
    19a2:	2b020220 	blcs	8222a <BIT19+0x222a>
    19a6:	cf030021 	svcgt	0x00030021

000019a8 <Code_384>:
    19a8:	cf03      	ldmia	r7!, {r0, r1}
    19aa:	6832      	ldr	r2, [r6, #0]
    19ac:	1812      	adds	r2, r2, r0
    19ae:	6032      	str	r2, [r6, #0]
    19b0:	000e      	movs	r6, r1
    19b2:	4770      	bx	lr
    19b4:	b500      	push	{lr}
    19b6:	f7fe fda5 	bl	504 <expect_two_elements>
    19ba:	f7ff fac1 	bl	f40 <dup_allocator>
    19be:	f7ff ffa7 	bl	1910 <allocator_4fetch>
    19c2:	f7ff fb47 	bl	1054 <rot_allocator>
    19c6:	f000 fb68 	bl	209a <plus_allocator>
    19ca:	f7ff faee 	bl	faa <swap_allocator>
    19ce:	f7ff ffc2 	bl	1956 <allocator_4store>
    19d2:	bd00      	pop	{pc}

000019d4 <Dictionary_385>:
    19d4:	00001a18 	andeq	r1, r0, r8, lsl sl
    19d8:	68020220 	stmdavs	r2, {r5, r9}
    19dc:	88360040 	ldmdahi	r6!, {r6}

000019de <Code_385>:
    19de:	8836      	ldrh	r6, [r6, #0]
    19e0:	4770      	bx	lr

000019e2 <allocator_2fetch>:
    19e2:	b500      	push	{lr}
    19e4:	f7fe fd84 	bl	4f0 <expect_one_element>
    19e8:	f847 6d04 	str.w	r6, [r7, #-4]!
    19ec:	f648 0600 	movw	r6, #34816	; 0x8800
    19f0:	6803      	ldr	r3, [r0, #0]
    19f2:	2b28      	cmp	r3, #40	; 0x28
    19f4:	d108      	bne.n	1a08 <allocator_2fetch+0x26>
    19f6:	6843      	ldr	r3, [r0, #4]
    19f8:	213e      	movs	r1, #62	; 0x3e
    19fa:	4019      	ands	r1, r3
    19fc:	0149      	lsls	r1, r1, #5
    19fe:	430e      	orrs	r6, r1
    1a00:	213e      	movs	r1, #62	; 0x3e
    1a02:	438b      	bics	r3, r1
    1a04:	f7fe fcfd 	bl	402 <generiere_adresskonstante>
    1a08:	00db      	lsls	r3, r3, #3
    1a0a:	431e      	orrs	r6, r3
    1a0c:	f7fe fdfa 	bl	604 <tos_registerwechsel>
    1a10:	431e      	orrs	r6, r3
    1a12:	f001 fc91 	bl	3338 <Code_811>
    1a16:	bd00      	pop	{pc}

00001a18 <Dictionary_388>:
    1a18:	00001a72 	andeq	r1, r0, r2, ror sl
    1a1c:	68020220 	stmdavs	r2, {r5, r9}
    1a20:	cf030021 	svcgt	0x00030021

00001a22 <Code_388>:
    1a22:	cf03      	ldmia	r7!, {r0, r1}
    1a24:	8030      	strh	r0, [r6, #0]
    1a26:	000e      	movs	r6, r1
    1a28:	4770      	bx	lr

00001a2a <allocator_2store>:
    1a2a:	b500      	push	{lr}
    1a2c:	f7fe fd6a 	bl	504 <expect_two_elements>
    1a30:	f847 6d04 	str.w	r6, [r7, #-4]!
    1a34:	f248 0600 	movw	r6, #32768	; 0x8000
    1a38:	6803      	ldr	r3, [r0, #0]
    1a3a:	2b28      	cmp	r3, #40	; 0x28
    1a3c:	d109      	bne.n	1a52 <allocator_2store+0x28>
    1a3e:	6843      	ldr	r3, [r0, #4]
    1a40:	213e      	movs	r1, #62	; 0x3e
    1a42:	4019      	ands	r1, r3
    1a44:	0149      	lsls	r1, r1, #5
    1a46:	430e      	orrs	r6, r1
    1a48:	213e      	movs	r1, #62	; 0x3e
    1a4a:	438b      	bics	r3, r1
    1a4c:	f7fe fcd9 	bl	402 <generiere_adresskonstante>
    1a50:	6003      	str	r3, [r0, #0]
    1a52:	00db      	lsls	r3, r3, #3
    1a54:	431e      	orrs	r6, r3
    1a56:	6883      	ldr	r3, [r0, #8]
    1a58:	2b28      	cmp	r3, #40	; 0x28
    1a5a:	d102      	bne.n	1a62 <allocator_2store+0x38>
    1a5c:	68c3      	ldr	r3, [r0, #12]
    1a5e:	f7fe fcc4 	bl	3ea <generiere_konstante>
    1a62:	431e      	orrs	r6, r3
    1a64:	f001 fc68 	bl	3338 <Code_811>
    1a68:	f7fe fc41 	bl	2ee <eliminiere_tos>
    1a6c:	f7fe fc3f 	bl	2ee <eliminiere_tos>
    1a70:	bd00      	pop	{pc}

00001a72 <Dictionary_391>:
    1a72:	00001aa8 	andeq	r1, r0, r8, lsr #21
    1a76:	68030220 	stmdavs	r3, {r5, r9}
    1a7a:	cf03212b 	svcgt	0x0003212b

00001a7c <Code_391>:
    1a7c:	cf03      	ldmia	r7!, {r0, r1}
    1a7e:	8832      	ldrh	r2, [r6, #0]
    1a80:	1812      	adds	r2, r2, r0
    1a82:	8032      	strh	r2, [r6, #0]
    1a84:	000e      	movs	r6, r1
    1a86:	4770      	bx	lr
    1a88:	b500      	push	{lr}
    1a8a:	f7fe fd3b 	bl	504 <expect_two_elements>
    1a8e:	f7ff fa57 	bl	f40 <dup_allocator>
    1a92:	f7ff ffa6 	bl	19e2 <allocator_2fetch>
    1a96:	f7ff fadd 	bl	1054 <rot_allocator>
    1a9a:	f000 fafe 	bl	209a <plus_allocator>
    1a9e:	f7ff fa84 	bl	faa <swap_allocator>
    1aa2:	f7ff ffc2 	bl	1a2a <allocator_2store>
    1aa6:	bd00      	pop	{pc}

00001aa8 <Dictionary_392>:
    1aa8:	00001aec 	andeq	r1, r0, ip, ror #21
    1aac:	63020220 	movwvs	r0, #8736	; 0x2220
    1ab0:	78360040 	ldmdavc	r6!, {r6}

00001ab2 <Code_392>:
    1ab2:	7836      	ldrb	r6, [r6, #0]
    1ab4:	4770      	bx	lr

00001ab6 <allocator_1fetch>:
    1ab6:	b500      	push	{lr}
    1ab8:	f7fe fd1a 	bl	4f0 <expect_one_element>
    1abc:	f847 6d04 	str.w	r6, [r7, #-4]!
    1ac0:	f647 0600 	movw	r6, #30720	; 0x7800
    1ac4:	6803      	ldr	r3, [r0, #0]
    1ac6:	2b28      	cmp	r3, #40	; 0x28
    1ac8:	d108      	bne.n	1adc <allocator_1fetch+0x26>
    1aca:	6843      	ldr	r3, [r0, #4]
    1acc:	211f      	movs	r1, #31
    1ace:	4019      	ands	r1, r3
    1ad0:	0189      	lsls	r1, r1, #6
    1ad2:	430e      	orrs	r6, r1
    1ad4:	211f      	movs	r1, #31
    1ad6:	438b      	bics	r3, r1
    1ad8:	f7fe fc93 	bl	402 <generiere_adresskonstante>
    1adc:	00db      	lsls	r3, r3, #3
    1ade:	431e      	orrs	r6, r3
    1ae0:	f7fe fd90 	bl	604 <tos_registerwechsel>
    1ae4:	431e      	orrs	r6, r3
    1ae6:	f001 fc27 	bl	3338 <Code_811>
    1aea:	bd00      	pop	{pc}

00001aec <Dictionary_395>:
    1aec:	00001b46 	andeq	r1, r0, r6, asr #22
    1af0:	63020220 	movwvs	r0, #8736	; 0x2220
    1af4:	cf030021 	svcgt	0x00030021

00001af6 <Code_395>:
    1af6:	cf03      	ldmia	r7!, {r0, r1}
    1af8:	7030      	strb	r0, [r6, #0]
    1afa:	000e      	movs	r6, r1
    1afc:	4770      	bx	lr

00001afe <allocator_1store>:
    1afe:	b500      	push	{lr}
    1b00:	f7fe fd00 	bl	504 <expect_two_elements>
    1b04:	f847 6d04 	str.w	r6, [r7, #-4]!
    1b08:	f247 0600 	movw	r6, #28672	; 0x7000
    1b0c:	6803      	ldr	r3, [r0, #0]
    1b0e:	2b28      	cmp	r3, #40	; 0x28
    1b10:	d109      	bne.n	1b26 <allocator_1store+0x28>
    1b12:	6843      	ldr	r3, [r0, #4]
    1b14:	211f      	movs	r1, #31
    1b16:	4019      	ands	r1, r3
    1b18:	0189      	lsls	r1, r1, #6
    1b1a:	430e      	orrs	r6, r1
    1b1c:	211f      	movs	r1, #31
    1b1e:	438b      	bics	r3, r1
    1b20:	f7fe fc6f 	bl	402 <generiere_adresskonstante>
    1b24:	6003      	str	r3, [r0, #0]
    1b26:	00db      	lsls	r3, r3, #3
    1b28:	431e      	orrs	r6, r3
    1b2a:	6883      	ldr	r3, [r0, #8]
    1b2c:	2b28      	cmp	r3, #40	; 0x28
    1b2e:	d102      	bne.n	1b36 <allocator_1store+0x38>
    1b30:	68c3      	ldr	r3, [r0, #12]
    1b32:	f7fe fc5a 	bl	3ea <generiere_konstante>
    1b36:	431e      	orrs	r6, r3
    1b38:	f001 fbfe 	bl	3338 <Code_811>
    1b3c:	f7fe fbd7 	bl	2ee <eliminiere_tos>
    1b40:	f7fe fbd5 	bl	2ee <eliminiere_tos>
    1b44:	bd00      	pop	{pc}

00001b46 <Dictionary_398>:
    1b46:	00001b7c 	andeq	r1, r0, ip, ror fp
    1b4a:	63030220 	movwvs	r0, #12832	; 0x3220
    1b4e:	cf03212b 	svcgt	0x0003212b

00001b50 <Code_398>:
    1b50:	cf03      	ldmia	r7!, {r0, r1}
    1b52:	7832      	ldrb	r2, [r6, #0]
    1b54:	1812      	adds	r2, r2, r0
    1b56:	7032      	strb	r2, [r6, #0]
    1b58:	000e      	movs	r6, r1
    1b5a:	4770      	bx	lr
    1b5c:	b500      	push	{lr}
    1b5e:	f7fe fcd1 	bl	504 <expect_two_elements>
    1b62:	f7ff f9ed 	bl	f40 <dup_allocator>
    1b66:	f7ff ffa6 	bl	1ab6 <allocator_1fetch>
    1b6a:	f7ff fa73 	bl	1054 <rot_allocator>
    1b6e:	f000 fa94 	bl	209a <plus_allocator>
    1b72:	f7ff fa1a 	bl	faa <swap_allocator>
    1b76:	f7ff ffc2 	bl	1afe <allocator_1store>
    1b7a:	bd00      	pop	{pc}

00001b7c <Dictionary_399>:
    1b7c:	00001bbc 			; <UNDEFINED> instruction: 0x00001bbc
    1b80:	62040220 	andvs	r0, r4, #2
    1b84:	00217369 	eoreq	r7, r1, r9, ror #6

00001b88 <Code_399>:
    1b88:	cf03      	ldmia	r7!, {r0, r1}
    1b8a:	6832      	ldr	r2, [r6, #0]
    1b8c:	4302      	orrs	r2, r0
    1b8e:	6032      	str	r2, [r6, #0]
    1b90:	000e      	movs	r6, r1
    1b92:	4770      	bx	lr
    1b94:	b500      	push	{lr}
    1b96:	f7fe fcb5 	bl	504 <expect_two_elements>
    1b9a:	f7ff f9d1 	bl	f40 <dup_allocator>
    1b9e:	f7ff feb7 	bl	1910 <allocator_4fetch>
    1ba2:	f7ff fa57 	bl	1054 <rot_allocator>
    1ba6:	f847 6d04 	str.w	r6, [r7, #-4]!
    1baa:	f244 3600 	movw	r6, #17152	; 0x4300
    1bae:	f7ff fc03 	bl	13b8 <alloc_kommutativ>
    1bb2:	f7ff f9fa 	bl	faa <swap_allocator>
    1bb6:	f7ff fece 	bl	1956 <allocator_4store>
    1bba:	bd00      	pop	{pc}

00001bbc <Dictionary_402>:
    1bbc:	00001bfc 	strdeq	r1, [r0], -ip
    1bc0:	62040220 	andvs	r0, r4, #2
    1bc4:	00216369 	eoreq	r6, r1, r9, ror #6

00001bc8 <Code_402>:
    1bc8:	cf03      	ldmia	r7!, {r0, r1}
    1bca:	6832      	ldr	r2, [r6, #0]
    1bcc:	4382      	bics	r2, r0
    1bce:	6032      	str	r2, [r6, #0]
    1bd0:	000e      	movs	r6, r1
    1bd2:	4770      	bx	lr
    1bd4:	b500      	push	{lr}
    1bd6:	f7fe fc95 	bl	504 <expect_two_elements>
    1bda:	f7ff f9b1 	bl	f40 <dup_allocator>
    1bde:	f7ff fe97 	bl	1910 <allocator_4fetch>
    1be2:	f7ff fa37 	bl	1054 <rot_allocator>
    1be6:	f847 6d04 	str.w	r6, [r7, #-4]!
    1bea:	f244 3680 	movw	r6, #17280	; 0x4380
    1bee:	f7ff fbdf 	bl	13b0 <alloc_unkommutativ>
    1bf2:	f7ff f9da 	bl	faa <swap_allocator>
    1bf6:	f7ff feae 	bl	1956 <allocator_4store>
    1bfa:	bd00      	pop	{pc}

00001bfc <Dictionary_405>:
    1bfc:	00001c3c 	andeq	r1, r0, ip, lsr ip
    1c00:	78040220 	stmdavc	r4, {r5, r9}
    1c04:	0021726f 	eoreq	r7, r1, pc, ror #4

00001c08 <Code_405>:
    1c08:	cf03      	ldmia	r7!, {r0, r1}
    1c0a:	6832      	ldr	r2, [r6, #0]
    1c0c:	4042      	eors	r2, r0
    1c0e:	6032      	str	r2, [r6, #0]
    1c10:	000e      	movs	r6, r1
    1c12:	4770      	bx	lr
    1c14:	b500      	push	{lr}
    1c16:	f7fe fc75 	bl	504 <expect_two_elements>
    1c1a:	f7ff f991 	bl	f40 <dup_allocator>
    1c1e:	f7ff fe77 	bl	1910 <allocator_4fetch>
    1c22:	f7ff fa17 	bl	1054 <rot_allocator>
    1c26:	f847 6d04 	str.w	r6, [r7, #-4]!
    1c2a:	f244 0640 	movw	r6, #16448	; 0x4040
    1c2e:	f7ff fbc3 	bl	13b8 <alloc_kommutativ>
    1c32:	f7ff f9ba 	bl	faa <swap_allocator>
    1c36:	f7ff fe8e 	bl	1956 <allocator_4store>
    1c3a:	bd00      	pop	{pc}

00001c3c <Dictionary_408>:
    1c3c:	00001c72 	andeq	r1, r0, r2, ror ip
    1c40:	62040220 	andvs	r0, r4, #2
    1c44:	00407469 	subeq	r7, r0, r9, ror #8

00001c48 <Code_408>:
    1c48:	cf01      	ldmia	r7!, {r0}
    1c4a:	6836      	ldr	r6, [r6, #0]
    1c4c:	4006      	ands	r6, r0
    1c4e:	bf18      	it	ne
    1c50:	f04f 36ff 	movne.w	r6, #4294967295
    1c54:	4770      	bx	lr
    1c56:	b500      	push	{lr}
    1c58:	f7fe fc54 	bl	504 <expect_two_elements>
    1c5c:	f7ff fe58 	bl	1910 <allocator_4fetch>
    1c60:	f847 6d04 	str.w	r6, [r7, #-4]!
    1c64:	f244 0600 	movw	r6, #16384	; 0x4000
    1c68:	f7ff fba6 	bl	13b8 <alloc_kommutativ>
    1c6c:	f7ff fc1d 	bl	14aa <allocator_unequal_zero>
    1c70:	bd00      	pop	{pc}

00001c72 <Dictionary_411>:
    1c72:	00001cb2 			; <UNDEFINED> instruction: 0x00001cb2
    1c76:	68050220 	stmdavs	r5, {r5, r9}
    1c7a:	21736962 	cmncs	r3, r2, ror #18

00001c7e <Code_411>:
    1c7e:	cf03      	ldmia	r7!, {r0, r1}
    1c80:	8832      	ldrh	r2, [r6, #0]
    1c82:	4302      	orrs	r2, r0
    1c84:	8032      	strh	r2, [r6, #0]
    1c86:	000e      	movs	r6, r1
    1c88:	4770      	bx	lr
    1c8a:	b500      	push	{lr}
    1c8c:	f7fe fc3a 	bl	504 <expect_two_elements>
    1c90:	f7ff f956 	bl	f40 <dup_allocator>
    1c94:	f7ff fea5 	bl	19e2 <allocator_2fetch>
    1c98:	f7ff f9dc 	bl	1054 <rot_allocator>
    1c9c:	f847 6d04 	str.w	r6, [r7, #-4]!
    1ca0:	f244 3600 	movw	r6, #17152	; 0x4300
    1ca4:	f7ff fb88 	bl	13b8 <alloc_kommutativ>
    1ca8:	f7ff f97f 	bl	faa <swap_allocator>
    1cac:	f7ff febd 	bl	1a2a <allocator_2store>
    1cb0:	bd00      	pop	{pc}

00001cb2 <Dictionary_414>:
    1cb2:	00001cf2 	strdeq	r1, [r0], -r2
    1cb6:	68050220 	stmdavs	r5, {r5, r9}
    1cba:	21636962 	cmncs	r3, r2, ror #18

00001cbe <Code_414>:
    1cbe:	cf03      	ldmia	r7!, {r0, r1}
    1cc0:	8832      	ldrh	r2, [r6, #0]
    1cc2:	4382      	bics	r2, r0
    1cc4:	8032      	strh	r2, [r6, #0]
    1cc6:	000e      	movs	r6, r1
    1cc8:	4770      	bx	lr
    1cca:	b500      	push	{lr}
    1ccc:	f7fe fc1a 	bl	504 <expect_two_elements>
    1cd0:	f7ff f936 	bl	f40 <dup_allocator>
    1cd4:	f7ff fe85 	bl	19e2 <allocator_2fetch>
    1cd8:	f7ff f9bc 	bl	1054 <rot_allocator>
    1cdc:	f847 6d04 	str.w	r6, [r7, #-4]!
    1ce0:	f244 3680 	movw	r6, #17280	; 0x4380
    1ce4:	f7ff fb64 	bl	13b0 <alloc_unkommutativ>
    1ce8:	f7ff f95f 	bl	faa <swap_allocator>
    1cec:	f7ff fe9d 	bl	1a2a <allocator_2store>
    1cf0:	bd00      	pop	{pc}

00001cf2 <Dictionary_417>:
    1cf2:	00001d32 	andeq	r1, r0, r2, lsr sp
    1cf6:	68050220 	stmdavs	r5, {r5, r9}
    1cfa:	21726f78 	cmncs	r2, r8, ror pc

00001cfe <Code_417>:
    1cfe:	cf03      	ldmia	r7!, {r0, r1}
    1d00:	8832      	ldrh	r2, [r6, #0]
    1d02:	4042      	eors	r2, r0
    1d04:	8032      	strh	r2, [r6, #0]
    1d06:	000e      	movs	r6, r1
    1d08:	4770      	bx	lr
    1d0a:	b500      	push	{lr}
    1d0c:	f7fe fbfa 	bl	504 <expect_two_elements>
    1d10:	f7ff f916 	bl	f40 <dup_allocator>
    1d14:	f7ff fe65 	bl	19e2 <allocator_2fetch>
    1d18:	f7ff f99c 	bl	1054 <rot_allocator>
    1d1c:	f847 6d04 	str.w	r6, [r7, #-4]!
    1d20:	f244 0640 	movw	r6, #16448	; 0x4040
    1d24:	f7ff fb48 	bl	13b8 <alloc_kommutativ>
    1d28:	f7ff f93f 	bl	faa <swap_allocator>
    1d2c:	f7ff fe7d 	bl	1a2a <allocator_2store>
    1d30:	bd00      	pop	{pc}

00001d32 <Dictionary_420>:
    1d32:	00001d68 	andeq	r1, r0, r8, ror #26
    1d36:	68050220 	stmdavs	r5, {r5, r9}
    1d3a:	40746962 	rsbsmi	r6, r4, r2, ror #18

00001d3e <Code_420>:
    1d3e:	cf01      	ldmia	r7!, {r0}
    1d40:	8836      	ldrh	r6, [r6, #0]
    1d42:	4006      	ands	r6, r0
    1d44:	bf18      	it	ne
    1d46:	f04f 36ff 	movne.w	r6, #4294967295
    1d4a:	4770      	bx	lr
    1d4c:	b500      	push	{lr}
    1d4e:	f7fe fbd9 	bl	504 <expect_two_elements>
    1d52:	f7ff fe46 	bl	19e2 <allocator_2fetch>
    1d56:	f847 6d04 	str.w	r6, [r7, #-4]!
    1d5a:	f244 0600 	movw	r6, #16384	; 0x4000
    1d5e:	f7ff fb2b 	bl	13b8 <alloc_kommutativ>
    1d62:	f7ff fba2 	bl	14aa <allocator_unequal_zero>
    1d66:	bd00      	pop	{pc}

00001d68 <Dictionary_423>:
    1d68:	00001da8 	andeq	r1, r0, r8, lsr #27
    1d6c:	63050220 	movwvs	r0, #21024	; 0x5220
    1d70:	21736962 	cmncs	r3, r2, ror #18

00001d74 <Code_423>:
    1d74:	cf03      	ldmia	r7!, {r0, r1}
    1d76:	7832      	ldrb	r2, [r6, #0]
    1d78:	4302      	orrs	r2, r0
    1d7a:	7032      	strb	r2, [r6, #0]
    1d7c:	000e      	movs	r6, r1
    1d7e:	4770      	bx	lr
    1d80:	b500      	push	{lr}
    1d82:	f7fe fbbf 	bl	504 <expect_two_elements>
    1d86:	f7ff f8db 	bl	f40 <dup_allocator>
    1d8a:	f7ff fe94 	bl	1ab6 <allocator_1fetch>
    1d8e:	f7ff f961 	bl	1054 <rot_allocator>
    1d92:	f847 6d04 	str.w	r6, [r7, #-4]!
    1d96:	f244 3600 	movw	r6, #17152	; 0x4300
    1d9a:	f7ff fb0d 	bl	13b8 <alloc_kommutativ>
    1d9e:	f7ff f904 	bl	faa <swap_allocator>
    1da2:	f7ff feac 	bl	1afe <allocator_1store>
    1da6:	bd00      	pop	{pc}

00001da8 <Dictionary_426>:
    1da8:	00001de8 	andeq	r1, r0, r8, ror #27
    1dac:	63050220 	movwvs	r0, #21024	; 0x5220
    1db0:	21636962 	cmncs	r3, r2, ror #18

00001db4 <Code_426>:
    1db4:	cf03      	ldmia	r7!, {r0, r1}
    1db6:	7832      	ldrb	r2, [r6, #0]
    1db8:	4382      	bics	r2, r0
    1dba:	7032      	strb	r2, [r6, #0]
    1dbc:	000e      	movs	r6, r1
    1dbe:	4770      	bx	lr
    1dc0:	b500      	push	{lr}
    1dc2:	f7fe fb9f 	bl	504 <expect_two_elements>
    1dc6:	f7ff f8bb 	bl	f40 <dup_allocator>
    1dca:	f7ff fe74 	bl	1ab6 <allocator_1fetch>
    1dce:	f7ff f941 	bl	1054 <rot_allocator>
    1dd2:	f847 6d04 	str.w	r6, [r7, #-4]!
    1dd6:	f244 3680 	movw	r6, #17280	; 0x4380
    1dda:	f7ff fae9 	bl	13b0 <alloc_unkommutativ>
    1dde:	f7ff f8e4 	bl	faa <swap_allocator>
    1de2:	f7ff fe8c 	bl	1afe <allocator_1store>
    1de6:	bd00      	pop	{pc}

00001de8 <Dictionary_429>:
    1de8:	00001e28 	andeq	r1, r0, r8, lsr #28
    1dec:	63050220 	movwvs	r0, #21024	; 0x5220
    1df0:	21726f78 	cmncs	r2, r8, ror pc

00001df4 <Code_429>:
    1df4:	cf03      	ldmia	r7!, {r0, r1}
    1df6:	7832      	ldrb	r2, [r6, #0]
    1df8:	4042      	eors	r2, r0
    1dfa:	7032      	strb	r2, [r6, #0]
    1dfc:	000e      	movs	r6, r1
    1dfe:	4770      	bx	lr
    1e00:	b500      	push	{lr}
    1e02:	f7fe fb7f 	bl	504 <expect_two_elements>
    1e06:	f7ff f89b 	bl	f40 <dup_allocator>
    1e0a:	f7ff fe54 	bl	1ab6 <allocator_1fetch>
    1e0e:	f7ff f921 	bl	1054 <rot_allocator>
    1e12:	f847 6d04 	str.w	r6, [r7, #-4]!
    1e16:	f244 0640 	movw	r6, #16448	; 0x4040
    1e1a:	f7ff facd 	bl	13b8 <alloc_kommutativ>
    1e1e:	f7ff f8c4 	bl	faa <swap_allocator>
    1e22:	f7ff fe6c 	bl	1afe <allocator_1store>
    1e26:	bd00      	pop	{pc}

00001e28 <Dictionary_432>:
    1e28:	00001e5e 	andeq	r1, r0, lr, asr lr
    1e2c:	63050220 	movwvs	r0, #21024	; 0x5220
    1e30:	40746962 	rsbsmi	r6, r4, r2, ror #18

00001e34 <Code_432>:
    1e34:	cf01      	ldmia	r7!, {r0}
    1e36:	7836      	ldrb	r6, [r6, #0]
    1e38:	4006      	ands	r6, r0
    1e3a:	bf18      	it	ne
    1e3c:	f04f 36ff 	movne.w	r6, #4294967295
    1e40:	4770      	bx	lr
    1e42:	b500      	push	{lr}
    1e44:	f7fe fb5e 	bl	504 <expect_two_elements>
    1e48:	f7ff fe35 	bl	1ab6 <allocator_1fetch>
    1e4c:	f847 6d04 	str.w	r6, [r7, #-4]!
    1e50:	f244 0600 	movw	r6, #16384	; 0x4000
    1e54:	f7ff fab0 	bl	13b8 <alloc_kommutativ>
    1e58:	f7ff fb27 	bl	14aa <allocator_unequal_zero>
    1e5c:	bd00      	pop	{pc}

00001e5e <Dictionary_435>:
    1e5e:	00001ede 	ldrdeq	r1, [r0], -lr
    1e62:	66060000 	strvs	r0, [r6], -r0
    1e66:	6873616c 	ldmdavs	r3!, {r2, r3, r5, r6, r8, sp, lr}^
    1e6a:	00300021 	eorseq	r0, r0, r1, lsr #32

00001e6c <Code_435>:
    1e6c:	0030      	movs	r0, r6
    1e6e:	cf40      	ldmia	r7!, {r6}
    1e70:	0031      	movs	r1, r6
    1e72:	cf40      	ldmia	r7!, {r6}
    1e74:	f1b1 3fff 	cmp.w	r1, #4294967295
    1e78:	d016      	beq.n	1ea8 <flashkomma_innen+0x1e>
    1e7a:	f010 0203 	ands.w	r2, r0, #3
    1e7e:	2a00      	cmp	r2, #0
    1e80:	d113      	bne.n	1eaa <flashkomma_innen+0x20>
    1e82:	6802      	ldr	r2, [r0, #0]
    1e84:	f1b2 3fff 	cmp.w	r2, #4294967295
    1e88:	d10f      	bne.n	1eaa <flashkomma_innen+0x20>

00001e8a <flashkomma_innen>:
    1e8a:	4b78      	ldr	r3, [pc, #480]	; (206c <Code_456+0x8>)
    1e8c:	4298      	cmp	r0, r3
    1e8e:	d30c      	bcc.n	1eaa <flashkomma_innen+0x20>
    1e90:	4a77      	ldr	r2, [pc, #476]	; (2070 <Code_456+0xc>)
    1e92:	6011      	str	r1, [r2, #0]
    1e94:	4a77      	ldr	r2, [pc, #476]	; (2074 <Code_456+0x10>)
    1e96:	6010      	str	r0, [r2, #0]
    1e98:	4a77      	ldr	r2, [pc, #476]	; (2078 <Code_456+0x14>)
    1e9a:	4b78      	ldr	r3, [pc, #480]	; (207c <Code_456+0x18>)
    1e9c:	6013      	str	r3, [r2, #0]
    1e9e:	6813      	ldr	r3, [r2, #0]
    1ea0:	f013 0301 	ands.w	r3, r3, #1
    1ea4:	2b00      	cmp	r3, #0
    1ea6:	d1fa      	bne.n	1e9e <flashkomma_innen+0x14>
    1ea8:	4770      	bx	lr
    1eaa:	f000 fcf0 	bl	288e <dotgaensefuesschen>
    1eae:	6f72572a 	svcvs	0x0072572a
    1eb2:	6120676e 	teqvs	r0, lr, ror #14
    1eb6:	65726464 	ldrbvs	r6, [r2, #-1124]!	; 0x464
    1eba:	6f207373 	svcvs	0x00207373
    1ebe:	61642072 	smcvs	16898	; 0x4202
    1ec2:	66206174 			; <UNDEFINED> instruction: 0x66206174
    1ec6:	7720726f 	strvc	r7, [r0, -pc, ror #4]!
    1eca:	69746972 	ldmdbvs	r4!, {r1, r4, r5, r6, r8, fp, sp, lr}^
    1ece:	6620676e 	strtvs	r6, [r0], -lr, ror #14
    1ed2:	6873616c 	ldmdavs	r3!, {r2, r3, r5, r6, r8, sp, lr}^
    1ed6:	000a2120 	andeq	r2, sl, r0, lsr #2
    1eda:	f002 bc92 	b.w	4802 <Code_1222>

00001ede <Dictionary_439>:
    1ede:	00001f26 	andeq	r1, r0, r6, lsr #30
    1ee2:	68070000 	stmdavs	r7, {}	; <UNPREDICTABLE>
    1ee6:	73616c66 	cmnvc	r1, #26112	; 0x6600
    1eea:	00302168 	eorseq	r2, r0, r8, ror #2

00001eec <Code_439>:
    1eec:	0030      	movs	r0, r6
    1eee:	cf40      	ldmia	r7!, {r6}
    1ef0:	0031      	movs	r1, r6
    1ef2:	cf40      	ldmia	r7!, {r6}
    1ef4:	4b62      	ldr	r3, [pc, #392]	; (2080 <Code_456+0x1c>)
    1ef6:	4019      	ands	r1, r3
    1ef8:	4299      	cmp	r1, r3
    1efa:	d0d5      	beq.n	1ea8 <flashkomma_innen+0x1e>
    1efc:	f010 0201 	ands.w	r2, r0, #1
    1f00:	2a00      	cmp	r2, #0
    1f02:	d1d2      	bne.n	1eaa <flashkomma_innen+0x20>
    1f04:	8802      	ldrh	r2, [r0, #0]
    1f06:	429a      	cmp	r2, r3
    1f08:	d1cf      	bne.n	1eaa <flashkomma_innen+0x20>

00001f0a <h_flashkomma_innen>:
    1f0a:	f010 0202 	ands.w	r2, r0, #2
    1f0e:	2a00      	cmp	r2, #0
    1f10:	d004      	beq.n	1f1c <hflash_gerade>
    1f12:	3802      	subs	r0, #2
    1f14:	8802      	ldrh	r2, [r0, #0]
    1f16:	0409      	lsls	r1, r1, #16
    1f18:	4311      	orrs	r1, r2
    1f1a:	e7b6      	b.n	1e8a <flashkomma_innen>

00001f1c <hflash_gerade>:
    1f1c:	1c82      	adds	r2, r0, #2
    1f1e:	8813      	ldrh	r3, [r2, #0]
    1f20:	041b      	lsls	r3, r3, #16
    1f22:	4319      	orrs	r1, r3
    1f24:	e7b1      	b.n	1e8a <flashkomma_innen>

00001f26 <Dictionary_442>:
    1f26:	00001f66 	andeq	r1, r0, r6, ror #30
    1f2a:	63070000 	movwvs	r0, #28672	; 0x7000
    1f2e:	73616c66 	cmnvc	r1, #26112	; 0x6600
    1f32:	00302168 	eorseq	r2, r0, r8, ror #2

00001f34 <Code_442>:
    1f34:	0030      	movs	r0, r6
    1f36:	cf40      	ldmia	r7!, {r6}
    1f38:	0031      	movs	r1, r6
    1f3a:	cf40      	ldmia	r7!, {r6}
    1f3c:	f011 01ff 	ands.w	r1, r1, #255	; 0xff
    1f40:	29ff      	cmp	r1, #255	; 0xff
    1f42:	d0b1      	beq.n	1ea8 <flashkomma_innen+0x1e>
    1f44:	7802      	ldrb	r2, [r0, #0]
    1f46:	2aff      	cmp	r2, #255	; 0xff
    1f48:	d1af      	bne.n	1eaa <flashkomma_innen+0x20>
    1f4a:	f010 0201 	ands.w	r2, r0, #1
    1f4e:	2a00      	cmp	r2, #0
    1f50:	d004      	beq.n	1f5c <cflash_gerade>
    1f52:	3801      	subs	r0, #1
    1f54:	7802      	ldrb	r2, [r0, #0]
    1f56:	0209      	lsls	r1, r1, #8
    1f58:	4311      	orrs	r1, r2
    1f5a:	e7d6      	b.n	1f0a <h_flashkomma_innen>

00001f5c <cflash_gerade>:
    1f5c:	1c42      	adds	r2, r0, #1
    1f5e:	7813      	ldrb	r3, [r2, #0]
    1f60:	021b      	lsls	r3, r3, #8
    1f62:	4319      	orrs	r1, r3
    1f64:	e7d1      	b.n	1f0a <h_flashkomma_innen>

00001f66 <Dictionary_445>:
    1f66:	00001fd2 	ldrdeq	r1, [r0], -r2
    1f6a:	660e0000 	strvs	r0, [lr], -r0
    1f6e:	6873616c 	ldmdavs	r3!, {r2, r3, r5, r6, r8, sp, lr}^
    1f72:	65676170 	strbvs	r6, [r7, #-368]!	; 0x170
    1f76:	73617265 	cmnvc	r1, #1342177286	; 0x50000006
    1f7a:	b40f0065 	strlt	r0, [pc], #-101	; 1f82 <Code_445+0x6>

00001f7c <Code_445>:
    1f7c:	b40f      	push	{r0, r1, r2, r3}
    1f7e:	0030      	movs	r0, r6
    1f80:	cf40      	ldmia	r7!, {r6}
    1f82:	f643 73ff 	movw	r3, #16383	; 0x3fff
    1f86:	4398      	bics	r0, r3
    1f88:	4b38      	ldr	r3, [pc, #224]	; (206c <Code_456+0x8>)
    1f8a:	4298      	cmp	r0, r3
    1f8c:	d30b      	bcc.n	1fa6 <Code_445+0x2a>
    1f8e:	4a39      	ldr	r2, [pc, #228]	; (2074 <Code_456+0x10>)
    1f90:	6010      	str	r0, [r2, #0]
    1f92:	4a39      	ldr	r2, [pc, #228]	; (2078 <Code_456+0x14>)
    1f94:	4b3b      	ldr	r3, [pc, #236]	; (2084 <Code_456+0x20>)
    1f96:	6013      	str	r3, [r2, #0]
    1f98:	6813      	ldr	r3, [r2, #0]
    1f9a:	f013 0302 	ands.w	r3, r3, #2
    1f9e:	2b00      	cmp	r3, #0
    1fa0:	d1fa      	bne.n	1f98 <Code_445+0x1c>
    1fa2:	bc0f      	pop	{r0, r1, r2, r3}
    1fa4:	4770      	bx	lr
    1fa6:	f000 fc72 	bl	288e <dotgaensefuesschen>
    1faa:	6f725722 	svcvs	0x00725722
    1fae:	6120676e 	teqvs	r0, lr, ror #14
    1fb2:	65726464 	ldrbvs	r6, [r2, #-1124]!	; 0x464
    1fb6:	66207373 			; <UNDEFINED> instruction: 0x66207373
    1fba:	6520726f 	strvs	r7, [r0, #-623]!	; 0x26f
    1fbe:	69736172 	ldmdbvs	r3!, {r1, r4, r5, r6, r8, sp, lr}^
    1fc2:	6620676e 	strtvs	r6, [r0], -lr, ror #14
    1fc6:	6873616c 	ldmdavs	r3!, {r2, r3, r5, r6, r8, sp, lr}^
    1fca:	000a2120 	andeq	r2, sl, r0, lsr #2
    1fce:	f002 bc18 	b.w	4802 <Code_1222>

00001fd2 <Dictionary_448>:
    1fd2:	0000204e 	andeq	r2, r0, lr, asr #32
    1fd6:	650a0000 	strvs	r0, [sl]
    1fda:	65736172 	ldrbvs	r6, [r3, #-370]!	; 0x172
    1fde:	73616c66 	cmnvc	r1, #26112	; 0x6600
    1fe2:	48210068 	stmdami	r1!, {r3, r5, r6}

00001fe4 <Code_448>:
    1fe4:	4821      	ldr	r0, [pc, #132]	; (206c <Code_456+0x8>)

00001fe6 <eraseflash_intern>:
    1fe6:	4928      	ldr	r1, [pc, #160]	; (2088 <Code_456+0x24>)
    1fe8:	f64f 72ff 	movw	r2, #65535	; 0xffff
    1fec:	8803      	ldrh	r3, [r0, #0]
    1fee:	4293      	cmp	r3, r2
    1ff0:	d01c      	beq.n	202c <BIT13+0x2c>
    1ff2:	f847 6d04 	str.w	r6, [r7, #-4]!
    1ff6:	0006      	movs	r6, r0
    1ff8:	f847 6d04 	str.w	r6, [r7, #-4]!
    1ffc:	f000 fc47 	bl	288e <dotgaensefuesschen>
    2000:	61724510 	cmnvs	r2, r0, lsl r5
    2004:	62206573 	eorvs	r6, r0, #482344960	; 0x1cc00000
    2008:	6b636f6c 	blvs	18dddc0 <BIT24+0x8dddc0>
    200c:	20746120 	rsbscs	r6, r4, r0, lsr #2
    2010:	f0000020 			; <UNDEFINED> instruction: 0xf0000020
    2014:	fcaf f000 	stc2	0, cr15, [pc]	; 2018 <BIT13+0x18>
    2018:	fc3a 200c 	ldc2	0, cr2, [sl], #-48	; 0xffffffd0
    201c:	6d6f7266 	sfmvs	f7, 2, [pc, #-408]!	; 1e8c <flashkomma_innen+0x2>
    2020:	616c4620 	cmnvs	ip, r0, lsr #12
    2024:	000a6873 	andeq	r6, sl, r3, ror r8
    2028:	f7ff ffa8 	bl	1f7c <Code_445>
    202c:	3002      	adds	r0, #2
    202e:	4288      	cmp	r0, r1
    2030:	d1dc      	bne.n	1fec <eraseflash_intern+0x6>
    2032:	f000 fc2c 	bl	288e <dotgaensefuesschen>
    2036:	6e694612 	mcrvs	6, 3, r4, cr9, cr2, {0}
    203a:	65687369 	strbvs	r7, [r8, #-873]!	; 0x369
    203e:	52202e64 	eorpl	r2, r0, #1600	; 0x640
    2042:	74657365 	strbtvc	r7, [r5], #-869	; 0x365
    2046:	000a2120 	andeq	r2, sl, r0, lsr #2
    204a:	f002 bc74 	b.w	4936 <Code_1235>

0000204e <Dictionary_456>:
    204e:	0000208c 	andeq	r2, r0, ip, lsl #1
    2052:	650e0000 	strvs	r0, [lr]
    2056:	65736172 	ldrbvs	r6, [r3, #-370]!	; 0x172
    205a:	73616c66 	cmnvc	r1, #26112	; 0x6600
    205e:	6f726668 	svcvs	0x00726668
    2062:	0030006d 	eorseq	r0, r0, sp, rrx

00002064 <Code_456>:
    2064:	0030      	movs	r0, r6
    2066:	cf40      	ldmia	r7!, {r6}
    2068:	e7bd      	b.n	1fe6 <eraseflash_intern>
    206a:	80000000 	andhi	r0, r0, r0
    206e:	d0040000 	andle	r0, r4, r0
    2072:	d000400f 	andle	r4, r0, pc
    2076:	d008400f 	andle	r4, r8, pc
    207a:	0001400f 	andeq	r4, r1, pc
    207e:	ffffa442 			; <UNDEFINED> instruction: 0xffffa442
    2082:	00020000 	andeq	r0, r2, r0
    2086:	0000a442 	andeq	sl, r0, r2, asr #8
    208a:	20c20010 	sbccs	r0, r2, r0, lsl r0

0000208c <Dictionary_458>:
    208c:	000020c2 	andeq	r2, r0, r2, asr #1
    2090:	2b010262 	blcs	42a20 <BIT18+0x2a20>

00002094 <Code_458>:
    2094:	cf01      	ldmia	r7!, {r0}
    2096:	1836      	adds	r6, r6, r0
    2098:	4770      	bx	lr

0000209a <plus_allocator>:
    209a:	b500      	push	{lr}
    209c:	f7fe fa32 	bl	504 <expect_two_elements>
    20a0:	f847 6d04 	str.w	r6, [r7, #-4]!
    20a4:	f243 0600 	movw	r6, #12288	; 0x3000
    20a8:	f847 6d04 	str.w	r6, [r7, #-4]!
    20ac:	4ec8      	ldr	r6, [pc, #800]	; (23d0 <Code_530+0x8>)
    20ae:	f847 6d04 	str.w	r6, [r7, #-4]!
    20b2:	f641 0600 	movw	r6, #6144	; 0x1800
    20b6:	6881      	ldr	r1, [r0, #8]
    20b8:	2928      	cmp	r1, #40	; 0x28
    20ba:	d117      	bne.n	20ec <minus_allocator+0x1c>
    20bc:	f7fe ff75 	bl	faa <swap_allocator>
    20c0:	e014      	b.n	20ec <minus_allocator+0x1c>

000020c2 <Dictionary_464>:
    20c2:	00002168 	andeq	r2, r0, r8, ror #2
    20c6:	2d010262 	sfmcs	f0, 4, [r1, #-392]	; 0xfffffe78

000020ca <Code_464>:
    20ca:	cf01      	ldmia	r7!, {r0}
    20cc:	1b86      	subs	r6, r0, r6
    20ce:	4770      	bx	lr

000020d0 <minus_allocator>:
    20d0:	b500      	push	{lr}
    20d2:	f7fe fa17 	bl	504 <expect_two_elements>
    20d6:	f847 6d04 	str.w	r6, [r7, #-4]!
    20da:	f643 0600 	movw	r6, #14336	; 0x3800
    20de:	f847 6d04 	str.w	r6, [r7, #-4]!
    20e2:	4ebc      	ldr	r6, [pc, #752]	; (23d4 <Code_530+0xc>)
    20e4:	f847 6d04 	str.w	r6, [r7, #-4]!
    20e8:	f641 2600 	movw	r6, #6656	; 0x1a00
    20ec:	f7fe fa46 	bl	57c <expect_nos_in_register>
    20f0:	6801      	ldr	r1, [r0, #0]
    20f2:	2928      	cmp	r1, #40	; 0x28
    20f4:	d127      	bne.n	2146 <minus_allocator+0x76>
    20f6:	6841      	ldr	r1, [r0, #4]
    20f8:	29ff      	cmp	r1, #255	; 0xff
    20fa:	d80c      	bhi.n	2116 <minus_allocator+0x46>
    20fc:	cf40      	ldmia	r7!, {r6}
    20fe:	cf40      	ldmia	r7!, {r6}
    2100:	f7fe fa50 	bl	5a4 <nos_change_tos_away_later>
    2104:	430e      	orrs	r6, r1
    2106:	6881      	ldr	r1, [r0, #8]
    2108:	0209      	lsls	r1, r1, #8
    210a:	430e      	orrs	r6, r1
    210c:	f001 f914 	bl	3338 <Code_811>
    2110:	f7fe f8ed 	bl	2ee <eliminiere_tos>
    2114:	bd00      	pop	{pc}
    2116:	f847 6d04 	str.w	r6, [r7, #-4]!
    211a:	000e      	movs	r6, r1
    211c:	f000 fcfc 	bl	2b18 <Code_671>
    2120:	cf02      	ldmia	r7!, {r1}
    2122:	2e00      	cmp	r6, #0
    2124:	cf40      	ldmia	r7!, {r6}
    2126:	d00e      	beq.n	2146 <minus_allocator+0x76>
    2128:	cf40      	ldmia	r7!, {r6}
    212a:	3704      	adds	r7, #4
    212c:	430e      	orrs	r6, r1
    212e:	6881      	ldr	r1, [r0, #8]
    2130:	ea56 4601 	orrs.w	r6, r6, r1, lsl #16
    2134:	f7fe f8db 	bl	2ee <eliminiere_tos>
    2138:	f7fe fa64 	bl	604 <tos_registerwechsel>
    213c:	ea56 2603 	orrs.w	r6, r6, r3, lsl #8
    2140:	f001 f929 	bl	3396 <Code_820>
    2144:	bd00      	pop	{pc}
    2146:	3704      	adds	r7, #4
    2148:	3704      	adds	r7, #4
    214a:	f7fe fa0d 	bl	568 <expect_tos_in_register>
    214e:	0189      	lsls	r1, r1, #6
    2150:	6882      	ldr	r2, [r0, #8]
    2152:	00d2      	lsls	r2, r2, #3
    2154:	430e      	orrs	r6, r1
    2156:	4316      	orrs	r6, r2
    2158:	f7fe f8c9 	bl	2ee <eliminiere_tos>
    215c:	f7fe fa52 	bl	604 <tos_registerwechsel>
    2160:	431e      	orrs	r6, r3
    2162:	f001 f8e9 	bl	3338 <Code_811>
    2166:	bd00      	pop	{pc}

00002168 <Dictionary_479>:
    2168:	00002180 	andeq	r2, r0, r0, lsl #3
    216c:	31020261 	tstcc	r2, r1, ror #4
    2170:	3e01002d 	cdpcc	0, 0, cr0, cr1, cr13, {1}

00002172 <Code_479>:
    2172:	3e01      	subs	r6, #1
    2174:	4770      	bx	lr

00002176 <allocator_one_minus>:
    2176:	f847 6d04 	str.w	r6, [r7, #-4]!
    217a:	f641 6640 	movw	r6, #7744	; 0x1e40
    217e:	e03d      	b.n	21fc <smalltworegisters>

00002180 <Dictionary_482>:
    2180:	00002198 	muleq	r0, r8, r1
    2184:	31020261 	tstcc	r2, r1, ror #4
    2188:	3601002b 	strcc	r0, [r1], -fp, lsr #32

0000218a <Code_482>:
    218a:	3601      	adds	r6, #1
    218c:	4770      	bx	lr
    218e:	f847 6d04 	str.w	r6, [r7, #-4]!
    2192:	f641 4640 	movw	r6, #7232	; 0x1c40
    2196:	e031      	b.n	21fc <smalltworegisters>

00002198 <Dictionary_485>:
    2198:	000021b0 			; <UNDEFINED> instruction: 0x000021b0
    219c:	32020261 	andcc	r0, r2, #268435462	; 0x10000006
    21a0:	3e02002d 	cdpcc	0, 0, cr0, cr2, cr13, {1}

000021a2 <Code_485>:
    21a2:	3e02      	subs	r6, #2
    21a4:	4770      	bx	lr
    21a6:	f847 6d04 	str.w	r6, [r7, #-4]!
    21aa:	f641 6680 	movw	r6, #7808	; 0x1e80
    21ae:	e025      	b.n	21fc <smalltworegisters>

000021b0 <Dictionary_488>:
    21b0:	000021c8 	andeq	r2, r0, r8, asr #3
    21b4:	32020261 	andcc	r0, r2, #268435462	; 0x10000006
    21b8:	3602002b 	strcc	r0, [r2], -fp, lsr #32

000021ba <Code_488>:
    21ba:	3602      	adds	r6, #2
    21bc:	4770      	bx	lr
    21be:	f847 6d04 	str.w	r6, [r7, #-4]!
    21c2:	f641 4680 	movw	r6, #7296	; 0x1c80
    21c6:	e019      	b.n	21fc <smalltworegisters>

000021c8 <Dictionary_491>:
    21c8:	000021e2 	andeq	r2, r0, r2, ror #3
    21cc:	63050261 	movwvs	r0, #21089	; 0x5261
    21d0:	2b6c6c65 	blcs	1b1d36c <BIT24+0xb1d36c>

000021d4 <Code_491>:
    21d4:	3604      	adds	r6, #4
    21d6:	4770      	bx	lr
    21d8:	f847 6d04 	str.w	r6, [r7, #-4]!
    21dc:	f641 5600 	movw	r6, #7424	; 0x1d00
    21e0:	e00c      	b.n	21fc <smalltworegisters>

000021e2 <Dictionary_494>:
    21e2:	00002214 	andeq	r2, r0, r4, lsl r2
    21e6:	6e060261 	cdpvs	2, 0, cr0, cr6, cr1, {3}
    21ea:	74616765 	strbtvc	r6, [r1], #-1893	; 0x765
    21ee:	42760065 	rsbsmi	r0, r6, #101	; 0x65

000021f0 <Code_494>:
    21f0:	4276      	negs	r6, r6
    21f2:	4770      	bx	lr

000021f4 <allocator_negate>:
    21f4:	f847 6d04 	str.w	r6, [r7, #-4]!
    21f8:	f244 2640 	movw	r6, #16960	; 0x4240

000021fc <smalltworegisters>:
    21fc:	b500      	push	{lr}
    21fe:	f7fe f977 	bl	4f0 <expect_one_element>
    2202:	6801      	ldr	r1, [r0, #0]
    2204:	00c9      	lsls	r1, r1, #3
    2206:	430e      	orrs	r6, r1
    2208:	f7fe f9fc 	bl	604 <tos_registerwechsel>
    220c:	431e      	orrs	r6, r3
    220e:	f001 f893 	bl	3338 <Code_811>
    2212:	bd00      	pop	{pc}

00002214 <Dictionary_497>:
    2214:	0000222c 	andeq	r2, r0, ip, lsr #4
    2218:	6e030261 	cdpvs	2, 0, cr0, cr3, cr1, {3}
    221c:	43f6746f 	mvnsmi	r7, #1862270976	; 0x6f000000

0000221e <Code_497>:
    221e:	43f6      	mvns	r6, r6
    2220:	4770      	bx	lr

00002222 <allocator_not>:
    2222:	f847 6d04 	str.w	r6, [r7, #-4]!
    2226:	f244 36c0 	movw	r6, #17344	; 0x43c0
    222a:	e7e7      	b.n	21fc <smalltworegisters>

0000222c <Dictionary_500>:
    222c:	00002244 	andeq	r2, r0, r4, asr #4
    2230:	73030261 	movwvc	r0, #12897	; 0x3261
    2234:	08767268 	ldmdaeq	r6!, {r3, r5, r6, r9, ip, sp, lr}^

00002236 <Code_500>:
    2236:	0876      	lsrs	r6, r6, #1
    2238:	4770      	bx	lr
    223a:	f847 6d04 	str.w	r6, [r7, #-4]!
    223e:	f640 0640 	movw	r6, #2112	; 0x840
    2242:	e7db      	b.n	21fc <smalltworegisters>

00002244 <Dictionary_503>:
    2244:	00002254 	andeq	r2, r0, r4, asr r2
    2248:	73030261 	movwvc	r0, #12897	; 0x3261
    224c:	00766c68 	rsbseq	r6, r6, r8, ror #24

0000224e <Code_503>:
    224e:	0076      	lsls	r6, r6, #1
    2250:	4770      	bx	lr
    2252:	e006      	b.n	2262 <Code_504+0x4>

00002254 <Dictionary_504>:
    2254:	0000226a 	andeq	r2, r0, sl, ror #4
    2258:	32020261 	andcc	r0, r2, #268435462	; 0x10000006
    225c:	0076002a 	rsbseq	r0, r6, sl, lsr #32

0000225e <Code_504>:
    225e:	0076      	lsls	r6, r6, #1
    2260:	4770      	bx	lr
    2262:	f847 6d04 	str.w	r6, [r7, #-4]!
    2266:	2640      	movs	r6, #64	; 0x40
    2268:	e7c8      	b.n	21fc <smalltworegisters>

0000226a <Dictionary_507>:
    226a:	00002282 	andeq	r2, r0, r2, lsl #5
    226e:	63050261 	movwvs	r0, #21089	; 0x5261
    2272:	736c6c65 	cmnvc	ip, #25856	; 0x6500

00002276 <Code_507>:
    2276:	00b6      	lsls	r6, r6, #2
    2278:	4770      	bx	lr
    227a:	f847 6d04 	str.w	r6, [r7, #-4]!
    227e:	2680      	movs	r6, #128	; 0x80
    2280:	e7bc      	b.n	21fc <smalltworegisters>

00002282 <Dictionary_510>:
    2282:	0000229a 	muleq	r0, sl, r2
    2286:	32020261 	andcc	r0, r2, #268435462	; 0x10000006
    228a:	1076002f 	rsbsne	r0, r6, pc, lsr #32

0000228c <Code_510>:
    228c:	1076      	asrs	r6, r6, #1
    228e:	4770      	bx	lr
    2290:	f847 6d04 	str.w	r6, [r7, #-4]!
    2294:	f241 0640 	movw	r6, #4160	; 0x1040
    2298:	e7b0      	b.n	21fc <smalltworegisters>

0000229a <Dictionary_513>:
    229a:	000022d6 	ldrdeq	r2, [r0], -r6
    229e:	61030261 	tstvs	r3, r1, ror #4
    22a2:	17f07362 	ldrbne	r7, [r0, r2, ror #6]!

000022a4 <Code_513>:
    22a4:	17f0      	asrs	r0, r6, #31
    22a6:	1836      	adds	r6, r6, r0
    22a8:	4046      	eors	r6, r0
    22aa:	4770      	bx	lr
    22ac:	b500      	push	{lr}
    22ae:	f7fe f91f 	bl	4f0 <expect_one_element>
    22b2:	f847 6d04 	str.w	r6, [r7, #-4]!
    22b6:	f642 0600 	movw	r6, #10240	; 0x2800
    22ba:	6801      	ldr	r1, [r0, #0]
    22bc:	0209      	lsls	r1, r1, #8
    22be:	430e      	orrs	r6, r1
    22c0:	f001 f83a 	bl	3338 <Code_811>
    22c4:	f847 6d04 	str.w	r6, [r7, #-4]!
    22c8:	f24d 5600 	movw	r6, #54528	; 0xd500
    22cc:	f001 f834 	bl	3338 <Code_811>
    22d0:	f7ff ff90 	bl	21f4 <allocator_negate>
    22d4:	bd00      	pop	{pc}

000022d6 <Dictionary_518>:
    22d6:	000022f4 	strdeq	r2, [r0], -r4
    22da:	75050042 	strvc	r0, [r5, #-66]	; 0x42
    22de:	646f6d2f 	strbtvs	r6, [pc], #-3375	; 22e6 <Code_518+0x4>

000022e2 <Code_518>:
    22e2:	cf01      	ldmia	r7!, {r0}
    22e4:	0031      	movs	r1, r6
    22e6:	fbb0 f6f6 	udiv	r6, r0, r6
    22ea:	4371      	muls	r1, r6
    22ec:	1a40      	subs	r0, r0, r1
    22ee:	3f04      	subs	r7, #4
    22f0:	6038      	str	r0, [r7, #0]
    22f2:	4770      	bx	lr

000022f4 <Dictionary_519>:
    22f4:	00002312 	andeq	r2, r0, r2, lsl r3
    22f8:	2f040042 	svccs	0x00040042
    22fc:	00646f6d 	rsbeq	r6, r4, sp, ror #30

00002300 <Code_519>:
    2300:	cf01      	ldmia	r7!, {r0}
    2302:	0031      	movs	r1, r6
    2304:	fb90 f6f6 	sdiv	r6, r0, r6
    2308:	4371      	muls	r1, r6
    230a:	1a40      	subs	r0, r0, r1
    230c:	3f04      	subs	r7, #4
    230e:	6038      	str	r0, [r7, #0]
    2310:	4770      	bx	lr

00002312 <Dictionary_520>:
    2312:	00002326 	andeq	r2, r0, r6, lsr #6
    2316:	6d030042 	stcvs	0, cr0, [r3, #-264]	; 0xfffffef8
    231a:	b500646f 	strlt	r6, [r0, #-1135]	; 0x46f

0000231c <Code_520>:
    231c:	b500      	push	{lr}
    231e:	f7ff ffef 	bl	2300 <Code_519>
    2322:	cf40      	ldmia	r7!, {r6}
    2324:	bd00      	pop	{pc}

00002326 <Dictionary_522>:
    2326:	00002366 	andeq	r2, r0, r6, ror #6
    232a:	2f010262 	svccs	0x00010262

0000232e <Code_522>:
    232e:	cf01      	ldmia	r7!, {r0}
    2330:	fb90 f6f6 	sdiv	r6, r0, r6
    2334:	4770      	bx	lr
    2336:	b500      	push	{lr}
    2338:	f7fe f8e4 	bl	504 <expect_two_elements>
    233c:	f7fe f914 	bl	568 <expect_tos_in_register>
    2340:	f7fe f91c 	bl	57c <expect_nos_in_register>
    2344:	f847 6d04 	str.w	r6, [r7, #-4]!
    2348:	4e23      	ldr	r6, [pc, #140]	; (23d8 <Code_530+0x10>)
    234a:	6801      	ldr	r1, [r0, #0]
    234c:	430e      	orrs	r6, r1
    234e:	6881      	ldr	r1, [r0, #8]
    2350:	ea56 4601 	orrs.w	r6, r6, r1, lsl #16
    2354:	f7fd ffcb 	bl	2ee <eliminiere_tos>
    2358:	f7fe f954 	bl	604 <tos_registerwechsel>
    235c:	ea56 2603 	orrs.w	r6, r6, r3, lsl #8
    2360:	f001 f819 	bl	3396 <Code_820>
    2364:	bd00      	pop	{pc}

00002366 <Dictionary_524>:
    2366:	0000237a 	andeq	r2, r0, sl, ror r3
    236a:	65040061 	strvs	r0, [r4, #-97]	; 0x61
    236e:	006e6576 	rsbeq	r6, lr, r6, ror r5

00002372 <Code_524>:
    2372:	2001      	movs	r0, #1
    2374:	4030      	ands	r0, r6
    2376:	1836      	adds	r6, r6, r0
    2378:	4770      	bx	lr

0000237a <Dictionary_525>:
    237a:	00002392 	muleq	r0, r2, r3
    237e:	62040081 	andvs	r0, r4, #129	; 0x81
    2382:	00657361 	rsbeq	r7, r5, r1, ror #6

00002386 <Code_525>:
    2386:	f847 6d04 	str.w	r6, [r7, #-4]!
    238a:	4e14      	ldr	r6, [pc, #80]	; (23dc <Code_530+0x14>)
    238c:	4770      	bx	lr
    238e:	0000000a 	andeq	r0, r0, sl

00002392 <Dictionary_528>:
    2392:	000023a8 	andeq	r2, r0, r8, lsr #7
    2396:	62060000 	andvs	r0, r6, #0
    239a:	72616e69 	rsbvc	r6, r1, #1680	; 0x690
    239e:	480e0079 	stmdami	lr, {r0, r3, r4, r5, r6}

000023a0 <Code_528>:
    23a0:	480e      	ldr	r0, [pc, #56]	; (23dc <Code_530+0x14>)
    23a2:	2102      	movs	r1, #2
    23a4:	6001      	str	r1, [r0, #0]
    23a6:	4770      	bx	lr

000023a8 <Dictionary_529>:
    23a8:	000023be 			; <UNDEFINED> instruction: 0x000023be
    23ac:	64070000 	strvs	r0, [r7]
    23b0:	6d696365 	stclvs	3, cr6, [r9, #-404]!	; 0xfffffe6c
    23b4:	48096c61 	stmdami	r9, {r0, r5, r6, sl, fp, sp, lr}

000023b6 <Code_529>:
    23b6:	4809      	ldr	r0, [pc, #36]	; (23dc <Code_530+0x14>)
    23b8:	210a      	movs	r1, #10
    23ba:	6001      	str	r1, [r0, #0]
    23bc:	4770      	bx	lr

000023be <Dictionary_530>:
    23be:	000023e0 	andeq	r2, r0, r0, ror #7
    23c2:	68030000 	stmdavs	r3, {}	; <UNPREDICTABLE>
    23c6:	48047865 	stmdami	r4, {r0, r2, r5, r6, fp, ip, sp, lr}

000023c8 <Code_530>:
    23c8:	4804      	ldr	r0, [pc, #16]	; (23dc <Code_530+0x14>)
    23ca:	2110      	movs	r1, #16
    23cc:	6001      	str	r1, [r0, #0]
    23ce:	4770      	bx	lr
    23d0:	f1100000 			; <UNDEFINED> instruction: 0xf1100000
    23d4:	f1b00000 			; <UNDEFINED> instruction: 0xf1b00000
    23d8:	fb90f0f0 	blx	fe43e7a2 <BIT31+0x7e43e7a2>
    23dc:	2003fffc 	strdcs	pc, [r3], -ip

000023e0 <Dictionary_531>:
    23e0:	000023fc 	strdeq	r2, [r0], -ip
    23e4:	68090081 	stmdavs	r9, {r0, r7}
    23e8:	2d6b6f6f 	stclcs	15, cr6, [fp, #-444]!	; 0xfffffe44
    23ec:	74696d65 	strbtvc	r6, [r9], #-3429	; 0xd65

000023f0 <Code_531>:
    23f0:	f847 6d04 	str.w	r6, [r7, #-4]!
    23f4:	4e75      	ldr	r6, [pc, #468]	; (25cc <uart_init+0x4e>)
    23f6:	4770      	bx	lr
    23f8:	000024e6 	andeq	r2, r0, r6, ror #9

000023fc <Dictionary_534>:
    23fc:	00002418 	andeq	r2, r0, r8, lsl r4
    2400:	68080081 	stmdavs	r8, {r0, r7}
    2404:	2d6b6f6f 	stclcs	15, cr6, [fp, #-444]!	; 0xfffffe44
    2408:	0079656b 	rsbseq	r6, r9, fp, ror #10

0000240c <Code_534>:
    240c:	f847 6d04 	str.w	r6, [r7, #-4]!
    2410:	4e6f      	ldr	r6, [pc, #444]	; (25d0 <uart_init+0x52>)
    2412:	4770      	bx	lr
    2414:	0000250c 	andeq	r2, r0, ip, lsl #10

00002418 <Dictionary_537>:
    2418:	00002436 	andeq	r2, r0, r6, lsr r4
    241c:	680a0081 	stmdavs	sl, {r0, r7}
    2420:	2d6b6f6f 	stclcs	15, cr6, [fp, #-444]!	; 0xfffffe44
    2424:	74696d65 	strbtvc	r6, [r9], #-3429	; 0xd65
    2428:	f847003f 			; <UNDEFINED> instruction: 0xf847003f

0000242a <Code_537>:
    242a:	f847 6d04 	str.w	r6, [r7, #-4]!
    242e:	4e69      	ldr	r6, [pc, #420]	; (25d4 <uart_init+0x56>)
    2430:	4770      	bx	lr
    2432:	00002538 	andeq	r2, r0, r8, lsr r5

00002436 <Dictionary_540>:
    2436:	00002452 	andeq	r2, r0, r2, asr r4
    243a:	68090081 	stmdavs	r9, {r0, r7}
    243e:	2d6b6f6f 	stclcs	15, cr6, [fp, #-444]!	; 0xfffffe44
    2442:	3f79656b 	svccc	0x0079656b

00002446 <Code_540>:
    2446:	f847 6d04 	str.w	r6, [r7, #-4]!
    244a:	4e63      	ldr	r6, [pc, #396]	; (25d8 <uart_init+0x5a>)
    244c:	4770      	bx	lr
    244e:	00002564 	andeq	r2, r0, r4, ror #10

00002452 <Dictionary_543>:
    2452:	00002470 	andeq	r2, r0, r0, ror r4
    2456:	680a0081 	stmdavs	sl, {r0, r7}
    245a:	2d6b6f6f 	stclcs	15, cr6, [fp, #-444]!	; 0xfffffe44
    245e:	73756170 	cmnvc	r5, #28
    2462:	f8470065 			; <UNDEFINED> instruction: 0xf8470065

00002464 <Code_543>:
    2464:	f847 6d04 	str.w	r6, [r7, #-4]!
    2468:	4e5c      	ldr	r6, [pc, #368]	; (25dc <uart_init+0x5e>)
    246a:	4770      	bx	lr
    246c:	000048e6 	andeq	r4, r0, r6, ror #17

00002470 <Dictionary_546>:
    2470:	00002486 	andeq	r2, r0, r6, lsl #9
    2474:	65040000 	strvs	r0, [r4]
    2478:	0074696d 	rsbseq	r6, r4, sp, ror #18

0000247c <Code_546>:
    247c:	b50f      	push	{r0, r1, r2, r3, lr}
    247e:	4853      	ldr	r0, [pc, #332]	; (25cc <uart_init+0x4e>)
    2480:	f000 f826 	bl	24d0 <hook_intern>
    2484:	bd0f      	pop	{r0, r1, r2, r3, pc}

00002486 <Dictionary_547>:
    2486:	0000249a 	muleq	r0, sl, r4
    248a:	6b030000 	blvs	c2492 <BIT19+0x42492>
    248e:	b50f7965 	strlt	r7, [pc, #-2405]	; 1b31 <allocator_1store+0x33>

00002490 <Code_547>:
    2490:	b50f      	push	{r0, r1, r2, r3, lr}
    2492:	484f      	ldr	r0, [pc, #316]	; (25d0 <uart_init+0x52>)
    2494:	f000 f81c 	bl	24d0 <hook_intern>
    2498:	bd0f      	pop	{r0, r1, r2, r3, pc}

0000249a <Dictionary_548>:
    249a:	000024ac 	andeq	r2, r0, ip, lsr #9
    249e:	65050000 	strvs	r0, [r5]
    24a2:	3f74696d 	svccc	0x0074696d

000024a6 <Code_548>:
    24a6:	484b      	ldr	r0, [pc, #300]	; (25d4 <uart_init+0x56>)
    24a8:	6800      	ldr	r0, [r0, #0]
    24aa:	4687      	mov	pc, r0

000024ac <Dictionary_549>:
    24ac:	000024be 			; <UNDEFINED> instruction: 0x000024be
    24b0:	6b040000 	blvs	1024b8 <BIT20+0x24b8>
    24b4:	003f7965 	eorseq	r7, pc, r5, ror #18

000024b8 <Code_549>:
    24b8:	4847      	ldr	r0, [pc, #284]	; (25d8 <uart_init+0x5a>)
    24ba:	6800      	ldr	r0, [r0, #0]
    24bc:	4687      	mov	pc, r0

000024be <Dictionary_550>:
    24be:	000024d4 	ldrdeq	r2, [r0], -r4
    24c2:	70050000 	andvc	r0, r5, r0
    24c6:	65737561 	ldrbvs	r7, [r3, #-1377]!	; 0x561

000024ca <Code_550>:
    24ca:	4844      	ldr	r0, [pc, #272]	; (25dc <uart_init+0x5e>)
    24cc:	6800      	ldr	r0, [r0, #0]
    24ce:	4687      	mov	pc, r0

000024d0 <hook_intern>:
    24d0:	6800      	ldr	r0, [r0, #0]
    24d2:	4687      	mov	pc, r0

000024d4 <Dictionary_551>:
    24d4:	000024fa 	strdeq	r2, [r0], -sl
    24d8:	730b0000 	movwvc	r0, #45056	; 0xb000
    24dc:	61697265 	cmnvs	r9, r5, ror #4
    24e0:	6d652d6c 	stclvs	13, cr2, [r5, #-432]!	; 0xfffffe50
    24e4:	b5007469 	strlt	r7, [r0, #-1129]	; 0x469

000024e6 <Code_551>:
    24e6:	b500      	push	{lr}
    24e8:	f000 f826 	bl	2538 <Code_556>
    24ec:	2e00      	cmp	r6, #0
    24ee:	cf40      	ldmia	r7!, {r6}
    24f0:	d0fa      	beq.n	24e8 <Code_551+0x2>
    24f2:	483b      	ldr	r0, [pc, #236]	; (25e0 <uart_init+0x62>)
    24f4:	6006      	str	r6, [r0, #0]
    24f6:	cf40      	ldmia	r7!, {r6}
    24f8:	bd00      	pop	{pc}

000024fa <Dictionary_554>:
    24fa:	00002524 	andeq	r2, r0, r4, lsr #10
    24fe:	730a0000 	movwvc	r0, #40960	; 0xa000
    2502:	61697265 	cmnvs	r9, r5, ror #4
    2506:	656b2d6c 	strbvs	r2, [fp, #-3436]!	; 0xd6c
    250a:	b5000079 	strlt	r0, [r0, #-121]	; 0x79

0000250c <Code_554>:
    250c:	b500      	push	{lr}
    250e:	f000 f829 	bl	2564 <Code_559>
    2512:	2e00      	cmp	r6, #0
    2514:	cf40      	ldmia	r7!, {r6}
    2516:	d0fa      	beq.n	250e <Code_554+0x2>
    2518:	4831      	ldr	r0, [pc, #196]	; (25e0 <uart_init+0x62>)
    251a:	f847 6d04 	str.w	r6, [r7, #-4]!
    251e:	6806      	ldr	r6, [r0, #0]
    2520:	b2f6      	uxtb	r6, r6
    2522:	bd00      	pop	{pc}

00002524 <Dictionary_556>:
    2524:	00002552 	andeq	r2, r0, r2, asr r5
    2528:	730c0000 	movwvc	r0, #49152	; 0xc000
    252c:	61697265 	cmnvs	r9, r5, ror #4
    2530:	6d652d6c 	stclvs	13, cr2, [r5, #-432]!	; 0xfffffe50
    2534:	003f7469 	eorseq	r7, pc, r9, ror #8

00002538 <Code_556>:
    2538:	b500      	push	{lr}
    253a:	f7ff ffc6 	bl	24ca <Code_550>
    253e:	f847 6d04 	str.w	r6, [r7, #-4]!
    2542:	2600      	movs	r6, #0
    2544:	4827      	ldr	r0, [pc, #156]	; (25e4 <uart_init+0x66>)
    2546:	6801      	ldr	r1, [r0, #0]
    2548:	f011 0120 	ands.w	r1, r1, #32
    254c:	d100      	bne.n	2550 <Code_556+0x18>
    254e:	43f6      	mvns	r6, r6
    2550:	bd00      	pop	{pc}

00002552 <Dictionary_559>:
    2552:	00002610 	andeq	r2, r0, r0, lsl r6
    2556:	730b0000 	movwvc	r0, #45056	; 0xb000
    255a:	61697265 	cmnvs	r9, r5, ror #4
    255e:	656b2d6c 	strbvs	r2, [fp, #-3436]!	; 0xd6c
    2562:	b5003f79 	strlt	r3, [r0, #-3961]	; 0xf79

00002564 <Code_559>:
    2564:	b500      	push	{lr}
    2566:	f7ff ffb0 	bl	24ca <Code_550>
    256a:	f847 6d04 	str.w	r6, [r7, #-4]!
    256e:	2600      	movs	r6, #0
    2570:	481c      	ldr	r0, [pc, #112]	; (25e4 <uart_init+0x66>)
    2572:	6801      	ldr	r1, [r0, #0]
    2574:	f011 0110 	ands.w	r1, r1, #16
    2578:	d100      	bne.n	257c <Code_559+0x18>
    257a:	43f6      	mvns	r6, r6
    257c:	bd00      	pop	{pc}

0000257e <uart_init>:
    257e:	f647 71ff 	movw	r1, #32767	; 0x7fff
    2582:	4819      	ldr	r0, [pc, #100]	; (25e8 <uart_init+0x6a>)
    2584:	6001      	str	r1, [r0, #0]
    2586:	2101      	movs	r1, #1
    2588:	4818      	ldr	r0, [pc, #96]	; (25ec <uart_init+0x6e>)
    258a:	6001      	str	r1, [r0, #0]
    258c:	2111      	movs	r1, #17
    258e:	4818      	ldr	r0, [pc, #96]	; (25f0 <uart_init+0x72>)
    2590:	6001      	str	r1, [r0, #0]
    2592:	2103      	movs	r1, #3
    2594:	4817      	ldr	r0, [pc, #92]	; (25f4 <uart_init+0x76>)
    2596:	6001      	str	r1, [r0, #0]
    2598:	4817      	ldr	r0, [pc, #92]	; (25f8 <uart_init+0x7a>)
    259a:	6001      	str	r1, [r0, #0]
    259c:	2100      	movs	r1, #0
    259e:	4817      	ldr	r0, [pc, #92]	; (25fc <uart_init+0x7e>)
    25a0:	6001      	str	r1, [r0, #0]
    25a2:	2108      	movs	r1, #8
    25a4:	4816      	ldr	r0, [pc, #88]	; (2600 <uart_init+0x82>)
    25a6:	6001      	str	r1, [r0, #0]
    25a8:	212c      	movs	r1, #44	; 0x2c
    25aa:	4816      	ldr	r0, [pc, #88]	; (2604 <uart_init+0x86>)
    25ac:	6001      	str	r1, [r0, #0]
    25ae:	2170      	movs	r1, #112	; 0x70
    25b0:	4815      	ldr	r0, [pc, #84]	; (2608 <uart_init+0x8a>)
    25b2:	6001      	str	r1, [r0, #0]
    25b4:	2105      	movs	r1, #5
    25b6:	4815      	ldr	r0, [pc, #84]	; (260c <uart_init+0x8e>)
    25b8:	6001      	str	r1, [r0, #0]
    25ba:	2100      	movs	r1, #0
    25bc:	4809      	ldr	r0, [pc, #36]	; (25e4 <uart_init+0x66>)
    25be:	6001      	str	r1, [r0, #0]
    25c0:	f240 3101 	movw	r1, #769	; 0x301
    25c4:	480d      	ldr	r0, [pc, #52]	; (25fc <uart_init+0x7e>)
    25c6:	6001      	str	r1, [r0, #0]
    25c8:	4770      	bx	lr
    25ca:	fff80000 			; <UNDEFINED> instruction: 0xfff80000
    25ce:	fff42003 			; <UNDEFINED> instruction: 0xfff42003
    25d2:	fff02003 			; <UNDEFINED> instruction: 0xfff02003
    25d6:	ffec2003 			; <UNDEFINED> instruction: 0xffec2003
    25da:	ffe82003 			; <UNDEFINED> instruction: 0xffe82003
    25de:	c0002003 	andgt	r2, r0, r3
    25e2:	c0184000 	andsgt	r4, r8, r0
    25e6:	e6084000 	str	r4, [r8], -r0
    25ea:	e618400f 	ldr	r4, [r8], -pc
    25ee:	852c400f 	strhi	r4, [ip, #-15]!
    25f2:	84204005 	strthi	r4, [r0], #-5
    25f6:	851c4005 	ldrhi	r4, [ip, #-5]
    25fa:	c0304005 	eorsgt	r4, r0, r5
    25fe:	c0244000 	eorgt	r4, r4, r0
    2602:	c0284000 	eorgt	r4, r8, r0
    2606:	c02c4000 	eorgt	r4, ip, r0
    260a:	cfc84000 	svcgt	0x00c84000
    260e:	26344000 	ldrtcs	r4, [r4], -r0

00002610 <Dictionary_563>:
    2610:	00002634 	andeq	r2, r0, r4, lsr r6
    2614:	63070000 	movwvs	r0, #28672	; 0x7000
    2618:	65707865 	ldrbvs	r7, [r0, #-2149]!	; 0x865
    261c:	b5007463 	strlt	r7, [r0, #-1123]	; 0x463

0000261e <Code_563>:
    261e:	b500      	push	{lr}
    2620:	6838      	ldr	r0, [r7, #0]
    2622:	b401      	push	{r0}
    2624:	3001      	adds	r0, #1
    2626:	6038      	str	r0, [r7, #0]
    2628:	f000 f80b 	bl	2642 <Code_565>
    262c:	bc01      	pop	{r0}
    262e:	7006      	strb	r6, [r0, #0]
    2630:	cf40      	ldmia	r7!, {r6}
    2632:	bd00      	pop	{pc}

00002634 <Dictionary_565>:
    2634:	000026aa 	andeq	r2, r0, sl, lsr #13
    2638:	61060000 	mrsvs	r0, (UNDEF: 6)
    263c:	70656363 	rsbvc	r6, r5, r3, ror #6
    2640:	b5000074 	strlt	r0, [r0, #-116]	; 0x74

00002642 <Code_565>:
    2642:	b500      	push	{lr}
    2644:	cf02      	ldmia	r7!, {r1}
    2646:	3901      	subs	r1, #1
    2648:	2200      	movs	r2, #0
    264a:	f7ff ff21 	bl	2490 <Code_547>
    264e:	0030      	movs	r0, r6
    2650:	cf40      	ldmia	r7!, {r6}
    2652:	287f      	cmp	r0, #127	; 0x7f
    2654:	d009      	beq.n	266a <Code_565+0x28>
    2656:	2820      	cmp	r0, #32
    2658:	d219      	bcs.n	268e <Code_565+0x4c>
    265a:	2809      	cmp	r0, #9
    265c:	d016      	beq.n	268c <Code_565+0x4a>
    265e:	280a      	cmp	r0, #10
    2660:	d01f      	beq.n	26a2 <Code_565+0x60>
    2662:	280d      	cmp	r0, #13
    2664:	d01d      	beq.n	26a2 <Code_565+0x60>
    2666:	2808      	cmp	r0, #8
    2668:	d1ef      	bne.n	264a <Code_565+0x8>
    266a:	2a00      	cmp	r2, #0
    266c:	d0ed      	beq.n	264a <Code_565+0x8>
    266e:	f000 f90e 	bl	288e <dotgaensefuesschen>
    2672:	08200803 	stmdaeq	r0!, {r0, r1, fp}
    2676:	2a00      	cmp	r2, #0
    2678:	d0e7      	beq.n	264a <Code_565+0x8>
    267a:	5c88      	ldrb	r0, [r1, r2]
    267c:	3a01      	subs	r2, #1
    267e:	2380      	movs	r3, #128	; 0x80
    2680:	4003      	ands	r3, r0
    2682:	d0e2      	beq.n	264a <Code_565+0x8>
    2684:	2340      	movs	r3, #64	; 0x40
    2686:	4003      	ands	r3, r0
    2688:	d0f5      	beq.n	2676 <Code_565+0x34>
    268a:	e7de      	b.n	264a <Code_565+0x8>
    268c:	2020      	movs	r0, #32
    268e:	42b2      	cmp	r2, r6
    2690:	d2db      	bcs.n	264a <Code_565+0x8>
    2692:	f847 6d04 	str.w	r6, [r7, #-4]!
    2696:	0006      	movs	r6, r0
    2698:	f7ff fef0 	bl	247c <Code_546>
    269c:	3201      	adds	r2, #1
    269e:	5488      	strb	r0, [r1, r2]
    26a0:	e7d3      	b.n	264a <Code_565+0x8>
    26a2:	0016      	movs	r6, r2
    26a4:	f000 f8a2 	bl	27ec <Code_596>
    26a8:	bd00      	pop	{pc}

000026aa <Dictionary_569>:
    26aa:	000026bc 			; <UNDEFINED> instruction: 0x000026bc
    26ae:	74030040 	strvc	r0, [r3], #-64	; 0x40
    26b2:	f8476269 			; <UNDEFINED> instruction: 0xf8476269

000026b4 <Code_569>:
    26b4:	f847 6d04 	str.w	r6, [r7, #-4]!
    26b8:	4e29      	ldr	r6, [pc, #164]	; (2760 <Code_581+0x22>)
    26ba:	4770      	bx	lr

000026bc <Dictionary_571>:
    26bc:	000026d2 	ldrdeq	r2, [r0], -r2	; <UNPREDICTABLE>
    26c0:	3e030081 	cdpcc	0, 0, cr0, cr3, cr1, {4}
    26c4:	f8476e69 			; <UNDEFINED> instruction: 0xf8476e69

000026c6 <Code_571>:
    26c6:	f847 6d04 	str.w	r6, [r7, #-4]!
    26ca:	4e26      	ldr	r6, [pc, #152]	; (2764 <Code_581+0x26>)
    26cc:	4770      	bx	lr
    26ce:	00000000 	andeq	r0, r0, r0

000026d2 <Dictionary_574>:
    26d2:	000026f8 	strdeq	r2, [r0], -r8
    26d6:	630e0082 	movwvs	r0, #57474	; 0xe082
    26da:	65727275 	ldrbvs	r7, [r2, #-629]!	; 0x275
    26de:	732d746e 	teqvc	sp, #1845493760	; 0x6e000000
    26e2:	6372756f 	cmnvs	r2, #465567744	; 0x1bc00000
    26e6:	f8470065 			; <UNDEFINED> instruction: 0xf8470065

000026e8 <Code_574>:
    26e8:	f847 6d04 	str.w	r6, [r7, #-4]!
    26ec:	4e1e      	ldr	r6, [pc, #120]	; (2768 <Code_581+0x2a>)
    26ee:	4770      	bx	lr
    26f0:	00000000 	andeq	r0, r0, r0
    26f4:	200000c4 	andcs	r0, r0, r4, asr #1

000026f8 <Dictionary_577>:
    26f8:	00002714 	andeq	r2, r0, r4, lsl r7
    26fc:	73090000 	movwvc	r0, #36864	; 0x9000
    2700:	6f737465 	svcvs	0x00737465
    2704:	65637275 	strbvs	r7, [r3, #-629]!	; 0x275

00002708 <Code_577>:
    2708:	4817      	ldr	r0, [pc, #92]	; (2768 <Code_581+0x2a>)
    270a:	cf02      	ldmia	r7!, {r1}
    270c:	6006      	str	r6, [r0, #0]
    270e:	6041      	str	r1, [r0, #4]
    2710:	cf40      	ldmia	r7!, {r6}
    2712:	4770      	bx	lr

00002714 <Dictionary_579>:
    2714:	00002732 	andeq	r2, r0, r2, lsr r7
    2718:	73060000 	movwvc	r0, #24576	; 0x6000
    271c:	6372756f 	cmnvs	r2, #465567744	; 0x1bc00000
    2720:	f8470065 			; <UNDEFINED> instruction: 0xf8470065

00002722 <Code_579>:
    2722:	f847 6d04 	str.w	r6, [r7, #-4]!
    2726:	4e10      	ldr	r6, [pc, #64]	; (2768 <Code_581+0x2a>)
    2728:	3f04      	subs	r7, #4
    272a:	6870      	ldr	r0, [r6, #4]
    272c:	6038      	str	r0, [r7, #0]
    272e:	6836      	ldr	r6, [r6, #0]
    2730:	4770      	bx	lr

00002732 <Dictionary_581>:
    2732:	0000276c 	andeq	r2, r0, ip, ror #14
    2736:	71050000 	mrsvc	r0, (UNDEF: 5)
    273a:	79726575 	ldmdbvc	r2!, {r0, r2, r4, r5, r6, r8, sl, sp, lr}^

0000273e <Code_581>:
    273e:	b50f      	push	{r0, r1, r2, r3, lr}
    2740:	4808      	ldr	r0, [pc, #32]	; (2764 <Code_581+0x26>)
    2742:	2100      	movs	r1, #0
    2744:	6001      	str	r1, [r0, #0]
    2746:	f7ff ffb5 	bl	26b4 <Code_569>
    274a:	f847 6d04 	str.w	r6, [r7, #-4]!
    274e:	f847 6d04 	str.w	r6, [r7, #-4]!
    2752:	26c8      	movs	r6, #200	; 0xc8
    2754:	f7ff ff75 	bl	2642 <Code_565>
    2758:	f7ff ffd6 	bl	2708 <Code_577>
    275c:	bd0f      	pop	{r0, r1, r2, r3, pc}
    275e:	00c40000 	sbceq	r0, r4, r0
    2762:	ffe42000 			; <UNDEFINED> instruction: 0xffe42000
    2766:	ffdc2003 			; <UNDEFINED> instruction: 0xffdc2003
    276a:	27ba2003 	ldrcs	r2, [sl, r3]!

0000276c <Dictionary_586>:
    276c:	000027ba 			; <UNDEFINED> instruction: 0x000027ba
    2770:	63070000 	movwvs	r0, #28672	; 0x7000
    2774:	61706d6f 	cmnvs	r0, pc, ror #26
    2778:	b50f6572 	strlt	r6, [pc, #-1394]	; 220e <smalltworegisters+0x12>

0000277a <Code_586>:
    277a:	b50f      	push	{r0, r1, r2, r3, lr}
    277c:	0031      	movs	r1, r6
    277e:	cf40      	ldmia	r7!, {r6}
    2780:	cf01      	ldmia	r7!, {r0}
    2782:	4288      	cmp	r0, r1
    2784:	d002      	beq.n	278c <Code_586+0x12>
    2786:	cf40      	ldmia	r7!, {r6}
    2788:	2600      	movs	r6, #0
    278a:	bd0f      	pop	{r0, r1, r2, r3, pc}
    278c:	cf02      	ldmia	r7!, {r1}
    278e:	2800      	cmp	r0, #0
    2790:	d010      	beq.n	27b4 <Code_586+0x3a>
    2792:	3801      	subs	r0, #1
    2794:	5c0a      	ldrb	r2, [r1, r0]
    2796:	5c33      	ldrb	r3, [r6, r0]
    2798:	2a41      	cmp	r2, #65	; 0x41
    279a:	d302      	bcc.n	27a2 <Code_586+0x28>
    279c:	2a5b      	cmp	r2, #91	; 0x5b
    279e:	bf38      	it	cc
    27a0:	3220      	addcc	r2, #32
    27a2:	2b41      	cmp	r3, #65	; 0x41
    27a4:	d302      	bcc.n	27ac <Code_586+0x32>
    27a6:	2b5b      	cmp	r3, #91	; 0x5b
    27a8:	bf38      	it	cc
    27aa:	3320      	addcc	r3, #32
    27ac:	429a      	cmp	r2, r3
    27ae:	d0ee      	beq.n	278e <Code_586+0x14>
    27b0:	2600      	movs	r6, #0
    27b2:	bd0f      	pop	{r0, r1, r2, r3, pc}
    27b4:	2600      	movs	r6, #0
    27b6:	43f6      	mvns	r6, r6
    27b8:	bd0f      	pop	{r0, r1, r2, r3, pc}

000027ba <Dictionary_591>:
    27ba:	000027ce 	andeq	r2, r0, lr, asr #15
    27be:	63020000 	movwvs	r0, #8192	; 0x2000
    27c2:	b5000072 	strlt	r0, [r0, #-114]	; 0x72

000027c4 <Code_591>:
    27c4:	b500      	push	{lr}
    27c6:	f000 f862 	bl	288e <dotgaensefuesschen>
    27ca:	bd000a01 	vstrlt	s0, [r0, #-4]

000027ce <Dictionary_593>:
    27ce:	000027e0 	andeq	r2, r0, r0, ror #15
    27d2:	62020000 	andvs	r0, r2, #0
    27d6:	f847006c 			; <UNDEFINED> instruction: 0xf847006c

000027d8 <Code_593>:
    27d8:	f847 6d04 	str.w	r6, [r7, #-4]!
    27dc:	2620      	movs	r6, #32
    27de:	4770      	bx	lr

000027e0 <Dictionary_596>:
    27e0:	000027f4 	strdeq	r2, [r0], -r4
    27e4:	73050000 	movwvc	r0, #20480	; 0x5000
    27e8:	65636170 	strbvs	r6, [r3, #-368]!	; 0x170

000027ec <Code_596>:
    27ec:	f847 6d04 	str.w	r6, [r7, #-4]!
    27f0:	2620      	movs	r6, #32
    27f2:	e643      	b.n	247c <Code_546>

000027f4 <Dictionary_599>:
    27f4:	00002814 	andeq	r2, r0, r4, lsl r8
    27f8:	73060000 	movwvc	r0, #24576	; 0x6000
    27fc:	65636170 	strbvs	r6, [r3, #-368]!	; 0x170
    2800:	b5000073 	strlt	r0, [r0, #-115]	; 0x73

00002802 <Code_599>:
    2802:	b500      	push	{lr}
    2804:	2e00      	cmp	r6, #0
    2806:	dd03      	ble.n	2810 <Code_599+0xe>
    2808:	f7ff fff0 	bl	27ec <Code_596>
    280c:	3e01      	subs	r6, #1
    280e:	d1fb      	bne.n	2808 <Code_599+0x6>
    2810:	cf40      	ldmia	r7!, {r6}
    2812:	bd00      	pop	{pc}

00002814 <Dictionary_601>:
    2814:	00002824 	andeq	r2, r0, r4, lsr #16
    2818:	5b060050 	blpl	182960 <BIT20+0x82960>
    281c:	72616863 	rsbvc	r6, r1, #6488064	; 0x630000
    2820:	e005005d 	and	r0, r5, sp, asr r0

00002822 <Code_601>:
    2822:	e005      	b.n	2830 <Code_602>

00002824 <Dictionary_602>:
    2824:	0000283c 	andeq	r2, r0, ip, lsr r8
    2828:	63040000 	movwvs	r0, #16384	; 0x4000
    282c:	00726168 	rsbseq	r6, r2, r8, ror #2

00002830 <Code_602>:
    2830:	b500      	push	{lr}
    2832:	f001 fc75 	bl	4120 <Code_1095>
    2836:	cf40      	ldmia	r7!, {r6}
    2838:	7836      	ldrb	r6, [r6, #0]
    283a:	bd00      	pop	{pc}

0000283c <Dictionary_604>:
    283c:	0000284c 	andeq	r2, r0, ip, asr #16
    2840:	28010450 	stmdacs	r1, {r4, r6, sl}

00002844 <Code_604>:
    2844:	f847 6d04 	str.w	r6, [r7, #-4]!
    2848:	2629      	movs	r6, #41	; 0x29
    284a:	e006      	b.n	285a <Code_607+0x6>

0000284c <Dictionary_607>:
    284c:	00002866 	andeq	r2, r0, r6, ror #16
    2850:	5c010450 	cfstrspl	mvf0, [r1], {80}	; 0x50

00002854 <Code_607>:
    2854:	f847 6d04 	str.w	r6, [r7, #-4]!
    2858:	2600      	movs	r6, #0
    285a:	b500      	push	{lr}
    285c:	f001 fc6a 	bl	4134 <Code_1097>
    2860:	3704      	adds	r7, #4
    2862:	cf40      	ldmia	r7!, {r6}
    2864:	bd00      	pop	{pc}

00002866 <Dictionary_612>:
    2866:	000028aa 	andeq	r2, r0, sl, lsr #17
    286a:	2e020010 	mcrcs	0, 0, r0, cr2, cr0, {0}
    286e:	489b0022 	ldmmi	fp, {r1, r5}

00002870 <Code_612>:
    2870:	489b      	ldr	r0, [pc, #620]	; (2ae0 <Code_651+0x94>)
    2872:	b500      	push	{lr}
    2874:	f847 6d04 	str.w	r6, [r7, #-4]!
    2878:	0006      	movs	r6, r0
    287a:	f000 fa5e 	bl	2d3a <Code_692>
    287e:	f847 6d04 	str.w	r6, [r7, #-4]!
    2882:	2622      	movs	r6, #34	; 0x22
    2884:	f001 fc56 	bl	4134 <Code_1097>
    2888:	f000 fd95 	bl	33b6 <Code_823>
    288c:	bd00      	pop	{pc}

0000288e <dotgaensefuesschen>:
    288e:	b40a      	push	{r1, r3}
    2890:	f847 6d04 	str.w	r6, [r7, #-4]!
    2894:	4676      	mov	r6, lr
    2896:	3e01      	subs	r6, #1
    2898:	7833      	ldrb	r3, [r6, #0]
    289a:	2101      	movs	r1, #1
    289c:	3301      	adds	r3, #1
    289e:	4019      	ands	r1, r3
    28a0:	185b      	adds	r3, r3, r1
    28a2:	eb1e 0e03 	adds.w	lr, lr, r3
    28a6:	bc0a      	pop	{r1, r3}
    28a8:	e039      	b.n	291e <Code_627>

000028aa <Dictionary_618>:
    28aa:	000028d0 	ldrdeq	r2, [r0], -r0
    28ae:	63020010 	movwvs	r0, #8208	; 0x2010
    28b2:	488b0022 	stmmi	fp, {r1, r5}

000028b4 <Code_618>:
    28b4:	488b      	ldr	r0, [pc, #556]	; (2ae4 <Code_651+0x98>)
    28b6:	e7dc      	b.n	2872 <Code_612+0x2>

000028b8 <dotcfuesschen>:
    28b8:	f847 6d04 	str.w	r6, [r7, #-4]!
    28bc:	4676      	mov	r6, lr
    28be:	3e01      	subs	r6, #1
    28c0:	7833      	ldrb	r3, [r6, #0]
    28c2:	2101      	movs	r1, #1
    28c4:	3301      	adds	r3, #1
    28c6:	4019      	ands	r1, r3
    28c8:	185b      	adds	r3, r3, r1
    28ca:	eb1e 0e03 	adds.w	lr, lr, r3
    28ce:	4770      	bx	lr

000028d0 <Dictionary_620>:
    28d0:	000028fa 	strdeq	r2, [r0], -sl
    28d4:	73020010 	movwvc	r0, #8208	; 0x2010
    28d8:	48830022 	stmmi	r3, {r1, r5}

000028da <Code_620>:
    28da:	4883      	ldr	r0, [pc, #524]	; (2ae8 <Code_651+0x9c>)
    28dc:	e7c9      	b.n	2872 <Code_612+0x2>

000028de <dotsfuesschen>:
    28de:	f847 6d04 	str.w	r6, [r7, #-4]!
    28e2:	4676      	mov	r6, lr
    28e4:	f847 6d04 	str.w	r6, [r7, #-4]!
    28e8:	3e01      	subs	r6, #1
    28ea:	7836      	ldrb	r6, [r6, #0]
    28ec:	2101      	movs	r1, #1
    28ee:	1c73      	adds	r3, r6, #1
    28f0:	4019      	ands	r1, r3
    28f2:	185b      	adds	r3, r3, r1
    28f4:	eb1e 0e03 	adds.w	lr, lr, r3
    28f8:	4770      	bx	lr

000028fa <Dictionary_624>:
    28fa:	00002912 	andeq	r2, r0, r2, lsl r9
    28fe:	63050000 	movwvs	r0, #20480	; 0x5000
    2902:	746e756f 	strbtvc	r7, [lr], #-1391	; 0x56f

00002906 <Code_624>:
    2906:	3601      	adds	r6, #1
    2908:	f847 6d04 	str.w	r6, [r7, #-4]!
    290c:	3e01      	subs	r6, #1
    290e:	7836      	ldrb	r6, [r6, #0]
    2910:	4770      	bx	lr

00002912 <Dictionary_627>:
    2912:	0000293a 	andeq	r2, r0, sl, lsr r9
    2916:	63050000 	movwvs	r0, #20480	; 0x5000
    291a:	65707974 	ldrbvs	r7, [r0, #-2420]!	; 0x974

0000291e <Code_627>:
    291e:	b501      	push	{r0, lr}
    2920:	7830      	ldrb	r0, [r6, #0]
    2922:	2800      	cmp	r0, #0
    2924:	d007      	beq.n	2936 <Code_627+0x18>
    2926:	3601      	adds	r6, #1
    2928:	f847 6d04 	str.w	r6, [r7, #-4]!
    292c:	7836      	ldrb	r6, [r6, #0]
    292e:	f7ff fda5 	bl	247c <Code_546>
    2932:	3801      	subs	r0, #1
    2934:	d1f7      	bne.n	2926 <Code_627+0x8>
    2936:	cf40      	ldmia	r7!, {r6}
    2938:	bd01      	pop	{r0, pc}

0000293a <Dictionary_631>:
    293a:	00002968 	andeq	r2, r0, r8, ror #18
    293e:	74040000 	strvc	r0, [r4]
    2942:	00657079 	rsbeq	r7, r5, r9, ror r0

00002946 <Code_631>:
    2946:	0031      	movs	r1, r6
    2948:	cf40      	ldmia	r7!, {r6}
    294a:	0030      	movs	r0, r6
    294c:	cf40      	ldmia	r7!, {r6}

0000294e <stype_addr_r0_len_r1>:
    294e:	b500      	push	{lr}
    2950:	2900      	cmp	r1, #0
    2952:	d008      	beq.n	2966 <stype_addr_r0_len_r1+0x18>
    2954:	2200      	movs	r2, #0
    2956:	f847 6d04 	str.w	r6, [r7, #-4]!
    295a:	5c86      	ldrb	r6, [r0, r2]
    295c:	f7ff fd8e 	bl	247c <Code_546>
    2960:	3201      	adds	r2, #1
    2962:	4291      	cmp	r1, r2
    2964:	d1f7      	bne.n	2956 <stype_addr_r0_len_r1+0x8>
    2966:	bd00      	pop	{pc}

00002968 <Dictionary_635>:
    2968:	000029a2 	andeq	r2, r0, r2, lsr #19
    296c:	68040000 	stmdavs	r4, {}	; <UNPREDICTABLE>
    2970:	002e7865 	eoreq	r7, lr, r5, ror #16

00002974 <Code_635>:
    2974:	b507      	push	{r0, r1, r2, lr}
    2976:	0031      	movs	r1, r6
    2978:	cf40      	ldmia	r7!, {r6}
    297a:	2020      	movs	r0, #32
    297c:	220f      	movs	r2, #15
    297e:	3804      	subs	r0, #4
    2980:	f847 6d04 	str.w	r6, [r7, #-4]!
    2984:	000e      	movs	r6, r1
    2986:	40c6      	lsrs	r6, r0
    2988:	4016      	ands	r6, r2
    298a:	2e09      	cmp	r6, #9
    298c:	d901      	bls.n	2992 <Code_635+0x1e>
    298e:	3637      	adds	r6, #55	; 0x37
    2990:	e000      	b.n	2994 <Code_635+0x20>
    2992:	3630      	adds	r6, #48	; 0x30
    2994:	f7ff fd72 	bl	247c <Code_546>
    2998:	2800      	cmp	r0, #0
    299a:	d1f0      	bne.n	297e <Code_635+0xa>
    299c:	f7ff ff26 	bl	27ec <Code_596>
    29a0:	bd07      	pop	{r0, r1, r2, pc}

000029a2 <Dictionary_638>:
    29a2:	000029b2 			; <UNDEFINED> instruction: 0x000029b2
    29a6:	68030000 	stmdavs	r3, {}	; <UNPREDICTABLE>
    29aa:	b51f732e 	ldrlt	r7, [pc, #-814]	; 2684 <Code_565+0x42>

000029ac <Code_638>:
    29ac:	b51f      	push	{r0, r1, r2, r3, r4, lr}
    29ae:	4c4f      	ldr	r4, [pc, #316]	; (2aec <Code_651+0xa0>)
    29b0:	e00e      	b.n	29d0 <Code_640+0x4>

000029b2 <Dictionary_639>:
    29b2:	000029c2 	andeq	r2, r0, r2, asr #19
    29b6:	75030000 	strvc	r0, [r3]
    29ba:	b51f732e 	ldrlt	r7, [pc, #-814]	; 2694 <Code_565+0x52>

000029bc <Code_639>:
    29bc:	b51f      	push	{r0, r1, r2, r3, r4, lr}
    29be:	4c4c      	ldr	r4, [pc, #304]	; (2af0 <Code_651+0xa4>)
    29c0:	e006      	b.n	29d0 <Code_640+0x4>

000029c2 <Dictionary_640>:
    29c2:	00002a40 	andeq	r2, r0, r0, asr #20
    29c6:	2e020000 	cdpcs	0, 0, cr0, cr2, cr0, {0}
    29ca:	b51f0073 	ldrlt	r0, [pc, #-115]	; 295f <stype_addr_r0_len_r1+0x11>

000029cc <Code_640>:
    29cc:	b51f      	push	{r0, r1, r2, r3, r4, lr}
    29ce:	4c49      	ldr	r4, [pc, #292]	; (2af4 <Code_651+0xa8>)
    29d0:	4949      	ldr	r1, [pc, #292]	; (2af8 <Code_651+0xac>)
    29d2:	1bc9      	subs	r1, r1, r7
    29d4:	0889      	lsrs	r1, r1, #2
    29d6:	4a49      	ldr	r2, [pc, #292]	; (2afc <Code_651+0xb0>)
    29d8:	6810      	ldr	r0, [r2, #0]
    29da:	b403      	push	{r0, r1}
    29dc:	200a      	movs	r0, #10
    29de:	6010      	str	r0, [r2, #0]
    29e0:	f7ff ff55 	bl	288e <dotgaensefuesschen>
    29e4:	61745308 	cmnvs	r4, r8, lsl #6
    29e8:	203a6b63 	eorscs	r6, sl, r3, ror #22
    29ec:	f847005b 			; <UNDEFINED> instruction: 0xf847005b
    29f0:	6d04      	ldr	r4, [r0, #80]	; 0x50
    29f2:	000e      	movs	r6, r1
    29f4:	f001 fd6d 	bl	44d2 <Code_1163>
    29f8:	f7ff ff49 	bl	288e <dotgaensefuesschen>
    29fc:	00205d02 	eoreq	r5, r0, r2, lsl #26
    2a00:	bc03      	pop	{r0, r1}
    2a02:	4a3e      	ldr	r2, [pc, #248]	; (2afc <Code_651+0xb0>)
    2a04:	6010      	str	r0, [r2, #0]
    2a06:	2900      	cmp	r1, #0
    2a08:	d00a      	beq.n	2a20 <Code_640+0x54>
    2a0a:	4a3d      	ldr	r2, [pc, #244]	; (2b00 <Code_651+0xb4>)
    2a0c:	6810      	ldr	r0, [r2, #0]
    2a0e:	b406      	push	{r1, r2}
    2a10:	f847 6d04 	str.w	r6, [r7, #-4]!
    2a14:	0006      	movs	r6, r0
    2a16:	47a0      	blx	r4
    2a18:	bc06      	pop	{r1, r2}
    2a1a:	3a04      	subs	r2, #4
    2a1c:	3901      	subs	r1, #1
    2a1e:	d1f5      	bne.n	2a0c <Code_640+0x40>
    2a20:	f7ff ff35 	bl	288e <dotgaensefuesschen>
    2a24:	4f542006 	svcmi	0x00542006
    2a28:	00203a53 	eoreq	r3, r0, r3, asr sl
    2a2c:	f847 6d04 	str.w	r6, [r7, #-4]!
    2a30:	0036      	movs	r6, r6
    2a32:	47a0      	blx	r4
    2a34:	f7ff ff2b 	bl	288e <dotgaensefuesschen>
    2a38:	3e2a2004 	cdpcc	0, 2, cr2, cr10, cr4, {0}
    2a3c:	bd1f000a 	ldclt	0, cr0, [pc, #-40]	; 2a1c <Code_640+0x50>

00002a40 <Dictionary_651>:
    2a40:	00002b04 	andeq	r2, r0, r4, lsl #22
    2a44:	77050000 	strvc	r0, [r5, -r0]
    2a48:	7364726f 	cmnvc	r4, #-268435450	; 0xf0000006

00002a4c <Code_651>:
    2a4c:	b500      	push	{lr}
    2a4e:	f7ff ff1e 	bl	288e <dotgaensefuesschen>
    2a52:	f0000a01 			; <UNDEFINED> instruction: 0xf0000a01
    2a56:	feef f7ff 	mcr2	7, 7, pc, cr15, cr15, {7}	; <UNPREDICTABLE>
    2a5a:	ff19 4109 	vrhadd.u16	d4, d9, d9
    2a5e:	65726464 	ldrbvs	r6, [r2, #-1124]!	; 0x464
    2a62:	203a7373 	eorscs	r7, sl, r3, ror r3
    2a66:	f847 6d04 	str.w	r6, [r7, #-4]!
    2a6a:	f7ff ff83 	bl	2974 <Code_635>
    2a6e:	f7ff ff0e 	bl	288e <dotgaensefuesschen>
    2a72:	6e694c06 	cdpvs	12, 6, cr4, cr9, cr6, {0}
    2a76:	00203a6b 	eoreq	r3, r0, fp, ror #20
    2a7a:	f847 6d04 	str.w	r6, [r7, #-4]!
    2a7e:	6836      	ldr	r6, [r6, #0]
    2a80:	f7ff ff78 	bl	2974 <Code_635>
    2a84:	f7ff ff03 	bl	288e <dotgaensefuesschen>
    2a88:	616c4607 	cmnvs	ip, r7, lsl #12
    2a8c:	203a7367 	eorscs	r7, sl, r7, ror #6
    2a90:	f847 6d04 	str.w	r6, [r7, #-4]!
    2a94:	88b6      	ldrh	r6, [r6, #4]
    2a96:	f7ff ff6d 	bl	2974 <Code_635>
    2a9a:	f7ff fef8 	bl	288e <dotgaensefuesschen>
    2a9e:	646f4306 	strbtvs	r4, [pc], #-774	; 2aa6 <Code_651+0x5a>
    2aa2:	00203a65 	eoreq	r3, r0, r5, ror #20
    2aa6:	1db0      	adds	r0, r6, #6
    2aa8:	f000 fefe 	bl	38a8 <skipstring>
    2aac:	f847 6d04 	str.w	r6, [r7, #-4]!
    2ab0:	0006      	movs	r6, r0
    2ab2:	f7ff ff5f 	bl	2974 <Code_635>
    2ab6:	f7ff feea 	bl	288e <dotgaensefuesschen>
    2aba:	6d614e06 	stclvs	14, cr4, [r1, #-24]!	; 0xffffffe8
    2abe:	00203a65 	eoreq	r3, r0, r5, ror #20
    2ac2:	f847 6d04 	str.w	r6, [r7, #-4]!
    2ac6:	3606      	adds	r6, #6
    2ac8:	f7ff ff29 	bl	291e <Code_627>
    2acc:	f7ff fedf 	bl	288e <dotgaensefuesschen>
    2ad0:	f0000a01 			; <UNDEFINED> instruction: 0xf0000a01
    2ad4:	fec7 0030 	mcr2	0, 6, r0, cr7, cr0, {1}
    2ad8:	cf40      	ldmia	r7!, {r6}
    2ada:	d0bd      	beq.n	2a58 <Code_651+0xc>
    2adc:	cf40      	ldmia	r7!, {r6}
    2ade:	bd00      	pop	{pc}
    2ae0:	0000288e 	andeq	r2, r0, lr, lsl #17
    2ae4:	000028b8 			; <UNDEFINED> instruction: 0x000028b8
    2ae8:	000028de 	ldrdeq	r2, [r0], -lr
    2aec:	00002975 	andeq	r2, r0, r5, ror r9
    2af0:	000044c3 	andeq	r4, r0, r3, asr #9
    2af4:	000044d3 	ldrdeq	r4, [r0], -r3
    2af8:	2000028c 	andcs	r0, r0, ip, lsl #5
    2afc:	2003fffc 	strdcs	pc, [r3], -ip
    2b00:	20000288 	andcs	r0, r0, r8, lsl #5

00002b04 <Dictionary_671>:
    2b04:	00002c68 	andeq	r2, r0, r8, ror #24
    2b08:	310d0000 	mrscc	r0, (UNDEF: 13)
    2b0c:	74696232 	strbtvc	r6, [r9], #-562	; 0x232
    2b10:	6f636e65 	svcvs	0x00636e65
    2b14:	676e6964 	strbvs	r6, [lr, -r4, ror #18]!

00002b18 <Code_671>:
    2b18:	b50f      	push	{r0, r1, r2, r3, lr}
    2b1a:	2eff      	cmp	r6, #255	; 0xff
    2b1c:	d804      	bhi.n	2b28 <Code_671+0x10>
    2b1e:	f847 6d04 	str.w	r6, [r7, #-4]!
    2b22:	f05f 36ff 	movs.w	r6, #4294967295
    2b26:	bd0f      	pop	{r0, r1, r2, r3, pc}
    2b28:	f016 10ff 	ands.w	r0, r6, #16711935	; 0xff00ff
    2b2c:	42b0      	cmp	r0, r6
    2b2e:	d10e      	bne.n	2b4e <Code_671+0x36>
    2b30:	f64f 71ff 	movw	r1, #65535	; 0xffff
    2b34:	4008      	ands	r0, r1
    2b36:	0c31      	lsrs	r1, r6, #16
    2b38:	4281      	cmp	r1, r0
    2b3a:	d108      	bne.n	2b4e <Code_671+0x36>
    2b3c:	f016 06ff 	ands.w	r6, r6, #255	; 0xff
    2b40:	f456 5680 	orrs.w	r6, r6, #4096	; 0x1000
    2b44:	f847 6d04 	str.w	r6, [r7, #-4]!
    2b48:	f05f 36ff 	movs.w	r6, #4294967295
    2b4c:	bd0f      	pop	{r0, r1, r2, r3, pc}
    2b4e:	f016 20ff 	ands.w	r0, r6, #4278255360	; 0xff00ff00
    2b52:	42b0      	cmp	r0, r6
    2b54:	d10f      	bne.n	2b76 <Code_671+0x5e>
    2b56:	f64f 71ff 	movw	r1, #65535	; 0xffff
    2b5a:	4008      	ands	r0, r1
    2b5c:	0c31      	lsrs	r1, r6, #16
    2b5e:	4281      	cmp	r1, r0
    2b60:	d109      	bne.n	2b76 <Code_671+0x5e>
    2b62:	0a36      	lsrs	r6, r6, #8
    2b64:	f016 06ff 	ands.w	r6, r6, #255	; 0xff
    2b68:	f456 5600 	orrs.w	r6, r6, #8192	; 0x2000
    2b6c:	f847 6d04 	str.w	r6, [r7, #-4]!
    2b70:	f05f 36ff 	movs.w	r6, #4294967295
    2b74:	bd0f      	pop	{r0, r1, r2, r3, pc}
    2b76:	22ff      	movs	r2, #255	; 0xff
    2b78:	0031      	movs	r1, r6
    2b7a:	4011      	ands	r1, r2
    2b7c:	0a30      	lsrs	r0, r6, #8
    2b7e:	4010      	ands	r0, r2
    2b80:	4288      	cmp	r0, r1
    2b82:	d110      	bne.n	2ba6 <Code_671+0x8e>
    2b84:	0c30      	lsrs	r0, r6, #16
    2b86:	4010      	ands	r0, r2
    2b88:	4288      	cmp	r0, r1
    2b8a:	d10c      	bne.n	2ba6 <Code_671+0x8e>
    2b8c:	0e30      	lsrs	r0, r6, #24
    2b8e:	4010      	ands	r0, r2
    2b90:	4288      	cmp	r0, r1
    2b92:	d108      	bne.n	2ba6 <Code_671+0x8e>
    2b94:	f016 06ff 	ands.w	r6, r6, #255	; 0xff
    2b98:	f456 5640 	orrs.w	r6, r6, #12288	; 0x3000
    2b9c:	f847 6d04 	str.w	r6, [r7, #-4]!
    2ba0:	f05f 36ff 	movs.w	r6, #4294967295
    2ba4:	bd0f      	pop	{r0, r1, r2, r3, pc}
    2ba6:	0030      	movs	r0, r6
    2ba8:	2100      	movs	r1, #0
    2baa:	3101      	adds	r1, #1
    2bac:	1800      	adds	r0, r0, r0
    2bae:	f150 0000 	adcs.w	r0, r0, #0
    2bb2:	f07f 027f 	mvns.w	r2, #127	; 0x7f
    2bb6:	4002      	ands	r2, r0
    2bb8:	2a80      	cmp	r2, #128	; 0x80
    2bba:	d005      	beq.n	2bc8 <Code_671+0xb0>
    2bbc:	291f      	cmp	r1, #31
    2bbe:	d3f4      	bcc.n	2baa <Code_671+0x92>
    2bc0:	f847 6d04 	str.w	r6, [r7, #-4]!
    2bc4:	2600      	movs	r6, #0
    2bc6:	bd0f      	pop	{r0, r1, r2, r3, pc}
    2bc8:	2908      	cmp	r1, #8
    2bca:	d3f9      	bcc.n	2bc0 <Code_671+0xa8>
    2bcc:	0006      	movs	r6, r0
    2bce:	f036 0680 	bics.w	r6, r6, #128	; 0x80
    2bd2:	f011 0001 	ands.w	r0, r1, #1
    2bd6:	01c0      	lsls	r0, r0, #7
    2bd8:	4306      	orrs	r6, r0
    2bda:	f011 000e 	ands.w	r0, r1, #14
    2bde:	02c0      	lsls	r0, r0, #11
    2be0:	4306      	orrs	r6, r0
    2be2:	f011 0010 	ands.w	r0, r1, #16
    2be6:	0580      	lsls	r0, r0, #22
    2be8:	4306      	orrs	r6, r0
    2bea:	f847 6d04 	str.w	r6, [r7, #-4]!
    2bee:	f05f 36ff 	movs.w	r6, #4294967295
    2bf2:	bd0f      	pop	{r0, r1, r2, r3, pc}

00002bf4 <movwkomma>:
    2bf4:	f847 6d04 	str.w	r6, [r7, #-4]!
    2bf8:	f8df 6654 	ldr.w	r6, [pc, #1620]	; 3250 <setflags_ram+0x1e>
    2bfc:	f45f 4170 	movs.w	r1, #61440	; 0xf000
    2c00:	ea10 0201 	ands.w	r2, r0, r1
    2c04:	0112      	lsls	r2, r2, #4
    2c06:	4316      	orrs	r6, r2
    2c08:	f45f 6100 	movs.w	r1, #2048	; 0x800
    2c0c:	ea10 0201 	ands.w	r2, r0, r1
    2c10:	03d2      	lsls	r2, r2, #15
    2c12:	4316      	orrs	r6, r2
    2c14:	f45f 61e0 	movs.w	r1, #1792	; 0x700
    2c18:	ea10 0201 	ands.w	r2, r0, r1
    2c1c:	0112      	lsls	r2, r2, #4
    2c1e:	4316      	orrs	r6, r2
    2c20:	21ff      	movs	r1, #255	; 0xff
    2c22:	ea10 0201 	ands.w	r2, r0, r1
    2c26:	4316      	orrs	r6, r2
    2c28:	431e      	orrs	r6, r3
    2c2a:	e3b4      	b.n	3396 <Code_820>

00002c2c <movtkomma>:
    2c2c:	f847 6d04 	str.w	r6, [r7, #-4]!
    2c30:	f8df 6620 	ldr.w	r6, [pc, #1568]	; 3254 <setflags_ram+0x22>
    2c34:	f05f 4170 	movs.w	r1, #4026531840	; 0xf0000000
    2c38:	ea10 0201 	ands.w	r2, r0, r1
    2c3c:	0b12      	lsrs	r2, r2, #12
    2c3e:	4316      	orrs	r6, r2
    2c40:	f05f 6100 	movs.w	r1, #134217728	; 0x8000000
    2c44:	ea10 0201 	ands.w	r2, r0, r1
    2c48:	0852      	lsrs	r2, r2, #1
    2c4a:	4316      	orrs	r6, r2
    2c4c:	f05f 61e0 	movs.w	r1, #117440512	; 0x7000000
    2c50:	ea10 0201 	ands.w	r2, r0, r1
    2c54:	0b12      	lsrs	r2, r2, #12
    2c56:	4316      	orrs	r6, r2
    2c58:	f45f 017f 	movs.w	r1, #16711680	; 0xff0000
    2c5c:	ea10 0201 	ands.w	r2, r0, r1
    2c60:	0c12      	lsrs	r2, r2, #16
    2c62:	4316      	orrs	r6, r2
    2c64:	431e      	orrs	r6, r3
    2c66:	e396      	b.n	3396 <Code_820>

00002c68 <Dictionary_680>:
    2c68:	00002cce 	andeq	r2, r0, lr, asr #25
    2c6c:	72100000 	andsvc	r0, r0, #0
    2c70:	73696765 	cmnvc	r9, #26476544	; 0x1940000
    2c74:	6c726574 	cfldr64vs	mvdx6, [r2], #-464	; 0xfffffe30
    2c78:	72657469 	rsbvc	r7, r5, #1761607680	; 0x69000000
    2c7c:	002c6c61 	eoreq	r6, ip, r1, ror #24

00002c80 <Code_680>:
    2c80:	b50f      	push	{r0, r1, r2, r3, lr}
    2c82:	0033      	movs	r3, r6
    2c84:	cf40      	ldmia	r7!, {r6}
    2c86:	021b      	lsls	r3, r3, #8
    2c88:	2eff      	cmp	r6, #255	; 0xff
    2c8a:	d805      	bhi.n	2c98 <Code_680+0x18>
    2c8c:	f456 5600 	orrs.w	r6, r6, #8192	; 0x2000
    2c90:	431e      	orrs	r6, r3
    2c92:	f000 fb51 	bl	3338 <Code_811>
    2c96:	bd0f      	pop	{r0, r1, r2, r3, pc}
    2c98:	f7ff ff3e 	bl	2b18 <Code_671>
    2c9c:	2e00      	cmp	r6, #0
    2c9e:	cf40      	ldmia	r7!, {r6}
    2ca0:	d006      	beq.n	2cb0 <Code_680+0x30>
    2ca2:	f8df 05b4 	ldr.w	r0, [pc, #1460]	; 3258 <setflags_ram+0x26>
    2ca6:	4306      	orrs	r6, r0
    2ca8:	431e      	orrs	r6, r3
    2caa:	f000 fb74 	bl	3396 <Code_820>
    2cae:	bd0f      	pop	{r0, r1, r2, r3, pc}
    2cb0:	43f6      	mvns	r6, r6
    2cb2:	f7ff ff31 	bl	2b18 <Code_671>
    2cb6:	2e00      	cmp	r6, #0
    2cb8:	cf40      	ldmia	r7!, {r6}
    2cba:	d006      	beq.n	2cca <Code_680+0x4a>
    2cbc:	f8df 059c 	ldr.w	r0, [pc, #1436]	; 325c <setflags_ram+0x2a>
    2cc0:	4306      	orrs	r6, r0
    2cc2:	431e      	orrs	r6, r3
    2cc4:	f000 fb67 	bl	3396 <Code_820>
    2cc8:	bd0f      	pop	{r0, r1, r2, r3, pc}
    2cca:	43f6      	mvns	r6, r6
    2ccc:	e00b      	b.n	2ce6 <movwmovt_register_r3>

00002cce <Dictionary_684>:
    2cce:	00002d2e 	andeq	r2, r0, lr, lsr #26
    2cd2:	6d090000 	stcvs	0, cr0, [r9]
    2cd6:	6d77766f 	ldclvs	6, cr7, [r7, #-444]!	; 0xfffffe44
    2cda:	2c74766f 	ldclcs	6, cr7, [r4], #-444	; 0xfffffe44

00002cde <Code_684>:
    2cde:	b50f      	push	{r0, r1, r2, r3, lr}
    2ce0:	0033      	movs	r3, r6
    2ce2:	cf40      	ldmia	r7!, {r6}
    2ce4:	021b      	lsls	r3, r3, #8

00002ce6 <movwmovt_register_r3>:
    2ce6:	0030      	movs	r0, r6
    2ce8:	cf40      	ldmia	r7!, {r6}
    2cea:	f7ff ff83 	bl	2bf4 <movwkomma>
    2cee:	f64f 71ff 	movw	r1, #65535	; 0xffff
    2cf2:	ea10 4001 	ands.w	r0, r0, r1, lsl #16
    2cf6:	d001      	beq.n	2cfc <movwmovt_register_r3+0x16>
    2cf8:	f7ff ff98 	bl	2c2c <movtkomma>
    2cfc:	bd0f      	pop	{r0, r1, r2, r3, pc}

00002cfe <callkommalang>:
    2cfe:	b50f      	push	{r0, r1, r2, r3, lr}
    2d00:	3601      	adds	r6, #1
    2d02:	0030      	movs	r0, r6
    2d04:	cf40      	ldmia	r7!, {r6}
    2d06:	2300      	movs	r3, #0
    2d08:	f7ff ff74 	bl	2bf4 <movwkomma>
    2d0c:	f7ff ff8e 	bl	2c2c <movtkomma>
    2d10:	e006      	b.n	2d20 <callkommakurz_intern>

00002d12 <callkommakurz>:
    2d12:	b50f      	push	{r0, r1, r2, r3, lr}
    2d14:	3601      	adds	r6, #1
    2d16:	f847 6d04 	str.w	r6, [r7, #-4]!
    2d1a:	2600      	movs	r6, #0
    2d1c:	f7ff ffb0 	bl	2c80 <Code_680>

00002d20 <callkommakurz_intern>:
    2d20:	f847 6d04 	str.w	r6, [r7, #-4]!
    2d24:	f244 7680 	movw	r6, #18304	; 0x4780
    2d28:	f000 fb06 	bl	3338 <Code_811>
    2d2c:	bd0f      	pop	{r0, r1, r2, r3, pc}

00002d2e <Dictionary_692>:
    2d2e:	00002d94 	muleq	r0, r4, sp
    2d32:	63050000 	movwvs	r0, #20480	; 0x5000
    2d36:	2c6c6c61 	stclcs	12, cr6, [ip], #-388	; 0xfffffe7c

00002d3a <Code_692>:
    2d3a:	b50f      	push	{r0, r1, r2, r3, lr}
    2d3c:	0033      	movs	r3, r6
    2d3e:	f000 fe56 	bl	39ee <Code_927>
    2d42:	0030      	movs	r0, r6
    2d44:	cf40      	ldmia	r7!, {r6}
    2d46:	1a1b      	subs	r3, r3, r0
    2d48:	3b04      	subs	r3, #4
    2d4a:	f8df 1514 	ldr.w	r1, [pc, #1300]	; 3260 <setflags_ram+0x2e>
    2d4e:	4019      	ands	r1, r3
    2d50:	2900      	cmp	r1, #0
    2d52:	d006      	beq.n	2d62 <Code_692+0x28>
    2d54:	f8df 250c 	ldr.w	r2, [pc, #1292]	; 3264 <setflags_ram+0x32>
    2d58:	4291      	cmp	r1, r2
    2d5a:	d002      	beq.n	2d62 <Code_692+0x28>
    2d5c:	e8bd 400f 	ldmia.w	sp!, {r0, r1, r2, r3, lr}
    2d60:	e7d7      	b.n	2d12 <callkommakurz>
    2d62:	cf40      	ldmia	r7!, {r6}
    2d64:	085b      	lsrs	r3, r3, #1
    2d66:	f8df 0500 	ldr.w	r0, [pc, #1280]	; 3268 <setflags_ram+0x36>
    2d6a:	f240 71ff 	movw	r1, #2047	; 0x7ff
    2d6e:	4019      	ands	r1, r3
    2d70:	4308      	orrs	r0, r1
    2d72:	0adb      	lsrs	r3, r3, #11
    2d74:	f240 31ff 	movw	r1, #1023	; 0x3ff
    2d78:	4019      	ands	r1, r3
    2d7a:	0409      	lsls	r1, r1, #16
    2d7c:	4308      	orrs	r0, r1
    2d7e:	0a9b      	lsrs	r3, r3, #10
    2d80:	f013 0101 	ands.w	r1, r3, #1
    2d84:	0689      	lsls	r1, r1, #26
    2d86:	4308      	orrs	r0, r1
    2d88:	f847 6d04 	str.w	r6, [r7, #-4]!
    2d8c:	0006      	movs	r6, r0
    2d8e:	f000 fb02 	bl	3396 <Code_820>
    2d92:	bd0f      	pop	{r0, r1, r2, r3, pc}

00002d94 <Dictionary_697>:
    2d94:	00002dca 	andeq	r2, r0, sl, asr #27
    2d98:	6c080000 	stcvs	0, cr0, [r8], {0}
    2d9c:	72657469 	rsbvc	r7, r5, #1761607680	; 0x69000000
    2da0:	002c6c61 	eoreq	r6, ip, r1, ror #24

00002da4 <Code_697>:
    2da4:	b508      	push	{r3, lr}
    2da6:	f847 6d04 	str.w	r6, [r7, #-4]!
    2daa:	f64f 0647 	movw	r6, #63559	; 0xf847
    2dae:	f000 fac3 	bl	3338 <Code_811>
    2db2:	f847 6d04 	str.w	r6, [r7, #-4]!
    2db6:	f646 5604 	movw	r6, #27908	; 0x6d04
    2dba:	f000 fabd 	bl	3338 <Code_811>
    2dbe:	f847 6d04 	str.w	r6, [r7, #-4]!
    2dc2:	2606      	movs	r6, #6
    2dc4:	f7ff ff5c 	bl	2c80 <Code_680>
    2dc8:	bd08      	pop	{r3, pc}

00002dca <Dictionary_704>:
    2dca:	00002dee 	andeq	r2, r0, lr, ror #27
    2dce:	63060000 	movwvs	r0, #24576	; 0x6000
    2dd2:	74616572 	strbtvc	r6, [r1], #-1394	; 0x572
    2dd6:	b5000065 	strlt	r0, [r0, #-101]	; 0x65

00002dd8 <Code_704>:
    2dd8:	b500      	push	{lr}
    2dda:	f000 f833 	bl	2e44 <Code_709>
    2dde:	f642 600b 	movw	r0, #11787	; 0x2e0b
    2de2:	4780      	blx	r0
    2de4:	f847 6d04 	str.w	r6, [r7, #-4]!
    2de8:	f1be 0601 	subs.w	r6, lr, #1
    2dec:	bd00      	pop	{pc}

00002dee <Dictionary_706>:
    2dee:	00002e36 	andeq	r2, r0, r6, lsr lr
    2df2:	64050020 	strvs	r0, [r5], #-32
    2df6:	3e73656f 	cdpcc	5, 7, cr6, cr3, cr15, {3}

00002dfa <Code_706>:
    2dfa:	f642 600b 	movw	r0, #11787	; 0x2e0b
    2dfe:	4780      	blx	r0
    2e00:	f847 6d04 	str.w	r6, [r7, #-4]!
    2e04:	f1be 0601 	subs.w	r6, lr, #1
    2e08:	4770      	bx	lr

00002e0a <dodoes>:
    2e0a:	f847 6d04 	str.w	r6, [r7, #-4]!
    2e0e:	f1be 0601 	subs.w	r6, lr, #1
    2e12:	f8df 2458 	ldr.w	r2, [pc, #1112]	; 326c <setflags_ram+0x3a>
    2e16:	6813      	ldr	r3, [r2, #0]
    2e18:	f8df 1454 	ldr.w	r1, [pc, #1108]	; 3270 <setflags_ram+0x3e>
    2e1c:	6809      	ldr	r1, [r1, #0]
    2e1e:	2002      	movs	r0, #2
    2e20:	4008      	ands	r0, r1
    2e22:	d000      	beq.n	2e26 <dodoes+0x1c>
    2e24:	3102      	adds	r1, #2
    2e26:	3102      	adds	r1, #2
    2e28:	6011      	str	r1, [r2, #0]
    2e2a:	f7ff ff68 	bl	2cfe <callkommalang>
    2e2e:	6013      	str	r3, [r2, #0]
    2e30:	f000 f9c4 	bl	31bc <Code_789>
    2e34:	bd00      	pop	{pc}

00002e36 <Dictionary_709>:
    2e36:	00002e78 	andeq	r2, r0, r8, ror lr
    2e3a:	3c070000 	stccc	0, cr0, [r7], {0}
    2e3e:	6c697562 	cfstr64vs	mvdx7, [r9], #-392	; 0xfffffe78
    2e42:	b5007364 	strlt	r7, [r0, #-868]	; 0x364

00002e44 <Code_709>:
    2e44:	b500      	push	{lr}
    2e46:	f000 fb83 	bl	3550 <Code_842>
    2e4a:	f000 fdd0 	bl	39ee <Code_927>
    2e4e:	2002      	movs	r0, #2
    2e50:	4006      	ands	r6, r0
    2e52:	cf40      	ldmia	r7!, {r6}
    2e54:	d004      	beq.n	2e60 <Code_709+0x1c>
    2e56:	f847 6d04 	str.w	r6, [r7, #-4]!
    2e5a:	2636      	movs	r6, #54	; 0x36
    2e5c:	f000 fa6c 	bl	3338 <Code_811>
    2e60:	f847 6d04 	str.w	r6, [r7, #-4]!
    2e64:	f24b 5600 	movw	r6, #46336	; 0xb500
    2e68:	f000 fa66 	bl	3338 <Code_811>
    2e6c:	f847 6d04 	str.w	r6, [r7, #-4]!
    2e70:	260a      	movs	r6, #10
    2e72:	f000 fad3 	bl	341c <Code_831>
    2e76:	bd00      	pop	{pc}

00002e78 <Dictionary_717>:
    2e78:	00002e84 	andeq	r2, r0, r4, lsl #29
    2e7c:	5b030050 	blpl	c2fc4 <BIT19+0x42fc4>
    2e80:	e0035d27 	and	r5, r3, r7, lsr #26

00002e82 <Code_717>:
    2e82:	e003      	b.n	2e8c <Code_718>

00002e84 <Dictionary_718>:
    2e84:	00002e9c 	muleq	r0, ip, lr
    2e88:	27010000 	strcs	r0, [r1, -r0]

00002e8c <Code_718>:
    2e8c:	b500      	push	{lr}
    2e8e:	f001 f947 	bl	4120 <Code_1095>
    2e92:	f000 fd47 	bl	3924 <find_not_found>
    2e96:	0030      	movs	r0, r6
    2e98:	cf40      	ldmia	r7!, {r6}
    2e9a:	bd00      	pop	{pc}

00002e9c <Dictionary_720>:
    2e9c:	00002ed2 	ldrdeq	r2, [r0], -r2	; <UNPREDICTABLE>
    2ea0:	70080030 	andvc	r0, r8, r0, lsr r0
    2ea4:	7074736f 	rsbsvc	r7, r4, pc, ror #6
    2ea8:	00656e6f 	rsbeq	r6, r5, pc, ror #28

00002eac <Code_720>:
    2eac:	b500      	push	{lr}
    2eae:	f7ff ffed 	bl	2e8c <Code_718>
    2eb2:	f847 6d04 	str.w	r6, [r7, #-4]!
    2eb6:	0006      	movs	r6, r0
    2eb8:	6839      	ldr	r1, [r7, #0]
    2eba:	603e      	str	r6, [r7, #0]
    2ebc:	460e      	mov	r6, r1
    2ebe:	f7ff ff71 	bl	2da4 <Code_697>
    2ec2:	f7ff ff6f 	bl	2da4 <Code_697>
    2ec6:	f847 6d04 	str.w	r6, [r7, #-4]!
    2eca:	4eea      	ldr	r6, [pc, #936]	; (3274 <setflags_ram+0x42>)
    2ecc:	f7ff ff35 	bl	2d3a <Code_692>
    2ed0:	bd00      	pop	{pc}

00002ed2 <Dictionary_725>:
    2ed2:	00002f28 	andeq	r2, r0, r8, lsr #30
    2ed6:	69070000 	stmdbvs	r7, {}	; <UNPREDICTABLE>
    2eda:	6e696c6e 	cdpvs	12, 6, cr6, cr9, cr14, {3}
    2ede:	b5002c65 	strlt	r2, [r0, #-3173]	; 0xc65

00002ee0 <Code_725>:
    2ee0:	b500      	push	{lr}
    2ee2:	f24b 5100 	movw	r1, #46336	; 0xb500
    2ee6:	f64b 5200 	movw	r2, #48384	; 0xbd00
    2eea:	f244 7370 	movw	r3, #18288	; 0x4770
    2eee:	8830      	ldrh	r0, [r6, #0]
    2ef0:	4288      	cmp	r0, r1
    2ef2:	d008      	beq.n	2f06 <Code_725+0x26>
    2ef4:	4290      	cmp	r0, r2
    2ef6:	d008      	beq.n	2f0a <Code_725+0x2a>
    2ef8:	4298      	cmp	r0, r3
    2efa:	d006      	beq.n	2f0a <Code_725+0x2a>
    2efc:	f847 6d04 	str.w	r6, [r7, #-4]!
    2f00:	0006      	movs	r6, r0
    2f02:	f000 fa19 	bl	3338 <Code_811>
    2f06:	3602      	adds	r6, #2
    2f08:	e7f1      	b.n	2eee <Code_725+0xe>
    2f0a:	cf40      	ldmia	r7!, {r6}
    2f0c:	bd00      	pop	{pc}

00002f0e <suchedefinitionsende>:
    2f0e:	b40e      	push	{r1, r2, r3}
    2f10:	f64b 5200 	movw	r2, #48384	; 0xbd00
    2f14:	f244 7370 	movw	r3, #18288	; 0x4770
    2f18:	8801      	ldrh	r1, [r0, #0]
    2f1a:	3002      	adds	r0, #2
    2f1c:	4291      	cmp	r1, r2
    2f1e:	d001      	beq.n	2f24 <suchedefinitionsende+0x16>
    2f20:	4299      	cmp	r1, r3
    2f22:	d1f9      	bne.n	2f18 <suchedefinitionsende+0xa>
    2f24:	bc0e      	pop	{r1, r2, r3}
    2f26:	4770      	bx	lr

00002f28 <Dictionary_729>:
    2f28:	00002f3e 	andeq	r2, r0, lr, lsr pc
    2f2c:	72040000 	andvc	r0, r4, #0
    2f30:	002c7465 	eoreq	r7, ip, r5, ror #8

00002f34 <Code_729>:
    2f34:	f847 6d04 	str.w	r6, [r7, #-4]!
    2f38:	f64b 5600 	movw	r6, #48384	; 0xbd00
    2f3c:	e1fc      	b.n	3338 <Code_811>

00002f3e <Dictionary_732>:
    2f3e:	00002f4c 	andeq	r2, r0, ip, asr #30
    2f42:	65040030 	strvs	r0, [r4, #-48]	; 0x30
    2f46:	00746978 	rsbseq	r6, r4, r8, ror r9

00002f4a <Code_732>:
    2f4a:	e7f3      	b.n	2f34 <Code_729>

00002f4c <Dictionary_733>:
    2f4c:	00002f64 	andeq	r2, r0, r4, ror #30
    2f50:	72070030 	andvc	r0, r7, #48	; 0x30
    2f54:	72756365 	rsbsvc	r6, r5, #-1811939327	; 0x94000001
    2f58:	f8476573 			; <UNDEFINED> instruction: 0xf8476573

00002f5a <Code_733>:
    2f5a:	f847 6d04 	str.w	r6, [r7, #-4]!
    2f5e:	4ec4      	ldr	r6, [pc, #784]	; (3270 <setflags_ram+0x3e>)
    2f60:	6836      	ldr	r6, [r6, #0]
    2f62:	e6ea      	b.n	2d3a <Code_692>

00002f64 <Dictionary_735>:
    2f64:	00002f7c 	andeq	r2, r0, ip, ror pc
    2f68:	73050081 	movwvc	r0, #20609	; 0x5081
    2f6c:	65746174 	ldrbvs	r6, [r4, #-372]!	; 0x174

00002f70 <Code_735>:
    2f70:	f847 6d04 	str.w	r6, [r7, #-4]!
    2f74:	4ec0      	ldr	r6, [pc, #768]	; (3278 <setflags_ram+0x46>)
    2f76:	4770      	bx	lr
    2f78:	00000000 	andeq	r0, r0, r0

00002f7c <Dictionary_738>:
    2f7c:	00002f8e 	andeq	r2, r0, lr, lsl #31
    2f80:	5d010000 	stcpl	0, cr0, [r1]

00002f84 <Code_738>:
    2f84:	48bc      	ldr	r0, [pc, #752]	; (3278 <setflags_ram+0x46>)
    2f86:	2100      	movs	r1, #0
    2f88:	43c9      	mvns	r1, r1
    2f8a:	6001      	str	r1, [r0, #0]
    2f8c:	4770      	bx	lr

00002f8e <Dictionary_739>:
    2f8e:	00002f9e 	muleq	r0, lr, pc	; <UNPREDICTABLE>
    2f92:	5b010010 	blpl	42fda <BIT18+0x2fda>

00002f96 <Code_739>:
    2f96:	48b8      	ldr	r0, [pc, #736]	; (3278 <setflags_ram+0x46>)
    2f98:	2100      	movs	r1, #0
    2f9a:	6001      	str	r1, [r0, #0]
    2f9c:	4770      	bx	lr

00002f9e <Dictionary_740>:
    2f9e:	00002fbe 			; <UNDEFINED> instruction: 0x00002fbe
    2fa2:	3a010000 	bcc	42faa <BIT18+0x2faa>

00002fa6 <Code_740>:
    2fa6:	b500      	push	{lr}
    2fa8:	48b4      	ldr	r0, [pc, #720]	; (327c <setflags_ram+0x4a>)
    2faa:	6007      	str	r7, [r0, #0]
    2fac:	f000 fad0 	bl	3550 <Code_842>
    2fb0:	48b1      	ldr	r0, [pc, #708]	; (3278 <setflags_ram+0x46>)
    2fb2:	2101      	movs	r1, #1
    2fb4:	6001      	str	r1, [r0, #0]
    2fb6:	48b2      	ldr	r0, [pc, #712]	; (3280 <setflags_ram+0x4e>)
    2fb8:	2100      	movs	r1, #0
    2fba:	6001      	str	r1, [r0, #0]
    2fbc:	bd00      	pop	{pc}

00002fbe <Dictionary_741>:
    2fbe:	00003030 	andeq	r3, r0, r0, lsr r0
    2fc2:	3b010830 	blcc	4508a <BIT18+0x508a>

00002fc6 <Code_741>:
    2fc6:	b500      	push	{lr}
    2fc8:	48ac      	ldr	r0, [pc, #688]	; (327c <setflags_ram+0x4a>)
    2fca:	6801      	ldr	r1, [r0, #0]
    2fcc:	42b9      	cmp	r1, r7
    2fce:	d00e      	beq.n	2fee <Code_741+0x28>
    2fd0:	f7ff fc5d 	bl	288e <dotgaensefuesschen>
    2fd4:	74532015 	ldrbvc	r2, [r3], #-21
    2fd8:	206b6361 	rsbcs	r6, fp, r1, ror #6
    2fdc:	20746f6e 	rsbscs	r6, r4, lr, ror #30
    2fe0:	616c6162 	cmnvs	ip, r2, ror #2
    2fe4:	6465636e 	strbtvs	r6, [r5], #-878	; 0x36e
    2fe8:	f0010a2e 			; <UNDEFINED> instruction: 0xf0010a2e
    2fec:	bc0a      	pop	{r1, r3}
    2fee:	48a2      	ldr	r0, [pc, #648]	; (3278 <setflags_ram+0x46>)
    2ff0:	6800      	ldr	r0, [r0, #0]
    2ff2:	1c41      	adds	r1, r0, #1
    2ff4:	d010      	beq.n	3018 <Code_741+0x52>
    2ff6:	280b      	cmp	r0, #11
    2ff8:	d805      	bhi.n	3006 <Code_741+0x40>
    2ffa:	f847 6d04 	str.w	r6, [r7, #-4]!
    2ffe:	f640 0620 	movw	r6, #2080	; 0x820
    3002:	f000 f90a 	bl	321a <Code_795>
    3006:	f847 6d04 	str.w	r6, [r7, #-4]!
    300a:	f244 7670 	movw	r6, #18288	; 0x4770
    300e:	f000 f993 	bl	3338 <Code_811>
    3012:	f001 fafc 	bl	460e <inline_cache_schreiben>
    3016:	e005      	b.n	3024 <Code_741+0x5e>
    3018:	f847 6d04 	str.w	r6, [r7, #-4]!
    301c:	f64b 5600 	movw	r6, #48384	; 0xbd00
    3020:	f000 f98a 	bl	3338 <Code_811>
    3024:	f000 f8ca 	bl	31bc <Code_789>
    3028:	4893      	ldr	r0, [pc, #588]	; (3278 <setflags_ram+0x46>)
    302a:	2100      	movs	r1, #0
    302c:	6001      	str	r1, [r0, #0]
    302e:	bd00      	pop	{pc}

00003030 <Dictionary_749>:
    3030:	00003044 	andeq	r3, r0, r4, asr #32
    3034:	65070000 	strvs	r0, [r7]
    3038:	75636578 	strbvc	r6, [r3, #-1400]!	; 0x578
    303c:	00306574 	eorseq	r6, r0, r4, ror r5

0000303e <Code_749>:
    303e:	0030      	movs	r0, r6
    3040:	cf40      	ldmia	r7!, {r6}
    3042:	4687      	mov	pc, r0

00003044 <Dictionary_751>:
    3044:	0000305c 	andeq	r3, r0, ip, asr r0
    3048:	69090010 	stmdbvs	r9, {r4}
    304c:	64656d6d 	strbtvs	r6, [r5], #-3437	; 0xd6d
    3050:	65746169 	ldrbvs	r6, [r4, #-361]!	; 0x169

00003054 <Code_751>:
    3054:	f847 6d04 	str.w	r6, [r7, #-4]!
    3058:	2610      	movs	r6, #16
    305a:	e0de      	b.n	321a <Code_795>

0000305c <Dictionary_754>:
    305c:	00003072 	andeq	r3, r0, r2, ror r0
    3060:	69060050 	stmdbvs	r6, {r4, r6}
    3064:	6e696c6e 	cdpvs	12, 6, cr6, cr9, cr14, {3}
    3068:	f8470065 			; <UNDEFINED> instruction: 0xf8470065

0000306a <Code_754>:
    306a:	f847 6d04 	str.w	r6, [r7, #-4]!
    306e:	2620      	movs	r6, #32
    3070:	e0d3      	b.n	321a <Code_795>

00003072 <Dictionary_757>:
    3072:	0000308c 	andeq	r3, r0, ip, lsl #1
    3076:	630b0010 	movwvs	r0, #45072	; 0xb010
    307a:	69706d6f 	ldmdbvs	r0!, {r0, r1, r2, r3, r5, r6, r8, sl, fp, sp, lr}^
    307e:	6e6f656c 	cdpvs	5, 6, cr6, cr15, cr12, {3}
    3082:	f847796c 			; <UNDEFINED> instruction: 0xf847796c

00003084 <Code_757>:
    3084:	f847 6d04 	str.w	r6, [r7, #-4]!
    3088:	2630      	movs	r6, #48	; 0x30
    308a:	e0c6      	b.n	321a <Code_795>

0000308c <Dictionary_760>:
    308c:	000030a6 	andeq	r3, r0, r6, lsr #1
    3090:	300a0050 	andcc	r0, sl, r0, asr r0
    3094:	6c6f662d 	stclvs	6, cr6, [pc], #-180	; 2fe8 <Code_741+0x22>
    3098:	6c626164 	stfvse	f6, [r2], #-400	; 0xfffffe70
    309c:	f8470065 			; <UNDEFINED> instruction: 0xf8470065

0000309e <Code_760>:
    309e:	f847 6d04 	str.w	r6, [r7, #-4]!
    30a2:	2640      	movs	r6, #64	; 0x40
    30a4:	e0b9      	b.n	321a <Code_795>

000030a6 <Dictionary_763>:
    30a6:	000030c0 	andeq	r3, r0, r0, asr #1
    30aa:	310a0050 	qaddcc	r0, r0, sl
    30ae:	6c6f662d 	stclvs	6, cr6, [pc], #-180	; 3000 <Code_741+0x3a>
    30b2:	6c626164 	stfvse	f6, [r2], #-400	; 0xfffffe70
    30b6:	f8470065 			; <UNDEFINED> instruction: 0xf8470065

000030b8 <Code_763>:
    30b8:	f847 6d04 	str.w	r6, [r7, #-4]!
    30bc:	2641      	movs	r6, #65	; 0x41
    30be:	e0ac      	b.n	321a <Code_795>

000030c0 <Dictionary_766>:
    30c0:	000030da 	ldrdeq	r3, [r0], -sl
    30c4:	320a0050 	andcc	r0, sl, #80	; 0x50
    30c8:	6c6f662d 	stclvs	6, cr6, [pc], #-180	; 301c <Code_741+0x56>
    30cc:	6c626164 	stfvse	f6, [r2], #-400	; 0xfffffe70
    30d0:	f8470065 			; <UNDEFINED> instruction: 0xf8470065

000030d2 <Code_766>:
    30d2:	f847 6d04 	str.w	r6, [r7, #-4]!
    30d6:	2642      	movs	r6, #66	; 0x42
    30d8:	e09f      	b.n	321a <Code_795>

000030da <Dictionary_769>:
    30da:	000030f4 	strdeq	r3, [r0], -r4
    30de:	330a0050 	movwcc	r0, #41040	; 0xa050
    30e2:	6c6f662d 	stclvs	6, cr6, [pc], #-180	; 3034 <Dictionary_749+0x4>
    30e6:	6c626164 	stfvse	f6, [r2], #-400	; 0xfffffe70
    30ea:	f8470065 			; <UNDEFINED> instruction: 0xf8470065

000030ec <Code_769>:
    30ec:	f847 6d04 	str.w	r6, [r7, #-4]!
    30f0:	2643      	movs	r6, #67	; 0x43
    30f2:	e092      	b.n	321a <Code_795>

000030f4 <Dictionary_772>:
    30f4:	0000310e 	andeq	r3, r0, lr, lsl #2
    30f8:	340a0050 	strcc	r0, [sl], #-80	; 0x50
    30fc:	6c6f662d 	stclvs	6, cr6, [pc], #-180	; 3050 <Dictionary_751+0xc>
    3100:	6c626164 	stfvse	f6, [r2], #-400	; 0xfffffe70
    3104:	f8470065 			; <UNDEFINED> instruction: 0xf8470065

00003106 <Code_772>:
    3106:	f847 6d04 	str.w	r6, [r7, #-4]!
    310a:	2644      	movs	r6, #68	; 0x44
    310c:	e085      	b.n	321a <Code_795>

0000310e <Dictionary_775>:
    310e:	00003128 	andeq	r3, r0, r8, lsr #2
    3112:	350a0050 	strcc	r0, [sl, #-80]	; 0x50
    3116:	6c6f662d 	stclvs	6, cr6, [pc], #-180	; 3068 <Dictionary_754+0xc>
    311a:	6c626164 	stfvse	f6, [r2], #-400	; 0xfffffe70
    311e:	f8470065 			; <UNDEFINED> instruction: 0xf8470065

00003120 <Code_775>:
    3120:	f847 6d04 	str.w	r6, [r7, #-4]!
    3124:	2645      	movs	r6, #69	; 0x45
    3126:	e078      	b.n	321a <Code_795>

00003128 <Dictionary_778>:
    3128:	00003142 	andeq	r3, r0, r2, asr #2
    312c:	360a0050 			; <UNDEFINED> instruction: 0x360a0050
    3130:	6c6f662d 	stclvs	6, cr6, [pc], #-180	; 3084 <Code_757>
    3134:	6c626164 	stfvse	f6, [r2], #-400	; 0xfffffe70
    3138:	f8470065 			; <UNDEFINED> instruction: 0xf8470065

0000313a <Code_778>:
    313a:	f847 6d04 	str.w	r6, [r7, #-4]!
    313e:	2646      	movs	r6, #70	; 0x46
    3140:	e06b      	b.n	321a <Code_795>

00003142 <Dictionary_781>:
    3142:	0000315c 	andeq	r3, r0, ip, asr r1
    3146:	370a0050 	smlsdcc	sl, r0, r0, r0
    314a:	6c6f662d 	stclvs	6, cr6, [pc], #-180	; 309c <Dictionary_760+0x10>
    314e:	6c626164 	stfvse	f6, [r2], #-400	; 0xfffffe70
    3152:	f8470065 			; <UNDEFINED> instruction: 0xf8470065

00003154 <Code_781>:
    3154:	f847 6d04 	str.w	r6, [r7, #-4]!
    3158:	2647      	movs	r6, #71	; 0x47
    315a:	e05e      	b.n	321a <Code_795>

0000315c <Dictionary_784>:
    315c:	0000318c 	andeq	r3, r0, ip, lsl #3
    3160:	63080000 	movwvs	r0, #32768	; 0x8000
    3164:	74736e6f 	ldrbtvc	r6, [r3], #-3695	; 0xe6f
    3168:	00746e61 	rsbseq	r6, r4, r1, ror #28

0000316c <Code_784>:
    316c:	b500      	push	{lr}
    316e:	f000 f9ef 	bl	3550 <Code_842>
    3172:	f7ff fe17 	bl	2da4 <Code_697>
    3176:	f847 6d04 	str.w	r6, [r7, #-4]!
    317a:	f244 7670 	movw	r6, #18288	; 0x4770
    317e:	f000 f8db 	bl	3338 <Code_811>
    3182:	f7ff ff8c 	bl	309e <Code_760>
    3186:	f000 f819 	bl	31bc <Code_789>
    318a:	bd00      	pop	{pc}

0000318c <Dictionary_787>:
    318c:	000031ae 	andeq	r3, r0, lr, lsr #3
    3190:	32090000 	andcc	r0, r9, #0
    3194:	736e6f63 	cmnvc	lr, #396	; 0x18c
    3198:	746e6174 	strbtvc	r6, [lr], #-372	; 0x174

0000319c <Code_787>:
    319c:	b500      	push	{lr}
    319e:	f000 f9d7 	bl	3550 <Code_842>
    31a2:	6839      	ldr	r1, [r7, #0]
    31a4:	603e      	str	r6, [r7, #0]
    31a6:	460e      	mov	r6, r1
    31a8:	f7ff fdfc 	bl	2da4 <Code_697>
    31ac:	e7e1      	b.n	3172 <Code_784+0x6>

000031ae <Dictionary_789>:
    31ae:	0000320a 	andeq	r3, r0, sl, lsl #4
    31b2:	73060000 	movwvc	r0, #24576	; 0x6000
    31b6:	6764756d 	strbvs	r7, [r4, -sp, ror #10]!
    31ba:	b5000065 	strlt	r0, [r0, #-101]	; 0x65

000031bc <Code_789>:
    31bc:	b500      	push	{lr}
    31be:	482b      	ldr	r0, [pc, #172]	; (326c <setflags_ram+0x3a>)
    31c0:	6801      	ldr	r1, [r0, #0]
    31c2:	4a2a      	ldr	r2, [pc, #168]	; (326c <setflags_ram+0x3a>)
    31c4:	4291      	cmp	r1, r2
    31c6:	d21a      	bcs.n	31fe <smudge_ram>
    31c8:	3902      	subs	r1, #2
    31ca:	880a      	ldrh	r2, [r1, #0]
    31cc:	4b2d      	ldr	r3, [pc, #180]	; (3284 <setflags_ram+0x52>)
    31ce:	429a      	cmp	r2, r3
    31d0:	d104      	bne.n	31dc <Code_789+0x20>
    31d2:	f847 6d04 	str.w	r6, [r7, #-4]!
    31d6:	4e2c      	ldr	r6, [pc, #176]	; (3288 <setflags_ram+0x56>)
    31d8:	f000 f8ae 	bl	3338 <Code_811>
    31dc:	f000 f87f 	bl	32de <Code_802>
    31e0:	482a      	ldr	r0, [pc, #168]	; (328c <setflags_ram+0x5a>)
    31e2:	6800      	ldr	r0, [r0, #0]
    31e4:	f847 6d04 	str.w	r6, [r7, #-4]!
    31e8:	0006      	movs	r6, r0
    31ea:	4929      	ldr	r1, [pc, #164]	; (3290 <setflags_ram+0x5e>)
    31ec:	6809      	ldr	r1, [r1, #0]
    31ee:	3104      	adds	r1, #4
    31f0:	4a1e      	ldr	r2, [pc, #120]	; (326c <setflags_ram+0x3a>)
    31f2:	6813      	ldr	r3, [r2, #0]
    31f4:	6011      	str	r1, [r2, #0]
    31f6:	f000 f89f 	bl	3338 <Code_811>
    31fa:	6013      	str	r3, [r2, #0]
    31fc:	bd00      	pop	{pc}

000031fe <smudge_ram>:
    31fe:	f000 f86e 	bl	32de <Code_802>
    3202:	f847 6d04 	str.w	r6, [r7, #-4]!
    3206:	2600      	movs	r6, #0
    3208:	e008      	b.n	321c <setflags_intern>

0000320a <Dictionary_795>:
    320a:	00003294 	muleq	r0, r4, r2
    320e:	73080000 	movwvc	r0, #32768	; 0x8000
    3212:	6c667465 	cfstrdvs	mvd7, [r6], #-404	; 0xfffffe6c
    3216:	00736761 	rsbseq	r6, r3, r1, ror #14

0000321a <Code_795>:
    321a:	b500      	push	{lr}

0000321c <setflags_intern>:
    321c:	4813      	ldr	r0, [pc, #76]	; (326c <setflags_ram+0x3a>)
    321e:	6801      	ldr	r1, [r0, #0]
    3220:	4a12      	ldr	r2, [pc, #72]	; (326c <setflags_ram+0x3a>)
    3222:	4291      	cmp	r1, r2
    3224:	d205      	bcs.n	3232 <setflags_ram>
    3226:	4819      	ldr	r0, [pc, #100]	; (328c <setflags_ram+0x5a>)
    3228:	6801      	ldr	r1, [r0, #0]
    322a:	4331      	orrs	r1, r6
    322c:	6001      	str	r1, [r0, #0]
    322e:	cf40      	ldmia	r7!, {r6}
    3230:	bd00      	pop	{pc}

00003232 <setflags_ram>:
    3232:	0032      	movs	r2, r6
    3234:	cf40      	ldmia	r7!, {r6}
    3236:	4816      	ldr	r0, [pc, #88]	; (3290 <setflags_ram+0x5e>)
    3238:	6800      	ldr	r0, [r0, #0]
    323a:	3004      	adds	r0, #4
    323c:	8801      	ldrh	r1, [r0, #0]
    323e:	4b11      	ldr	r3, [pc, #68]	; (3284 <setflags_ram+0x52>)
    3240:	4299      	cmp	r1, r3
    3242:	d101      	bne.n	3248 <setflags_ram+0x16>
    3244:	0011      	movs	r1, r2
    3246:	e000      	b.n	324a <setflags_ram+0x18>
    3248:	4311      	orrs	r1, r2
    324a:	8001      	strh	r1, [r0, #0]
    324c:	bd00      	pop	{pc}
    324e:	00000000 	andeq	r0, r0, r0
    3252:	0000f240 	andeq	pc, r0, r0, asr #4
    3256:	0000f2c0 	andeq	pc, r0, r0, asr #5
    325a:	0000f05f 	andeq	pc, r0, pc, asr r0	; <UNPREDICTABLE>
    325e:	0001f07f 	andeq	pc, r1, pc, ror r0	; <UNPREDICTABLE>
    3262:	0000ffc0 	andeq	pc, r0, r0, asr #31
    3266:	f800ffc0 			; <UNDEFINED> instruction: 0xf800ffc0
    326a:	0000f000 	andeq	pc, r0, r0
    326e:	00142000 	andseq	r2, r4, r0
    3272:	45122000 	ldrmi	r2, [r2]
    3276:	ffd80000 			; <UNDEFINED> instruction: 0xffd80000
    327a:	00102003 	andseq	r2, r0, r3
    327e:	005c2000 	subseq	r2, ip, r0
    3282:	ffff2000 			; <UNDEFINED> instruction: 0xffff2000
    3286:	00000000 	andeq	r0, r0, r0
    328a:	00200000 	eoreq	r0, r0, r0
    328e:	00042000 	andeq	r2, r4, r0
    3292:	32b02000 	adcscc	r2, r0, #0

00003294 <Dictionary_798>:
    3294:	000032b0 			; <UNDEFINED> instruction: 0x000032b0
    3298:	61070041 	tstvs	r7, r1, asr #32
    329c:	6e67696c 	cdpvs	9, 6, cr6, cr7, cr12, {3}
    32a0:	20016465 	andcs	r6, r1, r5, ror #8

000032a2 <Code_798>:
    32a2:	2001      	movs	r0, #1
    32a4:	4030      	ands	r0, r6
    32a6:	1836      	adds	r6, r6, r0
    32a8:	2002      	movs	r0, #2
    32aa:	4030      	ands	r0, r6
    32ac:	1836      	adds	r6, r6, r0
    32ae:	4770      	bx	lr

000032b0 <Dictionary_799>:
    32b0:	000032d2 	ldrdeq	r3, [r0], -r2
    32b4:	68060000 	stmdavs	r6, {}	; <UNPREDICTABLE>
    32b8:	67696c61 	strbvs	r6, [r9, -r1, ror #24]!
    32bc:	4899006e 	ldmmi	r9, {r1, r2, r3, r5, r6}

000032be <Code_799>:
    32be:	4899      	ldr	r0, [pc, #612]	; (3524 <Zweitpointertausch+0x50>)
    32c0:	6801      	ldr	r1, [r0, #0]
    32c2:	2001      	movs	r0, #1
    32c4:	4001      	ands	r1, r0
    32c6:	d003      	beq.n	32d0 <Code_799+0x12>
    32c8:	f847 6d04 	str.w	r6, [r7, #-4]!
    32cc:	2600      	movs	r6, #0
    32ce:	e019      	b.n	3304 <Code_805>
    32d0:	4770      	bx	lr

000032d2 <Dictionary_802>:
    32d2:	000032fa 	strdeq	r3, [r0], -sl
    32d6:	61050000 	mrsvs	r0, (UNDEF: 5)
    32da:	6e67696c 	cdpvs	9, 6, cr6, cr7, cr12, {3}

000032de <Code_802>:
    32de:	b500      	push	{lr}
    32e0:	f7ff ffed 	bl	32be <Code_799>
    32e4:	488f      	ldr	r0, [pc, #572]	; (3524 <Zweitpointertausch+0x50>)
    32e6:	6801      	ldr	r1, [r0, #0]
    32e8:	2002      	movs	r0, #2
    32ea:	4001      	ands	r1, r0
    32ec:	d004      	beq.n	32f8 <Code_802+0x1a>
    32ee:	f847 6d04 	str.w	r6, [r7, #-4]!
    32f2:	2600      	movs	r6, #0
    32f4:	f000 f820 	bl	3338 <Code_811>
    32f8:	bd00      	pop	{pc}

000032fa <Dictionary_805>:
    32fa:	0000332e 	andeq	r3, r0, lr, lsr #6
    32fe:	63020000 	movwvs	r0, #8192	; 0x2000
    3302:	b500002c 	strlt	r0, [r0, #-44]	; 0x2c

00003304 <Code_805>:
    3304:	b500      	push	{lr}
    3306:	4887      	ldr	r0, [pc, #540]	; (3524 <Zweitpointertausch+0x50>)
    3308:	6801      	ldr	r1, [r0, #0]
    330a:	4a86      	ldr	r2, [pc, #536]	; (3524 <Zweitpointertausch+0x50>)
    330c:	4291      	cmp	r1, r2
    330e:	d205      	bcs.n	331c <ckomma_ram>
    3310:	f847 6d04 	str.w	r6, [r7, #-4]!
    3314:	000e      	movs	r6, r1
    3316:	f7fe fe0d 	bl	1f34 <Code_442>
    331a:	e002      	b.n	3322 <ckomma_fertig>

0000331c <ckomma_ram>:
    331c:	0032      	movs	r2, r6
    331e:	cf40      	ldmia	r7!, {r6}
    3320:	700a      	strb	r2, [r1, #0]

00003322 <ckomma_fertig>:
    3322:	f847 6d04 	str.w	r6, [r7, #-4]!
    3326:	2601      	movs	r6, #1
    3328:	f000 f878 	bl	341c <Code_831>
    332c:	bd00      	pop	{pc}

0000332e <Dictionary_811>:
    332e:	00003372 	andeq	r3, r0, r2, ror r3
    3332:	68020000 	stmdavs	r2, {}	; <UNPREDICTABLE>
    3336:	b50f002c 	strlt	r0, [pc, #-44]	; 3312 <Code_805+0xe>

00003338 <Code_811>:
    3338:	b50f      	push	{r0, r1, r2, r3, lr}
    333a:	b2b6      	uxth	r6, r6
    333c:	487a      	ldr	r0, [pc, #488]	; (3528 <Zweitpointertausch+0x54>)
    333e:	6801      	ldr	r1, [r0, #0]
    3340:	2900      	cmp	r1, #0
    3342:	d002      	beq.n	334a <Code_811+0x12>
    3344:	3101      	adds	r1, #1
    3346:	d000      	beq.n	334a <Code_811+0x12>
    3348:	6001      	str	r1, [r0, #0]
    334a:	4876      	ldr	r0, [pc, #472]	; (3524 <Zweitpointertausch+0x50>)
    334c:	6801      	ldr	r1, [r0, #0]
    334e:	4a75      	ldr	r2, [pc, #468]	; (3524 <Zweitpointertausch+0x50>)
    3350:	4291      	cmp	r1, r2
    3352:	d205      	bcs.n	3360 <hkomma_ram>
    3354:	f847 6d04 	str.w	r6, [r7, #-4]!
    3358:	000e      	movs	r6, r1
    335a:	f7fe fdc7 	bl	1eec <Code_439>
    335e:	e002      	b.n	3366 <hkomma_fertig>

00003360 <hkomma_ram>:
    3360:	0032      	movs	r2, r6
    3362:	cf40      	ldmia	r7!, {r6}
    3364:	800a      	strh	r2, [r1, #0]

00003366 <hkomma_fertig>:
    3366:	f847 6d04 	str.w	r6, [r7, #-4]!
    336a:	2602      	movs	r6, #2
    336c:	f000 f856 	bl	341c <Code_831>
    3370:	bd0f      	pop	{r0, r1, r2, r3, pc}

00003372 <Dictionary_817>:
    3372:	0000338c 	andeq	r3, r0, ip, lsl #7
    3376:	2c010000 	stccs	0, cr0, [r1], {0}

0000337a <Code_817>:
    337a:	b500      	push	{lr}
    337c:	f847 6d04 	str.w	r6, [r7, #-4]!
    3380:	f7ff ffda 	bl	3338 <Code_811>
    3384:	0c36      	lsrs	r6, r6, #16
    3386:	f7ff ffd7 	bl	3338 <Code_811>
    338a:	bd00      	pop	{pc}

0000338c <Dictionary_820>:
    338c:	000033a8 	andeq	r3, r0, r8, lsr #7
    3390:	3e030000 	cdpcc	0, 0, cr0, cr3, cr0, {0}
    3394:	b5002c3c 	strlt	r2, [r0, #-3132]	; 0xc3c

00003396 <Code_820>:
    3396:	b500      	push	{lr}
    3398:	f847 6d04 	str.w	r6, [r7, #-4]!
    339c:	0c36      	lsrs	r6, r6, #16
    339e:	f7ff ffcb 	bl	3338 <Code_811>
    33a2:	f7ff ffc9 	bl	3338 <Code_811>
    33a6:	bd00      	pop	{pc}

000033a8 <Dictionary_823>:
    33a8:	00003410 	andeq	r3, r0, r0, lsl r4
    33ac:	73070000 	movwvc	r0, #28672	; 0x7000
    33b0:	6e697274 	mcrvs	2, 3, r7, cr9, cr4, {3}
    33b4:	b5072c67 	strlt	r2, [r7, #-3175]	; 0xc67

000033b6 <Code_823>:
    33b6:	b507      	push	{r0, r1, r2, lr}
    33b8:	21ff      	movs	r1, #255	; 0xff
    33ba:	4031      	ands	r1, r6
    33bc:	cf40      	ldmia	r7!, {r6}
    33be:	0030      	movs	r0, r6
    33c0:	cf40      	ldmia	r7!, {r6}
    33c2:	2900      	cmp	r1, #0
    33c4:	d105      	bne.n	33d2 <Code_823+0x1c>
    33c6:	f847 6d04 	str.w	r6, [r7, #-4]!
    33ca:	2600      	movs	r6, #0
    33cc:	f7ff ffb4 	bl	3338 <Code_811>
    33d0:	bd07      	pop	{r0, r1, r2, pc}
    33d2:	f847 6d04 	str.w	r6, [r7, #-4]!
    33d6:	7806      	ldrb	r6, [r0, #0]
    33d8:	0236      	lsls	r6, r6, #8
    33da:	430e      	orrs	r6, r1
    33dc:	f7ff ffac 	bl	3338 <Code_811>
    33e0:	3001      	adds	r0, #1
    33e2:	3901      	subs	r1, #1
    33e4:	2902      	cmp	r1, #2
    33e6:	d30a      	bcc.n	33fe <Code_823+0x48>
    33e8:	f847 6d04 	str.w	r6, [r7, #-4]!
    33ec:	7846      	ldrb	r6, [r0, #1]
    33ee:	0236      	lsls	r6, r6, #8
    33f0:	7802      	ldrb	r2, [r0, #0]
    33f2:	4316      	orrs	r6, r2
    33f4:	f7ff ffa0 	bl	3338 <Code_811>
    33f8:	3002      	adds	r0, #2
    33fa:	3902      	subs	r1, #2
    33fc:	e7f2      	b.n	33e4 <Code_823+0x2e>
    33fe:	2900      	cmp	r1, #0
    3400:	d100      	bne.n	3404 <Code_823+0x4e>
    3402:	bd07      	pop	{r0, r1, r2, pc}
    3404:	f847 6d04 	str.w	r6, [r7, #-4]!
    3408:	7806      	ldrb	r6, [r0, #0]
    340a:	f7ff ff95 	bl	3338 <Code_811>
    340e:	bd07      	pop	{r0, r1, r2, pc}

00003410 <Dictionary_831>:
    3410:	0000346a 	andeq	r3, r0, sl, ror #8
    3414:	61050000 	mrsvs	r0, (UNDEF: 5)
    3418:	746f6c6c 	strbtvc	r6, [pc], #-3180	; 3420 <Code_831+0x4>

0000341c <Code_831>:
    341c:	4841      	ldr	r0, [pc, #260]	; (3524 <Zweitpointertausch+0x50>)
    341e:	6801      	ldr	r1, [r0, #0]
    3420:	4a40      	ldr	r2, [pc, #256]	; (3524 <Zweitpointertausch+0x50>)
    3422:	4291      	cmp	r1, r2
    3424:	d20f      	bcs.n	3446 <allot_ram>
    3426:	0032      	movs	r2, r6
    3428:	cf40      	ldmia	r7!, {r6}
    342a:	1889      	adds	r1, r1, r2
    342c:	4a3f      	ldr	r2, [pc, #252]	; (352c <Zweitpointertausch+0x58>)
    342e:	4291      	cmp	r1, r2
    3430:	d319      	bcc.n	3466 <allot_ok>
    3432:	f7ff fa2c 	bl	288e <dotgaensefuesschen>
    3436:	616c460b 	cmnvs	ip, fp, lsl #12
    343a:	66206873 			; <UNDEFINED> instruction: 0x66206873
    343e:	0a6c6c75 	beq	1b1e61a <BIT24+0xb1e61a>
    3442:	f001 b9de 	b.w	4802 <Code_1222>

00003446 <allot_ram>:
    3446:	0032      	movs	r2, r6
    3448:	cf40      	ldmia	r7!, {r6}
    344a:	1889      	adds	r1, r1, r2
    344c:	4a38      	ldr	r2, [pc, #224]	; (3530 <Zweitpointertausch+0x5c>)
    344e:	6812      	ldr	r2, [r2, #0]
    3450:	4291      	cmp	r1, r2
    3452:	d308      	bcc.n	3466 <allot_ok>
    3454:	f7ff fa1b 	bl	288e <dotgaensefuesschen>
    3458:	6d615209 	sfmvs	f5, 2, [r1, #-36]!	; 0xffffffdc
    345c:	6c756620 	ldclvs	6, cr6, [r5], #-128	; 0xffffff80
    3460:	f0010a6c 			; <UNDEFINED> instruction: 0xf0010a6c
    3464:	b9ce      	cbnz	r6, 349a <Dictionary_839+0x8>

00003466 <allot_ok>:
    3466:	6001      	str	r1, [r0, #0]
    3468:	4770      	bx	lr

0000346a <Dictionary_836>:
    346a:	00003492 	muleq	r0, r2, r4
    346e:	630d0000 	movwvs	r0, #53248	; 0xd000
    3472:	69706d6f 	ldmdbvs	r0!, {r0, r1, r2, r3, r5, r6, r8, sl, fp, sp, lr}^
    3476:	6f74656c 	svcvs	0x0074656c
    347a:	3f6d6172 	svccc	0x006d6172

0000347e <Code_836>:
    347e:	f847 6d04 	str.w	r6, [r7, #-4]!
    3482:	2600      	movs	r6, #0
    3484:	4827      	ldr	r0, [pc, #156]	; (3524 <Zweitpointertausch+0x50>)
    3486:	6800      	ldr	r0, [r0, #0]
    3488:	4926      	ldr	r1, [pc, #152]	; (3524 <Zweitpointertausch+0x50>)
    348a:	4288      	cmp	r0, r1
    348c:	d348      	bcc.n	3520 <Zweitpointertausch+0x4c>
    348e:	43f6      	mvns	r6, r6
    3490:	4770      	bx	lr

00003492 <Dictionary_839>:
    3492:	000034b2 			; <UNDEFINED> instruction: 0x000034b2
    3496:	630c0000 	movwvs	r0, #49152	; 0xc000
    349a:	69706d6f 	ldmdbvs	r0!, {r0, r1, r2, r3, r5, r6, r8, sl, fp, sp, lr}^
    349e:	6f74656c 	svcvs	0x0074656c
    34a2:	006d6172 	rsbeq	r6, sp, r2, ror r1

000034a6 <Code_839>:
    34a6:	481f      	ldr	r0, [pc, #124]	; (3524 <Zweitpointertausch+0x50>)
    34a8:	6800      	ldr	r0, [r0, #0]
    34aa:	491e      	ldr	r1, [pc, #120]	; (3524 <Zweitpointertausch+0x50>)
    34ac:	4288      	cmp	r0, r1
    34ae:	d311      	bcc.n	34d4 <Zweitpointertausch>
    34b0:	4770      	bx	lr

000034b2 <Dictionary_840>:
    34b2:	00003540 	andeq	r3, r0, r0, asr #10
    34b6:	630e0000 	movwvs	r0, #57344	; 0xe000
    34ba:	69706d6f 	ldmdbvs	r0!, {r0, r1, r2, r3, r5, r6, r8, sl, fp, sp, lr}^
    34be:	6f74656c 	svcvs	0x0074656c
    34c2:	73616c66 	cmnvc	r1, #26112	; 0x6600
    34c6:	48160068 	ldmdami	r6, {r3, r5, r6}

000034c8 <Code_840>:
    34c8:	4816      	ldr	r0, [pc, #88]	; (3524 <Zweitpointertausch+0x50>)
    34ca:	6800      	ldr	r0, [r0, #0]
    34cc:	4915      	ldr	r1, [pc, #84]	; (3524 <Zweitpointertausch+0x50>)
    34ce:	4288      	cmp	r0, r1
    34d0:	d200      	bcs.n	34d4 <Zweitpointertausch>
    34d2:	4770      	bx	lr

000034d4 <Zweitpointertausch>:
    34d4:	4817      	ldr	r0, [pc, #92]	; (3534 <Zweitpointertausch+0x60>)
    34d6:	4918      	ldr	r1, [pc, #96]	; (3538 <Zweitpointertausch+0x64>)
    34d8:	6802      	ldr	r2, [r0, #0]
    34da:	680b      	ldr	r3, [r1, #0]
    34dc:	600a      	str	r2, [r1, #0]
    34de:	6003      	str	r3, [r0, #0]
    34e0:	4810      	ldr	r0, [pc, #64]	; (3524 <Zweitpointertausch+0x50>)
    34e2:	4916      	ldr	r1, [pc, #88]	; (353c <Zweitpointertausch+0x68>)
    34e4:	6802      	ldr	r2, [r0, #0]
    34e6:	680b      	ldr	r3, [r1, #0]
    34e8:	600a      	str	r2, [r1, #0]
    34ea:	6003      	str	r3, [r0, #0]
    34ec:	4810      	ldr	r0, [pc, #64]	; (3530 <Zweitpointertausch+0x5c>)
    34ee:	6800      	ldr	r0, [r0, #0]
    34f0:	4283      	cmp	r3, r0
    34f2:	d315      	bcc.n	3520 <Zweitpointertausch+0x4c>
    34f4:	b500      	push	{lr}
    34f6:	f7ff f9ca 	bl	288e <dotgaensefuesschen>
    34fa:	61562023 	cmpvs	r6, r3, lsr #32
    34fe:	62616972 	rsbvs	r6, r1, #1867776	; 0x1c8000
    3502:	2073656c 	rsbscs	r6, r3, ip, ror #10
    3506:	6c6c6f63 	stclvs	15, cr6, [ip], #-396	; 0xfffffe74
    350a:	20656469 	rsbcs	r6, r5, r9, ror #8
    350e:	68746977 	ldmdavs	r4!, {r0, r1, r2, r4, r5, r6, r8, fp, sp, lr}^
    3512:	63696420 	cmnvs	r9, #536870912	; 0x20000000
    3516:	6e6f6974 	mcrvs	9, 3, r6, cr15, cr4, {3}
    351a:	0a797261 	beq	1e5fea6 <BIT24+0xe5fea6>
    351e:	bd00      	pop	{pc}
    3520:	4770      	bx	lr
    3522:	00000000 	andeq	r0, r0, r0
    3526:	ffd82000 			; <UNDEFINED> instruction: 0xffd82000
    352a:	00002003 	andeq	r2, r0, r3
    352e:	00240010 	eoreq	r0, r4, r0, lsl r0
    3532:	00042000 	andeq	r2, r4, r0
    3536:	001c2000 	andseq	r2, ip, r0
    353a:	00182000 	andseq	r2, r8, r0
    353e:	362e2000 	strtcc	r2, [lr], -r0

00003540 <Dictionary_842>:
    3540:	0000362e 	andeq	r3, r0, lr, lsr #12
    3544:	28080000 	stmdacs	r8, {}	; <UNPREDICTABLE>
    3548:	61657263 	cmnvs	r5, r3, ror #4
    354c:	00296574 	eoreq	r6, r9, r4, ror r5

00003550 <Code_842>:
    3550:	b500      	push	{lr}
    3552:	f000 fde5 	bl	4120 <Code_1095>
    3556:	2e00      	cmp	r6, #0
    3558:	d10e      	bne.n	3578 <Code_842+0x28>
    355a:	f7ff f998 	bl	288e <dotgaensefuesschen>
    355e:	72432015 	subvc	r2, r3, #21
    3562:	65746165 	ldrbvs	r6, [r4, #-357]!	; 0x165
    3566:	65656e20 	strbvs	r6, [r5, #-3616]!	; 0xe20
    356a:	6e207364 	cdpvs	3, 2, cr7, cr0, cr4, {3}
    356e:	20656d61 	rsbcs	r6, r5, r1, ror #26
    3572:	f0010a21 			; <UNDEFINED> instruction: 0xf0010a21
    3576:	b945      	cbnz	r5, 358a <Code_842+0x3a>
    3578:	6838      	ldr	r0, [r7, #0]
    357a:	f847 6d04 	str.w	r6, [r7, #-4]!
    357e:	3f04      	subs	r7, #4
    3580:	6038      	str	r0, [r7, #0]
    3582:	f000 f9a0 	bl	38c6 <Code_905>
    3586:	cf40      	ldmia	r7!, {r6}
    3588:	2e00      	cmp	r6, #0
    358a:	cf40      	ldmia	r7!, {r6}
    358c:	d011      	beq.n	35b2 <Code_842+0x62>
    358e:	6838      	ldr	r0, [r7, #0]
    3590:	f847 6d04 	str.w	r6, [r7, #-4]!
    3594:	3f04      	subs	r7, #4
    3596:	6038      	str	r0, [r7, #0]
    3598:	f7ff f979 	bl	288e <dotgaensefuesschen>
    359c:	64655209 	strbtvs	r5, [r5], #-521	; 0x209
    35a0:	6e696665 	cdpvs	6, 6, cr6, cr9, cr5, {3}
    35a4:	f7ff2065 			; <UNDEFINED> instruction: 0xf7ff2065
    35a8:	f9ce f7ff 	vst4.16	{d31[3],d33[3],d35[3],d37[3]}, [lr :64]
    35ac:	f970 2e02 	ldr??t	r2, [r0, #2]
    35b0:	f7ff000a 			; <UNDEFINED> instruction: 0xf7ff000a
    35b4:	fe84 f7ff 	mcr2	7, 4, pc, cr4, cr15, {7}	; <UNPREDICTABLE>
    35b8:	fe92 f000 	cdp2	0, 9, cr15, cr2, cr0, {0}
    35bc:	fa18 488e 			; <UNDEFINED> instruction: 0xfa18488e
    35c0:	6800      	ldr	r0, [r0, #0]
    35c2:	498d      	ldr	r1, [pc, #564]	; (37f8 <rambuffer_ram+0x44>)
    35c4:	4288      	cmp	r0, r1
    35c6:	d21c      	bcs.n	3602 <create_ram>
    35c8:	488c      	ldr	r0, [pc, #560]	; (37fc <rambuffer_ram+0x48>)
    35ca:	2100      	movs	r1, #0
    35cc:	6001      	str	r1, [r0, #0]
    35ce:	f847 6d04 	str.w	r6, [r7, #-4]!
    35d2:	2606      	movs	r6, #6
    35d4:	f7ff ff22 	bl	341c <Code_831>
    35d8:	f7fd fd52 	bl	1080 <Code_210>
    35dc:	f7ff feeb 	bl	33b6 <Code_823>
    35e0:	4887      	ldr	r0, [pc, #540]	; (3800 <rambuffer_ram+0x4c>)
    35e2:	6801      	ldr	r1, [r0, #0]
    35e4:	680a      	ldr	r2, [r1, #0]
    35e6:	4b87      	ldr	r3, [pc, #540]	; (3804 <rambuffer_ram+0x50>)
    35e8:	429a      	cmp	r2, r3
    35ea:	d107      	bne.n	35fc <Code_842+0xac>
    35ec:	4a82      	ldr	r2, [pc, #520]	; (37f8 <rambuffer_ram+0x44>)
    35ee:	6813      	ldr	r3, [r2, #0]
    35f0:	6011      	str	r1, [r2, #0]
    35f2:	f847 6d04 	str.w	r6, [r7, #-4]!
    35f6:	f7ff fec0 	bl	337a <Code_817>
    35fa:	6013      	str	r3, [r2, #0]
    35fc:	6006      	str	r6, [r0, #0]
    35fe:	cf40      	ldmia	r7!, {r6}
    3600:	e010      	b.n	3624 <create_ende>

00003602 <create_ram>:
    3602:	487f      	ldr	r0, [pc, #508]	; (3800 <rambuffer_ram+0x4c>)
    3604:	f847 6d04 	str.w	r6, [r7, #-4]!
    3608:	6806      	ldr	r6, [r0, #0]
    360a:	f7ff feb6 	bl	337a <Code_817>
    360e:	f847 6d04 	str.w	r6, [r7, #-4]!
    3612:	4e7d      	ldr	r6, [pc, #500]	; (3808 <rambuffer_ram+0x54>)
    3614:	f7ff fe90 	bl	3338 <Code_811>
    3618:	4879      	ldr	r0, [pc, #484]	; (3800 <rambuffer_ram+0x4c>)
    361a:	0031      	movs	r1, r6
    361c:	cf40      	ldmia	r7!, {r6}
    361e:	6001      	str	r1, [r0, #0]
    3620:	f7ff fec9 	bl	33b6 <Code_823>

00003624 <create_ende>:
    3624:	4874      	ldr	r0, [pc, #464]	; (37f8 <rambuffer_ram+0x44>)
    3626:	6801      	ldr	r1, [r0, #0]
    3628:	4878      	ldr	r0, [pc, #480]	; (380c <rambuffer_ram+0x58>)
    362a:	6001      	str	r1, [r0, #0]
    362c:	bd00      	pop	{pc}

0000362e <Dictionary_860>:
    362e:	00003646 	andeq	r3, r0, r6, asr #12
    3632:	76080000 	strvc	r0, [r8], -r0
    3636:	61697261 	cmnvs	r9, r1, ror #4
    363a:	00656c62 	rsbeq	r6, r5, r2, ror #24

0000363e <Code_860>:
    363e:	f847 6d04 	str.w	r6, [r7, #-4]!
    3642:	2601      	movs	r6, #1
    3644:	e013      	b.n	366e <Code_866>

00003646 <Dictionary_863>:
    3646:	0000365e 	andeq	r3, r0, lr, asr r6
    364a:	32090000 	andcc	r0, r9, #0
    364e:	69726176 	ldmdbvs	r2!, {r1, r2, r4, r5, r6, r8, sp, lr}^
    3652:	656c6261 	strbvs	r6, [ip, #-609]!	; 0x261

00003656 <Code_863>:
    3656:	f847 6d04 	str.w	r6, [r7, #-4]!
    365a:	2602      	movs	r6, #2
    365c:	e007      	b.n	366e <Code_866>

0000365e <Dictionary_866>:
    365e:	00003738 	andeq	r3, r0, r8, lsr r7
    3662:	6e090000 	cdpvs	0, 0, cr0, cr9, cr0, {0}
    3666:	69726176 	ldmdbvs	r2!, {r1, r2, r4, r5, r6, r8, sp, lr}^
    366a:	656c6261 	strbvs	r6, [ip, #-609]!	; 0x261

0000366e <Code_866>:
    366e:	b500      	push	{lr}
    3670:	f7ff ff6e 	bl	3550 <Code_842>
    3674:	4860      	ldr	r0, [pc, #384]	; (37f8 <rambuffer_ram+0x44>)
    3676:	6801      	ldr	r1, [r0, #0]
    3678:	4a5f      	ldr	r2, [pc, #380]	; (37f8 <rambuffer_ram+0x44>)
    367a:	4291      	cmp	r1, r2
    367c:	d234      	bcs.n	36e8 <variable_ram>
    367e:	200f      	movs	r0, #15
    3680:	4006      	ands	r6, r0
    3682:	00b2      	lsls	r2, r6, #2
    3684:	4862      	ldr	r0, [pc, #392]	; (3810 <rambuffer_ram+0x5c>)
    3686:	6801      	ldr	r1, [r0, #0]
    3688:	1a89      	subs	r1, r1, r2
    368a:	4a62      	ldr	r2, [pc, #392]	; (3814 <rambuffer_ram+0x60>)
    368c:	4291      	cmp	r1, r2
    368e:	d20b      	bcs.n	36a8 <Code_866+0x3a>
    3690:	f7ff f8fd 	bl	288e <dotgaensefuesschen>
    3694:	746f4e0f 	strbtvc	r4, [pc], #-3599	; 369c <Code_866+0x2e>
    3698:	6f6e6520 	svcvs	0x006e6520
    369c:	20686775 	rsbcs	r6, r8, r5, ror r7
    36a0:	0a4d4152 	beq	1353bf0 <BIT24+0x353bf0>
    36a4:	f001 b8ad 	b.w	4802 <Code_1222>
    36a8:	6001      	str	r1, [r0, #0]
    36aa:	f847 6d04 	str.w	r6, [r7, #-4]!
    36ae:	000e      	movs	r6, r1
    36b0:	f7ff fb78 	bl	2da4 <Code_697>
    36b4:	f847 6d04 	str.w	r6, [r7, #-4]!
    36b8:	f244 7670 	movw	r6, #18288	; 0x4770
    36bc:	f7ff fe3c 	bl	3338 <Code_811>
    36c0:	0030      	movs	r0, r6
    36c2:	cf40      	ldmia	r7!, {r6}
    36c4:	0002      	movs	r2, r0
    36c6:	2800      	cmp	r0, #0
    36c8:	d005      	beq.n	36d6 <Code_866+0x68>
    36ca:	600e      	str	r6, [r1, #0]
    36cc:	3104      	adds	r1, #4
    36ce:	f7ff fe54 	bl	337a <Code_817>
    36d2:	3801      	subs	r0, #1
    36d4:	d1f9      	bne.n	36ca <Code_866+0x5c>
    36d6:	f847 6d04 	str.w	r6, [r7, #-4]!
    36da:	2680      	movs	r6, #128	; 0x80
    36dc:	4316      	orrs	r6, r2
    36de:	f7ff fd9c 	bl	321a <Code_795>
    36e2:	f7ff fd6b 	bl	31bc <Code_789>
    36e6:	bd00      	pop	{pc}

000036e8 <variable_ram>:
    36e8:	f000 f981 	bl	39ee <Code_927>
    36ec:	2002      	movs	r0, #2
    36ee:	4006      	ands	r6, r0
    36f0:	cf40      	ldmia	r7!, {r6}
    36f2:	d104      	bne.n	36fe <variable_ram+0x16>
    36f4:	f847 6d04 	str.w	r6, [r7, #-4]!
    36f8:	2636      	movs	r6, #54	; 0x36
    36fa:	f7ff fe1d 	bl	3338 <Code_811>
    36fe:	f847 6d04 	str.w	r6, [r7, #-4]!
    3702:	4e45      	ldr	r6, [pc, #276]	; (3818 <rambuffer_ram+0x64>)
    3704:	f7ff fe47 	bl	3396 <Code_820>
    3708:	f847 6d04 	str.w	r6, [r7, #-4]!
    370c:	4e43      	ldr	r6, [pc, #268]	; (381c <rambuffer_ram+0x68>)
    370e:	f7ff fe42 	bl	3396 <Code_820>
    3712:	f847 6d04 	str.w	r6, [r7, #-4]!
    3716:	f244 7670 	movw	r6, #18288	; 0x4770
    371a:	f7ff fe0d 	bl	3338 <Code_811>
    371e:	0030      	movs	r0, r6
    3720:	cf40      	ldmia	r7!, {r6}
    3722:	2800      	cmp	r0, #0
    3724:	d003      	beq.n	372e <variable_ram+0x46>
    3726:	f7ff fe28 	bl	337a <Code_817>
    372a:	3801      	subs	r0, #1
    372c:	d1fb      	bne.n	3726 <variable_ram+0x3e>
    372e:	f7ff fcb6 	bl	309e <Code_760>
    3732:	f7ff fd43 	bl	31bc <Code_789>
    3736:	bd00      	pop	{pc}

00003738 <Dictionary_883>:
    3738:	00003820 	andeq	r3, r0, r0, lsr #16
    373c:	62070000 	andvs	r0, r7, #0
    3740:	65666675 	strbvs	r6, [r6, #-1653]!	; 0x675
    3744:	b5003a72 	strlt	r3, [r0, #-2674]	; 0xa72

00003746 <Code_883>:
    3746:	b500      	push	{lr}
    3748:	f7ff ff02 	bl	3550 <Code_842>
    374c:	2001      	movs	r0, #1
    374e:	4030      	ands	r0, r6
    3750:	1836      	adds	r6, r6, r0
    3752:	2002      	movs	r0, #2
    3754:	4030      	ands	r0, r6
    3756:	1836      	adds	r6, r6, r0
    3758:	4827      	ldr	r0, [pc, #156]	; (37f8 <rambuffer_ram+0x44>)
    375a:	6801      	ldr	r1, [r0, #0]
    375c:	4a26      	ldr	r2, [pc, #152]	; (37f8 <rambuffer_ram+0x44>)
    375e:	4291      	cmp	r1, r2
    3760:	d228      	bcs.n	37b4 <rambuffer_ram>
    3762:	482b      	ldr	r0, [pc, #172]	; (3810 <rambuffer_ram+0x5c>)
    3764:	6801      	ldr	r1, [r0, #0]
    3766:	1b89      	subs	r1, r1, r6
    3768:	4a2a      	ldr	r2, [pc, #168]	; (3814 <rambuffer_ram+0x60>)
    376a:	4291      	cmp	r1, r2
    376c:	d20b      	bcs.n	3786 <Code_883+0x40>
    376e:	f7ff f88e 	bl	288e <dotgaensefuesschen>
    3772:	746f4e0f 	strbtvc	r4, [pc], #-3599	; 377a <Code_883+0x34>
    3776:	6f6e6520 	svcvs	0x006e6520
    377a:	20686775 	rsbcs	r6, r8, r5, ror r7
    377e:	0a4d4152 	beq	1353cce <BIT24+0x353cce>
    3782:	f001 b83e 	b.w	4802 <Code_1222>
    3786:	6001      	str	r1, [r0, #0]
    3788:	f847 6d04 	str.w	r6, [r7, #-4]!
    378c:	000e      	movs	r6, r1
    378e:	f7ff fb09 	bl	2da4 <Code_697>
    3792:	f847 6d04 	str.w	r6, [r7, #-4]!
    3796:	f244 7670 	movw	r6, #18288	; 0x4770
    379a:	f7ff fdcd 	bl	3338 <Code_811>
    379e:	f7ff fdec 	bl	337a <Code_817>
    37a2:	f847 6d04 	str.w	r6, [r7, #-4]!
    37a6:	f240 1640 	movw	r6, #320	; 0x140
    37aa:	f7ff fd36 	bl	321a <Code_795>
    37ae:	f7ff fd05 	bl	31bc <Code_789>
    37b2:	bd00      	pop	{pc}

000037b4 <rambuffer_ram>:
    37b4:	f000 f91b 	bl	39ee <Code_927>
    37b8:	2002      	movs	r0, #2
    37ba:	4006      	ands	r6, r0
    37bc:	cf40      	ldmia	r7!, {r6}
    37be:	d104      	bne.n	37ca <rambuffer_ram+0x16>
    37c0:	f847 6d04 	str.w	r6, [r7, #-4]!
    37c4:	2636      	movs	r6, #54	; 0x36
    37c6:	f7ff fdb7 	bl	3338 <Code_811>
    37ca:	f847 6d04 	str.w	r6, [r7, #-4]!
    37ce:	4e12      	ldr	r6, [pc, #72]	; (3818 <rambuffer_ram+0x64>)
    37d0:	f7ff fde1 	bl	3396 <Code_820>
    37d4:	f847 6d04 	str.w	r6, [r7, #-4]!
    37d8:	4e10      	ldr	r6, [pc, #64]	; (381c <rambuffer_ram+0x68>)
    37da:	f7ff fddc 	bl	3396 <Code_820>
    37de:	f847 6d04 	str.w	r6, [r7, #-4]!
    37e2:	f244 7670 	movw	r6, #18288	; 0x4770
    37e6:	f7ff fda7 	bl	3338 <Code_811>
    37ea:	f7ff fe17 	bl	341c <Code_831>
    37ee:	f7ff fc56 	bl	309e <Code_760>
    37f2:	f7ff fce3 	bl	31bc <Code_789>
    37f6:	bd00      	pop	{pc}
    37f8:	20000000 	andcs	r0, r0, r0
    37fc:	20000020 	andcs	r0, r0, r0, lsr #32
    3800:	20000004 	andcs	r0, r0, r4
    3804:	ffffffff 			; <UNDEFINED> instruction: 0xffffffff
    3808:	0000ffff 	strdeq	pc, [r0], -pc	; <UNPREDICTABLE>
    380c:	20000014 	andcs	r0, r0, r4, lsl r0
    3810:	20000024 	andcs	r0, r0, r4, lsr #32
    3814:	2000038c 	andcs	r0, r0, ip, lsl #7
    3818:	3f04603e 	svccc	0x0004603e
    381c:	467e3602 	ldrbtmi	r3, [lr], -r2, lsl #12

00003820 <Dictionary_898>:
    3820:	0000384e 	andeq	r3, r0, lr, asr #16
    3824:	640f0000 	strvs	r0, [pc], #0	; 382c <Dictionary_898+0xc>
    3828:	69746369 	ldmdbvs	r4!, {r0, r3, r5, r6, r8, r9, sp, lr}^
    382c:	72616e6f 	rsbvc	r6, r1, #1776	; 0x6f0
    3830:	61747379 	cmnvs	r4, r9, ror r3
    3834:	48417472 	stmdami	r1, {r1, r4, r5, r6, sl, ip, sp, lr}^

00003836 <Code_898>:
    3836:	4841      	ldr	r0, [pc, #260]	; (393c <find_not_found+0x18>)
    3838:	6800      	ldr	r0, [r0, #0]
    383a:	4940      	ldr	r1, [pc, #256]	; (393c <find_not_found+0x18>)
    383c:	f847 6d04 	str.w	r6, [r7, #-4]!
    3840:	4288      	cmp	r0, r1
    3842:	d201      	bcs.n	3848 <Code_898+0x12>
    3844:	4e3e      	ldr	r6, [pc, #248]	; (3940 <find_not_found+0x1c>)
    3846:	4770      	bx	lr
    3848:	4e3e      	ldr	r6, [pc, #248]	; (3944 <find_not_found+0x20>)
    384a:	6836      	ldr	r6, [r6, #0]
    384c:	4770      	bx	lr

0000384e <Dictionary_900>:
    384e:	00003888 	andeq	r3, r0, r8, lsl #17
    3852:	640e0000 	strvs	r0, [lr]
    3856:	69746369 	ldmdbvs	r4!, {r0, r3, r5, r6, r8, r9, sp, lr}^
    385a:	72616e6f 	rsbvc	r6, r1, #1776	; 0x6f0
    385e:	78656e79 	stmdavc	r5!, {r0, r3, r4, r5, r6, r9, sl, fp, sp, lr}^
    3862:	b5030074 	strlt	r0, [r3, #-116]	; 0x74

00003864 <Code_900>:
    3864:	b503      	push	{r0, r1, lr}
    3866:	6831      	ldr	r1, [r6, #0]
    3868:	4837      	ldr	r0, [pc, #220]	; (3948 <find_not_found+0x24>)
    386a:	4281      	cmp	r1, r0
    386c:	d007      	beq.n	387e <Code_900+0x1a>
    386e:	7988      	ldrb	r0, [r1, #6]
    3870:	28ff      	cmp	r0, #255	; 0xff
    3872:	d004      	beq.n	387e <Code_900+0x1a>
    3874:	000e      	movs	r6, r1
    3876:	f847 6d04 	str.w	r6, [r7, #-4]!
    387a:	2600      	movs	r6, #0
    387c:	bd03      	pop	{r0, r1, pc}
    387e:	f847 6d04 	str.w	r6, [r7, #-4]!
    3882:	2600      	movs	r6, #0
    3884:	43f6      	mvns	r6, r6
    3886:	bd03      	pop	{r0, r1, pc}

00003888 <Dictionary_904>:
    3888:	000038ba 			; <UNDEFINED> instruction: 0x000038ba
    388c:	730a0000 	movwvc	r0, #40960	; 0xa000
    3890:	7370696b 	cmnvc	r0, #1753088	; 0x1ac000
    3894:	6e697274 	mcrvs	2, 3, r7, cr9, cr4, {3}
    3898:	78310067 	ldmdavc	r1!, {r0, r1, r2, r5, r6}

0000389a <Code_904>:
    389a:	7831      	ldrb	r1, [r6, #0]
    389c:	3101      	adds	r1, #1
    389e:	2201      	movs	r2, #1
    38a0:	400a      	ands	r2, r1
    38a2:	1889      	adds	r1, r1, r2
    38a4:	1876      	adds	r6, r6, r1
    38a6:	4770      	bx	lr

000038a8 <skipstring>:
    38a8:	b406      	push	{r1, r2}
    38aa:	7801      	ldrb	r1, [r0, #0]
    38ac:	3101      	adds	r1, #1
    38ae:	2201      	movs	r2, #1
    38b0:	400a      	ands	r2, r1
    38b2:	1889      	adds	r1, r1, r2
    38b4:	1840      	adds	r0, r0, r1
    38b6:	bc06      	pop	{r1, r2}
    38b8:	4770      	bx	lr

000038ba <Dictionary_905>:
    38ba:	00003950 	andeq	r3, r0, r0, asr r9
    38be:	66040000 	strvs	r0, [r4], -r0
    38c2:	00646e69 	rsbeq	r6, r4, r9, ror #28

000038c6 <Code_905>:
    38c6:	b53f      	push	{r0, r1, r2, r3, r4, r5, lr}
    38c8:	2200      	movs	r2, #0
    38ca:	2300      	movs	r3, #0
    38cc:	0035      	movs	r5, r6
    38ce:	cf40      	ldmia	r7!, {r6}
    38d0:	0034      	movs	r4, r6
    38d2:	cf40      	ldmia	r7!, {r6}
    38d4:	f7ff ffaf 	bl	3836 <Code_898>
    38d8:	481c      	ldr	r0, [pc, #112]	; (394c <find_not_found+0x28>)
    38da:	88b1      	ldrh	r1, [r6, #4]
    38dc:	4288      	cmp	r0, r1
    38de:	d017      	beq.n	3910 <Code_905+0x4a>
    38e0:	f847 6d04 	str.w	r6, [r7, #-4]!
    38e4:	3606      	adds	r6, #6
    38e6:	f7ff f80e 	bl	2906 <Code_624>
    38ea:	f847 6d04 	str.w	r6, [r7, #-4]!
    38ee:	0026      	movs	r6, r4
    38f0:	f847 6d04 	str.w	r6, [r7, #-4]!
    38f4:	002e      	movs	r6, r5
    38f6:	f7fe ff40 	bl	277a <Code_586>
    38fa:	2e00      	cmp	r6, #0
    38fc:	cf40      	ldmia	r7!, {r6}
    38fe:	d007      	beq.n	3910 <Code_905+0x4a>
    3900:	1db0      	adds	r0, r6, #6
    3902:	f7ff ffd1 	bl	38a8 <skipstring>
    3906:	0002      	movs	r2, r0
    3908:	000b      	movs	r3, r1
    390a:	480c      	ldr	r0, [pc, #48]	; (393c <find_not_found+0x18>)
    390c:	4282      	cmp	r2, r0
    390e:	d204      	bcs.n	391a <Code_905+0x54>
    3910:	f7ff ffa8 	bl	3864 <Code_900>
    3914:	0030      	movs	r0, r6
    3916:	cf40      	ldmia	r7!, {r6}
    3918:	d0de      	beq.n	38d8 <Code_905+0x12>
    391a:	0016      	movs	r6, r2
    391c:	f847 6d04 	str.w	r6, [r7, #-4]!
    3920:	001e      	movs	r6, r3
    3922:	bd3f      	pop	{r0, r1, r2, r3, r4, r5, pc}

00003924 <find_not_found>:
    3924:	b500      	push	{lr}
    3926:	0031      	movs	r1, r6
    3928:	6838      	ldr	r0, [r7, #0]
    392a:	f7ff ffcc 	bl	38c6 <Code_905>
    392e:	683a      	ldr	r2, [r7, #0]
    3930:	2a00      	cmp	r2, #0
    3932:	d101      	bne.n	3938 <find_not_found+0x14>
    3934:	f000 ff19 	bl	476a <not_found_addr_r0_len_r1>
    3938:	bd00      	pop	{pc}
    393a:	00000000 	andeq	r0, r0, r0
    393e:	01fc2000 	mvnseq	r2, r0
    3942:	00040000 	andeq	r0, r4, r0
    3946:	ffff2000 			; <UNDEFINED> instruction: 0xffff2000
    394a:	ffffffff 			; <UNDEFINED> instruction: 0xffffffff
	...

00003950 <Dictionary_918>:
    3950:	000039aa 	andeq	r3, r0, sl, lsr #19
    3954:	63060000 	movwvs	r0, #24576	; 0x6000
    3958:	706d756a 	rsbvc	r7, sp, sl, ror #10
    395c:	0032002c 	eorseq	r0, r2, ip, lsr #32

0000395e <Code_918>:
    395e:	0032      	movs	r2, r6
    3960:	cf40      	ldmia	r7!, {r6}
    3962:	0031      	movs	r1, r6
    3964:	cf40      	ldmia	r7!, {r6}
    3966:	1b8b      	subs	r3, r1, r6
    3968:	3b04      	subs	r3, #4
    396a:	49e7      	ldr	r1, [pc, #924]	; (3d08 <Code_997+0xe>)
    396c:	4019      	ands	r1, r3
    396e:	2900      	cmp	r1, #0
    3970:	d00d      	beq.n	398e <jump_too_far+0x16>
    3972:	48e6      	ldr	r0, [pc, #920]	; (3d0c <Code_997+0x12>)
    3974:	4281      	cmp	r1, r0
    3976:	d00a      	beq.n	398e <jump_too_far+0x16>

00003978 <jump_too_far>:
    3978:	f7fe ff89 	bl	288e <dotgaensefuesschen>
    397c:	6d754a0d 	vldmdbvs	r5!, {s9-s21}
    3980:	6f742070 	svcvs	0x00742070
    3984:	6166206f 	cmnvs	r6, pc, rrx
    3988:	f0000a72 			; <UNDEFINED> instruction: 0xf0000a72
    398c:	bf3a      	itte	cc
    398e:	105b      	asrcc	r3, r3, #1
    3990:	21ff      	movcc	r1, #255	; 0xff
    3992:	400b      	andcs	r3, r1
    3994:	4313      	orrs	r3, r2
    3996:	0030      	movs	r0, r6
    3998:	001e      	movs	r6, r3

0000399a <sprungbefehl_einfuegen>:
    399a:	b500      	push	{lr}
    399c:	4adc      	ldr	r2, [pc, #880]	; (3d10 <Code_997+0x16>)
    399e:	6813      	ldr	r3, [r2, #0]
    39a0:	6010      	str	r0, [r2, #0]
    39a2:	f7ff fcc9 	bl	3338 <Code_811>
    39a6:	6013      	str	r3, [r2, #0]
    39a8:	bd00      	pop	{pc}

000039aa <Dictionary_922>:
    39aa:	000039e2 	andeq	r3, r0, r2, ror #19
    39ae:	6a050000 	bvs	1439b6 <BIT20+0x439b6>
    39b2:	2c706d75 	ldclcs	13, cr6, [r0], #-468	; 0xfffffe2c

000039b6 <Code_922>:
    39b6:	0031      	movs	r1, r6
    39b8:	cf40      	ldmia	r7!, {r6}
    39ba:	0030      	movs	r0, r6
    39bc:	cf40      	ldmia	r7!, {r6}
    39be:	1a0b      	subs	r3, r1, r0
    39c0:	3b04      	subs	r3, #4
    39c2:	49d4      	ldr	r1, [pc, #848]	; (3d14 <Code_997+0x1a>)
    39c4:	4019      	ands	r1, r3
    39c6:	2900      	cmp	r1, #0
    39c8:	d002      	beq.n	39d0 <Code_922+0x1a>
    39ca:	4ad3      	ldr	r2, [pc, #844]	; (3d18 <Code_997+0x1e>)
    39cc:	4291      	cmp	r1, r2
    39ce:	d1d3      	bne.n	3978 <jump_too_far>
    39d0:	105b      	asrs	r3, r3, #1
    39d2:	4ad2      	ldr	r2, [pc, #840]	; (3d1c <Code_997+0x22>)
    39d4:	4013      	ands	r3, r2
    39d6:	f453 4360 	orrs.w	r3, r3, #57344	; 0xe000
    39da:	f847 6d04 	str.w	r6, [r7, #-4]!
    39de:	001e      	movs	r6, r3
    39e0:	e7db      	b.n	399a <sprungbefehl_einfuegen>

000039e2 <Dictionary_927>:
    39e2:	000039f8 	strdeq	r3, [r0], -r8
    39e6:	68040000 	stmdavs	r4, {}	; <UNPREDICTABLE>
    39ea:	00657265 	rsbeq	r7, r5, r5, ror #4

000039ee <Code_927>:
    39ee:	f847 6d04 	str.w	r6, [r7, #-4]!
    39f2:	4ec7      	ldr	r6, [pc, #796]	; (3d10 <Code_997+0x16>)
    39f4:	6836      	ldr	r6, [r6, #0]
    39f6:	4770      	bx	lr

000039f8 <Dictionary_929>:
    39f8:	00003b2e 	andeq	r3, r0, lr, lsr #22
    39fc:	660d0000 	strvs	r0, [sp], -r0
    3a00:	6873616c 	ldmdavs	r3!, {r2, r3, r5, r6, r8, sp, lr}^
    3a04:	2d726176 	ldfcse	f6, [r2, #-472]!	; 0xfffffe28
    3a08:	65726568 	ldrbvs	r6, [r2, #-1384]!	; 0x568

00003a0c <Code_929>:
    3a0c:	f847 6d04 	str.w	r6, [r7, #-4]!
    3a10:	4ec3      	ldr	r6, [pc, #780]	; (3d20 <Code_997+0x26>)
    3a12:	6836      	ldr	r6, [r6, #0]
    3a14:	4770      	bx	lr

00003a16 <nullprobekomma>:
    3a16:	b500      	push	{lr}
    3a18:	f847 6d04 	str.w	r6, [r7, #-4]!
    3a1c:	f642 6600 	movw	r6, #11776	; 0x2e00
    3a20:	f7ff fc8a 	bl	3338 <Code_811>
    3a24:	f847 6d04 	str.w	r6, [r7, #-4]!
    3a28:	f64c 7640 	movw	r6, #53056	; 0xcf40
    3a2c:	f7ff fc84 	bl	3338 <Code_811>
    3a30:	bd00      	pop	{pc}

00003a32 <branch_r>:
    3a32:	e7dc      	b.n	39ee <Code_927>

00003a34 <r_branch_jne>:
    3a34:	b500      	push	{lr}
    3a36:	f000 f83a 	bl	3aae <branch_v>
    3a3a:	6839      	ldr	r1, [r7, #0]
    3a3c:	603e      	str	r6, [r7, #0]
    3a3e:	460e      	mov	r6, r1
    3a40:	f847 6d04 	str.w	r6, [r7, #-4]!
    3a44:	f24d 1600 	movw	r6, #53504	; 0xd100
    3a48:	f7ff ff89 	bl	395e <Code_918>
    3a4c:	bd00      	pop	{pc}

00003a4e <r_branch_jvc>:
    3a4e:	b500      	push	{lr}
    3a50:	f000 f82d 	bl	3aae <branch_v>
    3a54:	6839      	ldr	r1, [r7, #0]
    3a56:	603e      	str	r6, [r7, #0]
    3a58:	460e      	mov	r6, r1
    3a5a:	f847 6d04 	str.w	r6, [r7, #-4]!
    3a5e:	f24d 7600 	movw	r6, #55040	; 0xd700
    3a62:	f7ff ff7c 	bl	395e <Code_918>
    3a66:	bd00      	pop	{pc}

00003a68 <r_nullbranch>:
    3a68:	b500      	push	{lr}
    3a6a:	f7ff ffd4 	bl	3a16 <nullprobekomma>
    3a6e:	f000 f81e 	bl	3aae <branch_v>
    3a72:	6839      	ldr	r1, [r7, #0]
    3a74:	603e      	str	r6, [r7, #0]
    3a76:	460e      	mov	r6, r1
    3a78:	f847 6d04 	str.w	r6, [r7, #-4]!
    3a7c:	f24d 0600 	movw	r6, #53248	; 0xd000
    3a80:	f7ff ff6d 	bl	395e <Code_918>
    3a84:	bd00      	pop	{pc}

00003a86 <r_branch>:
    3a86:	b500      	push	{lr}
    3a88:	f000 f811 	bl	3aae <branch_v>
    3a8c:	6839      	ldr	r1, [r7, #0]
    3a8e:	603e      	str	r6, [r7, #0]
    3a90:	460e      	mov	r6, r1
    3a92:	f7ff ff90 	bl	39b6 <Code_922>
    3a96:	bd00      	pop	{pc}

00003a98 <nullbranch_v>:
    3a98:	b500      	push	{lr}
    3a9a:	f7ff ffbc 	bl	3a16 <nullprobekomma>
    3a9e:	f7ff ffa6 	bl	39ee <Code_927>
    3aa2:	f847 6d04 	str.w	r6, [r7, #-4]!
    3aa6:	2602      	movs	r6, #2
    3aa8:	f7ff fcb8 	bl	341c <Code_831>
    3aac:	bd00      	pop	{pc}

00003aae <branch_v>:
    3aae:	b500      	push	{lr}
    3ab0:	f7ff ff9d 	bl	39ee <Code_927>
    3ab4:	f847 6d04 	str.w	r6, [r7, #-4]!
    3ab8:	2602      	movs	r6, #2
    3aba:	f7ff fcaf 	bl	341c <Code_831>
    3abe:	bd00      	pop	{pc}

00003ac0 <v_branch>:
    3ac0:	b500      	push	{lr}
    3ac2:	f7ff ff94 	bl	39ee <Code_927>
    3ac6:	f7ff ff76 	bl	39b6 <Code_922>
    3aca:	bd00      	pop	{pc}

00003acc <v_nullbranch>:
    3acc:	b500      	push	{lr}
    3ace:	f7ff ff8e 	bl	39ee <Code_927>
    3ad2:	f847 6d04 	str.w	r6, [r7, #-4]!
    3ad6:	f24d 0600 	movw	r6, #53248	; 0xd000
    3ada:	f7ff ff40 	bl	395e <Code_918>
    3ade:	bd00      	pop	{pc}

00003ae0 <v_casebranch>:
    3ae0:	b500      	push	{lr}
    3ae2:	f7ff ff84 	bl	39ee <Code_927>
    3ae6:	f847 6d04 	str.w	r6, [r7, #-4]!
    3aea:	f24d 1600 	movw	r6, #53504	; 0xd100
    3aee:	f7ff ff36 	bl	395e <Code_918>
    3af2:	bd00      	pop	{pc}

00003af4 <allocator_nullsprungprobe>:
    3af4:	b500      	push	{lr}
    3af6:	f7fc fcfb 	bl	4f0 <expect_one_element>
    3afa:	f7fc fc2f 	bl	35c <tidyup_register_allocator_5os>
    3afe:	f7fc fc32 	bl	366 <tidyup_register_allocator_4os>
    3b02:	f7fc fc35 	bl	370 <tidyup_register_allocator_3os>
    3b06:	6881      	ldr	r1, [r0, #8]
    3b08:	2928      	cmp	r1, #40	; 0x28
    3b0a:	d101      	bne.n	3b10 <allocator_nullsprungprobe+0x1c>
    3b0c:	f7fc fd36 	bl	57c <expect_nos_in_register>
    3b10:	f7fc fd2a 	bl	568 <expect_tos_in_register>
    3b14:	f847 6d04 	str.w	r6, [r7, #-4]!
    3b18:	f642 0600 	movw	r6, #10240	; 0x2800
    3b1c:	0209      	lsls	r1, r1, #8
    3b1e:	430e      	orrs	r6, r1
    3b20:	f7ff fc0a 	bl	3338 <Code_811>
    3b24:	f7fc fbe3 	bl	2ee <eliminiere_tos>
    3b28:	f7fc fc0c 	bl	344 <tidyup_register_allocator>
    3b2c:	bd00      	pop	{pc}

00003b2e <Dictionary_955>:
    3b2e:	00003ba2 	andeq	r3, r0, r2, lsr #23
    3b32:	69020630 	stmdbvs	r2, {r4, r5, r9, sl}
    3b36:	b5000066 	strlt	r0, [r0, #-102]	; 0x66

00003b38 <Code_955>:
    3b38:	b500      	push	{lr}
    3b3a:	f7ff ffad 	bl	3a98 <nullbranch_v>
    3b3e:	f847 6d04 	str.w	r6, [r7, #-4]!
    3b42:	f24d 0600 	movw	r6, #53248	; 0xd000
    3b46:	f847 6d04 	str.w	r6, [r7, #-4]!
    3b4a:	2602      	movs	r6, #2
    3b4c:	bd00      	pop	{pc}

00003b4e <struktur_if_allokator>:
    3b4e:	b500      	push	{lr}
    3b50:	f7fc fd61 	bl	616 <push_lr_nachholen>
    3b54:	f7fd fe2c 	bl	17b0 <eliminiere_tos_wenn_bmi>
    3b58:	6a81      	ldr	r1, [r0, #40]	; 0x28
    3b5a:	2900      	cmp	r1, #0
    3b5c:	d010      	beq.n	3b80 <struktur_if_allokator+0x32>
    3b5e:	b402      	push	{r1}
    3b60:	f7fc fbf0 	bl	344 <tidyup_register_allocator>
    3b64:	f7ff ff43 	bl	39ee <Code_927>
    3b68:	f847 6d04 	str.w	r6, [r7, #-4]!
    3b6c:	2602      	movs	r6, #2
    3b6e:	f7ff fc55 	bl	341c <Code_831>
    3b72:	f847 6d04 	str.w	r6, [r7, #-4]!
    3b76:	bc40      	pop	{r6}
    3b78:	f847 6d04 	str.w	r6, [r7, #-4]!
    3b7c:	2602      	movs	r6, #2
    3b7e:	bd00      	pop	{pc}
    3b80:	f7ff ffb8 	bl	3af4 <allocator_nullsprungprobe>
    3b84:	f7ff ff33 	bl	39ee <Code_927>
    3b88:	f847 6d04 	str.w	r6, [r7, #-4]!
    3b8c:	2602      	movs	r6, #2
    3b8e:	f7ff fc45 	bl	341c <Code_831>
    3b92:	f847 6d04 	str.w	r6, [r7, #-4]!
    3b96:	f24d 0600 	movw	r6, #53248	; 0xd000
    3b9a:	f847 6d04 	str.w	r6, [r7, #-4]!
    3b9e:	2602      	movs	r6, #2
    3ba0:	bd00      	pop	{pc}

00003ba2 <Dictionary_971>:
    3ba2:	00003bd4 	ldrdeq	r3, [r0], -r4
    3ba6:	65040030 	strvs	r0, [r4, #-48]	; 0x30
    3baa:	0065736c 	rsbeq	r7, r5, ip, ror #6

00003bae <Code_971>:
    3bae:	b500      	push	{lr}
    3bb0:	2e02      	cmp	r6, #2
    3bb2:	d125      	bne.n	3c00 <strukturen_passen_nicht>
    3bb4:	cf40      	ldmia	r7!, {r6}
    3bb6:	f7ff ff7a 	bl	3aae <branch_v>
    3bba:	f7fd fa61 	bl	1080 <Code_210>
    3bbe:	f7ff ff16 	bl	39ee <Code_927>
    3bc2:	6839      	ldr	r1, [r7, #0]
    3bc4:	603e      	str	r6, [r7, #0]
    3bc6:	460e      	mov	r6, r1
    3bc8:	f7ff fec9 	bl	395e <Code_918>
    3bcc:	f847 6d04 	str.w	r6, [r7, #-4]!
    3bd0:	2605      	movs	r6, #5
    3bd2:	bd00      	pop	{pc}

00003bd4 <Dictionary_976>:
    3bd4:	00003c20 	andeq	r3, r0, r0, lsr #24
    3bd8:	74040030 	strvc	r0, [r4], #-48	; 0x30
    3bdc:	006e6568 	rsbeq	r6, lr, r8, ror #10

00003be0 <Code_976>:
    3be0:	2e05      	cmp	r6, #5
    3be2:	d101      	bne.n	3be8 <Code_976+0x8>
    3be4:	cf40      	ldmia	r7!, {r6}
    3be6:	e76b      	b.n	3ac0 <v_branch>
    3be8:	2e02      	cmp	r6, #2
    3bea:	d109      	bne.n	3c00 <strukturen_passen_nicht>
    3bec:	cf40      	ldmia	r7!, {r6}
    3bee:	b500      	push	{lr}
    3bf0:	f7ff fefd 	bl	39ee <Code_927>
    3bf4:	6839      	ldr	r1, [r7, #0]
    3bf6:	603e      	str	r6, [r7, #0]
    3bf8:	460e      	mov	r6, r1
    3bfa:	f7ff feb0 	bl	395e <Code_918>
    3bfe:	bd00      	pop	{pc}

00003c00 <strukturen_passen_nicht>:
    3c00:	f7fe fe45 	bl	288e <dotgaensefuesschen>
    3c04:	72745317 	rsbsvc	r5, r4, #1543503872	; 0x5c000000
    3c08:	75746375 	ldrbvc	r6, [r4, #-885]!	; 0x375
    3c0c:	20736572 	rsbscs	r6, r3, r2, ror r5
    3c10:	276e6f64 	strbcs	r6, [lr, -r4, ror #30]!
    3c14:	616d2074 	smcvs	53764	; 0xd204
    3c18:	0a686374 	beq	1a1c9f0 <BIT24+0xa1c9f0>
    3c1c:	f000 bdf1 	b.w	4802 <Code_1222>

00003c20 <Dictionary_981>:
    3c20:	00003c4e 	andeq	r3, r0, lr, asr #24
    3c24:	72060030 	andvc	r0, r6, #48	; 0x30
    3c28:	61657065 	cmnvs	r5, r5, rrx
    3c2c:	2e040074 	mcrcs	0, 0, r0, cr4, cr4, {3}

00003c2e <Code_981>:
    3c2e:	2e04      	cmp	r6, #4
    3c30:	d1e6      	bne.n	3c00 <strukturen_passen_nicht>
    3c32:	cf40      	ldmia	r7!, {r6}
    3c34:	b500      	push	{lr}
    3c36:	f7fd fa07 	bl	1048 <Code_209>
    3c3a:	f7ff ff24 	bl	3a86 <r_branch>
    3c3e:	f7ff fed6 	bl	39ee <Code_927>
    3c42:	6839      	ldr	r1, [r7, #0]
    3c44:	603e      	str	r6, [r7, #0]
    3c46:	460e      	mov	r6, r1
    3c48:	f7ff fe89 	bl	395e <Code_918>
    3c4c:	bd00      	pop	{pc}

00003c4e <Dictionary_984>:
    3c4e:	00003c7a 	andeq	r3, r0, sl, ror ip
    3c52:	77050630 	smladxvc	r5, r0, r6, r0
    3c56:	656c6968 	strbvs	r6, [ip, #-2408]!	; 0x968

00003c5a <Code_984>:
    3c5a:	2e01      	cmp	r6, #1
    3c5c:	d1d0      	bne.n	3c00 <strukturen_passen_nicht>
    3c5e:	cf40      	ldmia	r7!, {r6}
    3c60:	b500      	push	{lr}
    3c62:	f7ff ff69 	bl	3b38 <Code_955>
    3c66:	3602      	adds	r6, #2
    3c68:	bd00      	pop	{pc}
    3c6a:	2e01      	cmp	r6, #1
    3c6c:	d1c8      	bne.n	3c00 <strukturen_passen_nicht>
    3c6e:	cf40      	ldmia	r7!, {r6}
    3c70:	b500      	push	{lr}
    3c72:	f7ff ff6c 	bl	3b4e <struktur_if_allokator>
    3c76:	3602      	adds	r6, #2
    3c78:	bd00      	pop	{pc}

00003c7a <Dictionary_987>:
    3c7a:	00003cda 	ldrdeq	r3, [r0], -sl
    3c7e:	75050630 	strvc	r0, [r5, #-1584]	; 0x630
    3c82:	6c69746e 	cfstrdvs	mvd7, [r9], #-440	; 0xfffffe48

00003c86 <Code_987>:
    3c86:	2e01      	cmp	r6, #1
    3c88:	d1ba      	bne.n	3c00 <strukturen_passen_nicht>
    3c8a:	cf40      	ldmia	r7!, {r6}
    3c8c:	e6ec      	b.n	3a68 <r_nullbranch>
    3c8e:	4770      	bx	lr
    3c90:	2e01      	cmp	r6, #1
    3c92:	d1b5      	bne.n	3c00 <strukturen_passen_nicht>
    3c94:	cf40      	ldmia	r7!, {r6}
    3c96:	b500      	push	{lr}
    3c98:	f7fd fd8a 	bl	17b0 <eliminiere_tos_wenn_bmi>
    3c9c:	6a81      	ldr	r1, [r0, #40]	; 0x28
    3c9e:	2900      	cmp	r1, #0
    3ca0:	d00d      	beq.n	3cbe <Code_987+0x38>
    3ca2:	b402      	push	{r1}
    3ca4:	f7fc fb4e 	bl	344 <tidyup_register_allocator>
    3ca8:	f7ff ff01 	bl	3aae <branch_v>
    3cac:	6839      	ldr	r1, [r7, #0]
    3cae:	603e      	str	r6, [r7, #0]
    3cb0:	460e      	mov	r6, r1
    3cb2:	f847 6d04 	str.w	r6, [r7, #-4]!
    3cb6:	bc40      	pop	{r6}
    3cb8:	f7ff fe51 	bl	395e <Code_918>
    3cbc:	bd00      	pop	{pc}
    3cbe:	f7ff ff19 	bl	3af4 <allocator_nullsprungprobe>
    3cc2:	f7ff fef4 	bl	3aae <branch_v>
    3cc6:	6839      	ldr	r1, [r7, #0]
    3cc8:	603e      	str	r6, [r7, #0]
    3cca:	460e      	mov	r6, r1
    3ccc:	f847 6d04 	str.w	r6, [r7, #-4]!
    3cd0:	f24d 0600 	movw	r6, #53248	; 0xd000
    3cd4:	f7ff fe43 	bl	395e <Code_918>
    3cd8:	bd00      	pop	{pc}

00003cda <Dictionary_995>:
    3cda:	00003cee 	andeq	r3, r0, lr, ror #25
    3cde:	61050030 	tstvs	r5, r0, lsr r0
    3ce2:	6e696167 	powvsez	f6, f1, f7

00003ce6 <Code_995>:
    3ce6:	2e01      	cmp	r6, #1
    3ce8:	d18a      	bne.n	3c00 <strukturen_passen_nicht>
    3cea:	cf40      	ldmia	r7!, {r6}
    3cec:	e6cb      	b.n	3a86 <r_branch>

00003cee <Dictionary_997>:
    3cee:	00003d24 	andeq	r3, r0, r4, lsr #26
    3cf2:	62050030 	andvs	r0, r5, #48	; 0x30
    3cf6:	6e696765 	cdpvs	7, 6, cr6, cr9, cr5, {3}

00003cfa <Code_997>:
    3cfa:	b500      	push	{lr}
    3cfc:	f7ff fe99 	bl	3a32 <branch_r>
    3d00:	f847 6d04 	str.w	r6, [r7, #-4]!
    3d04:	2601      	movs	r6, #1
    3d06:	bd00      	pop	{pc}
    3d08:	ffffff01 			; <UNDEFINED> instruction: 0xffffff01
    3d0c:	ffffff00 			; <UNDEFINED> instruction: 0xffffff00
    3d10:	20000000 	andcs	r0, r0, r0
    3d14:	fffff801 			; <UNDEFINED> instruction: 0xfffff801
    3d18:	fffff800 			; <UNDEFINED> instruction: 0xfffff800
    3d1c:	000007ff 	strdeq	r0, [r0], -pc	; <UNPREDICTABLE>
    3d20:	20000024 	andcs	r0, r0, r4, lsr #32

00003d24 <Dictionary_1000>:
    3d24:	00003d3e 	andeq	r3, r0, lr, lsr sp
    3d28:	6b010220 	blvs	445b0 <BIT18+0x45b0>

00003d2c <Code_1000>:
    3d2c:	f847 6d04 	str.w	r6, [r7, #-4]!
    3d30:	9e02      	ldr	r6, [sp, #8]
    3d32:	4770      	bx	lr
    3d34:	f847 6d04 	str.w	r6, [r7, #-4]!
    3d38:	f649 0602 	movw	r6, #38914	; 0x9802
    3d3c:	e00b      	b.n	3d56 <loop_j_allocator>

00003d3e <Dictionary_1004>:
    3d3e:	00003d6c 	andeq	r3, r0, ip, ror #26
    3d42:	6a010220 	bvs	445ca <BIT18+0x45ca>

00003d46 <Code_1004>:
    3d46:	f847 6d04 	str.w	r6, [r7, #-4]!
    3d4a:	9e00      	ldr	r6, [sp, #0]
    3d4c:	4770      	bx	lr

00003d4e <rfetch_allocator>:
    3d4e:	f847 6d04 	str.w	r6, [r7, #-4]!
    3d52:	f649 0600 	movw	r6, #38912	; 0x9800

00003d56 <loop_j_allocator>:
    3d56:	b500      	push	{lr}
    3d58:	f7fc fabf 	bl	2da <befreie_tos>
    3d5c:	f7fc fb94 	bl	488 <get_free_register>
    3d60:	6003      	str	r3, [r0, #0]
    3d62:	021b      	lsls	r3, r3, #8
    3d64:	431e      	orrs	r6, r3
    3d66:	f7ff fae7 	bl	3338 <Code_811>
    3d6a:	bd00      	pop	{pc}

00003d6c <Dictionary_1008>:
    3d6c:	00003d98 	muleq	r0, r8, sp
    3d70:	69010220 	stmdbvs	r1, {r5, r9}

00003d74 <Code_1008>:
    3d74:	f847 6d04 	str.w	r6, [r7, #-4]!
    3d78:	0026      	movs	r6, r4
    3d7a:	4770      	bx	lr
    3d7c:	b500      	push	{lr}
    3d7e:	f847 6d04 	str.w	r6, [r7, #-4]!
    3d82:	f240 0620 	movw	r6, #32
    3d86:	f7fc faa8 	bl	2da <befreie_tos>
    3d8a:	f7fc fb7d 	bl	488 <get_free_register>
    3d8e:	6003      	str	r3, [r0, #0]
    3d90:	431e      	orrs	r6, r3
    3d92:	f7ff fad1 	bl	3338 <Code_811>
    3d96:	bd00      	pop	{pc}

00003d98 <Dictionary_1013>:
    3d98:	00003dd6 	ldrdeq	r3, [r0], -r6
    3d9c:	6c050030 	stcvs	0, cr0, [r5], {48}	; 0x30
    3da0:	65766165 	ldrbvs	r6, [r6, #-357]!	; 0x165

00003da4 <Code_1013>:
    3da4:	b500      	push	{lr}
    3da6:	4875      	ldr	r0, [pc, #468]	; (3f7c <gemeinsame_schleifenoptimierung+0x82>)
    3da8:	6801      	ldr	r1, [r0, #0]
    3daa:	003b      	movs	r3, r7
    3dac:	3f04      	subs	r7, #4
    3dae:	681a      	ldr	r2, [r3, #0]
    3db0:	3b04      	subs	r3, #4
    3db2:	601a      	str	r2, [r3, #0]
    3db4:	3308      	adds	r3, #8
    3db6:	428b      	cmp	r3, r1
    3db8:	d1f9      	bne.n	3dae <Code_1013+0xa>
    3dba:	b403      	push	{r0, r1}
    3dbc:	f7ff fe77 	bl	3aae <branch_v>
    3dc0:	bc03      	pop	{r0, r1}
    3dc2:	0033      	movs	r3, r6
    3dc4:	cf40      	ldmia	r7!, {r6}
    3dc6:	3904      	subs	r1, #4
    3dc8:	600b      	str	r3, [r1, #0]
    3dca:	6001      	str	r1, [r0, #0]
    3dcc:	3904      	subs	r1, #4
    3dce:	680a      	ldr	r2, [r1, #0]
    3dd0:	3201      	adds	r2, #1
    3dd2:	600a      	str	r2, [r1, #0]
    3dd4:	bd00      	pop	{pc}

00003dd6 <Dictionary_1015>:
    3dd6:	00003de8 	andeq	r3, r0, r8, ror #27
    3dda:	75060020 	strvc	r0, [r6, #-32]
    3dde:	6f6f6c6e 	svcvs	0x006f6c6e
    3de2:	bc300070 	ldclt	0, cr0, [r0], #-448	; 0xfffffe40

00003de4 <Code_1015>:
    3de4:	bc30      	pop	{r4, r5}
    3de6:	4770      	bx	lr

00003de8 <Dictionary_1016>:
    3de8:	00003e20 	andeq	r3, r0, r0, lsr #28
    3dec:	2b050030 	blcs	143eb4 <BIT20+0x43eb4>
    3df0:	706f6f6c 	rsbvc	r6, pc, ip, ror #30

00003df4 <Code_1016>:
    3df4:	2e03      	cmp	r6, #3
    3df6:	d000      	beq.n	3dfa <Code_1016+0x6>
    3df8:	e702      	b.n	3c00 <strukturen_passen_nicht>
    3dfa:	cf40      	ldmia	r7!, {r6}
    3dfc:	b500      	push	{lr}
    3dfe:	f847 6d04 	str.w	r6, [r7, #-4]!
    3e02:	4e5f      	ldr	r6, [pc, #380]	; (3f80 <gemeinsame_schleifenoptimierung+0x86>)
    3e04:	f7ff f86c 	bl	2ee0 <Code_725>
    3e08:	f7ff fe21 	bl	3a4e <r_branch_jvc>
    3e0c:	e01a      	b.n	3e44 <loop_intern>

00003e0e <struktur_plusloop>:
    3e0e:	f114 4400 	adds.w	r4, r4, #2147483648	; 0x80000000
    3e12:	1b64      	subs	r4, r4, r5
    3e14:	19a4      	adds	r4, r4, r6
    3e16:	cf40      	ldmia	r7!, {r6}
    3e18:	442c      	add	r4, r5
    3e1a:	f1a4 4400 	sub.w	r4, r4, #2147483648	; 0x80000000
    3e1e:	4770      	bx	lr

00003e20 <Dictionary_1020>:
    3e20:	00003e62 	andeq	r3, r0, r2, ror #28
    3e24:	6c040030 	stcvs	0, cr0, [r4], {48}	; 0x30
    3e28:	00706f6f 	rsbseq	r6, r0, pc, ror #30

00003e2c <Code_1020>:
    3e2c:	2e03      	cmp	r6, #3
    3e2e:	d000      	beq.n	3e32 <Code_1020+0x6>
    3e30:	e6e6      	b.n	3c00 <strukturen_passen_nicht>
    3e32:	cf40      	ldmia	r7!, {r6}
    3e34:	b500      	push	{lr}
    3e36:	f847 6d04 	str.w	r6, [r7, #-4]!
    3e3a:	4e52      	ldr	r6, [pc, #328]	; (3f84 <gemeinsame_schleifenoptimierung+0x8a>)
    3e3c:	f7ff f850 	bl	2ee0 <Code_725>
    3e40:	f7ff fdf8 	bl	3a34 <r_branch_jne>

00003e44 <loop_intern>:
    3e44:	f000 f952 	bl	40ec <spruenge_einpflegen>
    3e48:	484c      	ldr	r0, [pc, #304]	; (3f7c <gemeinsame_schleifenoptimierung+0x82>)
    3e4a:	0031      	movs	r1, r6
    3e4c:	cf40      	ldmia	r7!, {r6}
    3e4e:	6001      	str	r1, [r0, #0]
    3e50:	f847 6d04 	str.w	r6, [r7, #-4]!
    3e54:	4e4c      	ldr	r6, [pc, #304]	; (3f88 <gemeinsame_schleifenoptimierung+0x8e>)
    3e56:	f7ff f843 	bl	2ee0 <Code_725>
    3e5a:	bd00      	pop	{pc}

00003e5c <struktur_loop>:
    3e5c:	3401      	adds	r4, #1
    3e5e:	42ac      	cmp	r4, r5
    3e60:	4770      	bx	lr

00003e62 <Dictionary_1025>:
    3e62:	00003eaa 	andeq	r3, r0, sl, lsr #29
    3e66:	64020230 	strvs	r0, [r2], #-560	; 0x230
    3e6a:	b500006f 	strlt	r0, [r0, #-111]	; 0x6f

00003e6c <Code_1025>:
    3e6c:	b500      	push	{lr}
    3e6e:	f847 6d04 	str.w	r6, [r7, #-4]!
    3e72:	4e46      	ldr	r6, [pc, #280]	; (3f8c <gemeinsame_schleifenoptimierung+0x92>)
    3e74:	f7ff f834 	bl	2ee0 <Code_725>

00003e78 <do_rest_der_schleifenstruktur>:
    3e78:	4840      	ldr	r0, [pc, #256]	; (3f7c <gemeinsame_schleifenoptimierung+0x82>)
    3e7a:	6801      	ldr	r1, [r0, #0]
    3e7c:	f847 6d04 	str.w	r6, [r7, #-4]!
    3e80:	000e      	movs	r6, r1
    3e82:	f847 6d04 	str.w	r6, [r7, #-4]!
    3e86:	2600      	movs	r6, #0
    3e88:	6007      	str	r7, [r0, #0]
    3e8a:	f7ff fdd2 	bl	3a32 <branch_r>
    3e8e:	f847 6d04 	str.w	r6, [r7, #-4]!
    3e92:	2603      	movs	r6, #3
    3e94:	bd00      	pop	{pc}
    3e96:	b500      	push	{lr}
    3e98:	f000 f82f 	bl	3efa <gemeinsame_schleifenoptimierung>
    3e9c:	e7ec      	b.n	3e78 <do_rest_der_schleifenstruktur>

00003e9e <struktur_do>:
    3e9e:	b430      	push	{r4, r5}
    3ea0:	0034      	movs	r4, r6
    3ea2:	cf40      	ldmia	r7!, {r6}
    3ea4:	0035      	movs	r5, r6
    3ea6:	cf40      	ldmia	r7!, {r6}
    3ea8:	4770      	bx	lr

00003eaa <Dictionary_1035>:
    3eaa:	00003f90 	muleq	r0, r0, pc	; <UNPREDICTABLE>
    3eae:	3f030230 	svccc	0x00030230
    3eb2:	b5006f64 	strlt	r6, [r0, #-3940]	; 0xf64

00003eb4 <Code_1035>:
    3eb4:	b500      	push	{lr}
    3eb6:	f847 6d04 	str.w	r6, [r7, #-4]!
    3eba:	4e34      	ldr	r6, [pc, #208]	; (3f8c <gemeinsame_schleifenoptimierung+0x92>)
    3ebc:	f7ff f810 	bl	2ee0 <Code_725>

00003ec0 <qdo_rest_der_schleifenstruktur>:
    3ec0:	f847 6d04 	str.w	r6, [r7, #-4]!
    3ec4:	f244 26ac 	movw	r6, #17068	; 0x42ac
    3ec8:	f7ff fa36 	bl	3338 <Code_811>
    3ecc:	482b      	ldr	r0, [pc, #172]	; (3f7c <gemeinsame_schleifenoptimierung+0x82>)
    3ece:	6801      	ldr	r1, [r0, #0]
    3ed0:	f847 6d04 	str.w	r6, [r7, #-4]!
    3ed4:	000e      	movs	r6, r1
    3ed6:	f7ff fdea 	bl	3aae <branch_v>
    3eda:	3601      	adds	r6, #1
    3edc:	f847 6d04 	str.w	r6, [r7, #-4]!
    3ee0:	2601      	movs	r6, #1
    3ee2:	4826      	ldr	r0, [pc, #152]	; (3f7c <gemeinsame_schleifenoptimierung+0x82>)
    3ee4:	6007      	str	r7, [r0, #0]
    3ee6:	f7ff fda4 	bl	3a32 <branch_r>
    3eea:	f847 6d04 	str.w	r6, [r7, #-4]!
    3eee:	2603      	movs	r6, #3
    3ef0:	bd00      	pop	{pc}
    3ef2:	b500      	push	{lr}
    3ef4:	f000 f801 	bl	3efa <gemeinsame_schleifenoptimierung>
    3ef8:	e7e2      	b.n	3ec0 <qdo_rest_der_schleifenstruktur>

00003efa <gemeinsame_schleifenoptimierung>:
    3efa:	b500      	push	{lr}
    3efc:	f7fc fb8b 	bl	616 <push_lr_nachholen>
    3f00:	f7fc fb00 	bl	504 <expect_two_elements>
    3f04:	f7fc fa2a 	bl	35c <tidyup_register_allocator_5os>
    3f08:	f7fc fa2d 	bl	366 <tidyup_register_allocator_4os>
    3f0c:	f7fc fa30 	bl	370 <tidyup_register_allocator_3os>
    3f10:	f847 6d04 	str.w	r6, [r7, #-4]!
    3f14:	f24b 4630 	movw	r6, #46128	; 0xb430
    3f18:	f7ff fa0e 	bl	3338 <Code_811>
    3f1c:	6801      	ldr	r1, [r0, #0]
    3f1e:	2928      	cmp	r1, #40	; 0x28
    3f20:	d008      	beq.n	3f34 <gemeinsame_schleifenoptimierung+0x3a>
    3f22:	f847 6d04 	str.w	r6, [r7, #-4]!
    3f26:	f240 0604 	movw	r6, #4
    3f2a:	00c9      	lsls	r1, r1, #3
    3f2c:	430e      	orrs	r6, r1
    3f2e:	f7ff fa03 	bl	3338 <Code_811>
    3f32:	e007      	b.n	3f44 <gemeinsame_schleifenoptimierung+0x4a>
    3f34:	f847 6d04 	str.w	r6, [r7, #-4]!
    3f38:	6846      	ldr	r6, [r0, #4]
    3f3a:	f847 6d04 	str.w	r6, [r7, #-4]!
    3f3e:	2604      	movs	r6, #4
    3f40:	f7fe fe9e 	bl	2c80 <Code_680>
    3f44:	6881      	ldr	r1, [r0, #8]
    3f46:	2928      	cmp	r1, #40	; 0x28
    3f48:	d008      	beq.n	3f5c <gemeinsame_schleifenoptimierung+0x62>
    3f4a:	f847 6d04 	str.w	r6, [r7, #-4]!
    3f4e:	f240 0605 	movw	r6, #5
    3f52:	00c9      	lsls	r1, r1, #3
    3f54:	430e      	orrs	r6, r1
    3f56:	f7ff f9ef 	bl	3338 <Code_811>
    3f5a:	e007      	b.n	3f6c <gemeinsame_schleifenoptimierung+0x72>
    3f5c:	f847 6d04 	str.w	r6, [r7, #-4]!
    3f60:	68c6      	ldr	r6, [r0, #12]
    3f62:	f847 6d04 	str.w	r6, [r7, #-4]!
    3f66:	2605      	movs	r6, #5
    3f68:	f7fe fe8a 	bl	2c80 <Code_680>
    3f6c:	f7fc f9bf 	bl	2ee <eliminiere_tos>
    3f70:	f7fc f9bd 	bl	2ee <eliminiere_tos>
    3f74:	f7fc fa06 	bl	384 <tidyup_register_allocator_tos>
    3f78:	bd00      	pop	{pc}
    3f7a:	000c0000 	andeq	r0, ip, r0
    3f7e:	3e0e2000 	cdpcc	0, 0, cr2, cr14, cr0, {0}
    3f82:	3e5c0000 	cdpcc	0, 5, cr0, cr12, cr0, {0}
    3f86:	3de40000 	stclcc	0, cr0, [r4]
    3f8a:	3e9e0000 	cdpcc	0, 9, cr0, cr14, cr0, {0}
	...

00003f90 <Dictionary_1057>:
    3f90:	00003fb0 			; <UNDEFINED> instruction: 0x00003fb0
    3f94:	63040030 	movwvs	r0, #16432	; 0x4030
    3f98:	00657361 	rsbeq	r7, r5, r1, ror #6

00003f9c <Code_1057>:
    3f9c:	b500      	push	{lr}
    3f9e:	f7fc fb3a 	bl	616 <push_lr_nachholen>
    3fa2:	f847 6d04 	str.w	r6, [r7, #-4]!
    3fa6:	2600      	movs	r6, #0
    3fa8:	f847 6d04 	str.w	r6, [r7, #-4]!
    3fac:	2608      	movs	r6, #8
    3fae:	bd00      	pop	{pc}

00003fb0 <Dictionary_1062>:
    3fb0:	00003fc6 	andeq	r3, r0, r6, asr #31
    3fb4:	3f030030 	svccc	0x00030030
    3fb8:	4871666f 	ldmdami	r1!, {r0, r1, r2, r3, r5, r6, r9, sl, sp, lr}^

00003fba <Code_1062>:
    3fba:	4871      	ldr	r0, [pc, #452]	; (4180 <Code_1097+0x4c>)
    3fbc:	e009      	b.n	3fd2 <of_inneneinsprung>

00003fbe <struktur_qof>:
    3fbe:	3e01      	subs	r6, #1
    3fc0:	41b6      	sbcs	r6, r6
    3fc2:	cf40      	ldmia	r7!, {r6}
    3fc4:	4770      	bx	lr

00003fc6 <Dictionary_1064>:
    3fc6:	0000408c 	andeq	r4, r0, ip, lsl #1
    3fca:	6f020230 	svcvs	0x00020230
    3fce:	486c0066 	stmdami	ip!, {r1, r2, r5, r6}^

00003fd0 <Code_1064>:
    3fd0:	486c      	ldr	r0, [pc, #432]	; (4184 <Code_1097+0x50>)

00003fd2 <of_inneneinsprung>:
    3fd2:	2e08      	cmp	r6, #8
    3fd4:	d000      	beq.n	3fd8 <of_inneneinsprung+0x6>
    3fd6:	e613      	b.n	3c00 <strukturen_passen_nicht>
    3fd8:	cf40      	ldmia	r7!, {r6}
    3fda:	b500      	push	{lr}
    3fdc:	f847 6d04 	str.w	r6, [r7, #-4]!
    3fe0:	0006      	movs	r6, r0
    3fe2:	f7fe ff7d 	bl	2ee0 <Code_725>

00003fe6 <of_opcodiereinsprung>:
    3fe6:	f7ff fd62 	bl	3aae <branch_v>
    3fea:	6839      	ldr	r1, [r7, #0]
    3fec:	603e      	str	r6, [r7, #0]
    3fee:	460e      	mov	r6, r1
    3ff0:	3601      	adds	r6, #1
    3ff2:	f847 6d04 	str.w	r6, [r7, #-4]!
    3ff6:	2609      	movs	r6, #9
    3ff8:	f847 6d04 	str.w	r6, [r7, #-4]!
    3ffc:	f64c 7640 	movw	r6, #53056	; 0xcf40
    4000:	f7ff f99a 	bl	3338 <Code_811>
    4004:	bd00      	pop	{pc}
    4006:	2e08      	cmp	r6, #8
    4008:	d000      	beq.n	400c <BIT14+0xc>
    400a:	e5f9      	b.n	3c00 <strukturen_passen_nicht>
    400c:	cf40      	ldmia	r7!, {r6}
    400e:	b500      	push	{lr}
    4010:	f7fc fa78 	bl	504 <expect_two_elements>
    4014:	f7fc f9a2 	bl	35c <tidyup_register_allocator_5os>
    4018:	f7fc f9a5 	bl	366 <tidyup_register_allocator_4os>
    401c:	f7fc f9a8 	bl	370 <tidyup_register_allocator_3os>
    4020:	f847 6d04 	str.w	r6, [r7, #-4]!
    4024:	f244 2680 	movw	r6, #17024	; 0x4280
    4028:	f7fc faa8 	bl	57c <expect_nos_in_register>
    402c:	430e      	orrs	r6, r1
    402e:	6802      	ldr	r2, [r0, #0]
    4030:	2a28      	cmp	r2, #40	; 0x28
    4032:	d11e      	bne.n	4072 <BIT14+0x72>
    4034:	6842      	ldr	r2, [r0, #4]
    4036:	2aff      	cmp	r2, #255	; 0xff
    4038:	d808      	bhi.n	404c <BIT14+0x4c>
    403a:	cf40      	ldmia	r7!, {r6}
    403c:	f847 6d04 	str.w	r6, [r7, #-4]!
    4040:	f642 0600 	movw	r6, #10240	; 0x2800
    4044:	4316      	orrs	r6, r2
    4046:	0209      	lsls	r1, r1, #8
    4048:	430e      	orrs	r6, r1
    404a:	e014      	b.n	4076 <BIT14+0x76>
    404c:	f847 6d04 	str.w	r6, [r7, #-4]!
    4050:	6846      	ldr	r6, [r0, #4]
    4052:	f7fe fd61 	bl	2b18 <Code_671>
    4056:	cf04      	ldmia	r7!, {r2}
    4058:	2e00      	cmp	r6, #0
    405a:	cf40      	ldmia	r7!, {r6}
    405c:	d006      	beq.n	406c <BIT14+0x6c>
    405e:	4e4a      	ldr	r6, [pc, #296]	; (4188 <Code_1097+0x54>)
    4060:	4316      	orrs	r6, r2
    4062:	ea56 4601 	orrs.w	r6, r6, r1, lsl #16
    4066:	f7ff f996 	bl	3396 <Code_820>
    406a:	e006      	b.n	407a <BIT14+0x7a>
    406c:	f7fc fa7c 	bl	568 <expect_tos_in_register>
    4070:	000a      	movs	r2, r1
    4072:	00d2      	lsls	r2, r2, #3
    4074:	4316      	orrs	r6, r2
    4076:	f7ff f95f 	bl	3338 <Code_811>
    407a:	f7fc f938 	bl	2ee <eliminiere_tos>
    407e:	f7fc f981 	bl	384 <tidyup_register_allocator_tos>
    4082:	e7b0      	b.n	3fe6 <of_opcodiereinsprung>

00004084 <struktur_of>:
    4084:	0030      	movs	r0, r6
    4086:	cf40      	ldmia	r7!, {r6}
    4088:	42b0      	cmp	r0, r6
    408a:	4770      	bx	lr

0000408c <Dictionary_1082>:
    408c:	000040c2 	andeq	r4, r0, r2, asr #1
    4090:	65050030 	strvs	r0, [r5, #-48]	; 0x30
    4094:	666f646e 	strbtvs	r6, [pc], -lr, ror #8

00004098 <Code_1082>:
    4098:	2e09      	cmp	r6, #9
    409a:	d000      	beq.n	409e <Code_1082+0x6>
    409c:	e5b0      	b.n	3c00 <strukturen_passen_nicht>
    409e:	cf40      	ldmia	r7!, {r6}
    40a0:	b500      	push	{lr}
    40a2:	b440      	push	{r6}
    40a4:	cf40      	ldmia	r7!, {r6}
    40a6:	f7ff fd02 	bl	3aae <branch_v>
    40aa:	6839      	ldr	r1, [r7, #0]
    40ac:	603e      	str	r6, [r7, #0]
    40ae:	460e      	mov	r6, r1
    40b0:	f7ff fd16 	bl	3ae0 <v_casebranch>
    40b4:	f847 6d04 	str.w	r6, [r7, #-4]!
    40b8:	bc40      	pop	{r6}
    40ba:	f847 6d04 	str.w	r6, [r7, #-4]!
    40be:	2608      	movs	r6, #8
    40c0:	bd00      	pop	{pc}

000040c2 <Dictionary_1090>:
    40c2:	00004114 	andeq	r4, r0, r4, lsl r1
    40c6:	65070030 	strvs	r0, [r7, #-48]	; 0x30
    40ca:	6163646e 	cmnvs	r3, lr, ror #8
    40ce:	2e086573 	cfrshl64cs	mvdx8, mvdx3, r6

000040d0 <Code_1090>:
    40d0:	2e08      	cmp	r6, #8
    40d2:	d000      	beq.n	40d6 <Code_1090+0x6>
    40d4:	e594      	b.n	3c00 <strukturen_passen_nicht>
    40d6:	cf40      	ldmia	r7!, {r6}
    40d8:	b500      	push	{lr}
    40da:	f847 6d04 	str.w	r6, [r7, #-4]!
    40de:	f64c 7640 	movw	r6, #53056	; 0xcf40
    40e2:	f7ff f929 	bl	3338 <Code_811>
    40e6:	f000 f801 	bl	40ec <spruenge_einpflegen>
    40ea:	bd00      	pop	{pc}

000040ec <spruenge_einpflegen>:
    40ec:	b500      	push	{lr}
    40ee:	0030      	movs	r0, r6
    40f0:	cf40      	ldmia	r7!, {r6}
    40f2:	2800      	cmp	r0, #0
    40f4:	d00d      	beq.n	4112 <spruenge_einpflegen+0x26>
    40f6:	b403      	push	{r0, r1}
    40f8:	2101      	movs	r1, #1
    40fa:	4031      	ands	r1, r6
    40fc:	2900      	cmp	r1, #0
    40fe:	d003      	beq.n	4108 <spruenge_einpflegen+0x1c>
    4100:	3e01      	subs	r6, #1
    4102:	f7ff fce3 	bl	3acc <v_nullbranch>
    4106:	e001      	b.n	410c <spruenge_einpflegen+0x20>
    4108:	f7ff fcda 	bl	3ac0 <v_branch>
    410c:	bc03      	pop	{r0, r1}
    410e:	3801      	subs	r0, #1
    4110:	e7ef      	b.n	40f2 <spruenge_einpflegen+0x6>
    4112:	bd00      	pop	{pc}

00004114 <Dictionary_1095>:
    4114:	00004128 	andeq	r4, r0, r8, lsr #2
    4118:	74050000 	strvc	r0, [r5]
    411c:	6e656b6f 	vnmulvs.f64	d22, d5, d31

00004120 <Code_1095>:
    4120:	f847 6d04 	str.w	r6, [r7, #-4]!
    4124:	2620      	movs	r6, #32
    4126:	e005      	b.n	4134 <Code_1097>

00004128 <Dictionary_1097>:
    4128:	00004190 	muleq	r0, r0, r1
    412c:	70050000 	andvc	r0, r5, r0
    4130:	65737261 	ldrbvs	r7, [r3, #-609]!	; 0x261

00004134 <Code_1097>:
    4134:	b510      	push	{r4, lr}
    4136:	f7fe faf4 	bl	2722 <Code_579>
    413a:	0031      	movs	r1, r6
    413c:	cf40      	ldmia	r7!, {r6}
    413e:	0030      	movs	r0, r6
    4140:	cf40      	ldmia	r7!, {r6}
    4142:	4a12      	ldr	r2, [pc, #72]	; (418c <Code_1097+0x58>)
    4144:	6812      	ldr	r2, [r2, #0]
    4146:	1884      	adds	r4, r0, r2
    4148:	2e20      	cmp	r6, #32
    414a:	d107      	bne.n	415c <Code_1097+0x28>
    414c:	4291      	cmp	r1, r2
    414e:	d00f      	beq.n	4170 <Code_1097+0x3c>
    4150:	5c83      	ldrb	r3, [r0, r2]
    4152:	42b3      	cmp	r3, r6
    4154:	d102      	bne.n	415c <Code_1097+0x28>
    4156:	3201      	adds	r2, #1
    4158:	1884      	adds	r4, r0, r2
    415a:	e7f7      	b.n	414c <Code_1097+0x18>
    415c:	4291      	cmp	r1, r2
    415e:	d007      	beq.n	4170 <Code_1097+0x3c>
    4160:	5c83      	ldrb	r3, [r0, r2]
    4162:	3201      	adds	r2, #1
    4164:	42b3      	cmp	r3, r6
    4166:	d1f9      	bne.n	415c <Code_1097+0x28>
    4168:	1886      	adds	r6, r0, r2
    416a:	1b36      	subs	r6, r6, r4
    416c:	3e01      	subs	r6, #1
    416e:	e001      	b.n	4174 <Code_1097+0x40>
    4170:	1886      	adds	r6, r0, r2
    4172:	1b36      	subs	r6, r6, r4
    4174:	3f04      	subs	r7, #4
    4176:	603c      	str	r4, [r7, #0]
    4178:	4804      	ldr	r0, [pc, #16]	; (418c <Code_1097+0x58>)
    417a:	6002      	str	r2, [r0, #0]
    417c:	bd10      	pop	{r4, pc}
    417e:	3fbe0000 	svccc	0x00be0000
    4182:	40840000 	addmi	r0, r4, r0
    4186:	0f000000 	svceq	0x00000000
    418a:	ffe4f1b0 			; <UNDEFINED> instruction: 0xffe4f1b0
    418e:	41ce2003 	bicmi	r2, lr, r3

00004190 <Dictionary_1100>:
    4190:	000041ce 	andeq	r4, r0, lr, asr #3
    4194:	64050000 	strvs	r0, [r5]
    4198:	74696769 	strbtvc	r6, [r9], #-1897	; 0x769

0000419c <Code_1100>:
    419c:	4bcf      	ldr	r3, [pc, #828]	; (44dc <Code_1163+0xa>)
    419e:	681b      	ldr	r3, [r3, #0]

000041a0 <digit_base_r3>:
    41a0:	3e30      	subs	r6, #48	; 0x30
    41a2:	d30b      	bcc.n	41bc <digit_base_r3+0x1c>
    41a4:	2e0a      	cmp	r6, #10
    41a6:	d30b      	bcc.n	41c0 <digit_base_r3+0x20>
    41a8:	3e07      	subs	r6, #7
    41aa:	2e0a      	cmp	r6, #10
    41ac:	d306      	bcc.n	41bc <digit_base_r3+0x1c>
    41ae:	2e24      	cmp	r6, #36	; 0x24
    41b0:	d306      	bcc.n	41c0 <digit_base_r3+0x20>
    41b2:	3e20      	subs	r6, #32
    41b4:	2e0a      	cmp	r6, #10
    41b6:	d301      	bcc.n	41bc <digit_base_r3+0x1c>
    41b8:	2e24      	cmp	r6, #36	; 0x24
    41ba:	d301      	bcc.n	41c0 <digit_base_r3+0x20>
    41bc:	2600      	movs	r6, #0
    41be:	4770      	bx	lr
    41c0:	429e      	cmp	r6, r3
    41c2:	d2fb      	bcs.n	41bc <digit_base_r3+0x1c>
    41c4:	f847 6d04 	str.w	r6, [r7, #-4]!
    41c8:	2600      	movs	r6, #0
    41ca:	43f6      	mvns	r6, r6
    41cc:	4770      	bx	lr

000041ce <Dictionary_1102>:
    41ce:	000042d8 	ldrdeq	r4, [r0], -r8
    41d2:	6e060000 	cdpvs	0, 0, cr0, cr6, cr0, {0}
    41d6:	65626d75 	strbvs	r6, [r2, #-3445]!	; 0xd75
    41da:	b53f0072 	ldrlt	r0, [pc, #-114]!	; 4170 <Code_1097+0x3c>

000041dc <Code_1102>:
    41dc:	b53f      	push	{r0, r1, r2, r3, r4, r5, lr}
    41de:	0031      	movs	r1, r6
    41e0:	cf40      	ldmia	r7!, {r6}
    41e2:	1e70      	subs	r0, r6, #1
    41e4:	2601      	movs	r6, #1
    41e6:	2201      	movs	r2, #1
    41e8:	b404      	push	{r2}
    41ea:	4bbc      	ldr	r3, [pc, #752]	; (44dc <Code_1163+0xa>)
    41ec:	681b      	ldr	r3, [r3, #0]
    41ee:	2400      	movs	r4, #0
    41f0:	2500      	movs	r5, #0
    41f2:	2900      	cmp	r1, #0
    41f4:	d03c      	beq.n	4270 <Code_1102+0x94>
    41f6:	3001      	adds	r0, #1
    41f8:	3901      	subs	r1, #1
    41fa:	7802      	ldrb	r2, [r0, #0]
    41fc:	2a2d      	cmp	r2, #45	; 0x2d
    41fe:	d104      	bne.n	420a <Code_1102+0x2e>
    4200:	b001      	add	sp, #4
    4202:	2200      	movs	r2, #0
    4204:	43d2      	mvns	r2, r2
    4206:	b404      	push	{r2}
    4208:	e7f3      	b.n	41f2 <Code_1102+0x16>
    420a:	2a23      	cmp	r2, #35	; 0x23
    420c:	d101      	bne.n	4212 <Code_1102+0x36>
    420e:	230a      	movs	r3, #10
    4210:	e7ef      	b.n	41f2 <Code_1102+0x16>
    4212:	2a24      	cmp	r2, #36	; 0x24
    4214:	d101      	bne.n	421a <Code_1102+0x3e>
    4216:	2310      	movs	r3, #16
    4218:	e7eb      	b.n	41f2 <Code_1102+0x16>
    421a:	2a25      	cmp	r2, #37	; 0x25
    421c:	d101      	bne.n	4222 <Code_1102+0x46>
    421e:	2302      	movs	r3, #2
    4220:	e7e7      	b.n	41f2 <Code_1102+0x16>
    4222:	2a2e      	cmp	r2, #46	; 0x2e
    4224:	d101      	bne.n	422a <Code_1102+0x4e>
    4226:	2602      	movs	r6, #2
    4228:	e7e3      	b.n	41f2 <Code_1102+0x16>
    422a:	2a2c      	cmp	r2, #44	; 0x2c
    422c:	d036      	beq.n	429c <number_nachkommastellen>
    422e:	f847 6d04 	str.w	r6, [r7, #-4]!
    4232:	0016      	movs	r6, r2
    4234:	f7ff ffb4 	bl	41a0 <digit_base_r3>
    4238:	2e00      	cmp	r6, #0
    423a:	cf40      	ldmia	r7!, {r6}
    423c:	d02b      	beq.n	4296 <Code_1102+0xba>
    423e:	f847 6d04 	str.w	r6, [r7, #-4]!
    4242:	0026      	movs	r6, r4
    4244:	f847 6d04 	str.w	r6, [r7, #-4]!
    4248:	002e      	movs	r6, r5
    424a:	f847 6d04 	str.w	r6, [r7, #-4]!
    424e:	001e      	movs	r6, r3
    4250:	f847 6d04 	str.w	r6, [r7, #-4]!
    4254:	2600      	movs	r6, #0
    4256:	b40f      	push	{r0, r1, r2, r3}
    4258:	f7fc fbe5 	bl	a26 <Code_116>
    425c:	bc0f      	pop	{r0, r1, r2, r3}
    425e:	0035      	movs	r5, r6
    4260:	cf40      	ldmia	r7!, {r6}
    4262:	0034      	movs	r4, r6
    4264:	cf40      	ldmia	r7!, {r6}
    4266:	2200      	movs	r2, #0
    4268:	19a4      	adds	r4, r4, r6
    426a:	4155      	adcs	r5, r2
    426c:	cf40      	ldmia	r7!, {r6}
    426e:	e7c0      	b.n	41f2 <Code_1102+0x16>
    4270:	bc04      	pop	{r2}
    4272:	2a00      	cmp	r2, #0
    4274:	d504      	bpl.n	4280 <Code_1102+0xa4>
    4276:	2200      	movs	r2, #0
    4278:	43e4      	mvns	r4, r4
    427a:	43ed      	mvns	r5, r5
    427c:	3401      	adds	r4, #1
    427e:	4155      	adcs	r5, r2
    4280:	0033      	movs	r3, r6
    4282:	0026      	movs	r6, r4
    4284:	2b01      	cmp	r3, #1
    4286:	d002      	beq.n	428e <Code_1102+0xb2>
    4288:	f847 6d04 	str.w	r6, [r7, #-4]!
    428c:	002e      	movs	r6, r5
    428e:	f847 6d04 	str.w	r6, [r7, #-4]!
    4292:	001e      	movs	r6, r3
    4294:	bd3f      	pop	{r0, r1, r2, r3, r4, r5, pc}
    4296:	b001      	add	sp, #4
    4298:	2600      	movs	r6, #0
    429a:	bd3f      	pop	{r0, r1, r2, r3, r4, r5, pc}

0000429c <number_nachkommastellen>:
    429c:	0025      	movs	r5, r4
    429e:	2400      	movs	r4, #0
    42a0:	2602      	movs	r6, #2
    42a2:	2900      	cmp	r1, #0
    42a4:	d0e4      	beq.n	4270 <Code_1102+0x94>
    42a6:	5c42      	ldrb	r2, [r0, r1]
    42a8:	3901      	subs	r1, #1
    42aa:	2a2e      	cmp	r2, #46	; 0x2e
    42ac:	d0f9      	beq.n	42a2 <number_nachkommastellen+0x6>
    42ae:	f847 6d04 	str.w	r6, [r7, #-4]!
    42b2:	0016      	movs	r6, r2
    42b4:	f7ff ff74 	bl	41a0 <digit_base_r3>
    42b8:	2e00      	cmp	r6, #0
    42ba:	cf40      	ldmia	r7!, {r6}
    42bc:	d0eb      	beq.n	4296 <Code_1102+0xba>
    42be:	3f04      	subs	r7, #4
    42c0:	603c      	str	r4, [r7, #0]
    42c2:	f847 6d04 	str.w	r6, [r7, #-4]!
    42c6:	001e      	movs	r6, r3
    42c8:	b40f      	push	{r0, r1, r2, r3}
    42ca:	f7fc fc5b 	bl	b84 <Code_152>
    42ce:	bc0f      	pop	{r0, r1, r2, r3}
    42d0:	0034      	movs	r4, r6
    42d2:	cf40      	ldmia	r7!, {r6}
    42d4:	cf40      	ldmia	r7!, {r6}
    42d6:	e7e4      	b.n	42a2 <number_nachkommastellen+0x6>

000042d8 <Dictionary_1129>:
    42d8:	000042fa 	strdeq	r4, [r0], -sl
    42dc:	2e060000 	cdpcs	0, 0, cr0, cr6, cr0, {0}
    42e0:	69676964 	stmdbvs	r7!, {r2, r5, r6, r8, fp, sp, lr}^
    42e4:	2e0a0074 	mcrcs	0, 0, r0, cr10, cr4, {3}

000042e6 <Code_1129>:
    42e6:	2e0a      	cmp	r6, #10
    42e8:	d201      	bcs.n	42ee <Code_1129+0x8>
    42ea:	3630      	adds	r6, #48	; 0x30
    42ec:	4770      	bx	lr
    42ee:	2e24      	cmp	r6, #36	; 0x24
    42f0:	d201      	bcs.n	42f6 <Code_1129+0x10>
    42f2:	3637      	adds	r6, #55	; 0x37
    42f4:	4770      	bx	lr
    42f6:	2623      	movs	r6, #35	; 0x23
    42f8:	4770      	bx	lr

000042fa <Dictionary_1130>:
    42fa:	00004330 	andeq	r4, r0, r0, lsr r3
    42fe:	68040000 	stmdavs	r4, {}	; <UNPREDICTABLE>
    4302:	00646c6f 	rsbeq	r6, r4, pc, ror #24

00004306 <Code_1130>:
    4306:	0033      	movs	r3, r6
    4308:	cf40      	ldmia	r7!, {r6}
    430a:	4875      	ldr	r0, [pc, #468]	; (44e0 <Code_1163+0xe>)
    430c:	7801      	ldrb	r1, [r0, #0]
    430e:	293f      	cmp	r1, #63	; 0x3f
    4310:	d20d      	bcs.n	432e <Code_1130+0x28>
    4312:	3101      	adds	r1, #1
    4314:	7001      	strb	r1, [r0, #0]
    4316:	1840      	adds	r0, r0, r1
    4318:	2901      	cmp	r1, #1
    431a:	d007      	beq.n	432c <Code_1130+0x26>
    431c:	3801      	subs	r0, #1
    431e:	7802      	ldrb	r2, [r0, #0]
    4320:	3001      	adds	r0, #1
    4322:	7002      	strb	r2, [r0, #0]
    4324:	3801      	subs	r0, #1
    4326:	3901      	subs	r1, #1
    4328:	2901      	cmp	r1, #1
    432a:	d1f7      	bne.n	431c <Code_1130+0x16>
    432c:	7003      	strb	r3, [r0, #0]
    432e:	4770      	bx	lr

00004330 <Dictionary_1132>:
    4330:	00004350 	andeq	r4, r0, r0, asr r3
    4334:	68050000 	stmdavs	r5, {}	; <UNPREDICTABLE>
    4338:	3c646c6f 	stclcc	12, cr6, [r4], #-444	; 0xfffffe44

0000433c <Code_1132>:
    433c:	0033      	movs	r3, r6
    433e:	cf40      	ldmia	r7!, {r6}
    4340:	4867      	ldr	r0, [pc, #412]	; (44e0 <Code_1163+0xe>)
    4342:	7801      	ldrb	r1, [r0, #0]
    4344:	293f      	cmp	r1, #63	; 0x3f
    4346:	d202      	bcs.n	434e <Code_1132+0x12>
    4348:	3101      	adds	r1, #1
    434a:	7001      	strb	r1, [r0, #0]
    434c:	5443      	strb	r3, [r0, r1]
    434e:	4770      	bx	lr

00004350 <Dictionary_1134>:
    4350:	00004368 	andeq	r4, r0, r8, ror #6
    4354:	73040000 	movwvc	r0, #16384	; 0x4000
    4358:	006e6769 	rsbeq	r6, lr, r9, ror #14

0000435c <Code_1134>:
    435c:	2e00      	cmp	r6, #0
    435e:	d401      	bmi.n	4364 <Code_1134+0x8>
    4360:	cf40      	ldmia	r7!, {r6}
    4362:	4770      	bx	lr
    4364:	262d      	movs	r6, #45	; 0x2d
    4366:	e7ce      	b.n	4306 <Code_1130>

00004368 <Dictionary_1136>:
    4368:	0000437c 	andeq	r4, r0, ip, ror r3
    436c:	23020000 	movwcs	r0, #8192	; 0x2000
    4370:	485b003e 	ldmdami	fp, {r1, r2, r3, r4, r5}^

00004372 <Code_1136>:
    4372:	485b      	ldr	r0, [pc, #364]	; (44e0 <Code_1163+0xe>)
    4374:	7806      	ldrb	r6, [r0, #0]
    4376:	3001      	adds	r0, #1
    4378:	6038      	str	r0, [r7, #0]
    437a:	4770      	bx	lr

0000437c <Dictionary_1137>:
    437c:	00004394 	muleq	r0, r4, r3
    4380:	66030000 	strvs	r0, [r3], -r0
    4384:	b5105323 	ldrlt	r5, [r0, #-803]	; 0x323

00004386 <Code_1137>:
    4386:	b510      	push	{r4, lr}
    4388:	2420      	movs	r4, #32
    438a:	f000 f808 	bl	439e <Code_1138>
    438e:	3c01      	subs	r4, #1
    4390:	d1fb      	bne.n	438a <Code_1137+0x4>
    4392:	bd10      	pop	{r4, pc}

00004394 <Dictionary_1138>:
    4394:	000043b6 			; <UNDEFINED> instruction: 0x000043b6
    4398:	66020000 	strvs	r0, [r2], -r0
    439c:	b5000023 	strlt	r0, [r0, #-35]	; 0x23

0000439e <Code_1138>:
    439e:	b500      	push	{lr}
    43a0:	f847 6d04 	str.w	r6, [r7, #-4]!
    43a4:	4e4d      	ldr	r6, [pc, #308]	; (44dc <Code_1163+0xa>)
    43a6:	6836      	ldr	r6, [r6, #0]
    43a8:	f7fc faff 	bl	9aa <Code_112>
    43ac:	f7ff ff9b 	bl	42e6 <Code_1129>
    43b0:	f7ff ffc4 	bl	433c <Code_1132>
    43b4:	bd00      	pop	{pc}

000043b6 <Dictionary_1140>:
    43b6:	000043d2 	ldrdeq	r4, [r0], -r2
    43ba:	23020000 	movwcs	r0, #8192	; 0x2000
    43be:	b5000053 	strlt	r0, [r0, #-83]	; 0x53

000043c0 <Code_1140>:
    43c0:	b500      	push	{lr}
    43c2:	f000 f80a 	bl	43da <Code_1141>
    43c6:	2e00      	cmp	r6, #0
    43c8:	d1fb      	bne.n	43c2 <Code_1140+0x2>
    43ca:	6838      	ldr	r0, [r7, #0]
    43cc:	2800      	cmp	r0, #0
    43ce:	d1f8      	bne.n	43c2 <Code_1140+0x2>
    43d0:	bd00      	pop	{pc}

000043d2 <Dictionary_1141>:
    43d2:	000043fe 	strdeq	r4, [r0], -lr
    43d6:	23010000 	movwcs	r0, #4096	; 0x1000

000043da <Code_1141>:
    43da:	b500      	push	{lr}
    43dc:	f847 6d04 	str.w	r6, [r7, #-4]!
    43e0:	4e3e      	ldr	r6, [pc, #248]	; (44dc <Code_1163+0xa>)
    43e2:	6836      	ldr	r6, [r6, #0]
    43e4:	f847 6d04 	str.w	r6, [r7, #-4]!
    43e8:	2600      	movs	r6, #0
    43ea:	f7fc fbea 	bl	bc2 <Code_161>
    43ee:	f7fc f94a 	bl	686 <Code_72>
    43f2:	cf40      	ldmia	r7!, {r6}
    43f4:	f7ff ff77 	bl	42e6 <Code_1129>
    43f8:	f7ff ff85 	bl	4306 <Code_1130>
    43fc:	bd00      	pop	{pc}

000043fe <Dictionary_1146>:
    43fe:	00004410 	andeq	r4, r0, r0, lsl r4
    4402:	3c020000 	stccc	0, cr0, [r2], {0}
    4406:	48350023 	ldmdami	r5!, {r0, r1, r5}

00004408 <Code_1146>:
    4408:	4835      	ldr	r0, [pc, #212]	; (44e0 <Code_1163+0xe>)
    440a:	2100      	movs	r1, #0
    440c:	7001      	strb	r1, [r0, #0]
    440e:	4770      	bx	lr

00004410 <Dictionary_1147>:
    4410:	00004422 	andeq	r4, r0, r2, lsr #8
    4414:	66020000 	strvs	r0, [r2], -r0
    4418:	f847002e 			; <UNDEFINED> instruction: 0xf847002e

0000441a <Code_1147>:
    441a:	f847 6d04 	str.w	r6, [r7, #-4]!
    441e:	2620      	movs	r6, #32
    4420:	e004      	b.n	442c <Code_1150>

00004422 <Dictionary_1150>:
    4422:	00004470 	andeq	r4, r0, r0, ror r4
    4426:	66030000 	strvs	r0, [r3], -r0
    442a:	b5006e2e 	strlt	r6, [r0, #-3630]	; 0xe2e

0000442c <Code_1150>:
    442c:	b500      	push	{lr}
    442e:	b410      	push	{r4}
    4430:	0034      	movs	r4, r6
    4432:	cf40      	ldmia	r7!, {r6}
    4434:	f7fc fdf6 	bl	1024 <Code_208>
    4438:	f7fc fa3c 	bl	8b4 <Code_100>
    443c:	f847 6d04 	str.w	r6, [r7, #-4]!
    4440:	2600      	movs	r6, #0
    4442:	f7ff ffe1 	bl	4408 <Code_1146>
    4446:	f7ff ffbb 	bl	43c0 <Code_1140>
    444a:	cf40      	ldmia	r7!, {r6}
    444c:	262c      	movs	r6, #44	; 0x2c
    444e:	f7ff ff75 	bl	433c <Code_1132>
    4452:	2c00      	cmp	r4, #0
    4454:	d003      	beq.n	445e <Code_1150+0x32>
    4456:	f7ff ffa2 	bl	439e <Code_1138>
    445a:	3c01      	subs	r4, #1
    445c:	d1fb      	bne.n	4456 <Code_1150+0x2a>
    445e:	bc10      	pop	{r4}
    4460:	cf40      	ldmia	r7!, {r6}
    4462:	f7ff ff7b 	bl	435c <Code_1134>
    4466:	f847 6d04 	str.w	r6, [r7, #-4]!
    446a:	f847 6d04 	str.w	r6, [r7, #-4]!
    446e:	e01c      	b.n	44aa <abschluss_zahlenausgabe>

00004470 <Dictionary_1158>:
    4470:	00004486 	andeq	r4, r0, r6, lsl #9
    4474:	75030000 	strvc	r0, [r3]
    4478:	b5002e64 	strlt	r2, [r0, #-3684]	; 0xe64

0000447a <Code_1158>:
    447a:	b500      	push	{lr}
    447c:	f7ff ffc4 	bl	4408 <Code_1146>
    4480:	f7ff ff9e 	bl	43c0 <Code_1140>
    4484:	e011      	b.n	44aa <abschluss_zahlenausgabe>

00004486 <Dictionary_1159>:
    4486:	000044b8 			; <UNDEFINED> instruction: 0x000044b8
    448a:	64020000 	strvs	r0, [r2]
    448e:	b500002e 	strlt	r0, [r0, #-46]	; 0x2e

00004490 <Code_1159>:
    4490:	b500      	push	{lr}
    4492:	f7fc fdc7 	bl	1024 <Code_208>
    4496:	f7fc fa0d 	bl	8b4 <Code_100>
    449a:	f7ff ffb5 	bl	4408 <Code_1146>
    449e:	f7ff ff8f 	bl	43c0 <Code_1140>
    44a2:	f7fc fdd1 	bl	1048 <Code_209>
    44a6:	f7ff ff59 	bl	435c <Code_1134>

000044aa <abschluss_zahlenausgabe>:
    44aa:	f7ff ff62 	bl	4372 <Code_1136>
    44ae:	f7fe fa4a 	bl	2946 <Code_631>
    44b2:	f7fe f99b 	bl	27ec <Code_596>
    44b6:	bd00      	pop	{pc}

000044b8 <Dictionary_1160>:
    44b8:	000044ca 	andeq	r4, r0, sl, asr #9
    44bc:	75020000 	strvc	r0, [r2]
    44c0:	f847002e 			; <UNDEFINED> instruction: 0xf847002e

000044c2 <Code_1160>:
    44c2:	f847 6d04 	str.w	r6, [r7, #-4]!
    44c6:	2600      	movs	r6, #0
    44c8:	e7d7      	b.n	447a <Code_1158>

000044ca <Dictionary_1163>:
    44ca:	00004696 	muleq	r0, r6, r6
    44ce:	2e010000 	cdpcs	0, 0, cr0, cr1, cr0, {0}

000044d2 <Code_1163>:
    44d2:	f847 6d04 	str.w	r6, [r7, #-4]!
    44d6:	17f6      	asrs	r6, r6, #31
    44d8:	e7da      	b.n	4490 <Code_1159>
    44da:	fffc0000 			; <UNDEFINED> instruction: 0xfffc0000
    44de:	00842003 	addeq	r2, r4, r3
    44e2:	b5302000 	ldrlt	r2, [r0]!

000044e4 <konstantenfaltungszeiger_setzen>:
    44e4:	b530      	push	{r4, r5, lr}
    44e6:	4cd7      	ldr	r4, [pc, #860]	; (4844 <quit_innenschleife+0x16>)
    44e8:	6825      	ldr	r5, [r4, #0]
    44ea:	2d00      	cmp	r5, #0
    44ec:	d101      	bne.n	44f2 <konstantenfaltungszeiger_setzen+0xe>
    44ee:	003d      	movs	r5, r7
    44f0:	6025      	str	r5, [r4, #0]
    44f2:	bd30      	pop	{r4, r5, pc}

000044f4 <konstantenfaltungszeiger_neusetzen>:
    44f4:	b530      	push	{r4, r5, lr}
    44f6:	4cd3      	ldr	r4, [pc, #844]	; (4844 <quit_innenschleife+0x16>)
    44f8:	003d      	movs	r5, r7
    44fa:	6025      	str	r5, [r4, #0]
    44fc:	bd30      	pop	{r4, r5, pc}

000044fe <konstantenfaltungszeiger_loeschen>:
    44fe:	b530      	push	{r4, r5, lr}
    4500:	4cd0      	ldr	r4, [pc, #832]	; (4844 <quit_innenschleife+0x16>)
    4502:	2500      	movs	r5, #0
    4504:	6025      	str	r5, [r4, #0]
    4506:	bd30      	pop	{r4, r5, pc}

00004508 <wievielefaltkonstanten>:
    4508:	4bce      	ldr	r3, [pc, #824]	; (4844 <quit_innenschleife+0x16>)
    450a:	681b      	ldr	r3, [r3, #0]
    450c:	1bdb      	subs	r3, r3, r7
    450e:	089b      	lsrs	r3, r3, #2
    4510:	4770      	bx	lr

00004512 <kompilator>:
    4512:	b500      	push	{lr}
    4514:	0031      	movs	r1, r6
    4516:	cf40      	ldmia	r7!, {r6}
    4518:	48cb      	ldr	r0, [pc, #812]	; (4848 <quit_innenschleife+0x1a>)
    451a:	4008      	ands	r0, r1
    451c:	d002      	beq.n	4524 <kompilator+0x12>
    451e:	f000 f8a2 	bl	4666 <inline_cache_parser>
    4522:	bd00      	pop	{pc}
    4524:	48c9      	ldr	r0, [pc, #804]	; (484c <quit_innenschleife+0x1e>)
    4526:	4008      	ands	r0, r1
    4528:	d101      	bne.n	452e <kompilator+0x1c>
    452a:	f7fd f8fc 	bl	1726 <sprungschreiber_flaggenerator>
    452e:	0032      	movs	r2, r6
    4530:	cf40      	ldmia	r7!, {r6}
    4532:	f7ff ffd7 	bl	44e4 <konstantenfaltungszeiger_setzen>
    4536:	48c6      	ldr	r0, [pc, #792]	; (4850 <quit_innenschleife+0x22>)
    4538:	4008      	ands	r0, r1
    453a:	d003      	beq.n	4544 <kompilator+0x32>
    453c:	f847 6d04 	str.w	r6, [r7, #-4]!
    4540:	0016      	movs	r6, r2
    4542:	bd00      	pop	{pc}
    4544:	f7ff ffe0 	bl	4508 <wievielefaltkonstanten>
    4548:	2080      	movs	r0, #128	; 0x80
    454a:	4008      	ands	r0, r1
    454c:	d106      	bne.n	455c <.interpret_faltoptimierung>
    454e:	2040      	movs	r0, #64	; 0x40
    4550:	4008      	ands	r0, r1
    4552:	d009      	beq.n	4568 <.interpret_allocator>

00004554 <.interpret_genugkonstanten>:
    4554:	200f      	movs	r0, #15
    4556:	4008      	ands	r0, r1
    4558:	4283      	cmp	r3, r0
    455a:	d305      	bcc.n	4568 <.interpret_allocator>

0000455c <.interpret_faltoptimierung>:
    455c:	f847 6d04 	str.w	r6, [r7, #-4]!
    4560:	0016      	movs	r6, r2
    4562:	f7fe fd6c 	bl	303e <Code_749>
    4566:	bd00      	pop	{pc}

00004568 <.interpret_allocator>:
    4568:	48ba      	ldr	r0, [pc, #744]	; (4854 <quit_innenschleife+0x26>)
    456a:	4008      	ands	r0, r1
    456c:	d014      	beq.n	4598 <.interpret_allocator_finished>
    456e:	f7fb fe58 	bl	222 <Code_31>
    4572:	f847 6d04 	str.w	r6, [r7, #-4]!
    4576:	0016      	movs	r6, r2
    4578:	f847 6d04 	str.w	r6, [r7, #-4]!
    457c:	000e      	movs	r6, r1
    457e:	f000 f830 	bl	45e2 <add_to_inline_cache>
    4582:	0010      	movs	r0, r2
    4584:	f7fe fcc3 	bl	2f0e <suchedefinitionsende>
    4588:	1c42      	adds	r2, r0, #1
    458a:	48b3      	ldr	r0, [pc, #716]	; (4858 <quit_innenschleife+0x2a>)
    458c:	4790      	blx	r2
    458e:	f7ff ffb1 	bl	44f4 <konstantenfaltungszeiger_neusetzen>
    4592:	f7fb fe55 	bl	240 <nfaltkonstanten_aufschwimmen>
    4596:	bd00      	pop	{pc}

00004598 <.interpret_allocator_finished>:
    4598:	f7fb fe43 	bl	222 <Code_31>
    459c:	f847 6d04 	str.w	r6, [r7, #-4]!
    45a0:	0016      	movs	r6, r2
    45a2:	f847 6d04 	str.w	r6, [r7, #-4]!
    45a6:	000e      	movs	r6, r1
    45a8:	f000 f81b 	bl	45e2 <add_to_inline_cache>
    45ac:	f7fb feca 	bl	344 <tidyup_register_allocator>
    45b0:	f7ff ffa5 	bl	44fe <konstantenfaltungszeiger_loeschen>
    45b4:	48a9      	ldr	r0, [pc, #676]	; (485c <quit_innenschleife+0x2e>)
    45b6:	4008      	ands	r0, r1
    45b8:	d101      	bne.n	45be <.prepared_for_classic>
    45ba:	f7fc f82c 	bl	616 <push_lr_nachholen>

000045be <.prepared_for_classic>:
    45be:	f847 6d04 	str.w	r6, [r7, #-4]!
    45c2:	0016      	movs	r6, r2
    45c4:	2210      	movs	r2, #16
    45c6:	400a      	ands	r2, r1
    45c8:	d002      	beq.n	45d0 <.prepared_for_classic+0x12>
    45ca:	f7fe fd38 	bl	303e <Code_749>
    45ce:	bd00      	pop	{pc}
    45d0:	2220      	movs	r2, #32
    45d2:	400a      	ands	r2, r1
    45d4:	d002      	beq.n	45dc <.prepared_for_classic+0x1e>
    45d6:	f7fe fc83 	bl	2ee0 <Code_725>
    45da:	bd00      	pop	{pc}
    45dc:	f7fe fbad 	bl	2d3a <Code_692>
    45e0:	bd00      	pop	{pc}

000045e2 <add_to_inline_cache>:
    45e2:	b50f      	push	{r0, r1, r2, r3, lr}
    45e4:	0032      	movs	r2, r6
    45e6:	cf40      	ldmia	r7!, {r6}
    45e8:	0033      	movs	r3, r6
    45ea:	cf40      	ldmia	r7!, {r6}
    45ec:	489c      	ldr	r0, [pc, #624]	; (4860 <quit_innenschleife+0x32>)
    45ee:	6801      	ldr	r1, [r0, #0]
    45f0:	2906      	cmp	r1, #6
    45f2:	d207      	bcs.n	4604 <add_to_inline_cache+0x22>
    45f4:	2006      	movs	r0, #6
    45f6:	4341      	muls	r1, r0
    45f8:	489a      	ldr	r0, [pc, #616]	; (4864 <quit_innenschleife+0x36>)
    45fa:	1840      	adds	r0, r0, r1
    45fc:	8003      	strh	r3, [r0, #0]
    45fe:	0c1b      	lsrs	r3, r3, #16
    4600:	8043      	strh	r3, [r0, #2]
    4602:	8082      	strh	r2, [r0, #4]
    4604:	4896      	ldr	r0, [pc, #600]	; (4860 <quit_innenschleife+0x32>)
    4606:	6801      	ldr	r1, [r0, #0]
    4608:	3101      	adds	r1, #1
    460a:	6001      	str	r1, [r0, #0]
    460c:	bd0f      	pop	{r0, r1, r2, r3, pc}

0000460e <inline_cache_schreiben>:
    460e:	b50f      	push	{r0, r1, r2, r3, lr}
    4610:	4893      	ldr	r0, [pc, #588]	; (4860 <quit_innenschleife+0x32>)
    4612:	6801      	ldr	r1, [r0, #0]
    4614:	2906      	cmp	r1, #6
    4616:	d81f      	bhi.n	4658 <inline_cache_schreiben+0x4a>
    4618:	4892      	ldr	r0, [pc, #584]	; (4864 <quit_innenschleife+0x36>)
    461a:	3901      	subs	r1, #1
    461c:	d01d      	beq.n	465a <inline_cache_schreiben+0x4c>
    461e:	f847 6d04 	str.w	r6, [r7, #-4]!
    4622:	000e      	movs	r6, r1
    4624:	f7fe fe88 	bl	3338 <Code_811>
    4628:	f847 6d04 	str.w	r6, [r7, #-4]!
    462c:	8806      	ldrh	r6, [r0, #0]
    462e:	f7fe fe83 	bl	3338 <Code_811>
    4632:	f847 6d04 	str.w	r6, [r7, #-4]!
    4636:	8846      	ldrh	r6, [r0, #2]
    4638:	f7fe fe7e 	bl	3338 <Code_811>
    463c:	f847 6d04 	str.w	r6, [r7, #-4]!
    4640:	8886      	ldrh	r6, [r0, #4]
    4642:	f7fe fe79 	bl	3338 <Code_811>
    4646:	3006      	adds	r0, #6
    4648:	3901      	subs	r1, #1
    464a:	d1ed      	bne.n	4628 <inline_cache_schreiben+0x1a>
    464c:	f847 6d04 	str.w	r6, [r7, #-4]!
    4650:	f241 0600 	movw	r6, #4096	; 0x1000
    4654:	f7fe fde1 	bl	321a <Code_795>
    4658:	bd0f      	pop	{r0, r1, r2, r3, pc}
    465a:	f847 6d04 	str.w	r6, [r7, #-4]!
    465e:	2640      	movs	r6, #64	; 0x40
    4660:	f7fe fddb 	bl	321a <Code_795>
    4664:	bd0f      	pop	{r0, r1, r2, r3, pc}

00004666 <inline_cache_parser>:
    4666:	b500      	push	{lr}
    4668:	0030      	movs	r0, r6
    466a:	cf40      	ldmia	r7!, {r6}
    466c:	f7fe fc4f 	bl	2f0e <suchedefinitionsende>
    4670:	8801      	ldrh	r1, [r0, #0]
    4672:	3002      	adds	r0, #2
    4674:	f847 6d04 	str.w	r6, [r7, #-4]!
    4678:	8806      	ldrh	r6, [r0, #0]
    467a:	8842      	ldrh	r2, [r0, #2]
    467c:	0412      	lsls	r2, r2, #16
    467e:	4316      	orrs	r6, r2
    4680:	f847 6d04 	str.w	r6, [r7, #-4]!
    4684:	8886      	ldrh	r6, [r0, #4]
    4686:	b403      	push	{r0, r1}
    4688:	f7ff ff43 	bl	4512 <kompilator>
    468c:	bc03      	pop	{r0, r1}
    468e:	3006      	adds	r0, #6
    4690:	3901      	subs	r1, #1
    4692:	d1ef      	bne.n	4674 <inline_cache_parser+0xe>
    4694:	bd00      	pop	{pc}

00004696 <Dictionary_1195>:
    4696:	000046de 	ldrdeq	r4, [r0], -lr
    469a:	65080000 	strvs	r0, [r8]
    469e:	756c6176 	strbvc	r6, [ip, #-374]!	; 0x176
    46a2:	00657461 	rsbeq	r7, r5, r1, ror #8

000046a6 <Code_1195>:
    46a6:	b500      	push	{lr}
    46a8:	f7fe f83b 	bl	2722 <Code_579>
    46ac:	cf01      	ldmia	r7!, {r0}
    46ae:	b401      	push	{r0}
    46b0:	b440      	push	{r6}
    46b2:	cf40      	ldmia	r7!, {r6}
    46b4:	486c      	ldr	r0, [pc, #432]	; (4868 <quit_innenschleife+0x3a>)
    46b6:	6801      	ldr	r1, [r0, #0]
    46b8:	b402      	push	{r1}
    46ba:	2100      	movs	r1, #0
    46bc:	6001      	str	r1, [r0, #0]
    46be:	f7fe f823 	bl	2708 <Code_577>
    46c2:	f000 f814 	bl	46ee <Code_1197>
    46c6:	4868      	ldr	r0, [pc, #416]	; (4868 <quit_innenschleife+0x3a>)
    46c8:	bc02      	pop	{r1}
    46ca:	6001      	str	r1, [r0, #0]
    46cc:	f847 6d04 	str.w	r6, [r7, #-4]!
    46d0:	bc40      	pop	{r6}
    46d2:	bc01      	pop	{r0}
    46d4:	3f04      	subs	r7, #4
    46d6:	6038      	str	r0, [r7, #0]
    46d8:	f7fe f816 	bl	2708 <Code_577>
    46dc:	bd00      	pop	{pc}

000046de <Dictionary_1197>:
    46de:	000047da 	ldrdeq	r4, [r0], -sl
    46e2:	69090000 	stmdbvs	r9, {}	; <UNPREDICTABLE>
    46e6:	7265746e 	rsbvc	r7, r5, #1845493760	; 0x6e000000
    46ea:	74657270 	strbtvc	r7, [r5], #-624	; 0x270

000046ee <Code_1197>:
    46ee:	b500      	push	{lr}
    46f0:	485e      	ldr	r0, [pc, #376]	; (486c <quit_innenschleife+0x3e>)
    46f2:	4287      	cmp	r7, r0
    46f4:	d90b      	bls.n	470e <Code_1197+0x20>
    46f6:	f7fe f8ca 	bl	288e <dotgaensefuesschen>
    46fa:	61745310 	cmnvs	r4, r0, lsl r3
    46fe:	75206b63 	strvc	r6, [r0, #-2915]!	; 0xb63
    4702:	7265646e 	rsbvc	r6, r5, #1845493760	; 0x6e000000
    4706:	776f6c66 	strbvc	r6, [pc, -r6, ror #24]!
    470a:	e079000a 	rsbs	r0, r9, sl
    470e:	4858      	ldr	r0, [pc, #352]	; (4870 <quit_innenschleife+0x42>)
    4710:	4287      	cmp	r7, r0
    4712:	d20a      	bcs.n	472a <Code_1197+0x3c>
    4714:	f7fe f8bb 	bl	288e <dotgaensefuesschen>
    4718:	6174530f 	cmnvs	r4, pc, lsl #6
    471c:	6f206b63 	svcvs	0x00206b63
    4720:	66726576 			; <UNDEFINED> instruction: 0x66726576
    4724:	0a776f6c 	beq	1de04dc <BIT24+0xde04dc>
    4728:	e06b      	b.n	4802 <Code_1222>
    472a:	f7ff fedb 	bl	44e4 <konstantenfaltungszeiger_setzen>
    472e:	f7ff fcf7 	bl	4120 <Code_1095>
    4732:	2e00      	cmp	r6, #0
    4734:	d102      	bne.n	473c <Code_1197+0x4e>
    4736:	3704      	adds	r7, #4
    4738:	cf40      	ldmia	r7!, {r6}
    473a:	bd00      	pop	{pc}
    473c:	6838      	ldr	r0, [r7, #0]
    473e:	f847 6d04 	str.w	r6, [r7, #-4]!
    4742:	3f04      	subs	r7, #4
    4744:	6038      	str	r0, [r7, #0]
    4746:	f7ff f8be 	bl	38c6 <Code_905>
    474a:	0031      	movs	r1, r6
    474c:	cf40      	ldmia	r7!, {r6}
    474e:	0032      	movs	r2, r6
    4750:	cf40      	ldmia	r7!, {r6}
    4752:	2a00      	cmp	r2, #0
    4754:	d115      	bne.n	4782 <.interpret_token_found>
    4756:	6838      	ldr	r0, [r7, #0]
    4758:	0031      	movs	r1, r6
    475a:	f7fc ffe4 	bl	1726 <sprungschreiber_flaggenerator>
    475e:	f7ff fd3d 	bl	41dc <Code_1102>
    4762:	0032      	movs	r2, r6
    4764:	cf40      	ldmia	r7!, {r6}
    4766:	2a00      	cmp	r2, #0
    4768:	d1c2      	bne.n	46f0 <Code_1197+0x2>

0000476a <not_found_addr_r0_len_r1>:
    476a:	f7fe f8f0 	bl	294e <stype_addr_r0_len_r1>
    476e:	f7fe f88e 	bl	288e <dotgaensefuesschen>
    4772:	6f6e200c 	svcvs	0x006e200c
    4776:	6f662074 	svcvs	0x00662074
    477a:	2e646e75 	mcrcs	14, 3, r6, cr4, cr5, {3}
    477e:	e03f000a 	eors	r0, pc, sl

00004782 <.interpret_token_found>:
    4782:	4b3c      	ldr	r3, [pc, #240]	; (4874 <quit_innenschleife+0x46>)
    4784:	681b      	ldr	r3, [r3, #0]
    4786:	2b00      	cmp	r3, #0
    4788:	d11c      	bne.n	47c4 <.ausfuehren+0x10>
    478a:	f7ff feb8 	bl	44fe <konstantenfaltungszeiger_loeschen>
    478e:	2330      	movs	r3, #48	; 0x30
    4790:	400b      	ands	r3, r1
    4792:	2b30      	cmp	r3, #48	; 0x30
    4794:	d10e      	bne.n	47b4 <.ausfuehren>
    4796:	f7fe f8d6 	bl	2946 <Code_631>
    479a:	f7fe f878 	bl	288e <dotgaensefuesschen>
    479e:	73692012 	cmnvc	r9, #18
    47a2:	6d6f6320 	stclvs	3, cr6, [pc, #-128]!	; 4728 <Code_1197+0x3a>
    47a6:	656c6970 	strbvs	r6, [ip, #-2416]!	; 0x970
    47aa:	6c6e6f2d 	stclvs	15, cr6, [lr], #-180	; 0xffffff4c
    47ae:	000a2e79 	andeq	r2, sl, r9, ror lr
    47b2:	e026      	b.n	4802 <Code_1222>

000047b4 <.ausfuehren>:
    47b4:	3704      	adds	r7, #4
    47b6:	cf40      	ldmia	r7!, {r6}
    47b8:	f847 6d04 	str.w	r6, [r7, #-4]!
    47bc:	0016      	movs	r6, r2
    47be:	f7fe fc3e 	bl	303e <Code_749>
    47c2:	e795      	b.n	46f0 <Code_1197+0x2>
    47c4:	3704      	adds	r7, #4
    47c6:	cf40      	ldmia	r7!, {r6}
    47c8:	f847 6d04 	str.w	r6, [r7, #-4]!
    47cc:	0016      	movs	r6, r2
    47ce:	f847 6d04 	str.w	r6, [r7, #-4]!
    47d2:	000e      	movs	r6, r1
    47d4:	f7ff fe9d 	bl	4512 <kompilator>
    47d8:	e78a      	b.n	46f0 <Code_1197+0x2>

000047da <Dictionary_1219>:
    47da:	000047f6 	strdeq	r4, [r0], -r6
    47de:	68090081 	stmdavs	r9, {r0, r7}
    47e2:	2d6b6f6f 	stclcs	15, cr6, [fp, #-444]!	; 0xfffffe44
    47e6:	74697571 	strbtvc	r7, [r9], #-1393	; 0x571

000047ea <Code_1219>:
    47ea:	f847 6d04 	str.w	r6, [r7, #-4]!
    47ee:	4e22      	ldr	r6, [pc, #136]	; (4878 <quit_innenschleife+0x4a>)
    47f0:	4770      	bx	lr
    47f2:	0000482e 	andeq	r4, r0, lr, lsr #16

000047f6 <Dictionary_1222>:
    47f6:	0000488c 	andeq	r4, r0, ip, lsl #17
    47fa:	71040000 	mrsvc	r0, (UNDEF: 4)
    47fe:	00746975 	rsbseq	r6, r4, r5, ror r9

00004802 <Code_1222>:
    4802:	f8df d078 	ldr.w	sp, [pc, #120]	; 487c <quit_innenschleife+0x4e>
    4806:	4f19      	ldr	r7, [pc, #100]	; (486c <quit_innenschleife+0x3e>)
    4808:	481d      	ldr	r0, [pc, #116]	; (4880 <quit_innenschleife+0x52>)
    480a:	210a      	movs	r1, #10
    480c:	6001      	str	r1, [r0, #0]
    480e:	4819      	ldr	r0, [pc, #100]	; (4874 <quit_innenschleife+0x46>)
    4810:	2100      	movs	r1, #0
    4812:	6001      	str	r1, [r0, #0]
    4814:	480b      	ldr	r0, [pc, #44]	; (4844 <quit_innenschleife+0x16>)
    4816:	6001      	str	r1, [r0, #0]
    4818:	f7fb fddb 	bl	3d2 <init_register_allocator>
    481c:	4812      	ldr	r0, [pc, #72]	; (4868 <quit_innenschleife+0x3a>)
    481e:	6001      	str	r1, [r0, #0]
    4820:	4818      	ldr	r0, [pc, #96]	; (4884 <quit_innenschleife+0x56>)
    4822:	6001      	str	r1, [r0, #0]
    4824:	4918      	ldr	r1, [pc, #96]	; (4888 <quit_innenschleife+0x5a>)
    4826:	6041      	str	r1, [r0, #4]

00004828 <quit_intern>:
    4828:	4813      	ldr	r0, [pc, #76]	; (4878 <quit_innenschleife+0x4a>)
    482a:	6800      	ldr	r0, [r0, #0]
    482c:	4687      	mov	pc, r0

0000482e <quit_innenschleife>:
    482e:	f7fd ff86 	bl	273e <Code_581>
    4832:	f7ff ff5c 	bl	46ee <Code_1197>
    4836:	f7fe f82a 	bl	288e <dotgaensefuesschen>
    483a:	6b6f2005 	blvs	1bcc856 <BIT24+0xbcc856>
    483e:	e7f50a2e 	ldrb	r0, [r5, lr, lsr #20]!
    4842:	00080000 	andeq	r0, r8, r0
    4846:	10002000 	andne	r2, r0, r0
    484a:	04000000 	streq	r0, [r0]
    484e:	20000000 	andcs	r0, r0, r0
    4852:	02000000 	andeq	r0, r0, #0
    4856:	00280000 	eoreq	r0, r8, r0
    485a:	08002000 	stmdaeq	r0, {sp}
    485e:	005c0000 	subseq	r0, ip, r0
    4862:	00602000 	rsbeq	r2, r0, r0
    4866:	ffe42000 			; <UNDEFINED> instruction: 0xffe42000
    486a:	028c2003 	addeq	r2, ip, #3
    486e:	018c2000 	orreq	r2, ip, r0
    4872:	ffd82000 			; <UNDEFINED> instruction: 0xffd82000
    4876:	ffd42003 			; <UNDEFINED> instruction: 0xffd42003
    487a:	038c2003 	orreq	r2, ip, #3
    487e:	fffc2000 			; <UNDEFINED> instruction: 0xfffc2000
    4882:	ffdc2003 			; <UNDEFINED> instruction: 0xffdc2003
    4886:	00c42003 	sbceq	r2, r4, r3
    488a:	48a62000 	stmiami	r6!, {sp}

0000488c <Dictionary_1224>:
    488c:	000048a6 	andeq	r4, r0, r6, lsr #17
    4890:	65050000 	strvs	r0, [r5]
    4894:	3f746e69 	svccc	0x00746e69

00004898 <Code_1224>:
    4898:	f847 6d04 	str.w	r6, [r7, #-4]!
    489c:	f3ef 8610 	mrs	r6, PRIMASK
    48a0:	3e01      	subs	r6, #1
    48a2:	41b6      	sbcs	r6, r6
    48a4:	4770      	bx	lr

000048a6 <Dictionary_1226>:
    48a6:	000048b6 			; <UNDEFINED> instruction: 0x000048b6
    48aa:	65040020 	strvs	r0, [r4, #-32]
    48ae:	00746e69 	rsbseq	r6, r4, r9, ror #28

000048b2 <Code_1226>:
    48b2:	b662      	cpsie	i
    48b4:	4770      	bx	lr

000048b6 <Dictionary_1227>:
    48b6:	000048c6 	andeq	r4, r0, r6, asr #17
    48ba:	64040020 	strvs	r0, [r4], #-32
    48be:	00746e69 	rsbseq	r6, r4, r9, ror #28

000048c2 <Code_1227>:
    48c2:	b672      	cpsid	i
    48c4:	4770      	bx	lr

000048c6 <Dictionary_1228>:
    48c6:	000048dc 	ldrdeq	r4, [r0], -ip
    48ca:	69040020 	stmdbvs	r4, {r5}
    48ce:	00727370 	rsbseq	r7, r2, r0, ror r3

000048d2 <Code_1228>:
    48d2:	f847 6d04 	str.w	r6, [r7, #-4]!
    48d6:	f3ef 8605 	mrs	r6, IPSR
    48da:	4770      	bx	lr

000048dc <Dictionary_1230>:
    48dc:	000048e8 	andeq	r4, r0, r8, ror #17
    48e0:	6e030000 	cdpvs	0, 0, cr0, cr3, cr0, {0}
    48e4:	4770706f 	ldrbmi	r7, [r0, -pc, rrx]!

000048e6 <Code_1230>:
    48e6:	4770      	bx	lr

000048e8 <Dictionary_1231>:
    48e8:	0000492a 	andeq	r4, r0, sl, lsr #18
    48ec:	75090000 	strvc	r0, [r9]
    48f0:	6e61686e 	cdpvs	8, 6, cr6, cr1, cr14, {3}
    48f4:	64656c64 	strbtvs	r6, [r5], #-3172	; 0xc64

000048f8 <Code_1231>:
    48f8:	b500      	push	{lr}
    48fa:	f7fd ffc8 	bl	288e <dotgaensefuesschen>
    48fe:	686e5514 	stmdavs	lr!, {r2, r4, r8, sl, ip, lr}^
    4902:	6c646e61 	stclvs	14, cr6, [r4], #-388	; 0xfffffe7c
    4906:	49206465 	stmdbmi	r0!, {r0, r2, r5, r6, sl, sp, lr}
    490a:	7265746e 	rsbvc	r7, r5, #1845493760	; 0x6e000000
    490e:	74707572 	ldrbtvc	r7, [r0], #-1394	; 0x572
    4912:	f8470020 			; <UNDEFINED> instruction: 0xf8470020
    4916:	6d04      	ldr	r4, [r0, #80]	; 0x50
    4918:	f3ef 8605 	mrs	r6, IPSR
    491c:	f7fe f82a 	bl	2974 <Code_635>
    4920:	f7fd ffb5 	bl	288e <dotgaensefuesschen>
    4924:	000a2102 	andeq	r2, sl, r2, lsl #2
    4928:	bd00      	pop	{pc}

0000492a <Dictionary_1235>:
    492a:	00004940 	andeq	r4, r0, r0, asr #18
    492e:	72050000 	andvc	r0, r5, #0
    4932:	74657365 	strbtvc	r7, [r5], #-869	; 0x365

00004936 <Code_1235>:
    4936:	f8df 0690 	ldr.w	r0, [pc, #1680]	; 4fc8 <init_name+0x4>
    493a:	f8df 1690 	ldr.w	r1, [pc, #1680]	; 4fcc <init_name+0x8>
    493e:	6001      	str	r1, [r0, #0]

00004940 <Dictionary_1237>:
    4940:	0000496c 	andeq	r4, r0, ip, ror #18
    4944:	690b0081 	stmdbvs	fp, {r0, r7}
    4948:	732d7172 	teqvc	sp, #-2147483620	; 0x8000001c
    494c:	69747379 	ldmdbvs	r4!, {r0, r3, r4, r5, r6, r8, r9, ip, sp, lr}^
    4950:	f8476b63 			; <UNDEFINED> instruction: 0xf8476b63

00004952 <Code_1237>:
    4952:	f847 6d04 	str.w	r6, [r7, #-4]!
    4956:	f8df 6678 	ldr.w	r6, [pc, #1656]	; 4fd0 <init_name+0xc>
    495a:	4770      	bx	lr
    495c:	000048f8 	strdeq	r4, [r0], -r8

00004960 <irq_vektor_systick>:
    4960:	f64f 70d0 	movw	r0, #65488	; 0xffd0
    4964:	f2c2 0003 	movt	r0, #8195	; 0x2003
    4968:	6800      	ldr	r0, [r0, #0]
    496a:	4687      	mov	pc, r0

0000496c <Dictionary_1241>:
    496c:	00004996 	muleq	r0, r6, r9
    4970:	69090081 	stmdbvs	r9, {r0, r7}
    4974:	662d7172 			; <UNDEFINED> instruction: 0x662d7172
    4978:	746c7561 	strbtvc	r7, [ip], #-1377	; 0x561

0000497c <Code_1241>:
    497c:	f847 6d04 	str.w	r6, [r7, #-4]!
    4980:	f8df 6650 	ldr.w	r6, [pc, #1616]	; 4fd4 <init_name+0x10>
    4984:	4770      	bx	lr
    4986:	000048f8 	strdeq	r4, [r0], -r8

0000498a <faulthandler>:
    498a:	f64f 70cc 	movw	r0, #65484	; 0xffcc
    498e:	f2c2 0003 	movt	r0, #8195	; 0x2003
    4992:	6800      	ldr	r0, [r0, #0]
    4994:	4687      	mov	pc, r0

00004996 <Dictionary_1245>:
    4996:	000049c6 	andeq	r4, r0, r6, asr #19
    499a:	690e0081 	stmdbvs	lr, {r0, r7}
    499e:	632d7172 	teqvs	sp, #-2147483620	; 0x8000001c
    49a2:	656c6c6f 	strbvs	r6, [ip, #-3183]!	; 0xc6f
    49a6:	6f697463 	svcvs	0x00697463
    49aa:	f847006e 			; <UNDEFINED> instruction: 0xf847006e

000049ac <Code_1245>:
    49ac:	f847 6d04 	str.w	r6, [r7, #-4]!
    49b0:	f8df 6624 	ldr.w	r6, [pc, #1572]	; 4fd8 <init_name+0x14>
    49b4:	4770      	bx	lr
    49b6:	000048f8 	strdeq	r4, [r0], -r8

000049ba <nullhandler>:
    49ba:	f64f 70c8 	movw	r0, #65480	; 0xffc8
    49be:	f2c2 0003 	movt	r0, #8195	; 0x2003
    49c2:	6800      	ldr	r0, [r0, #0]
    49c4:	4687      	mov	pc, r0

000049c6 <Dictionary_1249>:
    49c6:	000049f4 	strdeq	r4, [r0], -r4	; <UNPREDICTABLE>
    49ca:	690c0081 	stmdbvs	ip, {r0, r7}
    49ce:	742d7172 	strtvc	r7, [sp], #-370	; 0x172
    49d2:	696d7265 	stmdbvs	sp!, {r0, r2, r5, r6, r9, ip, sp, lr}^
    49d6:	006c616e 	rsbeq	r6, ip, lr, ror #2

000049da <Code_1249>:
    49da:	f847 6d04 	str.w	r6, [r7, #-4]!
    49de:	f8df 65fc 	ldr.w	r6, [pc, #1532]	; 4fdc <init_name+0x18>
    49e2:	4770      	bx	lr
    49e4:	000048f8 	strdeq	r4, [r0], -r8

000049e8 <irq_vektor_terminal>:
    49e8:	f64f 70c4 	movw	r0, #65476	; 0xffc4
    49ec:	f2c2 0003 	movt	r0, #8195	; 0x2003
    49f0:	6800      	ldr	r0, [r0, #0]
    49f2:	4687      	mov	pc, r0

000049f4 <Dictionary_1253>:
    49f4:	00004a1e 	andeq	r4, r0, lr, lsl sl
    49f8:	69090081 	stmdbvs	r9, {r0, r7}
    49fc:	702d7172 	eorvc	r7, sp, r2, ror r1
    4a00:	6174726f 	cmnvs	r4, pc, ror #4

00004a04 <Code_1253>:
    4a04:	f847 6d04 	str.w	r6, [r7, #-4]!
    4a08:	f8df 65d4 	ldr.w	r6, [pc, #1492]	; 4fe0 <init_name+0x1c>
    4a0c:	4770      	bx	lr
    4a0e:	000048f8 	strdeq	r4, [r0], -r8

00004a12 <irq_vektor_porta>:
    4a12:	f64f 70c0 	movw	r0, #65472	; 0xffc0
    4a16:	f2c2 0003 	movt	r0, #8195	; 0x2003
    4a1a:	6800      	ldr	r0, [r0, #0]
    4a1c:	4687      	mov	pc, r0

00004a1e <Dictionary_1257>:
    4a1e:	00004a48 	andeq	r4, r0, r8, asr #20
    4a22:	69090081 	stmdbvs	r9, {r0, r7}
    4a26:	702d7172 	eorvc	r7, sp, r2, ror r1
    4a2a:	6274726f 	rsbsvs	r7, r4, #-268435450	; 0xf0000006

00004a2e <Code_1257>:
    4a2e:	f847 6d04 	str.w	r6, [r7, #-4]!
    4a32:	f8df 65b0 	ldr.w	r6, [pc, #1456]	; 4fe4 <init_name+0x20>
    4a36:	4770      	bx	lr
    4a38:	000048f8 	strdeq	r4, [r0], -r8

00004a3c <irq_vektor_portb>:
    4a3c:	f64f 70bc 	movw	r0, #65468	; 0xffbc
    4a40:	f2c2 0003 	movt	r0, #8195	; 0x2003
    4a44:	6800      	ldr	r0, [r0, #0]
    4a46:	4687      	mov	pc, r0

00004a48 <Dictionary_1261>:
    4a48:	00004a72 	andeq	r4, r0, r2, ror sl
    4a4c:	69090081 	stmdbvs	r9, {r0, r7}
    4a50:	702d7172 	eorvc	r7, sp, r2, ror r1
    4a54:	6374726f 	cmnvs	r4, #-268435450	; 0xf0000006

00004a58 <Code_1261>:
    4a58:	f847 6d04 	str.w	r6, [r7, #-4]!
    4a5c:	f8df 6588 	ldr.w	r6, [pc, #1416]	; 4fe8 <init_name+0x24>
    4a60:	4770      	bx	lr
    4a62:	000048f8 	strdeq	r4, [r0], -r8

00004a66 <irq_vektor_portc>:
    4a66:	f64f 70b8 	movw	r0, #65464	; 0xffb8
    4a6a:	f2c2 0003 	movt	r0, #8195	; 0x2003
    4a6e:	6800      	ldr	r0, [r0, #0]
    4a70:	4687      	mov	pc, r0

00004a72 <Dictionary_1265>:
    4a72:	00004a9c 	muleq	r0, ip, sl
    4a76:	69090081 	stmdbvs	r9, {r0, r7}
    4a7a:	702d7172 	eorvc	r7, sp, r2, ror r1
    4a7e:	6474726f 	ldrbtvs	r7, [r4], #-623	; 0x26f

00004a82 <Code_1265>:
    4a82:	f847 6d04 	str.w	r6, [r7, #-4]!
    4a86:	f8df 6564 	ldr.w	r6, [pc, #1380]	; 4fec <init_name+0x28>
    4a8a:	4770      	bx	lr
    4a8c:	000048f8 	strdeq	r4, [r0], -r8

00004a90 <irq_vektor_portd>:
    4a90:	f64f 70b4 	movw	r0, #65460	; 0xffb4
    4a94:	f2c2 0003 	movt	r0, #8195	; 0x2003
    4a98:	6800      	ldr	r0, [r0, #0]
    4a9a:	4687      	mov	pc, r0

00004a9c <Dictionary_1269>:
    4a9c:	00004ac6 	andeq	r4, r0, r6, asr #21
    4aa0:	69090081 	stmdbvs	r9, {r0, r7}
    4aa4:	702d7172 	eorvc	r7, sp, r2, ror r1
    4aa8:	6574726f 	ldrbvs	r7, [r4, #-623]!	; 0x26f

00004aac <Code_1269>:
    4aac:	f847 6d04 	str.w	r6, [r7, #-4]!
    4ab0:	f8df 653c 	ldr.w	r6, [pc, #1340]	; 4ff0 <init_name+0x2c>
    4ab4:	4770      	bx	lr
    4ab6:	000048f8 	strdeq	r4, [r0], -r8

00004aba <irq_vektor_porte>:
    4aba:	f64f 70b0 	movw	r0, #65456	; 0xffb0
    4abe:	f2c2 0003 	movt	r0, #8195	; 0x2003
    4ac2:	6800      	ldr	r0, [r0, #0]
    4ac4:	4687      	mov	pc, r0

00004ac6 <Dictionary_1273>:
    4ac6:	00004af0 	strdeq	r4, [r0], -r0
    4aca:	69090081 	stmdbvs	r9, {r0, r7}
    4ace:	702d7172 	eorvc	r7, sp, r2, ror r1
    4ad2:	6674726f 	ldrbtvs	r7, [r4], -pc, ror #4

00004ad6 <Code_1273>:
    4ad6:	f847 6d04 	str.w	r6, [r7, #-4]!
    4ada:	f8df 6518 	ldr.w	r6, [pc, #1304]	; 4ff4 <init_name+0x30>
    4ade:	4770      	bx	lr
    4ae0:	000048f8 	strdeq	r4, [r0], -r8

00004ae4 <irq_vektor_portf>:
    4ae4:	f64f 70ac 	movw	r0, #65452	; 0xffac
    4ae8:	f2c2 0003 	movt	r0, #8195	; 0x2003
    4aec:	6800      	ldr	r0, [r0, #0]
    4aee:	4687      	mov	pc, r0

00004af0 <Dictionary_1277>:
    4af0:	00004b1a 	andeq	r4, r0, sl, lsl fp
    4af4:	69090081 	stmdbvs	r9, {r0, r7}
    4af8:	702d7172 	eorvc	r7, sp, r2, ror r1
    4afc:	6774726f 	ldrbvs	r7, [r4, -pc, ror #4]!

00004b00 <Code_1277>:
    4b00:	f847 6d04 	str.w	r6, [r7, #-4]!
    4b04:	f8df 64f0 	ldr.w	r6, [pc, #1264]	; 4ff8 <init_name+0x34>
    4b08:	4770      	bx	lr
    4b0a:	000048f8 	strdeq	r4, [r0], -r8

00004b0e <irq_vektor_portg>:
    4b0e:	f64f 70a8 	movw	r0, #65448	; 0xffa8
    4b12:	f2c2 0003 	movt	r0, #8195	; 0x2003
    4b16:	6800      	ldr	r0, [r0, #0]
    4b18:	4687      	mov	pc, r0

00004b1a <Dictionary_1281>:
    4b1a:	00004b44 	andeq	r4, r0, r4, asr #22
    4b1e:	69090081 	stmdbvs	r9, {r0, r7}
    4b22:	702d7172 	eorvc	r7, sp, r2, ror r1
    4b26:	6874726f 	ldmdavs	r4!, {r0, r1, r2, r3, r5, r6, r9, ip, sp, lr}^

00004b2a <Code_1281>:
    4b2a:	f847 6d04 	str.w	r6, [r7, #-4]!
    4b2e:	f8df 64cc 	ldr.w	r6, [pc, #1228]	; 4ffc <init_name+0x38>
    4b32:	4770      	bx	lr
    4b34:	000048f8 	strdeq	r4, [r0], -r8

00004b38 <irq_vektor_porth>:
    4b38:	f64f 70a4 	movw	r0, #65444	; 0xffa4
    4b3c:	f2c2 0003 	movt	r0, #8195	; 0x2003
    4b40:	6800      	ldr	r0, [r0, #0]
    4b42:	4687      	mov	pc, r0

00004b44 <Dictionary_1285>:
    4b44:	00004b6e 	andeq	r4, r0, lr, ror #22
    4b48:	69090081 	stmdbvs	r9, {r0, r7}
    4b4c:	702d7172 	eorvc	r7, sp, r2, ror r1
    4b50:	6a74726f 	bvs	1d21514 <BIT24+0xd21514>

00004b54 <Code_1285>:
    4b54:	f847 6d04 	str.w	r6, [r7, #-4]!
    4b58:	f8df 64a4 	ldr.w	r6, [pc, #1188]	; 5000 <init_name+0x3c>
    4b5c:	4770      	bx	lr
    4b5e:	000048f8 	strdeq	r4, [r0], -r8

00004b62 <irq_vektor_portj>:
    4b62:	f64f 70a0 	movw	r0, #65440	; 0xffa0
    4b66:	f2c2 0003 	movt	r0, #8195	; 0x2003
    4b6a:	6800      	ldr	r0, [r0, #0]
    4b6c:	4687      	mov	pc, r0

00004b6e <Dictionary_1289>:
    4b6e:	00004b98 	muleq	r0, r8, fp
    4b72:	69090081 	stmdbvs	r9, {r0, r7}
    4b76:	702d7172 	eorvc	r7, sp, r2, ror r1
    4b7a:	6b74726f 	blvs	1d2153e <BIT24+0xd2153e>

00004b7e <Code_1289>:
    4b7e:	f847 6d04 	str.w	r6, [r7, #-4]!
    4b82:	f8df 6480 	ldr.w	r6, [pc, #1152]	; 5004 <init_name+0x40>
    4b86:	4770      	bx	lr
    4b88:	000048f8 	strdeq	r4, [r0], -r8

00004b8c <irq_vektor_portk>:
    4b8c:	f64f 709c 	movw	r0, #65436	; 0xff9c
    4b90:	f2c2 0003 	movt	r0, #8195	; 0x2003
    4b94:	6800      	ldr	r0, [r0, #0]
    4b96:	4687      	mov	pc, r0

00004b98 <Dictionary_1293>:
    4b98:	00004bc2 	andeq	r4, r0, r2, asr #23
    4b9c:	69090081 	stmdbvs	r9, {r0, r7}
    4ba0:	702d7172 	eorvc	r7, sp, r2, ror r1
    4ba4:	6c74726f 	lfmvs	f7, 2, [r4], #-444	; 0xfffffe44

00004ba8 <Code_1293>:
    4ba8:	f847 6d04 	str.w	r6, [r7, #-4]!
    4bac:	f8df 6458 	ldr.w	r6, [pc, #1112]	; 5008 <init_name+0x44>
    4bb0:	4770      	bx	lr
    4bb2:	000048f8 	strdeq	r4, [r0], -r8

00004bb6 <irq_vektor_portl>:
    4bb6:	f64f 7098 	movw	r0, #65432	; 0xff98
    4bba:	f2c2 0003 	movt	r0, #8195	; 0x2003
    4bbe:	6800      	ldr	r0, [r0, #0]
    4bc0:	4687      	mov	pc, r0

00004bc2 <Dictionary_1297>:
    4bc2:	00004bf0 	strdeq	r4, [r0], -r0
    4bc6:	690c0081 	stmdbvs	ip, {r0, r7}
    4bca:	612d7172 	teqvs	sp, r2, ror r1
    4bce:	73306364 	teqvc	r0, #-1879048191	; 0x90000001
    4bd2:	00307165 	eorseq	r7, r0, r5, ror #2

00004bd6 <Code_1297>:
    4bd6:	f847 6d04 	str.w	r6, [r7, #-4]!
    4bda:	f8df 6430 	ldr.w	r6, [pc, #1072]	; 500c <init_name+0x48>
    4bde:	4770      	bx	lr
    4be0:	000048f8 	strdeq	r4, [r0], -r8

00004be4 <irq_vektor_adc0seq0>:
    4be4:	f64f 7094 	movw	r0, #65428	; 0xff94
    4be8:	f2c2 0003 	movt	r0, #8195	; 0x2003
    4bec:	6800      	ldr	r0, [r0, #0]
    4bee:	4687      	mov	pc, r0

00004bf0 <Dictionary_1301>:
    4bf0:	00004c1e 	andeq	r4, r0, lr, lsl ip
    4bf4:	690c0081 	stmdbvs	ip, {r0, r7}
    4bf8:	612d7172 	teqvs	sp, r2, ror r1
    4bfc:	73306364 	teqvc	r0, #-1879048191	; 0x90000001
    4c00:	00317165 	eorseq	r7, r1, r5, ror #2

00004c04 <Code_1301>:
    4c04:	f847 6d04 	str.w	r6, [r7, #-4]!
    4c08:	f8df 6404 	ldr.w	r6, [pc, #1028]	; 5010 <init_name+0x4c>
    4c0c:	4770      	bx	lr
    4c0e:	000048f8 	strdeq	r4, [r0], -r8

00004c12 <irq_vektor_adc0seq1>:
    4c12:	f64f 7090 	movw	r0, #65424	; 0xff90
    4c16:	f2c2 0003 	movt	r0, #8195	; 0x2003
    4c1a:	6800      	ldr	r0, [r0, #0]
    4c1c:	4687      	mov	pc, r0

00004c1e <Dictionary_1305>:
    4c1e:	00004c4a 	andeq	r4, r0, sl, asr #24
    4c22:	690c0081 	stmdbvs	ip, {r0, r7}
    4c26:	612d7172 	teqvs	sp, r2, ror r1
    4c2a:	73306364 	teqvc	r0, #-1879048191	; 0x90000001
    4c2e:	00327165 	eorseq	r7, r2, r5, ror #2

00004c32 <Code_1305>:
    4c32:	f847 6d04 	str.w	r6, [r7, #-4]!
    4c36:	4ef7      	ldr	r6, [pc, #988]	; (5014 <init_name+0x50>)
    4c38:	4770      	bx	lr
    4c3a:	000048f8 	strdeq	r4, [r0], -r8

00004c3e <irq_vektor_adc0seq2>:
    4c3e:	f64f 708c 	movw	r0, #65420	; 0xff8c
    4c42:	f2c2 0003 	movt	r0, #8195	; 0x2003
    4c46:	6800      	ldr	r0, [r0, #0]
    4c48:	4687      	mov	pc, r0

00004c4a <Dictionary_1309>:
    4c4a:	00004c76 	andeq	r4, r0, r6, ror ip
    4c4e:	690c0081 	stmdbvs	ip, {r0, r7}
    4c52:	612d7172 	teqvs	sp, r2, ror r1
    4c56:	73306364 	teqvc	r0, #-1879048191	; 0x90000001
    4c5a:	00337165 	eorseq	r7, r3, r5, ror #2

00004c5e <Code_1309>:
    4c5e:	f847 6d04 	str.w	r6, [r7, #-4]!
    4c62:	4eed      	ldr	r6, [pc, #948]	; (5018 <init_name+0x54>)
    4c64:	4770      	bx	lr
    4c66:	000048f8 	strdeq	r4, [r0], -r8

00004c6a <irq_vektor_adc0seq3>:
    4c6a:	f64f 7088 	movw	r0, #65416	; 0xff88
    4c6e:	f2c2 0003 	movt	r0, #8195	; 0x2003
    4c72:	6800      	ldr	r0, [r0, #0]
    4c74:	4687      	mov	pc, r0

00004c76 <Dictionary_1313>:
    4c76:	00004ca2 	andeq	r4, r0, r2, lsr #25
    4c7a:	690c0081 	stmdbvs	ip, {r0, r7}
    4c7e:	612d7172 	teqvs	sp, r2, ror r1
    4c82:	73316364 	teqvc	r1, #-1879048191	; 0x90000001
    4c86:	00307165 	eorseq	r7, r0, r5, ror #2

00004c8a <Code_1313>:
    4c8a:	f847 6d04 	str.w	r6, [r7, #-4]!
    4c8e:	4ee3      	ldr	r6, [pc, #908]	; (501c <init_name+0x58>)
    4c90:	4770      	bx	lr
    4c92:	000048f8 	strdeq	r4, [r0], -r8

00004c96 <irq_vektor_adc1seq0>:
    4c96:	f64f 7084 	movw	r0, #65412	; 0xff84
    4c9a:	f2c2 0003 	movt	r0, #8195	; 0x2003
    4c9e:	6800      	ldr	r0, [r0, #0]
    4ca0:	4687      	mov	pc, r0

00004ca2 <Dictionary_1317>:
    4ca2:	00004cce 	andeq	r4, r0, lr, asr #25
    4ca6:	690c0081 	stmdbvs	ip, {r0, r7}
    4caa:	612d7172 	teqvs	sp, r2, ror r1
    4cae:	73316364 	teqvc	r1, #-1879048191	; 0x90000001
    4cb2:	00317165 	eorseq	r7, r1, r5, ror #2

00004cb6 <Code_1317>:
    4cb6:	f847 6d04 	str.w	r6, [r7, #-4]!
    4cba:	4ed9      	ldr	r6, [pc, #868]	; (5020 <init_name+0x5c>)
    4cbc:	4770      	bx	lr
    4cbe:	000048f8 	strdeq	r4, [r0], -r8

00004cc2 <irq_vektor_adc1seq1>:
    4cc2:	f64f 7080 	movw	r0, #65408	; 0xff80
    4cc6:	f2c2 0003 	movt	r0, #8195	; 0x2003
    4cca:	6800      	ldr	r0, [r0, #0]
    4ccc:	4687      	mov	pc, r0

00004cce <Dictionary_1321>:
    4cce:	00004cfa 	strdeq	r4, [r0], -sl
    4cd2:	690c0081 	stmdbvs	ip, {r0, r7}
    4cd6:	612d7172 	teqvs	sp, r2, ror r1
    4cda:	73316364 	teqvc	r1, #-1879048191	; 0x90000001
    4cde:	00327165 	eorseq	r7, r2, r5, ror #2

00004ce2 <Code_1321>:
    4ce2:	f847 6d04 	str.w	r6, [r7, #-4]!
    4ce6:	4ecf      	ldr	r6, [pc, #828]	; (5024 <init_name+0x60>)
    4ce8:	4770      	bx	lr
    4cea:	000048f8 	strdeq	r4, [r0], -r8

00004cee <irq_vektor_adc1seq2>:
    4cee:	f64f 707c 	movw	r0, #65404	; 0xff7c
    4cf2:	f2c2 0003 	movt	r0, #8195	; 0x2003
    4cf6:	6800      	ldr	r0, [r0, #0]
    4cf8:	4687      	mov	pc, r0

00004cfa <Dictionary_1325>:
    4cfa:	00004d26 	andeq	r4, r0, r6, lsr #26
    4cfe:	690c0081 	stmdbvs	ip, {r0, r7}
    4d02:	612d7172 	teqvs	sp, r2, ror r1
    4d06:	73316364 	teqvc	r1, #-1879048191	; 0x90000001
    4d0a:	00337165 	eorseq	r7, r3, r5, ror #2

00004d0e <Code_1325>:
    4d0e:	f847 6d04 	str.w	r6, [r7, #-4]!
    4d12:	4ec5      	ldr	r6, [pc, #788]	; (5028 <init_name+0x64>)
    4d14:	4770      	bx	lr
    4d16:	000048f8 	strdeq	r4, [r0], -r8

00004d1a <irq_vektor_adc1seq3>:
    4d1a:	f64f 7078 	movw	r0, #65400	; 0xff78
    4d1e:	f2c2 0003 	movt	r0, #8195	; 0x2003
    4d22:	6800      	ldr	r0, [r0, #0]
    4d24:	4687      	mov	pc, r0

00004d26 <Dictionary_1329>:
    4d26:	00004d50 	andeq	r4, r0, r0, asr sp
    4d2a:	690b0081 	stmdbvs	fp, {r0, r7}
    4d2e:	742d7172 	strtvc	r7, [sp], #-370	; 0x172
    4d32:	72656d69 	rsbvc	r6, r5, #6720	; 0x1a40
    4d36:	f8476130 			; <UNDEFINED> instruction: 0xf8476130

00004d38 <Code_1329>:
    4d38:	f847 6d04 	str.w	r6, [r7, #-4]!
    4d3c:	4ebb      	ldr	r6, [pc, #748]	; (502c <init_name+0x68>)
    4d3e:	4770      	bx	lr
    4d40:	000048f8 	strdeq	r4, [r0], -r8

00004d44 <irq_vektor_timer0a>:
    4d44:	f64f 7074 	movw	r0, #65396	; 0xff74
    4d48:	f2c2 0003 	movt	r0, #8195	; 0x2003
    4d4c:	6800      	ldr	r0, [r0, #0]
    4d4e:	4687      	mov	pc, r0

00004d50 <Dictionary_1333>:
    4d50:	00004d7a 	andeq	r4, r0, sl, ror sp
    4d54:	690b0081 	stmdbvs	fp, {r0, r7}
    4d58:	742d7172 	strtvc	r7, [sp], #-370	; 0x172
    4d5c:	72656d69 	rsbvc	r6, r5, #6720	; 0x1a40
    4d60:	f8476230 			; <UNDEFINED> instruction: 0xf8476230

00004d62 <Code_1333>:
    4d62:	f847 6d04 	str.w	r6, [r7, #-4]!
    4d66:	4eb2      	ldr	r6, [pc, #712]	; (5030 <init_name+0x6c>)
    4d68:	4770      	bx	lr
    4d6a:	000048f8 	strdeq	r4, [r0], -r8

00004d6e <irq_vektor_timer0b>:
    4d6e:	f64f 7070 	movw	r0, #65392	; 0xff70
    4d72:	f2c2 0003 	movt	r0, #8195	; 0x2003
    4d76:	6800      	ldr	r0, [r0, #0]
    4d78:	4687      	mov	pc, r0

00004d7a <Dictionary_1337>:
    4d7a:	00004da4 	andeq	r4, r0, r4, lsr #27
    4d7e:	690b0081 	stmdbvs	fp, {r0, r7}
    4d82:	742d7172 	strtvc	r7, [sp], #-370	; 0x172
    4d86:	72656d69 	rsbvc	r6, r5, #6720	; 0x1a40
    4d8a:	f8476131 			; <UNDEFINED> instruction: 0xf8476131

00004d8c <Code_1337>:
    4d8c:	f847 6d04 	str.w	r6, [r7, #-4]!
    4d90:	4ea8      	ldr	r6, [pc, #672]	; (5034 <init_name+0x70>)
    4d92:	4770      	bx	lr
    4d94:	000048f8 	strdeq	r4, [r0], -r8

00004d98 <irq_vektor_timer1a>:
    4d98:	f64f 706c 	movw	r0, #65388	; 0xff6c
    4d9c:	f2c2 0003 	movt	r0, #8195	; 0x2003
    4da0:	6800      	ldr	r0, [r0, #0]
    4da2:	4687      	mov	pc, r0

00004da4 <Dictionary_1341>:
    4da4:	00004dce 	andeq	r4, r0, lr, asr #27
    4da8:	690b0081 	stmdbvs	fp, {r0, r7}
    4dac:	742d7172 	strtvc	r7, [sp], #-370	; 0x172
    4db0:	72656d69 	rsbvc	r6, r5, #6720	; 0x1a40
    4db4:	f8476231 			; <UNDEFINED> instruction: 0xf8476231

00004db6 <Code_1341>:
    4db6:	f847 6d04 	str.w	r6, [r7, #-4]!
    4dba:	4e9f      	ldr	r6, [pc, #636]	; (5038 <init_name+0x74>)
    4dbc:	4770      	bx	lr
    4dbe:	000048f8 	strdeq	r4, [r0], -r8

00004dc2 <irq_vektor_timer1b>:
    4dc2:	f64f 7068 	movw	r0, #65384	; 0xff68
    4dc6:	f2c2 0003 	movt	r0, #8195	; 0x2003
    4dca:	6800      	ldr	r0, [r0, #0]
    4dcc:	4687      	mov	pc, r0

00004dce <Dictionary_1345>:
    4dce:	00004df8 	strdeq	r4, [r0], -r8
    4dd2:	690b0081 	stmdbvs	fp, {r0, r7}
    4dd6:	742d7172 	strtvc	r7, [sp], #-370	; 0x172
    4dda:	72656d69 	rsbvc	r6, r5, #6720	; 0x1a40
    4dde:	f8476132 			; <UNDEFINED> instruction: 0xf8476132

00004de0 <Code_1345>:
    4de0:	f847 6d04 	str.w	r6, [r7, #-4]!
    4de4:	4e95      	ldr	r6, [pc, #596]	; (503c <init_name+0x78>)
    4de6:	4770      	bx	lr
    4de8:	000048f8 	strdeq	r4, [r0], -r8

00004dec <irq_vektor_timer2a>:
    4dec:	f64f 7064 	movw	r0, #65380	; 0xff64
    4df0:	f2c2 0003 	movt	r0, #8195	; 0x2003
    4df4:	6800      	ldr	r0, [r0, #0]
    4df6:	4687      	mov	pc, r0

00004df8 <Dictionary_1349>:
    4df8:	00004e22 	andeq	r4, r0, r2, lsr #28
    4dfc:	690b0081 	stmdbvs	fp, {r0, r7}
    4e00:	742d7172 	strtvc	r7, [sp], #-370	; 0x172
    4e04:	72656d69 	rsbvc	r6, r5, #6720	; 0x1a40
    4e08:	f8476232 			; <UNDEFINED> instruction: 0xf8476232

00004e0a <Code_1349>:
    4e0a:	f847 6d04 	str.w	r6, [r7, #-4]!
    4e0e:	4e8c      	ldr	r6, [pc, #560]	; (5040 <init_name+0x7c>)
    4e10:	4770      	bx	lr
    4e12:	000048f8 	strdeq	r4, [r0], -r8

00004e16 <irq_vektor_timer2b>:
    4e16:	f64f 7060 	movw	r0, #65376	; 0xff60
    4e1a:	f2c2 0003 	movt	r0, #8195	; 0x2003
    4e1e:	6800      	ldr	r0, [r0, #0]
    4e20:	4687      	mov	pc, r0

00004e22 <Dictionary_1353>:
    4e22:	00004e4c 	andeq	r4, r0, ip, asr #28
    4e26:	690b0081 	stmdbvs	fp, {r0, r7}
    4e2a:	742d7172 	strtvc	r7, [sp], #-370	; 0x172
    4e2e:	72656d69 	rsbvc	r6, r5, #6720	; 0x1a40
    4e32:	f8476133 			; <UNDEFINED> instruction: 0xf8476133

00004e34 <Code_1353>:
    4e34:	f847 6d04 	str.w	r6, [r7, #-4]!
    4e38:	4e82      	ldr	r6, [pc, #520]	; (5044 <init_name+0x80>)
    4e3a:	4770      	bx	lr
    4e3c:	000048f8 	strdeq	r4, [r0], -r8

00004e40 <irq_vektor_timer3a>:
    4e40:	f64f 705c 	movw	r0, #65372	; 0xff5c
    4e44:	f2c2 0003 	movt	r0, #8195	; 0x2003
    4e48:	6800      	ldr	r0, [r0, #0]
    4e4a:	4687      	mov	pc, r0

00004e4c <Dictionary_1357>:
    4e4c:	00004e76 	andeq	r4, r0, r6, ror lr
    4e50:	690b0081 	stmdbvs	fp, {r0, r7}
    4e54:	742d7172 	strtvc	r7, [sp], #-370	; 0x172
    4e58:	72656d69 	rsbvc	r6, r5, #6720	; 0x1a40
    4e5c:	f8476233 			; <UNDEFINED> instruction: 0xf8476233

00004e5e <Code_1357>:
    4e5e:	f847 6d04 	str.w	r6, [r7, #-4]!
    4e62:	4e79      	ldr	r6, [pc, #484]	; (5048 <init_name+0x84>)
    4e64:	4770      	bx	lr
    4e66:	000048f8 	strdeq	r4, [r0], -r8

00004e6a <irq_vektor_timer3b>:
    4e6a:	f64f 7058 	movw	r0, #65368	; 0xff58
    4e6e:	f2c2 0003 	movt	r0, #8195	; 0x2003
    4e72:	6800      	ldr	r0, [r0, #0]
    4e74:	4687      	mov	pc, r0

00004e76 <Dictionary_1361>:
    4e76:	00004ea2 	andeq	r4, r0, r2, lsr #29
    4e7a:	690c0081 	stmdbvs	ip, {r0, r7}
    4e7e:	652d7172 	strvs	r7, [sp, #-370]!	; 0x172
    4e82:	72656874 	rsbvc	r6, r5, #7602176	; 0x740000
    4e86:	0074656e 	rsbseq	r6, r4, lr, ror #10

00004e8a <Code_1361>:
    4e8a:	f847 6d04 	str.w	r6, [r7, #-4]!
    4e8e:	4e6f      	ldr	r6, [pc, #444]	; (504c <init_name+0x88>)
    4e90:	4770      	bx	lr
    4e92:	000048f8 	strdeq	r4, [r0], -r8

00004e96 <irq_vektor_ethernet>:
    4e96:	f64f 7054 	movw	r0, #65364	; 0xff54
    4e9a:	f2c2 0003 	movt	r0, #8195	; 0x2003
    4e9e:	6800      	ldr	r0, [r0, #0]
    4ea0:	4687      	mov	pc, r0

00004ea2 <Dictionary_1364>:
    4ea2:	00008000 	andeq	r8, r0, r0
    4ea6:	2d18ffff 	ldccs	15, cr15, [r8, #-1020]	; 0xfffffc04
    4eaa:	46202d2d 	strtmi	r2, [r0], -sp, lsr #26
    4eae:	6873616c 	ldmdavs	r3!, {r2, r3, r5, r6, r8, sp, lr}^
    4eb2:	63694420 	cmnvs	r9, #536870912	; 0x20000000
    4eb6:	6e6f6974 	mcrvs	9, 3, r6, cr15, cr4, {3}
    4eba:	20797261 	rsbscs	r7, r9, r1, ror #4
    4ebe:	002d2d2d 	eoreq	r2, sp, sp, lsr #26

00004ec2 <Code_1364>:
    4ec2:	f7fd fb5c 	bl	257e <uart_init>
    4ec6:	4862      	ldr	r0, [pc, #392]	; (5050 <init_name+0x8c>)
    4ec8:	4685      	mov	sp, r0
    4eca:	4f62      	ldr	r7, [pc, #392]	; (5054 <init_name+0x90>)
    4ecc:	262a      	movs	r6, #42	; 0x2a
    4ece:	4862      	ldr	r0, [pc, #392]	; (5058 <init_name+0x94>)
    4ed0:	495f      	ldr	r1, [pc, #380]	; (5050 <init_name+0x8c>)
    4ed2:	6001      	str	r1, [r0, #0]
    4ed4:	4861      	ldr	r0, [pc, #388]	; (505c <init_name+0x98>)
    4ed6:	4962      	ldr	r1, [pc, #392]	; (5060 <init_name+0x9c>)
    4ed8:	6001      	str	r1, [r0, #0]
    4eda:	f847 6d04 	str.w	r6, [r7, #-4]!
    4ede:	4e60      	ldr	r6, [pc, #384]	; (5060 <init_name+0x9c>)
    4ee0:	4d60      	ldr	r5, [pc, #384]	; (5064 <init_name+0xa0>)

00004ee2 <SucheFlashPointer_Hangelschleife>:
    4ee2:	88b1      	ldrh	r1, [r6, #4]
    4ee4:	4b60      	ldr	r3, [pc, #384]	; (5068 <init_name+0xa4>)
    4ee6:	4299      	cmp	r1, r3
    4ee8:	d024      	beq.n	4f34 <Sucheflashpointer_Speicherbelegung_fertig>
    4eea:	4b60      	ldr	r3, [pc, #384]	; (506c <init_name+0xa8>)
    4eec:	400b      	ands	r3, r1
    4eee:	d00a      	beq.n	4f06 <SucheFlashPointer_Hangelschleife+0x24>
    4ef0:	1db0      	adds	r0, r6, #6
    4ef2:	f7fe fcd9 	bl	38a8 <skipstring>
    4ef6:	f7fe f80a 	bl	2f0e <suchedefinitionsende>
    4efa:	8803      	ldrh	r3, [r0, #0]
    4efc:	8840      	ldrh	r0, [r0, #2]
    4efe:	0400      	lsls	r0, r0, #16
    4f00:	4303      	orrs	r3, r0
    4f02:	1aed      	subs	r5, r5, r3
    4f04:	e016      	b.n	4f34 <Sucheflashpointer_Speicherbelegung_fertig>
    4f06:	2380      	movs	r3, #128	; 0x80
    4f08:	400b      	ands	r3, r1
    4f0a:	d013      	beq.n	4f34 <Sucheflashpointer_Speicherbelegung_fertig>
    4f0c:	230f      	movs	r3, #15
    4f0e:	4019      	ands	r1, r3
    4f10:	0089      	lsls	r1, r1, #2
    4f12:	1a6d      	subs	r5, r5, r1
    4f14:	1db0      	adds	r0, r6, #6
    4f16:	f7fe fcc7 	bl	38a8 <skipstring>
    4f1a:	f7fd fff8 	bl	2f0e <suchedefinitionsende>
    4f1e:	f847 6d04 	str.w	r6, [r7, #-4]!
    4f22:	0006      	movs	r6, r0
    4f24:	f847 6d04 	str.w	r6, [r7, #-4]!
    4f28:	002e      	movs	r6, r5
    4f2a:	f847 6d04 	str.w	r6, [r7, #-4]!
    4f2e:	000e      	movs	r6, r1
    4f30:	f7fc fcbe 	bl	18b0 <Code_370>

00004f34 <Sucheflashpointer_Speicherbelegung_fertig>:
    4f34:	f7fe fc96 	bl	3864 <Code_900>
    4f38:	0030      	movs	r0, r6
    4f3a:	cf40      	ldmia	r7!, {r6}
    4f3c:	d0d1      	beq.n	4ee2 <SucheFlashPointer_Hangelschleife>
    4f3e:	484c      	ldr	r0, [pc, #304]	; (5070 <init_name+0xac>)
    4f40:	6006      	str	r6, [r0, #0]
    4f42:	cf40      	ldmia	r7!, {r6}
    4f44:	484b      	ldr	r0, [pc, #300]	; (5074 <init_name+0xb0>)
    4f46:	6005      	str	r5, [r0, #0]
    4f48:	484b      	ldr	r0, [pc, #300]	; (5078 <init_name+0xb4>)
    4f4a:	494c      	ldr	r1, [pc, #304]	; (507c <init_name+0xb8>)
    4f4c:	4a46      	ldr	r2, [pc, #280]	; (5068 <init_name+0xa4>)
    4f4e:	4288      	cmp	r0, r1
    4f50:	d004      	beq.n	4f5c <Sucheflashpointer_Speicherbelegung_fertig+0x28>
    4f52:	3802      	subs	r0, #2
    4f54:	8803      	ldrh	r3, [r0, #0]
    4f56:	4293      	cmp	r3, r2
    4f58:	d0f9      	beq.n	4f4e <Sucheflashpointer_Speicherbelegung_fertig+0x1a>
    4f5a:	3002      	adds	r0, #2
    4f5c:	4948      	ldr	r1, [pc, #288]	; (5080 <init_name+0xbc>)
    4f5e:	6008      	str	r0, [r1, #0]
    4f60:	f7fd fc95 	bl	288e <dotgaensefuesschen>
    4f64:	63654d39 	cmnvs	r5, #3648	; 0xe40
    4f68:	70736972 	rsbsvc	r6, r3, r2, ror r9
    4f6c:	6574532d 	ldrbvs	r5, [r4, #-813]!	; 0x32d
    4f70:	72616c6c 	rsbvc	r6, r1, #27648	; 0x6c00
    4f74:	52207369 	eorpl	r7, r0, #-1543503871	; 0xa4000001
    4f78:	2e322041 	cdpcs	0, 3, cr2, cr2, cr1, {2}
    4f7c:	20312e32 	eorscs	r2, r1, r2, lsr lr
    4f80:	20726f66 	rsbscs	r6, r2, r6, ror #30
    4f84:	43344d54 	teqmi	r4, #5376	; 0x1500
    4f88:	34393231 	ldrtcc	r3, [r9], #-561	; 0x231
    4f8c:	20796220 	rsbscs	r6, r9, r0, lsr #4
    4f90:	7474614d 	ldrbtvc	r6, [r4], #-333	; 0x14d
    4f94:	73616968 	cmnvc	r1, #1703936	; 0x1a0000
    4f98:	636f4b20 	cmnvs	pc, #32768	; 0x8000
    4f9c:	48390a68 	ldmdami	r9!, {r3, r5, r6, r9, fp}
    4fa0:	2100      	movs	r1, #0
    4fa2:	6001      	str	r1, [r0, #0]
    4fa4:	f847 6d04 	str.w	r6, [r7, #-4]!
    4fa8:	4e37      	ldr	r6, [pc, #220]	; (5088 <init_name+0xc4>)
    4faa:	f847 6d04 	str.w	r6, [r7, #-4]!
    4fae:	2604      	movs	r6, #4
    4fb0:	f7fe fc89 	bl	38c6 <Code_905>
    4fb4:	cf40      	ldmia	r7!, {r6}
    4fb6:	2e00      	cmp	r6, #0
    4fb8:	d002      	beq.n	4fc0 <Sucheflashpointer_Speicherbelegung_fertig+0x8c>
    4fba:	f7fe f840 	bl	303e <Code_749>
    4fbe:	e433      	b.n	4828 <quit_intern>
    4fc0:	cf40      	ldmia	r7!, {r6}
    4fc2:	e41e      	b.n	4802 <Code_1222>

00004fc4 <init_name>:
    4fc4:	74696e69 	strbtvc	r6, [r9], #-3689	; 0xe69
    4fc8:	e000ed0c 	and	lr, r0, ip, lsl #26
    4fcc:	05fa0004 	ldrbeq	r0, [sl, #4]!
    4fd0:	2003ffd0 	ldrdcs	pc, [r3], -r0
    4fd4:	2003ffcc 	andcs	pc, r3, ip, asr #31
    4fd8:	2003ffc8 	andcs	pc, r3, r8, asr #31
    4fdc:	2003ffc4 	andcs	pc, r3, r4, asr #31
    4fe0:	2003ffc0 	andcs	pc, r3, r0, asr #31
    4fe4:	2003ffbc 			; <UNDEFINED> instruction: 0x2003ffbc
    4fe8:	2003ffb8 			; <UNDEFINED> instruction: 0x2003ffb8
    4fec:	2003ffb4 			; <UNDEFINED> instruction: 0x2003ffb4
    4ff0:	2003ffb0 			; <UNDEFINED> instruction: 0x2003ffb0
    4ff4:	2003ffac 	andcs	pc, r3, ip, lsr #31
    4ff8:	2003ffa8 	andcs	pc, r3, r8, lsr #31
    4ffc:	2003ffa4 	andcs	pc, r3, r4, lsr #31
    5000:	2003ffa0 	andcs	pc, r3, r0, lsr #31
    5004:	2003ff9c 	mulcs	r3, ip, pc	; <UNPREDICTABLE>
    5008:	2003ff98 	mulcs	r3, r8, pc	; <UNPREDICTABLE>
    500c:	2003ff94 	mulcs	r3, r4, pc	; <UNPREDICTABLE>
    5010:	2003ff90 	mulcs	r3, r0, pc	; <UNPREDICTABLE>
    5014:	2003ff8c 	andcs	pc, r3, ip, lsl #31
    5018:	2003ff88 	andcs	pc, r3, r8, lsl #31
    501c:	2003ff84 	andcs	pc, r3, r4, lsl #31
    5020:	2003ff80 	andcs	pc, r3, r0, lsl #31
    5024:	2003ff7c 	andcs	pc, r3, ip, ror pc	; <UNPREDICTABLE>
    5028:	2003ff78 	andcs	pc, r3, r8, ror pc	; <UNPREDICTABLE>
    502c:	2003ff74 	andcs	pc, r3, r4, ror pc	; <UNPREDICTABLE>
    5030:	2003ff70 	andcs	pc, r3, r0, ror pc	; <UNPREDICTABLE>
    5034:	2003ff6c 	andcs	pc, r3, ip, ror #30
    5038:	2003ff68 	andcs	pc, r3, r8, ror #30
    503c:	2003ff64 	andcs	pc, r3, r4, ror #30
    5040:	2003ff60 	andcs	pc, r3, r0, ror #30
    5044:	2003ff5c 	andcs	pc, r3, ip, asr pc	; <UNPREDICTABLE>
    5048:	2003ff58 	andcs	pc, r3, r8, asr pc	; <UNPREDICTABLE>
    504c:	2003ff54 	andcs	pc, r3, r4, asr pc	; <UNPREDICTABLE>
    5050:	2000038c 	andcs	r0, r0, ip, lsl #7
    5054:	2000028c 	andcs	r0, r0, ip, lsl #5
    5058:	20000000 	andcs	r0, r0, r0
    505c:	20000004 	andcs	r0, r0, r4
    5060:	000001fc 	strdeq	r0, [r0], -ip
    5064:	20040000 	andcs	r0, r4, r0
    5068:	0000ffff 	strdeq	pc, [r0], -pc	; <UNPREDICTABLE>
    506c:	00000100 	andeq	r0, r0, r0, lsl #2
    5070:	2000001c 	andcs	r0, r0, ip, lsl r0
    5074:	20000024 	andcs	r0, r0, r4, lsr #32
    5078:	00100000 	andseq	r0, r0, r0
    507c:	00008000 	andeq	r8, r0, r0
    5080:	20000018 	andcs	r0, r0, r8, lsl r0
    5084:	20000008 	andcs	r0, r0, r8
    5088:	00004fc4 	andeq	r4, r0, r4, asr #31

Disassembly of section .ARM.attributes:

00000000 <.ARM.attributes>:
   0:	00002041 	andeq	r2, r0, r1, asr #32
   4:	61656100 	cmnvs	r5, r0, lsl #2
   8:	01006962 	tsteq	r0, r2, ror #18
   c:	00000016 	andeq	r0, r0, r6, lsl r0
  10:	726f4305 	rsbvc	r4, pc, #335544320	; 0x14000000
  14:	2d786574 	cfldr64cs	mvdx6, [r8, #-464]!	; 0xfffffe30
  18:	0600344d 	streq	r3, [r0], -sp, asr #8
  1c:	094d070d 	stmdbeq	sp, {r0, r2, r3, r8, r9, sl}^
  20:	Address 0x00000020 is out of bounds.

