
mecrisp-stellaris-mk20dx256.elf:     file format elf32-littlearm


Disassembly of section .text:

00000000 <CoreDictionaryAnfang-0x410>:
       0:	1fff8330 	svcne	0x00ff8330
       4:	00003d07 	andeq	r3, r0, r7, lsl #26
       8:	00003aa3 	andeq	r3, r0, r3, lsr #21
       c:	00003aa3 	andeq	r3, r0, r3, lsr #21
      10:	00003aa3 	andeq	r3, r0, r3, lsr #21
      14:	00003aa3 	andeq	r3, r0, r3, lsr #21
      18:	00003aa3 	andeq	r3, r0, r3, lsr #21
	...
      2c:	00003ad1 	ldrdeq	r3, [r0], -r1
      30:	00003ad1 	ldrdeq	r3, [r0], -r1
      34:	00000000 	andeq	r0, r0, r0
      38:	00003ad1 	ldrdeq	r3, [r0], -r1
      3c:	00003a7b 	andeq	r3, r0, fp, ror sl
      40:	00003ad1 	ldrdeq	r3, [r0], -r1
      44:	00003ad1 	ldrdeq	r3, [r0], -r1
      48:	00003ad1 	ldrdeq	r3, [r0], -r1
      4c:	00003ad1 	ldrdeq	r3, [r0], -r1
      50:	00003ad1 	ldrdeq	r3, [r0], -r1
      54:	00003ad1 	ldrdeq	r3, [r0], -r1
      58:	00003ad1 	ldrdeq	r3, [r0], -r1
      5c:	00003ad1 	ldrdeq	r3, [r0], -r1
      60:	00003ad1 	ldrdeq	r3, [r0], -r1
      64:	00003ad1 	ldrdeq	r3, [r0], -r1
      68:	00003ad1 	ldrdeq	r3, [r0], -r1
      6c:	00003ad1 	ldrdeq	r3, [r0], -r1
      70:	00003ad1 	ldrdeq	r3, [r0], -r1
      74:	00003ad1 	ldrdeq	r3, [r0], -r1
      78:	00003ad1 	ldrdeq	r3, [r0], -r1
      7c:	00003ad1 	ldrdeq	r3, [r0], -r1
      80:	00003ad1 	ldrdeq	r3, [r0], -r1
      84:	00000000 	andeq	r0, r0, r0
      88:	00003ad1 	ldrdeq	r3, [r0], -r1
      8c:	00003ad1 	ldrdeq	r3, [r0], -r1
      90:	00003ad1 	ldrdeq	r3, [r0], -r1
      94:	00003ad1 	ldrdeq	r3, [r0], -r1
      98:	00003ad1 	ldrdeq	r3, [r0], -r1
      9c:	00000000 	andeq	r0, r0, r0
      a0:	00003ad1 	ldrdeq	r3, [r0], -r1
      a4:	00003ad1 	ldrdeq	r3, [r0], -r1
      a8:	00003ad1 	ldrdeq	r3, [r0], -r1
      ac:	00003ad1 	ldrdeq	r3, [r0], -r1
      b0:	00000000 	andeq	r0, r0, r0
      b4:	00003ad1 	ldrdeq	r3, [r0], -r1
      b8:	00003ad1 	ldrdeq	r3, [r0], -r1
      bc:	00003ad1 	ldrdeq	r3, [r0], -r1
      c0:	00003ad1 	ldrdeq	r3, [r0], -r1
      c4:	00003ad1 	ldrdeq	r3, [r0], -r1
      c8:	00003ad1 	ldrdeq	r3, [r0], -r1
      cc:	00003ad1 	ldrdeq	r3, [r0], -r1
      d0:	00003ad1 	ldrdeq	r3, [r0], -r1
	...
      f0:	00003ad1 	ldrdeq	r3, [r0], -r1
      f4:	00003cb1 			; <UNDEFINED> instruction: 0x00003cb1
      f8:	00003cdb 	ldrdeq	r3, [r0], -fp
      fc:	00003ad1 	ldrdeq	r3, [r0], -r1
     100:	00003ad1 	ldrdeq	r3, [r0], -r1
     104:	00003ad1 	ldrdeq	r3, [r0], -r1
     108:	00003ad1 	ldrdeq	r3, [r0], -r1
	...
     124:	00003af9 	strdeq	r3, [r0], -r9
     128:	00003b21 	andeq	r3, r0, r1, lsr #22
     12c:	00003b49 	andeq	r3, r0, r9, asr #22
     130:	00003b71 	andeq	r3, r0, r1, ror fp
     134:	00003b99 	muleq	r0, r9, fp
     138:	00003ad1 	ldrdeq	r3, [r0], -r1
     13c:	00003ad1 	ldrdeq	r3, [r0], -r1
     140:	00003ad1 	ldrdeq	r3, [r0], -r1
     144:	00003ad1 	ldrdeq	r3, [r0], -r1
     148:	00003ad1 	ldrdeq	r3, [r0], -r1
     14c:	00003ad1 	ldrdeq	r3, [r0], -r1
     150:	00003ad1 	ldrdeq	r3, [r0], -r1
     154:	00003ad1 	ldrdeq	r3, [r0], -r1
     158:	00003ad1 	ldrdeq	r3, [r0], -r1
     15c:	00003ad1 	ldrdeq	r3, [r0], -r1
     160:	00003ad1 	ldrdeq	r3, [r0], -r1
     164:	00003ad1 	ldrdeq	r3, [r0], -r1
     168:	00003ad1 	ldrdeq	r3, [r0], -r1
	...
     184:	00003bbf 			; <UNDEFINED> instruction: 0x00003bbf
     188:	00000000 	andeq	r0, r0, r0
     18c:	00003ad1 	ldrdeq	r3, [r0], -r1
     190:	00003ad1 	ldrdeq	r3, [r0], -r1
     194:	00003ad1 	ldrdeq	r3, [r0], -r1
     198:	00003ad1 	ldrdeq	r3, [r0], -r1
     19c:	00003be7 	andeq	r3, r0, r7, ror #23
     1a0:	00003c0f 	andeq	r3, r0, pc, lsl #24
     1a4:	00003c37 	andeq	r3, r0, r7, lsr ip
     1a8:	00003c5f 	andeq	r3, r0, pc, asr ip
     1ac:	00003c87 	andeq	r3, r0, r7, lsl #25
	...
     1b8:	00003ad1 	ldrdeq	r3, [r0], -r1
     1bc:	ffffffff 			; <UNDEFINED> instruction: 0xffffffff
     1c0:	ffffffff 			; <UNDEFINED> instruction: 0xffffffff
     1c4:	ffffffff 			; <UNDEFINED> instruction: 0xffffffff
     1c8:	ffffffff 			; <UNDEFINED> instruction: 0xffffffff
     1cc:	ffffffff 			; <UNDEFINED> instruction: 0xffffffff
     1d0:	ffffffff 			; <UNDEFINED> instruction: 0xffffffff
     1d4:	ffffffff 			; <UNDEFINED> instruction: 0xffffffff
     1d8:	ffffffff 			; <UNDEFINED> instruction: 0xffffffff
     1dc:	ffffffff 			; <UNDEFINED> instruction: 0xffffffff
     1e0:	ffffffff 			; <UNDEFINED> instruction: 0xffffffff
     1e4:	ffffffff 			; <UNDEFINED> instruction: 0xffffffff
     1e8:	ffffffff 			; <UNDEFINED> instruction: 0xffffffff
     1ec:	ffffffff 			; <UNDEFINED> instruction: 0xffffffff
     1f0:	ffffffff 			; <UNDEFINED> instruction: 0xffffffff
     1f4:	ffffffff 			; <UNDEFINED> instruction: 0xffffffff
     1f8:	ffffffff 			; <UNDEFINED> instruction: 0xffffffff
     1fc:	ffffffff 			; <UNDEFINED> instruction: 0xffffffff
     200:	ffffffff 			; <UNDEFINED> instruction: 0xffffffff
     204:	ffffffff 			; <UNDEFINED> instruction: 0xffffffff
     208:	ffffffff 			; <UNDEFINED> instruction: 0xffffffff
     20c:	ffffffff 			; <UNDEFINED> instruction: 0xffffffff
     210:	ffffffff 			; <UNDEFINED> instruction: 0xffffffff
     214:	ffffffff 			; <UNDEFINED> instruction: 0xffffffff
     218:	ffffffff 			; <UNDEFINED> instruction: 0xffffffff
     21c:	ffffffff 			; <UNDEFINED> instruction: 0xffffffff
     220:	ffffffff 			; <UNDEFINED> instruction: 0xffffffff
     224:	ffffffff 			; <UNDEFINED> instruction: 0xffffffff
     228:	ffffffff 			; <UNDEFINED> instruction: 0xffffffff
     22c:	ffffffff 			; <UNDEFINED> instruction: 0xffffffff
     230:	ffffffff 			; <UNDEFINED> instruction: 0xffffffff
     234:	ffffffff 			; <UNDEFINED> instruction: 0xffffffff
     238:	ffffffff 			; <UNDEFINED> instruction: 0xffffffff
     23c:	ffffffff 			; <UNDEFINED> instruction: 0xffffffff
     240:	ffffffff 			; <UNDEFINED> instruction: 0xffffffff
     244:	ffffffff 			; <UNDEFINED> instruction: 0xffffffff
     248:	ffffffff 			; <UNDEFINED> instruction: 0xffffffff
     24c:	ffffffff 			; <UNDEFINED> instruction: 0xffffffff
     250:	ffffffff 			; <UNDEFINED> instruction: 0xffffffff
     254:	ffffffff 			; <UNDEFINED> instruction: 0xffffffff
     258:	ffffffff 			; <UNDEFINED> instruction: 0xffffffff
     25c:	ffffffff 			; <UNDEFINED> instruction: 0xffffffff
     260:	ffffffff 			; <UNDEFINED> instruction: 0xffffffff
     264:	ffffffff 			; <UNDEFINED> instruction: 0xffffffff
     268:	ffffffff 			; <UNDEFINED> instruction: 0xffffffff
     26c:	ffffffff 			; <UNDEFINED> instruction: 0xffffffff
     270:	ffffffff 			; <UNDEFINED> instruction: 0xffffffff
     274:	ffffffff 			; <UNDEFINED> instruction: 0xffffffff
     278:	ffffffff 			; <UNDEFINED> instruction: 0xffffffff
     27c:	ffffffff 			; <UNDEFINED> instruction: 0xffffffff
     280:	ffffffff 			; <UNDEFINED> instruction: 0xffffffff
     284:	ffffffff 			; <UNDEFINED> instruction: 0xffffffff
     288:	ffffffff 			; <UNDEFINED> instruction: 0xffffffff
     28c:	ffffffff 			; <UNDEFINED> instruction: 0xffffffff
     290:	ffffffff 			; <UNDEFINED> instruction: 0xffffffff
     294:	ffffffff 			; <UNDEFINED> instruction: 0xffffffff
     298:	ffffffff 			; <UNDEFINED> instruction: 0xffffffff
     29c:	ffffffff 			; <UNDEFINED> instruction: 0xffffffff
     2a0:	ffffffff 			; <UNDEFINED> instruction: 0xffffffff
     2a4:	ffffffff 			; <UNDEFINED> instruction: 0xffffffff
     2a8:	ffffffff 			; <UNDEFINED> instruction: 0xffffffff
     2ac:	ffffffff 			; <UNDEFINED> instruction: 0xffffffff
     2b0:	ffffffff 			; <UNDEFINED> instruction: 0xffffffff
     2b4:	ffffffff 			; <UNDEFINED> instruction: 0xffffffff
     2b8:	ffffffff 			; <UNDEFINED> instruction: 0xffffffff
     2bc:	ffffffff 			; <UNDEFINED> instruction: 0xffffffff
     2c0:	ffffffff 			; <UNDEFINED> instruction: 0xffffffff
     2c4:	ffffffff 			; <UNDEFINED> instruction: 0xffffffff
     2c8:	ffffffff 			; <UNDEFINED> instruction: 0xffffffff
     2cc:	ffffffff 			; <UNDEFINED> instruction: 0xffffffff
     2d0:	ffffffff 			; <UNDEFINED> instruction: 0xffffffff
     2d4:	ffffffff 			; <UNDEFINED> instruction: 0xffffffff
     2d8:	ffffffff 			; <UNDEFINED> instruction: 0xffffffff
     2dc:	ffffffff 			; <UNDEFINED> instruction: 0xffffffff
     2e0:	ffffffff 			; <UNDEFINED> instruction: 0xffffffff
     2e4:	ffffffff 			; <UNDEFINED> instruction: 0xffffffff
     2e8:	ffffffff 			; <UNDEFINED> instruction: 0xffffffff
     2ec:	ffffffff 			; <UNDEFINED> instruction: 0xffffffff
     2f0:	ffffffff 			; <UNDEFINED> instruction: 0xffffffff
     2f4:	ffffffff 			; <UNDEFINED> instruction: 0xffffffff
     2f8:	ffffffff 			; <UNDEFINED> instruction: 0xffffffff
     2fc:	ffffffff 			; <UNDEFINED> instruction: 0xffffffff
     300:	ffffffff 			; <UNDEFINED> instruction: 0xffffffff
     304:	ffffffff 			; <UNDEFINED> instruction: 0xffffffff
     308:	ffffffff 			; <UNDEFINED> instruction: 0xffffffff
     30c:	ffffffff 			; <UNDEFINED> instruction: 0xffffffff
     310:	ffffffff 			; <UNDEFINED> instruction: 0xffffffff
     314:	ffffffff 			; <UNDEFINED> instruction: 0xffffffff
     318:	ffffffff 			; <UNDEFINED> instruction: 0xffffffff
     31c:	ffffffff 			; <UNDEFINED> instruction: 0xffffffff
     320:	ffffffff 			; <UNDEFINED> instruction: 0xffffffff
     324:	ffffffff 			; <UNDEFINED> instruction: 0xffffffff
     328:	ffffffff 			; <UNDEFINED> instruction: 0xffffffff
     32c:	ffffffff 			; <UNDEFINED> instruction: 0xffffffff
     330:	ffffffff 			; <UNDEFINED> instruction: 0xffffffff
     334:	ffffffff 			; <UNDEFINED> instruction: 0xffffffff
     338:	ffffffff 			; <UNDEFINED> instruction: 0xffffffff
     33c:	ffffffff 			; <UNDEFINED> instruction: 0xffffffff
     340:	ffffffff 			; <UNDEFINED> instruction: 0xffffffff
     344:	ffffffff 			; <UNDEFINED> instruction: 0xffffffff
     348:	ffffffff 			; <UNDEFINED> instruction: 0xffffffff
     34c:	ffffffff 			; <UNDEFINED> instruction: 0xffffffff
     350:	ffffffff 			; <UNDEFINED> instruction: 0xffffffff
     354:	ffffffff 			; <UNDEFINED> instruction: 0xffffffff
     358:	ffffffff 			; <UNDEFINED> instruction: 0xffffffff
     35c:	ffffffff 			; <UNDEFINED> instruction: 0xffffffff
     360:	ffffffff 			; <UNDEFINED> instruction: 0xffffffff
     364:	ffffffff 			; <UNDEFINED> instruction: 0xffffffff
     368:	ffffffff 			; <UNDEFINED> instruction: 0xffffffff
     36c:	ffffffff 			; <UNDEFINED> instruction: 0xffffffff
     370:	ffffffff 			; <UNDEFINED> instruction: 0xffffffff
     374:	ffffffff 			; <UNDEFINED> instruction: 0xffffffff
     378:	ffffffff 			; <UNDEFINED> instruction: 0xffffffff
     37c:	ffffffff 			; <UNDEFINED> instruction: 0xffffffff
     380:	ffffffff 			; <UNDEFINED> instruction: 0xffffffff
     384:	ffffffff 			; <UNDEFINED> instruction: 0xffffffff
     388:	ffffffff 			; <UNDEFINED> instruction: 0xffffffff
     38c:	ffffffff 			; <UNDEFINED> instruction: 0xffffffff
     390:	ffffffff 			; <UNDEFINED> instruction: 0xffffffff
     394:	ffffffff 			; <UNDEFINED> instruction: 0xffffffff
     398:	ffffffff 			; <UNDEFINED> instruction: 0xffffffff
     39c:	ffffffff 			; <UNDEFINED> instruction: 0xffffffff
     3a0:	ffffffff 			; <UNDEFINED> instruction: 0xffffffff
     3a4:	ffffffff 			; <UNDEFINED> instruction: 0xffffffff
     3a8:	ffffffff 			; <UNDEFINED> instruction: 0xffffffff
     3ac:	ffffffff 			; <UNDEFINED> instruction: 0xffffffff
     3b0:	ffffffff 			; <UNDEFINED> instruction: 0xffffffff
     3b4:	ffffffff 			; <UNDEFINED> instruction: 0xffffffff
     3b8:	ffffffff 			; <UNDEFINED> instruction: 0xffffffff
     3bc:	ffffffff 			; <UNDEFINED> instruction: 0xffffffff
     3c0:	ffffffff 			; <UNDEFINED> instruction: 0xffffffff
     3c4:	ffffffff 			; <UNDEFINED> instruction: 0xffffffff
     3c8:	ffffffff 			; <UNDEFINED> instruction: 0xffffffff
     3cc:	ffffffff 			; <UNDEFINED> instruction: 0xffffffff
     3d0:	ffffffff 			; <UNDEFINED> instruction: 0xffffffff
     3d4:	ffffffff 			; <UNDEFINED> instruction: 0xffffffff
     3d8:	ffffffff 			; <UNDEFINED> instruction: 0xffffffff
     3dc:	ffffffff 			; <UNDEFINED> instruction: 0xffffffff
     3e0:	ffffffff 			; <UNDEFINED> instruction: 0xffffffff
     3e4:	ffffffff 			; <UNDEFINED> instruction: 0xffffffff
     3e8:	ffffffff 			; <UNDEFINED> instruction: 0xffffffff
     3ec:	ffffffff 			; <UNDEFINED> instruction: 0xffffffff
     3f0:	ffffffff 			; <UNDEFINED> instruction: 0xffffffff
     3f4:	ffffffff 			; <UNDEFINED> instruction: 0xffffffff
     3f8:	ffffffff 			; <UNDEFINED> instruction: 0xffffffff
     3fc:	ffffffff 			; <UNDEFINED> instruction: 0xffffffff
     400:	ffffffff 			; <UNDEFINED> instruction: 0xffffffff
     404:	ffffffff 			; <UNDEFINED> instruction: 0xffffffff
     408:	ffffffff 			; <UNDEFINED> instruction: 0xffffffff
     40c:	00000000 	andeq	r0, r0, r0

00000410 <CoreDictionaryAnfang>:
     410:	00000436 	andeq	r0, r0, r6, lsr r4
     414:	2d1effff 	ldccs	15, cr15, [lr, #-1020]	; 0xfffffc04
     418:	4d202d2d 	stcmi	13, cr2, [r0, #-180]!	; 0xffffff4c
     41c:	69726365 	ldmdbvs	r2!, {r0, r2, r5, r6, r8, r9, sp, lr}^
     420:	532d7073 	teqpl	sp, #115	; 0x73
     424:	6c6c6574 	cfstr64vs	mvdx6, [ip], #-464	; 0xfffffe30
     428:	73697261 	cmnvc	r9, #268435462	; 0x10000006
     42c:	726f4320 	rsbvc	r4, pc, #-2147483648	; 0x80000000
     430:	2d2d2065 	stccs	0, cr2, [sp, #-404]!	; 0xfffffe6c
     434:	044e002d 	strbeq	r0, [lr], #-45	; 0x2d

00000436 <Code_17>:
     436:	0000044e 	andeq	r0, r0, lr, asr #8
     43a:	32040042 	andcc	r0, r4, #66	; 0x42
     43e:	00707564 	rsbseq	r7, r0, r4, ror #10

00000442 <Code_18>:
     442:	6838      	ldr	r0, [r7, #0]
     444:	f847 6d04 	str.w	r6, [r7, #-4]!
     448:	3f04      	subs	r7, #4
     44a:	6038      	str	r0, [r7, #0]
     44c:	4770      	bx	lr

0000044e <Dictionary_20>:
     44e:	00000460 	andeq	r0, r0, r0, ror #8
     452:	32050062 	andcc	r0, r5, #98	; 0x62
     456:	706f7264 	rsbvc	r7, pc, r4, ror #4

0000045a <Code_20>:
     45a:	3704      	adds	r7, #4
     45c:	cf40      	ldmia	r7!, {r6}
     45e:	4770      	bx	lr

00000460 <Dictionary_22>:
     460:	0000047e 	andeq	r0, r0, lr, ror r4
     464:	32050044 	andcc	r0, r5, #68	; 0x44
     468:	70617773 	rsbvc	r7, r1, r3, ror r7

0000046c <Code_22>:
     46c:	cf07      	ldmia	r7!, {r0, r1, r2}
     46e:	3f04      	subs	r7, #4
     470:	6038      	str	r0, [r7, #0]
     472:	f847 6d04 	str.w	r6, [r7, #-4]!
     476:	3f04      	subs	r7, #4
     478:	603a      	str	r2, [r7, #0]
     47a:	000e      	movs	r6, r1
     47c:	4770      	bx	lr

0000047e <Dictionary_24>:
     47e:	00000492 	muleq	r0, r2, r4
     482:	32040062 	andcc	r0, r4, #98	; 0x62
     486:	0070696e 	rsbseq	r6, r0, lr, ror #18

0000048a <Code_24>:
     48a:	cf07      	ldmia	r7!, {r0, r1, r2}
     48c:	3f04      	subs	r7, #4
     48e:	6038      	str	r0, [r7, #0]
     490:	4770      	bx	lr

00000492 <Dictionary_25>:
     492:	000004ac 	andeq	r0, r0, ip, lsr #9
     496:	32050044 	andcc	r0, r5, #68	; 0x44
     49a:	7265766f 	rsbvc	r7, r5, #116391936	; 0x6f00000

0000049e <Code_25>:
     49e:	68b8      	ldr	r0, [r7, #8]
     4a0:	f847 6d04 	str.w	r6, [r7, #-4]!
     4a4:	3f04      	subs	r7, #4
     4a6:	6038      	str	r0, [r7, #0]
     4a8:	68fe      	ldr	r6, [r7, #12]
     4aa:	4770      	bx	lr

000004ac <Dictionary_27>:
     4ac:	000004d0 	ldrdeq	r0, [r0], -r0	; <UNPREDICTABLE>
     4b0:	32050044 	andcc	r0, r5, #68	; 0x44
     4b4:	6b637574 	blvs	18dda8c <BIT24+0x8dda8c>

000004b8 <Code_27>:
     4b8:	cf07      	ldmia	r7!, {r0, r1, r2}
     4ba:	3f04      	subs	r7, #4
     4bc:	6038      	str	r0, [r7, #0]
     4be:	f847 6d04 	str.w	r6, [r7, #-4]!
     4c2:	3f04      	subs	r7, #4
     4c4:	603a      	str	r2, [r7, #0]
     4c6:	3f04      	subs	r7, #4
     4c8:	6039      	str	r1, [r7, #0]
     4ca:	3f04      	subs	r7, #4
     4cc:	6038      	str	r0, [r7, #0]
     4ce:	4770      	bx	lr

000004d0 <Dictionary_29>:
     4d0:	000004f2 	strdeq	r0, [r0], -r2
     4d4:	32040046 	andcc	r0, r4, #70	; 0x46
     4d8:	00746f72 	rsbseq	r6, r4, r2, ror pc

000004dc <Code_29>:
     4dc:	6838      	ldr	r0, [r7, #0]
     4de:	68b9      	ldr	r1, [r7, #8]
     4e0:	693a      	ldr	r2, [r7, #16]
     4e2:	60b8      	str	r0, [r7, #8]
     4e4:	6139      	str	r1, [r7, #16]
     4e6:	603a      	str	r2, [r7, #0]
     4e8:	6879      	ldr	r1, [r7, #4]
     4ea:	607e      	str	r6, [r7, #4]
     4ec:	68fe      	ldr	r6, [r7, #12]
     4ee:	60f9      	str	r1, [r7, #12]
     4f0:	4770      	bx	lr

000004f2 <Dictionary_30>:
     4f2:	00000514 	andeq	r0, r0, r4, lsl r5
     4f6:	32050046 	andcc	r0, r5, #70	; 0x46
     4fa:	746f722d 	strbtvc	r7, [pc], #-557	; 502 <Code_30+0x4>

000004fe <Code_30>:
     4fe:	6838      	ldr	r0, [r7, #0]
     500:	68b9      	ldr	r1, [r7, #8]
     502:	693a      	ldr	r2, [r7, #16]
     504:	6138      	str	r0, [r7, #16]
     506:	6039      	str	r1, [r7, #0]
     508:	60ba      	str	r2, [r7, #8]
     50a:	68f9      	ldr	r1, [r7, #12]
     50c:	60fe      	str	r6, [r7, #12]
     50e:	687e      	ldr	r6, [r7, #4]
     510:	6079      	str	r1, [r7, #4]
     512:	4770      	bx	lr

00000514 <Dictionary_31>:
     514:	00000528 	andeq	r0, r0, r8, lsr #10
     518:	32030020 	andcc	r0, r3, #32
     51c:	cf01723e 	svcgt	0x0001723e

0000051e <Code_31>:
     51e:	cf01      	ldmia	r7!, {r0}
     520:	b401      	push	{r0}
     522:	b440      	push	{r6}
     524:	cf40      	ldmia	r7!, {r6}
     526:	4770      	bx	lr

00000528 <Dictionary_32>:
     528:	00000540 	andeq	r0, r0, r0, asr #10
     52c:	32030020 	andcc	r0, r3, #32
     530:	f8473e72 			; <UNDEFINED> instruction: 0xf8473e72

00000532 <Code_32>:
     532:	f847 6d04 	str.w	r6, [r7, #-4]!
     536:	bc40      	pop	{r6}
     538:	bc01      	pop	{r0}
     53a:	3f04      	subs	r7, #4
     53c:	6038      	str	r0, [r7, #0]
     53e:	4770      	bx	lr

00000540 <Dictionary_34>:
     540:	00000558 	andeq	r0, r0, r8, asr r5
     544:	32030020 	andcc	r0, r3, #32
     548:	f8474072 			; <UNDEFINED> instruction: 0xf8474072

0000054a <Code_34>:
     54a:	f847 6d04 	str.w	r6, [r7, #-4]!
     54e:	9e01      	ldr	r6, [sp, #4]
     550:	f847 6d04 	str.w	r6, [r7, #-4]!
     554:	9e00      	ldr	r6, [sp, #0]
     556:	4770      	bx	lr

00000558 <Dictionary_37>:
     558:	0000056a 	andeq	r0, r0, sl, ror #10
     55c:	32060020 	andcc	r0, r6, #32
     560:	6f726472 	svcvs	0x00726472
     564:	b0020070 	andlt	r0, r2, r0, ror r0

00000566 <Code_37>:
     566:	b002      	add	sp, #8
     568:	4770      	bx	lr

0000056a <Dictionary_38>:
     56a:	00000582 	andeq	r0, r0, r2, lsl #11
     56e:	64030042 	strvs	r0, [r3], #-66	; 0x42
     572:	68382f32 	ldmdavs	r8!, {r1, r4, r5, r8, r9, sl, fp, sp}

00000574 <Code_38>:
     574:	6838      	ldr	r0, [r7, #0]
     576:	07f1      	lsls	r1, r6, #31
     578:	1076      	asrs	r6, r6, #1
     57a:	0840      	lsrs	r0, r0, #1
     57c:	4308      	orrs	r0, r1
     57e:	6038      	str	r0, [r7, #0]
     580:	4770      	bx	lr

00000582 <Dictionary_39>:
     582:	00000596 	muleq	r0, r6, r5
     586:	64030062 	strvs	r0, [r3], #-98	; 0x62
     58a:	68382a32 	ldmdavs	r8!, {r1, r4, r5, r9, fp, sp}

0000058c <Code_39>:
     58c:	6838      	ldr	r0, [r7, #0]
     58e:	1800      	adds	r0, r0, r0
     590:	4176      	adcs	r6, r6
     592:	6038      	str	r0, [r7, #0]
     594:	4770      	bx	lr

00000596 <Dictionary_40>:
     596:	000005b0 			; <UNDEFINED> instruction: 0x000005b0
     59a:	64040042 	strvs	r0, [r4], #-66	; 0x42
     59e:	00726873 	rsbseq	r6, r2, r3, ror r8

000005a2 <Code_40>:
     5a2:	6838      	ldr	r0, [r7, #0]
     5a4:	07f1      	lsls	r1, r6, #31
     5a6:	0876      	lsrs	r6, r6, #1
     5a8:	0840      	lsrs	r0, r0, #1
     5aa:	4308      	orrs	r0, r1
     5ac:	6038      	str	r0, [r7, #0]
     5ae:	4770      	bx	lr

000005b0 <Dictionary_41>:
     5b0:	000005c6 	andeq	r0, r0, r6, asr #11
     5b4:	64040062 	strvs	r0, [r4], #-98	; 0x62
     5b8:	006c6873 	rsbeq	r6, ip, r3, ror r8

000005bc <Code_41>:
     5bc:	6838      	ldr	r0, [r7, #0]
     5be:	1800      	adds	r0, r0, r0
     5c0:	4176      	adcs	r6, r6
     5c2:	6038      	str	r0, [r7, #0]
     5c4:	4770      	bx	lr

000005c6 <Dictionary_42>:
     5c6:	000005d8 	ldrdeq	r0, [r0], -r8
     5ca:	64040042 	strvs	r0, [r4], #-66	; 0x42
     5ce:	00736261 	rsbseq	r6, r3, r1, ror #4

000005d2 <Code_42>:
     5d2:	2e00      	cmp	r6, #0
     5d4:	d407      	bmi.n	5e6 <Code_43>
     5d6:	4770      	bx	lr

000005d8 <Dictionary_43>:
     5d8:	000005f6 	strdeq	r0, [r0], -r6
     5dc:	64070042 	strvs	r0, [r7], #-66	; 0x42
     5e0:	6167656e 	cmnvs	r7, lr, ror #10
     5e4:	68386574 	ldmdavs	r8!, {r2, r4, r5, r6, r8, sl, sp, lr}

000005e6 <Code_43>:
     5e6:	6838      	ldr	r0, [r7, #0]
     5e8:	2100      	movs	r1, #0
     5ea:	43c0      	mvns	r0, r0
     5ec:	43f6      	mvns	r6, r6
     5ee:	3001      	adds	r0, #1
     5f0:	414e      	adcs	r6, r1
     5f2:	6038      	str	r0, [r7, #0]
     5f4:	4770      	bx	lr

000005f6 <Dictionary_44>:
     5f6:	0000060e 	andeq	r0, r0, lr, lsl #12
     5fa:	64020064 	strvs	r0, [r2], #-100	; 0x64
     5fe:	cf07002d 	svcgt	0x0007002d

00000600 <Code_44>:
     600:	cf07      	ldmia	r7!, {r0, r1, r2}
     602:	1a12      	subs	r2, r2, r0
     604:	41b1      	sbcs	r1, r6
     606:	000e      	movs	r6, r1
     608:	3f04      	subs	r7, #4
     60a:	603a      	str	r2, [r7, #0]
     60c:	4770      	bx	lr

0000060e <Dictionary_45>:
     60e:	00000624 	andeq	r0, r0, r4, lsr #12
     612:	64020064 	strvs	r0, [r2], #-100	; 0x64
     616:	cf07002b 	svcgt	0x0007002b

00000618 <Code_45>:
     618:	cf07      	ldmia	r7!, {r0, r1, r2}
     61a:	1812      	adds	r2, r2, r0
     61c:	414e      	adcs	r6, r1
     61e:	3f04      	subs	r7, #4
     620:	603a      	str	r2, [r7, #0]
     622:	4770      	bx	lr

00000624 <Dictionary_46>:
     624:	00000636 	andeq	r0, r0, r6, lsr r6
     628:	73030061 	movwvc	r0, #12385	; 0x3061
     62c:	f847643e 			; <UNDEFINED> instruction: 0xf847643e

0000062e <Code_46>:
     62e:	f847 6d04 	str.w	r6, [r7, #-4]!
     632:	17f6      	asrs	r6, r6, #31
     634:	4770      	bx	lr

00000636 <Dictionary_48>:
     636:	0000064a 	andeq	r0, r0, sl, asr #12
     63a:	75030062 	strvc	r0, [r3, #-98]	; 0x62
     63e:	68382a6d 	ldmdavs	r8!, {r0, r2, r3, r5, r6, r9, fp, sp}

00000640 <Code_48>:
     640:	6838      	ldr	r0, [r7, #0]
     642:	fba0 0606 	umull	r0, r6, r0, r6
     646:	6038      	str	r0, [r7, #0]
     648:	4770      	bx	lr

0000064a <Dictionary_49>:
     64a:	0000065e 	andeq	r0, r0, lr, asr r6
     64e:	6d020062 	stcvs	0, cr0, [r2, #-392]	; 0xfffffe78
     652:	6838002a 	ldmdavs	r8!, {r1, r3, r5}

00000654 <Code_49>:
     654:	6838      	ldr	r0, [r7, #0]
     656:	fb80 0606 	smull	r0, r6, r0, r6
     65a:	6038      	str	r0, [r7, #0]
     65c:	4770      	bx	lr

0000065e <Dictionary_50>:
     65e:	0000069c 	muleq	r0, ip, r6
     662:	75030044 	strvc	r0, [r3, #-68]	; 0x44
     666:	cf072a64 	svcgt	0x00072a64

00000668 <Code_50>:
     668:	cf07      	ldmia	r7!, {r0, r1, r2}
     66a:	4356      	muls	r6, r2
     66c:	4341      	muls	r1, r0
     66e:	1876      	adds	r6, r6, r1
     670:	0c01      	lsrs	r1, r0, #16
     672:	0c13      	lsrs	r3, r2, #16
     674:	4359      	muls	r1, r3
     676:	1876      	adds	r6, r6, r1
     678:	0c01      	lsrs	r1, r0, #16
     67a:	b280      	uxth	r0, r0
     67c:	b292      	uxth	r2, r2
     67e:	4351      	muls	r1, r2
     680:	4343      	muls	r3, r0
     682:	4350      	muls	r0, r2
     684:	2200      	movs	r2, #0
     686:	18c9      	adds	r1, r1, r3
     688:	4152      	adcs	r2, r2
     68a:	0412      	lsls	r2, r2, #16
     68c:	18b6      	adds	r6, r6, r2
     68e:	040a      	lsls	r2, r1, #16
     690:	0c09      	lsrs	r1, r1, #16
     692:	1880      	adds	r0, r0, r2
     694:	414e      	adcs	r6, r1
     696:	3f04      	subs	r7, #4
     698:	6038      	str	r0, [r7, #0]
     69a:	4770      	bx	lr

0000069c <Dictionary_51>:
     69c:	0000072e 	andeq	r0, r0, lr, lsr #14
     6a0:	75040044 	strvc	r0, [r4, #-68]	; 0x44
     6a4:	002a6d64 	eoreq	r6, sl, r4, ror #26

000006a8 <Code_51>:
     6a8:	b510      	push	{r4, lr}
     6aa:	2400      	movs	r4, #0
     6ac:	f847 6d04 	str.w	r6, [r7, #-4]!
     6b0:	687e      	ldr	r6, [r7, #4]
     6b2:	f847 6d04 	str.w	r6, [r7, #-4]!
     6b6:	693e      	ldr	r6, [r7, #16]
     6b8:	f7ff ffc2 	bl	640 <Code_48>
     6bc:	0031      	movs	r1, r6
     6be:	cf40      	ldmia	r7!, {r6}
     6c0:	0030      	movs	r0, r6
     6c2:	cf40      	ldmia	r7!, {r6}
     6c4:	f847 6d04 	str.w	r6, [r7, #-4]!
     6c8:	683e      	ldr	r6, [r7, #0]
     6ca:	f847 6d04 	str.w	r6, [r7, #-4]!
     6ce:	68fe      	ldr	r6, [r7, #12]
     6d0:	b403      	push	{r0, r1}
     6d2:	f7ff ffb5 	bl	640 <Code_48>
     6d6:	bc03      	pop	{r0, r1}
     6d8:	0033      	movs	r3, r6
     6da:	cf40      	ldmia	r7!, {r6}
     6dc:	0032      	movs	r2, r6
     6de:	cf40      	ldmia	r7!, {r6}
     6e0:	f847 6d04 	str.w	r6, [r7, #-4]!
     6e4:	683e      	ldr	r6, [r7, #0]
     6e6:	f847 6d04 	str.w	r6, [r7, #-4]!
     6ea:	693e      	ldr	r6, [r7, #16]
     6ec:	b40f      	push	{r0, r1, r2, r3}
     6ee:	f7ff ffa7 	bl	640 <Code_48>
     6f2:	bc0f      	pop	{r0, r1, r2, r3}
     6f4:	1992      	adds	r2, r2, r6
     6f6:	4163      	adcs	r3, r4
     6f8:	cf40      	ldmia	r7!, {r6}
     6fa:	1989      	adds	r1, r1, r6
     6fc:	4162      	adcs	r2, r4
     6fe:	4163      	adcs	r3, r4
     700:	cf40      	ldmia	r7!, {r6}
     702:	f847 6d04 	str.w	r6, [r7, #-4]!
     706:	687e      	ldr	r6, [r7, #4]
     708:	f847 6d04 	str.w	r6, [r7, #-4]!
     70c:	68fe      	ldr	r6, [r7, #12]
     70e:	b40f      	push	{r0, r1, r2, r3}
     710:	f7ff ff96 	bl	640 <Code_48>
     714:	bc0f      	pop	{r0, r1, r2, r3}
     716:	1992      	adds	r2, r2, r6
     718:	4163      	adcs	r3, r4
     71a:	cf40      	ldmia	r7!, {r6}
     71c:	1989      	adds	r1, r1, r6
     71e:	4162      	adcs	r2, r4
     720:	4163      	adcs	r3, r4
     722:	cf40      	ldmia	r7!, {r6}
     724:	001e      	movs	r6, r3
     726:	603a      	str	r2, [r7, #0]
     728:	6079      	str	r1, [r7, #4]
     72a:	60b8      	str	r0, [r7, #8]
     72c:	bd10      	pop	{r4, pc}

0000072e <Dictionary_68>:
     72e:	00000750 	andeq	r0, r0, r0, asr r7
     732:	2a020043 	bcs	80846 <BIT19+0x846>
     736:	b500002f 	strlt	r0, [r0, #-47]	; 0x2f

00000738 <Code_68>:
     738:	b500      	push	{lr}
     73a:	b440      	push	{r6}
     73c:	cf40      	ldmia	r7!, {r6}
     73e:	f7ff ff89 	bl	654 <Code_49>
     742:	f847 6d04 	str.w	r6, [r7, #-4]!
     746:	bc40      	pop	{r6}
     748:	f000 f84c 	bl	7e4 <Code_91>
     74c:	3704      	adds	r7, #4
     74e:	bd00      	pop	{pc}

00000750 <Dictionary_73>:
     750:	00000772 	andeq	r0, r0, r2, ror r7
     754:	2a050043 	bcs	140868 <BIT20+0x40868>
     758:	646f6d2f 	strbtvs	r6, [pc], #-3375	; 760 <Code_73+0x4>

0000075c <Code_73>:
     75c:	b500      	push	{lr}
     75e:	b440      	push	{r6}
     760:	cf40      	ldmia	r7!, {r6}
     762:	f7ff ff77 	bl	654 <Code_49>
     766:	f847 6d04 	str.w	r6, [r7, #-4]!
     76a:	bc40      	pop	{r6}
     76c:	f000 f83a 	bl	7e4 <Code_91>
     770:	bd00      	pop	{pc}

00000772 <Dictionary_77>:
     772:	00000794 	muleq	r0, r4, r7
     776:	75030043 	strvc	r0, [r3, #-67]	; 0x43
     77a:	b5002f2a 	strlt	r2, [r0, #-3882]	; 0xf2a

0000077c <Code_77>:
     77c:	b500      	push	{lr}
     77e:	b440      	push	{r6}
     780:	cf40      	ldmia	r7!, {r6}
     782:	f7ff ff5d 	bl	640 <Code_48>
     786:	f847 6d04 	str.w	r6, [r7, #-4]!
     78a:	bc40      	pop	{r6}
     78c:	f000 f81b 	bl	7c6 <Code_86>
     790:	3704      	adds	r7, #4
     792:	bd00      	pop	{pc}

00000794 <Dictionary_82>:
     794:	000007b8 			; <UNDEFINED> instruction: 0x000007b8
     798:	75060043 	strvc	r0, [r6, #-67]	; 0x43
     79c:	6f6d2f2a 	svcvs	0x006d2f2a
     7a0:	b5000064 	strlt	r0, [r0, #-100]	; 0x64

000007a2 <Code_82>:
     7a2:	b500      	push	{lr}
     7a4:	b440      	push	{r6}
     7a6:	cf40      	ldmia	r7!, {r6}
     7a8:	f7ff ff4a 	bl	640 <Code_48>
     7ac:	f847 6d04 	str.w	r6, [r7, #-4]!
     7b0:	bc40      	pop	{r6}
     7b2:	f000 f808 	bl	7c6 <Code_86>
     7b6:	bd00      	pop	{pc}

000007b8 <Dictionary_86>:
     7b8:	000007d8 	ldrdeq	r0, [r0], -r8
     7bc:	75060043 	strvc	r0, [r6, #-67]	; 0x43
     7c0:	6f6d2f6d 	svcvs	0x006d2f6d
     7c4:	b5000064 	strlt	r0, [r0, #-100]	; 0x64

000007c6 <Code_86>:
     7c6:	b500      	push	{lr}
     7c8:	f847 6d04 	str.w	r6, [r7, #-4]!
     7cc:	2600      	movs	r6, #0
     7ce:	f000 f819 	bl	804 <Code_95>
     7d2:	cf40      	ldmia	r7!, {r6}
     7d4:	3704      	adds	r7, #4
     7d6:	bd00      	pop	{pc}

000007d8 <Dictionary_91>:
     7d8:	000007f6 	strdeq	r0, [r0], -r6
     7dc:	6d050043 	stcvs	0, cr0, [r5, #-268]	; 0xfffffef4
     7e0:	646f6d2f 	strbtvs	r6, [pc], #-3375	; 7e8 <Code_91+0x4>

000007e4 <Code_91>:
     7e4:	b500      	push	{lr}
     7e6:	f847 6d04 	str.w	r6, [r7, #-4]!
     7ea:	17f6      	asrs	r6, r6, #31
     7ec:	f000 f832 	bl	854 <Code_97>
     7f0:	cf40      	ldmia	r7!, {r6}
     7f2:	3704      	adds	r7, #4
     7f4:	bd00      	pop	{pc}

000007f6 <Dictionary_95>:
     7f6:	00000848 	andeq	r0, r0, r8, asr #16
     7fa:	75060044 	strvc	r0, [r6, #-68]	; 0x44
     7fe:	6f6d2f64 	svcvs	0x006d2f64
     802:	b4300064 	ldrtlt	r0, [r0], #-100	; 0x64

00000804 <Code_95>:
     804:	b430      	push	{r4, r5}
     806:	2300      	movs	r3, #0
     808:	2200      	movs	r2, #0
     80a:	6879      	ldr	r1, [r7, #4]
     80c:	68b8      	ldr	r0, [r7, #8]

0000080e <ud_slash_mod_internal>:
     80e:	0035      	movs	r5, r6
     810:	683c      	ldr	r4, [r7, #0]
     812:	2640      	movs	r6, #64	; 0x40
     814:	0040      	lsls	r0, r0, #1
     816:	4149      	adcs	r1, r1
     818:	4152      	adcs	r2, r2
     81a:	415b      	adcs	r3, r3
     81c:	42ab      	cmp	r3, r5
     81e:	d802      	bhi.n	826 <ud_slash_mod_internal+0x18>
     820:	d304      	bcc.n	82c <ud_slash_mod_internal+0x1e>
     822:	42a2      	cmp	r2, r4
     824:	d302      	bcc.n	82c <ud_slash_mod_internal+0x1e>
     826:	1b12      	subs	r2, r2, r4
     828:	41ab      	sbcs	r3, r5
     82a:	3001      	adds	r0, #1
     82c:	3e01      	subs	r6, #1
     82e:	d1f1      	bne.n	814 <ud_slash_mod_internal+0x6>
     830:	000e      	movs	r6, r1
     832:	6038      	str	r0, [r7, #0]
     834:	607b      	str	r3, [r7, #4]
     836:	60ba      	str	r2, [r7, #8]
     838:	bc30      	pop	{r4, r5}
     83a:	4770      	bx	lr

0000083c <uf_slash_mod>:
     83c:	b430      	push	{r4, r5}
     83e:	2300      	movs	r3, #0
     840:	687a      	ldr	r2, [r7, #4]
     842:	68b9      	ldr	r1, [r7, #8]
     844:	2000      	movs	r0, #0
     846:	e7e2      	b.n	80e <ud_slash_mod_internal>

00000848 <Dictionary_97>:
     848:	000008be 			; <UNDEFINED> instruction: 0x000008be
     84c:	64050044 	strvs	r0, [r5], #-68	; 0x44
     850:	646f6d2f 	strbtvs	r6, [pc], #-3375	; 858 <Code_97+0x4>

00000854 <Code_97>:
     854:	b500      	push	{lr}
     856:	17f0      	asrs	r0, r6, #31
     858:	d019      	beq.n	88e <Code_97+0x3a>
     85a:	f7ff fec4 	bl	5e6 <Code_43>
     85e:	f7ff fe05 	bl	46c <Code_22>
     862:	17f0      	asrs	r0, r6, #31
     864:	d00c      	beq.n	880 <Code_97+0x2c>
     866:	f7ff febe 	bl	5e6 <Code_43>
     86a:	f7ff fdff 	bl	46c <Code_22>
     86e:	f7ff ffc9 	bl	804 <Code_95>
     872:	f7ff fdfb 	bl	46c <Code_22>
     876:	f7ff feb6 	bl	5e6 <Code_43>
     87a:	f7ff fdf7 	bl	46c <Code_22>
     87e:	bd00      	pop	{pc}
     880:	f7ff fdf4 	bl	46c <Code_22>
     884:	f7ff ffbe 	bl	804 <Code_95>
     888:	f7ff fead 	bl	5e6 <Code_43>
     88c:	bd00      	pop	{pc}
     88e:	f7ff fded 	bl	46c <Code_22>
     892:	17f0      	asrs	r0, r6, #31
     894:	d00e      	beq.n	8b4 <Code_97+0x60>
     896:	f7ff fea6 	bl	5e6 <Code_43>
     89a:	f7ff fde7 	bl	46c <Code_22>
     89e:	f7ff ffb1 	bl	804 <Code_95>
     8a2:	f7ff fea0 	bl	5e6 <Code_43>
     8a6:	f7ff fde1 	bl	46c <Code_22>
     8aa:	f7ff fe9c 	bl	5e6 <Code_43>
     8ae:	f7ff fddd 	bl	46c <Code_22>
     8b2:	bd00      	pop	{pc}
     8b4:	f7ff fdda 	bl	46c <Code_22>
     8b8:	f7ff ffa4 	bl	804 <Code_95>
     8bc:	bd00      	pop	{pc}

000008be <Dictionary_98>:
     8be:	000008d4 	ldrdeq	r0, [r0], -r4
     8c2:	64020044 	strvs	r0, [r2], #-68	; 0x44
     8c6:	b500002f 	strlt	r0, [r0, #-47]	; 0x2f

000008c8 <Code_98>:
     8c8:	b500      	push	{lr}
     8ca:	f7ff ffc3 	bl	854 <Code_97>
     8ce:	f7ff fddc 	bl	48a <Code_24>
     8d2:	bd00      	pop	{pc}

000008d4 <Dictionary_99>:
     8d4:	0000091c 	andeq	r0, r0, ip, lsl r9
     8d8:	66020044 	strvs	r0, [r2], -r4, asr #32
     8dc:	b500002a 	strlt	r0, [r0, #-42]	; 0x2a

000008de <Code_99>:
     8de:	b500      	push	{lr}
     8e0:	17f0      	asrs	r0, r6, #31
     8e2:	d00d      	beq.n	900 <Code_99+0x22>
     8e4:	f7ff fe7f 	bl	5e6 <Code_43>
     8e8:	f7ff fdc0 	bl	46c <Code_22>
     8ec:	17f0      	asrs	r0, r6, #31
     8ee:	d00d      	beq.n	90c <Code_99+0x2e>
     8f0:	f7ff fe79 	bl	5e6 <Code_43>
     8f4:	f7ff fed8 	bl	6a8 <Code_51>
     8f8:	cf40      	ldmia	r7!, {r6}
     8fa:	cf01      	ldmia	r7!, {r0}
     8fc:	6038      	str	r0, [r7, #0]
     8fe:	bd00      	pop	{pc}
     900:	f7ff fdb4 	bl	46c <Code_22>
     904:	17f0      	asrs	r0, r6, #31
     906:	d0f5      	beq.n	8f4 <Code_99+0x16>
     908:	f7ff fe6d 	bl	5e6 <Code_43>
     90c:	f7ff fecc 	bl	6a8 <Code_51>
     910:	cf40      	ldmia	r7!, {r6}
     912:	cf01      	ldmia	r7!, {r0}
     914:	6038      	str	r0, [r7, #0]
     916:	f7ff fe66 	bl	5e6 <Code_43>
     91a:	bd00      	pop	{pc}

0000091c <Dictionary_102>:
     91c:	00000968 	andeq	r0, r0, r8, ror #18
     920:	66020044 	strvs	r0, [r2], -r4, asr #32
     924:	b500002f 	strlt	r0, [r0, #-47]	; 0x2f

00000926 <Code_102>:
     926:	b500      	push	{lr}
     928:	17f0      	asrs	r0, r6, #31
     92a:	d00e      	beq.n	94a <Code_102+0x24>
     92c:	f7ff fe5b 	bl	5e6 <Code_43>
     930:	f7ff fd9c 	bl	46c <Code_22>
     934:	17f0      	asrs	r0, r6, #31
     936:	d00e      	beq.n	956 <Code_102+0x30>
     938:	f7ff fe55 	bl	5e6 <Code_43>
     93c:	f7ff fd96 	bl	46c <Code_22>
     940:	f7ff ff7c 	bl	83c <uf_slash_mod>
     944:	f7ff fda1 	bl	48a <Code_24>
     948:	bd00      	pop	{pc}
     94a:	f7ff fd8f 	bl	46c <Code_22>
     94e:	17f0      	asrs	r0, r6, #31
     950:	d0f4      	beq.n	93c <Code_102+0x16>
     952:	f7ff fe48 	bl	5e6 <Code_43>
     956:	f7ff fd89 	bl	46c <Code_22>
     95a:	f7ff ff6f 	bl	83c <uf_slash_mod>
     95e:	f7ff fe42 	bl	5e6 <Code_43>
     962:	f7ff fd92 	bl	48a <Code_24>
     966:	bd00      	pop	{pc}

00000968 <Dictionary_103>:
     968:	0000097c 	andeq	r0, r0, ip, ror r9
     96c:	32020020 	andcc	r0, r2, #32
     970:	cf060021 	svcgt	0x00060021

00000972 <Code_103>:
     972:	cf06      	ldmia	r7!, {r1, r2}
     974:	6031      	str	r1, [r6, #0]
     976:	6072      	str	r2, [r6, #4]
     978:	cf40      	ldmia	r7!, {r6}
     97a:	4770      	bx	lr

0000097c <Dictionary_105>:
     97c:	00000990 	muleq	r0, r0, r9
     980:	32020020 	andcc	r0, r2, #32
     984:	3f040040 	svccc	0x00040040

00000986 <Code_105>:
     986:	3f04      	subs	r7, #4
     988:	6870      	ldr	r0, [r6, #4]
     98a:	6038      	str	r0, [r7, #0]
     98c:	6836      	ldr	r6, [r6, #0]
     98e:	4770      	bx	lr

00000990 <Dictionary_106>:
     990:	000009b0 			; <UNDEFINED> instruction: 0x000009b0
     994:	64030044 	strvs	r0, [r3], #-68	; 0x44
     998:	cf073c75 	svcgt	0x00073c75

0000099a <Code_106>:
     99a:	cf07      	ldmia	r7!, {r0, r1, r2}
     99c:	428e      	cmp	r6, r1
     99e:	d804      	bhi.n	9aa <Code_106+0x10>
     9a0:	d101      	bne.n	9a6 <Code_106+0xc>
     9a2:	4290      	cmp	r0, r2
     9a4:	d801      	bhi.n	9aa <Code_106+0x10>
     9a6:	2600      	movs	r6, #0
     9a8:	4770      	bx	lr
     9aa:	2600      	movs	r6, #0
     9ac:	43f6      	mvns	r6, r6
     9ae:	4770      	bx	lr

000009b0 <Dictionary_107>:
     9b0:	000009d0 	ldrdeq	r0, [r0], -r0	; <UNPREDICTABLE>
     9b4:	64030044 	strvs	r0, [r3], #-68	; 0x44
     9b8:	cf073e75 	svcgt	0x00073e75

000009ba <Code_107>:
     9ba:	cf07      	ldmia	r7!, {r0, r1, r2}
     9bc:	42b1      	cmp	r1, r6
     9be:	d804      	bhi.n	9ca <Code_107+0x10>
     9c0:	d101      	bne.n	9c6 <Code_107+0xc>
     9c2:	4282      	cmp	r2, r0
     9c4:	d801      	bhi.n	9ca <Code_107+0x10>
     9c6:	2600      	movs	r6, #0
     9c8:	4770      	bx	lr
     9ca:	2600      	movs	r6, #0
     9cc:	43f6      	mvns	r6, r6
     9ce:	4770      	bx	lr

000009d0 <Dictionary_108>:
     9d0:	000009f0 	strdeq	r0, [r0], -r0	; <UNPREDICTABLE>
     9d4:	64020044 	strvs	r0, [r2], #-68	; 0x44
     9d8:	cf07003c 	svcgt	0x0007003c

000009da <Code_108>:
     9da:	cf07      	ldmia	r7!, {r0, r1, r2}
     9dc:	428e      	cmp	r6, r1
     9de:	dc04      	bgt.n	9ea <Code_108+0x10>
     9e0:	d101      	bne.n	9e6 <Code_108+0xc>
     9e2:	4290      	cmp	r0, r2
     9e4:	dc01      	bgt.n	9ea <Code_108+0x10>
     9e6:	2600      	movs	r6, #0
     9e8:	4770      	bx	lr
     9ea:	2600      	movs	r6, #0
     9ec:	43f6      	mvns	r6, r6
     9ee:	4770      	bx	lr

000009f0 <Dictionary_109>:
     9f0:	00000a10 	andeq	r0, r0, r0, lsl sl
     9f4:	64020044 	strvs	r0, [r2], #-68	; 0x44
     9f8:	cf07003e 	svcgt	0x0007003e

000009fa <Code_109>:
     9fa:	cf07      	ldmia	r7!, {r0, r1, r2}
     9fc:	42b1      	cmp	r1, r6
     9fe:	dc04      	bgt.n	a0a <Code_109+0x10>
     a00:	d101      	bne.n	a06 <Code_109+0xc>
     a02:	4282      	cmp	r2, r0
     a04:	dc01      	bgt.n	a0a <Code_109+0x10>
     a06:	2600      	movs	r6, #0
     a08:	4770      	bx	lr
     a0a:	2600      	movs	r6, #0
     a0c:	43f6      	mvns	r6, r6
     a0e:	4770      	bx	lr

00000a10 <Dictionary_110>:
     a10:	00000a20 	andeq	r0, r0, r0, lsr #20
     a14:	64030062 	strvs	r0, [r3], #-98	; 0x62
     a18:	37043c30 	smladxcc	r4, r0, ip, r3

00000a1a <Code_110>:
     a1a:	3704      	adds	r7, #4
     a1c:	17f6      	asrs	r6, r6, #31
     a1e:	4770      	bx	lr

00000a20 <Dictionary_111>:
     a20:	00000a34 	andeq	r0, r0, r4, lsr sl
     a24:	64030062 	strvs	r0, [r3], #-98	; 0x62
     a28:	cf013d30 	svcgt	0x00013d30

00000a2a <Code_111>:
     a2a:	cf01      	ldmia	r7!, {r0}
     a2c:	4306      	orrs	r6, r0
     a2e:	3e01      	subs	r6, #1
     a30:	41b6      	sbcs	r6, r6
     a32:	4770      	bx	lr

00000a34 <Dictionary_112>:
     a34:	00000a4e 	andeq	r0, r0, lr, asr #20
     a38:	64030044 	strvs	r0, [r3], #-68	; 0x44
     a3c:	cf073e3c 	svcgt	0x00073e3c

00000a3e <Code_112>:
     a3e:	cf07      	ldmia	r7!, {r0, r1, r2}
     a40:	4050      	eors	r0, r2
     a42:	404e      	eors	r6, r1
     a44:	4306      	orrs	r6, r0
     a46:	3e01      	subs	r6, #1
     a48:	41b6      	sbcs	r6, r6
     a4a:	43f6      	mvns	r6, r6
     a4c:	4770      	bx	lr

00000a4e <Dictionary_113>:
     a4e:	00000a66 	andeq	r0, r0, r6, ror #20
     a52:	64020044 	strvs	r0, [r2], #-68	; 0x44
     a56:	cf07003d 	svcgt	0x0007003d

00000a58 <Code_113>:
     a58:	cf07      	ldmia	r7!, {r0, r1, r2}
     a5a:	4050      	eors	r0, r2
     a5c:	404e      	eors	r6, r1
     a5e:	4306      	orrs	r6, r0
     a60:	3e01      	subs	r6, #1
     a62:	41b6      	sbcs	r6, r6
     a64:	4770      	bx	lr

00000a66 <Dictionary_114>:
     a66:	00000a78 	andeq	r0, r0, r8, ror sl
     a6a:	73030020 	movwvc	r0, #12320	; 0x3020
     a6e:	f8474070 			; <UNDEFINED> instruction: 0xf8474070

00000a70 <Code_114>:
     a70:	f847 6d04 	str.w	r6, [r7, #-4]!
     a74:	003e      	movs	r6, r7
     a76:	4770      	bx	lr

00000a78 <Dictionary_116>:
     a78:	00000a88 	andeq	r0, r0, r8, lsl #21
     a7c:	73030020 	movwvc	r0, #12320	; 0x3020
     a80:	00372170 	eorseq	r2, r7, r0, ror r1

00000a82 <Code_116>:
     a82:	0037      	movs	r7, r6
     a84:	cf40      	ldmia	r7!, {r6}
     a86:	4770      	bx	lr

00000a88 <Dictionary_117>:
     a88:	00000a9a 	muleq	r0, sl, sl
     a8c:	72030020 	andvc	r0, r3, #32
     a90:	f8474070 			; <UNDEFINED> instruction: 0xf8474070

00000a92 <Code_117>:
     a92:	f847 6d04 	str.w	r6, [r7, #-4]!
     a96:	466e      	mov	r6, sp
     a98:	4770      	bx	lr

00000a9a <Dictionary_119>:
     a9a:	00000aaa 	andeq	r0, r0, sl, lsr #21
     a9e:	72030020 	andvc	r0, r3, #32
     aa2:	46b52170 			; <UNDEFINED> instruction: 0x46b52170

00000aa4 <Code_119>:
     aa4:	46b5      	mov	sp, r6
     aa6:	cf40      	ldmia	r7!, {r6}
     aa8:	4770      	bx	lr

00000aaa <Dictionary_120>:
     aaa:	00000aba 			; <UNDEFINED> instruction: 0x00000aba
     aae:	64030061 	strvs	r0, [r3], #-97	; 0x61
     ab2:	f8477075 			; <UNDEFINED> instruction: 0xf8477075

00000ab4 <Code_120>:
     ab4:	f847 6d04 	str.w	r6, [r7, #-4]!
     ab8:	4770      	bx	lr

00000aba <Dictionary_123>:
     aba:	00000aca 	andeq	r0, r0, sl, asr #21
     abe:	64040061 	strvs	r0, [r4], #-97	; 0x61
     ac2:	00706f72 	rsbseq	r6, r0, r2, ror pc

00000ac6 <Code_123>:
     ac6:	cf40      	ldmia	r7!, {r6}
     ac8:	4770      	bx	lr

00000aca <Dictionary_125>:
     aca:	00000ae0 	andeq	r0, r0, r0, ror #21
     ace:	3f040061 	svccc	0x00040061
     ad2:	00707564 	rsbseq	r7, r0, r4, ror #10

00000ad6 <Code_125>:
     ad6:	2e00      	cmp	r6, #0
     ad8:	d001      	beq.n	ade <Code_125+0x8>
     ada:	f847 6d04 	str.w	r6, [r7, #-4]!
     ade:	4770      	bx	lr

00000ae0 <Dictionary_127>:
     ae0:	00000af4 	strdeq	r0, [r0], -r4
     ae4:	73040062 	movwvc	r0, #16482	; 0x4062
     ae8:	00706177 	rsbseq	r6, r0, r7, ror r1

00000aec <Code_127>:
     aec:	6839      	ldr	r1, [r7, #0]
     aee:	603e      	str	r6, [r7, #0]
     af0:	000e      	movs	r6, r1
     af2:	4770      	bx	lr

00000af4 <Dictionary_128>:
     af4:	00000b02 	andeq	r0, r0, r2, lsl #22
     af8:	6e030062 	cdpvs	0, 0, cr0, cr3, cr2, {3}
     afc:	37047069 	strcc	r7, [r4, -r9, rrx]

00000afe <Code_128>:
     afe:	3704      	adds	r7, #4
     b00:	4770      	bx	lr

00000b02 <Dictionary_130>:
     b02:	00000b16 	andeq	r0, r0, r6, lsl fp
     b06:	6f040062 	svcvs	0x00040062
     b0a:	00726576 	rsbseq	r6, r2, r6, ror r5

00000b0e <Code_130>:
     b0e:	f847 6d04 	str.w	r6, [r7, #-4]!
     b12:	687e      	ldr	r6, [r7, #4]
     b14:	4770      	bx	lr

00000b16 <Dictionary_132>:
     b16:	00000b2c 	andeq	r0, r0, ip, lsr #22
     b1a:	74040062 	strvc	r0, [r4], #-98	; 0x62
     b1e:	006b6375 	rsbeq	r6, fp, r5, ror r3

00000b22 <Code_132>:
     b22:	cf01      	ldmia	r7!, {r0}
     b24:	3f08      	subs	r7, #8
     b26:	607e      	str	r6, [r7, #4]
     b28:	6038      	str	r0, [r7, #0]
     b2a:	4770      	bx	lr

00000b2c <Dictionary_133>:
     b2c:	00000b42 	andeq	r0, r0, r2, asr #22
     b30:	72030063 	andvc	r0, r3, #99	; 0x63
     b34:	cf03746f 	svcgt	0x0003746f

00000b36 <Code_133>:
     b36:	cf03      	ldmia	r7!, {r0, r1}
     b38:	3f08      	subs	r7, #8
     b3a:	6078      	str	r0, [r7, #4]
     b3c:	603e      	str	r6, [r7, #0]
     b3e:	000e      	movs	r6, r1
     b40:	4770      	bx	lr

00000b42 <Dictionary_134>:
     b42:	00000b5a 	andeq	r0, r0, sl, asr fp
     b46:	2d040063 	stccs	0, cr0, [r4, #-396]	; 0xfffffe74
     b4a:	00746f72 	rsbseq	r6, r4, r2, ror pc

00000b4e <Code_134>:
     b4e:	cf03      	ldmia	r7!, {r0, r1}
     b50:	3f08      	subs	r7, #8
     b52:	607e      	str	r6, [r7, #4]
     b54:	6039      	str	r1, [r7, #0]
     b56:	0006      	movs	r6, r0
     b58:	4770      	bx	lr

00000b5a <Dictionary_135>:
     b5a:	00000b6c 	andeq	r0, r0, ip, ror #22
     b5e:	70040020 	andvc	r0, r4, r0, lsr #32
     b62:	006b6369 	rsbeq	r6, fp, r9, ror #6

00000b66 <Code_135>:
     b66:	f857 6026 	ldr.w	r6, [r7, r6, lsl #2]
     b6a:	4770      	bx	lr

00000b6c <Dictionary_136>:
     b6c:	00000b84 	andeq	r0, r0, r4, lsl #23
     b70:	64050000 	strvs	r0, [r5]
     b74:	68747065 	ldmdavs	r4!, {r0, r2, r5, r6, ip, sp, lr}^

00000b78 <Code_136>:
     b78:	49bc      	ldr	r1, [pc, #752]	; (e6c <Code_180+0xc>)
     b7a:	1bc9      	subs	r1, r1, r7
     b7c:	f847 6d04 	str.w	r6, [r7, #-4]!
     b80:	088e      	lsrs	r6, r1, #2
     b82:	4770      	bx	lr

00000b84 <Dictionary_138>:
     b84:	00000ba0 	andeq	r0, r0, r0, lsr #23
     b88:	72060000 	andvc	r0, r6, #0
     b8c:	74706564 	ldrbtvc	r6, [r0], #-1380	; 0x564
     b90:	f8470068 			; <UNDEFINED> instruction: 0xf8470068

00000b92 <Code_138>:
     b92:	f847 6d04 	str.w	r6, [r7, #-4]!
     b96:	466e      	mov	r6, sp
     b98:	49b5      	ldr	r1, [pc, #724]	; (e70 <Code_180+0x10>)
     b9a:	1b89      	subs	r1, r1, r6
     b9c:	088e      	lsrs	r6, r1, #2
     b9e:	4770      	bx	lr

00000ba0 <Dictionary_140>:
     ba0:	00000bb0 			; <UNDEFINED> instruction: 0x00000bb0
     ba4:	3e020020 	cdpcc	0, 0, cr0, cr2, cr0, {1}
     ba8:	b4400072 	strblt	r0, [r0], #-114	; 0x72

00000baa <Code_140>:
     baa:	b440      	push	{r6}
     bac:	cf40      	ldmia	r7!, {r6}
     bae:	4770      	bx	lr

00000bb0 <Dictionary_141>:
     bb0:	00000bc2 	andeq	r0, r0, r2, asr #23
     bb4:	72020020 	andvc	r0, r2, #32
     bb8:	f847003e 			; <UNDEFINED> instruction: 0xf847003e

00000bba <Code_141>:
     bba:	f847 6d04 	str.w	r6, [r7, #-4]!
     bbe:	bc40      	pop	{r6}
     bc0:	4770      	bx	lr

00000bc2 <Dictionary_143>:
     bc2:	00000bd4 	ldrdeq	r0, [r0], -r4
     bc6:	72020020 	andvc	r0, r2, #32
     bca:	f8470040 			; <UNDEFINED> instruction: 0xf8470040

00000bcc <Code_143>:
     bcc:	f847 6d04 	str.w	r6, [r7, #-4]!
     bd0:	9e00      	ldr	r6, [sp, #0]
     bd2:	4770      	bx	lr

00000bd4 <Dictionary_145>:
     bd4:	00000be4 	andeq	r0, r0, r4, ror #23
     bd8:	72050020 	andvc	r0, r5, #32
     bdc:	706f7264 	rsbvc	r7, pc, r4, ror #4

00000be0 <Code_145>:
     be0:	b001      	add	sp, #4
     be2:	4770      	bx	lr

00000be4 <Dictionary_146>:
     be4:	00000bf8 	strdeq	r0, [r0], -r8
     be8:	72050020 	andvc	r0, r5, #32
     bec:	6b636970 	blvs	18db1b4 <BIT24+0x8db1b4>

00000bf0 <Code_146>:
     bf0:	00b6      	lsls	r6, r6, #2
     bf2:	446e      	add	r6, sp
     bf4:	6836      	ldr	r6, [r6, #0]
     bf6:	4770      	bx	lr

00000bf8 <Dictionary_147>:
     bf8:	00000c0e 	andeq	r0, r0, lr, lsl #24
     bfc:	6103006e 	tstvs	r3, lr, rrx
     c00:	cf01646e 	svcgt	0x0001646e

00000c02 <Code_147>:
     c02:	cf01      	ldmia	r7!, {r0}
     c04:	4006      	ands	r6, r0
     c06:	4770      	bx	lr
     c08:	4006      	ands	r6, r0
     c0a:	f0160600 			; <UNDEFINED> instruction: 0xf0160600

00000c0e <Dictionary_148>:
     c0e:	00000c26 	andeq	r0, r0, r6, lsr #24
     c12:	6203006e 	andvs	r0, r3, #110	; 0x6e
     c16:	cf016369 	svcgt	0x00016369

00000c18 <Code_148>:
     c18:	cf01      	ldmia	r7!, {r0}
     c1a:	43b0      	bics	r0, r6
     c1c:	0006      	movs	r6, r0
     c1e:	4770      	bx	lr
     c20:	4386      	bics	r6, r0
     c22:	f0360600 			; <UNDEFINED> instruction: 0xf0360600

00000c26 <Dictionary_149>:
     c26:	00000c3c 	andeq	r0, r0, ip, lsr ip
     c2a:	6f02006e 	svcvs	0x0002006e
     c2e:	cf010072 	svcgt	0x00010072

00000c30 <Code_149>:
     c30:	cf01      	ldmia	r7!, {r0}
     c32:	4306      	orrs	r6, r0
     c34:	4770      	bx	lr
     c36:	4306      	orrs	r6, r0
     c38:	f0560600 			; <UNDEFINED> instruction: 0xf0560600

00000c3c <Dictionary_150>:
     c3c:	00000c52 	andeq	r0, r0, r2, asr ip
     c40:	7803006e 	stmdavc	r3, {r1, r2, r3, r5, r6}
     c44:	cf01726f 	svcgt	0x0001726f

00000c46 <Code_150>:
     c46:	cf01      	ldmia	r7!, {r0}
     c48:	4046      	eors	r6, r0
     c4a:	4770      	bx	lr
     c4c:	4046      	eors	r6, r0
     c4e:	f0960600 			; <UNDEFINED> instruction: 0xf0960600

00000c52 <Dictionary_151>:
     c52:	00000c60 	andeq	r0, r0, r0, ror #24
     c56:	6e030061 	cdpvs	0, 0, cr0, cr3, cr1, {3}
     c5a:	43f6746f 	mvnsmi	r7, #1862270976	; 0x6f000000

00000c5c <Code_151>:
     c5c:	43f6      	mvns	r6, r6
     c5e:	4770      	bx	lr

00000c60 <Dictionary_152>:
     c60:	00000c70 	andeq	r0, r0, r0, ror ip
     c64:	63030061 	movwvs	r0, #12385	; 0x3061
     c68:	fab67a6c 	blx	fed9f620 <BIT31+0x7ed9f620>

00000c6a <Code_152>:
     c6a:	fab6 f686 	clz	r6, r6
     c6e:	4770      	bx	lr

00000c70 <Dictionary_153>:
     c70:	00000c7e 	andeq	r0, r0, lr, ror ip
     c74:	73030061 	movwvc	r0, #12385	; 0x3061
     c78:	08767268 	ldmdaeq	r6!, {r3, r5, r6, r9, ip, sp, lr}^

00000c7a <Code_153>:
     c7a:	0876      	lsrs	r6, r6, #1
     c7c:	4770      	bx	lr

00000c7e <Dictionary_154>:
     c7e:	00000c8c 	andeq	r0, r0, ip, lsl #25
     c82:	73030061 	movwvc	r0, #12385	; 0x3061
     c86:	00766c68 	rsbseq	r6, r6, r8, ror #24

00000c88 <Code_154>:
     c88:	0076      	lsls	r6, r6, #1
     c8a:	4770      	bx	lr

00000c8c <Dictionary_155>:
     c8c:	00000c9c 	muleq	r0, ip, ip
     c90:	72030061 	andvc	r0, r3, #97	; 0x61
     c94:	ea5f726f 	b	17dd658 <BIT24+0x7dd658>

00000c96 <Code_155>:
     c96:	ea5f 0676 	movs.w	r6, r6, ror #1
     c9a:	4770      	bx	lr

00000c9c <Dictionary_156>:
     c9c:	00000cae 	andeq	r0, r0, lr, lsr #25
     ca0:	72030061 	andvc	r0, r3, #97	; 0x61
     ca4:	19b66c6f 	ldmibne	r6!, {r0, r1, r2, r3, r5, r6, sl, fp, sp, lr}

00000ca6 <Code_156>:
     ca6:	19b6      	adds	r6, r6, r6
     ca8:	f156 0600 	adcs.w	r6, r6, #0
     cac:	4770      	bx	lr

00000cae <Dictionary_157>:
     cae:	00000cc8 	andeq	r0, r0, r8, asr #25
     cb2:	7206006c 	andvc	r0, r6, #108	; 0x6c
     cb6:	66696873 			; <UNDEFINED> instruction: 0x66696873
     cba:	cf010074 	svcgt	0x00010074

00000cbc <Code_157>:
     cbc:	cf01      	ldmia	r7!, {r0}
     cbe:	40f0      	lsrs	r0, r6
     cc0:	0006      	movs	r6, r0
     cc2:	4770      	bx	lr
     cc4:	26000836 			; <UNDEFINED> instruction: 0x26000836

00000cc8 <Dictionary_158>:
     cc8:	00000ce2 	andeq	r0, r0, r2, ror #25
     ccc:	6107006c 	tstvs	r7, ip, rrx
     cd0:	69687372 	stmdbvs	r8!, {r1, r4, r5, r6, r8, r9, ip, sp, lr}^
     cd4:	cf017466 	svcgt	0x00017466

00000cd6 <Code_158>:
     cd6:	cf01      	ldmia	r7!, {r0}
     cd8:	4130      	asrs	r0, r6
     cda:	0006      	movs	r6, r0
     cdc:	4770      	bx	lr
     cde:	17f61036 			; <UNDEFINED> instruction: 0x17f61036

00000ce2 <Dictionary_159>:
     ce2:	00000cfc 	strdeq	r0, [r0], -ip
     ce6:	6c06006c 	stcvs	0, cr0, [r6], {108}	; 0x6c
     cea:	66696873 			; <UNDEFINED> instruction: 0x66696873
     cee:	cf010074 	svcgt	0x00010074

00000cf0 <Code_159>:
     cf0:	cf01      	ldmia	r7!, {r0}
     cf2:	40b0      	lsls	r0, r6
     cf4:	0006      	movs	r6, r0
     cf6:	4770      	bx	lr
     cf8:	26000036 			; <UNDEFINED> instruction: 0x26000036

00000cfc <Dictionary_160>:
     cfc:	00000d0c 	andeq	r0, r0, ip, lsl #26
     d00:	30020061 	andcc	r0, r2, r1, rrx
     d04:	3e01003d 	mcrcc	0, 0, r0, cr1, cr13, {1}

00000d06 <Code_160>:
     d06:	3e01      	subs	r6, #1
     d08:	41b6      	sbcs	r6, r6
     d0a:	4770      	bx	lr

00000d0c <Dictionary_161>:
     d0c:	00000d1e 	andeq	r0, r0, lr, lsl sp
     d10:	30030061 	andcc	r0, r3, r1, rrx
     d14:	3e013e3c 	mcrcc	14, 0, r3, cr1, cr12, {1}

00000d16 <Code_161>:
     d16:	3e01      	subs	r6, #1
     d18:	41b6      	sbcs	r6, r6
     d1a:	43f6      	mvns	r6, r6
     d1c:	4770      	bx	lr

00000d1e <Dictionary_162>:
     d1e:	00000d2c 	andeq	r0, r0, ip, lsr #26
     d22:	30020061 	andcc	r0, r2, r1, rrx
     d26:	17f6003c 			; <UNDEFINED> instruction: 0x17f6003c

00000d28 <Code_162>:
     d28:	17f6      	asrs	r6, r6, #31
     d2a:	4770      	bx	lr

00000d2c <Dictionary_163>:
     d2c:	00000d42 	andeq	r0, r0, r2, asr #26
     d30:	74040060 	strvc	r0, [r4], #-96	; 0x60
     d34:	00657572 	rsbeq	r7, r5, r2, ror r5

00000d38 <Code_163>:
     d38:	f847 6d04 	str.w	r6, [r7, #-4]!

00000d3c <generate_true>:
     d3c:	2600      	movs	r6, #0
     d3e:	43f6      	mvns	r6, r6
     d40:	4770      	bx	lr

00000d42 <Dictionary_165>:
     d42:	00000d56 	andeq	r0, r0, r6, asr sp
     d46:	66050060 	strvs	r0, [r5], -r0, rrx
     d4a:	65736c61 	ldrbvs	r6, [r3, #-3169]!	; 0xc61

00000d4e <Code_165>:
     d4e:	f847 6d04 	str.w	r6, [r7, #-4]!
     d52:	2600      	movs	r6, #0
     d54:	4770      	bx	lr

00000d56 <Dictionary_167>:
     d56:	00000d6a 	andeq	r0, r0, sl, ror #26
     d5a:	3e020042 	cdpcc	0, 0, cr0, cr2, cr2, {2}
     d5e:	cf01003d 	svcgt	0x0001003d

00000d60 <Code_167>:
     d60:	cf01      	ldmia	r7!, {r0}
     d62:	42b0      	cmp	r0, r6
     d64:	daea      	bge.n	d3c <generate_true>
     d66:	2600      	movs	r6, #0
     d68:	4770      	bx	lr

00000d6a <Dictionary_168>:
     d6a:	00000d7e 	andeq	r0, r0, lr, ror sp
     d6e:	3c020042 	stccc	0, cr0, [r2], {66}	; 0x42
     d72:	cf01003d 	svcgt	0x0001003d

00000d74 <Code_168>:
     d74:	cf01      	ldmia	r7!, {r0}
     d76:	42b0      	cmp	r0, r6
     d78:	dde0      	ble.n	d3c <generate_true>
     d7a:	2600      	movs	r6, #0
     d7c:	4770      	bx	lr

00000d7e <Dictionary_169>:
     d7e:	00000d90 	muleq	r0, r0, sp
     d82:	3c010042 	stccc	0, cr0, [r1], {66}	; 0x42

00000d86 <Code_169>:
     d86:	cf01      	ldmia	r7!, {r0}
     d88:	42b0      	cmp	r0, r6
     d8a:	dbd7      	blt.n	d3c <generate_true>
     d8c:	2600      	movs	r6, #0
     d8e:	4770      	bx	lr

00000d90 <Dictionary_170>:
     d90:	00000da2 	andeq	r0, r0, r2, lsr #27
     d94:	3e010042 	cdpcc	0, 0, cr0, cr1, cr2, {2}

00000d98 <Code_170>:
     d98:	cf01      	ldmia	r7!, {r0}
     d9a:	42b0      	cmp	r0, r6
     d9c:	dcce      	bgt.n	d3c <generate_true>
     d9e:	2600      	movs	r6, #0
     da0:	4770      	bx	lr

00000da2 <Dictionary_171>:
     da2:	00000db6 			; <UNDEFINED> instruction: 0x00000db6
     da6:	75030062 	strvc	r0, [r3, #-98]	; 0x62
     daa:	cf013d3e 	svcgt	0x00013d3e

00000dac <Code_171>:
     dac:	cf01      	ldmia	r7!, {r0}
     dae:	1b86      	subs	r6, r0, r6
     db0:	41b6      	sbcs	r6, r6
     db2:	43f6      	mvns	r6, r6
     db4:	4770      	bx	lr

00000db6 <Dictionary_172>:
     db6:	00000dca 	andeq	r0, r0, sl, asr #27
     dba:	75030062 	strvc	r0, [r3, #-98]	; 0x62
     dbe:	cf013d3c 	svcgt	0x00013d3c

00000dc0 <Code_172>:
     dc0:	cf01      	ldmia	r7!, {r0}
     dc2:	1a36      	subs	r6, r6, r0
     dc4:	41b6      	sbcs	r6, r6
     dc6:	43f6      	mvns	r6, r6
     dc8:	4770      	bx	lr

00000dca <Dictionary_173>:
     dca:	00000ddc 	ldrdeq	r0, [r0], -ip
     dce:	75020062 	strvc	r0, [r2, #-98]	; 0x62
     dd2:	cf01003c 	svcgt	0x0001003c

00000dd4 <Code_173>:
     dd4:	cf01      	ldmia	r7!, {r0}
     dd6:	1b86      	subs	r6, r0, r6
     dd8:	41b6      	sbcs	r6, r6
     dda:	4770      	bx	lr

00000ddc <Dictionary_174>:
     ddc:	00000dee 	andeq	r0, r0, lr, ror #27
     de0:	75020062 	strvc	r0, [r2, #-98]	; 0x62
     de4:	cf01003e 	svcgt	0x0001003e

00000de6 <Code_174>:
     de6:	cf01      	ldmia	r7!, {r0}
     de8:	1a36      	subs	r6, r6, r0
     dea:	41b6      	sbcs	r6, r6
     dec:	4770      	bx	lr

00000dee <Dictionary_175>:
     dee:	00000e04 	andeq	r0, r0, r4, lsl #28
     df2:	3c02006b 	stccc	0, cr0, [r2], {107}	; 0x6b
     df6:	cf01003e 	svcgt	0x0001003e

00000df8 <Code_175>:
     df8:	cf01      	ldmia	r7!, {r0}
     dfa:	1a36      	subs	r6, r6, r0
     dfc:	3e01      	subs	r6, #1
     dfe:	41b6      	sbcs	r6, r6
     e00:	43f6      	mvns	r6, r6
     e02:	4770      	bx	lr

00000e04 <Dictionary_176>:
     e04:	00000e16 	andeq	r0, r0, r6, lsl lr
     e08:	3d01006b 	stccc	0, cr0, [r1, #-428]	; 0xfffffe54

00000e0c <Code_176>:
     e0c:	cf01      	ldmia	r7!, {r0}
     e0e:	1a36      	subs	r6, r6, r0
     e10:	3e01      	subs	r6, #1
     e12:	41b6      	sbcs	r6, r6
     e14:	4770      	bx	lr

00000e16 <Dictionary_177>:
     e16:	00000e2a 	andeq	r0, r0, sl, lsr #28
     e1a:	6d030062 	stcvs	0, cr0, [r3, #-392]	; 0xfffffe78
     e1e:	cf016e69 	svcgt	0x00016e69

00000e20 <Code_177>:
     e20:	cf01      	ldmia	r7!, {r0}
     e22:	42b0      	cmp	r0, r6
     e24:	dc00      	bgt.n	e28 <Code_177+0x8>
     e26:	0006      	movs	r6, r0
     e28:	4770      	bx	lr

00000e2a <Dictionary_178>:
     e2a:	00000e3e 	andeq	r0, r0, lr, lsr lr
     e2e:	6d030062 	stcvs	0, cr0, [r3, #-392]	; 0xfffffe78
     e32:	cf017861 	svcgt	0x00017861

00000e34 <Code_178>:
     e34:	cf01      	ldmia	r7!, {r0}
     e36:	42b0      	cmp	r0, r6
     e38:	db00      	blt.n	e3c <Code_178+0x8>
     e3a:	0006      	movs	r6, r0
     e3c:	4770      	bx	lr

00000e3e <Dictionary_179>:
     e3e:	00000e54 	andeq	r0, r0, r4, asr lr
     e42:	75040062 	strvc	r0, [r4, #-98]	; 0x62
     e46:	0078616d 	rsbseq	r6, r8, sp, ror #2

00000e4a <Code_179>:
     e4a:	cf01      	ldmia	r7!, {r0}
     e4c:	42b0      	cmp	r0, r6
     e4e:	d300      	bcc.n	e52 <Code_179+0x8>
     e50:	0006      	movs	r6, r0
     e52:	4770      	bx	lr

00000e54 <Dictionary_180>:
     e54:	00000e74 	andeq	r0, r0, r4, ror lr
     e58:	75040062 	strvc	r0, [r4, #-98]	; 0x62
     e5c:	006e696d 	rsbeq	r6, lr, sp, ror #18

00000e60 <Code_180>:
     e60:	cf01      	ldmia	r7!, {r0}
     e62:	42b0      	cmp	r0, r6
     e64:	d800      	bhi.n	e68 <Code_180+0x8>
     e66:	0006      	movs	r6, r0
     e68:	4770      	bx	lr
     e6a:	82300000 	eorshi	r0, r0, #0
     e6e:	83301fff 	teqhi	r0, #1020	; 0x3fc
     e72:	0eb21fff 	mrceq	15, 5, r1, cr2, cr15, {7}

00000e74 <Dictionary_181>:
     e74:	00000eb2 			; <UNDEFINED> instruction: 0x00000eb2
     e78:	6d040000 	stcvs	0, cr0, [r4]
     e7c:	0065766f 	rsbeq	r7, r5, pc, ror #12

00000e80 <Code_181>:
     e80:	b507      	push	{r0, r1, r2, lr}
     e82:	0031      	movs	r1, r6
     e84:	cf40      	ldmia	r7!, {r6}
     e86:	0032      	movs	r2, r6
     e88:	cf40      	ldmia	r7!, {r6}
     e8a:	2900      	cmp	r1, #0
     e8c:	d00f      	beq.n	eae <Code_181+0x2e>
     e8e:	42b2      	cmp	r2, r6
     e90:	d00d      	beq.n	eae <Code_181+0x2e>
     e92:	d306      	bcc.n	ea2 <Code_181+0x22>
     e94:	3e01      	subs	r6, #1
     e96:	3a01      	subs	r2, #1
     e98:	5c70      	ldrb	r0, [r6, r1]
     e9a:	5450      	strb	r0, [r2, r1]
     e9c:	3901      	subs	r1, #1
     e9e:	d1fb      	bne.n	e98 <Code_181+0x18>
     ea0:	e005      	b.n	eae <Code_181+0x2e>
     ea2:	7830      	ldrb	r0, [r6, #0]
     ea4:	7010      	strb	r0, [r2, #0]
     ea6:	3601      	adds	r6, #1
     ea8:	3201      	adds	r2, #1
     eaa:	3901      	subs	r1, #1
     eac:	d1f9      	bne.n	ea2 <Code_181+0x22>
     eae:	cf40      	ldmia	r7!, {r6}
     eb0:	bd07      	pop	{r0, r1, r2, pc}

00000eb2 <Dictionary_185>:
     eb2:	00000ed4 	ldrdeq	r0, [r0], -r4
     eb6:	66040000 	strvs	r0, [r4], -r0
     eba:	006c6c69 	rsbeq	r6, ip, r9, ror #24

00000ebe <Code_185>:
     ebe:	0030      	movs	r0, r6
     ec0:	cf40      	ldmia	r7!, {r6}
     ec2:	0031      	movs	r1, r6
     ec4:	cf40      	ldmia	r7!, {r6}
     ec6:	2900      	cmp	r1, #0
     ec8:	d002      	beq.n	ed0 <Code_185+0x12>
     eca:	3901      	subs	r1, #1
     ecc:	5470      	strb	r0, [r6, r1]
     ece:	d1fc      	bne.n	eca <Code_185+0xc>
     ed0:	cf40      	ldmia	r7!, {r6}
     ed2:	4770      	bx	lr

00000ed4 <Dictionary_189>:
     ed4:	00000ee0 	andeq	r0, r0, r0, ror #29
     ed8:	40010020 	andmi	r0, r1, r0, lsr #32

00000edc <Code_189>:
     edc:	6836      	ldr	r6, [r6, #0]
     ede:	4770      	bx	lr

00000ee0 <Dictionary_190>:
     ee0:	00000ef8 	strdeq	r0, [r0], -r8
     ee4:	2101006d 	tstcs	r1, sp, rrx

00000ee8 <Code_190>:
     ee8:	cf03      	ldmia	r7!, {r0, r1}
     eea:	6030      	str	r0, [r6, #0]
     eec:	000e      	movs	r6, r1
     eee:	4770      	bx	lr
     ef0:	6006      	str	r6, [r0, #0]
     ef2:	4770      	bx	lr
     ef4:	6001      	str	r1, [r0, #0]
     ef6:	4770      	bx	lr

00000ef8 <Dictionary_191>:
     ef8:	00000f1e 	andeq	r0, r0, lr, lsl pc
     efc:	2b02006d 	blcs	810b8 <BIT19+0x10b8>
     f00:	cf030021 	svcgt	0x00030021

00000f02 <Code_191>:
     f02:	cf03      	ldmia	r7!, {r0, r1}
     f04:	6832      	ldr	r2, [r6, #0]
     f06:	1812      	adds	r2, r2, r0
     f08:	6032      	str	r2, [r6, #0]
     f0a:	000e      	movs	r6, r1
     f0c:	4770      	bx	lr
     f0e:	6802      	ldr	r2, [r0, #0]
     f10:	1992      	adds	r2, r2, r6
     f12:	6002      	str	r2, [r0, #0]
     f14:	4770      	bx	lr
     f16:	6802      	ldr	r2, [r0, #0]
     f18:	1852      	adds	r2, r2, r1
     f1a:	6002      	str	r2, [r0, #0]
     f1c:	4770      	bx	lr

00000f1e <Dictionary_192>:
     f1e:	00000f2c 	andeq	r0, r0, ip, lsr #30
     f22:	68020020 	stmdavs	r2, {r5}
     f26:	88360040 	ldmdahi	r6!, {r6}

00000f28 <Code_192>:
     f28:	8836      	ldrh	r6, [r6, #0]
     f2a:	4770      	bx	lr

00000f2c <Dictionary_193>:
     f2c:	00000f46 	andeq	r0, r0, r6, asr #30
     f30:	6802006d 	stmdavs	r2, {r0, r2, r3, r5, r6}
     f34:	cf030021 	svcgt	0x00030021

00000f36 <Code_193>:
     f36:	cf03      	ldmia	r7!, {r0, r1}
     f38:	8030      	strh	r0, [r6, #0]
     f3a:	000e      	movs	r6, r1
     f3c:	4770      	bx	lr
     f3e:	8006      	strh	r6, [r0, #0]
     f40:	4770      	bx	lr
     f42:	8001      	strh	r1, [r0, #0]
     f44:	4770      	bx	lr

00000f46 <Dictionary_194>:
     f46:	00000f6c 	andeq	r0, r0, ip, ror #30
     f4a:	6803006d 	stmdavs	r3, {r0, r2, r3, r5, r6}
     f4e:	cf03212b 	svcgt	0x0003212b

00000f50 <Code_194>:
     f50:	cf03      	ldmia	r7!, {r0, r1}
     f52:	8832      	ldrh	r2, [r6, #0]
     f54:	1812      	adds	r2, r2, r0
     f56:	8032      	strh	r2, [r6, #0]
     f58:	000e      	movs	r6, r1
     f5a:	4770      	bx	lr
     f5c:	8802      	ldrh	r2, [r0, #0]
     f5e:	1992      	adds	r2, r2, r6
     f60:	8002      	strh	r2, [r0, #0]
     f62:	4770      	bx	lr
     f64:	8802      	ldrh	r2, [r0, #0]
     f66:	1852      	adds	r2, r2, r1
     f68:	8002      	strh	r2, [r0, #0]
     f6a:	4770      	bx	lr

00000f6c <Dictionary_195>:
     f6c:	00000f7a 	andeq	r0, r0, sl, ror pc
     f70:	63020020 	movwvs	r0, #8224	; 0x2020
     f74:	78360040 	ldmdavc	r6!, {r6}

00000f76 <Code_195>:
     f76:	7836      	ldrb	r6, [r6, #0]
     f78:	4770      	bx	lr

00000f7a <Dictionary_196>:
     f7a:	00000f94 	muleq	r0, r4, pc	; <UNPREDICTABLE>
     f7e:	6302006d 	movwvs	r0, #8301	; 0x206d
     f82:	cf030021 	svcgt	0x00030021

00000f84 <Code_196>:
     f84:	cf03      	ldmia	r7!, {r0, r1}
     f86:	7030      	strb	r0, [r6, #0]
     f88:	000e      	movs	r6, r1
     f8a:	4770      	bx	lr
     f8c:	7006      	strb	r6, [r0, #0]
     f8e:	4770      	bx	lr
     f90:	7001      	strb	r1, [r0, #0]
     f92:	4770      	bx	lr

00000f94 <Dictionary_197>:
     f94:	00000fba 			; <UNDEFINED> instruction: 0x00000fba
     f98:	6303006d 	movwvs	r0, #12397	; 0x306d
     f9c:	cf03212b 	svcgt	0x0003212b

00000f9e <Code_197>:
     f9e:	cf03      	ldmia	r7!, {r0, r1}
     fa0:	7832      	ldrb	r2, [r6, #0]
     fa2:	1812      	adds	r2, r2, r0
     fa4:	7032      	strb	r2, [r6, #0]
     fa6:	000e      	movs	r6, r1
     fa8:	4770      	bx	lr
     faa:	7802      	ldrb	r2, [r0, #0]
     fac:	1992      	adds	r2, r2, r6
     fae:	7002      	strb	r2, [r0, #0]
     fb0:	4770      	bx	lr
     fb2:	7802      	ldrb	r2, [r0, #0]
     fb4:	1852      	adds	r2, r2, r1
     fb6:	7002      	strb	r2, [r0, #0]
     fb8:	4770      	bx	lr

00000fba <Dictionary_198>:
     fba:	00000fe2 	andeq	r0, r0, r2, ror #31
     fbe:	6204006d 	andvs	r0, r4, #109	; 0x6d
     fc2:	00217369 	eoreq	r7, r1, r9, ror #6

00000fc6 <Code_198>:
     fc6:	cf03      	ldmia	r7!, {r0, r1}
     fc8:	6832      	ldr	r2, [r6, #0]
     fca:	4302      	orrs	r2, r0
     fcc:	6032      	str	r2, [r6, #0]
     fce:	000e      	movs	r6, r1
     fd0:	4770      	bx	lr
     fd2:	6802      	ldr	r2, [r0, #0]
     fd4:	4332      	orrs	r2, r6
     fd6:	6002      	str	r2, [r0, #0]
     fd8:	4770      	bx	lr
     fda:	6802      	ldr	r2, [r0, #0]
     fdc:	430a      	orrs	r2, r1
     fde:	6002      	str	r2, [r0, #0]
     fe0:	4770      	bx	lr

00000fe2 <Dictionary_199>:
     fe2:	0000100a 	andeq	r1, r0, sl
     fe6:	6204006d 	andvs	r0, r4, #109	; 0x6d
     fea:	00216369 	eoreq	r6, r1, r9, ror #6

00000fee <Code_199>:
     fee:	cf03      	ldmia	r7!, {r0, r1}
     ff0:	6832      	ldr	r2, [r6, #0]
     ff2:	4382      	bics	r2, r0
     ff4:	6032      	str	r2, [r6, #0]
     ff6:	000e      	movs	r6, r1
     ff8:	4770      	bx	lr
     ffa:	6802      	ldr	r2, [r0, #0]
     ffc:	43b2      	bics	r2, r6
     ffe:	6002      	str	r2, [r0, #0]
    1000:	4770      	bx	lr
    1002:	6802      	ldr	r2, [r0, #0]
    1004:	438a      	bics	r2, r1
    1006:	6002      	str	r2, [r0, #0]
    1008:	4770      	bx	lr

0000100a <Dictionary_200>:
    100a:	00001032 	andeq	r1, r0, r2, lsr r0
    100e:	7804006d 	stmdavc	r4, {r0, r2, r3, r5, r6}
    1012:	0021726f 	eoreq	r7, r1, pc, ror #4

00001016 <Code_200>:
    1016:	cf03      	ldmia	r7!, {r0, r1}
    1018:	6832      	ldr	r2, [r6, #0]
    101a:	4042      	eors	r2, r0
    101c:	6032      	str	r2, [r6, #0]
    101e:	000e      	movs	r6, r1
    1020:	4770      	bx	lr
    1022:	6802      	ldr	r2, [r0, #0]
    1024:	4072      	eors	r2, r6
    1026:	6002      	str	r2, [r0, #0]
    1028:	4770      	bx	lr
    102a:	6802      	ldr	r2, [r0, #0]
    102c:	404a      	eors	r2, r1
    102e:	6002      	str	r2, [r0, #0]
    1030:	4770      	bx	lr

00001032 <Dictionary_201>:
    1032:	0000109a 	muleq	r0, sl, r0
    1036:	62040068 	andvs	r0, r4, #104	; 0x68
    103a:	00407469 	subeq	r7, r0, r9, ror #8

0000103e <Code_201>:
    103e:	cf01      	ldmia	r7!, {r0}
    1040:	6836      	ldr	r6, [r6, #0]

00001042 <struktur_bitfetch>:
    1042:	4006      	ands	r6, r0
    1044:	bf18      	it	ne
    1046:	f04f 36ff 	movne.w	r6, #4294967295
    104a:	4770      	bx	lr
    104c:	4af0      	ldr	r2, [pc, #960]	; (1410 <Code_240+0x6>)

0000104e <bitfetch_opcoding>:
    104e:	b500      	push	{lr}
    1050:	2b01      	cmp	r3, #1
    1052:	d10a      	bne.n	106a <bitfetch_opcoding+0x1c>
    1054:	f847 6d04 	str.w	r6, [r7, #-4]!
    1058:	2600      	movs	r6, #0
    105a:	f000 ffc1 	bl	1fe0 <Code_422>
    105e:	f847 6d04 	str.w	r6, [r7, #-4]!
    1062:	0016      	movs	r6, r2
    1064:	f001 fadf 	bl	2626 <Code_540>
    1068:	e011      	b.n	108e <bitfetch_opcoding+0x40>
    106a:	cf02      	ldmia	r7!, {r1}
    106c:	3b01      	subs	r3, #1
    106e:	f002 fc3c 	bl	38ea <konstantenschreiben>
    1072:	f847 6d04 	str.w	r6, [r7, #-4]!
    1076:	2636      	movs	r6, #54	; 0x36
    1078:	4316      	orrs	r6, r2
    107a:	f001 fad4 	bl	2626 <Code_540>
    107e:	f847 6d04 	str.w	r6, [r7, #-4]!
    1082:	000e      	movs	r6, r1
    1084:	f847 6d04 	str.w	r6, [r7, #-4]!
    1088:	2600      	movs	r6, #0
    108a:	f000 ffa9 	bl	1fe0 <Code_422>
    108e:	f847 6d04 	str.w	r6, [r7, #-4]!
    1092:	4ee0      	ldr	r6, [pc, #896]	; (1414 <Code_240+0xa>)
    1094:	f001 f8d8 	bl	2248 <Code_465>
    1098:	bd00      	pop	{pc}

0000109a <Dictionary_213>:
    109a:	000010c2 	andeq	r1, r0, r2, asr #1
    109e:	6805006d 	stmdavs	r5, {r0, r2, r3, r5, r6}
    10a2:	21736962 	cmncs	r3, r2, ror #18

000010a6 <Code_213>:
    10a6:	cf03      	ldmia	r7!, {r0, r1}
    10a8:	8832      	ldrh	r2, [r6, #0]
    10aa:	4302      	orrs	r2, r0
    10ac:	8032      	strh	r2, [r6, #0]
    10ae:	000e      	movs	r6, r1
    10b0:	4770      	bx	lr
    10b2:	8802      	ldrh	r2, [r0, #0]
    10b4:	4332      	orrs	r2, r6
    10b6:	8002      	strh	r2, [r0, #0]
    10b8:	4770      	bx	lr
    10ba:	8802      	ldrh	r2, [r0, #0]
    10bc:	430a      	orrs	r2, r1
    10be:	8002      	strh	r2, [r0, #0]
    10c0:	4770      	bx	lr

000010c2 <Dictionary_214>:
    10c2:	000010ea 	andeq	r1, r0, sl, ror #1
    10c6:	6805006d 	stmdavs	r5, {r0, r2, r3, r5, r6}
    10ca:	21636962 	cmncs	r3, r2, ror #18

000010ce <Code_214>:
    10ce:	cf03      	ldmia	r7!, {r0, r1}
    10d0:	8832      	ldrh	r2, [r6, #0]
    10d2:	4382      	bics	r2, r0
    10d4:	8032      	strh	r2, [r6, #0]
    10d6:	000e      	movs	r6, r1
    10d8:	4770      	bx	lr
    10da:	8802      	ldrh	r2, [r0, #0]
    10dc:	43b2      	bics	r2, r6
    10de:	8002      	strh	r2, [r0, #0]
    10e0:	4770      	bx	lr
    10e2:	8802      	ldrh	r2, [r0, #0]
    10e4:	438a      	bics	r2, r1
    10e6:	8002      	strh	r2, [r0, #0]
    10e8:	4770      	bx	lr

000010ea <Dictionary_215>:
    10ea:	00001112 	andeq	r1, r0, r2, lsl r1
    10ee:	6805006d 	stmdavs	r5, {r0, r2, r3, r5, r6}
    10f2:	21726f78 	cmncs	r2, r8, ror pc

000010f6 <Code_215>:
    10f6:	cf03      	ldmia	r7!, {r0, r1}
    10f8:	8832      	ldrh	r2, [r6, #0]
    10fa:	4042      	eors	r2, r0
    10fc:	8032      	strh	r2, [r6, #0]
    10fe:	000e      	movs	r6, r1
    1100:	4770      	bx	lr
    1102:	8802      	ldrh	r2, [r0, #0]
    1104:	4072      	eors	r2, r6
    1106:	8002      	strh	r2, [r0, #0]
    1108:	4770      	bx	lr
    110a:	8802      	ldrh	r2, [r0, #0]
    110c:	404a      	eors	r2, r1
    110e:	8002      	strh	r2, [r0, #0]
    1110:	4770      	bx	lr

00001112 <Dictionary_216>:
    1112:	00001130 	andeq	r1, r0, r0, lsr r1
    1116:	68050068 	stmdavs	r5, {r3, r5, r6}
    111a:	40746962 	rsbsmi	r6, r4, r2, ror #18

0000111e <Code_216>:
    111e:	cf01      	ldmia	r7!, {r0}
    1120:	8836      	ldrh	r6, [r6, #0]
    1122:	4006      	ands	r6, r0
    1124:	bf18      	it	ne
    1126:	f04f 36ff 	movne.w	r6, #4294967295
    112a:	4770      	bx	lr
    112c:	4aba      	ldr	r2, [pc, #744]	; (1418 <Code_240+0xe>)
    112e:	e78e      	b.n	104e <bitfetch_opcoding>

00001130 <Dictionary_217>:
    1130:	00001158 	andeq	r1, r0, r8, asr r1
    1134:	6305006d 	movwvs	r0, #20589	; 0x506d
    1138:	21736962 	cmncs	r3, r2, ror #18

0000113c <Code_217>:
    113c:	cf03      	ldmia	r7!, {r0, r1}
    113e:	7832      	ldrb	r2, [r6, #0]
    1140:	4302      	orrs	r2, r0
    1142:	7032      	strb	r2, [r6, #0]
    1144:	000e      	movs	r6, r1
    1146:	4770      	bx	lr
    1148:	7802      	ldrb	r2, [r0, #0]
    114a:	4332      	orrs	r2, r6
    114c:	7002      	strb	r2, [r0, #0]
    114e:	4770      	bx	lr
    1150:	7802      	ldrb	r2, [r0, #0]
    1152:	430a      	orrs	r2, r1
    1154:	7002      	strb	r2, [r0, #0]
    1156:	4770      	bx	lr

00001158 <Dictionary_218>:
    1158:	00001180 	andeq	r1, r0, r0, lsl #3
    115c:	6305006d 	movwvs	r0, #20589	; 0x506d
    1160:	21636962 	cmncs	r3, r2, ror #18

00001164 <Code_218>:
    1164:	cf03      	ldmia	r7!, {r0, r1}
    1166:	7832      	ldrb	r2, [r6, #0]
    1168:	4382      	bics	r2, r0
    116a:	7032      	strb	r2, [r6, #0]
    116c:	000e      	movs	r6, r1
    116e:	4770      	bx	lr
    1170:	7802      	ldrb	r2, [r0, #0]
    1172:	43b2      	bics	r2, r6
    1174:	7002      	strb	r2, [r0, #0]
    1176:	4770      	bx	lr
    1178:	7802      	ldrb	r2, [r0, #0]
    117a:	438a      	bics	r2, r1
    117c:	7002      	strb	r2, [r0, #0]
    117e:	4770      	bx	lr

00001180 <Dictionary_219>:
    1180:	000011a8 	andeq	r1, r0, r8, lsr #3
    1184:	6305006d 	movwvs	r0, #20589	; 0x506d
    1188:	21726f78 	cmncs	r2, r8, ror pc

0000118c <Code_219>:
    118c:	cf03      	ldmia	r7!, {r0, r1}
    118e:	7832      	ldrb	r2, [r6, #0]
    1190:	4042      	eors	r2, r0
    1192:	7032      	strb	r2, [r6, #0]
    1194:	000e      	movs	r6, r1
    1196:	4770      	bx	lr
    1198:	7802      	ldrb	r2, [r0, #0]
    119a:	4072      	eors	r2, r6
    119c:	7002      	strb	r2, [r0, #0]
    119e:	4770      	bx	lr
    11a0:	7802      	ldrb	r2, [r0, #0]
    11a2:	404a      	eors	r2, r1
    11a4:	7002      	strb	r2, [r0, #0]
    11a6:	4770      	bx	lr

000011a8 <Dictionary_220>:
    11a8:	000011c6 	andeq	r1, r0, r6, asr #3
    11ac:	63050068 	movwvs	r0, #20584	; 0x5068
    11b0:	40746962 	rsbsmi	r6, r4, r2, ror #18

000011b4 <Code_220>:
    11b4:	cf01      	ldmia	r7!, {r0}
    11b6:	7836      	ldrb	r6, [r6, #0]
    11b8:	4006      	ands	r6, r0
    11ba:	bf18      	it	ne
    11bc:	f04f 36ff 	movne.w	r6, #4294967295
    11c0:	4770      	bx	lr
    11c2:	4a96      	ldr	r2, [pc, #600]	; (141c <Code_240+0x12>)
    11c4:	e743      	b.n	104e <bitfetch_opcoding>

000011c6 <Dictionary_221>:
    11c6:	000011d6 	ldrdeq	r1, [r0], -r6
    11ca:	63050061 	movwvs	r0, #20577	; 0x5061
    11ce:	2b6c6c65 	blcs	1b1c36a <BIT24+0xb1c36a>

000011d2 <Code_221>:
    11d2:	3604      	adds	r6, #4
    11d4:	4770      	bx	lr

000011d6 <Dictionary_222>:
    11d6:	000011e6 	andeq	r1, r0, r6, ror #3
    11da:	63050061 	movwvs	r0, #20577	; 0x5061
    11de:	736c6c65 	cmnvc	ip, #25856	; 0x6500

000011e2 <Code_222>:
    11e2:	00b6      	lsls	r6, r6, #2
    11e4:	4770      	bx	lr

000011e6 <Dictionary_223>:
    11e6:	000012f6 	strdeq	r1, [r0], -r6
    11ea:	66060000 	strvs	r0, [r6], -r0
    11ee:	6873616c 	ldmdavs	r3!, {r2, r3, r5, r6, r8, sp, lr}^
    11f2:	00300021 	eorseq	r0, r0, r1, lsr #32

000011f4 <Code_223>:
    11f4:	0030      	movs	r0, r6
    11f6:	cf40      	ldmia	r7!, {r6}
    11f8:	0031      	movs	r1, r6
    11fa:	cf40      	ldmia	r7!, {r6}
    11fc:	4b88      	ldr	r3, [pc, #544]	; (1420 <Code_240+0x16>)
    11fe:	4298      	cmp	r0, r3
    1200:	d368      	bcc.n	12d4 <Code_223+0xe0>
    1202:	4b88      	ldr	r3, [pc, #544]	; (1424 <Code_240+0x1a>)
    1204:	4299      	cmp	r1, r3
    1206:	d02e      	beq.n	1266 <Code_223+0x72>
    1208:	2203      	movs	r2, #3
    120a:	4002      	ands	r2, r0
    120c:	d12c      	bne.n	1268 <Code_223+0x74>
    120e:	6802      	ldr	r2, [r0, #0]
    1210:	429a      	cmp	r2, r3
    1212:	d146      	bne.n	12a2 <Code_223+0xae>
    1214:	4a84      	ldr	r2, [pc, #528]	; (1428 <Code_240+0x1e>)
    1216:	7813      	ldrb	r3, [r2, #0]
    1218:	2280      	movs	r2, #128	; 0x80
    121a:	401a      	ands	r2, r3
    121c:	d0fa      	beq.n	1214 <Code_223+0x20>
    121e:	2230      	movs	r2, #48	; 0x30
    1220:	401a      	ands	r2, r3
    1222:	d002      	beq.n	122a <Code_223+0x36>
    1224:	4a80      	ldr	r2, [pc, #512]	; (1428 <Code_240+0x1e>)
    1226:	2330      	movs	r3, #48	; 0x30
    1228:	7013      	strb	r3, [r2, #0]
    122a:	4a80      	ldr	r2, [pc, #512]	; (142c <Code_240+0x22>)
    122c:	2306      	movs	r3, #6
    122e:	7013      	strb	r3, [r2, #0]
    1230:	4a7f      	ldr	r2, [pc, #508]	; (1430 <Code_240+0x26>)
    1232:	7010      	strb	r0, [r2, #0]
    1234:	0a00      	lsrs	r0, r0, #8
    1236:	4a7f      	ldr	r2, [pc, #508]	; (1434 <Code_240+0x2a>)
    1238:	7010      	strb	r0, [r2, #0]
    123a:	0a00      	lsrs	r0, r0, #8
    123c:	4a7e      	ldr	r2, [pc, #504]	; (1438 <Code_240+0x2e>)
    123e:	7010      	strb	r0, [r2, #0]
    1240:	4a7e      	ldr	r2, [pc, #504]	; (143c <Code_240+0x32>)
    1242:	7011      	strb	r1, [r2, #0]
    1244:	0a09      	lsrs	r1, r1, #8
    1246:	4a7e      	ldr	r2, [pc, #504]	; (1440 <Code_240+0x36>)
    1248:	7011      	strb	r1, [r2, #0]
    124a:	0a09      	lsrs	r1, r1, #8
    124c:	4a7d      	ldr	r2, [pc, #500]	; (1444 <Code_240+0x3a>)
    124e:	7011      	strb	r1, [r2, #0]
    1250:	0a09      	lsrs	r1, r1, #8
    1252:	4a7d      	ldr	r2, [pc, #500]	; (1448 <Code_240+0x3e>)
    1254:	7011      	strb	r1, [r2, #0]
    1256:	4a74      	ldr	r2, [pc, #464]	; (1428 <Code_240+0x1e>)
    1258:	2380      	movs	r3, #128	; 0x80
    125a:	7013      	strb	r3, [r2, #0]
    125c:	4a72      	ldr	r2, [pc, #456]	; (1428 <Code_240+0x1e>)
    125e:	7813      	ldrb	r3, [r2, #0]
    1260:	2280      	movs	r2, #128	; 0x80
    1262:	401a      	ands	r2, r3
    1264:	d0fa      	beq.n	125c <Code_223+0x68>
    1266:	4770      	bx	lr
    1268:	f000 fcc1 	bl	1bee <dotgaensefuesschen>
    126c:	64644130 	strbtvs	r4, [r4], #-304	; 0x130
    1270:	73736572 	cmnvc	r3, #478150656	; 0x1c800000
    1274:	73616820 	cmnvc	r1, #2097152	; 0x200000
    1278:	206f7420 	rsbcs	r7, pc, r0, lsr #8
    127c:	34206562 	strtcc	r6, [r0], #-1378	; 0x562
    1280:	696c612d 	stmdbvs	ip!, {r0, r2, r3, r5, r8, sp, lr}^
    1284:	64656e67 	strbtvs	r6, [r5], #-3687	; 0xe67
    1288:	726f6620 	rsbvc	r6, pc, #33554432	; 0x2000000
    128c:	69727720 	ldmdbvs	r2!, {r5, r8, r9, sl, ip, sp, lr}^
    1290:	676e6974 			; <UNDEFINED> instruction: 0x676e6974
    1294:	616c6620 	cmnvs	ip, r0, lsr #12
    1298:	21206873 	teqcs	r0, r3, ror r8
    129c:	f002000a 			; <UNDEFINED> instruction: 0xf002000a
    12a0:	bb4b      	cbnz	r3, 12f6 <Dictionary_229>
    12a2:	f000 fca4 	bl	1bee <dotgaensefuesschen>
    12a6:	616c4629 	cmnvs	ip, r9, lsr #12
    12aa:	6c206873 	stcvs	8, cr6, [r0], #-460	; 0xfffffe34
    12ae:	7461636f 	strbtvc	r6, [r1], #-879	; 0x36f
    12b2:	206e6f69 	rsbcs	r6, lr, r9, ror #30
    12b6:	6e6e6163 	powvsez	f6, f6, f3
    12ba:	6220746f 	eorvs	r7, r0, #1862270976	; 0x6f000000
    12be:	72772065 	rsbsvc	r2, r7, #101	; 0x65
    12c2:	65747469 	ldrbvs	r7, [r4, #-1129]!	; 0x469
    12c6:	7774206e 	ldrbvc	r2, [r4, -lr, rrx]!
    12ca:	20656369 	rsbcs	r6, r5, r9, ror #6
    12ce:	f0020a21 			; <UNDEFINED> instruction: 0xf0020a21
    12d2:	bb32      	cbnz	r2, 1322 <Code_229+0x16>
    12d4:	f000 fc8b 	bl	1bee <dotgaensefuesschen>
    12d8:	6e614319 	mcrvs	3, 3, r4, cr1, cr9, {0}
    12dc:	20746f6e 	rsbscs	r6, r4, lr, ror #30
    12e0:	74697277 	strbtvc	r7, [r9], #-631	; 0x277
    12e4:	6e692065 	cdpvs	0, 6, cr2, cr9, cr5, {3}
    12e8:	63206f74 	teqvs	r0, #464	; 0x1d0
    12ec:	2065726f 	rsbcs	r7, r5, pc, ror #4
    12f0:	f0020a21 			; <UNDEFINED> instruction: 0xf0020a21
    12f4:	bb21      	cbnz	r1, 1340 <Code_229+0x34>

000012f6 <Dictionary_229>:
    12f6:	00001378 	andeq	r1, r0, r8, ror r3
    12fa:	660e0000 	strvs	r0, [lr], -r0
    12fe:	6873616c 	ldmdavs	r3!, {r2, r3, r5, r6, r8, sp, lr}^
    1302:	65676170 	strbvs	r6, [r7, #-368]!	; 0x170
    1306:	73617265 	cmnvc	r1, #1342177286	; 0x50000006
    130a:	b50f0065 	strlt	r0, [pc, #-101]	; 12ad <Code_223+0xb9>

0000130c <Code_229>:
    130c:	b50f      	push	{r0, r1, r2, r3, lr}
    130e:	0030      	movs	r0, r6
    1310:	cf40      	ldmia	r7!, {r6}
    1312:	4b43      	ldr	r3, [pc, #268]	; (1420 <Code_240+0x16>)
    1314:	4298      	cmp	r0, r3
    1316:	d320      	bcc.n	135a <Code_229+0x4e>
    1318:	2303      	movs	r3, #3
    131a:	4398      	bics	r0, r3
    131c:	4a42      	ldr	r2, [pc, #264]	; (1428 <Code_240+0x1e>)
    131e:	7813      	ldrb	r3, [r2, #0]
    1320:	2280      	movs	r2, #128	; 0x80
    1322:	401a      	ands	r2, r3
    1324:	d0fa      	beq.n	131c <Code_229+0x10>
    1326:	2230      	movs	r2, #48	; 0x30
    1328:	401a      	ands	r2, r3
    132a:	d002      	beq.n	1332 <Code_229+0x26>
    132c:	4a3e      	ldr	r2, [pc, #248]	; (1428 <Code_240+0x1e>)
    132e:	2330      	movs	r3, #48	; 0x30
    1330:	7013      	strb	r3, [r2, #0]
    1332:	4a3e      	ldr	r2, [pc, #248]	; (142c <Code_240+0x22>)
    1334:	2309      	movs	r3, #9
    1336:	7013      	strb	r3, [r2, #0]
    1338:	4a3d      	ldr	r2, [pc, #244]	; (1430 <Code_240+0x26>)
    133a:	7010      	strb	r0, [r2, #0]
    133c:	0a00      	lsrs	r0, r0, #8
    133e:	4a3d      	ldr	r2, [pc, #244]	; (1434 <Code_240+0x2a>)
    1340:	7010      	strb	r0, [r2, #0]
    1342:	0a00      	lsrs	r0, r0, #8
    1344:	4a3c      	ldr	r2, [pc, #240]	; (1438 <Code_240+0x2e>)
    1346:	7010      	strb	r0, [r2, #0]
    1348:	4a37      	ldr	r2, [pc, #220]	; (1428 <Code_240+0x1e>)
    134a:	2380      	movs	r3, #128	; 0x80
    134c:	7013      	strb	r3, [r2, #0]
    134e:	4a36      	ldr	r2, [pc, #216]	; (1428 <Code_240+0x1e>)
    1350:	7813      	ldrb	r3, [r2, #0]
    1352:	2280      	movs	r2, #128	; 0x80
    1354:	401a      	ands	r2, r3
    1356:	d0fa      	beq.n	134e <Code_229+0x42>
    1358:	bd0f      	pop	{r0, r1, r2, r3, pc}
    135a:	f000 fc48 	bl	1bee <dotgaensefuesschen>
    135e:	6e614314 	mcrvs	3, 3, r4, cr1, cr4, {0}
    1362:	20746f6e 	rsbscs	r6, r4, lr, ror #30
    1366:	73617265 	cmnvc	r1, #1342177286	; 0x50000006
    136a:	6f632065 	svcvs	0x00632065
    136e:	21206572 	teqcs	r0, r2, ror r5
    1372:	f002000a 			; <UNDEFINED> instruction: 0xf002000a
    1376:	bae0      	revsh	r0, r4

00001378 <Dictionary_232>:
    1378:	000013f4 	strdeq	r1, [r0], -r4
    137c:	650a0000 	strvs	r0, [sl]
    1380:	65736172 	ldrbvs	r6, [r3, #-370]!	; 0x172
    1384:	73616c66 	cmnvc	r1, #26112	; 0x6600
    1388:	48250068 	stmdami	r5!, {r3, r5, r6}

0000138a <Code_232>:
    138a:	4825      	ldr	r0, [pc, #148]	; (1420 <Code_240+0x16>)

0000138c <eraseflash_intern>:
    138c:	b672      	cpsid	i
    138e:	492f      	ldr	r1, [pc, #188]	; (144c <Code_240+0x42>)
    1390:	4a2f      	ldr	r2, [pc, #188]	; (1450 <Code_240+0x46>)
    1392:	6803      	ldr	r3, [r0, #0]
    1394:	4293      	cmp	r3, r2
    1396:	d01c      	beq.n	13d2 <eraseflash_intern+0x46>
    1398:	f847 6d04 	str.w	r6, [r7, #-4]!
    139c:	0006      	movs	r6, r0
    139e:	f847 6d04 	str.w	r6, [r7, #-4]!
    13a2:	f000 fc24 	bl	1bee <dotgaensefuesschen>
    13a6:	61724510 	cmnvs	r2, r0, lsl r5
    13aa:	62206573 	eorvs	r6, r0, #482344960	; 0x1cc00000
    13ae:	6b636f6c 	blvs	18dd166 <BIT24+0x8dd166>
    13b2:	20746120 	rsbscs	r6, r4, r0, lsr #2
    13b6:	f0000020 			; <UNDEFINED> instruction: 0xf0000020
    13ba:	fc8c f000 	stc2	0, cr15, [ip], {0}
    13be:	fc17 200c 	ldc2	0, cr2, [r7], {12}
    13c2:	6d6f7266 	sfmvs	f7, 2, [pc, #-408]!	; 1230 <Code_223+0x3c>
    13c6:	616c4620 	cmnvs	ip, r0, lsr #12
    13ca:	000a6873 	andeq	r6, sl, r3, ror r8
    13ce:	f7ff ff9d 	bl	130c <Code_229>
    13d2:	3004      	adds	r0, #4
    13d4:	4288      	cmp	r0, r1
    13d6:	d1dc      	bne.n	1392 <eraseflash_intern+0x6>
    13d8:	f000 fc09 	bl	1bee <dotgaensefuesschen>
    13dc:	6e694612 	mcrvs	6, 3, r4, cr9, cr2, {0}
    13e0:	65687369 	strbvs	r7, [r8, #-873]!	; 0x369
    13e4:	52202e64 	eorpl	r2, r0, #1600	; 0x640
    13e8:	74657365 	strbtvc	r7, [r5], #-869	; 0x365
    13ec:	000a2120 	andeq	r2, sl, r0, lsr #2
    13f0:	f002 fb2f 	bl	3a52 <Code_934>

000013f4 <Dictionary_240>:
    13f4:	0000149c 	muleq	r0, ip, r4
    13f8:	650e0000 	strvs	r0, [lr]
    13fc:	65736172 	ldrbvs	r6, [r3, #-370]!	; 0x172
    1400:	73616c66 	cmnvc	r1, #26112	; 0x6600
    1404:	6f726668 	svcvs	0x00726668
    1408:	0030006d 	eorseq	r0, r0, sp, rrx

0000140a <Code_240>:
    140a:	0030      	movs	r0, r6
    140c:	cf40      	ldmia	r7!, {r6}
    140e:	e7bd      	b.n	138c <eraseflash_intern>
    1410:	00006800 	andeq	r6, r0, r0, lsl #16
    1414:	00001042 	andeq	r1, r0, r2, asr #32
    1418:	00008800 	andeq	r8, r0, r0, lsl #16
    141c:	00007800 	andeq	r7, r0, r0, lsl #16
    1420:	00004000 	andeq	r4, r0, r0
    1424:	ffffffff 			; <UNDEFINED> instruction: 0xffffffff
    1428:	40020000 	andmi	r0, r2, r0
    142c:	40020007 	andmi	r0, r2, r7
    1430:	40020004 	andmi	r0, r2, r4
    1434:	40020005 	andmi	r0, r2, r5
    1438:	40020006 	andmi	r0, r2, r6
    143c:	40020008 	andmi	r0, r2, r8
    1440:	40020009 	andmi	r0, r2, r9
    1444:	4002000a 	andmi	r0, r2, sl
    1448:	4002000b 	andmi	r0, r2, fp
    144c:	00040000 	andeq	r0, r4, r0
    1450:	ffffffff 			; <UNDEFINED> instruction: 0xffffffff

00001454 <sammeltabelleleeren>:
    1454:	4846      	ldr	r0, [pc, #280]	; (1570 <hflashstoreemulation_gefunden+0x2a>)
    1456:	2160      	movs	r1, #96	; 0x60
    1458:	2200      	movs	r2, #0
    145a:	8002      	strh	r2, [r0, #0]
    145c:	3002      	adds	r0, #2
    145e:	3901      	subs	r1, #1
    1460:	d1fb      	bne.n	145a <sammeltabelleleeren+0x6>
    1462:	4770      	bx	lr

00001464 <sammeltabelleleerprobe>:
    1464:	4842      	ldr	r0, [pc, #264]	; (1570 <hflashstoreemulation_gefunden+0x2a>)
    1466:	2160      	movs	r1, #96	; 0x60
    1468:	8802      	ldrh	r2, [r0, #0]
    146a:	2a00      	cmp	r2, #0
    146c:	d012      	beq.n	1494 <sammeltabelleleerprobe+0x30>
    146e:	f000 fbbe 	bl	1bee <dotgaensefuesschen>
    1472:	706e551d 	rsbvc	r5, lr, sp, lsl r5
    1476:	65726961 	ldrbvs	r6, [r2, #-2401]!	; 0x961
    147a:	36312064 	ldrtcc	r2, [r1], -r4, rrx
    147e:	7469622d 	strbtvc	r6, [r9], #-557	; 0x22d
    1482:	616c4620 	cmnvs	ip, r0, lsr #12
    1486:	77206873 			; <UNDEFINED> instruction: 0x77206873
    148a:	65746972 	ldrbvs	r6, [r4, #-2418]!	; 0x972
    148e:	f0020a2e 			; <UNDEFINED> instruction: 0xf0020a2e
    1492:	ba52      	rev16	r2, r2
    1494:	3002      	adds	r0, #2
    1496:	3901      	subs	r1, #1
    1498:	d1e6      	bne.n	1468 <sammeltabelleleerprobe+0x4>
    149a:	4770      	bx	lr

0000149c <Dictionary_243>:
    149c:	00001574 	andeq	r1, r0, r4, ror r5
    14a0:	68070000 	stmdavs	r7, {}	; <UNPREDICTABLE>
    14a4:	73616c66 	cmnvc	r1, #26112	; 0x6600
    14a8:	b5302168 	ldrlt	r2, [r0, #-360]!	; 0x168

000014aa <Code_243>:
    14aa:	b530      	push	{r4, r5, lr}
    14ac:	0032      	movs	r2, r6
    14ae:	cf40      	ldmia	r7!, {r6}
    14b0:	0850      	lsrs	r0, r2, #1
    14b2:	d313      	bcc.n	14dc <Code_243+0x32>
    14b4:	f000 fb9b 	bl	1bee <dotgaensefuesschen>
    14b8:	6c66681e 	stclvs	8, cr6, [r6], #-120	; 0xffffff88
    14bc:	21687361 	cmncs	r8, r1, ror #6
    14c0:	65656e20 	strbvs	r6, [r5, #-3616]!	; 0xe20
    14c4:	65207364 	strvs	r7, [r0, #-868]!	; 0x364
    14c8:	206e6576 	rsbcs	r6, lr, r6, ror r5
    14cc:	72646461 	rsbvc	r6, r4, #1627389952	; 0x61000000
    14d0:	65737365 	ldrbvs	r7, [r3, #-869]!	; 0x365
    14d4:	000a2e73 	andeq	r2, sl, r3, ror lr
    14d8:	f002 ba2e 	b.w	3938 <Code_921>
    14dc:	2302      	movs	r3, #2
    14de:	4053      	eors	r3, r2
    14e0:	4823      	ldr	r0, [pc, #140]	; (1570 <hflashstoreemulation_gefunden+0x2a>)
    14e2:	2120      	movs	r1, #32
    14e4:	8804      	ldrh	r4, [r0, #0]
    14e6:	8845      	ldrh	r5, [r0, #2]
    14e8:	042d      	lsls	r5, r5, #16
    14ea:	432c      	orrs	r4, r5
    14ec:	429c      	cmp	r4, r3
    14ee:	d02a      	beq.n	1546 <hflashstoreemulation_gefunden>
    14f0:	3006      	adds	r0, #6
    14f2:	3901      	subs	r1, #1
    14f4:	d1f6      	bne.n	14e4 <Code_243+0x3a>
    14f6:	481e      	ldr	r0, [pc, #120]	; (1570 <hflashstoreemulation_gefunden+0x2a>)
    14f8:	2120      	movs	r1, #32
    14fa:	8804      	ldrh	r4, [r0, #0]
    14fc:	8845      	ldrh	r5, [r0, #2]
    14fe:	042d      	lsls	r5, r5, #16
    1500:	432c      	orrs	r4, r5
    1502:	d01a      	beq.n	153a <hflashstoreemulation_leerestelle>
    1504:	3006      	adds	r0, #6
    1506:	3901      	subs	r1, #1
    1508:	d1f7      	bne.n	14fa <Code_243+0x50>
    150a:	f000 fb70 	bl	1bee <dotgaensefuesschen>
    150e:	6f6f5427 	svcvs	0x006f5427
    1512:	6e616d20 	cdpvs	13, 6, cr6, cr1, cr0, {1}
    1516:	6e752079 	mrcvs	0, 3, r2, cr5, cr9, {3}
    151a:	72696170 	rsbvc	r6, r9, #28
    151e:	31206465 	teqcc	r0, r5, ror #8
    1522:	69622d36 	stmdbvs	r2!, {r1, r2, r4, r5, r8, sl, fp, sp}^
    1526:	6c462074 	mcrrvs	0, 7, r2, r6, cr4
    152a:	20687361 	rsbcs	r7, r8, r1, ror #6
    152e:	74697277 	strbtvc	r7, [r9], #-631	; 0x277
    1532:	0a2e7365 	beq	b9e2ce <BIT23+0x39e2ce>
    1536:	f002 b9ff 	b.w	3938 <Code_921>

0000153a <hflashstoreemulation_leerestelle>:
    153a:	8002      	strh	r2, [r0, #0]
    153c:	0c12      	lsrs	r2, r2, #16
    153e:	8042      	strh	r2, [r0, #2]
    1540:	8086      	strh	r6, [r0, #4]
    1542:	cf40      	ldmia	r7!, {r6}
    1544:	bd30      	pop	{r4, r5, pc}

00001546 <hflashstoreemulation_gefunden>:
    1546:	2102      	movs	r1, #2
    1548:	4011      	ands	r1, r2
    154a:	d003      	beq.n	1554 <hflashstoreemulation_gefunden+0xe>
    154c:	3a02      	subs	r2, #2
    154e:	8881      	ldrh	r1, [r0, #4]
    1550:	0436      	lsls	r6, r6, #16
    1552:	e001      	b.n	1558 <hflashstoreemulation_gefunden+0x12>
    1554:	8881      	ldrh	r1, [r0, #4]
    1556:	0409      	lsls	r1, r1, #16
    1558:	430e      	orrs	r6, r1
    155a:	f847 6d04 	str.w	r6, [r7, #-4]!
    155e:	0016      	movs	r6, r2
    1560:	2100      	movs	r1, #0
    1562:	8001      	strh	r1, [r0, #0]
    1564:	8041      	strh	r1, [r0, #2]
    1566:	8081      	strh	r1, [r0, #4]
    1568:	f7ff fe44 	bl	11f4 <Code_223>
    156c:	bd30      	pop	{r4, r5, pc}
    156e:	83300000 	teqhi	r0, #0
    1572:	158a1fff 	strne	r1, [sl, #4095]	; 0xfff

00001574 <Dictionary_250>:
    1574:	0000158a 	andeq	r1, r0, sl, lsl #11
    1578:	2b010069 	blcs	41724 <BIT18+0x1724>

0000157c <Code_250>:
    157c:	cf01      	ldmia	r7!, {r0}
    157e:	1836      	adds	r6, r6, r0
    1580:	4770      	bx	lr
    1582:	1836      	adds	r6, r6, r0
    1584:	3600      	adds	r6, #0
    1586:	f1160600 			; <UNDEFINED> instruction: 0xf1160600

0000158a <Dictionary_251>:
    158a:	000015a0 	andeq	r1, r0, r0, lsr #11
    158e:	2d010069 	stccs	0, cr0, [r1, #-420]	; 0xfffffe5c

00001592 <Code_251>:
    1592:	cf01      	ldmia	r7!, {r0}
    1594:	1b86      	subs	r6, r0, r6
    1596:	4770      	bx	lr
    1598:	1a36      	subs	r6, r6, r0
    159a:	3e00      	subs	r6, #0
    159c:	f1b60600 			; <UNDEFINED> instruction: 0xf1b60600

000015a0 <Dictionary_252>:
    15a0:	000015ae 	andeq	r1, r0, lr, lsr #11
    15a4:	31020061 	tstcc	r2, r1, rrx
    15a8:	3e01002d 	cdpcc	0, 0, cr0, cr1, cr13, {1}

000015aa <Code_252>:
    15aa:	3e01      	subs	r6, #1
    15ac:	4770      	bx	lr

000015ae <Dictionary_253>:
    15ae:	000015bc 			; <UNDEFINED> instruction: 0x000015bc
    15b2:	31020061 	tstcc	r2, r1, rrx
    15b6:	3601002b 	strcc	r0, [r1], -fp, lsr #32

000015b8 <Code_253>:
    15b8:	3601      	adds	r6, #1
    15ba:	4770      	bx	lr

000015bc <Dictionary_254>:
    15bc:	000015ca 	andeq	r1, r0, sl, asr #11
    15c0:	32020061 	andcc	r0, r2, #97	; 0x61
    15c4:	3e02002d 	cdpcc	0, 0, cr0, cr2, cr13, {1}

000015c6 <Code_254>:
    15c6:	3e02      	subs	r6, #2
    15c8:	4770      	bx	lr

000015ca <Dictionary_255>:
    15ca:	000015d8 	ldrdeq	r1, [r0], -r8
    15ce:	32020061 	andcc	r0, r2, #97	; 0x61
    15d2:	3602002b 	strcc	r0, [r2], -fp, lsr #32

000015d4 <Code_255>:
    15d4:	3602      	adds	r6, #2
    15d6:	4770      	bx	lr

000015d8 <Dictionary_256>:
    15d8:	000015ea 	andeq	r1, r0, sl, ror #11
    15dc:	6e060061 	cdpvs	0, 0, cr0, cr6, cr1, {3}
    15e0:	74616765 	strbtvc	r6, [r1], #-1893	; 0x765
    15e4:	42760065 	rsbsmi	r0, r6, #101	; 0x65

000015e6 <Code_256>:
    15e6:	4276      	negs	r6, r6
    15e8:	4770      	bx	lr

000015ea <Dictionary_257>:
    15ea:	000015fc 	strdeq	r1, [r0], -ip
    15ee:	61030061 	tstvs	r3, r1, rrx
    15f2:	17f07362 	ldrbne	r7, [r0, r2, ror #6]!

000015f4 <Code_257>:
    15f4:	17f0      	asrs	r0, r6, #31
    15f6:	1836      	adds	r6, r6, r0
    15f8:	4046      	eors	r6, r0
    15fa:	4770      	bx	lr

000015fc <Dictionary_258>:
    15fc:	0000161a 	andeq	r1, r0, sl, lsl r6
    1600:	75050042 	strvc	r0, [r5, #-66]	; 0x42
    1604:	646f6d2f 	strbtvs	r6, [pc], #-3375	; 160c <Code_258+0x4>

00001608 <Code_258>:
    1608:	cf01      	ldmia	r7!, {r0}
    160a:	0031      	movs	r1, r6
    160c:	fbb0 f6f6 	udiv	r6, r0, r6
    1610:	4371      	muls	r1, r6
    1612:	1a40      	subs	r0, r0, r1
    1614:	3f04      	subs	r7, #4
    1616:	6038      	str	r0, [r7, #0]
    1618:	4770      	bx	lr

0000161a <Dictionary_259>:
    161a:	00001638 	andeq	r1, r0, r8, lsr r6
    161e:	2f040042 	svccs	0x00040042
    1622:	00646f6d 	rsbeq	r6, r4, sp, ror #30

00001626 <Code_259>:
    1626:	cf01      	ldmia	r7!, {r0}
    1628:	0031      	movs	r1, r6
    162a:	fb90 f6f6 	sdiv	r6, r0, r6
    162e:	4371      	muls	r1, r6
    1630:	1a40      	subs	r0, r0, r1
    1632:	3f04      	subs	r7, #4
    1634:	6038      	str	r0, [r7, #0]
    1636:	4770      	bx	lr

00001638 <Dictionary_260>:
    1638:	0000164c 	andeq	r1, r0, ip, asr #12
    163c:	6d030042 	stcvs	0, cr0, [r3, #-264]	; 0xfffffef8
    1640:	b500646f 	strlt	r6, [r0, #-1135]	; 0x46f

00001642 <Code_260>:
    1642:	b500      	push	{lr}
    1644:	f7ff ffef 	bl	1626 <Code_259>
    1648:	cf40      	ldmia	r7!, {r6}
    164a:	bd00      	pop	{pc}

0000164c <Dictionary_262>:
    164c:	0000165c 	andeq	r1, r0, ip, asr r6
    1650:	2f010062 	svccs	0x00010062

00001654 <Code_262>:
    1654:	cf01      	ldmia	r7!, {r0}
    1656:	fb90 f6f6 	sdiv	r6, r0, r6
    165a:	4770      	bx	lr

0000165c <Dictionary_263>:
    165c:	0000166c 	andeq	r1, r0, ip, ror #12
    1660:	2a01006a 	bcs	41810 <BIT18+0x1810>

00001664 <Code_263>:
    1664:	cf01      	ldmia	r7!, {r0}
    1666:	4346      	muls	r6, r0
    1668:	4770      	bx	lr
    166a:	4346      	muls	r6, r0

0000166c <Dictionary_264>:
    166c:	0000167a 	andeq	r1, r0, sl, ror r6
    1670:	32020061 	andcc	r0, r2, #97	; 0x61
    1674:	0076002a 	rsbseq	r0, r6, sl, lsr #32

00001676 <Code_264>:
    1676:	0076      	lsls	r6, r6, #1
    1678:	4770      	bx	lr

0000167a <Dictionary_265>:
    167a:	00001688 	andeq	r1, r0, r8, lsl #13
    167e:	32020061 	andcc	r0, r2, #97	; 0x61
    1682:	1076002f 	rsbsne	r0, r6, pc, lsr #32

00001684 <Code_265>:
    1684:	1076      	asrs	r6, r6, #1
    1686:	4770      	bx	lr

00001688 <Dictionary_266>:
    1688:	0000169c 	muleq	r0, ip, r6
    168c:	65040061 	strvs	r0, [r4, #-97]	; 0x61
    1690:	006e6576 	rsbeq	r6, lr, r6, ror r5

00001694 <Code_266>:
    1694:	2001      	movs	r0, #1
    1696:	4030      	ands	r0, r6
    1698:	1836      	adds	r6, r6, r0
    169a:	4770      	bx	lr

0000169c <Dictionary_267>:
    169c:	000016b4 			; <UNDEFINED> instruction: 0x000016b4
    16a0:	62040081 	andvs	r0, r4, #129	; 0x81
    16a4:	00657361 	rsbeq	r7, r5, r1, ror #6

000016a8 <Code_267>:
    16a8:	f847 6d04 	str.w	r6, [r7, #-4]!
    16ac:	4e94      	ldr	r6, [pc, #592]	; (1900 <Code_302+0x1c>)
    16ae:	4770      	bx	lr
    16b0:	0000000a 	andeq	r0, r0, sl

000016b4 <Dictionary_270>:
    16b4:	000016ca 	andeq	r1, r0, sl, asr #13
    16b8:	62060000 	andvs	r0, r6, #0
    16bc:	72616e69 	rsbvc	r6, r1, #1680	; 0x690
    16c0:	488f0079 	stmmi	pc, {r0, r3, r4, r5, r6}	; <UNPREDICTABLE>

000016c2 <Code_270>:
    16c2:	488f      	ldr	r0, [pc, #572]	; (1900 <Code_302+0x1c>)
    16c4:	2102      	movs	r1, #2
    16c6:	6001      	str	r1, [r0, #0]
    16c8:	4770      	bx	lr

000016ca <Dictionary_271>:
    16ca:	000016e0 	andeq	r1, r0, r0, ror #13
    16ce:	64070000 	strvs	r0, [r7]
    16d2:	6d696365 	stclvs	3, cr6, [r9, #-404]!	; 0xfffffe6c
    16d6:	48896c61 	stmmi	r9, {r0, r5, r6, sl, fp, sp, lr}

000016d8 <Code_271>:
    16d8:	4889      	ldr	r0, [pc, #548]	; (1900 <Code_302+0x1c>)
    16da:	210a      	movs	r1, #10
    16dc:	6001      	str	r1, [r0, #0]
    16de:	4770      	bx	lr

000016e0 <Dictionary_272>:
    16e0:	0000175c 	andeq	r1, r0, ip, asr r7
    16e4:	68030000 	stmdavs	r3, {}	; <UNPREDICTABLE>
    16e8:	48857865 	stmmi	r5, {r0, r2, r5, r6, fp, ip, sp, lr}

000016ea <Code_272>:
    16ea:	4885      	ldr	r0, [pc, #532]	; (1900 <Code_302+0x1c>)
    16ec:	2110      	movs	r1, #16
    16ee:	6001      	str	r1, [r0, #0]
    16f0:	4770      	bx	lr

000016f2 <uart_init>:
    16f2:	4984      	ldr	r1, [pc, #528]	; (1904 <Code_302+0x20>)
    16f4:	4884      	ldr	r0, [pc, #528]	; (1908 <Code_302+0x24>)
    16f6:	6001      	str	r1, [r0, #0]
    16f8:	4984      	ldr	r1, [pc, #528]	; (190c <Code_302+0x28>)
    16fa:	4885      	ldr	r0, [pc, #532]	; (1910 <Code_302+0x2c>)
    16fc:	6001      	str	r1, [r0, #0]
    16fe:	4985      	ldr	r1, [pc, #532]	; (1914 <Code_302+0x30>)
    1700:	4885      	ldr	r0, [pc, #532]	; (1918 <Code_302+0x34>)
    1702:	6001      	str	r1, [r0, #0]
    1704:	4985      	ldr	r1, [pc, #532]	; (191c <Code_302+0x38>)
    1706:	4886      	ldr	r0, [pc, #536]	; (1920 <Code_302+0x3c>)
    1708:	6401      	str	r1, [r0, #64]	; 0x40
    170a:	6441      	str	r1, [r0, #68]	; 0x44
    170c:	6081      	str	r1, [r0, #8]
    170e:	60c1      	str	r1, [r0, #12]
    1710:	2100      	movs	r1, #0
    1712:	4884      	ldr	r0, [pc, #528]	; (1924 <Code_302+0x40>)
    1714:	7001      	strb	r1, [r0, #0]
    1716:	4884      	ldr	r0, [pc, #528]	; (1928 <Code_302+0x44>)
    1718:	7001      	strb	r1, [r0, #0]
    171a:	4884      	ldr	r0, [pc, #528]	; (192c <Code_302+0x48>)
    171c:	7001      	strb	r1, [r0, #0]
    171e:	4884      	ldr	r0, [pc, #528]	; (1930 <Code_302+0x4c>)
    1720:	7001      	strb	r1, [r0, #0]
    1722:	210c      	movs	r1, #12
    1724:	4883      	ldr	r0, [pc, #524]	; (1934 <Code_302+0x50>)
    1726:	7001      	strb	r1, [r0, #0]
    1728:	2100      	movs	r1, #0
    172a:	4883      	ldr	r0, [pc, #524]	; (1938 <Code_302+0x54>)
    172c:	7001      	strb	r1, [r0, #0]
    172e:	210b      	movs	r1, #11
    1730:	4882      	ldr	r0, [pc, #520]	; (193c <Code_302+0x58>)
    1732:	7001      	strb	r1, [r0, #0]
    1734:	21c0      	movs	r1, #192	; 0xc0
    1736:	4882      	ldr	r0, [pc, #520]	; (1940 <Code_302+0x5c>)
    1738:	7001      	strb	r1, [r0, #0]
    173a:	2188      	movs	r1, #136	; 0x88
    173c:	4881      	ldr	r0, [pc, #516]	; (1944 <Code_302+0x60>)
    173e:	4301      	orrs	r1, r0
    1740:	7001      	strb	r1, [r0, #0]
    1742:	21c0      	movs	r1, #192	; 0xc0
    1744:	487e      	ldr	r0, [pc, #504]	; (1940 <Code_302+0x5c>)
    1746:	7001      	strb	r1, [r0, #0]
    1748:	487f      	ldr	r0, [pc, #508]	; (1948 <Code_302+0x64>)
    174a:	2101      	movs	r1, #1
    174c:	7001      	strb	r1, [r0, #0]
    174e:	487f      	ldr	r0, [pc, #508]	; (194c <Code_302+0x68>)
    1750:	2108      	movs	r1, #8
    1752:	7001      	strb	r1, [r0, #0]
    1754:	210c      	movs	r1, #12
    1756:	4873      	ldr	r0, [pc, #460]	; (1924 <Code_302+0x40>)
    1758:	7001      	strb	r1, [r0, #0]
    175a:	4770      	bx	lr

0000175c <Dictionary_273>:
    175c:	00001778 	andeq	r1, r0, r8, ror r7
    1760:	68090081 	stmdavs	r9, {r0, r7}
    1764:	2d6b6f6f 	stclcs	15, cr6, [fp, #-444]!	; 0xfffffe44
    1768:	74696d65 	strbtvc	r6, [r9], #-3429	; 0xd65

0000176c <Code_273>:
    176c:	f847 6d04 	str.w	r6, [r7, #-4]!
    1770:	4e77      	ldr	r6, [pc, #476]	; (1950 <Code_302+0x6c>)
    1772:	4770      	bx	lr
    1774:	00001862 	andeq	r1, r0, r2, ror #16

00001778 <Dictionary_276>:
    1778:	00001794 	muleq	r0, r4, r7
    177c:	68080081 	stmdavs	r8, {r0, r7}
    1780:	2d6b6f6f 	stclcs	15, cr6, [fp, #-444]!	; 0xfffffe44
    1784:	0079656b 	rsbseq	r6, r9, fp, ror #10

00001788 <Code_276>:
    1788:	f847 6d04 	str.w	r6, [r7, #-4]!
    178c:	4e71      	ldr	r6, [pc, #452]	; (1954 <Code_302+0x70>)
    178e:	4770      	bx	lr
    1790:	00001888 	andeq	r1, r0, r8, lsl #17

00001794 <Dictionary_279>:
    1794:	000017b2 			; <UNDEFINED> instruction: 0x000017b2
    1798:	680a0081 	stmdavs	sl, {r0, r7}
    179c:	2d6b6f6f 	stclcs	15, cr6, [fp, #-444]!	; 0xfffffe44
    17a0:	74696d65 	strbtvc	r6, [r9], #-3429	; 0xd65
    17a4:	f847003f 			; <UNDEFINED> instruction: 0xf847003f

000017a6 <Code_279>:
    17a6:	f847 6d04 	str.w	r6, [r7, #-4]!
    17aa:	4e6b      	ldr	r6, [pc, #428]	; (1958 <Code_302+0x74>)
    17ac:	4770      	bx	lr
    17ae:	000018b8 			; <UNDEFINED> instruction: 0x000018b8

000017b2 <Dictionary_282>:
    17b2:	000017ce 	andeq	r1, r0, lr, asr #15
    17b6:	68090081 	stmdavs	r9, {r0, r7}
    17ba:	2d6b6f6f 	stclcs	15, cr6, [fp, #-444]!	; 0xfffffe44
    17be:	3f79656b 	svccc	0x0079656b

000017c2 <Code_282>:
    17c2:	f847 6d04 	str.w	r6, [r7, #-4]!
    17c6:	4e65      	ldr	r6, [pc, #404]	; (195c <Code_302+0x78>)
    17c8:	4770      	bx	lr
    17ca:	000018e4 	andeq	r1, r0, r4, ror #17

000017ce <Dictionary_285>:
    17ce:	000017ec 	andeq	r1, r0, ip, ror #15
    17d2:	680a0081 	stmdavs	sl, {r0, r7}
    17d6:	2d6b6f6f 	stclcs	15, cr6, [fp, #-444]!	; 0xfffffe44
    17da:	73756170 	cmnvc	r5, #28
    17de:	f8470065 			; <UNDEFINED> instruction: 0xf8470065

000017e0 <Code_285>:
    17e0:	f847 6d04 	str.w	r6, [r7, #-4]!
    17e4:	4e5e      	ldr	r6, [pc, #376]	; (1960 <Code_302+0x7c>)
    17e6:	4770      	bx	lr
    17e8:	00003a02 	andeq	r3, r0, r2, lsl #20

000017ec <Dictionary_288>:
    17ec:	00001802 	andeq	r1, r0, r2, lsl #16
    17f0:	65040000 	strvs	r0, [r4]
    17f4:	0074696d 	rsbseq	r6, r4, sp, ror #18

000017f8 <Code_288>:
    17f8:	b50f      	push	{r0, r1, r2, r3, lr}
    17fa:	4855      	ldr	r0, [pc, #340]	; (1950 <Code_302+0x6c>)
    17fc:	f000 f826 	bl	184c <hook_intern>
    1800:	bd0f      	pop	{r0, r1, r2, r3, pc}

00001802 <Dictionary_289>:
    1802:	00001816 	andeq	r1, r0, r6, lsl r8
    1806:	6b030000 	blvs	c180e <BIT19+0x4180e>
    180a:	b50f7965 	strlt	r7, [pc, #-2405]	; ead <Code_181+0x2d>

0000180c <Code_289>:
    180c:	b50f      	push	{r0, r1, r2, r3, lr}
    180e:	4851      	ldr	r0, [pc, #324]	; (1954 <Code_302+0x70>)
    1810:	f000 f81c 	bl	184c <hook_intern>
    1814:	bd0f      	pop	{r0, r1, r2, r3, pc}

00001816 <Dictionary_290>:
    1816:	00001828 	andeq	r1, r0, r8, lsr #16
    181a:	65050000 	strvs	r0, [r5]
    181e:	3f74696d 	svccc	0x0074696d

00001822 <Code_290>:
    1822:	484d      	ldr	r0, [pc, #308]	; (1958 <Code_302+0x74>)
    1824:	6800      	ldr	r0, [r0, #0]
    1826:	4687      	mov	pc, r0

00001828 <Dictionary_291>:
    1828:	0000183a 	andeq	r1, r0, sl, lsr r8
    182c:	6b040000 	blvs	101834 <BIT20+0x1834>
    1830:	003f7965 	eorseq	r7, pc, r5, ror #18

00001834 <Code_291>:
    1834:	4849      	ldr	r0, [pc, #292]	; (195c <Code_302+0x78>)
    1836:	6800      	ldr	r0, [r0, #0]
    1838:	4687      	mov	pc, r0

0000183a <Dictionary_292>:
    183a:	00001850 	andeq	r1, r0, r0, asr r8
    183e:	70050000 	andvc	r0, r5, r0
    1842:	65737561 	ldrbvs	r7, [r3, #-1377]!	; 0x561

00001846 <Code_292>:
    1846:	4846      	ldr	r0, [pc, #280]	; (1960 <Code_302+0x7c>)
    1848:	6800      	ldr	r0, [r0, #0]
    184a:	4687      	mov	pc, r0

0000184c <hook_intern>:
    184c:	6800      	ldr	r0, [r0, #0]
    184e:	4687      	mov	pc, r0

00001850 <Dictionary_293>:
    1850:	00001876 	andeq	r1, r0, r6, ror r8
    1854:	730b0000 	movwvc	r0, #45056	; 0xb000
    1858:	61697265 	cmnvs	r9, r5, ror #4
    185c:	6d652d6c 	stclvs	13, cr2, [r5, #-432]!	; 0xfffffe50
    1860:	b5007469 	strlt	r7, [r0, #-1129]	; 0x469

00001862 <Code_293>:
    1862:	b500      	push	{lr}
    1864:	f000 f828 	bl	18b8 <Code_299>
    1868:	2e00      	cmp	r6, #0
    186a:	cf40      	ldmia	r7!, {r6}
    186c:	d0fa      	beq.n	1864 <Code_293+0x2>
    186e:	483d      	ldr	r0, [pc, #244]	; (1964 <Code_302+0x80>)
    1870:	7006      	strb	r6, [r0, #0]
    1872:	cf40      	ldmia	r7!, {r6}
    1874:	bd00      	pop	{pc}

00001876 <Dictionary_296>:
    1876:	000018a4 	andeq	r1, r0, r4, lsr #17
    187a:	730a0000 	movwvc	r0, #40960	; 0xa000
    187e:	61697265 	cmnvs	r9, r5, ror #4
    1882:	656b2d6c 	strbvs	r2, [fp, #-3436]!	; 0xd6c
    1886:	b5000079 	strlt	r0, [r0, #-121]	; 0x79

00001888 <Code_296>:
    1888:	b500      	push	{lr}
    188a:	f000 f82b 	bl	18e4 <Code_302>
    188e:	2e00      	cmp	r6, #0
    1890:	cf40      	ldmia	r7!, {r6}
    1892:	d0fa      	beq.n	188a <Code_296+0x2>
    1894:	4834      	ldr	r0, [pc, #208]	; (1968 <Code_302+0x84>)
    1896:	7800      	ldrb	r0, [r0, #0]
    1898:	4832      	ldr	r0, [pc, #200]	; (1964 <Code_302+0x80>)
    189a:	f847 6d04 	str.w	r6, [r7, #-4]!
    189e:	7806      	ldrb	r6, [r0, #0]
    18a0:	b2f6      	uxtb	r6, r6
    18a2:	bd00      	pop	{pc}

000018a4 <Dictionary_299>:
    18a4:	000018d2 	ldrdeq	r1, [r0], -r2
    18a8:	730c0000 	movwvc	r0, #49152	; 0xc000
    18ac:	61697265 	cmnvs	r9, r5, ror #4
    18b0:	6d652d6c 	stclvs	13, cr2, [r5, #-432]!	; 0xfffffe50
    18b4:	003f7469 	eorseq	r7, pc, r9, ror #8

000018b8 <Code_299>:
    18b8:	b500      	push	{lr}
    18ba:	f7ff ffc4 	bl	1846 <Code_292>
    18be:	f847 6d04 	str.w	r6, [r7, #-4]!
    18c2:	2600      	movs	r6, #0
    18c4:	4828      	ldr	r0, [pc, #160]	; (1968 <Code_302+0x84>)
    18c6:	2280      	movs	r2, #128	; 0x80
    18c8:	7801      	ldrb	r1, [r0, #0]
    18ca:	4011      	ands	r1, r2
    18cc:	d000      	beq.n	18d0 <Code_299+0x18>
    18ce:	43f6      	mvns	r6, r6
    18d0:	bd00      	pop	{pc}

000018d2 <Dictionary_302>:
    18d2:	00001970 	andeq	r1, r0, r0, ror r9
    18d6:	730b0000 	movwvc	r0, #45056	; 0xb000
    18da:	61697265 	cmnvs	r9, r5, ror #4
    18de:	656b2d6c 	strbvs	r2, [fp, #-3436]!	; 0xd6c
    18e2:	b5003f79 	strlt	r3, [r0, #-3961]	; 0xf79

000018e4 <Code_302>:
    18e4:	b500      	push	{lr}
    18e6:	f7ff ffae 	bl	1846 <Code_292>
    18ea:	f847 6d04 	str.w	r6, [r7, #-4]!
    18ee:	2600      	movs	r6, #0
    18f0:	481e      	ldr	r0, [pc, #120]	; (196c <Code_302+0x88>)
    18f2:	2240      	movs	r2, #64	; 0x40
    18f4:	7801      	ldrb	r1, [r0, #0]
    18f6:	4011      	ands	r1, r2
    18f8:	d100      	bne.n	18fc <Code_302+0x18>
    18fa:	43f6      	mvns	r6, r6
    18fc:	bd00      	pop	{pc}
    18fe:	7ffc0000 	svcvc	0x00fc0000
    1902:	3e002000 	cdpcc	0, 0, cr2, cr0, cr0, {0}
    1906:	80380000 	eorshi	r0, r8, r0
    190a:	04004004 	streq	r4, [r0], #-4
    190e:	80340000 	eorshi	r0, r4, r0
    1912:	00004004 	andeq	r4, r0, r4
    1916:	80100000 	andshi	r0, r0, r0
    191a:	03004004 	movweq	r4, #4
    191e:	a0000000 	andge	r0, r0, r0
    1922:	a0034004 	andge	r4, r3, r4
    1926:	a0024006 	andge	r4, r2, r6
    192a:	a0064006 	andge	r4, r6, r6
    192e:	a0054006 	andge	r4, r5, r6
    1932:	a00a4006 	andge	r4, sl, r6
    1936:	a0004006 	andge	r4, r0, r6
    193a:	a0014006 	andge	r4, r1, r6
    193e:	a0114006 	andsge	r4, r1, r6
    1942:	a0104006 	andsge	r4, r0, r6
    1946:	a0154006 	andsge	r4, r5, r6
    194a:	a00d4006 	andge	r4, sp, r6
    194e:	7ff84006 	svcvc	0x00f84006
    1952:	7ff42000 	svcvc	0x00f42000
    1956:	7ff02000 	svcvc	0x00f02000
    195a:	7fec2000 	svcvc	0x00ec2000
    195e:	7fe82000 	svcvc	0x00e82000
    1962:	a0072000 	andge	r2, r7, r0
    1966:	a0044006 	andge	r4, r4, r6
    196a:	a0124006 	andsge	r4, r2, r6
    196e:	19944006 	ldmibne	r4, {r1, r2, lr}

00001970 <Dictionary_305>:
    1970:	00001994 	muleq	r0, r4, r9
    1974:	63070000 	movwvs	r0, #28672	; 0x7000
    1978:	65707865 	ldrbvs	r7, [r0, #-2149]!	; 0x865
    197c:	b5007463 	strlt	r7, [r0, #-1123]	; 0x463

0000197e <Code_305>:
    197e:	b500      	push	{lr}
    1980:	6838      	ldr	r0, [r7, #0]
    1982:	b401      	push	{r0}
    1984:	3001      	adds	r0, #1
    1986:	6038      	str	r0, [r7, #0]
    1988:	f000 f80b 	bl	19a2 <Code_307>
    198c:	bc01      	pop	{r0}
    198e:	7006      	strb	r6, [r0, #0]
    1990:	cf40      	ldmia	r7!, {r6}
    1992:	bd00      	pop	{pc}

00001994 <Dictionary_307>:
    1994:	00001a0a 	andeq	r1, r0, sl, lsl #20
    1998:	61060000 	mrsvs	r0, (UNDEF: 6)
    199c:	70656363 	rsbvc	r6, r5, r3, ror #6
    19a0:	b5000074 	strlt	r0, [r0, #-116]	; 0x74

000019a2 <Code_307>:
    19a2:	b500      	push	{lr}
    19a4:	cf02      	ldmia	r7!, {r1}
    19a6:	3901      	subs	r1, #1
    19a8:	2200      	movs	r2, #0
    19aa:	f7ff ff2f 	bl	180c <Code_289>
    19ae:	0030      	movs	r0, r6
    19b0:	cf40      	ldmia	r7!, {r6}
    19b2:	287f      	cmp	r0, #127	; 0x7f
    19b4:	d009      	beq.n	19ca <Code_307+0x28>
    19b6:	2820      	cmp	r0, #32
    19b8:	d219      	bcs.n	19ee <Code_307+0x4c>
    19ba:	2809      	cmp	r0, #9
    19bc:	d016      	beq.n	19ec <Code_307+0x4a>
    19be:	280a      	cmp	r0, #10
    19c0:	d01f      	beq.n	1a02 <Code_307+0x60>
    19c2:	280d      	cmp	r0, #13
    19c4:	d01d      	beq.n	1a02 <Code_307+0x60>
    19c6:	2808      	cmp	r0, #8
    19c8:	d1ef      	bne.n	19aa <Code_307+0x8>
    19ca:	2a00      	cmp	r2, #0
    19cc:	d0ed      	beq.n	19aa <Code_307+0x8>
    19ce:	f000 f90e 	bl	1bee <dotgaensefuesschen>
    19d2:	08200803 	stmdaeq	r0!, {r0, r1, fp}
    19d6:	2a00      	cmp	r2, #0
    19d8:	d0e7      	beq.n	19aa <Code_307+0x8>
    19da:	5c88      	ldrb	r0, [r1, r2]
    19dc:	3a01      	subs	r2, #1
    19de:	2380      	movs	r3, #128	; 0x80
    19e0:	4003      	ands	r3, r0
    19e2:	d0e2      	beq.n	19aa <Code_307+0x8>
    19e4:	2340      	movs	r3, #64	; 0x40
    19e6:	4003      	ands	r3, r0
    19e8:	d0f5      	beq.n	19d6 <Code_307+0x34>
    19ea:	e7de      	b.n	19aa <Code_307+0x8>
    19ec:	2020      	movs	r0, #32
    19ee:	42b2      	cmp	r2, r6
    19f0:	d2db      	bcs.n	19aa <Code_307+0x8>
    19f2:	f847 6d04 	str.w	r6, [r7, #-4]!
    19f6:	0006      	movs	r6, r0
    19f8:	f7ff fefe 	bl	17f8 <Code_288>
    19fc:	3201      	adds	r2, #1
    19fe:	5488      	strb	r0, [r1, r2]
    1a00:	e7d3      	b.n	19aa <Code_307+0x8>
    1a02:	0016      	movs	r6, r2
    1a04:	f000 f8a2 	bl	1b4c <Code_338>
    1a08:	bd00      	pop	{pc}

00001a0a <Dictionary_311>:
    1a0a:	00001a1c 	andeq	r1, r0, ip, lsl sl
    1a0e:	74030040 	strvc	r0, [r3], #-64	; 0x40
    1a12:	f8476269 			; <UNDEFINED> instruction: 0xf8476269

00001a14 <Code_311>:
    1a14:	f847 6d04 	str.w	r6, [r7, #-4]!
    1a18:	4e29      	ldr	r6, [pc, #164]	; (1ac0 <Code_323+0x22>)
    1a1a:	4770      	bx	lr

00001a1c <Dictionary_313>:
    1a1c:	00001a32 	andeq	r1, r0, r2, lsr sl
    1a20:	3e030081 	cdpcc	0, 0, cr0, cr3, cr1, {4}
    1a24:	f8476e69 			; <UNDEFINED> instruction: 0xf8476e69

00001a26 <Code_313>:
    1a26:	f847 6d04 	str.w	r6, [r7, #-4]!
    1a2a:	4e26      	ldr	r6, [pc, #152]	; (1ac4 <Code_323+0x26>)
    1a2c:	4770      	bx	lr
    1a2e:	00000000 	andeq	r0, r0, r0

00001a32 <Dictionary_316>:
    1a32:	00001a58 	andeq	r1, r0, r8, asr sl
    1a36:	630e0082 	movwvs	r0, #57474	; 0xe082
    1a3a:	65727275 	ldrbvs	r7, [r2, #-629]!	; 0x275
    1a3e:	732d746e 	teqvc	sp, #1845493760	; 0x6e000000
    1a42:	6372756f 	cmnvs	r2, #465567744	; 0x1bc00000
    1a46:	f8470065 			; <UNDEFINED> instruction: 0xf8470065

00001a48 <Code_316>:
    1a48:	f847 6d04 	str.w	r6, [r7, #-4]!
    1a4c:	4e1e      	ldr	r6, [pc, #120]	; (1ac8 <Code_323+0x2a>)
    1a4e:	4770      	bx	lr
    1a50:	00000000 	andeq	r0, r0, r0
    1a54:	1fff8068 	svcne	0x00ff8068

00001a58 <Dictionary_319>:
    1a58:	00001a74 	andeq	r1, r0, r4, ror sl
    1a5c:	73090000 	movwvc	r0, #36864	; 0x9000
    1a60:	6f737465 	svcvs	0x00737465
    1a64:	65637275 	strbvs	r7, [r3, #-629]!	; 0x275

00001a68 <Code_319>:
    1a68:	4817      	ldr	r0, [pc, #92]	; (1ac8 <Code_323+0x2a>)
    1a6a:	cf02      	ldmia	r7!, {r1}
    1a6c:	6006      	str	r6, [r0, #0]
    1a6e:	6041      	str	r1, [r0, #4]
    1a70:	cf40      	ldmia	r7!, {r6}
    1a72:	4770      	bx	lr

00001a74 <Dictionary_321>:
    1a74:	00001a92 	muleq	r0, r2, sl
    1a78:	73060000 	movwvc	r0, #24576	; 0x6000
    1a7c:	6372756f 	cmnvs	r2, #465567744	; 0x1bc00000
    1a80:	f8470065 			; <UNDEFINED> instruction: 0xf8470065

00001a82 <Code_321>:
    1a82:	f847 6d04 	str.w	r6, [r7, #-4]!
    1a86:	4e10      	ldr	r6, [pc, #64]	; (1ac8 <Code_323+0x2a>)
    1a88:	3f04      	subs	r7, #4
    1a8a:	6870      	ldr	r0, [r6, #4]
    1a8c:	6038      	str	r0, [r7, #0]
    1a8e:	6836      	ldr	r6, [r6, #0]
    1a90:	4770      	bx	lr

00001a92 <Dictionary_323>:
    1a92:	00001acc 	andeq	r1, r0, ip, asr #21
    1a96:	71050000 	mrsvc	r0, (UNDEF: 5)
    1a9a:	79726575 	ldmdbvc	r2!, {r0, r2, r4, r5, r6, r8, sl, sp, lr}^

00001a9e <Code_323>:
    1a9e:	b50f      	push	{r0, r1, r2, r3, lr}
    1aa0:	4808      	ldr	r0, [pc, #32]	; (1ac4 <Code_323+0x26>)
    1aa2:	2100      	movs	r1, #0
    1aa4:	6001      	str	r1, [r0, #0]
    1aa6:	f7ff ffb5 	bl	1a14 <Code_311>
    1aaa:	f847 6d04 	str.w	r6, [r7, #-4]!
    1aae:	f847 6d04 	str.w	r6, [r7, #-4]!
    1ab2:	26c8      	movs	r6, #200	; 0xc8
    1ab4:	f7ff ff75 	bl	19a2 <Code_307>
    1ab8:	f7ff ffd6 	bl	1a68 <Code_319>
    1abc:	bd0f      	pop	{r0, r1, r2, r3, pc}
    1abe:	80680000 	rsbhi	r0, r8, r0
    1ac2:	7fe41fff 	svcvc	0x00e41fff
    1ac6:	7fdc2000 	svcvc	0x00dc2000
    1aca:	1b1a2000 	blne	689ad2 <BIT22+0x289ad2>

00001acc <Dictionary_328>:
    1acc:	00001b1a 	andeq	r1, r0, sl, lsl fp
    1ad0:	63070000 	movwvs	r0, #28672	; 0x7000
    1ad4:	61706d6f 	cmnvs	r0, pc, ror #26
    1ad8:	b50f6572 	strlt	r6, [pc, #-1394]	; 156e <hflashstoreemulation_gefunden+0x28>

00001ada <Code_328>:
    1ada:	b50f      	push	{r0, r1, r2, r3, lr}
    1adc:	0031      	movs	r1, r6
    1ade:	cf40      	ldmia	r7!, {r6}
    1ae0:	cf01      	ldmia	r7!, {r0}
    1ae2:	4288      	cmp	r0, r1
    1ae4:	d002      	beq.n	1aec <Code_328+0x12>
    1ae6:	cf40      	ldmia	r7!, {r6}
    1ae8:	2600      	movs	r6, #0
    1aea:	bd0f      	pop	{r0, r1, r2, r3, pc}
    1aec:	cf02      	ldmia	r7!, {r1}
    1aee:	2800      	cmp	r0, #0
    1af0:	d010      	beq.n	1b14 <Code_328+0x3a>
    1af2:	3801      	subs	r0, #1
    1af4:	5c0a      	ldrb	r2, [r1, r0]
    1af6:	5c33      	ldrb	r3, [r6, r0]
    1af8:	2a41      	cmp	r2, #65	; 0x41
    1afa:	d302      	bcc.n	1b02 <Code_328+0x28>
    1afc:	2a5b      	cmp	r2, #91	; 0x5b
    1afe:	bf38      	it	cc
    1b00:	3220      	addcc	r2, #32
    1b02:	2b41      	cmp	r3, #65	; 0x41
    1b04:	d302      	bcc.n	1b0c <Code_328+0x32>
    1b06:	2b5b      	cmp	r3, #91	; 0x5b
    1b08:	bf38      	it	cc
    1b0a:	3320      	addcc	r3, #32
    1b0c:	429a      	cmp	r2, r3
    1b0e:	d0ee      	beq.n	1aee <Code_328+0x14>
    1b10:	2600      	movs	r6, #0
    1b12:	bd0f      	pop	{r0, r1, r2, r3, pc}
    1b14:	2600      	movs	r6, #0
    1b16:	43f6      	mvns	r6, r6
    1b18:	bd0f      	pop	{r0, r1, r2, r3, pc}

00001b1a <Dictionary_333>:
    1b1a:	00001b2e 	andeq	r1, r0, lr, lsr #22
    1b1e:	63020000 	movwvs	r0, #8192	; 0x2000
    1b22:	b5000072 	strlt	r0, [r0, #-114]	; 0x72

00001b24 <Code_333>:
    1b24:	b500      	push	{lr}
    1b26:	f000 f862 	bl	1bee <dotgaensefuesschen>
    1b2a:	bd000a01 	vstrlt	s0, [r0, #-4]

00001b2e <Dictionary_335>:
    1b2e:	00001b40 	andeq	r1, r0, r0, asr #22
    1b32:	62020000 	andvs	r0, r2, #0
    1b36:	f847006c 			; <UNDEFINED> instruction: 0xf847006c

00001b38 <Code_335>:
    1b38:	f847 6d04 	str.w	r6, [r7, #-4]!
    1b3c:	2620      	movs	r6, #32
    1b3e:	4770      	bx	lr

00001b40 <Dictionary_338>:
    1b40:	00001b54 	andeq	r1, r0, r4, asr fp
    1b44:	73050000 	movwvc	r0, #20480	; 0x5000
    1b48:	65636170 	strbvs	r6, [r3, #-368]!	; 0x170

00001b4c <Code_338>:
    1b4c:	f847 6d04 	str.w	r6, [r7, #-4]!
    1b50:	2620      	movs	r6, #32
    1b52:	e651      	b.n	17f8 <Code_288>

00001b54 <Dictionary_341>:
    1b54:	00001b74 	andeq	r1, r0, r4, ror fp
    1b58:	73060000 	movwvc	r0, #24576	; 0x6000
    1b5c:	65636170 	strbvs	r6, [r3, #-368]!	; 0x170
    1b60:	b5000073 	strlt	r0, [r0, #-115]	; 0x73

00001b62 <Code_341>:
    1b62:	b500      	push	{lr}
    1b64:	2e00      	cmp	r6, #0
    1b66:	dd03      	ble.n	1b70 <Code_341+0xe>
    1b68:	f7ff fff0 	bl	1b4c <Code_338>
    1b6c:	3e01      	subs	r6, #1
    1b6e:	d1fb      	bne.n	1b68 <Code_341+0x6>
    1b70:	cf40      	ldmia	r7!, {r6}
    1b72:	bd00      	pop	{pc}

00001b74 <Dictionary_343>:
    1b74:	00001b84 	andeq	r1, r0, r4, lsl #23
    1b78:	5b060050 	blpl	181cc0 <BIT20+0x81cc0>
    1b7c:	72616863 	rsbvc	r6, r1, #6488064	; 0x630000
    1b80:	e005005d 	and	r0, r5, sp, asr r0

00001b82 <Code_343>:
    1b82:	e005      	b.n	1b90 <Code_344>

00001b84 <Dictionary_344>:
    1b84:	00001b9c 	muleq	r0, ip, fp
    1b88:	63040000 	movwvs	r0, #16384	; 0x4000
    1b8c:	00726168 	rsbseq	r6, r2, r8, ror #2

00001b90 <Code_344>:
    1b90:	b500      	push	{lr}
    1b92:	f001 fb49 	bl	3228 <Code_794>
    1b96:	cf40      	ldmia	r7!, {r6}
    1b98:	7836      	ldrb	r6, [r6, #0]
    1b9a:	bd00      	pop	{pc}

00001b9c <Dictionary_346>:
    1b9c:	00001bac 	andeq	r1, r0, ip, lsr #23
    1ba0:	28010050 	stmdacs	r1, {r4, r6}

00001ba4 <Code_346>:
    1ba4:	f847 6d04 	str.w	r6, [r7, #-4]!
    1ba8:	2629      	movs	r6, #41	; 0x29
    1baa:	e006      	b.n	1bba <Code_349+0x6>

00001bac <Dictionary_349>:
    1bac:	00001bc6 	andeq	r1, r0, r6, asr #23
    1bb0:	5c010050 	stcpl	0, cr0, [r1], {80}	; 0x50

00001bb4 <Code_349>:
    1bb4:	f847 6d04 	str.w	r6, [r7, #-4]!
    1bb8:	2600      	movs	r6, #0
    1bba:	b500      	push	{lr}
    1bbc:	f001 fb3e 	bl	323c <Code_796>
    1bc0:	3704      	adds	r7, #4
    1bc2:	cf40      	ldmia	r7!, {r6}
    1bc4:	bd00      	pop	{pc}

00001bc6 <Dictionary_354>:
    1bc6:	00001c0a 	andeq	r1, r0, sl, lsl #24
    1bca:	2e020010 	mcrcs	0, 0, r0, cr2, cr0, {0}
    1bce:	489b0022 	ldmmi	fp, {r1, r5}

00001bd0 <Code_354>:
    1bd0:	489b      	ldr	r0, [pc, #620]	; (1e40 <Code_393+0x94>)
    1bd2:	b500      	push	{lr}
    1bd4:	f847 6d04 	str.w	r6, [r7, #-4]!
    1bd8:	0006      	movs	r6, r0
    1bda:	f000 fa5e 	bl	209a <Code_434>
    1bde:	f847 6d04 	str.w	r6, [r7, #-4]!
    1be2:	2622      	movs	r6, #34	; 0x22
    1be4:	f001 fb2a 	bl	323c <Code_796>
    1be8:	f000 fd55 	bl	2696 <Code_552>
    1bec:	bd00      	pop	{pc}

00001bee <dotgaensefuesschen>:
    1bee:	b40a      	push	{r1, r3}
    1bf0:	f847 6d04 	str.w	r6, [r7, #-4]!
    1bf4:	4676      	mov	r6, lr
    1bf6:	3e01      	subs	r6, #1
    1bf8:	7833      	ldrb	r3, [r6, #0]
    1bfa:	2101      	movs	r1, #1
    1bfc:	3301      	adds	r3, #1
    1bfe:	4019      	ands	r1, r3
    1c00:	185b      	adds	r3, r3, r1
    1c02:	eb1e 0e03 	adds.w	lr, lr, r3
    1c06:	bc0a      	pop	{r1, r3}
    1c08:	e039      	b.n	1c7e <Code_369>

00001c0a <Dictionary_360>:
    1c0a:	00001c30 	andeq	r1, r0, r0, lsr ip
    1c0e:	63020010 	movwvs	r0, #8208	; 0x2010
    1c12:	488b0022 	stmmi	fp, {r1, r5}

00001c14 <Code_360>:
    1c14:	488b      	ldr	r0, [pc, #556]	; (1e44 <Code_393+0x98>)
    1c16:	e7dc      	b.n	1bd2 <Code_354+0x2>

00001c18 <dotcfuesschen>:
    1c18:	f847 6d04 	str.w	r6, [r7, #-4]!
    1c1c:	4676      	mov	r6, lr
    1c1e:	3e01      	subs	r6, #1
    1c20:	7833      	ldrb	r3, [r6, #0]
    1c22:	2101      	movs	r1, #1
    1c24:	3301      	adds	r3, #1
    1c26:	4019      	ands	r1, r3
    1c28:	185b      	adds	r3, r3, r1
    1c2a:	eb1e 0e03 	adds.w	lr, lr, r3
    1c2e:	4770      	bx	lr

00001c30 <Dictionary_362>:
    1c30:	00001c5a 	andeq	r1, r0, sl, asr ip
    1c34:	73020010 	movwvc	r0, #8208	; 0x2010
    1c38:	48830022 	stmmi	r3, {r1, r5}

00001c3a <Code_362>:
    1c3a:	4883      	ldr	r0, [pc, #524]	; (1e48 <Code_393+0x9c>)
    1c3c:	e7c9      	b.n	1bd2 <Code_354+0x2>

00001c3e <dotsfuesschen>:
    1c3e:	f847 6d04 	str.w	r6, [r7, #-4]!
    1c42:	4676      	mov	r6, lr
    1c44:	f847 6d04 	str.w	r6, [r7, #-4]!
    1c48:	3e01      	subs	r6, #1
    1c4a:	7836      	ldrb	r6, [r6, #0]
    1c4c:	2101      	movs	r1, #1
    1c4e:	1c73      	adds	r3, r6, #1
    1c50:	4019      	ands	r1, r3
    1c52:	185b      	adds	r3, r3, r1
    1c54:	eb1e 0e03 	adds.w	lr, lr, r3
    1c58:	4770      	bx	lr

00001c5a <Dictionary_366>:
    1c5a:	00001c72 	andeq	r1, r0, r2, ror ip
    1c5e:	63050000 	movwvs	r0, #20480	; 0x5000
    1c62:	746e756f 	strbtvc	r7, [lr], #-1391	; 0x56f

00001c66 <Code_366>:
    1c66:	3601      	adds	r6, #1
    1c68:	f847 6d04 	str.w	r6, [r7, #-4]!
    1c6c:	3e01      	subs	r6, #1
    1c6e:	7836      	ldrb	r6, [r6, #0]
    1c70:	4770      	bx	lr

00001c72 <Dictionary_369>:
    1c72:	00001c9a 	muleq	r0, sl, ip
    1c76:	63050000 	movwvs	r0, #20480	; 0x5000
    1c7a:	65707974 	ldrbvs	r7, [r0, #-2420]!	; 0x974

00001c7e <Code_369>:
    1c7e:	b501      	push	{r0, lr}
    1c80:	7830      	ldrb	r0, [r6, #0]
    1c82:	2800      	cmp	r0, #0
    1c84:	d007      	beq.n	1c96 <Code_369+0x18>
    1c86:	3601      	adds	r6, #1
    1c88:	f847 6d04 	str.w	r6, [r7, #-4]!
    1c8c:	7836      	ldrb	r6, [r6, #0]
    1c8e:	f7ff fdb3 	bl	17f8 <Code_288>
    1c92:	3801      	subs	r0, #1
    1c94:	d1f7      	bne.n	1c86 <Code_369+0x8>
    1c96:	cf40      	ldmia	r7!, {r6}
    1c98:	bd01      	pop	{r0, pc}

00001c9a <Dictionary_373>:
    1c9a:	00001cc8 	andeq	r1, r0, r8, asr #25
    1c9e:	74040000 	strvc	r0, [r4]
    1ca2:	00657079 	rsbeq	r7, r5, r9, ror r0

00001ca6 <Code_373>:
    1ca6:	0031      	movs	r1, r6
    1ca8:	cf40      	ldmia	r7!, {r6}
    1caa:	0030      	movs	r0, r6
    1cac:	cf40      	ldmia	r7!, {r6}

00001cae <stype_addr_r0_len_r1>:
    1cae:	b500      	push	{lr}
    1cb0:	2900      	cmp	r1, #0
    1cb2:	d008      	beq.n	1cc6 <stype_addr_r0_len_r1+0x18>
    1cb4:	2200      	movs	r2, #0
    1cb6:	f847 6d04 	str.w	r6, [r7, #-4]!
    1cba:	5c86      	ldrb	r6, [r0, r2]
    1cbc:	f7ff fd9c 	bl	17f8 <Code_288>
    1cc0:	3201      	adds	r2, #1
    1cc2:	4291      	cmp	r1, r2
    1cc4:	d1f7      	bne.n	1cb6 <stype_addr_r0_len_r1+0x8>
    1cc6:	bd00      	pop	{pc}

00001cc8 <Dictionary_377>:
    1cc8:	00001d02 	andeq	r1, r0, r2, lsl #26
    1ccc:	68040000 	stmdavs	r4, {}	; <UNPREDICTABLE>
    1cd0:	002e7865 	eoreq	r7, lr, r5, ror #16

00001cd4 <Code_377>:
    1cd4:	b507      	push	{r0, r1, r2, lr}
    1cd6:	0031      	movs	r1, r6
    1cd8:	cf40      	ldmia	r7!, {r6}
    1cda:	2020      	movs	r0, #32
    1cdc:	220f      	movs	r2, #15
    1cde:	3804      	subs	r0, #4
    1ce0:	f847 6d04 	str.w	r6, [r7, #-4]!
    1ce4:	000e      	movs	r6, r1
    1ce6:	40c6      	lsrs	r6, r0
    1ce8:	4016      	ands	r6, r2
    1cea:	2e09      	cmp	r6, #9
    1cec:	d901      	bls.n	1cf2 <Code_377+0x1e>
    1cee:	3637      	adds	r6, #55	; 0x37
    1cf0:	e000      	b.n	1cf4 <Code_377+0x20>
    1cf2:	3630      	adds	r6, #48	; 0x30
    1cf4:	f7ff fd80 	bl	17f8 <Code_288>
    1cf8:	2800      	cmp	r0, #0
    1cfa:	d1f0      	bne.n	1cde <Code_377+0xa>
    1cfc:	f7ff ff26 	bl	1b4c <Code_338>
    1d00:	bd07      	pop	{r0, r1, r2, pc}

00001d02 <Dictionary_380>:
    1d02:	00001d12 	andeq	r1, r0, r2, lsl sp
    1d06:	68030000 	stmdavs	r3, {}	; <UNPREDICTABLE>
    1d0a:	b51f732e 	ldrlt	r7, [pc, #-814]	; 19e4 <Code_307+0x42>

00001d0c <Code_380>:
    1d0c:	b51f      	push	{r0, r1, r2, r3, r4, lr}
    1d0e:	4c4f      	ldr	r4, [pc, #316]	; (1e4c <Code_393+0xa0>)
    1d10:	e00e      	b.n	1d30 <Code_382+0x4>

00001d12 <Dictionary_381>:
    1d12:	00001d22 	andeq	r1, r0, r2, lsr #26
    1d16:	75030000 	strvc	r0, [r3]
    1d1a:	b51f732e 	ldrlt	r7, [pc, #-814]	; 19f4 <Code_307+0x52>

00001d1c <Code_381>:
    1d1c:	b51f      	push	{r0, r1, r2, r3, r4, lr}
    1d1e:	4c4c      	ldr	r4, [pc, #304]	; (1e50 <Code_393+0xa4>)
    1d20:	e006      	b.n	1d30 <Code_382+0x4>

00001d22 <Dictionary_382>:
    1d22:	00001da0 	andeq	r1, r0, r0, lsr #27
    1d26:	2e020000 	cdpcs	0, 0, cr0, cr2, cr0, {0}
    1d2a:	b51f0073 	ldrlt	r0, [pc, #-115]	; 1cbf <stype_addr_r0_len_r1+0x11>

00001d2c <Code_382>:
    1d2c:	b51f      	push	{r0, r1, r2, r3, r4, lr}
    1d2e:	4c49      	ldr	r4, [pc, #292]	; (1e54 <Code_393+0xa8>)
    1d30:	4949      	ldr	r1, [pc, #292]	; (1e58 <Code_393+0xac>)
    1d32:	1bc9      	subs	r1, r1, r7
    1d34:	0889      	lsrs	r1, r1, #2
    1d36:	4a49      	ldr	r2, [pc, #292]	; (1e5c <Code_393+0xb0>)
    1d38:	6810      	ldr	r0, [r2, #0]
    1d3a:	b403      	push	{r0, r1}
    1d3c:	200a      	movs	r0, #10
    1d3e:	6010      	str	r0, [r2, #0]
    1d40:	f7ff ff55 	bl	1bee <dotgaensefuesschen>
    1d44:	61745308 	cmnvs	r4, r8, lsl #6
    1d48:	203a6b63 	eorscs	r6, sl, r3, ror #22
    1d4c:	f847005b 			; <UNDEFINED> instruction: 0xf847005b
    1d50:	6d04      	ldr	r4, [r0, #80]	; 0x50
    1d52:	000e      	movs	r6, r1
    1d54:	f001 fc4d 	bl	35f2 <Code_862>
    1d58:	f7ff ff49 	bl	1bee <dotgaensefuesschen>
    1d5c:	00205d02 	eoreq	r5, r0, r2, lsl #26
    1d60:	bc03      	pop	{r0, r1}
    1d62:	4a3e      	ldr	r2, [pc, #248]	; (1e5c <Code_393+0xb0>)
    1d64:	6010      	str	r0, [r2, #0]
    1d66:	2900      	cmp	r1, #0
    1d68:	d00a      	beq.n	1d80 <Code_382+0x54>
    1d6a:	4a3d      	ldr	r2, [pc, #244]	; (1e60 <Code_393+0xb4>)
    1d6c:	6810      	ldr	r0, [r2, #0]
    1d6e:	b406      	push	{r1, r2}
    1d70:	f847 6d04 	str.w	r6, [r7, #-4]!
    1d74:	0006      	movs	r6, r0
    1d76:	47a0      	blx	r4
    1d78:	bc06      	pop	{r1, r2}
    1d7a:	3a04      	subs	r2, #4
    1d7c:	3901      	subs	r1, #1
    1d7e:	d1f5      	bne.n	1d6c <Code_382+0x40>
    1d80:	f7ff ff35 	bl	1bee <dotgaensefuesschen>
    1d84:	4f542006 	svcmi	0x00542006
    1d88:	00203a53 	eoreq	r3, r0, r3, asr sl
    1d8c:	f847 6d04 	str.w	r6, [r7, #-4]!
    1d90:	0036      	movs	r6, r6
    1d92:	47a0      	blx	r4
    1d94:	f7ff ff2b 	bl	1bee <dotgaensefuesschen>
    1d98:	3e2a2004 	cdpcc	0, 2, cr2, cr10, cr4, {0}
    1d9c:	bd1f000a 	ldclt	0, cr0, [pc, #-40]	; 1d7c <Code_382+0x50>

00001da0 <Dictionary_393>:
    1da0:	00001e64 	andeq	r1, r0, r4, ror #28
    1da4:	77050000 	strvc	r0, [r5, -r0]
    1da8:	7364726f 	cmnvc	r4, #-268435450	; 0xf0000006

00001dac <Code_393>:
    1dac:	b500      	push	{lr}
    1dae:	f7ff ff1e 	bl	1bee <dotgaensefuesschen>
    1db2:	f0000a01 			; <UNDEFINED> instruction: 0xf0000a01
    1db6:	feab f7ff 	mcr2	7, 5, pc, cr11, cr15, {7}	; <UNPREDICTABLE>
    1dba:	ff19 4109 	vrhadd.u16	d4, d9, d9
    1dbe:	65726464 	ldrbvs	r6, [r2, #-1124]!	; 0x464
    1dc2:	203a7373 	eorscs	r7, sl, r3, ror r3
    1dc6:	f847 6d04 	str.w	r6, [r7, #-4]!
    1dca:	f7ff ff83 	bl	1cd4 <Code_377>
    1dce:	f7ff ff0e 	bl	1bee <dotgaensefuesschen>
    1dd2:	6e694c06 	cdpvs	12, 6, cr4, cr9, cr6, {0}
    1dd6:	00203a6b 	eoreq	r3, r0, fp, ror #20
    1dda:	f847 6d04 	str.w	r6, [r7, #-4]!
    1dde:	6836      	ldr	r6, [r6, #0]
    1de0:	f7ff ff78 	bl	1cd4 <Code_377>
    1de4:	f7ff ff03 	bl	1bee <dotgaensefuesschen>
    1de8:	616c4607 	cmnvs	ip, r7, lsl #12
    1dec:	203a7367 	eorscs	r7, sl, r7, ror #6
    1df0:	f847 6d04 	str.w	r6, [r7, #-4]!
    1df4:	88b6      	ldrh	r6, [r6, #4]
    1df6:	f7ff ff6d 	bl	1cd4 <Code_377>
    1dfa:	f7ff fef8 	bl	1bee <dotgaensefuesschen>
    1dfe:	646f4306 	strbtvs	r4, [pc], #-774	; 1e06 <Code_393+0x5a>
    1e02:	00203a65 	eoreq	r3, r0, r5, ror #20
    1e06:	1db0      	adds	r0, r6, #6
    1e08:	f000 feba 	bl	2b80 <skipstring>
    1e0c:	f847 6d04 	str.w	r6, [r7, #-4]!
    1e10:	0006      	movs	r6, r0
    1e12:	f7ff ff5f 	bl	1cd4 <Code_377>
    1e16:	f7ff feea 	bl	1bee <dotgaensefuesschen>
    1e1a:	6d614e06 	stclvs	14, cr4, [r1, #-24]!	; 0xffffffe8
    1e1e:	00203a65 	eoreq	r3, r0, r5, ror #20
    1e22:	f847 6d04 	str.w	r6, [r7, #-4]!
    1e26:	3606      	adds	r6, #6
    1e28:	f7ff ff29 	bl	1c7e <Code_369>
    1e2c:	f7ff fedf 	bl	1bee <dotgaensefuesschen>
    1e30:	f0000a01 			; <UNDEFINED> instruction: 0xf0000a01
    1e34:	fe83 0030 	mcr2	0, 4, r0, cr3, cr0, {1}
    1e38:	cf40      	ldmia	r7!, {r6}
    1e3a:	d0bd      	beq.n	1db8 <Code_393+0xc>
    1e3c:	cf40      	ldmia	r7!, {r6}
    1e3e:	bd00      	pop	{pc}
    1e40:	00001bee 	andeq	r1, r0, lr, ror #23
    1e44:	00001c18 	andeq	r1, r0, r8, lsl ip
    1e48:	00001c3e 	andeq	r1, r0, lr, lsr ip
    1e4c:	00001cd5 	ldrdeq	r1, [r0], -r5
    1e50:	000035e3 	andeq	r3, r0, r3, ror #11
    1e54:	000035f3 	strdeq	r3, [r0], -r3	; <UNPREDICTABLE>
    1e58:	1fff8230 	svcne	0x00ff8230
    1e5c:	20007ffc 	strdcs	r7, [r0], -ip
    1e60:	1fff822c 	svcne	0x00ff822c

00001e64 <Dictionary_413>:
    1e64:	00001fc8 	andeq	r1, r0, r8, asr #31
    1e68:	310d0000 	mrscc	r0, (UNDEF: 13)
    1e6c:	74696232 	strbtvc	r6, [r9], #-562	; 0x232
    1e70:	6f636e65 	svcvs	0x00636e65
    1e74:	676e6964 	strbvs	r6, [lr, -r4, ror #18]!

00001e78 <Code_413>:
    1e78:	b50f      	push	{r0, r1, r2, r3, lr}
    1e7a:	2eff      	cmp	r6, #255	; 0xff
    1e7c:	d804      	bhi.n	1e88 <Code_413+0x10>
    1e7e:	f847 6d04 	str.w	r6, [r7, #-4]!
    1e82:	f05f 36ff 	movs.w	r6, #4294967295
    1e86:	bd0f      	pop	{r0, r1, r2, r3, pc}
    1e88:	f016 10ff 	ands.w	r0, r6, #16711935	; 0xff00ff
    1e8c:	42b0      	cmp	r0, r6
    1e8e:	d10e      	bne.n	1eae <Code_413+0x36>
    1e90:	f64f 71ff 	movw	r1, #65535	; 0xffff
    1e94:	4008      	ands	r0, r1
    1e96:	0c31      	lsrs	r1, r6, #16
    1e98:	4281      	cmp	r1, r0
    1e9a:	d108      	bne.n	1eae <Code_413+0x36>
    1e9c:	f016 06ff 	ands.w	r6, r6, #255	; 0xff
    1ea0:	f456 5680 	orrs.w	r6, r6, #4096	; 0x1000
    1ea4:	f847 6d04 	str.w	r6, [r7, #-4]!
    1ea8:	f05f 36ff 	movs.w	r6, #4294967295
    1eac:	bd0f      	pop	{r0, r1, r2, r3, pc}
    1eae:	f016 20ff 	ands.w	r0, r6, #4278255360	; 0xff00ff00
    1eb2:	42b0      	cmp	r0, r6
    1eb4:	d10f      	bne.n	1ed6 <Code_413+0x5e>
    1eb6:	f64f 71ff 	movw	r1, #65535	; 0xffff
    1eba:	4008      	ands	r0, r1
    1ebc:	0c31      	lsrs	r1, r6, #16
    1ebe:	4281      	cmp	r1, r0
    1ec0:	d109      	bne.n	1ed6 <Code_413+0x5e>
    1ec2:	0a36      	lsrs	r6, r6, #8
    1ec4:	f016 06ff 	ands.w	r6, r6, #255	; 0xff
    1ec8:	f456 5600 	orrs.w	r6, r6, #8192	; 0x2000
    1ecc:	f847 6d04 	str.w	r6, [r7, #-4]!
    1ed0:	f05f 36ff 	movs.w	r6, #4294967295
    1ed4:	bd0f      	pop	{r0, r1, r2, r3, pc}
    1ed6:	22ff      	movs	r2, #255	; 0xff
    1ed8:	0031      	movs	r1, r6
    1eda:	4011      	ands	r1, r2
    1edc:	0a30      	lsrs	r0, r6, #8
    1ede:	4010      	ands	r0, r2
    1ee0:	4288      	cmp	r0, r1
    1ee2:	d110      	bne.n	1f06 <Code_413+0x8e>
    1ee4:	0c30      	lsrs	r0, r6, #16
    1ee6:	4010      	ands	r0, r2
    1ee8:	4288      	cmp	r0, r1
    1eea:	d10c      	bne.n	1f06 <Code_413+0x8e>
    1eec:	0e30      	lsrs	r0, r6, #24
    1eee:	4010      	ands	r0, r2
    1ef0:	4288      	cmp	r0, r1
    1ef2:	d108      	bne.n	1f06 <Code_413+0x8e>
    1ef4:	f016 06ff 	ands.w	r6, r6, #255	; 0xff
    1ef8:	f456 5640 	orrs.w	r6, r6, #12288	; 0x3000
    1efc:	f847 6d04 	str.w	r6, [r7, #-4]!
    1f00:	f05f 36ff 	movs.w	r6, #4294967295
    1f04:	bd0f      	pop	{r0, r1, r2, r3, pc}
    1f06:	0030      	movs	r0, r6
    1f08:	2100      	movs	r1, #0
    1f0a:	3101      	adds	r1, #1
    1f0c:	1800      	adds	r0, r0, r0
    1f0e:	f150 0000 	adcs.w	r0, r0, #0
    1f12:	f07f 027f 	mvns.w	r2, #127	; 0x7f
    1f16:	4002      	ands	r2, r0
    1f18:	2a80      	cmp	r2, #128	; 0x80
    1f1a:	d005      	beq.n	1f28 <Code_413+0xb0>
    1f1c:	291f      	cmp	r1, #31
    1f1e:	d3f4      	bcc.n	1f0a <Code_413+0x92>
    1f20:	f847 6d04 	str.w	r6, [r7, #-4]!
    1f24:	2600      	movs	r6, #0
    1f26:	bd0f      	pop	{r0, r1, r2, r3, pc}
    1f28:	2908      	cmp	r1, #8
    1f2a:	d3f9      	bcc.n	1f20 <Code_413+0xa8>
    1f2c:	0006      	movs	r6, r0
    1f2e:	f036 0680 	bics.w	r6, r6, #128	; 0x80
    1f32:	f011 0001 	ands.w	r0, r1, #1
    1f36:	01c0      	lsls	r0, r0, #7
    1f38:	4306      	orrs	r6, r0
    1f3a:	f011 000e 	ands.w	r0, r1, #14
    1f3e:	02c0      	lsls	r0, r0, #11
    1f40:	4306      	orrs	r6, r0
    1f42:	f011 0010 	ands.w	r0, r1, #16
    1f46:	0580      	lsls	r0, r0, #22
    1f48:	4306      	orrs	r6, r0
    1f4a:	f847 6d04 	str.w	r6, [r7, #-4]!
    1f4e:	f05f 36ff 	movs.w	r6, #4294967295
    1f52:	bd0f      	pop	{r0, r1, r2, r3, pc}

00001f54 <movwkomma>:
    1f54:	f847 6d04 	str.w	r6, [r7, #-4]!
    1f58:	f8df 663c 	ldr.w	r6, [pc, #1596]	; 2598 <setflags_ram+0x1c>
    1f5c:	f45f 4170 	movs.w	r1, #61440	; 0xf000
    1f60:	ea10 0201 	ands.w	r2, r0, r1
    1f64:	0112      	lsls	r2, r2, #4
    1f66:	4316      	orrs	r6, r2
    1f68:	f45f 6100 	movs.w	r1, #2048	; 0x800
    1f6c:	ea10 0201 	ands.w	r2, r0, r1
    1f70:	03d2      	lsls	r2, r2, #15
    1f72:	4316      	orrs	r6, r2
    1f74:	f45f 61e0 	movs.w	r1, #1792	; 0x700
    1f78:	ea10 0201 	ands.w	r2, r0, r1
    1f7c:	0112      	lsls	r2, r2, #4
    1f7e:	4316      	orrs	r6, r2
    1f80:	21ff      	movs	r1, #255	; 0xff
    1f82:	ea10 0201 	ands.w	r2, r0, r1
    1f86:	4316      	orrs	r6, r2
    1f88:	431e      	orrs	r6, r3
    1f8a:	e374      	b.n	2676 <Code_549>

00001f8c <movtkomma>:
    1f8c:	f847 6d04 	str.w	r6, [r7, #-4]!
    1f90:	f8df 6608 	ldr.w	r6, [pc, #1544]	; 259c <setflags_ram+0x20>
    1f94:	f05f 4170 	movs.w	r1, #4026531840	; 0xf0000000
    1f98:	ea10 0201 	ands.w	r2, r0, r1
    1f9c:	0b12      	lsrs	r2, r2, #12
    1f9e:	4316      	orrs	r6, r2
    1fa0:	f05f 6100 	movs.w	r1, #134217728	; 0x8000000
    1fa4:	ea10 0201 	ands.w	r2, r0, r1
    1fa8:	0852      	lsrs	r2, r2, #1
    1faa:	4316      	orrs	r6, r2
    1fac:	f05f 61e0 	movs.w	r1, #117440512	; 0x7000000
    1fb0:	ea10 0201 	ands.w	r2, r0, r1
    1fb4:	0b12      	lsrs	r2, r2, #12
    1fb6:	4316      	orrs	r6, r2
    1fb8:	f45f 017f 	movs.w	r1, #16711680	; 0xff0000
    1fbc:	ea10 0201 	ands.w	r2, r0, r1
    1fc0:	0c12      	lsrs	r2, r2, #16
    1fc2:	4316      	orrs	r6, r2
    1fc4:	431e      	orrs	r6, r3
    1fc6:	e356      	b.n	2676 <Code_549>

00001fc8 <Dictionary_422>:
    1fc8:	0000202e 	andeq	r2, r0, lr, lsr #32
    1fcc:	72100000 	andsvc	r0, r0, #0
    1fd0:	73696765 	cmnvc	r9, #26476544	; 0x1940000
    1fd4:	6c726574 	cfldr64vs	mvdx6, [r2], #-464	; 0xfffffe30
    1fd8:	72657469 	rsbvc	r7, r5, #1761607680	; 0x69000000
    1fdc:	002c6c61 	eoreq	r6, ip, r1, ror #24

00001fe0 <Code_422>:
    1fe0:	b50f      	push	{r0, r1, r2, r3, lr}
    1fe2:	0033      	movs	r3, r6
    1fe4:	cf40      	ldmia	r7!, {r6}
    1fe6:	021b      	lsls	r3, r3, #8
    1fe8:	2eff      	cmp	r6, #255	; 0xff
    1fea:	d805      	bhi.n	1ff8 <Code_422+0x18>
    1fec:	f456 5600 	orrs.w	r6, r6, #8192	; 0x2000
    1ff0:	431e      	orrs	r6, r3
    1ff2:	f000 fb18 	bl	2626 <Code_540>
    1ff6:	bd0f      	pop	{r0, r1, r2, r3, pc}
    1ff8:	f7ff ff3e 	bl	1e78 <Code_413>
    1ffc:	2e00      	cmp	r6, #0
    1ffe:	cf40      	ldmia	r7!, {r6}
    2000:	d006      	beq.n	2010 <BIT13+0x10>
    2002:	f8df 059c 	ldr.w	r0, [pc, #1436]	; 25a0 <setflags_ram+0x24>
    2006:	4306      	orrs	r6, r0
    2008:	431e      	orrs	r6, r3
    200a:	f000 fb34 	bl	2676 <Code_549>
    200e:	bd0f      	pop	{r0, r1, r2, r3, pc}
    2010:	43f6      	mvns	r6, r6
    2012:	f7ff ff31 	bl	1e78 <Code_413>
    2016:	2e00      	cmp	r6, #0
    2018:	cf40      	ldmia	r7!, {r6}
    201a:	d006      	beq.n	202a <BIT13+0x2a>
    201c:	f8df 0584 	ldr.w	r0, [pc, #1412]	; 25a4 <setflags_ram+0x28>
    2020:	4306      	orrs	r6, r0
    2022:	431e      	orrs	r6, r3
    2024:	f000 fb27 	bl	2676 <Code_549>
    2028:	bd0f      	pop	{r0, r1, r2, r3, pc}
    202a:	43f6      	mvns	r6, r6
    202c:	e00b      	b.n	2046 <movwmovt_register_r3>

0000202e <Dictionary_426>:
    202e:	0000208e 	andeq	r2, r0, lr, lsl #1
    2032:	6d090000 	stcvs	0, cr0, [r9]
    2036:	6d77766f 	ldclvs	6, cr7, [r7, #-444]!	; 0xfffffe44
    203a:	2c74766f 	ldclcs	6, cr7, [r4], #-444	; 0xfffffe44

0000203e <Code_426>:
    203e:	b50f      	push	{r0, r1, r2, r3, lr}
    2040:	0033      	movs	r3, r6
    2042:	cf40      	ldmia	r7!, {r6}
    2044:	021b      	lsls	r3, r3, #8

00002046 <movwmovt_register_r3>:
    2046:	0030      	movs	r0, r6
    2048:	cf40      	ldmia	r7!, {r6}
    204a:	f7ff ff83 	bl	1f54 <movwkomma>
    204e:	f64f 71ff 	movw	r1, #65535	; 0xffff
    2052:	ea10 4001 	ands.w	r0, r0, r1, lsl #16
    2056:	d001      	beq.n	205c <movwmovt_register_r3+0x16>
    2058:	f7ff ff98 	bl	1f8c <movtkomma>
    205c:	bd0f      	pop	{r0, r1, r2, r3, pc}

0000205e <callkommalang>:
    205e:	b50f      	push	{r0, r1, r2, r3, lr}
    2060:	3601      	adds	r6, #1
    2062:	0030      	movs	r0, r6
    2064:	cf40      	ldmia	r7!, {r6}
    2066:	2300      	movs	r3, #0
    2068:	f7ff ff74 	bl	1f54 <movwkomma>
    206c:	f7ff ff8e 	bl	1f8c <movtkomma>
    2070:	e006      	b.n	2080 <callkommakurz_intern>

00002072 <callkommakurz>:
    2072:	b50f      	push	{r0, r1, r2, r3, lr}
    2074:	3601      	adds	r6, #1
    2076:	f847 6d04 	str.w	r6, [r7, #-4]!
    207a:	2600      	movs	r6, #0
    207c:	f7ff ffb0 	bl	1fe0 <Code_422>

00002080 <callkommakurz_intern>:
    2080:	f847 6d04 	str.w	r6, [r7, #-4]!
    2084:	f244 7680 	movw	r6, #18304	; 0x4780
    2088:	f000 facd 	bl	2626 <Code_540>
    208c:	bd0f      	pop	{r0, r1, r2, r3, pc}

0000208e <Dictionary_434>:
    208e:	000020f4 	strdeq	r2, [r0], -r4
    2092:	63050000 	movwvs	r0, #20480	; 0x5000
    2096:	2c6c6c61 	stclcs	12, cr6, [ip], #-388	; 0xfffffe7c

0000209a <Code_434>:
    209a:	b50f      	push	{r0, r1, r2, r3, lr}
    209c:	0033      	movs	r3, r6
    209e:	f000 fe07 	bl	2cb0 <Code_656>
    20a2:	0030      	movs	r0, r6
    20a4:	cf40      	ldmia	r7!, {r6}
    20a6:	1a1b      	subs	r3, r3, r0
    20a8:	3b04      	subs	r3, #4
    20aa:	f8df 14fc 	ldr.w	r1, [pc, #1276]	; 25a8 <setflags_ram+0x2c>
    20ae:	4019      	ands	r1, r3
    20b0:	2900      	cmp	r1, #0
    20b2:	d006      	beq.n	20c2 <Code_434+0x28>
    20b4:	f8df 24f4 	ldr.w	r2, [pc, #1268]	; 25ac <setflags_ram+0x30>
    20b8:	4291      	cmp	r1, r2
    20ba:	d002      	beq.n	20c2 <Code_434+0x28>
    20bc:	e8bd 400f 	ldmia.w	sp!, {r0, r1, r2, r3, lr}
    20c0:	e7d7      	b.n	2072 <callkommakurz>
    20c2:	cf40      	ldmia	r7!, {r6}
    20c4:	085b      	lsrs	r3, r3, #1
    20c6:	f8df 04e8 	ldr.w	r0, [pc, #1256]	; 25b0 <setflags_ram+0x34>
    20ca:	f240 71ff 	movw	r1, #2047	; 0x7ff
    20ce:	4019      	ands	r1, r3
    20d0:	4308      	orrs	r0, r1
    20d2:	0adb      	lsrs	r3, r3, #11
    20d4:	f240 31ff 	movw	r1, #1023	; 0x3ff
    20d8:	4019      	ands	r1, r3
    20da:	0409      	lsls	r1, r1, #16
    20dc:	4308      	orrs	r0, r1
    20de:	0a9b      	lsrs	r3, r3, #10
    20e0:	f013 0101 	ands.w	r1, r3, #1
    20e4:	0689      	lsls	r1, r1, #26
    20e6:	4308      	orrs	r0, r1
    20e8:	f847 6d04 	str.w	r6, [r7, #-4]!
    20ec:	0006      	movs	r6, r0
    20ee:	f000 fac2 	bl	2676 <Code_549>
    20f2:	bd0f      	pop	{r0, r1, r2, r3, pc}

000020f4 <Dictionary_439>:
    20f4:	0000212a 	andeq	r2, r0, sl, lsr #2
    20f8:	6c080000 	stcvs	0, cr0, [r8], {0}
    20fc:	72657469 	rsbvc	r7, r5, #1761607680	; 0x69000000
    2100:	002c6c61 	eoreq	r6, ip, r1, ror #24

00002104 <Code_439>:
    2104:	b508      	push	{r3, lr}
    2106:	f847 6d04 	str.w	r6, [r7, #-4]!
    210a:	f64f 0647 	movw	r6, #63559	; 0xf847
    210e:	f000 fa8a 	bl	2626 <Code_540>
    2112:	f847 6d04 	str.w	r6, [r7, #-4]!
    2116:	f646 5604 	movw	r6, #27908	; 0x6d04
    211a:	f000 fa84 	bl	2626 <Code_540>
    211e:	f847 6d04 	str.w	r6, [r7, #-4]!
    2122:	2606      	movs	r6, #6
    2124:	f7ff ff5c 	bl	1fe0 <Code_422>
    2128:	bd08      	pop	{r3, pc}

0000212a <Dictionary_446>:
    212a:	0000214e 	andeq	r2, r0, lr, asr #2
    212e:	63060000 	movwvs	r0, #24576	; 0x6000
    2132:	74616572 	strbtvc	r6, [r1], #-1394	; 0x572
    2136:	b5000065 	strlt	r0, [r0, #-101]	; 0x65

00002138 <Code_446>:
    2138:	b500      	push	{lr}
    213a:	f000 f833 	bl	21a4 <Code_451>
    213e:	f242 106b 	movw	r0, #8555	; 0x216b
    2142:	4780      	blx	r0
    2144:	f847 6d04 	str.w	r6, [r7, #-4]!
    2148:	f1be 0601 	subs.w	r6, lr, #1
    214c:	bd00      	pop	{pc}

0000214e <Dictionary_448>:
    214e:	00002196 	muleq	r0, r6, r1
    2152:	64050020 	strvs	r0, [r5], #-32
    2156:	3e73656f 	cdpcc	5, 7, cr6, cr3, cr15, {3}

0000215a <Code_448>:
    215a:	f242 106b 	movw	r0, #8555	; 0x216b
    215e:	4780      	blx	r0
    2160:	f847 6d04 	str.w	r6, [r7, #-4]!
    2164:	f1be 0601 	subs.w	r6, lr, #1
    2168:	4770      	bx	lr

0000216a <dodoes>:
    216a:	f847 6d04 	str.w	r6, [r7, #-4]!
    216e:	f1be 0601 	subs.w	r6, lr, #1
    2172:	f8df 2440 	ldr.w	r2, [pc, #1088]	; 25b4 <setflags_ram+0x38>
    2176:	6813      	ldr	r3, [r2, #0]
    2178:	f8df 143c 	ldr.w	r1, [pc, #1084]	; 25b8 <setflags_ram+0x3c>
    217c:	6809      	ldr	r1, [r1, #0]
    217e:	2002      	movs	r0, #2
    2180:	4008      	ands	r0, r1
    2182:	d000      	beq.n	2186 <dodoes+0x1c>
    2184:	3102      	adds	r1, #2
    2186:	3102      	adds	r1, #2
    2188:	6011      	str	r1, [r2, #0]
    218a:	f7ff ff68 	bl	205e <callkommalang>
    218e:	6013      	str	r3, [r2, #0]
    2190:	f000 f9b7 	bl	2502 <Code_527>
    2194:	bd00      	pop	{pc}

00002196 <Dictionary_451>:
    2196:	000021d8 	ldrdeq	r2, [r0], -r8
    219a:	3c070000 	stccc	0, cr0, [r7], {0}
    219e:	6c697562 	cfstr64vs	mvdx7, [r9], #-392	; 0xfffffe78
    21a2:	b5007364 	strlt	r7, [r0, #-868]	; 0x364

000021a4 <Code_451>:
    21a4:	b500      	push	{lr}
    21a6:	f000 fb41 	bl	282c <Code_571>
    21aa:	f000 fd81 	bl	2cb0 <Code_656>
    21ae:	2002      	movs	r0, #2
    21b0:	4006      	ands	r6, r0
    21b2:	cf40      	ldmia	r7!, {r6}
    21b4:	d004      	beq.n	21c0 <Code_451+0x1c>
    21b6:	f847 6d04 	str.w	r6, [r7, #-4]!
    21ba:	2636      	movs	r6, #54	; 0x36
    21bc:	f000 fa33 	bl	2626 <Code_540>
    21c0:	f847 6d04 	str.w	r6, [r7, #-4]!
    21c4:	f24b 5600 	movw	r6, #46336	; 0xb500
    21c8:	f000 fa2d 	bl	2626 <Code_540>
    21cc:	f847 6d04 	str.w	r6, [r7, #-4]!
    21d0:	260a      	movs	r6, #10
    21d2:	f000 fa93 	bl	26fc <Code_560>
    21d6:	bd00      	pop	{pc}

000021d8 <Dictionary_459>:
    21d8:	000021e4 	andeq	r2, r0, r4, ror #3
    21dc:	5b030050 	blpl	c2324 <BIT19+0x42324>
    21e0:	e0035d27 	and	r5, r3, r7, lsr #26

000021e2 <Code_459>:
    21e2:	e003      	b.n	21ec <Code_460>

000021e4 <Dictionary_460>:
    21e4:	000021fc 	strdeq	r2, [r0], -ip
    21e8:	27010000 	strcs	r0, [r1, -r0]

000021ec <Code_460>:
    21ec:	b500      	push	{lr}
    21ee:	f001 f81b 	bl	3228 <Code_794>
    21f2:	f000 fd03 	bl	2bfc <find_not_found>
    21f6:	0030      	movs	r0, r6
    21f8:	cf40      	ldmia	r7!, {r6}
    21fa:	bd00      	pop	{pc}

000021fc <Dictionary_462>:
    21fc:	0000223a 	andeq	r2, r0, sl, lsr r2
    2200:	70080030 	andvc	r0, r8, r0, lsr r0
    2204:	7074736f 	rsbsvc	r7, r4, pc, ror #6
    2208:	00656e6f 	rsbeq	r6, r5, pc, ror #28

0000220c <Code_462>:
    220c:	b500      	push	{lr}
    220e:	f7ff ffed 	bl	21ec <Code_460>
    2212:	2110      	movs	r1, #16
    2214:	4001      	ands	r1, r0
    2216:	d10d      	bne.n	2234 <Code_462+0x28>
    2218:	2120      	movs	r1, #32
    221a:	4001      	ands	r1, r0
    221c:	d005      	beq.n	222a <Code_462+0x1e>
    221e:	f7ff ff71 	bl	2104 <Code_439>
    2222:	f847 6d04 	str.w	r6, [r7, #-4]!
    2226:	4ee5      	ldr	r6, [pc, #916]	; (25bc <setflags_ram+0x40>)
    2228:	e004      	b.n	2234 <Code_462+0x28>
    222a:	f7ff ff6b 	bl	2104 <Code_439>
    222e:	f847 6d04 	str.w	r6, [r7, #-4]!
    2232:	4ee3      	ldr	r6, [pc, #908]	; (25c0 <setflags_ram+0x44>)
    2234:	f7ff ff31 	bl	209a <Code_434>
    2238:	bd00      	pop	{pc}

0000223a <Dictionary_465>:
    223a:	00002290 	muleq	r0, r0, r2
    223e:	69070000 	stmdbvs	r7, {}	; <UNPREDICTABLE>
    2242:	6e696c6e 	cdpvs	12, 6, cr6, cr9, cr14, {3}
    2246:	b5002c65 	strlt	r2, [r0, #-3173]	; 0xc65

00002248 <Code_465>:
    2248:	b500      	push	{lr}
    224a:	f24b 5100 	movw	r1, #46336	; 0xb500
    224e:	f64b 5200 	movw	r2, #48384	; 0xbd00
    2252:	f244 7370 	movw	r3, #18288	; 0x4770
    2256:	8830      	ldrh	r0, [r6, #0]
    2258:	4288      	cmp	r0, r1
    225a:	d008      	beq.n	226e <Code_465+0x26>
    225c:	4290      	cmp	r0, r2
    225e:	d008      	beq.n	2272 <Code_465+0x2a>
    2260:	4298      	cmp	r0, r3
    2262:	d006      	beq.n	2272 <Code_465+0x2a>
    2264:	f847 6d04 	str.w	r6, [r7, #-4]!
    2268:	0006      	movs	r6, r0
    226a:	f000 f9dc 	bl	2626 <Code_540>
    226e:	3602      	adds	r6, #2
    2270:	e7f1      	b.n	2256 <Code_465+0xe>
    2272:	cf40      	ldmia	r7!, {r6}
    2274:	bd00      	pop	{pc}

00002276 <suchedefinitionsende>:
    2276:	b40e      	push	{r1, r2, r3}
    2278:	f64b 5200 	movw	r2, #48384	; 0xbd00
    227c:	f244 7370 	movw	r3, #18288	; 0x4770
    2280:	8801      	ldrh	r1, [r0, #0]
    2282:	3002      	adds	r0, #2
    2284:	4291      	cmp	r1, r2
    2286:	d001      	beq.n	228c <suchedefinitionsende+0x16>
    2288:	4299      	cmp	r1, r3
    228a:	d1f9      	bne.n	2280 <suchedefinitionsende+0xa>
    228c:	bc0e      	pop	{r1, r2, r3}
    228e:	4770      	bx	lr

00002290 <Dictionary_469>:
    2290:	000022a6 	andeq	r2, r0, r6, lsr #5
    2294:	72040000 	andvc	r0, r4, #0
    2298:	002c7465 	eoreq	r7, ip, r5, ror #8

0000229c <Code_469>:
    229c:	f847 6d04 	str.w	r6, [r7, #-4]!
    22a0:	f64b 5600 	movw	r6, #48384	; 0xbd00
    22a4:	e1bf      	b.n	2626 <Code_540>

000022a6 <Dictionary_472>:
    22a6:	000022b4 			; <UNDEFINED> instruction: 0x000022b4
    22aa:	65040030 	strvs	r0, [r4, #-48]	; 0x30
    22ae:	00746978 	rsbseq	r6, r4, r8, ror r9

000022b2 <Code_472>:
    22b2:	e7f3      	b.n	229c <Code_469>

000022b4 <Dictionary_473>:
    22b4:	000022cc 	andeq	r2, r0, ip, asr #5
    22b8:	72070030 	andvc	r0, r7, #48	; 0x30
    22bc:	72756365 	rsbsvc	r6, r5, #-1811939327	; 0x94000001
    22c0:	f8476573 			; <UNDEFINED> instruction: 0xf8476573

000022c2 <Code_473>:
    22c2:	f847 6d04 	str.w	r6, [r7, #-4]!
    22c6:	4ebc      	ldr	r6, [pc, #752]	; (25b8 <setflags_ram+0x3c>)
    22c8:	6836      	ldr	r6, [r6, #0]
    22ca:	e6e6      	b.n	209a <Code_434>

000022cc <Dictionary_475>:
    22cc:	000022e4 	andeq	r2, r0, r4, ror #5
    22d0:	73050081 	movwvc	r0, #20609	; 0x5081
    22d4:	65746174 	ldrbvs	r6, [r4, #-372]!	; 0x174

000022d8 <Code_475>:
    22d8:	f847 6d04 	str.w	r6, [r7, #-4]!
    22dc:	4eb9      	ldr	r6, [pc, #740]	; (25c4 <setflags_ram+0x48>)
    22de:	4770      	bx	lr
    22e0:	00000000 	andeq	r0, r0, r0

000022e4 <Dictionary_478>:
    22e4:	000022f6 	strdeq	r2, [r0], -r6
    22e8:	5d010000 	stcpl	0, cr0, [r1]

000022ec <Code_478>:
    22ec:	48b5      	ldr	r0, [pc, #724]	; (25c4 <setflags_ram+0x48>)
    22ee:	2100      	movs	r1, #0
    22f0:	43c9      	mvns	r1, r1
    22f2:	6001      	str	r1, [r0, #0]
    22f4:	4770      	bx	lr

000022f6 <Dictionary_479>:
    22f6:	00002306 	andeq	r2, r0, r6, lsl #6
    22fa:	5b010010 	blpl	42342 <BIT18+0x2342>

000022fe <Code_479>:
    22fe:	48b1      	ldr	r0, [pc, #708]	; (25c4 <setflags_ram+0x48>)
    2300:	2100      	movs	r1, #0
    2302:	6001      	str	r1, [r0, #0]
    2304:	4770      	bx	lr

00002306 <Dictionary_480>:
    2306:	0000232e 	andeq	r2, r0, lr, lsr #6
    230a:	3a010000 	bcc	42312 <BIT18+0x2312>

0000230e <Code_480>:
    230e:	b500      	push	{lr}
    2310:	48ad      	ldr	r0, [pc, #692]	; (25c8 <setflags_ram+0x4c>)
    2312:	6007      	str	r7, [r0, #0]
    2314:	f000 fa8a 	bl	282c <Code_571>
    2318:	f847 6d04 	str.w	r6, [r7, #-4]!
    231c:	f24b 5600 	movw	r6, #46336	; 0xb500
    2320:	f000 f981 	bl	2626 <Code_540>
    2324:	48a7      	ldr	r0, [pc, #668]	; (25c4 <setflags_ram+0x48>)
    2326:	2100      	movs	r1, #0
    2328:	43c9      	mvns	r1, r1
    232a:	6001      	str	r1, [r0, #0]
    232c:	bd00      	pop	{pc}

0000232e <Dictionary_483>:
    232e:	00002376 	andeq	r2, r0, r6, ror r3
    2332:	3b010030 	blcc	423fa <BIT18+0x23fa>

00002336 <Code_483>:
    2336:	b500      	push	{lr}
    2338:	48a3      	ldr	r0, [pc, #652]	; (25c8 <setflags_ram+0x4c>)
    233a:	6801      	ldr	r1, [r0, #0]
    233c:	42b9      	cmp	r1, r7
    233e:	d00e      	beq.n	235e <Code_483+0x28>
    2340:	f7ff fc55 	bl	1bee <dotgaensefuesschen>
    2344:	74532015 	ldrbvc	r2, [r3], #-21
    2348:	206b6361 	rsbcs	r6, fp, r1, ror #6
    234c:	20746f6e 	rsbscs	r6, r4, lr, ror #30
    2350:	616c6162 	cmnvs	ip, r2, ror #2
    2354:	6465636e 	strbtvs	r6, [r5], #-878	; 0x36e
    2358:	f0010a2e 			; <UNDEFINED> instruction: 0xf0010a2e
    235c:	baed      	revsh	r5, r5
    235e:	f847 6d04 	str.w	r6, [r7, #-4]!
    2362:	f64b 5600 	movw	r6, #48384	; 0xbd00
    2366:	f000 f95e 	bl	2626 <Code_540>
    236a:	f000 f8ca 	bl	2502 <Code_527>
    236e:	4895      	ldr	r0, [pc, #596]	; (25c4 <setflags_ram+0x48>)
    2370:	2100      	movs	r1, #0
    2372:	6001      	str	r1, [r0, #0]
    2374:	bd00      	pop	{pc}

00002376 <Dictionary_487>:
    2376:	0000238a 	andeq	r2, r0, sl, lsl #7
    237a:	65070000 	strvs	r0, [r7]
    237e:	75636578 	strbvc	r6, [r3, #-1400]!	; 0x578
    2382:	00306574 	eorseq	r6, r0, r4, ror r5

00002384 <Code_487>:
    2384:	0030      	movs	r0, r6
    2386:	cf40      	ldmia	r7!, {r6}
    2388:	4687      	mov	pc, r0

0000238a <Dictionary_489>:
    238a:	000023a2 	andeq	r2, r0, r2, lsr #7
    238e:	69090010 	stmdbvs	r9, {r4}
    2392:	64656d6d 	strbtvs	r6, [r5], #-3437	; 0xd6d
    2396:	65746169 	ldrbvs	r6, [r4, #-361]!	; 0x169

0000239a <Code_489>:
    239a:	f847 6d04 	str.w	r6, [r7, #-4]!
    239e:	2610      	movs	r6, #16
    23a0:	e0e0      	b.n	2564 <Code_533>

000023a2 <Dictionary_492>:
    23a2:	000023b8 			; <UNDEFINED> instruction: 0x000023b8
    23a6:	69060050 	stmdbvs	r6, {r4, r6}
    23aa:	6e696c6e 	cdpvs	12, 6, cr6, cr9, cr14, {3}
    23ae:	f8470065 			; <UNDEFINED> instruction: 0xf8470065

000023b0 <Code_492>:
    23b0:	f847 6d04 	str.w	r6, [r7, #-4]!
    23b4:	2620      	movs	r6, #32
    23b6:	e0d5      	b.n	2564 <Code_533>

000023b8 <Dictionary_495>:
    23b8:	000023d2 	ldrdeq	r2, [r0], -r2	; <UNPREDICTABLE>
    23bc:	630b0010 	movwvs	r0, #45072	; 0xb010
    23c0:	69706d6f 	ldmdbvs	r0!, {r0, r1, r2, r3, r5, r6, r8, sl, fp, sp, lr}^
    23c4:	6e6f656c 	cdpvs	5, 6, cr6, cr15, cr12, {3}
    23c8:	f847796c 			; <UNDEFINED> instruction: 0xf847796c

000023ca <Code_495>:
    23ca:	f847 6d04 	str.w	r6, [r7, #-4]!
    23ce:	2630      	movs	r6, #48	; 0x30
    23d0:	e0c8      	b.n	2564 <Code_533>

000023d2 <Dictionary_498>:
    23d2:	000023ec 	andeq	r2, r0, ip, ror #7
    23d6:	300a0050 	andcc	r0, sl, r0, asr r0
    23da:	6c6f662d 	stclvs	6, cr6, [pc], #-180	; 232c <Code_480+0x1e>
    23de:	6c626164 	stfvse	f6, [r2], #-400	; 0xfffffe70
    23e2:	f8470065 			; <UNDEFINED> instruction: 0xf8470065

000023e4 <Code_498>:
    23e4:	f847 6d04 	str.w	r6, [r7, #-4]!
    23e8:	2640      	movs	r6, #64	; 0x40
    23ea:	e0bb      	b.n	2564 <Code_533>

000023ec <Dictionary_501>:
    23ec:	00002406 	andeq	r2, r0, r6, lsl #8
    23f0:	310a0050 	qaddcc	r0, r0, sl
    23f4:	6c6f662d 	stclvs	6, cr6, [pc], #-180	; 2348 <Code_483+0x12>
    23f8:	6c626164 	stfvse	f6, [r2], #-400	; 0xfffffe70
    23fc:	f8470065 			; <UNDEFINED> instruction: 0xf8470065

000023fe <Code_501>:
    23fe:	f847 6d04 	str.w	r6, [r7, #-4]!
    2402:	2641      	movs	r6, #65	; 0x41
    2404:	e0ae      	b.n	2564 <Code_533>

00002406 <Dictionary_504>:
    2406:	00002420 	andeq	r2, r0, r0, lsr #8
    240a:	320a0050 	andcc	r0, sl, #80	; 0x50
    240e:	6c6f662d 	stclvs	6, cr6, [pc], #-180	; 2360 <Code_483+0x2a>
    2412:	6c626164 	stfvse	f6, [r2], #-400	; 0xfffffe70
    2416:	f8470065 			; <UNDEFINED> instruction: 0xf8470065

00002418 <Code_504>:
    2418:	f847 6d04 	str.w	r6, [r7, #-4]!
    241c:	2642      	movs	r6, #66	; 0x42
    241e:	e0a1      	b.n	2564 <Code_533>

00002420 <Dictionary_507>:
    2420:	0000243a 	andeq	r2, r0, sl, lsr r4
    2424:	330a0050 	movwcc	r0, #41040	; 0xa050
    2428:	6c6f662d 	stclvs	6, cr6, [pc], #-180	; 237c <Dictionary_487+0x6>
    242c:	6c626164 	stfvse	f6, [r2], #-400	; 0xfffffe70
    2430:	f8470065 			; <UNDEFINED> instruction: 0xf8470065

00002432 <Code_507>:
    2432:	f847 6d04 	str.w	r6, [r7, #-4]!
    2436:	2643      	movs	r6, #67	; 0x43
    2438:	e094      	b.n	2564 <Code_533>

0000243a <Dictionary_510>:
    243a:	00002454 	andeq	r2, r0, r4, asr r4
    243e:	340a0050 	strcc	r0, [sl], #-80	; 0x50
    2442:	6c6f662d 	stclvs	6, cr6, [pc], #-180	; 2394 <Dictionary_489+0xa>
    2446:	6c626164 	stfvse	f6, [r2], #-400	; 0xfffffe70
    244a:	f8470065 			; <UNDEFINED> instruction: 0xf8470065

0000244c <Code_510>:
    244c:	f847 6d04 	str.w	r6, [r7, #-4]!
    2450:	2644      	movs	r6, #68	; 0x44
    2452:	e087      	b.n	2564 <Code_533>

00002454 <Dictionary_513>:
    2454:	0000246e 	andeq	r2, r0, lr, ror #8
    2458:	350a0050 	strcc	r0, [sl, #-80]	; 0x50
    245c:	6c6f662d 	stclvs	6, cr6, [pc], #-180	; 23b0 <Code_492>
    2460:	6c626164 	stfvse	f6, [r2], #-400	; 0xfffffe70
    2464:	f8470065 			; <UNDEFINED> instruction: 0xf8470065

00002466 <Code_513>:
    2466:	f847 6d04 	str.w	r6, [r7, #-4]!
    246a:	2645      	movs	r6, #69	; 0x45
    246c:	e07a      	b.n	2564 <Code_533>

0000246e <Dictionary_516>:
    246e:	00002488 	andeq	r2, r0, r8, lsl #9
    2472:	360a0050 			; <UNDEFINED> instruction: 0x360a0050
    2476:	6c6f662d 	stclvs	6, cr6, [pc], #-180	; 23c8 <Dictionary_495+0x10>
    247a:	6c626164 	stfvse	f6, [r2], #-400	; 0xfffffe70
    247e:	f8470065 			; <UNDEFINED> instruction: 0xf8470065

00002480 <Code_516>:
    2480:	f847 6d04 	str.w	r6, [r7, #-4]!
    2484:	2646      	movs	r6, #70	; 0x46
    2486:	e06d      	b.n	2564 <Code_533>

00002488 <Dictionary_519>:
    2488:	000024a2 	andeq	r2, r0, r2, lsr #9
    248c:	370a0050 	smlsdcc	sl, r0, r0, r0
    2490:	6c6f662d 	stclvs	6, cr6, [pc], #-180	; 23e4 <Code_498>
    2494:	6c626164 	stfvse	f6, [r2], #-400	; 0xfffffe70
    2498:	f8470065 			; <UNDEFINED> instruction: 0xf8470065

0000249a <Code_519>:
    249a:	f847 6d04 	str.w	r6, [r7, #-4]!
    249e:	2647      	movs	r6, #71	; 0x47
    24a0:	e060      	b.n	2564 <Code_533>

000024a2 <Dictionary_522>:
    24a2:	000024d2 	ldrdeq	r2, [r0], -r2	; <UNPREDICTABLE>
    24a6:	63080000 	movwvs	r0, #32768	; 0x8000
    24aa:	74736e6f 	ldrbtvc	r6, [r3], #-3695	; 0xe6f
    24ae:	00746e61 	rsbseq	r6, r4, r1, ror #28

000024b2 <Code_522>:
    24b2:	b500      	push	{lr}
    24b4:	f000 f9ba 	bl	282c <Code_571>
    24b8:	f7ff fe24 	bl	2104 <Code_439>
    24bc:	f847 6d04 	str.w	r6, [r7, #-4]!
    24c0:	f244 7670 	movw	r6, #18288	; 0x4770
    24c4:	f000 f8af 	bl	2626 <Code_540>
    24c8:	f7ff ff8c 	bl	23e4 <Code_498>
    24cc:	f000 f819 	bl	2502 <Code_527>
    24d0:	bd00      	pop	{pc}

000024d2 <Dictionary_525>:
    24d2:	000024f4 	strdeq	r2, [r0], -r4
    24d6:	32090000 	andcc	r0, r9, #0
    24da:	736e6f63 	cmnvc	lr, #396	; 0x18c
    24de:	746e6174 	strbtvc	r6, [lr], #-372	; 0x174

000024e2 <Code_525>:
    24e2:	b500      	push	{lr}
    24e4:	f000 f9a2 	bl	282c <Code_571>
    24e8:	6839      	ldr	r1, [r7, #0]
    24ea:	603e      	str	r6, [r7, #0]
    24ec:	460e      	mov	r6, r1
    24ee:	f7ff fe09 	bl	2104 <Code_439>
    24f2:	e7e1      	b.n	24b8 <Code_522+0x6>

000024f4 <Dictionary_527>:
    24f4:	00002554 	andeq	r2, r0, r4, asr r5
    24f8:	73060000 	movwvc	r0, #24576	; 0x6000
    24fc:	6764756d 	strbvs	r7, [r4, -sp, ror #10]!
    2500:	b5000065 	strlt	r0, [r0, #-101]	; 0x65

00002502 <Code_527>:
    2502:	b500      	push	{lr}
    2504:	482b      	ldr	r0, [pc, #172]	; (25b4 <setflags_ram+0x38>)
    2506:	6801      	ldr	r1, [r0, #0]
    2508:	4a2a      	ldr	r2, [pc, #168]	; (25b4 <setflags_ram+0x38>)
    250a:	4291      	cmp	r1, r2
    250c:	d21c      	bcs.n	2548 <smudge_ram>
    250e:	3902      	subs	r1, #2
    2510:	880a      	ldrh	r2, [r1, #0]
    2512:	4b2e      	ldr	r3, [pc, #184]	; (25cc <setflags_ram+0x50>)
    2514:	429a      	cmp	r2, r3
    2516:	d104      	bne.n	2522 <Code_527+0x20>
    2518:	f847 6d04 	str.w	r6, [r7, #-4]!
    251c:	4e2c      	ldr	r6, [pc, #176]	; (25d0 <setflags_ram+0x54>)
    251e:	f000 f882 	bl	2626 <Code_540>
    2522:	f000 f86f 	bl	2604 <Code_537>
    2526:	482b      	ldr	r0, [pc, #172]	; (25d4 <setflags_ram+0x58>)
    2528:	6800      	ldr	r0, [r0, #0]
    252a:	f847 6d04 	str.w	r6, [r7, #-4]!
    252e:	0006      	movs	r6, r0
    2530:	4929      	ldr	r1, [pc, #164]	; (25d8 <setflags_ram+0x5c>)
    2532:	6809      	ldr	r1, [r1, #0]
    2534:	3104      	adds	r1, #4
    2536:	4a1f      	ldr	r2, [pc, #124]	; (25b4 <setflags_ram+0x38>)
    2538:	6813      	ldr	r3, [r2, #0]
    253a:	6011      	str	r1, [r2, #0]
    253c:	f000 f873 	bl	2626 <Code_540>
    2540:	6013      	str	r3, [r2, #0]
    2542:	f7fe ff8f 	bl	1464 <sammeltabelleleerprobe>
    2546:	bd00      	pop	{pc}

00002548 <smudge_ram>:
    2548:	f000 f85c 	bl	2604 <Code_537>
    254c:	f847 6d04 	str.w	r6, [r7, #-4]!
    2550:	2600      	movs	r6, #0
    2552:	e008      	b.n	2566 <setflags_intern>

00002554 <Dictionary_533>:
    2554:	000025dc 	ldrdeq	r2, [r0], -ip
    2558:	73080000 	movwvc	r0, #32768	; 0x8000
    255c:	6c667465 	cfstrdvs	mvd7, [r6], #-404	; 0xfffffe6c
    2560:	00736761 	rsbseq	r6, r3, r1, ror #14

00002564 <Code_533>:
    2564:	b500      	push	{lr}

00002566 <setflags_intern>:
    2566:	4813      	ldr	r0, [pc, #76]	; (25b4 <setflags_ram+0x38>)
    2568:	6801      	ldr	r1, [r0, #0]
    256a:	4a12      	ldr	r2, [pc, #72]	; (25b4 <setflags_ram+0x38>)
    256c:	4291      	cmp	r1, r2
    256e:	d205      	bcs.n	257c <setflags_ram>
    2570:	4818      	ldr	r0, [pc, #96]	; (25d4 <setflags_ram+0x58>)
    2572:	6801      	ldr	r1, [r0, #0]
    2574:	4331      	orrs	r1, r6
    2576:	6001      	str	r1, [r0, #0]
    2578:	cf40      	ldmia	r7!, {r6}
    257a:	bd00      	pop	{pc}

0000257c <setflags_ram>:
    257c:	0032      	movs	r2, r6
    257e:	cf40      	ldmia	r7!, {r6}
    2580:	4815      	ldr	r0, [pc, #84]	; (25d8 <setflags_ram+0x5c>)
    2582:	6800      	ldr	r0, [r0, #0]
    2584:	3004      	adds	r0, #4
    2586:	8801      	ldrh	r1, [r0, #0]
    2588:	4b10      	ldr	r3, [pc, #64]	; (25cc <setflags_ram+0x50>)
    258a:	4299      	cmp	r1, r3
    258c:	d101      	bne.n	2592 <setflags_ram+0x16>
    258e:	0011      	movs	r1, r2
    2590:	e000      	b.n	2594 <setflags_ram+0x18>
    2592:	4311      	orrs	r1, r2
    2594:	8001      	strh	r1, [r0, #0]
    2596:	bd00      	pop	{pc}
    2598:	f2400000 	vhadd.s8	d16, d0, d0
    259c:	f2c00000 	vaddl.s8	q8, d0, d0
    25a0:	f05f0000 			; <UNDEFINED> instruction: 0xf05f0000
    25a4:	f07f0000 			; <UNDEFINED> instruction: 0xf07f0000
    25a8:	ffc00001 			; <UNDEFINED> instruction: 0xffc00001
    25ac:	ffc00000 			; <UNDEFINED> instruction: 0xffc00000
    25b0:	f000f800 			; <UNDEFINED> instruction: 0xf000f800
    25b4:	1fff8000 	svcne	0x00ff8000
    25b8:	1fff8014 	svcne	0x00ff8014
    25bc:	00002248 	andeq	r2, r0, r8, asr #4
    25c0:	0000209a 	muleq	r0, sl, r0
    25c4:	20007fd8 	ldrdcs	r7, [r0], -r8
    25c8:	1fff8010 	svcne	0x00ff8010
    25cc:	0000ffff 	strdeq	pc, [r0], -pc	; <UNPREDICTABLE>
    25d0:	00000000 	andeq	r0, r0, r0
    25d4:	1fff8020 	svcne	0x00ff8020
    25d8:	1fff8004 	svcne	0x00ff8004

000025dc <Dictionary_536>:
    25dc:	000025f8 	strdeq	r2, [r0], -r8
    25e0:	61070041 	tstvs	r7, r1, asr #32
    25e4:	6e67696c 	cdpvs	9, 6, cr6, cr7, cr12, {3}
    25e8:	20016465 	andcs	r6, r1, r5, ror #8

000025ea <Code_536>:
    25ea:	2001      	movs	r0, #1
    25ec:	4030      	ands	r0, r6
    25ee:	1836      	adds	r6, r6, r0
    25f0:	2002      	movs	r0, #2
    25f2:	4030      	ands	r0, r6
    25f4:	1836      	adds	r6, r6, r0
    25f6:	4770      	bx	lr

000025f8 <Dictionary_537>:
    25f8:	0000261c 	andeq	r2, r0, ip, lsl r6
    25fc:	61050000 	mrsvs	r0, (UNDEF: 5)
    2600:	6e67696c 	cdpvs	9, 6, cr6, cr7, cr12, {3}

00002604 <Code_537>:
    2604:	b500      	push	{lr}
    2606:	487f      	ldr	r0, [pc, #508]	; (2804 <Zweitpointertausch+0x50>)
    2608:	6801      	ldr	r1, [r0, #0]
    260a:	2002      	movs	r0, #2
    260c:	4001      	ands	r1, r0
    260e:	d004      	beq.n	261a <Code_537+0x16>
    2610:	f847 6d04 	str.w	r6, [r7, #-4]!
    2614:	2600      	movs	r6, #0
    2616:	f000 f806 	bl	2626 <Code_540>
    261a:	bd00      	pop	{pc}

0000261c <Dictionary_540>:
    261c:	00002652 	andeq	r2, r0, r2, asr r6
    2620:	68020000 	stmdavs	r2, {}	; <UNPREDICTABLE>
    2624:	b50f002c 	strlt	r0, [pc, #-44]	; 2600 <Dictionary_537+0x8>

00002626 <Code_540>:
    2626:	b50f      	push	{r0, r1, r2, r3, lr}
    2628:	b2b6      	uxth	r6, r6
    262a:	4876      	ldr	r0, [pc, #472]	; (2804 <Zweitpointertausch+0x50>)
    262c:	6801      	ldr	r1, [r0, #0]
    262e:	4a75      	ldr	r2, [pc, #468]	; (2804 <Zweitpointertausch+0x50>)
    2630:	4291      	cmp	r1, r2
    2632:	d205      	bcs.n	2640 <hkomma_ram>
    2634:	f847 6d04 	str.w	r6, [r7, #-4]!
    2638:	000e      	movs	r6, r1
    263a:	f7fe ff36 	bl	14aa <Code_243>
    263e:	e002      	b.n	2646 <hkomma_fertig>

00002640 <hkomma_ram>:
    2640:	0032      	movs	r2, r6
    2642:	cf40      	ldmia	r7!, {r6}
    2644:	800a      	strh	r2, [r1, #0]

00002646 <hkomma_fertig>:
    2646:	f847 6d04 	str.w	r6, [r7, #-4]!
    264a:	2602      	movs	r6, #2
    264c:	f000 f856 	bl	26fc <Code_560>
    2650:	bd0f      	pop	{r0, r1, r2, r3, pc}

00002652 <Dictionary_546>:
    2652:	0000266c 	andeq	r2, r0, ip, ror #12
    2656:	2c010000 	stccs	0, cr0, [r1], {0}

0000265a <Code_546>:
    265a:	b500      	push	{lr}
    265c:	f847 6d04 	str.w	r6, [r7, #-4]!
    2660:	f7ff ffe1 	bl	2626 <Code_540>
    2664:	0c36      	lsrs	r6, r6, #16
    2666:	f7ff ffde 	bl	2626 <Code_540>
    266a:	bd00      	pop	{pc}

0000266c <Dictionary_549>:
    266c:	00002688 	andeq	r2, r0, r8, lsl #13
    2670:	3e030000 	cdpcc	0, 0, cr0, cr3, cr0, {0}
    2674:	b5002c3c 	strlt	r2, [r0, #-3132]	; 0xc3c

00002676 <Code_549>:
    2676:	b500      	push	{lr}
    2678:	f847 6d04 	str.w	r6, [r7, #-4]!
    267c:	0c36      	lsrs	r6, r6, #16
    267e:	f7ff ffd2 	bl	2626 <Code_540>
    2682:	f7ff ffd0 	bl	2626 <Code_540>
    2686:	bd00      	pop	{pc}

00002688 <Dictionary_552>:
    2688:	000026f0 	strdeq	r2, [r0], -r0
    268c:	73070000 	movwvc	r0, #28672	; 0x7000
    2690:	6e697274 	mcrvs	2, 3, r7, cr9, cr4, {3}
    2694:	b5072c67 	strlt	r2, [r7, #-3175]	; 0xc67

00002696 <Code_552>:
    2696:	b507      	push	{r0, r1, r2, lr}
    2698:	21ff      	movs	r1, #255	; 0xff
    269a:	4031      	ands	r1, r6
    269c:	cf40      	ldmia	r7!, {r6}
    269e:	0030      	movs	r0, r6
    26a0:	cf40      	ldmia	r7!, {r6}
    26a2:	2900      	cmp	r1, #0
    26a4:	d105      	bne.n	26b2 <Code_552+0x1c>
    26a6:	f847 6d04 	str.w	r6, [r7, #-4]!
    26aa:	2600      	movs	r6, #0
    26ac:	f7ff ffbb 	bl	2626 <Code_540>
    26b0:	bd07      	pop	{r0, r1, r2, pc}
    26b2:	f847 6d04 	str.w	r6, [r7, #-4]!
    26b6:	7806      	ldrb	r6, [r0, #0]
    26b8:	0236      	lsls	r6, r6, #8
    26ba:	430e      	orrs	r6, r1
    26bc:	f7ff ffb3 	bl	2626 <Code_540>
    26c0:	3001      	adds	r0, #1
    26c2:	3901      	subs	r1, #1
    26c4:	2902      	cmp	r1, #2
    26c6:	d30a      	bcc.n	26de <Code_552+0x48>
    26c8:	f847 6d04 	str.w	r6, [r7, #-4]!
    26cc:	7846      	ldrb	r6, [r0, #1]
    26ce:	0236      	lsls	r6, r6, #8
    26d0:	7802      	ldrb	r2, [r0, #0]
    26d2:	4316      	orrs	r6, r2
    26d4:	f7ff ffa7 	bl	2626 <Code_540>
    26d8:	3002      	adds	r0, #2
    26da:	3902      	subs	r1, #2
    26dc:	e7f2      	b.n	26c4 <Code_552+0x2e>
    26de:	2900      	cmp	r1, #0
    26e0:	d100      	bne.n	26e4 <Code_552+0x4e>
    26e2:	bd07      	pop	{r0, r1, r2, pc}
    26e4:	f847 6d04 	str.w	r6, [r7, #-4]!
    26e8:	7806      	ldrb	r6, [r0, #0]
    26ea:	f7ff ff9c 	bl	2626 <Code_540>
    26ee:	bd07      	pop	{r0, r1, r2, pc}

000026f0 <Dictionary_560>:
    26f0:	0000274a 	andeq	r2, r0, sl, asr #14
    26f4:	61050000 	mrsvs	r0, (UNDEF: 5)
    26f8:	746f6c6c 	strbtvc	r6, [pc], #-3180	; 2700 <Code_560+0x4>

000026fc <Code_560>:
    26fc:	4841      	ldr	r0, [pc, #260]	; (2804 <Zweitpointertausch+0x50>)
    26fe:	6801      	ldr	r1, [r0, #0]
    2700:	4a40      	ldr	r2, [pc, #256]	; (2804 <Zweitpointertausch+0x50>)
    2702:	4291      	cmp	r1, r2
    2704:	d20f      	bcs.n	2726 <allot_ram>
    2706:	0032      	movs	r2, r6
    2708:	cf40      	ldmia	r7!, {r6}
    270a:	1889      	adds	r1, r1, r2
    270c:	4a3e      	ldr	r2, [pc, #248]	; (2808 <Zweitpointertausch+0x54>)
    270e:	4291      	cmp	r1, r2
    2710:	d319      	bcc.n	2746 <allot_ok>
    2712:	f7ff fa6c 	bl	1bee <dotgaensefuesschen>
    2716:	616c460b 	cmnvs	ip, fp, lsl #12
    271a:	66206873 			; <UNDEFINED> instruction: 0x66206873
    271e:	0a6c6c75 	beq	1b1d8fa <BIT24+0xb1d8fa>
    2722:	f001 b909 	b.w	3938 <Code_921>

00002726 <allot_ram>:
    2726:	0032      	movs	r2, r6
    2728:	cf40      	ldmia	r7!, {r6}
    272a:	1889      	adds	r1, r1, r2
    272c:	4a37      	ldr	r2, [pc, #220]	; (280c <Zweitpointertausch+0x58>)
    272e:	6812      	ldr	r2, [r2, #0]
    2730:	4291      	cmp	r1, r2
    2732:	d308      	bcc.n	2746 <allot_ok>
    2734:	f7ff fa5b 	bl	1bee <dotgaensefuesschen>
    2738:	6d615209 	sfmvs	f5, 2, [r1, #-36]!	; 0xffffffdc
    273c:	6c756620 	ldclvs	6, cr6, [r5], #-128	; 0xffffff80
    2740:	f0010a6c 			; <UNDEFINED> instruction: 0xf0010a6c
    2744:	b8f9      			; <UNDEFINED> instruction: 0xb8f9

00002746 <allot_ok>:
    2746:	6001      	str	r1, [r0, #0]
    2748:	4770      	bx	lr

0000274a <Dictionary_565>:
    274a:	00002772 	andeq	r2, r0, r2, ror r7
    274e:	630d0000 	movwvs	r0, #53248	; 0xd000
    2752:	69706d6f 	ldmdbvs	r0!, {r0, r1, r2, r3, r5, r6, r8, sl, fp, sp, lr}^
    2756:	6f74656c 	svcvs	0x0074656c
    275a:	3f6d6172 	svccc	0x006d6172

0000275e <Code_565>:
    275e:	f847 6d04 	str.w	r6, [r7, #-4]!
    2762:	2600      	movs	r6, #0
    2764:	4827      	ldr	r0, [pc, #156]	; (2804 <Zweitpointertausch+0x50>)
    2766:	6800      	ldr	r0, [r0, #0]
    2768:	4926      	ldr	r1, [pc, #152]	; (2804 <Zweitpointertausch+0x50>)
    276a:	4288      	cmp	r0, r1
    276c:	d348      	bcc.n	2800 <Zweitpointertausch+0x4c>
    276e:	43f6      	mvns	r6, r6
    2770:	4770      	bx	lr

00002772 <Dictionary_568>:
    2772:	00002792 	muleq	r0, r2, r7
    2776:	630c0000 	movwvs	r0, #49152	; 0xc000
    277a:	69706d6f 	ldmdbvs	r0!, {r0, r1, r2, r3, r5, r6, r8, sl, fp, sp, lr}^
    277e:	6f74656c 	svcvs	0x0074656c
    2782:	006d6172 	rsbeq	r6, sp, r2, ror r1

00002786 <Code_568>:
    2786:	481f      	ldr	r0, [pc, #124]	; (2804 <Zweitpointertausch+0x50>)
    2788:	6800      	ldr	r0, [r0, #0]
    278a:	491e      	ldr	r1, [pc, #120]	; (2804 <Zweitpointertausch+0x50>)
    278c:	4288      	cmp	r0, r1
    278e:	d311      	bcc.n	27b4 <Zweitpointertausch>
    2790:	4770      	bx	lr

00002792 <Dictionary_569>:
    2792:	0000281c 	andeq	r2, r0, ip, lsl r8
    2796:	630e0000 	movwvs	r0, #57344	; 0xe000
    279a:	69706d6f 	ldmdbvs	r0!, {r0, r1, r2, r3, r5, r6, r8, sl, fp, sp, lr}^
    279e:	6f74656c 	svcvs	0x0074656c
    27a2:	73616c66 	cmnvc	r1, #26112	; 0x6600
    27a6:	48160068 	ldmdami	r6, {r3, r5, r6}

000027a8 <Code_569>:
    27a8:	4816      	ldr	r0, [pc, #88]	; (2804 <Zweitpointertausch+0x50>)
    27aa:	6800      	ldr	r0, [r0, #0]
    27ac:	4915      	ldr	r1, [pc, #84]	; (2804 <Zweitpointertausch+0x50>)
    27ae:	4288      	cmp	r0, r1
    27b0:	d200      	bcs.n	27b4 <Zweitpointertausch>
    27b2:	4770      	bx	lr

000027b4 <Zweitpointertausch>:
    27b4:	4816      	ldr	r0, [pc, #88]	; (2810 <Zweitpointertausch+0x5c>)
    27b6:	4917      	ldr	r1, [pc, #92]	; (2814 <Zweitpointertausch+0x60>)
    27b8:	6802      	ldr	r2, [r0, #0]
    27ba:	680b      	ldr	r3, [r1, #0]
    27bc:	600a      	str	r2, [r1, #0]
    27be:	6003      	str	r3, [r0, #0]
    27c0:	4810      	ldr	r0, [pc, #64]	; (2804 <Zweitpointertausch+0x50>)
    27c2:	4915      	ldr	r1, [pc, #84]	; (2818 <Zweitpointertausch+0x64>)
    27c4:	6802      	ldr	r2, [r0, #0]
    27c6:	680b      	ldr	r3, [r1, #0]
    27c8:	600a      	str	r2, [r1, #0]
    27ca:	6003      	str	r3, [r0, #0]
    27cc:	480f      	ldr	r0, [pc, #60]	; (280c <Zweitpointertausch+0x58>)
    27ce:	6800      	ldr	r0, [r0, #0]
    27d0:	4283      	cmp	r3, r0
    27d2:	d315      	bcc.n	2800 <Zweitpointertausch+0x4c>
    27d4:	b500      	push	{lr}
    27d6:	f7ff fa0a 	bl	1bee <dotgaensefuesschen>
    27da:	61562023 	cmpvs	r6, r3, lsr #32
    27de:	62616972 	rsbvs	r6, r1, #1867776	; 0x1c8000
    27e2:	2073656c 	rsbscs	r6, r3, ip, ror #10
    27e6:	6c6c6f63 	stclvs	15, cr6, [ip], #-396	; 0xfffffe74
    27ea:	20656469 	rsbcs	r6, r5, r9, ror #8
    27ee:	68746977 	ldmdavs	r4!, {r0, r1, r2, r4, r5, r6, r8, fp, sp, lr}^
    27f2:	63696420 	cmnvs	r9, #536870912	; 0x20000000
    27f6:	6e6f6974 	mcrvs	9, 3, r6, cr15, cr4, {3}
    27fa:	0a797261 	beq	1e5f186 <BIT24+0xe5f186>
    27fe:	bd00      	pop	{pc}
    2800:	4770      	bx	lr
    2802:	80000000 	andhi	r0, r0, r0
    2806:	00001fff 	strdeq	r1, [r0], -pc	; <UNPREDICTABLE>
    280a:	80240004 	eorhi	r0, r4, r4
    280e:	80041fff 	strdhi	r1, [r4], -pc	; <UNPREDICTABLE>
    2812:	801c1fff 			; <UNDEFINED> instruction: 0x801c1fff
    2816:	80181fff 			; <UNDEFINED> instruction: 0x80181fff
    281a:	29061fff 	stmdbcs	r6, {r0, r1, r2, r3, r4, r5, r6, r7, r8, r9, sl, fp, ip}

0000281c <Dictionary_571>:
    281c:	00002906 	andeq	r2, r0, r6, lsl #18
    2820:	28080000 	stmdacs	r8, {}	; <UNPREDICTABLE>
    2824:	61657263 	cmnvs	r5, r3, ror #4
    2828:	00296574 	eoreq	r6, r9, r4, ror r5

0000282c <Code_571>:
    282c:	b500      	push	{lr}
    282e:	f000 fcfb 	bl	3228 <Code_794>
    2832:	2e00      	cmp	r6, #0
    2834:	d10e      	bne.n	2854 <Code_571+0x28>
    2836:	f7ff f9da 	bl	1bee <dotgaensefuesschen>
    283a:	72432015 	subvc	r2, r3, #21
    283e:	65746165 	ldrbvs	r6, [r4, #-357]!	; 0x165
    2842:	65656e20 	strbvs	r6, [r5, #-3616]!	; 0xe20
    2846:	6e207364 	cdpvs	3, 2, cr7, cr0, cr4, {3}
    284a:	20656d61 	rsbcs	r6, r5, r1, ror #26
    284e:	f0010a21 			; <UNDEFINED> instruction: 0xf0010a21
    2852:	b872      			; <UNDEFINED> instruction: 0xb872
    2854:	6838      	ldr	r0, [r7, #0]
    2856:	f847 6d04 	str.w	r6, [r7, #-4]!
    285a:	3f04      	subs	r7, #4
    285c:	6038      	str	r0, [r7, #0]
    285e:	f000 f99e 	bl	2b9e <Code_634>
    2862:	cf40      	ldmia	r7!, {r6}
    2864:	2e00      	cmp	r6, #0
    2866:	cf40      	ldmia	r7!, {r6}
    2868:	d011      	beq.n	288e <Code_571+0x62>
    286a:	6838      	ldr	r0, [r7, #0]
    286c:	f847 6d04 	str.w	r6, [r7, #-4]!
    2870:	3f04      	subs	r7, #4
    2872:	6038      	str	r0, [r7, #0]
    2874:	f7ff f9bb 	bl	1bee <dotgaensefuesschen>
    2878:	64655209 	strbtvs	r5, [r5], #-521	; 0x209
    287c:	6e696665 	cdpvs	6, 6, cr6, cr9, cr5, {3}
    2880:	f7ff2065 			; <UNDEFINED> instruction: 0xf7ff2065
    2884:	fa10 f7ff 			; <UNDEFINED> instruction: 0xfa10f7ff
    2888:	f9b2 2e02 	ldrsh.w	r2, [r2, #3586]	; 0xe02
    288c:	f7ff000a 			; <UNDEFINED> instruction: 0xf7ff000a
    2890:	feb9 f000 	cdp2	0, 11, cr15, cr9, cr0, {0}
    2894:	fa0d 488e 			; <UNDEFINED> instruction: 0xfa0d488e
    2898:	6800      	ldr	r0, [r0, #0]
    289a:	498d      	ldr	r1, [pc, #564]	; (2ad0 <rambuffer_ram+0x44>)
    289c:	4288      	cmp	r0, r1
    289e:	d21c      	bcs.n	28da <create_ram>
    28a0:	488c      	ldr	r0, [pc, #560]	; (2ad4 <rambuffer_ram+0x48>)
    28a2:	2100      	movs	r1, #0
    28a4:	6001      	str	r1, [r0, #0]
    28a6:	f847 6d04 	str.w	r6, [r7, #-4]!
    28aa:	2606      	movs	r6, #6
    28ac:	f7ff ff26 	bl	26fc <Code_560>
    28b0:	f7fe f94d 	bl	b4e <Code_134>
    28b4:	f7ff feef 	bl	2696 <Code_552>
    28b8:	4887      	ldr	r0, [pc, #540]	; (2ad8 <rambuffer_ram+0x4c>)
    28ba:	6801      	ldr	r1, [r0, #0]
    28bc:	680a      	ldr	r2, [r1, #0]
    28be:	4b87      	ldr	r3, [pc, #540]	; (2adc <rambuffer_ram+0x50>)
    28c0:	429a      	cmp	r2, r3
    28c2:	d107      	bne.n	28d4 <Code_571+0xa8>
    28c4:	4a82      	ldr	r2, [pc, #520]	; (2ad0 <rambuffer_ram+0x44>)
    28c6:	6813      	ldr	r3, [r2, #0]
    28c8:	6011      	str	r1, [r2, #0]
    28ca:	f847 6d04 	str.w	r6, [r7, #-4]!
    28ce:	f7ff fec4 	bl	265a <Code_546>
    28d2:	6013      	str	r3, [r2, #0]
    28d4:	6006      	str	r6, [r0, #0]
    28d6:	cf40      	ldmia	r7!, {r6}
    28d8:	e010      	b.n	28fc <create_ende>

000028da <create_ram>:
    28da:	487f      	ldr	r0, [pc, #508]	; (2ad8 <rambuffer_ram+0x4c>)
    28dc:	f847 6d04 	str.w	r6, [r7, #-4]!
    28e0:	6806      	ldr	r6, [r0, #0]
    28e2:	f7ff feba 	bl	265a <Code_546>
    28e6:	f847 6d04 	str.w	r6, [r7, #-4]!
    28ea:	4e7d      	ldr	r6, [pc, #500]	; (2ae0 <rambuffer_ram+0x54>)
    28ec:	f7ff fe9b 	bl	2626 <Code_540>
    28f0:	4879      	ldr	r0, [pc, #484]	; (2ad8 <rambuffer_ram+0x4c>)
    28f2:	0031      	movs	r1, r6
    28f4:	cf40      	ldmia	r7!, {r6}
    28f6:	6001      	str	r1, [r0, #0]
    28f8:	f7ff fecd 	bl	2696 <Code_552>

000028fc <create_ende>:
    28fc:	4874      	ldr	r0, [pc, #464]	; (2ad0 <rambuffer_ram+0x44>)
    28fe:	6801      	ldr	r1, [r0, #0]
    2900:	4878      	ldr	r0, [pc, #480]	; (2ae4 <rambuffer_ram+0x58>)
    2902:	6001      	str	r1, [r0, #0]
    2904:	bd00      	pop	{pc}

00002906 <Dictionary_589>:
    2906:	0000291e 	andeq	r2, r0, lr, lsl r9
    290a:	76080000 	strvc	r0, [r8], -r0
    290e:	61697261 	cmnvs	r9, r1, ror #4
    2912:	00656c62 	rsbeq	r6, r5, r2, ror #24

00002916 <Code_589>:
    2916:	f847 6d04 	str.w	r6, [r7, #-4]!
    291a:	2601      	movs	r6, #1
    291c:	e013      	b.n	2946 <Code_595>

0000291e <Dictionary_592>:
    291e:	00002936 	andeq	r2, r0, r6, lsr r9
    2922:	32090000 	andcc	r0, r9, #0
    2926:	69726176 	ldmdbvs	r2!, {r1, r2, r4, r5, r6, r8, sp, lr}^
    292a:	656c6261 	strbvs	r6, [ip, #-609]!	; 0x261

0000292e <Code_592>:
    292e:	f847 6d04 	str.w	r6, [r7, #-4]!
    2932:	2602      	movs	r6, #2
    2934:	e007      	b.n	2946 <Code_595>

00002936 <Dictionary_595>:
    2936:	00002a10 	andeq	r2, r0, r0, lsl sl
    293a:	6e090000 	cdpvs	0, 0, cr0, cr9, cr0, {0}
    293e:	69726176 	ldmdbvs	r2!, {r1, r2, r4, r5, r6, r8, sp, lr}^
    2942:	656c6261 	strbvs	r6, [ip, #-609]!	; 0x261

00002946 <Code_595>:
    2946:	b500      	push	{lr}
    2948:	f7ff ff70 	bl	282c <Code_571>
    294c:	4860      	ldr	r0, [pc, #384]	; (2ad0 <rambuffer_ram+0x44>)
    294e:	6801      	ldr	r1, [r0, #0]
    2950:	4a5f      	ldr	r2, [pc, #380]	; (2ad0 <rambuffer_ram+0x44>)
    2952:	4291      	cmp	r1, r2
    2954:	d234      	bcs.n	29c0 <variable_ram>
    2956:	200f      	movs	r0, #15
    2958:	4006      	ands	r6, r0
    295a:	00b2      	lsls	r2, r6, #2
    295c:	4862      	ldr	r0, [pc, #392]	; (2ae8 <rambuffer_ram+0x5c>)
    295e:	6801      	ldr	r1, [r0, #0]
    2960:	1a89      	subs	r1, r1, r2
    2962:	4a62      	ldr	r2, [pc, #392]	; (2aec <rambuffer_ram+0x60>)
    2964:	4291      	cmp	r1, r2
    2966:	d20b      	bcs.n	2980 <Code_595+0x3a>
    2968:	f7ff f941 	bl	1bee <dotgaensefuesschen>
    296c:	746f4e0f 	strbtvc	r4, [pc], #-3599	; 2974 <Code_595+0x2e>
    2970:	6f6e6520 	svcvs	0x006e6520
    2974:	20686775 	rsbcs	r6, r8, r5, ror r7
    2978:	0a4d4152 	beq	1352ec8 <BIT24+0x352ec8>
    297c:	f000 bfdc 	b.w	3938 <Code_921>
    2980:	6001      	str	r1, [r0, #0]
    2982:	f847 6d04 	str.w	r6, [r7, #-4]!
    2986:	000e      	movs	r6, r1
    2988:	f7ff fbbc 	bl	2104 <Code_439>
    298c:	f847 6d04 	str.w	r6, [r7, #-4]!
    2990:	f244 7670 	movw	r6, #18288	; 0x4770
    2994:	f7ff fe47 	bl	2626 <Code_540>
    2998:	0030      	movs	r0, r6
    299a:	cf40      	ldmia	r7!, {r6}
    299c:	0002      	movs	r2, r0
    299e:	2800      	cmp	r0, #0
    29a0:	d005      	beq.n	29ae <Code_595+0x68>
    29a2:	600e      	str	r6, [r1, #0]
    29a4:	3104      	adds	r1, #4
    29a6:	f7ff fe58 	bl	265a <Code_546>
    29aa:	3801      	subs	r0, #1
    29ac:	d1f9      	bne.n	29a2 <Code_595+0x5c>
    29ae:	f847 6d04 	str.w	r6, [r7, #-4]!
    29b2:	2680      	movs	r6, #128	; 0x80
    29b4:	4316      	orrs	r6, r2
    29b6:	f7ff fdd5 	bl	2564 <Code_533>
    29ba:	f7ff fda2 	bl	2502 <Code_527>
    29be:	bd00      	pop	{pc}

000029c0 <variable_ram>:
    29c0:	f000 f976 	bl	2cb0 <Code_656>
    29c4:	2002      	movs	r0, #2
    29c6:	4006      	ands	r6, r0
    29c8:	cf40      	ldmia	r7!, {r6}
    29ca:	d104      	bne.n	29d6 <variable_ram+0x16>
    29cc:	f847 6d04 	str.w	r6, [r7, #-4]!
    29d0:	2636      	movs	r6, #54	; 0x36
    29d2:	f7ff fe28 	bl	2626 <Code_540>
    29d6:	f847 6d04 	str.w	r6, [r7, #-4]!
    29da:	4e45      	ldr	r6, [pc, #276]	; (2af0 <rambuffer_ram+0x64>)
    29dc:	f7ff fe4b 	bl	2676 <Code_549>
    29e0:	f847 6d04 	str.w	r6, [r7, #-4]!
    29e4:	4e43      	ldr	r6, [pc, #268]	; (2af4 <rambuffer_ram+0x68>)
    29e6:	f7ff fe46 	bl	2676 <Code_549>
    29ea:	f847 6d04 	str.w	r6, [r7, #-4]!
    29ee:	f244 7670 	movw	r6, #18288	; 0x4770
    29f2:	f7ff fe18 	bl	2626 <Code_540>
    29f6:	0030      	movs	r0, r6
    29f8:	cf40      	ldmia	r7!, {r6}
    29fa:	2800      	cmp	r0, #0
    29fc:	d003      	beq.n	2a06 <variable_ram+0x46>
    29fe:	f7ff fe2c 	bl	265a <Code_546>
    2a02:	3801      	subs	r0, #1
    2a04:	d1fb      	bne.n	29fe <variable_ram+0x3e>
    2a06:	f7ff fced 	bl	23e4 <Code_498>
    2a0a:	f7ff fd7a 	bl	2502 <Code_527>
    2a0e:	bd00      	pop	{pc}

00002a10 <Dictionary_612>:
    2a10:	00002af8 	strdeq	r2, [r0], -r8
    2a14:	62070000 	andvs	r0, r7, #0
    2a18:	65666675 	strbvs	r6, [r6, #-1653]!	; 0x675
    2a1c:	b5003a72 	strlt	r3, [r0, #-2674]	; 0xa72

00002a1e <Code_612>:
    2a1e:	b500      	push	{lr}
    2a20:	f7ff ff04 	bl	282c <Code_571>
    2a24:	2001      	movs	r0, #1
    2a26:	4030      	ands	r0, r6
    2a28:	1836      	adds	r6, r6, r0
    2a2a:	2002      	movs	r0, #2
    2a2c:	4030      	ands	r0, r6
    2a2e:	1836      	adds	r6, r6, r0
    2a30:	4827      	ldr	r0, [pc, #156]	; (2ad0 <rambuffer_ram+0x44>)
    2a32:	6801      	ldr	r1, [r0, #0]
    2a34:	4a26      	ldr	r2, [pc, #152]	; (2ad0 <rambuffer_ram+0x44>)
    2a36:	4291      	cmp	r1, r2
    2a38:	d228      	bcs.n	2a8c <rambuffer_ram>
    2a3a:	482b      	ldr	r0, [pc, #172]	; (2ae8 <rambuffer_ram+0x5c>)
    2a3c:	6801      	ldr	r1, [r0, #0]
    2a3e:	1b89      	subs	r1, r1, r6
    2a40:	4a2a      	ldr	r2, [pc, #168]	; (2aec <rambuffer_ram+0x60>)
    2a42:	4291      	cmp	r1, r2
    2a44:	d20b      	bcs.n	2a5e <Code_612+0x40>
    2a46:	f7ff f8d2 	bl	1bee <dotgaensefuesschen>
    2a4a:	746f4e0f 	strbtvc	r4, [pc], #-3599	; 2a52 <Code_612+0x34>
    2a4e:	6f6e6520 	svcvs	0x006e6520
    2a52:	20686775 	rsbcs	r6, r8, r5, ror r7
    2a56:	0a4d4152 	beq	1352fa6 <BIT24+0x352fa6>
    2a5a:	f000 bf6d 	b.w	3938 <Code_921>
    2a5e:	6001      	str	r1, [r0, #0]
    2a60:	f847 6d04 	str.w	r6, [r7, #-4]!
    2a64:	000e      	movs	r6, r1
    2a66:	f7ff fb4d 	bl	2104 <Code_439>
    2a6a:	f847 6d04 	str.w	r6, [r7, #-4]!
    2a6e:	f244 7670 	movw	r6, #18288	; 0x4770
    2a72:	f7ff fdd8 	bl	2626 <Code_540>
    2a76:	f7ff fdf0 	bl	265a <Code_546>
    2a7a:	f847 6d04 	str.w	r6, [r7, #-4]!
    2a7e:	f240 1640 	movw	r6, #320	; 0x140
    2a82:	f7ff fd6f 	bl	2564 <Code_533>
    2a86:	f7ff fd3c 	bl	2502 <Code_527>
    2a8a:	bd00      	pop	{pc}

00002a8c <rambuffer_ram>:
    2a8c:	f000 f910 	bl	2cb0 <Code_656>
    2a90:	2002      	movs	r0, #2
    2a92:	4006      	ands	r6, r0
    2a94:	cf40      	ldmia	r7!, {r6}
    2a96:	d104      	bne.n	2aa2 <rambuffer_ram+0x16>
    2a98:	f847 6d04 	str.w	r6, [r7, #-4]!
    2a9c:	2636      	movs	r6, #54	; 0x36
    2a9e:	f7ff fdc2 	bl	2626 <Code_540>
    2aa2:	f847 6d04 	str.w	r6, [r7, #-4]!
    2aa6:	4e12      	ldr	r6, [pc, #72]	; (2af0 <rambuffer_ram+0x64>)
    2aa8:	f7ff fde5 	bl	2676 <Code_549>
    2aac:	f847 6d04 	str.w	r6, [r7, #-4]!
    2ab0:	4e10      	ldr	r6, [pc, #64]	; (2af4 <rambuffer_ram+0x68>)
    2ab2:	f7ff fde0 	bl	2676 <Code_549>
    2ab6:	f847 6d04 	str.w	r6, [r7, #-4]!
    2aba:	f244 7670 	movw	r6, #18288	; 0x4770
    2abe:	f7ff fdb2 	bl	2626 <Code_540>
    2ac2:	f7ff fe1b 	bl	26fc <Code_560>
    2ac6:	f7ff fc8d 	bl	23e4 <Code_498>
    2aca:	f7ff fd1a 	bl	2502 <Code_527>
    2ace:	bd00      	pop	{pc}
    2ad0:	1fff8000 	svcne	0x00ff8000
    2ad4:	1fff8020 	svcne	0x00ff8020
    2ad8:	1fff8004 	svcne	0x00ff8004
    2adc:	ffffffff 			; <UNDEFINED> instruction: 0xffffffff
    2ae0:	0000ffff 	strdeq	pc, [r0], -pc	; <UNPREDICTABLE>
    2ae4:	1fff8014 	svcne	0x00ff8014
    2ae8:	1fff8024 	svcne	0x00ff8024
    2aec:	1fff83f0 	svcne	0x00ff83f0
    2af0:	3f04603e 	svccc	0x0004603e
    2af4:	467e3602 	ldrbtmi	r3, [lr], -r2, lsl #12

00002af8 <Dictionary_627>:
    2af8:	00002b26 	andeq	r2, r0, r6, lsr #22
    2afc:	640f0000 	strvs	r0, [pc], #0	; 2b04 <Dictionary_627+0xc>
    2b00:	69746369 	ldmdbvs	r4!, {r0, r3, r5, r6, r8, r9, sp, lr}^
    2b04:	72616e6f 	rsbvc	r6, r1, #1776	; 0x6f0
    2b08:	61747379 	cmnvs	r4, r9, ror r3
    2b0c:	48ea7472 	stmiami	sl!, {r1, r4, r5, r6, sl, ip, sp, lr}^

00002b0e <Code_627>:
    2b0e:	48ea      	ldr	r0, [pc, #936]	; (2eb8 <Code_703+0xe>)
    2b10:	6800      	ldr	r0, [r0, #0]
    2b12:	49e9      	ldr	r1, [pc, #932]	; (2eb8 <Code_703+0xe>)
    2b14:	f847 6d04 	str.w	r6, [r7, #-4]!
    2b18:	4288      	cmp	r0, r1
    2b1a:	d201      	bcs.n	2b20 <Code_627+0x12>
    2b1c:	4ee7      	ldr	r6, [pc, #924]	; (2ebc <Code_703+0x12>)
    2b1e:	4770      	bx	lr
    2b20:	4ee7      	ldr	r6, [pc, #924]	; (2ec0 <Code_703+0x16>)
    2b22:	6836      	ldr	r6, [r6, #0]
    2b24:	4770      	bx	lr

00002b26 <Dictionary_629>:
    2b26:	00002b60 	andeq	r2, r0, r0, ror #22
    2b2a:	640e0000 	strvs	r0, [lr]
    2b2e:	69746369 	ldmdbvs	r4!, {r0, r3, r5, r6, r8, r9, sp, lr}^
    2b32:	72616e6f 	rsbvc	r6, r1, #1776	; 0x6f0
    2b36:	78656e79 	stmdavc	r5!, {r0, r3, r4, r5, r6, r9, sl, fp, sp, lr}^
    2b3a:	b5030074 	strlt	r0, [r3, #-116]	; 0x74

00002b3c <Code_629>:
    2b3c:	b503      	push	{r0, r1, lr}
    2b3e:	6831      	ldr	r1, [r6, #0]
    2b40:	48e0      	ldr	r0, [pc, #896]	; (2ec4 <Code_703+0x1a>)
    2b42:	4281      	cmp	r1, r0
    2b44:	d007      	beq.n	2b56 <Code_629+0x1a>
    2b46:	7988      	ldrb	r0, [r1, #6]
    2b48:	28ff      	cmp	r0, #255	; 0xff
    2b4a:	d004      	beq.n	2b56 <Code_629+0x1a>
    2b4c:	000e      	movs	r6, r1
    2b4e:	f847 6d04 	str.w	r6, [r7, #-4]!
    2b52:	2600      	movs	r6, #0
    2b54:	bd03      	pop	{r0, r1, pc}
    2b56:	f847 6d04 	str.w	r6, [r7, #-4]!
    2b5a:	2600      	movs	r6, #0
    2b5c:	43f6      	mvns	r6, r6
    2b5e:	bd03      	pop	{r0, r1, pc}

00002b60 <Dictionary_633>:
    2b60:	00002b92 	muleq	r0, r2, fp
    2b64:	730a0000 	movwvc	r0, #40960	; 0xa000
    2b68:	7370696b 	cmnvc	r0, #1753088	; 0x1ac000
    2b6c:	6e697274 	mcrvs	2, 3, r7, cr9, cr4, {3}
    2b70:	78310067 	ldmdavc	r1!, {r0, r1, r2, r5, r6}

00002b72 <Code_633>:
    2b72:	7831      	ldrb	r1, [r6, #0]
    2b74:	3101      	adds	r1, #1
    2b76:	2201      	movs	r2, #1
    2b78:	400a      	ands	r2, r1
    2b7a:	1889      	adds	r1, r1, r2
    2b7c:	1876      	adds	r6, r6, r1
    2b7e:	4770      	bx	lr

00002b80 <skipstring>:
    2b80:	b406      	push	{r1, r2}
    2b82:	7801      	ldrb	r1, [r0, #0]
    2b84:	3101      	adds	r1, #1
    2b86:	2201      	movs	r2, #1
    2b88:	400a      	ands	r2, r1
    2b8a:	1889      	adds	r1, r1, r2
    2b8c:	1840      	adds	r0, r0, r1
    2b8e:	bc06      	pop	{r1, r2}
    2b90:	4770      	bx	lr

00002b92 <Dictionary_634>:
    2b92:	00002c12 	andeq	r2, r0, r2, lsl ip
    2b96:	66040000 	strvs	r0, [r4], -r0
    2b9a:	00646e69 	rsbeq	r6, r4, r9, ror #28

00002b9e <Code_634>:
    2b9e:	b53f      	push	{r0, r1, r2, r3, r4, r5, lr}
    2ba0:	2200      	movs	r2, #0
    2ba2:	2300      	movs	r3, #0
    2ba4:	0035      	movs	r5, r6
    2ba6:	cf40      	ldmia	r7!, {r6}
    2ba8:	0034      	movs	r4, r6
    2baa:	cf40      	ldmia	r7!, {r6}
    2bac:	f7ff ffaf 	bl	2b0e <Code_627>
    2bb0:	48c5      	ldr	r0, [pc, #788]	; (2ec8 <Code_703+0x1e>)
    2bb2:	88b1      	ldrh	r1, [r6, #4]
    2bb4:	4288      	cmp	r0, r1
    2bb6:	d017      	beq.n	2be8 <Code_634+0x4a>
    2bb8:	f847 6d04 	str.w	r6, [r7, #-4]!
    2bbc:	3606      	adds	r6, #6
    2bbe:	f7ff f852 	bl	1c66 <Code_366>
    2bc2:	f847 6d04 	str.w	r6, [r7, #-4]!
    2bc6:	0026      	movs	r6, r4
    2bc8:	f847 6d04 	str.w	r6, [r7, #-4]!
    2bcc:	002e      	movs	r6, r5
    2bce:	f7fe ff84 	bl	1ada <Code_328>
    2bd2:	2e00      	cmp	r6, #0
    2bd4:	cf40      	ldmia	r7!, {r6}
    2bd6:	d007      	beq.n	2be8 <Code_634+0x4a>
    2bd8:	1db0      	adds	r0, r6, #6
    2bda:	f7ff ffd1 	bl	2b80 <skipstring>
    2bde:	0002      	movs	r2, r0
    2be0:	000b      	movs	r3, r1
    2be2:	48b5      	ldr	r0, [pc, #724]	; (2eb8 <Code_703+0xe>)
    2be4:	4282      	cmp	r2, r0
    2be6:	d204      	bcs.n	2bf2 <Code_634+0x54>
    2be8:	f7ff ffa8 	bl	2b3c <Code_629>
    2bec:	0030      	movs	r0, r6
    2bee:	cf40      	ldmia	r7!, {r6}
    2bf0:	d0de      	beq.n	2bb0 <Code_634+0x12>
    2bf2:	0016      	movs	r6, r2
    2bf4:	f847 6d04 	str.w	r6, [r7, #-4]!
    2bf8:	001e      	movs	r6, r3
    2bfa:	bd3f      	pop	{r0, r1, r2, r3, r4, r5, pc}

00002bfc <find_not_found>:
    2bfc:	b500      	push	{lr}
    2bfe:	0031      	movs	r1, r6
    2c00:	6838      	ldr	r0, [r7, #0]
    2c02:	f7ff ffcc 	bl	2b9e <Code_634>
    2c06:	683a      	ldr	r2, [r7, #0]
    2c08:	2a00      	cmp	r2, #0
    2c0a:	d101      	bne.n	2c10 <find_not_found+0x14>
    2c0c:	f000 fd66 	bl	36dc <not_found_addr_r0_len_r1>
    2c10:	bd00      	pop	{pc}

00002c12 <Dictionary_647>:
    2c12:	00002c6c 	andeq	r2, r0, ip, ror #24
    2c16:	63060000 	movwvs	r0, #24576	; 0x6000
    2c1a:	706d756a 	rsbvc	r7, sp, sl, ror #10
    2c1e:	0032002c 	eorseq	r0, r2, ip, lsr #32

00002c20 <Code_647>:
    2c20:	0032      	movs	r2, r6
    2c22:	cf40      	ldmia	r7!, {r6}
    2c24:	0031      	movs	r1, r6
    2c26:	cf40      	ldmia	r7!, {r6}
    2c28:	1b8b      	subs	r3, r1, r6
    2c2a:	3b04      	subs	r3, #4
    2c2c:	49a7      	ldr	r1, [pc, #668]	; (2ecc <Code_703+0x22>)
    2c2e:	4019      	ands	r1, r3
    2c30:	2900      	cmp	r1, #0
    2c32:	d00d      	beq.n	2c50 <jump_too_far+0x16>
    2c34:	48a6      	ldr	r0, [pc, #664]	; (2ed0 <Code_703+0x26>)
    2c36:	4281      	cmp	r1, r0
    2c38:	d00a      	beq.n	2c50 <jump_too_far+0x16>

00002c3a <jump_too_far>:
    2c3a:	f7fe ffd8 	bl	1bee <dotgaensefuesschen>
    2c3e:	6d754a0d 	vldmdbvs	r5!, {s9-s21}
    2c42:	6f742070 	svcvs	0x00742070
    2c46:	6166206f 	cmnvs	r6, pc, rrx
    2c4a:	f0000a72 			; <UNDEFINED> instruction: 0xf0000a72
    2c4e:	be74      	bkpt	0x0074
    2c50:	105b      	asrs	r3, r3, #1
    2c52:	21ff      	movs	r1, #255	; 0xff
    2c54:	400b      	ands	r3, r1
    2c56:	4313      	orrs	r3, r2
    2c58:	0030      	movs	r0, r6
    2c5a:	001e      	movs	r6, r3

00002c5c <sprungbefehl_einfuegen>:
    2c5c:	b500      	push	{lr}
    2c5e:	4a96      	ldr	r2, [pc, #600]	; (2eb8 <Code_703+0xe>)
    2c60:	6813      	ldr	r3, [r2, #0]
    2c62:	6010      	str	r0, [r2, #0]
    2c64:	f7ff fcdf 	bl	2626 <Code_540>
    2c68:	6013      	str	r3, [r2, #0]
    2c6a:	bd00      	pop	{pc}

00002c6c <Dictionary_651>:
    2c6c:	00002ca4 	andeq	r2, r0, r4, lsr #25
    2c70:	6a050000 	bvs	142c78 <BIT20+0x42c78>
    2c74:	2c706d75 	ldclcs	13, cr6, [r0], #-468	; 0xfffffe2c

00002c78 <Code_651>:
    2c78:	0031      	movs	r1, r6
    2c7a:	cf40      	ldmia	r7!, {r6}
    2c7c:	0030      	movs	r0, r6
    2c7e:	cf40      	ldmia	r7!, {r6}
    2c80:	1a0b      	subs	r3, r1, r0
    2c82:	3b04      	subs	r3, #4
    2c84:	4993      	ldr	r1, [pc, #588]	; (2ed4 <Code_703+0x2a>)
    2c86:	4019      	ands	r1, r3
    2c88:	2900      	cmp	r1, #0
    2c8a:	d002      	beq.n	2c92 <Code_651+0x1a>
    2c8c:	4a92      	ldr	r2, [pc, #584]	; (2ed8 <Code_703+0x2e>)
    2c8e:	4291      	cmp	r1, r2
    2c90:	d1d3      	bne.n	2c3a <jump_too_far>
    2c92:	105b      	asrs	r3, r3, #1
    2c94:	4a91      	ldr	r2, [pc, #580]	; (2edc <Code_703+0x32>)
    2c96:	4013      	ands	r3, r2
    2c98:	f453 4360 	orrs.w	r3, r3, #57344	; 0xe000
    2c9c:	f847 6d04 	str.w	r6, [r7, #-4]!
    2ca0:	001e      	movs	r6, r3
    2ca2:	e7db      	b.n	2c5c <sprungbefehl_einfuegen>

00002ca4 <Dictionary_656>:
    2ca4:	00002cba 			; <UNDEFINED> instruction: 0x00002cba
    2ca8:	68040000 	stmdavs	r4, {}	; <UNPREDICTABLE>
    2cac:	00657265 	rsbeq	r7, r5, r5, ror #4

00002cb0 <Code_656>:
    2cb0:	f847 6d04 	str.w	r6, [r7, #-4]!
    2cb4:	4e80      	ldr	r6, [pc, #512]	; (2eb8 <Code_703+0xe>)
    2cb6:	6836      	ldr	r6, [r6, #0]
    2cb8:	4770      	bx	lr

00002cba <Dictionary_658>:
    2cba:	00002db6 			; <UNDEFINED> instruction: 0x00002db6
    2cbe:	660d0000 	strvs	r0, [sp], -r0
    2cc2:	6873616c 	ldmdavs	r3!, {r2, r3, r5, r6, r8, sp, lr}^
    2cc6:	2d726176 	ldfcse	f6, [r2, #-472]!	; 0xfffffe28
    2cca:	65726568 	ldrbvs	r6, [r2, #-1384]!	; 0x568

00002cce <Code_658>:
    2cce:	f847 6d04 	str.w	r6, [r7, #-4]!
    2cd2:	4e83      	ldr	r6, [pc, #524]	; (2ee0 <Code_703+0x36>)
    2cd4:	6836      	ldr	r6, [r6, #0]
    2cd6:	4770      	bx	lr

00002cd8 <nullprobekomma>:
    2cd8:	b500      	push	{lr}
    2cda:	f847 6d04 	str.w	r6, [r7, #-4]!
    2cde:	f642 6600 	movw	r6, #11776	; 0x2e00
    2ce2:	f7ff fca0 	bl	2626 <Code_540>
    2ce6:	f847 6d04 	str.w	r6, [r7, #-4]!
    2cea:	f64c 7640 	movw	r6, #53056	; 0xcf40
    2cee:	f7ff fc9a 	bl	2626 <Code_540>
    2cf2:	bd00      	pop	{pc}

00002cf4 <branch_r>:
    2cf4:	e7dc      	b.n	2cb0 <Code_656>

00002cf6 <r_branch_jne>:
    2cf6:	b500      	push	{lr}
    2cf8:	f000 f83a 	bl	2d70 <branch_v>
    2cfc:	6839      	ldr	r1, [r7, #0]
    2cfe:	603e      	str	r6, [r7, #0]
    2d00:	460e      	mov	r6, r1
    2d02:	f847 6d04 	str.w	r6, [r7, #-4]!
    2d06:	f24d 1600 	movw	r6, #53504	; 0xd100
    2d0a:	f7ff ff89 	bl	2c20 <Code_647>
    2d0e:	bd00      	pop	{pc}

00002d10 <r_branch_jvc>:
    2d10:	b500      	push	{lr}
    2d12:	f000 f82d 	bl	2d70 <branch_v>
    2d16:	6839      	ldr	r1, [r7, #0]
    2d18:	603e      	str	r6, [r7, #0]
    2d1a:	460e      	mov	r6, r1
    2d1c:	f847 6d04 	str.w	r6, [r7, #-4]!
    2d20:	f24d 7600 	movw	r6, #55040	; 0xd700
    2d24:	f7ff ff7c 	bl	2c20 <Code_647>
    2d28:	bd00      	pop	{pc}

00002d2a <r_nullbranch>:
    2d2a:	b500      	push	{lr}
    2d2c:	f7ff ffd4 	bl	2cd8 <nullprobekomma>
    2d30:	f000 f81e 	bl	2d70 <branch_v>
    2d34:	6839      	ldr	r1, [r7, #0]
    2d36:	603e      	str	r6, [r7, #0]
    2d38:	460e      	mov	r6, r1
    2d3a:	f847 6d04 	str.w	r6, [r7, #-4]!
    2d3e:	f24d 0600 	movw	r6, #53248	; 0xd000
    2d42:	f7ff ff6d 	bl	2c20 <Code_647>
    2d46:	bd00      	pop	{pc}

00002d48 <r_branch>:
    2d48:	b500      	push	{lr}
    2d4a:	f000 f811 	bl	2d70 <branch_v>
    2d4e:	6839      	ldr	r1, [r7, #0]
    2d50:	603e      	str	r6, [r7, #0]
    2d52:	460e      	mov	r6, r1
    2d54:	f7ff ff90 	bl	2c78 <Code_651>
    2d58:	bd00      	pop	{pc}

00002d5a <nullbranch_v>:
    2d5a:	b500      	push	{lr}
    2d5c:	f7ff ffbc 	bl	2cd8 <nullprobekomma>
    2d60:	f7ff ffa6 	bl	2cb0 <Code_656>
    2d64:	f847 6d04 	str.w	r6, [r7, #-4]!
    2d68:	2602      	movs	r6, #2
    2d6a:	f7ff fcc7 	bl	26fc <Code_560>
    2d6e:	bd00      	pop	{pc}

00002d70 <branch_v>:
    2d70:	b500      	push	{lr}
    2d72:	f7ff ff9d 	bl	2cb0 <Code_656>
    2d76:	f847 6d04 	str.w	r6, [r7, #-4]!
    2d7a:	2602      	movs	r6, #2
    2d7c:	f7ff fcbe 	bl	26fc <Code_560>
    2d80:	bd00      	pop	{pc}

00002d82 <v_branch>:
    2d82:	b500      	push	{lr}
    2d84:	f7ff ff94 	bl	2cb0 <Code_656>
    2d88:	f7ff ff76 	bl	2c78 <Code_651>
    2d8c:	bd00      	pop	{pc}

00002d8e <v_nullbranch>:
    2d8e:	b500      	push	{lr}
    2d90:	f7ff ff8e 	bl	2cb0 <Code_656>
    2d94:	f847 6d04 	str.w	r6, [r7, #-4]!
    2d98:	f24d 0600 	movw	r6, #53248	; 0xd000
    2d9c:	f7ff ff40 	bl	2c20 <Code_647>
    2da0:	bd00      	pop	{pc}

00002da2 <v_casebranch>:
    2da2:	b500      	push	{lr}
    2da4:	f7ff ff84 	bl	2cb0 <Code_656>
    2da8:	f847 6d04 	str.w	r6, [r7, #-4]!
    2dac:	f24d 1600 	movw	r6, #53504	; 0xd100
    2db0:	f7ff ff36 	bl	2c20 <Code_647>
    2db4:	bd00      	pop	{pc}

00002db6 <Dictionary_682>:
    2db6:	00002df2 	strdeq	r2, [r0], -r2	; <UNPREDICTABLE>
    2dba:	74040030 	strvc	r0, [r4], #-48	; 0x30
    2dbe:	006e6568 	rsbeq	r6, lr, r8, ror #10

00002dc2 <Code_682>:
    2dc2:	2e05      	cmp	r6, #5
    2dc4:	d101      	bne.n	2dca <Code_682+0x8>
    2dc6:	cf40      	ldmia	r7!, {r6}
    2dc8:	e7db      	b.n	2d82 <v_branch>
    2dca:	2e02      	cmp	r6, #2
    2dcc:	d101      	bne.n	2dd2 <strukturen_passen_nicht>
    2dce:	cf40      	ldmia	r7!, {r6}
    2dd0:	e7dd      	b.n	2d8e <v_nullbranch>

00002dd2 <strukturen_passen_nicht>:
    2dd2:	f7fe ff0c 	bl	1bee <dotgaensefuesschen>
    2dd6:	72745317 	rsbsvc	r5, r4, #1543503872	; 0x5c000000
    2dda:	75746375 	ldrbvc	r6, [r4, #-885]!	; 0x375
    2dde:	20736572 	rsbscs	r6, r3, r2, ror r5
    2de2:	276e6f64 	strbcs	r6, [lr, -r4, ror #30]!
    2de6:	616d2074 	smcvs	53764	; 0xd204
    2dea:	0a686374 	beq	1a1bbc2 <BIT24+0xa1bbc2>
    2dee:	f000 bda3 	b.w	3938 <Code_921>

00002df2 <Dictionary_686>:
    2df2:	00002e1c 	andeq	r2, r0, ip, lsl lr
    2df6:	65040030 	strvs	r0, [r4, #-48]	; 0x30
    2dfa:	0065736c 	rsbeq	r7, r5, ip, ror #6

00002dfe <Code_686>:
    2dfe:	b500      	push	{lr}
    2e00:	2e02      	cmp	r6, #2
    2e02:	d1e6      	bne.n	2dd2 <strukturen_passen_nicht>
    2e04:	cf40      	ldmia	r7!, {r6}
    2e06:	f7ff ffb3 	bl	2d70 <branch_v>
    2e0a:	6839      	ldr	r1, [r7, #0]
    2e0c:	603e      	str	r6, [r7, #0]
    2e0e:	460e      	mov	r6, r1
    2e10:	f7ff ffbd 	bl	2d8e <v_nullbranch>
    2e14:	f847 6d04 	str.w	r6, [r7, #-4]!
    2e18:	2605      	movs	r6, #5
    2e1a:	bd00      	pop	{pc}

00002e1c <Dictionary_691>:
    2e1c:	00002e34 	andeq	r2, r0, r4, lsr lr
    2e20:	69020030 	stmdbvs	r2, {r4, r5}
    2e24:	b5000066 	strlt	r0, [r0, #-102]	; 0x66

00002e26 <Code_691>:
    2e26:	b500      	push	{lr}
    2e28:	f7ff ff97 	bl	2d5a <nullbranch_v>
    2e2c:	f847 6d04 	str.w	r6, [r7, #-4]!
    2e30:	2602      	movs	r6, #2
    2e32:	bd00      	pop	{pc}

00002e34 <Dictionary_694>:
    2e34:	00002e5a 	andeq	r2, r0, sl, asr lr
    2e38:	72060030 	andvc	r0, r6, #48	; 0x30
    2e3c:	61657065 	cmnvs	r5, r5, rrx
    2e40:	2e040074 	mcrcs	0, 0, r0, cr4, cr4, {3}

00002e42 <Code_694>:
    2e42:	2e04      	cmp	r6, #4
    2e44:	d1c5      	bne.n	2dd2 <strukturen_passen_nicht>
    2e46:	cf40      	ldmia	r7!, {r6}
    2e48:	6839      	ldr	r1, [r7, #0]
    2e4a:	603e      	str	r6, [r7, #0]
    2e4c:	460e      	mov	r6, r1
    2e4e:	b500      	push	{lr}
    2e50:	f7ff ff7a 	bl	2d48 <r_branch>
    2e54:	f7ff ff9b 	bl	2d8e <v_nullbranch>
    2e58:	bd00      	pop	{pc}

00002e5a <Dictionary_697>:
    2e5a:	00002e76 	andeq	r2, r0, r6, ror lr
    2e5e:	77050030 	smladxvc	r5, r0, r0, r0
    2e62:	656c6968 	strbvs	r6, [ip, #-2408]!	; 0x968

00002e66 <Code_697>:
    2e66:	2e01      	cmp	r6, #1
    2e68:	d1b3      	bne.n	2dd2 <strukturen_passen_nicht>
    2e6a:	cf40      	ldmia	r7!, {r6}
    2e6c:	b500      	push	{lr}
    2e6e:	f7ff ffda 	bl	2e26 <Code_691>
    2e72:	3602      	adds	r6, #2
    2e74:	bd00      	pop	{pc}

00002e76 <Dictionary_699>:
    2e76:	00002e8a 	andeq	r2, r0, sl, lsl #29
    2e7a:	75050030 	strvc	r0, [r5, #-48]	; 0x30
    2e7e:	6c69746e 	cfstrdvs	mvd7, [r9], #-440	; 0xfffffe48

00002e82 <Code_699>:
    2e82:	2e01      	cmp	r6, #1
    2e84:	d1a5      	bne.n	2dd2 <strukturen_passen_nicht>
    2e86:	cf40      	ldmia	r7!, {r6}
    2e88:	e74f      	b.n	2d2a <r_nullbranch>

00002e8a <Dictionary_701>:
    2e8a:	00002e9e 	muleq	r0, lr, lr
    2e8e:	61050030 	tstvs	r5, r0, lsr r0
    2e92:	6e696167 	powvsez	f6, f1, f7

00002e96 <Code_701>:
    2e96:	2e01      	cmp	r6, #1
    2e98:	d19b      	bne.n	2dd2 <strukturen_passen_nicht>
    2e9a:	cf40      	ldmia	r7!, {r6}
    2e9c:	e754      	b.n	2d48 <r_branch>

00002e9e <Dictionary_703>:
    2e9e:	00002ee4 	andeq	r2, r0, r4, ror #29
    2ea2:	62050030 	andvs	r0, r5, #48	; 0x30
    2ea6:	6e696765 	cdpvs	7, 6, cr6, cr9, cr5, {3}

00002eaa <Code_703>:
    2eaa:	b500      	push	{lr}
    2eac:	f7ff ff22 	bl	2cf4 <branch_r>
    2eb0:	f847 6d04 	str.w	r6, [r7, #-4]!
    2eb4:	2601      	movs	r6, #1
    2eb6:	bd00      	pop	{pc}
    2eb8:	1fff8000 	svcne	0x00ff8000
    2ebc:	00000410 	andeq	r0, r0, r0, lsl r4
    2ec0:	1fff8004 	svcne	0x00ff8004
    2ec4:	ffffffff 			; <UNDEFINED> instruction: 0xffffffff
    2ec8:	0000ffff 	strdeq	pc, [r0], -pc	; <UNPREDICTABLE>
    2ecc:	ffffff01 			; <UNDEFINED> instruction: 0xffffff01
    2ed0:	ffffff00 			; <UNDEFINED> instruction: 0xffffff00
    2ed4:	fffff801 			; <UNDEFINED> instruction: 0xfffff801
    2ed8:	fffff800 			; <UNDEFINED> instruction: 0xfffff800
    2edc:	000007ff 	strdeq	r0, [r0], -pc	; <UNPREDICTABLE>
    2ee0:	1fff8024 	svcne	0x00ff8024

00002ee4 <Dictionary_706>:
    2ee4:	00002ef4 	strdeq	r2, [r0], -r4
    2ee8:	6b010020 	blvs	42f70 <BIT18+0x2f70>

00002eec <Code_706>:
    2eec:	f847 6d04 	str.w	r6, [r7, #-4]!
    2ef0:	9e02      	ldr	r6, [sp, #8]
    2ef2:	4770      	bx	lr

00002ef4 <Dictionary_708>:
    2ef4:	00002f04 	andeq	r2, r0, r4, lsl #30
    2ef8:	6a010020 	bvs	42f80 <BIT18+0x2f80>

00002efc <Code_708>:
    2efc:	f847 6d04 	str.w	r6, [r7, #-4]!
    2f00:	9e00      	ldr	r6, [sp, #0]
    2f02:	4770      	bx	lr

00002f04 <Dictionary_710>:
    2f04:	00002f14 	andeq	r2, r0, r4, lsl pc
    2f08:	69010020 	stmdbvs	r1, {r5}

00002f0c <Code_710>:
    2f0c:	f847 6d04 	str.w	r6, [r7, #-4]!
    2f10:	0026      	movs	r6, r4
    2f12:	4770      	bx	lr

00002f14 <Dictionary_713>:
    2f14:	00002f52 	andeq	r2, r0, r2, asr pc
    2f18:	6c050030 	stcvs	0, cr0, [r5], {48}	; 0x30
    2f1c:	65766165 	ldrbvs	r6, [r6, #-357]!	; 0x165

00002f20 <Code_713>:
    2f20:	b500      	push	{lr}
    2f22:	48d9      	ldr	r0, [pc, #868]	; (3288 <Code_796+0x4c>)
    2f24:	6801      	ldr	r1, [r0, #0]
    2f26:	003b      	movs	r3, r7
    2f28:	3f04      	subs	r7, #4
    2f2a:	681a      	ldr	r2, [r3, #0]
    2f2c:	3b04      	subs	r3, #4
    2f2e:	601a      	str	r2, [r3, #0]
    2f30:	3308      	adds	r3, #8
    2f32:	428b      	cmp	r3, r1
    2f34:	d1f9      	bne.n	2f2a <Code_713+0xa>
    2f36:	b403      	push	{r0, r1}
    2f38:	f7ff ff1a 	bl	2d70 <branch_v>
    2f3c:	bc03      	pop	{r0, r1}
    2f3e:	0033      	movs	r3, r6
    2f40:	cf40      	ldmia	r7!, {r6}
    2f42:	3904      	subs	r1, #4
    2f44:	600b      	str	r3, [r1, #0]
    2f46:	6001      	str	r1, [r0, #0]
    2f48:	3904      	subs	r1, #4
    2f4a:	680a      	ldr	r2, [r1, #0]
    2f4c:	3201      	adds	r2, #1
    2f4e:	600a      	str	r2, [r1, #0]
    2f50:	bd00      	pop	{pc}

00002f52 <Dictionary_715>:
    2f52:	00002f64 	andeq	r2, r0, r4, ror #30
    2f56:	75060020 	strvc	r0, [r6, #-32]
    2f5a:	6f6f6c6e 	svcvs	0x006f6c6e
    2f5e:	bc300070 	ldclt	0, cr0, [r0], #-448	; 0xfffffe40

00002f60 <Code_715>:
    2f60:	bc30      	pop	{r4, r5}
    2f62:	4770      	bx	lr

00002f64 <Dictionary_716>:
    2f64:	00002f9c 	muleq	r0, ip, pc	; <UNPREDICTABLE>
    2f68:	2b050030 	blcs	143030 <BIT20+0x43030>
    2f6c:	706f6f6c 	rsbvc	r6, pc, ip, ror #30

00002f70 <Code_716>:
    2f70:	2e03      	cmp	r6, #3
    2f72:	d000      	beq.n	2f76 <Code_716+0x6>
    2f74:	e72d      	b.n	2dd2 <strukturen_passen_nicht>
    2f76:	cf40      	ldmia	r7!, {r6}
    2f78:	b500      	push	{lr}
    2f7a:	f847 6d04 	str.w	r6, [r7, #-4]!
    2f7e:	4ec3      	ldr	r6, [pc, #780]	; (328c <Code_796+0x50>)
    2f80:	f7ff f962 	bl	2248 <Code_465>
    2f84:	f7ff fec4 	bl	2d10 <r_branch_jvc>
    2f88:	e01a      	b.n	2fc0 <loop_intern>

00002f8a <struktur_plusloop>:
    2f8a:	f114 4400 	adds.w	r4, r4, #2147483648	; 0x80000000
    2f8e:	1b64      	subs	r4, r4, r5
    2f90:	19a4      	adds	r4, r4, r6
    2f92:	cf40      	ldmia	r7!, {r6}
    2f94:	442c      	add	r4, r5
    2f96:	f1a4 4400 	sub.w	r4, r4, #2147483648	; 0x80000000
    2f9a:	4770      	bx	lr

00002f9c <Dictionary_720>:
    2f9c:	00002fde 	ldrdeq	r2, [r0], -lr
    2fa0:	6c040030 	stcvs	0, cr0, [r4], {48}	; 0x30
    2fa4:	00706f6f 	rsbseq	r6, r0, pc, ror #30

00002fa8 <Code_720>:
    2fa8:	2e03      	cmp	r6, #3
    2faa:	d000      	beq.n	2fae <Code_720+0x6>
    2fac:	e711      	b.n	2dd2 <strukturen_passen_nicht>
    2fae:	cf40      	ldmia	r7!, {r6}
    2fb0:	b500      	push	{lr}
    2fb2:	f847 6d04 	str.w	r6, [r7, #-4]!
    2fb6:	4eb6      	ldr	r6, [pc, #728]	; (3290 <Code_796+0x54>)
    2fb8:	f7ff f946 	bl	2248 <Code_465>
    2fbc:	f7ff fe9b 	bl	2cf6 <r_branch_jne>

00002fc0 <loop_intern>:
    2fc0:	f000 f918 	bl	31f4 <spruenge_einpflegen>
    2fc4:	48b0      	ldr	r0, [pc, #704]	; (3288 <Code_796+0x4c>)
    2fc6:	0031      	movs	r1, r6
    2fc8:	cf40      	ldmia	r7!, {r6}
    2fca:	6001      	str	r1, [r0, #0]
    2fcc:	f847 6d04 	str.w	r6, [r7, #-4]!
    2fd0:	4eb0      	ldr	r6, [pc, #704]	; (3294 <Code_796+0x58>)
    2fd2:	f7ff f939 	bl	2248 <Code_465>
    2fd6:	bd00      	pop	{pc}

00002fd8 <struktur_loop>:
    2fd8:	3401      	adds	r4, #1
    2fda:	42ac      	cmp	r4, r5
    2fdc:	4770      	bx	lr

00002fde <Dictionary_725>:
    2fde:	00003026 	andeq	r3, r0, r6, lsr #32
    2fe2:	64020078 	strvs	r0, [r2], #-120	; 0x78
    2fe6:	b500006f 	strlt	r0, [r0, #-111]	; 0x6f

00002fe8 <Code_725>:
    2fe8:	b500      	push	{lr}
    2fea:	f847 6d04 	str.w	r6, [r7, #-4]!
    2fee:	4eaa      	ldr	r6, [pc, #680]	; (3298 <Code_796+0x5c>)
    2ff0:	f7ff f92a 	bl	2248 <Code_465>

00002ff4 <do_rest_der_schleifenstruktur>:
    2ff4:	48a4      	ldr	r0, [pc, #656]	; (3288 <Code_796+0x4c>)
    2ff6:	6801      	ldr	r1, [r0, #0]
    2ff8:	f847 6d04 	str.w	r6, [r7, #-4]!
    2ffc:	000e      	movs	r6, r1
    2ffe:	f847 6d04 	str.w	r6, [r7, #-4]!
    3002:	2600      	movs	r6, #0
    3004:	6007      	str	r7, [r0, #0]
    3006:	f7ff fe75 	bl	2cf4 <branch_r>
    300a:	f847 6d04 	str.w	r6, [r7, #-4]!
    300e:	2603      	movs	r6, #3
    3010:	bd00      	pop	{pc}
    3012:	b500      	push	{lr}
    3014:	f000 f82f 	bl	3076 <gemeinsame_schleifenoptimierung>
    3018:	e7ec      	b.n	2ff4 <do_rest_der_schleifenstruktur>

0000301a <struktur_do>:
    301a:	b430      	push	{r4, r5}
    301c:	0034      	movs	r4, r6
    301e:	cf40      	ldmia	r7!, {r6}
    3020:	0035      	movs	r5, r6
    3022:	cf40      	ldmia	r7!, {r6}
    3024:	4770      	bx	lr

00003026 <Dictionary_735>:
    3026:	000030c0 	andeq	r3, r0, r0, asr #1
    302a:	3f030078 	svccc	0x00030078
    302e:	b5006f64 	strlt	r6, [r0, #-3940]	; 0xf64

00003030 <Code_735>:
    3030:	b500      	push	{lr}
    3032:	f847 6d04 	str.w	r6, [r7, #-4]!
    3036:	4e98      	ldr	r6, [pc, #608]	; (3298 <Code_796+0x5c>)
    3038:	f7ff f906 	bl	2248 <Code_465>

0000303c <qdo_rest_der_schleifenstruktur>:
    303c:	f847 6d04 	str.w	r6, [r7, #-4]!
    3040:	f244 26ac 	movw	r6, #17068	; 0x42ac
    3044:	f7ff faef 	bl	2626 <Code_540>
    3048:	488f      	ldr	r0, [pc, #572]	; (3288 <Code_796+0x4c>)
    304a:	6801      	ldr	r1, [r0, #0]
    304c:	f847 6d04 	str.w	r6, [r7, #-4]!
    3050:	000e      	movs	r6, r1
    3052:	f7ff fe8d 	bl	2d70 <branch_v>
    3056:	3601      	adds	r6, #1
    3058:	f847 6d04 	str.w	r6, [r7, #-4]!
    305c:	2601      	movs	r6, #1
    305e:	488a      	ldr	r0, [pc, #552]	; (3288 <Code_796+0x4c>)
    3060:	6007      	str	r7, [r0, #0]
    3062:	f7ff fe47 	bl	2cf4 <branch_r>
    3066:	f847 6d04 	str.w	r6, [r7, #-4]!
    306a:	2603      	movs	r6, #3
    306c:	bd00      	pop	{pc}
    306e:	b500      	push	{lr}
    3070:	f000 f801 	bl	3076 <gemeinsame_schleifenoptimierung>
    3074:	e7e2      	b.n	303c <qdo_rest_der_schleifenstruktur>

00003076 <gemeinsame_schleifenoptimierung>:
    3076:	b500      	push	{lr}
    3078:	f847 6d04 	str.w	r6, [r7, #-4]!
    307c:	f24b 4630 	movw	r6, #46128	; 0xb430
    3080:	f7ff fad1 	bl	2626 <Code_540>
    3084:	f847 6d04 	str.w	r6, [r7, #-4]!
    3088:	2604      	movs	r6, #4
    308a:	f7fe ffa9 	bl	1fe0 <Code_422>
    308e:	3b01      	subs	r3, #1
    3090:	d008      	beq.n	30a4 <gemeinsame_schleifenoptimierung+0x2e>
    3092:	f847 6d04 	str.w	r6, [r7, #-4]!
    3096:	2605      	movs	r6, #5
    3098:	f7fe ffa2 	bl	1fe0 <Code_422>
    309c:	3b01      	subs	r3, #1
    309e:	f000 fc24 	bl	38ea <konstantenschreiben>
    30a2:	bd00      	pop	{pc}
    30a4:	f847 6d04 	str.w	r6, [r7, #-4]!
    30a8:	2635      	movs	r6, #53	; 0x35
    30aa:	f7ff fabc 	bl	2626 <Code_540>
    30ae:	f847 6d04 	str.w	r6, [r7, #-4]!
    30b2:	f64c 7640 	movw	r6, #53056	; 0xcf40
    30b6:	f7ff fab6 	bl	2626 <Code_540>
    30ba:	f000 fc16 	bl	38ea <konstantenschreiben>
    30be:	bd00      	pop	{pc}

000030c0 <Dictionary_755>:
    30c0:	000030da 	ldrdeq	r3, [r0], -sl
    30c4:	63040030 	movwvs	r0, #16432	; 0x4030
    30c8:	00657361 	rsbeq	r7, r5, r1, ror #6

000030cc <Code_755>:
    30cc:	f847 6d04 	str.w	r6, [r7, #-4]!
    30d0:	2600      	movs	r6, #0
    30d2:	f847 6d04 	str.w	r6, [r7, #-4]!
    30d6:	2608      	movs	r6, #8
    30d8:	4770      	bx	lr

000030da <Dictionary_760>:
    30da:	000030f0 	strdeq	r3, [r0], -r0
    30de:	3f030030 	svccc	0x00030030
    30e2:	486d666f 	stmdami	sp!, {r0, r1, r2, r3, r5, r6, r9, sl, sp, lr}^

000030e4 <Code_760>:
    30e4:	486d      	ldr	r0, [pc, #436]	; (329c <Code_796+0x60>)
    30e6:	e009      	b.n	30fc <of_inneneinsprung>

000030e8 <struktur_qof>:
    30e8:	3e01      	subs	r6, #1
    30ea:	41b6      	sbcs	r6, r6
    30ec:	cf40      	ldmia	r7!, {r6}
    30ee:	4770      	bx	lr

000030f0 <Dictionary_762>:
    30f0:	00003194 	muleq	r0, r4, r1
    30f4:	6f020078 	svcvs	0x00020078
    30f8:	48690066 	stmdami	r9!, {r1, r2, r5, r6}^

000030fa <Code_762>:
    30fa:	4869      	ldr	r0, [pc, #420]	; (32a0 <Code_796+0x64>)

000030fc <of_inneneinsprung>:
    30fc:	2e08      	cmp	r6, #8
    30fe:	d000      	beq.n	3102 <of_inneneinsprung+0x6>
    3100:	e667      	b.n	2dd2 <strukturen_passen_nicht>
    3102:	cf40      	ldmia	r7!, {r6}
    3104:	b500      	push	{lr}
    3106:	f847 6d04 	str.w	r6, [r7, #-4]!
    310a:	0006      	movs	r6, r0
    310c:	f7ff f89c 	bl	2248 <Code_465>

00003110 <of_opcodiereinsprung>:
    3110:	f7ff fe2e 	bl	2d70 <branch_v>
    3114:	6839      	ldr	r1, [r7, #0]
    3116:	603e      	str	r6, [r7, #0]
    3118:	460e      	mov	r6, r1
    311a:	3601      	adds	r6, #1
    311c:	f847 6d04 	str.w	r6, [r7, #-4]!
    3120:	2609      	movs	r6, #9
    3122:	f847 6d04 	str.w	r6, [r7, #-4]!
    3126:	f64c 7640 	movw	r6, #53056	; 0xcf40
    312a:	f7ff fa7c 	bl	2626 <Code_540>
    312e:	bd00      	pop	{pc}
    3130:	b500      	push	{lr}
    3132:	0030      	movs	r0, r6
    3134:	cf40      	ldmia	r7!, {r6}
    3136:	3b01      	subs	r3, #1
    3138:	b401      	push	{r0}
    313a:	f000 fbd6 	bl	38ea <konstantenschreiben>
    313e:	bc01      	pop	{r0}
    3140:	2e08      	cmp	r6, #8
    3142:	d000      	beq.n	3146 <of_opcodiereinsprung+0x36>
    3144:	e645      	b.n	2dd2 <strukturen_passen_nicht>
    3146:	cf40      	ldmia	r7!, {r6}
    3148:	f847 6d04 	str.w	r6, [r7, #-4]!
    314c:	0006      	movs	r6, r0
    314e:	21ff      	movs	r1, #255	; 0xff
    3150:	4031      	ands	r1, r6
    3152:	42b1      	cmp	r1, r6
    3154:	d104      	bne.n	3160 <of_opcodiereinsprung+0x50>
    3156:	4953      	ldr	r1, [pc, #332]	; (32a4 <Code_796+0x68>)
    3158:	430e      	orrs	r6, r1
    315a:	f7ff fa64 	bl	2626 <Code_540>
    315e:	e7d7      	b.n	3110 <of_opcodiereinsprung>
    3160:	f7fe fe8a 	bl	1e78 <Code_413>
    3164:	2e00      	cmp	r6, #0
    3166:	cf40      	ldmia	r7!, {r6}
    3168:	d004      	beq.n	3174 <of_opcodiereinsprung+0x64>
    316a:	484f      	ldr	r0, [pc, #316]	; (32a8 <Code_796+0x6c>)
    316c:	4306      	orrs	r6, r0
    316e:	f7ff fa82 	bl	2676 <Code_549>
    3172:	e7cd      	b.n	3110 <of_opcodiereinsprung>
    3174:	f847 6d04 	str.w	r6, [r7, #-4]!
    3178:	2600      	movs	r6, #0
    317a:	f7fe ff31 	bl	1fe0 <Code_422>
    317e:	f847 6d04 	str.w	r6, [r7, #-4]!
    3182:	f244 26b0 	movw	r6, #17072	; 0x42b0
    3186:	f7ff fa4e 	bl	2626 <Code_540>
    318a:	e7c1      	b.n	3110 <of_opcodiereinsprung>

0000318c <struktur_of>:
    318c:	0030      	movs	r0, r6
    318e:	cf40      	ldmia	r7!, {r6}
    3190:	42b0      	cmp	r0, r6
    3192:	4770      	bx	lr

00003194 <Dictionary_781>:
    3194:	000031ca 	andeq	r3, r0, sl, asr #3
    3198:	65050030 	strvs	r0, [r5, #-48]	; 0x30
    319c:	666f646e 	strbtvs	r6, [pc], -lr, ror #8

000031a0 <Code_781>:
    31a0:	2e09      	cmp	r6, #9
    31a2:	d000      	beq.n	31a6 <Code_781+0x6>
    31a4:	e615      	b.n	2dd2 <strukturen_passen_nicht>
    31a6:	cf40      	ldmia	r7!, {r6}
    31a8:	b500      	push	{lr}
    31aa:	b440      	push	{r6}
    31ac:	cf40      	ldmia	r7!, {r6}
    31ae:	f7ff fddf 	bl	2d70 <branch_v>
    31b2:	6839      	ldr	r1, [r7, #0]
    31b4:	603e      	str	r6, [r7, #0]
    31b6:	460e      	mov	r6, r1
    31b8:	f7ff fdf3 	bl	2da2 <v_casebranch>
    31bc:	f847 6d04 	str.w	r6, [r7, #-4]!
    31c0:	bc40      	pop	{r6}
    31c2:	f847 6d04 	str.w	r6, [r7, #-4]!
    31c6:	2608      	movs	r6, #8
    31c8:	bd00      	pop	{pc}

000031ca <Dictionary_789>:
    31ca:	0000321c 	andeq	r3, r0, ip, lsl r2
    31ce:	65070030 	strvs	r0, [r7, #-48]	; 0x30
    31d2:	6163646e 	cmnvs	r3, lr, ror #8
    31d6:	2e086573 	cfrshl64cs	mvdx8, mvdx3, r6

000031d8 <Code_789>:
    31d8:	2e08      	cmp	r6, #8
    31da:	d000      	beq.n	31de <Code_789+0x6>
    31dc:	e5f9      	b.n	2dd2 <strukturen_passen_nicht>
    31de:	cf40      	ldmia	r7!, {r6}
    31e0:	b500      	push	{lr}
    31e2:	f847 6d04 	str.w	r6, [r7, #-4]!
    31e6:	f64c 7640 	movw	r6, #53056	; 0xcf40
    31ea:	f7ff fa1c 	bl	2626 <Code_540>
    31ee:	f000 f801 	bl	31f4 <spruenge_einpflegen>
    31f2:	bd00      	pop	{pc}

000031f4 <spruenge_einpflegen>:
    31f4:	b500      	push	{lr}
    31f6:	0030      	movs	r0, r6
    31f8:	cf40      	ldmia	r7!, {r6}
    31fa:	2800      	cmp	r0, #0
    31fc:	d00d      	beq.n	321a <spruenge_einpflegen+0x26>
    31fe:	b403      	push	{r0, r1}
    3200:	2101      	movs	r1, #1
    3202:	4031      	ands	r1, r6
    3204:	2900      	cmp	r1, #0
    3206:	d003      	beq.n	3210 <spruenge_einpflegen+0x1c>
    3208:	3e01      	subs	r6, #1
    320a:	f7ff fdc0 	bl	2d8e <v_nullbranch>
    320e:	e001      	b.n	3214 <spruenge_einpflegen+0x20>
    3210:	f7ff fdb7 	bl	2d82 <v_branch>
    3214:	bc03      	pop	{r0, r1}
    3216:	3801      	subs	r0, #1
    3218:	e7ef      	b.n	31fa <spruenge_einpflegen+0x6>
    321a:	bd00      	pop	{pc}

0000321c <Dictionary_794>:
    321c:	00003230 	andeq	r3, r0, r0, lsr r2
    3220:	74050000 	strvc	r0, [r5]
    3224:	6e656b6f 	vnmulvs.f64	d22, d5, d31

00003228 <Code_794>:
    3228:	f847 6d04 	str.w	r6, [r7, #-4]!
    322c:	2620      	movs	r6, #32
    322e:	e005      	b.n	323c <Code_796>

00003230 <Dictionary_796>:
    3230:	000032b0 			; <UNDEFINED> instruction: 0x000032b0
    3234:	70050000 	andvc	r0, r5, r0
    3238:	65737261 	ldrbvs	r7, [r3, #-609]!	; 0x261

0000323c <Code_796>:
    323c:	b510      	push	{r4, lr}
    323e:	f7fe fc20 	bl	1a82 <Code_321>
    3242:	0031      	movs	r1, r6
    3244:	cf40      	ldmia	r7!, {r6}
    3246:	0030      	movs	r0, r6
    3248:	cf40      	ldmia	r7!, {r6}
    324a:	4a18      	ldr	r2, [pc, #96]	; (32ac <Code_796+0x70>)
    324c:	6812      	ldr	r2, [r2, #0]
    324e:	1884      	adds	r4, r0, r2
    3250:	2e20      	cmp	r6, #32
    3252:	d107      	bne.n	3264 <Code_796+0x28>
    3254:	4291      	cmp	r1, r2
    3256:	d00f      	beq.n	3278 <Code_796+0x3c>
    3258:	5c83      	ldrb	r3, [r0, r2]
    325a:	42b3      	cmp	r3, r6
    325c:	d102      	bne.n	3264 <Code_796+0x28>
    325e:	3201      	adds	r2, #1
    3260:	1884      	adds	r4, r0, r2
    3262:	e7f7      	b.n	3254 <Code_796+0x18>
    3264:	4291      	cmp	r1, r2
    3266:	d007      	beq.n	3278 <Code_796+0x3c>
    3268:	5c83      	ldrb	r3, [r0, r2]
    326a:	3201      	adds	r2, #1
    326c:	42b3      	cmp	r3, r6
    326e:	d1f9      	bne.n	3264 <Code_796+0x28>
    3270:	1886      	adds	r6, r0, r2
    3272:	1b36      	subs	r6, r6, r4
    3274:	3e01      	subs	r6, #1
    3276:	e001      	b.n	327c <Code_796+0x40>
    3278:	1886      	adds	r6, r0, r2
    327a:	1b36      	subs	r6, r6, r4
    327c:	3f04      	subs	r7, #4
    327e:	603c      	str	r4, [r7, #0]
    3280:	480a      	ldr	r0, [pc, #40]	; (32ac <Code_796+0x70>)
    3282:	6002      	str	r2, [r0, #0]
    3284:	bd10      	pop	{r4, pc}
    3286:	800c0000 	andhi	r0, ip, r0
    328a:	2f8a1fff 	svccs	0x008a1fff
    328e:	2fd80000 	svccs	0x00d80000
    3292:	2f600000 	svccs	0x00600000
    3296:	301a0000 	andscc	r0, sl, r0
    329a:	30e80000 	rsccc	r0, r8, r0
    329e:	318c0000 	orrcc	r0, ip, r0
    32a2:	2e000000 	cdpcs	0, 0, cr0, cr0, cr0, {0}
    32a6:	0f000000 	svceq	0x00000000
    32aa:	7fe4f1b6 	svcvc	0x00e4f1b6
    32ae:	32ee2000 	rsccc	r2, lr, #0

000032b0 <Dictionary_799>:
    32b0:	000032ee 	andeq	r3, r0, lr, ror #5
    32b4:	64050000 	strvs	r0, [r5]
    32b8:	74696769 	strbtvc	r6, [r9], #-1897	; 0x769

000032bc <Code_799>:
    32bc:	4bcf      	ldr	r3, [pc, #828]	; (35fc <Code_862+0xa>)
    32be:	681b      	ldr	r3, [r3, #0]

000032c0 <digit_base_r3>:
    32c0:	3e30      	subs	r6, #48	; 0x30
    32c2:	d30b      	bcc.n	32dc <digit_base_r3+0x1c>
    32c4:	2e0a      	cmp	r6, #10
    32c6:	d30b      	bcc.n	32e0 <digit_base_r3+0x20>
    32c8:	3e07      	subs	r6, #7
    32ca:	2e0a      	cmp	r6, #10
    32cc:	d306      	bcc.n	32dc <digit_base_r3+0x1c>
    32ce:	2e24      	cmp	r6, #36	; 0x24
    32d0:	d306      	bcc.n	32e0 <digit_base_r3+0x20>
    32d2:	3e20      	subs	r6, #32
    32d4:	2e0a      	cmp	r6, #10
    32d6:	d301      	bcc.n	32dc <digit_base_r3+0x1c>
    32d8:	2e24      	cmp	r6, #36	; 0x24
    32da:	d301      	bcc.n	32e0 <digit_base_r3+0x20>
    32dc:	2600      	movs	r6, #0
    32de:	4770      	bx	lr
    32e0:	429e      	cmp	r6, r3
    32e2:	d2fb      	bcs.n	32dc <digit_base_r3+0x1c>
    32e4:	f847 6d04 	str.w	r6, [r7, #-4]!
    32e8:	2600      	movs	r6, #0
    32ea:	43f6      	mvns	r6, r6
    32ec:	4770      	bx	lr

000032ee <Dictionary_801>:
    32ee:	000033f8 	strdeq	r3, [r0], -r8
    32f2:	6e060000 	cdpvs	0, 0, cr0, cr6, cr0, {0}
    32f6:	65626d75 	strbvs	r6, [r2, #-3445]!	; 0xd75
    32fa:	b53f0072 	ldrlt	r0, [pc, #-114]!	; 3290 <Code_796+0x54>

000032fc <Code_801>:
    32fc:	b53f      	push	{r0, r1, r2, r3, r4, r5, lr}
    32fe:	0031      	movs	r1, r6
    3300:	cf40      	ldmia	r7!, {r6}
    3302:	1e70      	subs	r0, r6, #1
    3304:	2601      	movs	r6, #1
    3306:	2201      	movs	r2, #1
    3308:	b404      	push	{r2}
    330a:	4bbc      	ldr	r3, [pc, #752]	; (35fc <Code_862+0xa>)
    330c:	681b      	ldr	r3, [r3, #0]
    330e:	2400      	movs	r4, #0
    3310:	2500      	movs	r5, #0
    3312:	2900      	cmp	r1, #0
    3314:	d03c      	beq.n	3390 <Code_801+0x94>
    3316:	3001      	adds	r0, #1
    3318:	3901      	subs	r1, #1
    331a:	7802      	ldrb	r2, [r0, #0]
    331c:	2a2d      	cmp	r2, #45	; 0x2d
    331e:	d104      	bne.n	332a <Code_801+0x2e>
    3320:	b001      	add	sp, #4
    3322:	2200      	movs	r2, #0
    3324:	43d2      	mvns	r2, r2
    3326:	b404      	push	{r2}
    3328:	e7f3      	b.n	3312 <Code_801+0x16>
    332a:	2a23      	cmp	r2, #35	; 0x23
    332c:	d101      	bne.n	3332 <Code_801+0x36>
    332e:	230a      	movs	r3, #10
    3330:	e7ef      	b.n	3312 <Code_801+0x16>
    3332:	2a24      	cmp	r2, #36	; 0x24
    3334:	d101      	bne.n	333a <Code_801+0x3e>
    3336:	2310      	movs	r3, #16
    3338:	e7eb      	b.n	3312 <Code_801+0x16>
    333a:	2a25      	cmp	r2, #37	; 0x25
    333c:	d101      	bne.n	3342 <Code_801+0x46>
    333e:	2302      	movs	r3, #2
    3340:	e7e7      	b.n	3312 <Code_801+0x16>
    3342:	2a2e      	cmp	r2, #46	; 0x2e
    3344:	d101      	bne.n	334a <Code_801+0x4e>
    3346:	2602      	movs	r6, #2
    3348:	e7e3      	b.n	3312 <Code_801+0x16>
    334a:	2a2c      	cmp	r2, #44	; 0x2c
    334c:	d036      	beq.n	33bc <number_nachkommastellen>
    334e:	f847 6d04 	str.w	r6, [r7, #-4]!
    3352:	0016      	movs	r6, r2
    3354:	f7ff ffb4 	bl	32c0 <digit_base_r3>
    3358:	2e00      	cmp	r6, #0
    335a:	cf40      	ldmia	r7!, {r6}
    335c:	d02b      	beq.n	33b6 <Code_801+0xba>
    335e:	f847 6d04 	str.w	r6, [r7, #-4]!
    3362:	0026      	movs	r6, r4
    3364:	f847 6d04 	str.w	r6, [r7, #-4]!
    3368:	002e      	movs	r6, r5
    336a:	f847 6d04 	str.w	r6, [r7, #-4]!
    336e:	001e      	movs	r6, r3
    3370:	f847 6d04 	str.w	r6, [r7, #-4]!
    3374:	2600      	movs	r6, #0
    3376:	b40f      	push	{r0, r1, r2, r3}
    3378:	f7fd f976 	bl	668 <Code_50>
    337c:	bc0f      	pop	{r0, r1, r2, r3}
    337e:	0035      	movs	r5, r6
    3380:	cf40      	ldmia	r7!, {r6}
    3382:	0034      	movs	r4, r6
    3384:	cf40      	ldmia	r7!, {r6}
    3386:	2200      	movs	r2, #0
    3388:	19a4      	adds	r4, r4, r6
    338a:	4155      	adcs	r5, r2
    338c:	cf40      	ldmia	r7!, {r6}
    338e:	e7c0      	b.n	3312 <Code_801+0x16>
    3390:	bc04      	pop	{r2}
    3392:	2a00      	cmp	r2, #0
    3394:	d504      	bpl.n	33a0 <Code_801+0xa4>
    3396:	2200      	movs	r2, #0
    3398:	43e4      	mvns	r4, r4
    339a:	43ed      	mvns	r5, r5
    339c:	3401      	adds	r4, #1
    339e:	4155      	adcs	r5, r2
    33a0:	0033      	movs	r3, r6
    33a2:	0026      	movs	r6, r4
    33a4:	2b01      	cmp	r3, #1
    33a6:	d002      	beq.n	33ae <Code_801+0xb2>
    33a8:	f847 6d04 	str.w	r6, [r7, #-4]!
    33ac:	002e      	movs	r6, r5
    33ae:	f847 6d04 	str.w	r6, [r7, #-4]!
    33b2:	001e      	movs	r6, r3
    33b4:	bd3f      	pop	{r0, r1, r2, r3, r4, r5, pc}
    33b6:	b001      	add	sp, #4
    33b8:	2600      	movs	r6, #0
    33ba:	bd3f      	pop	{r0, r1, r2, r3, r4, r5, pc}

000033bc <number_nachkommastellen>:
    33bc:	0025      	movs	r5, r4
    33be:	2400      	movs	r4, #0
    33c0:	2602      	movs	r6, #2
    33c2:	2900      	cmp	r1, #0
    33c4:	d0e4      	beq.n	3390 <Code_801+0x94>
    33c6:	5c42      	ldrb	r2, [r0, r1]
    33c8:	3901      	subs	r1, #1
    33ca:	2a2e      	cmp	r2, #46	; 0x2e
    33cc:	d0f9      	beq.n	33c2 <number_nachkommastellen+0x6>
    33ce:	f847 6d04 	str.w	r6, [r7, #-4]!
    33d2:	0016      	movs	r6, r2
    33d4:	f7ff ff74 	bl	32c0 <digit_base_r3>
    33d8:	2e00      	cmp	r6, #0
    33da:	cf40      	ldmia	r7!, {r6}
    33dc:	d0eb      	beq.n	33b6 <Code_801+0xba>
    33de:	3f04      	subs	r7, #4
    33e0:	603c      	str	r4, [r7, #0]
    33e2:	f847 6d04 	str.w	r6, [r7, #-4]!
    33e6:	001e      	movs	r6, r3
    33e8:	b40f      	push	{r0, r1, r2, r3}
    33ea:	f7fd f9ec 	bl	7c6 <Code_86>
    33ee:	bc0f      	pop	{r0, r1, r2, r3}
    33f0:	0034      	movs	r4, r6
    33f2:	cf40      	ldmia	r7!, {r6}
    33f4:	cf40      	ldmia	r7!, {r6}
    33f6:	e7e4      	b.n	33c2 <number_nachkommastellen+0x6>

000033f8 <Dictionary_828>:
    33f8:	0000341a 	andeq	r3, r0, sl, lsl r4
    33fc:	2e060000 	cdpcs	0, 0, cr0, cr6, cr0, {0}
    3400:	69676964 	stmdbvs	r7!, {r2, r5, r6, r8, fp, sp, lr}^
    3404:	2e0a0074 	mcrcs	0, 0, r0, cr10, cr4, {3}

00003406 <Code_828>:
    3406:	2e0a      	cmp	r6, #10
    3408:	d201      	bcs.n	340e <Code_828+0x8>
    340a:	3630      	adds	r6, #48	; 0x30
    340c:	4770      	bx	lr
    340e:	2e24      	cmp	r6, #36	; 0x24
    3410:	d201      	bcs.n	3416 <Code_828+0x10>
    3412:	3637      	adds	r6, #55	; 0x37
    3414:	4770      	bx	lr
    3416:	2623      	movs	r6, #35	; 0x23
    3418:	4770      	bx	lr

0000341a <Dictionary_829>:
    341a:	00003450 	andeq	r3, r0, r0, asr r4
    341e:	68040000 	stmdavs	r4, {}	; <UNPREDICTABLE>
    3422:	00646c6f 	rsbeq	r6, r4, pc, ror #24

00003426 <Code_829>:
    3426:	0033      	movs	r3, r6
    3428:	cf40      	ldmia	r7!, {r6}
    342a:	4875      	ldr	r0, [pc, #468]	; (3600 <Code_862+0xe>)
    342c:	7801      	ldrb	r1, [r0, #0]
    342e:	293f      	cmp	r1, #63	; 0x3f
    3430:	d20d      	bcs.n	344e <Code_829+0x28>
    3432:	3101      	adds	r1, #1
    3434:	7001      	strb	r1, [r0, #0]
    3436:	1840      	adds	r0, r0, r1
    3438:	2901      	cmp	r1, #1
    343a:	d007      	beq.n	344c <Code_829+0x26>
    343c:	3801      	subs	r0, #1
    343e:	7802      	ldrb	r2, [r0, #0]
    3440:	3001      	adds	r0, #1
    3442:	7002      	strb	r2, [r0, #0]
    3444:	3801      	subs	r0, #1
    3446:	3901      	subs	r1, #1
    3448:	2901      	cmp	r1, #1
    344a:	d1f7      	bne.n	343c <Code_829+0x16>
    344c:	7003      	strb	r3, [r0, #0]
    344e:	4770      	bx	lr

00003450 <Dictionary_831>:
    3450:	00003470 	andeq	r3, r0, r0, ror r4
    3454:	68050000 	stmdavs	r5, {}	; <UNPREDICTABLE>
    3458:	3c646c6f 	stclcc	12, cr6, [r4], #-444	; 0xfffffe44

0000345c <Code_831>:
    345c:	0033      	movs	r3, r6
    345e:	cf40      	ldmia	r7!, {r6}
    3460:	4867      	ldr	r0, [pc, #412]	; (3600 <Code_862+0xe>)
    3462:	7801      	ldrb	r1, [r0, #0]
    3464:	293f      	cmp	r1, #63	; 0x3f
    3466:	d202      	bcs.n	346e <Code_831+0x12>
    3468:	3101      	adds	r1, #1
    346a:	7001      	strb	r1, [r0, #0]
    346c:	5443      	strb	r3, [r0, r1]
    346e:	4770      	bx	lr

00003470 <Dictionary_833>:
    3470:	00003488 	andeq	r3, r0, r8, lsl #9
    3474:	73040000 	movwvc	r0, #16384	; 0x4000
    3478:	006e6769 	rsbeq	r6, lr, r9, ror #14

0000347c <Code_833>:
    347c:	2e00      	cmp	r6, #0
    347e:	d401      	bmi.n	3484 <Code_833+0x8>
    3480:	cf40      	ldmia	r7!, {r6}
    3482:	4770      	bx	lr
    3484:	262d      	movs	r6, #45	; 0x2d
    3486:	e7ce      	b.n	3426 <Code_829>

00003488 <Dictionary_835>:
    3488:	0000349c 	muleq	r0, ip, r4
    348c:	23020000 	movwcs	r0, #8192	; 0x2000
    3490:	485b003e 	ldmdami	fp, {r1, r2, r3, r4, r5}^

00003492 <Code_835>:
    3492:	485b      	ldr	r0, [pc, #364]	; (3600 <Code_862+0xe>)
    3494:	7806      	ldrb	r6, [r0, #0]
    3496:	3001      	adds	r0, #1
    3498:	6038      	str	r0, [r7, #0]
    349a:	4770      	bx	lr

0000349c <Dictionary_836>:
    349c:	000034b4 			; <UNDEFINED> instruction: 0x000034b4
    34a0:	66030000 	strvs	r0, [r3], -r0
    34a4:	b5105323 	ldrlt	r5, [r0, #-803]	; 0x323

000034a6 <Code_836>:
    34a6:	b510      	push	{r4, lr}
    34a8:	2420      	movs	r4, #32
    34aa:	f000 f808 	bl	34be <Code_837>
    34ae:	3c01      	subs	r4, #1
    34b0:	d1fb      	bne.n	34aa <Code_836+0x4>
    34b2:	bd10      	pop	{r4, pc}

000034b4 <Dictionary_837>:
    34b4:	000034d6 	ldrdeq	r3, [r0], -r6
    34b8:	66020000 	strvs	r0, [r2], -r0
    34bc:	b5000023 	strlt	r0, [r0, #-35]	; 0x23

000034be <Code_837>:
    34be:	b500      	push	{lr}
    34c0:	f847 6d04 	str.w	r6, [r7, #-4]!
    34c4:	4e4d      	ldr	r6, [pc, #308]	; (35fc <Code_862+0xa>)
    34c6:	6836      	ldr	r6, [r6, #0]
    34c8:	f7fd f8ba 	bl	640 <Code_48>
    34cc:	f7ff ff9b 	bl	3406 <Code_828>
    34d0:	f7ff ffc4 	bl	345c <Code_831>
    34d4:	bd00      	pop	{pc}

000034d6 <Dictionary_839>:
    34d6:	000034f2 	strdeq	r3, [r0], -r2
    34da:	23020000 	movwcs	r0, #8192	; 0x2000
    34de:	b5000053 	strlt	r0, [r0, #-83]	; 0x53

000034e0 <Code_839>:
    34e0:	b500      	push	{lr}
    34e2:	f000 f80a 	bl	34fa <Code_840>
    34e6:	2e00      	cmp	r6, #0
    34e8:	d1fb      	bne.n	34e2 <Code_839+0x2>
    34ea:	6838      	ldr	r0, [r7, #0]
    34ec:	2800      	cmp	r0, #0
    34ee:	d1f8      	bne.n	34e2 <Code_839+0x2>
    34f0:	bd00      	pop	{pc}

000034f2 <Dictionary_840>:
    34f2:	0000351e 	andeq	r3, r0, lr, lsl r5
    34f6:	23010000 	movwcs	r0, #4096	; 0x1000

000034fa <Code_840>:
    34fa:	b500      	push	{lr}
    34fc:	f847 6d04 	str.w	r6, [r7, #-4]!
    3500:	4e3e      	ldr	r6, [pc, #248]	; (35fc <Code_862+0xa>)
    3502:	6836      	ldr	r6, [r6, #0]
    3504:	f847 6d04 	str.w	r6, [r7, #-4]!
    3508:	2600      	movs	r6, #0
    350a:	f7fd f97b 	bl	804 <Code_95>
    350e:	f7fc ffad 	bl	46c <Code_22>
    3512:	cf40      	ldmia	r7!, {r6}
    3514:	f7ff ff77 	bl	3406 <Code_828>
    3518:	f7ff ff85 	bl	3426 <Code_829>
    351c:	bd00      	pop	{pc}

0000351e <Dictionary_845>:
    351e:	00003530 	andeq	r3, r0, r0, lsr r5
    3522:	3c020000 	stccc	0, cr0, [r2], {0}
    3526:	48350023 	ldmdami	r5!, {r0, r1, r5}

00003528 <Code_845>:
    3528:	4835      	ldr	r0, [pc, #212]	; (3600 <Code_862+0xe>)
    352a:	2100      	movs	r1, #0
    352c:	7001      	strb	r1, [r0, #0]
    352e:	4770      	bx	lr

00003530 <Dictionary_846>:
    3530:	00003542 	andeq	r3, r0, r2, asr #10
    3534:	66020000 	strvs	r0, [r2], -r0
    3538:	f847002e 			; <UNDEFINED> instruction: 0xf847002e

0000353a <Code_846>:
    353a:	f847 6d04 	str.w	r6, [r7, #-4]!
    353e:	2620      	movs	r6, #32
    3540:	e004      	b.n	354c <Code_849>

00003542 <Dictionary_849>:
    3542:	00003590 	muleq	r0, r0, r5
    3546:	66030000 	strvs	r0, [r3], -r0
    354a:	b5006e2e 	strlt	r6, [r0, #-3630]	; 0xe2e

0000354c <Code_849>:
    354c:	b500      	push	{lr}
    354e:	b410      	push	{r4}
    3550:	0034      	movs	r4, r6
    3552:	cf40      	ldmia	r7!, {r6}
    3554:	f7fd fae5 	bl	b22 <Code_132>
    3558:	f7fd f83b 	bl	5d2 <Code_42>
    355c:	f847 6d04 	str.w	r6, [r7, #-4]!
    3560:	2600      	movs	r6, #0
    3562:	f7ff ffe1 	bl	3528 <Code_845>
    3566:	f7ff ffbb 	bl	34e0 <Code_839>
    356a:	cf40      	ldmia	r7!, {r6}
    356c:	262c      	movs	r6, #44	; 0x2c
    356e:	f7ff ff75 	bl	345c <Code_831>
    3572:	2c00      	cmp	r4, #0
    3574:	d003      	beq.n	357e <Code_849+0x32>
    3576:	f7ff ffa2 	bl	34be <Code_837>
    357a:	3c01      	subs	r4, #1
    357c:	d1fb      	bne.n	3576 <Code_849+0x2a>
    357e:	bc10      	pop	{r4}
    3580:	cf40      	ldmia	r7!, {r6}
    3582:	f7ff ff7b 	bl	347c <Code_833>
    3586:	f847 6d04 	str.w	r6, [r7, #-4]!
    358a:	f847 6d04 	str.w	r6, [r7, #-4]!
    358e:	e01c      	b.n	35ca <abschluss_zahlenausgabe>

00003590 <Dictionary_857>:
    3590:	000035a6 	andeq	r3, r0, r6, lsr #11
    3594:	75030000 	strvc	r0, [r3]
    3598:	b5002e64 	strlt	r2, [r0, #-3684]	; 0xe64

0000359a <Code_857>:
    359a:	b500      	push	{lr}
    359c:	f7ff ffc4 	bl	3528 <Code_845>
    35a0:	f7ff ff9e 	bl	34e0 <Code_839>
    35a4:	e011      	b.n	35ca <abschluss_zahlenausgabe>

000035a6 <Dictionary_858>:
    35a6:	000035d8 	ldrdeq	r3, [r0], -r8
    35aa:	64020000 	strvs	r0, [r2]
    35ae:	b500002e 	strlt	r0, [r0, #-46]	; 0x2e

000035b0 <Code_858>:
    35b0:	b500      	push	{lr}
    35b2:	f7fd fab6 	bl	b22 <Code_132>
    35b6:	f7fd f80c 	bl	5d2 <Code_42>
    35ba:	f7ff ffb5 	bl	3528 <Code_845>
    35be:	f7ff ff8f 	bl	34e0 <Code_839>
    35c2:	f7fd fab8 	bl	b36 <Code_133>
    35c6:	f7ff ff59 	bl	347c <Code_833>

000035ca <abschluss_zahlenausgabe>:
    35ca:	f7ff ff62 	bl	3492 <Code_835>
    35ce:	f7fe fb6a 	bl	1ca6 <Code_373>
    35d2:	f7fe fabb 	bl	1b4c <Code_338>
    35d6:	bd00      	pop	{pc}

000035d8 <Dictionary_859>:
    35d8:	000035ea 	andeq	r3, r0, sl, ror #11
    35dc:	75020000 	strvc	r0, [r2]
    35e0:	f847002e 			; <UNDEFINED> instruction: 0xf847002e

000035e2 <Code_859>:
    35e2:	f847 6d04 	str.w	r6, [r7, #-4]!
    35e6:	2600      	movs	r6, #0
    35e8:	e7d7      	b.n	359a <Code_857>

000035ea <Dictionary_862>:
    35ea:	00003604 	andeq	r3, r0, r4, lsl #12
    35ee:	2e010000 	cdpcs	0, 0, cr0, cr1, cr0, {0}

000035f2 <Code_862>:
    35f2:	f847 6d04 	str.w	r6, [r7, #-4]!
    35f6:	17f6      	asrs	r6, r6, #31
    35f8:	e7da      	b.n	35b0 <Code_858>
    35fa:	7ffc0000 	svcvc	0x00fc0000
    35fe:	80282000 	eorhi	r2, r8, r0
    3602:	364c1fff 			; <UNDEFINED> instruction: 0x364c1fff

00003604 <Dictionary_864>:
    3604:	0000364c 	andeq	r3, r0, ip, asr #12
    3608:	65080000 	strvs	r0, [r8]
    360c:	756c6176 	strbvc	r6, [ip, #-374]!	; 0x176
    3610:	00657461 	rsbeq	r7, r5, r1, ror #8

00003614 <Code_864>:
    3614:	b500      	push	{lr}
    3616:	f7fe fa34 	bl	1a82 <Code_321>
    361a:	cf01      	ldmia	r7!, {r0}
    361c:	b401      	push	{r0}
    361e:	b440      	push	{r6}
    3620:	cf40      	ldmia	r7!, {r6}
    3622:	48d5      	ldr	r0, [pc, #852]	; (3978 <quit_innenschleife+0x14>)
    3624:	6801      	ldr	r1, [r0, #0]
    3626:	b402      	push	{r1}
    3628:	2100      	movs	r1, #0
    362a:	6001      	str	r1, [r0, #0]
    362c:	f7fe fa1c 	bl	1a68 <Code_319>
    3630:	f000 f814 	bl	365c <Code_866>
    3634:	48d0      	ldr	r0, [pc, #832]	; (3978 <quit_innenschleife+0x14>)
    3636:	bc02      	pop	{r1}
    3638:	6001      	str	r1, [r0, #0]
    363a:	f847 6d04 	str.w	r6, [r7, #-4]!
    363e:	bc40      	pop	{r6}
    3640:	bc01      	pop	{r0}
    3642:	3f04      	subs	r7, #4
    3644:	6038      	str	r0, [r7, #0]
    3646:	f7fe fa0f 	bl	1a68 <Code_319>
    364a:	bd00      	pop	{pc}

0000364c <Dictionary_866>:
    364c:	00003910 	andeq	r3, r0, r0, lsl r9
    3650:	69090000 	stmdbvs	r9, {}	; <UNPREDICTABLE>
    3654:	7265746e 	rsbvc	r7, r5, #1845493760	; 0x6e000000
    3658:	74657270 	strbtvc	r7, [r5], #-624	; 0x270

0000365c <Code_866>:
    365c:	b530      	push	{r4, r5, lr}
    365e:	48c7      	ldr	r0, [pc, #796]	; (397c <quit_innenschleife+0x18>)
    3660:	4287      	cmp	r7, r0
    3662:	d90b      	bls.n	367c <Code_866+0x20>
    3664:	f7fe fac3 	bl	1bee <dotgaensefuesschen>
    3668:	61745310 	cmnvs	r4, r0, lsl r3
    366c:	75206b63 	strvc	r6, [r0, #-2915]!	; 0xb63
    3670:	7265646e 	rsbvc	r6, r5, #1845493760	; 0x6e000000
    3674:	776f6c66 	strbvc	r6, [pc, -r6, ror #24]!
    3678:	e15d000a 	cmp	sp, sl
    367c:	48c0      	ldr	r0, [pc, #768]	; (3980 <quit_innenschleife+0x1c>)
    367e:	4287      	cmp	r7, r0
    3680:	d20a      	bcs.n	3698 <Code_866+0x3c>
    3682:	f7fe fab4 	bl	1bee <dotgaensefuesschen>
    3686:	6174530f 	cmnvs	r4, pc, lsl #6
    368a:	6f206b63 	svcvs	0x00206b63
    368e:	66726576 			; <UNDEFINED> instruction: 0x66726576
    3692:	0a776f6c 	beq	1ddf44a <BIT24+0xddf44a>
    3696:	e14f      	b.n	3938 <Code_921>
    3698:	4cba      	ldr	r4, [pc, #744]	; (3984 <quit_innenschleife+0x20>)
    369a:	6825      	ldr	r5, [r4, #0]
    369c:	2d00      	cmp	r5, #0
    369e:	d101      	bne.n	36a4 <Code_866+0x48>
    36a0:	003d      	movs	r5, r7
    36a2:	6025      	str	r5, [r4, #0]
    36a4:	f7ff fdc0 	bl	3228 <Code_794>
    36a8:	2e00      	cmp	r6, #0
    36aa:	d102      	bne.n	36b2 <Code_866+0x56>
    36ac:	3704      	adds	r7, #4
    36ae:	cf40      	ldmia	r7!, {r6}
    36b0:	bd30      	pop	{r4, r5, pc}
    36b2:	6838      	ldr	r0, [r7, #0]
    36b4:	f847 6d04 	str.w	r6, [r7, #-4]!
    36b8:	3f04      	subs	r7, #4
    36ba:	6038      	str	r0, [r7, #0]
    36bc:	f7ff fa6f 	bl	2b9e <Code_634>
    36c0:	0031      	movs	r1, r6
    36c2:	cf40      	ldmia	r7!, {r6}
    36c4:	0032      	movs	r2, r6
    36c6:	cf40      	ldmia	r7!, {r6}
    36c8:	2a00      	cmp	r2, #0
    36ca:	d113      	bne.n	36f4 <not_found_addr_r0_len_r1+0x18>
    36cc:	6838      	ldr	r0, [r7, #0]
    36ce:	0031      	movs	r1, r6
    36d0:	f7ff fe14 	bl	32fc <Code_801>
    36d4:	0032      	movs	r2, r6
    36d6:	cf40      	ldmia	r7!, {r6}
    36d8:	2a00      	cmp	r2, #0
    36da:	d1c0      	bne.n	365e <Code_866+0x2>

000036dc <not_found_addr_r0_len_r1>:
    36dc:	f7fe fae7 	bl	1cae <stype_addr_r0_len_r1>
    36e0:	f7fe fa85 	bl	1bee <dotgaensefuesschen>
    36e4:	6f6e200c 	svcvs	0x006e200c
    36e8:	6f662074 	svcvs	0x00662074
    36ec:	2e646e75 	mcrcs	14, 3, r6, cr4, cr5, {3}
    36f0:	e121000a 	teq	r1, sl
    36f4:	4ba4      	ldr	r3, [pc, #656]	; (3988 <quit_innenschleife+0x24>)
    36f6:	681b      	ldr	r3, [r3, #0]
    36f8:	2b00      	cmp	r3, #0
    36fa:	d11d      	bne.n	3738 <.ausfuehren+0x12>
    36fc:	2500      	movs	r5, #0
    36fe:	6025      	str	r5, [r4, #0]
    3700:	2330      	movs	r3, #48	; 0x30
    3702:	400b      	ands	r3, r1
    3704:	2b30      	cmp	r3, #48	; 0x30
    3706:	d10e      	bne.n	3726 <.ausfuehren>
    3708:	f7fe facd 	bl	1ca6 <Code_373>
    370c:	f7fe fa6f 	bl	1bee <dotgaensefuesschen>
    3710:	73692012 	cmnvc	r9, #18
    3714:	6d6f6320 	stclvs	3, cr6, [pc, #-128]!	; 369c <Code_866+0x40>
    3718:	656c6970 	strbvs	r6, [ip, #-2416]!	; 0x970
    371c:	6c6e6f2d 	stclvs	15, cr6, [lr], #-180	; 0xffffff4c
    3720:	000a2e79 	andeq	r2, sl, r9, ror lr
    3724:	e108      	b.n	3938 <Code_921>

00003726 <.ausfuehren>:
    3726:	3704      	adds	r7, #4
    3728:	cf40      	ldmia	r7!, {r6}
    372a:	f847 6d04 	str.w	r6, [r7, #-4]!
    372e:	0016      	movs	r6, r2
    3730:	f7fe fe28 	bl	2384 <Code_487>
    3734:	f7ff ff93 	bl	365e <Code_866+0x2>
    3738:	3704      	adds	r7, #4
    373a:	cf40      	ldmia	r7!, {r6}
    373c:	2080      	movs	r0, #128	; 0x80
    373e:	4008      	ands	r0, r1
    3740:	d10e      	bne.n	3760 <.interpret_faltoptimierung>
    3742:	1beb      	subs	r3, r5, r7
    3744:	089b      	lsrs	r3, r3, #2
    3746:	2040      	movs	r0, #64	; 0x40
    3748:	4008      	ands	r0, r1
    374a:	d00f      	beq.n	376c <.konstantenschleife>
    374c:	2008      	movs	r0, #8
    374e:	4008      	ands	r0, r1
    3750:	d002      	beq.n	3758 <.interpret_genugkonstanten>
    3752:	2b00      	cmp	r3, #0
    3754:	d000      	beq.n	3758 <.interpret_genugkonstanten>
    3756:	e01d      	b.n	3794 <.interpret_opcodierbar>

00003758 <.interpret_genugkonstanten>:
    3758:	200f      	movs	r0, #15
    375a:	4008      	ands	r0, r1
    375c:	4283      	cmp	r3, r0
    375e:	d305      	bcc.n	376c <.konstantenschleife>

00003760 <.interpret_faltoptimierung>:
    3760:	f847 6d04 	str.w	r6, [r7, #-4]!
    3764:	0016      	movs	r6, r2
    3766:	f7fe fe0d 	bl	2384 <Code_487>
    376a:	e778      	b.n	365e <Code_866+0x2>

0000376c <.konstantenschleife>:
    376c:	f000 f8bd 	bl	38ea <konstantenschreiben>
    3770:	f847 6d04 	str.w	r6, [r7, #-4]!
    3774:	0016      	movs	r6, r2
    3776:	2210      	movs	r2, #16
    3778:	400a      	ands	r2, r1
    377a:	d002      	beq.n	3782 <.konstantenschleife+0x16>
    377c:	f7fe fe02 	bl	2384 <Code_487>
    3780:	e76d      	b.n	365e <Code_866+0x2>
    3782:	2220      	movs	r2, #32
    3784:	400a      	ands	r2, r1
    3786:	d002      	beq.n	378e <.konstantenschleife+0x22>
    3788:	f7fe fd5e 	bl	2248 <Code_465>
    378c:	e767      	b.n	365e <Code_866+0x2>
    378e:	f7fe fc84 	bl	209a <Code_434>
    3792:	e764      	b.n	365e <Code_866+0x2>

00003794 <.interpret_opcodierbar>:
    3794:	2007      	movs	r0, #7
    3796:	4001      	ands	r1, r0
    3798:	0010      	movs	r0, r2
    379a:	f7fe fd6c 	bl	2276 <suchedefinitionsende>
    379e:	2901      	cmp	r1, #1
    37a0:	d11f      	bne.n	37e2 <.interpret_opcodierbar_rechenlogik>
    37a2:	2b01      	cmp	r3, #1
    37a4:	d1dc      	bne.n	3760 <.interpret_faltoptimierung>
    37a6:	21ff      	movs	r1, #255	; 0xff
    37a8:	4031      	ands	r1, r6
    37aa:	42b1      	cmp	r1, r6
    37ac:	d104      	bne.n	37b8 <.interpret_opcodierbar+0x24>
    37ae:	8840      	ldrh	r0, [r0, #2]
    37b0:	4306      	orrs	r6, r0
    37b2:	f7fe ff38 	bl	2626 <Code_540>
    37b6:	e752      	b.n	365e <Code_866+0x2>
    37b8:	f7fe fb5e 	bl	1e78 <Code_413>
    37bc:	2e00      	cmp	r6, #0
    37be:	cf40      	ldmia	r7!, {r6}
    37c0:	d004      	beq.n	37cc <.interpret_opcodieren_ueber_r0>
    37c2:	6840      	ldr	r0, [r0, #4]
    37c4:	4306      	orrs	r6, r0
    37c6:	f7fe ff56 	bl	2676 <Code_549>
    37ca:	e748      	b.n	365e <Code_866+0x2>

000037cc <.interpret_opcodieren_ueber_r0>:
    37cc:	f847 6d04 	str.w	r6, [r7, #-4]!
    37d0:	2600      	movs	r6, #0
    37d2:	f7fe fc05 	bl	1fe0 <Code_422>
    37d6:	f847 6d04 	str.w	r6, [r7, #-4]!
    37da:	8806      	ldrh	r6, [r0, #0]
    37dc:	f7fe ff23 	bl	2626 <Code_540>
    37e0:	e73d      	b.n	365e <Code_866+0x2>

000037e2 <.interpret_opcodierbar_rechenlogik>:
    37e2:	2902      	cmp	r1, #2
    37e4:	d102      	bne.n	37ec <.interpret_opcodierbar_gleichungleich>
    37e6:	2b01      	cmp	r3, #1
    37e8:	d1ba      	bne.n	3760 <.interpret_faltoptimierung>
    37ea:	e7ef      	b.n	37cc <.interpret_opcodieren_ueber_r0>

000037ec <.interpret_opcodierbar_gleichungleich>:
    37ec:	2903      	cmp	r1, #3
    37ee:	d126      	bne.n	383e <.interpret_opcodierbar_schieben>
    37f0:	2b01      	cmp	r3, #1
    37f2:	d1b5      	bne.n	3760 <.interpret_faltoptimierung>
    37f4:	21ff      	movs	r1, #255	; 0xff
    37f6:	4031      	ands	r1, r6
    37f8:	42b1      	cmp	r1, r6
    37fa:	d10a      	bne.n	3812 <.interpret_opcodierbar_gleichungleich+0x26>
    37fc:	4963      	ldr	r1, [pc, #396]	; (398c <quit_innenschleife+0x28>)
    37fe:	430e      	orrs	r6, r1
    3800:	f7fe ff11 	bl	2626 <Code_540>
    3804:	3204      	adds	r2, #4
    3806:	f847 6d04 	str.w	r6, [r7, #-4]!
    380a:	0016      	movs	r6, r2
    380c:	f7fe fd1c 	bl	2248 <Code_465>
    3810:	e725      	b.n	365e <Code_866+0x2>
    3812:	f7fe fb31 	bl	1e78 <Code_413>
    3816:	2e00      	cmp	r6, #0
    3818:	cf40      	ldmia	r7!, {r6}
    381a:	d004      	beq.n	3826 <.interpret_opcodierbar_gleichungleich+0x3a>
    381c:	495c      	ldr	r1, [pc, #368]	; (3990 <quit_innenschleife+0x2c>)
    381e:	430e      	orrs	r6, r1
    3820:	f7fe ff29 	bl	2676 <Code_549>
    3824:	e7ee      	b.n	3804 <.interpret_opcodierbar_gleichungleich+0x18>
    3826:	f847 6d04 	str.w	r6, [r7, #-4]!
    382a:	2600      	movs	r6, #0
    382c:	f7fe fbd8 	bl	1fe0 <Code_422>
    3830:	3202      	adds	r2, #2
    3832:	f847 6d04 	str.w	r6, [r7, #-4]!
    3836:	0016      	movs	r6, r2
    3838:	f7fe fd06 	bl	2248 <Code_465>
    383c:	e70f      	b.n	365e <Code_866+0x2>

0000383e <.interpret_opcodierbar_schieben>:
    383e:	2904      	cmp	r1, #4
    3840:	d118      	bne.n	3874 <.interpret_opcodierbar_speicherschreiben>
    3842:	2b01      	cmp	r3, #1
    3844:	d18c      	bne.n	3760 <.interpret_faltoptimierung>
    3846:	0033      	movs	r3, r6
    3848:	cf40      	ldmia	r7!, {r6}
    384a:	2b00      	cmp	r3, #0
    384c:	d100      	bne.n	3850 <.interpret_opcodierbar_schieben+0x12>
    384e:	e706      	b.n	365e <Code_866+0x2>
    3850:	221f      	movs	r2, #31
    3852:	401a      	ands	r2, r3
    3854:	429a      	cmp	r2, r3
    3856:	d005      	beq.n	3864 <.interpret_opcodierbar_schieben+0x26>
    3858:	f847 6d04 	str.w	r6, [r7, #-4]!
    385c:	8846      	ldrh	r6, [r0, #2]
    385e:	f7fe fee2 	bl	2626 <Code_540>
    3862:	e6fc      	b.n	365e <Code_866+0x2>
    3864:	f847 6d04 	str.w	r6, [r7, #-4]!
    3868:	8806      	ldrh	r6, [r0, #0]
    386a:	019b      	lsls	r3, r3, #6
    386c:	431e      	orrs	r6, r3
    386e:	f7fe feda 	bl	2626 <Code_540>
    3872:	e6f4      	b.n	365e <Code_866+0x2>

00003874 <.interpret_opcodierbar_speicherschreiben>:
    3874:	2905      	cmp	r1, #5
    3876:	d124      	bne.n	38c2 <.interpret_opcodierbar_andere>
    3878:	2b01      	cmp	r3, #1
    387a:	d110      	bne.n	389e <.interpret_opcodierbar_speicherschreiben+0x2a>
    387c:	f847 6d04 	str.w	r6, [r7, #-4]!
    3880:	2600      	movs	r6, #0
    3882:	f7fe fbad 	bl	1fe0 <Code_422>
    3886:	f847 6d04 	str.w	r6, [r7, #-4]!
    388a:	0006      	movs	r6, r0
    388c:	f7fe fcdc 	bl	2248 <Code_465>
    3890:	f847 6d04 	str.w	r6, [r7, #-4]!
    3894:	f64c 7640 	movw	r6, #53056	; 0xcf40
    3898:	f7fe fec5 	bl	2626 <Code_540>
    389c:	e6df      	b.n	365e <Code_866+0x2>
    389e:	f847 6d04 	str.w	r6, [r7, #-4]!
    38a2:	2600      	movs	r6, #0
    38a4:	f7fe fb9c 	bl	1fe0 <Code_422>
    38a8:	f847 6d04 	str.w	r6, [r7, #-4]!
    38ac:	2601      	movs	r6, #1
    38ae:	f7fe fb97 	bl	1fe0 <Code_422>
    38b2:	f7fe fce0 	bl	2276 <suchedefinitionsende>
    38b6:	f847 6d04 	str.w	r6, [r7, #-4]!
    38ba:	0006      	movs	r6, r0
    38bc:	f7fe fcc4 	bl	2248 <Code_465>
    38c0:	e6cd      	b.n	365e <Code_866+0x2>

000038c2 <.interpret_opcodierbar_andere>:
    38c2:	2906      	cmp	r1, #6
    38c4:	d10e      	bne.n	38e4 <.interpret_opcodierbar_andere+0x22>
    38c6:	2b01      	cmp	r3, #1
    38c8:	f47f af4a 	bne.w	3760 <.interpret_faltoptimierung>
    38cc:	f7fe fad4 	bl	1e78 <Code_413>
    38d0:	2e00      	cmp	r6, #0
    38d2:	cf40      	ldmia	r7!, {r6}
    38d4:	f43f af7a 	beq.w	37cc <.interpret_opcodieren_ueber_r0>
    38d8:	f8d0 0002 	ldr.w	r0, [r0, #2]
    38dc:	4306      	orrs	r6, r0
    38de:	f7fe feca 	bl	2676 <Code_549>
    38e2:	e6bc      	b.n	365e <Code_866+0x2>
    38e4:	3001      	adds	r0, #1
    38e6:	4780      	blx	r0
    38e8:	e6b9      	b.n	365e <Code_866+0x2>

000038ea <konstantenschreiben>:
    38ea:	b500      	push	{lr}
    38ec:	2b00      	cmp	r3, #0
    38ee:	d00c      	beq.n	390a <.konstanteninnenschleife+0x1a>

000038f0 <.konstanteninnenschleife>:
    38f0:	3b01      	subs	r3, #1
    38f2:	f847 6d04 	str.w	r6, [r7, #-4]!
    38f6:	001e      	movs	r6, r3
    38f8:	f857 6026 	ldr.w	r6, [r7, r6, lsl #2]
    38fc:	f7fe fc02 	bl	2104 <Code_439>
    3900:	2b00      	cmp	r3, #0
    3902:	d1f5      	bne.n	38f0 <.konstanteninnenschleife>
    3904:	3d04      	subs	r5, #4
    3906:	002f      	movs	r7, r5
    3908:	cf40      	ldmia	r7!, {r6}
    390a:	2500      	movs	r5, #0
    390c:	6025      	str	r5, [r4, #0]
    390e:	bd00      	pop	{pc}

00003910 <Dictionary_918>:
    3910:	0000392c 	andeq	r3, r0, ip, lsr #18
    3914:	68090081 	stmdavs	r9, {r0, r7}
    3918:	2d6b6f6f 	stclcs	15, cr6, [fp, #-444]!	; 0xfffffe44
    391c:	74697571 	strbtvc	r7, [r9], #-1393	; 0x571

00003920 <Code_918>:
    3920:	f847 6d04 	str.w	r6, [r7, #-4]!
    3924:	4e1b      	ldr	r6, [pc, #108]	; (3994 <quit_innenschleife+0x30>)
    3926:	4770      	bx	lr
    3928:	00003964 	andeq	r3, r0, r4, ror #18

0000392c <Dictionary_921>:
    392c:	000039a8 	andeq	r3, r0, r8, lsr #19
    3930:	71040000 	mrsvc	r0, (UNDEF: 4)
    3934:	00746975 	rsbseq	r6, r4, r5, ror r9

00003938 <Code_921>:
    3938:	f8df d05c 	ldr.w	sp, [pc, #92]	; 3998 <quit_innenschleife+0x34>
    393c:	4f0f      	ldr	r7, [pc, #60]	; (397c <quit_innenschleife+0x18>)
    393e:	f7fd fd89 	bl	1454 <sammeltabelleleeren>
    3942:	4816      	ldr	r0, [pc, #88]	; (399c <quit_innenschleife+0x38>)
    3944:	210a      	movs	r1, #10
    3946:	6001      	str	r1, [r0, #0]
    3948:	480f      	ldr	r0, [pc, #60]	; (3988 <quit_innenschleife+0x24>)
    394a:	2100      	movs	r1, #0
    394c:	6001      	str	r1, [r0, #0]
    394e:	480d      	ldr	r0, [pc, #52]	; (3984 <quit_innenschleife+0x20>)
    3950:	6001      	str	r1, [r0, #0]
    3952:	4809      	ldr	r0, [pc, #36]	; (3978 <quit_innenschleife+0x14>)
    3954:	6001      	str	r1, [r0, #0]
    3956:	4812      	ldr	r0, [pc, #72]	; (39a0 <quit_innenschleife+0x3c>)
    3958:	6001      	str	r1, [r0, #0]
    395a:	4912      	ldr	r1, [pc, #72]	; (39a4 <quit_innenschleife+0x40>)
    395c:	6041      	str	r1, [r0, #4]

0000395e <quit_intern>:
    395e:	480d      	ldr	r0, [pc, #52]	; (3994 <quit_innenschleife+0x30>)
    3960:	6800      	ldr	r0, [r0, #0]
    3962:	4687      	mov	pc, r0

00003964 <quit_innenschleife>:
    3964:	f7fe f89b 	bl	1a9e <Code_323>
    3968:	f7ff fe78 	bl	365c <Code_866>
    396c:	f7fe f93f 	bl	1bee <dotgaensefuesschen>
    3970:	6b6f2005 	blvs	1bcb98c <BIT24+0xbcb98c>
    3974:	e7f50a2e 	ldrb	r0, [r5, lr, lsr #20]!
    3978:	20007fe4 	andcs	r7, r0, r4, ror #31
    397c:	1fff8230 	svcne	0x00ff8230
    3980:	1fff8130 	svcne	0x00ff8130
    3984:	1fff8008 	svcne	0x00ff8008
    3988:	20007fd8 	ldrdcs	r7, [r0], -r8
    398c:	00003e00 	andeq	r3, r0, r0, lsl #28
    3990:	f1b60600 			; <UNDEFINED> instruction: 0xf1b60600
    3994:	20007fd4 	ldrdcs	r7, [r0], -r4
    3998:	1fff8330 	svcne	0x00ff8330
    399c:	20007ffc 	strdcs	r7, [r0], -ip
    39a0:	20007fdc 	ldrdcs	r7, [r0], -ip
    39a4:	1fff8068 	svcne	0x00ff8068

000039a8 <Dictionary_923>:
    39a8:	000039c2 	andeq	r3, r0, r2, asr #19
    39ac:	65050000 	strvs	r0, [r5]
    39b0:	3f746e69 	svccc	0x00746e69

000039b4 <Code_923>:
    39b4:	f847 6d04 	str.w	r6, [r7, #-4]!
    39b8:	f3ef 8610 	mrs	r6, PRIMASK
    39bc:	3e01      	subs	r6, #1
    39be:	41b6      	sbcs	r6, r6
    39c0:	4770      	bx	lr

000039c2 <Dictionary_925>:
    39c2:	000039d2 	ldrdeq	r3, [r0], -r2
    39c6:	65040020 	strvs	r0, [r4, #-32]
    39ca:	00746e69 	rsbseq	r6, r4, r9, ror #28

000039ce <Code_925>:
    39ce:	b662      	cpsie	i
    39d0:	4770      	bx	lr

000039d2 <Dictionary_926>:
    39d2:	000039e2 	andeq	r3, r0, r2, ror #19
    39d6:	64040020 	strvs	r0, [r4], #-32
    39da:	00746e69 	rsbseq	r6, r4, r9, ror #28

000039de <Code_926>:
    39de:	b672      	cpsid	i
    39e0:	4770      	bx	lr

000039e2 <Dictionary_927>:
    39e2:	000039f8 	strdeq	r3, [r0], -r8
    39e6:	69040020 	stmdbvs	r4, {r5}
    39ea:	00727370 	rsbseq	r7, r2, r0, ror r3

000039ee <Code_927>:
    39ee:	f847 6d04 	str.w	r6, [r7, #-4]!
    39f2:	f3ef 8605 	mrs	r6, IPSR
    39f6:	4770      	bx	lr

000039f8 <Dictionary_929>:
    39f8:	00003a04 	andeq	r3, r0, r4, lsl #20
    39fc:	6e030000 	cdpvs	0, 0, cr0, cr3, cr0, {0}
    3a00:	4770706f 	ldrbmi	r7, [r0, -pc, rrx]!

00003a02 <Code_929>:
    3a02:	4770      	bx	lr

00003a04 <Dictionary_930>:
    3a04:	00003a46 	andeq	r3, r0, r6, asr #20
    3a08:	75090000 	strvc	r0, [r9]
    3a0c:	6e61686e 	cdpvs	8, 6, cr6, cr1, cr14, {3}
    3a10:	64656c64 	strbtvs	r6, [r5], #-3172	; 0xc64

00003a14 <Code_930>:
    3a14:	b500      	push	{lr}
    3a16:	f7fe f8ea 	bl	1bee <dotgaensefuesschen>
    3a1a:	686e5514 	stmdavs	lr!, {r2, r4, r8, sl, ip, lr}^
    3a1e:	6c646e61 	stclvs	14, cr6, [r4], #-388	; 0xfffffe7c
    3a22:	49206465 	stmdbmi	r0!, {r0, r2, r5, r6, sl, sp, lr}
    3a26:	7265746e 	rsbvc	r7, r5, #1845493760	; 0x6e000000
    3a2a:	74707572 	ldrbtvc	r7, [r0], #-1394	; 0x572
    3a2e:	f8470020 			; <UNDEFINED> instruction: 0xf8470020
    3a32:	6d04      	ldr	r4, [r0, #80]	; 0x50
    3a34:	f3ef 8605 	mrs	r6, IPSR
    3a38:	f7fe f94c 	bl	1cd4 <Code_377>
    3a3c:	f7fe f8d7 	bl	1bee <dotgaensefuesschen>
    3a40:	000a2102 	andeq	r2, sl, r2, lsl #2
    3a44:	bd00      	pop	{pc}

00003a46 <Dictionary_934>:
    3a46:	00003a5c 	andeq	r3, r0, ip, asr sl
    3a4a:	72050000 	andvc	r0, r5, #0
    3a4e:	74657365 	strbtvc	r7, [r5], #-869	; 0x365

00003a52 <Code_934>:
    3a52:	f8df 0404 	ldr.w	r0, [pc, #1028]	; 3e58 <init_name+0x6>
    3a56:	f8df 1404 	ldr.w	r1, [pc, #1028]	; 3e5c <init_name+0xa>
    3a5a:	6001      	str	r1, [r0, #0]

00003a5c <Dictionary_936>:
    3a5c:	00003a86 	andeq	r3, r0, r6, lsl #21
    3a60:	690b0081 	stmdbvs	fp, {r0, r7}
    3a64:	732d7172 	teqvc	sp, #-2147483620	; 0x8000001c
    3a68:	69747379 	ldmdbvs	r4!, {r0, r3, r4, r5, r6, r8, r9, ip, sp, lr}^
    3a6c:	f8476b63 			; <UNDEFINED> instruction: 0xf8476b63

00003a6e <Code_936>:
    3a6e:	f847 6d04 	str.w	r6, [r7, #-4]!
    3a72:	4efb      	ldr	r6, [pc, #1004]	; (3e60 <init_name+0xe>)
    3a74:	4770      	bx	lr
    3a76:	00003a14 	andeq	r3, r0, r4, lsl sl

00003a7a <irq_vektor_systick>:
    3a7a:	f647 70d0 	movw	r0, #32720	; 0x7fd0
    3a7e:	f2c2 0000 	movt	r0, #8192	; 0x2000
    3a82:	6800      	ldr	r0, [r0, #0]
    3a84:	4687      	mov	pc, r0

00003a86 <Dictionary_940>:
    3a86:	00003aae 	andeq	r3, r0, lr, lsr #21
    3a8a:	69090081 	stmdbvs	r9, {r0, r7}
    3a8e:	662d7172 			; <UNDEFINED> instruction: 0x662d7172
    3a92:	746c7561 	strbtvc	r7, [ip], #-1377	; 0x561

00003a96 <Code_940>:
    3a96:	f847 6d04 	str.w	r6, [r7, #-4]!
    3a9a:	4ef2      	ldr	r6, [pc, #968]	; (3e64 <init_name+0x12>)
    3a9c:	4770      	bx	lr
    3a9e:	00003a14 	andeq	r3, r0, r4, lsl sl

00003aa2 <faulthandler>:
    3aa2:	f647 70cc 	movw	r0, #32716	; 0x7fcc
    3aa6:	f2c2 0000 	movt	r0, #8192	; 0x2000
    3aaa:	6800      	ldr	r0, [r0, #0]
    3aac:	4687      	mov	pc, r0

00003aae <Dictionary_944>:
    3aae:	00003adc 	ldrdeq	r3, [r0], -ip
    3ab2:	690e0081 	stmdbvs	lr, {r0, r7}
    3ab6:	632d7172 	teqvs	sp, #-2147483620	; 0x8000001c
    3aba:	656c6c6f 	strbvs	r6, [ip, #-3183]!	; 0xc6f
    3abe:	6f697463 	svcvs	0x00697463
    3ac2:	f847006e 			; <UNDEFINED> instruction: 0xf847006e

00003ac4 <Code_944>:
    3ac4:	f847 6d04 	str.w	r6, [r7, #-4]!
    3ac8:	4ee7      	ldr	r6, [pc, #924]	; (3e68 <init_name+0x16>)
    3aca:	4770      	bx	lr
    3acc:	00003a14 	andeq	r3, r0, r4, lsl sl

00003ad0 <nullhandler>:
    3ad0:	f647 70c8 	movw	r0, #32712	; 0x7fc8
    3ad4:	f2c2 0000 	movt	r0, #8192	; 0x2000
    3ad8:	6800      	ldr	r0, [r0, #0]
    3ada:	4687      	mov	pc, r0

00003adc <Dictionary_948>:
    3adc:	00003b04 	andeq	r3, r0, r4, lsl #22
    3ae0:	69080081 	stmdbvs	r8, {r0, r7}
    3ae4:	612d7172 	teqvs	sp, r2, ror r1
    3ae8:	00306364 	eorseq	r6, r0, r4, ror #6

00003aec <Code_948>:
    3aec:	f847 6d04 	str.w	r6, [r7, #-4]!
    3af0:	4ede      	ldr	r6, [pc, #888]	; (3e6c <init_name+0x1a>)
    3af2:	4770      	bx	lr
    3af4:	00003a14 	andeq	r3, r0, r4, lsl sl

00003af8 <irq_vektor_adc0>:
    3af8:	f647 70c4 	movw	r0, #32708	; 0x7fc4
    3afc:	f2c2 0000 	movt	r0, #8192	; 0x2000
    3b00:	6800      	ldr	r0, [r0, #0]
    3b02:	4687      	mov	pc, r0

00003b04 <Dictionary_952>:
    3b04:	00003b2c 	andeq	r3, r0, ip, lsr #22
    3b08:	69080081 	stmdbvs	r8, {r0, r7}
    3b0c:	612d7172 	teqvs	sp, r2, ror r1
    3b10:	00316364 	eorseq	r6, r1, r4, ror #6

00003b14 <Code_952>:
    3b14:	f847 6d04 	str.w	r6, [r7, #-4]!
    3b18:	4ed5      	ldr	r6, [pc, #852]	; (3e70 <init_name+0x1e>)
    3b1a:	4770      	bx	lr
    3b1c:	00003a14 	andeq	r3, r0, r4, lsl sl

00003b20 <irq_vektor_adc1>:
    3b20:	f647 70c0 	movw	r0, #32704	; 0x7fc0
    3b24:	f2c2 0000 	movt	r0, #8192	; 0x2000
    3b28:	6800      	ldr	r0, [r0, #0]
    3b2a:	4687      	mov	pc, r0

00003b2c <Dictionary_956>:
    3b2c:	00003b54 	andeq	r3, r0, r4, asr fp
    3b30:	69080081 	stmdbvs	r8, {r0, r7}
    3b34:	632d7172 	teqvs	sp, #-2147483620	; 0x8000001c
    3b38:	0030706d 	eorseq	r7, r0, sp, rrx

00003b3c <Code_956>:
    3b3c:	f847 6d04 	str.w	r6, [r7, #-4]!
    3b40:	4ecc      	ldr	r6, [pc, #816]	; (3e74 <init_name+0x22>)
    3b42:	4770      	bx	lr
    3b44:	00003a14 	andeq	r3, r0, r4, lsl sl

00003b48 <irq_vektor_cmp0>:
    3b48:	f647 70bc 	movw	r0, #32700	; 0x7fbc
    3b4c:	f2c2 0000 	movt	r0, #8192	; 0x2000
    3b50:	6800      	ldr	r0, [r0, #0]
    3b52:	4687      	mov	pc, r0

00003b54 <Dictionary_960>:
    3b54:	00003b7c 	andeq	r3, r0, ip, ror fp
    3b58:	69080081 	stmdbvs	r8, {r0, r7}
    3b5c:	632d7172 	teqvs	sp, #-2147483620	; 0x8000001c
    3b60:	0031706d 	eorseq	r7, r1, sp, rrx

00003b64 <Code_960>:
    3b64:	f847 6d04 	str.w	r6, [r7, #-4]!
    3b68:	4ec3      	ldr	r6, [pc, #780]	; (3e78 <init_name+0x26>)
    3b6a:	4770      	bx	lr
    3b6c:	00003a14 	andeq	r3, r0, r4, lsl sl

00003b70 <irq_vektor_cmp1>:
    3b70:	f647 70b8 	movw	r0, #32696	; 0x7fb8
    3b74:	f2c2 0000 	movt	r0, #8192	; 0x2000
    3b78:	6800      	ldr	r0, [r0, #0]
    3b7a:	4687      	mov	pc, r0

00003b7c <Dictionary_964>:
    3b7c:	00003ba4 	andeq	r3, r0, r4, lsr #23
    3b80:	69080081 	stmdbvs	r8, {r0, r7}
    3b84:	632d7172 	teqvs	sp, #-2147483620	; 0x8000001c
    3b88:	0032706d 	eorseq	r7, r2, sp, rrx

00003b8c <Code_964>:
    3b8c:	f847 6d04 	str.w	r6, [r7, #-4]!
    3b90:	4eba      	ldr	r6, [pc, #744]	; (3e7c <init_name+0x2a>)
    3b92:	4770      	bx	lr
    3b94:	00003a14 	andeq	r3, r0, r4, lsl sl

00003b98 <irq_vektor_cmp2>:
    3b98:	f647 70b4 	movw	r0, #32692	; 0x7fb4
    3b9c:	f2c2 0000 	movt	r0, #8192	; 0x2000
    3ba0:	6800      	ldr	r0, [r0, #0]
    3ba2:	4687      	mov	pc, r0

00003ba4 <Dictionary_968>:
    3ba4:	00003bca 	andeq	r3, r0, sl, asr #23
    3ba8:	69070081 	stmdbvs	r7, {r0, r7}
    3bac:	642d7172 	strtvs	r7, [sp], #-370	; 0x172
    3bb0:	f8476361 			; <UNDEFINED> instruction: 0xf8476361

00003bb2 <Code_968>:
    3bb2:	f847 6d04 	str.w	r6, [r7, #-4]!
    3bb6:	4eb2      	ldr	r6, [pc, #712]	; (3e80 <init_name+0x2e>)
    3bb8:	4770      	bx	lr
    3bba:	00003a14 	andeq	r3, r0, r4, lsl sl

00003bbe <irq_vektor_dac>:
    3bbe:	f647 70b0 	movw	r0, #32688	; 0x7fb0
    3bc2:	f2c2 0000 	movt	r0, #8192	; 0x2000
    3bc6:	6800      	ldr	r0, [r0, #0]
    3bc8:	4687      	mov	pc, r0

00003bca <Dictionary_972>:
    3bca:	00003bf2 	strdeq	r3, [r0], -r2
    3bce:	69090081 	stmdbvs	r9, {r0, r7}
    3bd2:	702d7172 	eorvc	r7, sp, r2, ror r1
    3bd6:	6174726f 	cmnvs	r4, pc, ror #4

00003bda <Code_972>:
    3bda:	f847 6d04 	str.w	r6, [r7, #-4]!
    3bde:	4ea9      	ldr	r6, [pc, #676]	; (3e84 <init_name+0x32>)
    3be0:	4770      	bx	lr
    3be2:	00003a14 	andeq	r3, r0, r4, lsl sl

00003be6 <irq_vektor_porta>:
    3be6:	f647 70ac 	movw	r0, #32684	; 0x7fac
    3bea:	f2c2 0000 	movt	r0, #8192	; 0x2000
    3bee:	6800      	ldr	r0, [r0, #0]
    3bf0:	4687      	mov	pc, r0

00003bf2 <Dictionary_976>:
    3bf2:	00003c1a 	andeq	r3, r0, sl, lsl ip
    3bf6:	69090081 	stmdbvs	r9, {r0, r7}
    3bfa:	702d7172 	eorvc	r7, sp, r2, ror r1
    3bfe:	6274726f 	rsbsvs	r7, r4, #-268435450	; 0xf0000006

00003c02 <Code_976>:
    3c02:	f847 6d04 	str.w	r6, [r7, #-4]!
    3c06:	4ea0      	ldr	r6, [pc, #640]	; (3e88 <init_name+0x36>)
    3c08:	4770      	bx	lr
    3c0a:	00003a14 	andeq	r3, r0, r4, lsl sl

00003c0e <irq_vektor_portb>:
    3c0e:	f647 70a8 	movw	r0, #32680	; 0x7fa8
    3c12:	f2c2 0000 	movt	r0, #8192	; 0x2000
    3c16:	6800      	ldr	r0, [r0, #0]
    3c18:	4687      	mov	pc, r0

00003c1a <Dictionary_980>:
    3c1a:	00003c42 	andeq	r3, r0, r2, asr #24
    3c1e:	69090081 	stmdbvs	r9, {r0, r7}
    3c22:	702d7172 	eorvc	r7, sp, r2, ror r1
    3c26:	6374726f 	cmnvs	r4, #-268435450	; 0xf0000006

00003c2a <Code_980>:
    3c2a:	f847 6d04 	str.w	r6, [r7, #-4]!
    3c2e:	4e97      	ldr	r6, [pc, #604]	; (3e8c <init_name+0x3a>)
    3c30:	4770      	bx	lr
    3c32:	00003a14 	andeq	r3, r0, r4, lsl sl

00003c36 <irq_vektor_portc>:
    3c36:	f647 70a4 	movw	r0, #32676	; 0x7fa4
    3c3a:	f2c2 0000 	movt	r0, #8192	; 0x2000
    3c3e:	6800      	ldr	r0, [r0, #0]
    3c40:	4687      	mov	pc, r0

00003c42 <Dictionary_984>:
    3c42:	00003c6a 	andeq	r3, r0, sl, ror #24
    3c46:	69090081 	stmdbvs	r9, {r0, r7}
    3c4a:	702d7172 	eorvc	r7, sp, r2, ror r1
    3c4e:	6474726f 	ldrbtvs	r7, [r4], #-623	; 0x26f

00003c52 <Code_984>:
    3c52:	f847 6d04 	str.w	r6, [r7, #-4]!
    3c56:	4e8e      	ldr	r6, [pc, #568]	; (3e90 <init_name+0x3e>)
    3c58:	4770      	bx	lr
    3c5a:	00003a14 	andeq	r3, r0, r4, lsl sl

00003c5e <irq_vektor_portd>:
    3c5e:	f647 70a0 	movw	r0, #32672	; 0x7fa0
    3c62:	f2c2 0000 	movt	r0, #8192	; 0x2000
    3c66:	6800      	ldr	r0, [r0, #0]
    3c68:	4687      	mov	pc, r0

00003c6a <Dictionary_988>:
    3c6a:	00003c92 	muleq	r0, r2, ip
    3c6e:	69090081 	stmdbvs	r9, {r0, r7}
    3c72:	702d7172 	eorvc	r7, sp, r2, ror r1
    3c76:	6574726f 	ldrbvs	r7, [r4, #-623]!	; 0x26f

00003c7a <Code_988>:
    3c7a:	f847 6d04 	str.w	r6, [r7, #-4]!
    3c7e:	4e85      	ldr	r6, [pc, #532]	; (3e94 <init_name+0x42>)
    3c80:	4770      	bx	lr
    3c82:	00003a14 	andeq	r3, r0, r4, lsl sl

00003c86 <irq_vektor_porte>:
    3c86:	f647 709c 	movw	r0, #32668	; 0x7f9c
    3c8a:	f2c2 0000 	movt	r0, #8192	; 0x2000
    3c8e:	6800      	ldr	r0, [r0, #0]
    3c90:	4687      	mov	pc, r0

00003c92 <Dictionary_992>:
    3c92:	00003cbc 			; <UNDEFINED> instruction: 0x00003cbc
    3c96:	690a0081 	stmdbvs	sl, {r0, r7}
    3c9a:	552d7172 	strpl	r7, [sp, #-370]!	; 0x172
    3c9e:	30545241 	subscc	r5, r4, r1, asr #4
    3ca2:	f8470053 			; <UNDEFINED> instruction: 0xf8470053

00003ca4 <Code_992>:
    3ca4:	f847 6d04 	str.w	r6, [r7, #-4]!
    3ca8:	4e7b      	ldr	r6, [pc, #492]	; (3e98 <init_name+0x46>)
    3caa:	4770      	bx	lr
    3cac:	00003a14 	andeq	r3, r0, r4, lsl sl

00003cb0 <irq_vektor_UART0S>:
    3cb0:	f647 7098 	movw	r0, #32664	; 0x7f98
    3cb4:	f2c2 0000 	movt	r0, #8192	; 0x2000
    3cb8:	6800      	ldr	r0, [r0, #0]
    3cba:	4687      	mov	pc, r0

00003cbc <Dictionary_996>:
    3cbc:	00003ce6 	andeq	r3, r0, r6, ror #25
    3cc0:	690a0081 	stmdbvs	sl, {r0, r7}
    3cc4:	552d7172 	strpl	r7, [sp, #-370]!	; 0x172
    3cc8:	30545241 	subscc	r5, r4, r1, asr #4
    3ccc:	f8470045 			; <UNDEFINED> instruction: 0xf8470045

00003cce <Code_996>:
    3cce:	f847 6d04 	str.w	r6, [r7, #-4]!
    3cd2:	4e72      	ldr	r6, [pc, #456]	; (3e9c <init_name+0x4a>)
    3cd4:	4770      	bx	lr
    3cd6:	00003a14 	andeq	r3, r0, r4, lsl sl

00003cda <irq_vektor_UART0E>:
    3cda:	f647 7094 	movw	r0, #32660	; 0x7f94
    3cde:	f2c2 0000 	movt	r0, #8192	; 0x2000
    3ce2:	6800      	ldr	r0, [r0, #0]
    3ce4:	4687      	mov	pc, r0

00003ce6 <Dictionary_999>:
    3ce6:	00004000 	andeq	r4, r0, r0
    3cea:	2d18ffff 	ldccs	15, cr15, [r8, #-1020]	; 0xfffffc04
    3cee:	46202d2d 	strtmi	r2, [r0], -sp, lsr #26
    3cf2:	6873616c 	ldmdavs	r3!, {r2, r3, r5, r6, r8, sp, lr}^
    3cf6:	63694420 	cmnvs	r9, #536870912	; 0x20000000
    3cfa:	6e6f6974 	mcrvs	9, 3, r6, cr15, cr4, {3}
    3cfe:	20797261 	rsbscs	r7, r9, r1, ror #4
    3d02:	002d2d2d 	eoreq	r2, sp, sp, lsr #26

00003d06 <Code_999>:
    3d06:	2100      	movs	r1, #0
    3d08:	4865      	ldr	r0, [pc, #404]	; (3ea0 <init_name+0x4e>)
    3d0a:	f24c 5220 	movw	r2, #50464	; 0xc520
    3d0e:	81c2      	strh	r2, [r0, #14]
    3d10:	f64d 1228 	movw	r2, #55592	; 0xd928
    3d14:	81c2      	strh	r2, [r0, #14]
    3d16:	8802      	ldrh	r2, [r0, #0]
    3d18:	f022 0201 	bic.w	r2, r2, #1
    3d1c:	8002      	strh	r2, [r0, #0]
    3d1e:	f7fd fce8 	bl	16f2 <uart_init>
    3d22:	4860      	ldr	r0, [pc, #384]	; (3ea4 <init_name+0x52>)
    3d24:	4685      	mov	sp, r0
    3d26:	4f60      	ldr	r7, [pc, #384]	; (3ea8 <init_name+0x56>)
    3d28:	262a      	movs	r6, #42	; 0x2a
    3d2a:	4860      	ldr	r0, [pc, #384]	; (3eac <init_name+0x5a>)
    3d2c:	4960      	ldr	r1, [pc, #384]	; (3eb0 <init_name+0x5e>)
    3d2e:	6001      	str	r1, [r0, #0]
    3d30:	4860      	ldr	r0, [pc, #384]	; (3eb4 <init_name+0x62>)
    3d32:	4961      	ldr	r1, [pc, #388]	; (3eb8 <init_name+0x66>)
    3d34:	6001      	str	r1, [r0, #0]
    3d36:	f847 6d04 	str.w	r6, [r7, #-4]!
    3d3a:	4e5f      	ldr	r6, [pc, #380]	; (3eb8 <init_name+0x66>)
    3d3c:	4d5f      	ldr	r5, [pc, #380]	; (3ebc <init_name+0x6a>)

00003d3e <SucheFlashPointer_Hangelschleife>:
    3d3e:	88b1      	ldrh	r1, [r6, #4]
    3d40:	4b5f      	ldr	r3, [pc, #380]	; (3ec0 <init_name+0x6e>)
    3d42:	4299      	cmp	r1, r3
    3d44:	d024      	beq.n	3d90 <Sucheflashpointer_Speicherbelegung_fertig>
    3d46:	4b5f      	ldr	r3, [pc, #380]	; (3ec4 <init_name+0x72>)
    3d48:	400b      	ands	r3, r1
    3d4a:	d00a      	beq.n	3d62 <SucheFlashPointer_Hangelschleife+0x24>
    3d4c:	1db0      	adds	r0, r6, #6
    3d4e:	f7fe ff17 	bl	2b80 <skipstring>
    3d52:	f7fe fa90 	bl	2276 <suchedefinitionsende>
    3d56:	8803      	ldrh	r3, [r0, #0]
    3d58:	8840      	ldrh	r0, [r0, #2]
    3d5a:	0400      	lsls	r0, r0, #16
    3d5c:	4303      	orrs	r3, r0
    3d5e:	1aed      	subs	r5, r5, r3
    3d60:	e016      	b.n	3d90 <Sucheflashpointer_Speicherbelegung_fertig>
    3d62:	2380      	movs	r3, #128	; 0x80
    3d64:	400b      	ands	r3, r1
    3d66:	d013      	beq.n	3d90 <Sucheflashpointer_Speicherbelegung_fertig>
    3d68:	230f      	movs	r3, #15
    3d6a:	4019      	ands	r1, r3
    3d6c:	0089      	lsls	r1, r1, #2
    3d6e:	1a6d      	subs	r5, r5, r1
    3d70:	1db0      	adds	r0, r6, #6
    3d72:	f7fe ff05 	bl	2b80 <skipstring>
    3d76:	f7fe fa7e 	bl	2276 <suchedefinitionsende>
    3d7a:	f847 6d04 	str.w	r6, [r7, #-4]!
    3d7e:	0006      	movs	r6, r0
    3d80:	f847 6d04 	str.w	r6, [r7, #-4]!
    3d84:	002e      	movs	r6, r5
    3d86:	f847 6d04 	str.w	r6, [r7, #-4]!
    3d8a:	000e      	movs	r6, r1
    3d8c:	f7fd f878 	bl	e80 <Code_181>

00003d90 <Sucheflashpointer_Speicherbelegung_fertig>:
    3d90:	f7fe fed4 	bl	2b3c <Code_629>
    3d94:	0030      	movs	r0, r6
    3d96:	cf40      	ldmia	r7!, {r6}
    3d98:	d0d1      	beq.n	3d3e <SucheFlashPointer_Hangelschleife>
    3d9a:	484b      	ldr	r0, [pc, #300]	; (3ec8 <init_name+0x76>)
    3d9c:	6006      	str	r6, [r0, #0]
    3d9e:	cf40      	ldmia	r7!, {r6}
    3da0:	484a      	ldr	r0, [pc, #296]	; (3ecc <init_name+0x7a>)
    3da2:	6005      	str	r5, [r0, #0]
    3da4:	484a      	ldr	r0, [pc, #296]	; (3ed0 <init_name+0x7e>)
    3da6:	494b      	ldr	r1, [pc, #300]	; (3ed4 <init_name+0x82>)
    3da8:	4a45      	ldr	r2, [pc, #276]	; (3ec0 <init_name+0x6e>)
    3daa:	4288      	cmp	r0, r1
    3dac:	d004      	beq.n	3db8 <Sucheflashpointer_Speicherbelegung_fertig+0x28>
    3dae:	3802      	subs	r0, #2
    3db0:	8803      	ldrh	r3, [r0, #0]
    3db2:	4293      	cmp	r3, r2
    3db4:	d0f9      	beq.n	3daa <Sucheflashpointer_Speicherbelegung_fertig+0x1a>
    3db6:	3002      	adds	r0, #2
    3db8:	4947      	ldr	r1, [pc, #284]	; (3ed8 <init_name+0x86>)
    3dba:	6008      	str	r0, [r1, #0]
    3dbc:	f7fd fb4a 	bl	1454 <sammeltabelleleeren>
    3dc0:	f7fd ff15 	bl	1bee <dotgaensefuesschen>
    3dc4:	63654d29 	cmnvs	r5, #2624	; 0xa40
    3dc8:	70736972 	rsbsvc	r6, r3, r2, ror r9
    3dcc:	6574532d 	ldrbvs	r5, [r4, #-813]!	; 0x32d
    3dd0:	72616c6c 	rsbvc	r6, r1, #27648	; 0x6c00
    3dd4:	32207369 	eorcc	r7, r0, #-1543503871	; 0xa4000001
    3dd8:	312e322e 	teqcc	lr, lr, lsr #4
    3ddc:	20796220 	rsbscs	r6, r9, r0, lsr #4
    3de0:	7474614d 	ldrbtvc	r6, [r4], #-333	; 0x14d
    3de4:	73616968 	cmnvc	r1, #1703936	; 0x1a0000
    3de8:	636f4b20 	cmnvs	pc, #32768	; 0x8000
    3dec:	f7fd0a68 			; <UNDEFINED> instruction: 0xf7fd0a68
    3df0:	fefe 4338 	mrc2	3, 7, r4, cr14, cr8, {1}
    3df4:	69666e6f 	stmdbvs	r6!, {r0, r1, r2, r3, r5, r6, r9, sl, fp, sp, lr}^
    3df8:	61727567 	cmnvs	r2, r7, ror #10
    3dfc:	6e6f6974 	mcrvs	9, 3, r6, cr15, cr4, {3}
    3e00:	726f6620 	rsbvc	r6, pc, #33554432	; 0x2000000
    3e04:	65655420 	strbvs	r5, [r5, #-1056]!	; 0x420
    3e08:	2079736e 	rsbscs	r7, r9, lr, ror #6
    3e0c:	20312e33 	eorscs	r2, r1, r3, lsr lr
    3e10:	74616c70 	strbtvc	r6, [r1], #-3184	; 0xc70
    3e14:	6d726f66 	ldclvs	15, cr6, [r2, #-408]!	; 0xfffffe68
    3e18:	20796220 	rsbscs	r6, r9, r0, lsr #4
    3e1c:	6b72614d 	blvs	1c9c358 <BIT24+0xc9c358>
    3e20:	68635320 	stmdavs	r3!, {r5, r8, r9, ip, lr}^
    3e24:	7a696577 	bvc	1a5d408 <BIT24+0xa5d408>
    3e28:	000a7265 	andeq	r7, sl, r5, ror #4
    3e2c:	482b      	ldr	r0, [pc, #172]	; (3edc <init_name+0x8a>)
    3e2e:	2100      	movs	r1, #0
    3e30:	6001      	str	r1, [r0, #0]
    3e32:	f847 6d04 	str.w	r6, [r7, #-4]!
    3e36:	4e2a      	ldr	r6, [pc, #168]	; (3ee0 <init_name+0x8e>)
    3e38:	f847 6d04 	str.w	r6, [r7, #-4]!
    3e3c:	2604      	movs	r6, #4
    3e3e:	f7fe feae 	bl	2b9e <Code_634>
    3e42:	cf40      	ldmia	r7!, {r6}
    3e44:	2e00      	cmp	r6, #0
    3e46:	d002      	beq.n	3e4e <Sucheflashpointer_Speicherbelegung_fertig+0xbe>
    3e48:	f7fe fa9c 	bl	2384 <Code_487>
    3e4c:	e587      	b.n	395e <quit_intern>
    3e4e:	cf40      	ldmia	r7!, {r6}
    3e50:	e572      	b.n	3938 <Code_921>

00003e52 <init_name>:
    3e52:	74696e69 	strbtvc	r6, [r9], #-3689	; 0xe69
    3e56:	ed0c0000 	stc	0, cr0, [ip]
    3e5a:	0004e000 	andeq	lr, r4, r0
    3e5e:	7fd005fa 	svcvc	0x00d005fa
    3e62:	7fcc2000 	svcvc	0x00cc2000
    3e66:	7fc82000 	svcvc	0x00c82000
    3e6a:	7fc42000 	svcvc	0x00c42000
    3e6e:	7fc02000 	svcvc	0x00c02000
    3e72:	7fbc2000 	svcvc	0x00bc2000
    3e76:	7fb82000 	svcvc	0x00b82000
    3e7a:	7fb42000 	svcvc	0x00b42000
    3e7e:	7fb02000 	svcvc	0x00b02000
    3e82:	7fac2000 	svcvc	0x00ac2000
    3e86:	7fa82000 	svcvc	0x00a82000
    3e8a:	7fa42000 	svcvc	0x00a42000
    3e8e:	7fa02000 	svcvc	0x00a02000
    3e92:	7f9c2000 	svcvc	0x009c2000
    3e96:	7f982000 	svcvc	0x00982000
    3e9a:	7f942000 	svcvc	0x00942000
    3e9e:	20002000 	andcs	r2, r0, r0
    3ea2:	83304005 	teqhi	r0, #5
    3ea6:	82301fff 	eorshi	r1, r0, #1020	; 0x3fc
    3eaa:	80001fff 	strdhi	r1, [r0], -pc	; <UNPREDICTABLE>
    3eae:	83f01fff 	mvnshi	r1, #1020	; 0x3fc
    3eb2:	80041fff 	strdhi	r1, [r4], -pc	; <UNPREDICTABLE>
    3eb6:	04101fff 	ldreq	r1, [r0], #-4095	; 0xfff
    3eba:	80000000 	andhi	r0, r0, r0
    3ebe:	ffff2000 			; <UNDEFINED> instruction: 0xffff2000
    3ec2:	01000000 	mrseq	r0, (UNDEF: 0)
    3ec6:	801c0000 	andshi	r0, ip, r0
    3eca:	80241fff 	strdhi	r1, [r4], -pc	; <UNPREDICTABLE>
    3ece:	00001fff 	strdeq	r1, [r0], -pc	; <UNPREDICTABLE>
    3ed2:	40000004 	andmi	r0, r0, r4
    3ed6:	80180000 	andshi	r0, r8, r0
    3eda:	80081fff 	strdhi	r1, [r8], -pc	; <UNPREDICTABLE>
    3ede:	3e521fff 	mrccc	15, 2, r1, cr2, cr15, {7}
	...

Disassembly of section .ARM.attributes:

00000000 <.ARM.attributes>:
   0:	00002041 	andeq	r2, r0, r1, asr #32
   4:	61656100 	cmnvs	r5, r0, lsl #2
   8:	01006962 	tsteq	r0, r2, ror #18
   c:	00000016 	andeq	r0, r0, r6, lsl r0
  10:	726f4305 	rsbvc	r4, pc, #335544320	; 0x14000000
  14:	2d786574 	cfldr64cs	mvdx6, [r8, #-464]!	; 0xfffffe30
  18:	0600344d 	streq	r3, [r0], -sp, asr #8
  1c:	094d070d 	stmdbeq	sp, {r0, r2, r3, r8, r9, sl}^
  20:	Address 0x00000020 is out of bounds.

