
mecrisp-stellaris-kl25z128.elf:     file format elf32-littlearm


Disassembly of section .text:

00000000 <addresszero>:
       0:	1ffff330 	svcne	0x00fff330
       4:	00003c49 	andeq	r3, r0, r9, asr #24
       8:	00003b51 	andeq	r3, r0, r1, asr fp
       c:	00003b51 	andeq	r3, r0, r1, asr fp
	...
      2c:	00003b7b 	andeq	r3, r0, fp, ror fp
	...
      38:	00003b7b 	andeq	r3, r0, fp, ror fp
      3c:	00003b2f 	andeq	r3, r0, pc, lsr #22
      40:	00003b7b 	andeq	r3, r0, fp, ror fp
      44:	00003b7b 	andeq	r3, r0, fp, ror fp
      48:	00003b7b 	andeq	r3, r0, fp, ror fp
      4c:	00003b7b 	andeq	r3, r0, fp, ror fp
      50:	00003b7b 	andeq	r3, r0, fp, ror fp
      54:	00003b7b 	andeq	r3, r0, fp, ror fp
      58:	00003b7b 	andeq	r3, r0, fp, ror fp
      5c:	00003b7b 	andeq	r3, r0, fp, ror fp
      60:	00003b7b 	andeq	r3, r0, fp, ror fp
      64:	00003b7b 	andeq	r3, r0, fp, ror fp
      68:	00003b7b 	andeq	r3, r0, fp, ror fp
      6c:	00003b7b 	andeq	r3, r0, fp, ror fp
      70:	00003b7b 	andeq	r3, r0, fp, ror fp
      74:	00003b7b 	andeq	r3, r0, fp, ror fp
      78:	00003b7b 	andeq	r3, r0, fp, ror fp
      7c:	00003b9b 	muleq	r0, fp, fp
      80:	00003bbb 			; <UNDEFINED> instruction: 0x00003bbb
      84:	00003b7b 	andeq	r3, r0, fp, ror fp
      88:	00003b7b 	andeq	r3, r0, fp, ror fp
      8c:	00003b7b 	andeq	r3, r0, fp, ror fp
      90:	00003b7b 	andeq	r3, r0, fp, ror fp
      94:	00003b7b 	andeq	r3, r0, fp, ror fp
      98:	00003b7b 	andeq	r3, r0, fp, ror fp
      9c:	00003b7b 	andeq	r3, r0, fp, ror fp
      a0:	00003b7b 	andeq	r3, r0, fp, ror fp
      a4:	00003bdb 	ldrdeq	r3, [r0], -fp
      a8:	00003b7b 	andeq	r3, r0, fp, ror fp
      ac:	00003b7b 	andeq	r3, r0, fp, ror fp
      b0:	00003b7b 	andeq	r3, r0, fp, ror fp
      b4:	00003b7b 	andeq	r3, r0, fp, ror fp
      b8:	00003bfd 	strdeq	r3, [r0], -sp
      bc:	00003c21 	andeq	r3, r0, r1, lsr #24
      c0:	ffffffff 			; <UNDEFINED> instruction: 0xffffffff
      c4:	ffffffff 			; <UNDEFINED> instruction: 0xffffffff
      c8:	ffffffff 			; <UNDEFINED> instruction: 0xffffffff
      cc:	ffffffff 			; <UNDEFINED> instruction: 0xffffffff
      d0:	ffffffff 			; <UNDEFINED> instruction: 0xffffffff
      d4:	ffffffff 			; <UNDEFINED> instruction: 0xffffffff
      d8:	ffffffff 			; <UNDEFINED> instruction: 0xffffffff
      dc:	ffffffff 			; <UNDEFINED> instruction: 0xffffffff
      e0:	ffffffff 			; <UNDEFINED> instruction: 0xffffffff
      e4:	ffffffff 			; <UNDEFINED> instruction: 0xffffffff
      e8:	ffffffff 			; <UNDEFINED> instruction: 0xffffffff
      ec:	ffffffff 			; <UNDEFINED> instruction: 0xffffffff
      f0:	ffffffff 			; <UNDEFINED> instruction: 0xffffffff
      f4:	ffffffff 			; <UNDEFINED> instruction: 0xffffffff
      f8:	ffffffff 			; <UNDEFINED> instruction: 0xffffffff
      fc:	ffffffff 			; <UNDEFINED> instruction: 0xffffffff
     100:	ffffffff 			; <UNDEFINED> instruction: 0xffffffff
     104:	ffffffff 			; <UNDEFINED> instruction: 0xffffffff
     108:	ffffffff 			; <UNDEFINED> instruction: 0xffffffff
     10c:	ffffffff 			; <UNDEFINED> instruction: 0xffffffff
     110:	ffffffff 			; <UNDEFINED> instruction: 0xffffffff
     114:	ffffffff 			; <UNDEFINED> instruction: 0xffffffff
     118:	ffffffff 			; <UNDEFINED> instruction: 0xffffffff
     11c:	ffffffff 			; <UNDEFINED> instruction: 0xffffffff
     120:	ffffffff 			; <UNDEFINED> instruction: 0xffffffff
     124:	ffffffff 			; <UNDEFINED> instruction: 0xffffffff
     128:	ffffffff 			; <UNDEFINED> instruction: 0xffffffff
     12c:	ffffffff 			; <UNDEFINED> instruction: 0xffffffff
     130:	ffffffff 			; <UNDEFINED> instruction: 0xffffffff
     134:	ffffffff 			; <UNDEFINED> instruction: 0xffffffff
     138:	ffffffff 			; <UNDEFINED> instruction: 0xffffffff
     13c:	ffffffff 			; <UNDEFINED> instruction: 0xffffffff
     140:	ffffffff 			; <UNDEFINED> instruction: 0xffffffff
     144:	ffffffff 			; <UNDEFINED> instruction: 0xffffffff
     148:	ffffffff 			; <UNDEFINED> instruction: 0xffffffff
     14c:	ffffffff 			; <UNDEFINED> instruction: 0xffffffff
     150:	ffffffff 			; <UNDEFINED> instruction: 0xffffffff
     154:	ffffffff 			; <UNDEFINED> instruction: 0xffffffff
     158:	ffffffff 			; <UNDEFINED> instruction: 0xffffffff
     15c:	ffffffff 			; <UNDEFINED> instruction: 0xffffffff
     160:	ffffffff 			; <UNDEFINED> instruction: 0xffffffff
     164:	ffffffff 			; <UNDEFINED> instruction: 0xffffffff
     168:	ffffffff 			; <UNDEFINED> instruction: 0xffffffff
     16c:	ffffffff 			; <UNDEFINED> instruction: 0xffffffff
     170:	ffffffff 			; <UNDEFINED> instruction: 0xffffffff
     174:	ffffffff 			; <UNDEFINED> instruction: 0xffffffff
     178:	ffffffff 			; <UNDEFINED> instruction: 0xffffffff
     17c:	ffffffff 			; <UNDEFINED> instruction: 0xffffffff
     180:	ffffffff 			; <UNDEFINED> instruction: 0xffffffff
     184:	ffffffff 			; <UNDEFINED> instruction: 0xffffffff
     188:	ffffffff 			; <UNDEFINED> instruction: 0xffffffff
     18c:	ffffffff 			; <UNDEFINED> instruction: 0xffffffff
     190:	ffffffff 			; <UNDEFINED> instruction: 0xffffffff
     194:	ffffffff 			; <UNDEFINED> instruction: 0xffffffff
     198:	ffffffff 			; <UNDEFINED> instruction: 0xffffffff
     19c:	ffffffff 			; <UNDEFINED> instruction: 0xffffffff
     1a0:	ffffffff 			; <UNDEFINED> instruction: 0xffffffff
     1a4:	ffffffff 			; <UNDEFINED> instruction: 0xffffffff
     1a8:	ffffffff 			; <UNDEFINED> instruction: 0xffffffff
     1ac:	ffffffff 			; <UNDEFINED> instruction: 0xffffffff
     1b0:	ffffffff 			; <UNDEFINED> instruction: 0xffffffff
     1b4:	ffffffff 			; <UNDEFINED> instruction: 0xffffffff
     1b8:	ffffffff 			; <UNDEFINED> instruction: 0xffffffff
     1bc:	ffffffff 			; <UNDEFINED> instruction: 0xffffffff
     1c0:	ffffffff 			; <UNDEFINED> instruction: 0xffffffff
     1c4:	ffffffff 			; <UNDEFINED> instruction: 0xffffffff
     1c8:	ffffffff 			; <UNDEFINED> instruction: 0xffffffff
     1cc:	ffffffff 			; <UNDEFINED> instruction: 0xffffffff
     1d0:	ffffffff 			; <UNDEFINED> instruction: 0xffffffff
     1d4:	ffffffff 			; <UNDEFINED> instruction: 0xffffffff
     1d8:	ffffffff 			; <UNDEFINED> instruction: 0xffffffff
     1dc:	ffffffff 			; <UNDEFINED> instruction: 0xffffffff
     1e0:	ffffffff 			; <UNDEFINED> instruction: 0xffffffff
     1e4:	ffffffff 			; <UNDEFINED> instruction: 0xffffffff
     1e8:	ffffffff 			; <UNDEFINED> instruction: 0xffffffff
     1ec:	ffffffff 			; <UNDEFINED> instruction: 0xffffffff
     1f0:	ffffffff 			; <UNDEFINED> instruction: 0xffffffff
     1f4:	ffffffff 			; <UNDEFINED> instruction: 0xffffffff
     1f8:	ffffffff 			; <UNDEFINED> instruction: 0xffffffff
     1fc:	ffffffff 			; <UNDEFINED> instruction: 0xffffffff
     200:	ffffffff 			; <UNDEFINED> instruction: 0xffffffff
     204:	ffffffff 			; <UNDEFINED> instruction: 0xffffffff
     208:	ffffffff 			; <UNDEFINED> instruction: 0xffffffff
     20c:	ffffffff 			; <UNDEFINED> instruction: 0xffffffff
     210:	ffffffff 			; <UNDEFINED> instruction: 0xffffffff
     214:	ffffffff 			; <UNDEFINED> instruction: 0xffffffff
     218:	ffffffff 			; <UNDEFINED> instruction: 0xffffffff
     21c:	ffffffff 			; <UNDEFINED> instruction: 0xffffffff
     220:	ffffffff 			; <UNDEFINED> instruction: 0xffffffff
     224:	ffffffff 			; <UNDEFINED> instruction: 0xffffffff
     228:	ffffffff 			; <UNDEFINED> instruction: 0xffffffff
     22c:	ffffffff 			; <UNDEFINED> instruction: 0xffffffff
     230:	ffffffff 			; <UNDEFINED> instruction: 0xffffffff
     234:	ffffffff 			; <UNDEFINED> instruction: 0xffffffff
     238:	ffffffff 			; <UNDEFINED> instruction: 0xffffffff
     23c:	ffffffff 			; <UNDEFINED> instruction: 0xffffffff
     240:	ffffffff 			; <UNDEFINED> instruction: 0xffffffff
     244:	ffffffff 			; <UNDEFINED> instruction: 0xffffffff
     248:	ffffffff 			; <UNDEFINED> instruction: 0xffffffff
     24c:	ffffffff 			; <UNDEFINED> instruction: 0xffffffff
     250:	ffffffff 			; <UNDEFINED> instruction: 0xffffffff
     254:	ffffffff 			; <UNDEFINED> instruction: 0xffffffff
     258:	ffffffff 			; <UNDEFINED> instruction: 0xffffffff
     25c:	ffffffff 			; <UNDEFINED> instruction: 0xffffffff
     260:	ffffffff 			; <UNDEFINED> instruction: 0xffffffff
     264:	ffffffff 			; <UNDEFINED> instruction: 0xffffffff
     268:	ffffffff 			; <UNDEFINED> instruction: 0xffffffff
     26c:	ffffffff 			; <UNDEFINED> instruction: 0xffffffff
     270:	ffffffff 			; <UNDEFINED> instruction: 0xffffffff
     274:	ffffffff 			; <UNDEFINED> instruction: 0xffffffff
     278:	ffffffff 			; <UNDEFINED> instruction: 0xffffffff
     27c:	ffffffff 			; <UNDEFINED> instruction: 0xffffffff
     280:	ffffffff 			; <UNDEFINED> instruction: 0xffffffff
     284:	ffffffff 			; <UNDEFINED> instruction: 0xffffffff
     288:	ffffffff 			; <UNDEFINED> instruction: 0xffffffff
     28c:	ffffffff 			; <UNDEFINED> instruction: 0xffffffff
     290:	ffffffff 			; <UNDEFINED> instruction: 0xffffffff
     294:	ffffffff 			; <UNDEFINED> instruction: 0xffffffff
     298:	ffffffff 			; <UNDEFINED> instruction: 0xffffffff
     29c:	ffffffff 			; <UNDEFINED> instruction: 0xffffffff
     2a0:	ffffffff 			; <UNDEFINED> instruction: 0xffffffff
     2a4:	ffffffff 			; <UNDEFINED> instruction: 0xffffffff
     2a8:	ffffffff 			; <UNDEFINED> instruction: 0xffffffff
     2ac:	ffffffff 			; <UNDEFINED> instruction: 0xffffffff
     2b0:	ffffffff 			; <UNDEFINED> instruction: 0xffffffff
     2b4:	ffffffff 			; <UNDEFINED> instruction: 0xffffffff
     2b8:	ffffffff 			; <UNDEFINED> instruction: 0xffffffff
     2bc:	ffffffff 			; <UNDEFINED> instruction: 0xffffffff
     2c0:	ffffffff 			; <UNDEFINED> instruction: 0xffffffff
     2c4:	ffffffff 			; <UNDEFINED> instruction: 0xffffffff
     2c8:	ffffffff 			; <UNDEFINED> instruction: 0xffffffff
     2cc:	ffffffff 			; <UNDEFINED> instruction: 0xffffffff
     2d0:	ffffffff 			; <UNDEFINED> instruction: 0xffffffff
     2d4:	ffffffff 			; <UNDEFINED> instruction: 0xffffffff
     2d8:	ffffffff 			; <UNDEFINED> instruction: 0xffffffff
     2dc:	ffffffff 			; <UNDEFINED> instruction: 0xffffffff
     2e0:	ffffffff 			; <UNDEFINED> instruction: 0xffffffff
     2e4:	ffffffff 			; <UNDEFINED> instruction: 0xffffffff
     2e8:	ffffffff 			; <UNDEFINED> instruction: 0xffffffff
     2ec:	ffffffff 			; <UNDEFINED> instruction: 0xffffffff
     2f0:	ffffffff 			; <UNDEFINED> instruction: 0xffffffff
     2f4:	ffffffff 			; <UNDEFINED> instruction: 0xffffffff
     2f8:	ffffffff 			; <UNDEFINED> instruction: 0xffffffff
     2fc:	ffffffff 			; <UNDEFINED> instruction: 0xffffffff
     300:	ffffffff 			; <UNDEFINED> instruction: 0xffffffff
     304:	ffffffff 			; <UNDEFINED> instruction: 0xffffffff
     308:	ffffffff 			; <UNDEFINED> instruction: 0xffffffff
     30c:	ffffffff 			; <UNDEFINED> instruction: 0xffffffff
     310:	ffffffff 			; <UNDEFINED> instruction: 0xffffffff
     314:	ffffffff 			; <UNDEFINED> instruction: 0xffffffff
     318:	ffffffff 			; <UNDEFINED> instruction: 0xffffffff
     31c:	ffffffff 			; <UNDEFINED> instruction: 0xffffffff
     320:	ffffffff 			; <UNDEFINED> instruction: 0xffffffff
     324:	ffffffff 			; <UNDEFINED> instruction: 0xffffffff
     328:	ffffffff 			; <UNDEFINED> instruction: 0xffffffff
     32c:	ffffffff 			; <UNDEFINED> instruction: 0xffffffff
     330:	ffffffff 			; <UNDEFINED> instruction: 0xffffffff
     334:	ffffffff 			; <UNDEFINED> instruction: 0xffffffff
     338:	ffffffff 			; <UNDEFINED> instruction: 0xffffffff
     33c:	ffffffff 			; <UNDEFINED> instruction: 0xffffffff
     340:	ffffffff 			; <UNDEFINED> instruction: 0xffffffff
     344:	ffffffff 			; <UNDEFINED> instruction: 0xffffffff
     348:	ffffffff 			; <UNDEFINED> instruction: 0xffffffff
     34c:	ffffffff 			; <UNDEFINED> instruction: 0xffffffff
     350:	ffffffff 			; <UNDEFINED> instruction: 0xffffffff
     354:	ffffffff 			; <UNDEFINED> instruction: 0xffffffff
     358:	ffffffff 			; <UNDEFINED> instruction: 0xffffffff
     35c:	ffffffff 			; <UNDEFINED> instruction: 0xffffffff
     360:	ffffffff 			; <UNDEFINED> instruction: 0xffffffff
     364:	ffffffff 			; <UNDEFINED> instruction: 0xffffffff
     368:	ffffffff 			; <UNDEFINED> instruction: 0xffffffff
     36c:	ffffffff 			; <UNDEFINED> instruction: 0xffffffff
     370:	ffffffff 			; <UNDEFINED> instruction: 0xffffffff
     374:	ffffffff 			; <UNDEFINED> instruction: 0xffffffff
     378:	ffffffff 			; <UNDEFINED> instruction: 0xffffffff
     37c:	ffffffff 			; <UNDEFINED> instruction: 0xffffffff
     380:	ffffffff 			; <UNDEFINED> instruction: 0xffffffff
     384:	ffffffff 			; <UNDEFINED> instruction: 0xffffffff
     388:	ffffffff 			; <UNDEFINED> instruction: 0xffffffff
     38c:	ffffffff 			; <UNDEFINED> instruction: 0xffffffff
     390:	ffffffff 			; <UNDEFINED> instruction: 0xffffffff
     394:	ffffffff 			; <UNDEFINED> instruction: 0xffffffff
     398:	ffffffff 			; <UNDEFINED> instruction: 0xffffffff
     39c:	ffffffff 			; <UNDEFINED> instruction: 0xffffffff
     3a0:	ffffffff 			; <UNDEFINED> instruction: 0xffffffff
     3a4:	ffffffff 			; <UNDEFINED> instruction: 0xffffffff
     3a8:	ffffffff 			; <UNDEFINED> instruction: 0xffffffff
     3ac:	ffffffff 			; <UNDEFINED> instruction: 0xffffffff
     3b0:	ffffffff 			; <UNDEFINED> instruction: 0xffffffff
     3b4:	ffffffff 			; <UNDEFINED> instruction: 0xffffffff
     3b8:	ffffffff 			; <UNDEFINED> instruction: 0xffffffff
     3bc:	ffffffff 			; <UNDEFINED> instruction: 0xffffffff
     3c0:	ffffffff 			; <UNDEFINED> instruction: 0xffffffff
     3c4:	ffffffff 			; <UNDEFINED> instruction: 0xffffffff
     3c8:	ffffffff 			; <UNDEFINED> instruction: 0xffffffff
     3cc:	ffffffff 			; <UNDEFINED> instruction: 0xffffffff
     3d0:	ffffffff 			; <UNDEFINED> instruction: 0xffffffff
     3d4:	ffffffff 			; <UNDEFINED> instruction: 0xffffffff
     3d8:	ffffffff 			; <UNDEFINED> instruction: 0xffffffff
     3dc:	ffffffff 			; <UNDEFINED> instruction: 0xffffffff
     3e0:	ffffffff 			; <UNDEFINED> instruction: 0xffffffff
     3e4:	ffffffff 			; <UNDEFINED> instruction: 0xffffffff
     3e8:	ffffffff 			; <UNDEFINED> instruction: 0xffffffff
     3ec:	ffffffff 			; <UNDEFINED> instruction: 0xffffffff
     3f0:	ffffffff 			; <UNDEFINED> instruction: 0xffffffff
     3f4:	ffffffff 			; <UNDEFINED> instruction: 0xffffffff
     3f8:	ffffffff 			; <UNDEFINED> instruction: 0xffffffff
     3fc:	ffffffff 			; <UNDEFINED> instruction: 0xffffffff
     400:	ffffffff 			; <UNDEFINED> instruction: 0xffffffff
     404:	ffffffff 			; <UNDEFINED> instruction: 0xffffffff
     408:	ffffffff 			; <UNDEFINED> instruction: 0xffffffff
     40c:	ffffffff 			; <UNDEFINED> instruction: 0xffffffff

00000410 <CoreDictionaryAnfang>:
     410:	00000438 	andeq	r0, r0, r8, lsr r4
     414:	2d1effff 	ldccs	15, cr15, [lr, #-1020]	; 0xfffffc04
     418:	4d202d2d 	stcmi	13, cr2, [r0, #-180]!	; 0xffffff4c
     41c:	69726365 	ldmdbvs	r2!, {r0, r2, r5, r6, r8, r9, sp, lr}^
     420:	532d7073 	teqpl	sp, #115	; 0x73
     424:	6c6c6574 	cfstr64vs	mvdx6, [ip], #-464	; 0xfffffe30
     428:	73697261 	cmnvc	r9, #268435462	; 0x10000006
     42c:	726f4320 	rsbvc	r4, pc, #-2147483648	; 0x80000000
     430:	2d2d2065 	stccs	0, cr2, [sp, #-404]!	; 0xfffffe6c
     434:	46c0002d 	strbmi	r0, [r0], sp, lsr #32

00000436 <Code_17>:
     436:	46c0      	nop			; (mov r8, r8)

00000438 <Dictionary_18>:
     438:	00000450 	andeq	r0, r0, r0, asr r4
     43c:	32040042 	andcc	r0, r4, #66	; 0x42
     440:	00707564 	rsbseq	r7, r0, r4, ror #10

00000444 <Code_18>:
     444:	6838      	ldr	r0, [r7, #0]
     446:	3f04      	subs	r7, #4
     448:	603e      	str	r6, [r7, #0]
     44a:	3f04      	subs	r7, #4
     44c:	6038      	str	r0, [r7, #0]
     44e:	4770      	bx	lr

00000450 <Dictionary_20>:
     450:	00000464 	andeq	r0, r0, r4, ror #8
     454:	32050062 	andcc	r0, r5, #98	; 0x62
     458:	706f7264 	rsbvc	r7, pc, r4, ror #4

0000045c <Code_20>:
     45c:	3704      	adds	r7, #4
     45e:	cf40      	ldmia	r7!, {r6}
     460:	4770      	bx	lr
     462:	46c0      	nop			; (mov r8, r8)

00000464 <Dictionary_22>:
     464:	00000484 	andeq	r0, r0, r4, lsl #9
     468:	32050044 	andcc	r0, r5, #68	; 0x44
     46c:	70617773 	rsbvc	r7, r1, r3, ror r7

00000470 <Code_22>:
     470:	cf07      	ldmia	r7!, {r0, r1, r2}
     472:	3f04      	subs	r7, #4
     474:	6038      	str	r0, [r7, #0]
     476:	3f04      	subs	r7, #4
     478:	603e      	str	r6, [r7, #0]
     47a:	3f04      	subs	r7, #4
     47c:	603a      	str	r2, [r7, #0]
     47e:	000e      	movs	r6, r1
     480:	4770      	bx	lr
     482:	46c0      	nop			; (mov r8, r8)

00000484 <Dictionary_24>:
     484:	00000498 	muleq	r0, r8, r4
     488:	32040062 	andcc	r0, r4, #98	; 0x62
     48c:	0070696e 	rsbseq	r6, r0, lr, ror #18

00000490 <Code_24>:
     490:	cf07      	ldmia	r7!, {r0, r1, r2}
     492:	3f04      	subs	r7, #4
     494:	6038      	str	r0, [r7, #0]
     496:	4770      	bx	lr

00000498 <Dictionary_25>:
     498:	000004b4 			; <UNDEFINED> instruction: 0x000004b4
     49c:	32050044 	andcc	r0, r5, #68	; 0x44
     4a0:	7265766f 	rsbvc	r7, r5, #116391936	; 0x6f00000

000004a4 <Code_25>:
     4a4:	68b8      	ldr	r0, [r7, #8]
     4a6:	3f04      	subs	r7, #4
     4a8:	603e      	str	r6, [r7, #0]
     4aa:	3f04      	subs	r7, #4
     4ac:	6038      	str	r0, [r7, #0]
     4ae:	68fe      	ldr	r6, [r7, #12]
     4b0:	4770      	bx	lr
     4b2:	46c0      	nop			; (mov r8, r8)

000004b4 <Dictionary_27>:
     4b4:	000004d8 	ldrdeq	r0, [r0], -r8
     4b8:	32050044 	andcc	r0, r5, #68	; 0x44
     4bc:	6b637574 	blvs	18dda94 <BIT24+0x8dda94>

000004c0 <Code_27>:
     4c0:	cf07      	ldmia	r7!, {r0, r1, r2}
     4c2:	3f04      	subs	r7, #4
     4c4:	6038      	str	r0, [r7, #0]
     4c6:	3f04      	subs	r7, #4
     4c8:	603e      	str	r6, [r7, #0]
     4ca:	3f04      	subs	r7, #4
     4cc:	603a      	str	r2, [r7, #0]
     4ce:	3f04      	subs	r7, #4
     4d0:	6039      	str	r1, [r7, #0]
     4d2:	3f04      	subs	r7, #4
     4d4:	6038      	str	r0, [r7, #0]
     4d6:	4770      	bx	lr

000004d8 <Dictionary_29>:
     4d8:	000004fc 	strdeq	r0, [r0], -ip
     4dc:	32040046 	andcc	r0, r4, #70	; 0x46
     4e0:	00746f72 	rsbseq	r6, r4, r2, ror pc

000004e4 <Code_29>:
     4e4:	6838      	ldr	r0, [r7, #0]
     4e6:	68b9      	ldr	r1, [r7, #8]
     4e8:	693a      	ldr	r2, [r7, #16]
     4ea:	60b8      	str	r0, [r7, #8]
     4ec:	6139      	str	r1, [r7, #16]
     4ee:	603a      	str	r2, [r7, #0]
     4f0:	6879      	ldr	r1, [r7, #4]
     4f2:	607e      	str	r6, [r7, #4]
     4f4:	68fe      	ldr	r6, [r7, #12]
     4f6:	60f9      	str	r1, [r7, #12]
     4f8:	4770      	bx	lr
     4fa:	46c0      	nop			; (mov r8, r8)

000004fc <Dictionary_30>:
     4fc:	00000520 	andeq	r0, r0, r0, lsr #10
     500:	32050046 	andcc	r0, r5, #70	; 0x46
     504:	746f722d 	strbtvc	r7, [pc], #-557	; 50c <Code_30+0x4>

00000508 <Code_30>:
     508:	6838      	ldr	r0, [r7, #0]
     50a:	68b9      	ldr	r1, [r7, #8]
     50c:	693a      	ldr	r2, [r7, #16]
     50e:	6138      	str	r0, [r7, #16]
     510:	6039      	str	r1, [r7, #0]
     512:	60ba      	str	r2, [r7, #8]
     514:	68f9      	ldr	r1, [r7, #12]
     516:	60fe      	str	r6, [r7, #12]
     518:	687e      	ldr	r6, [r7, #4]
     51a:	6079      	str	r1, [r7, #4]
     51c:	4770      	bx	lr
     51e:	46c0      	nop			; (mov r8, r8)

00000520 <Dictionary_31>:
     520:	00000534 	andeq	r0, r0, r4, lsr r5
     524:	32030020 	andcc	r0, r3, #32
     528:	cf01723e 	svcgt	0x0001723e

0000052a <Code_31>:
     52a:	cf01      	ldmia	r7!, {r0}
     52c:	b401      	push	{r0}
     52e:	b440      	push	{r6}
     530:	cf40      	ldmia	r7!, {r6}
     532:	4770      	bx	lr

00000534 <Dictionary_32>:
     534:	0000054c 	andeq	r0, r0, ip, asr #10
     538:	32030020 	andcc	r0, r3, #32
     53c:	3f043e72 	svccc	0x00043e72

0000053e <Code_32>:
     53e:	3f04      	subs	r7, #4
     540:	603e      	str	r6, [r7, #0]
     542:	bc40      	pop	{r6}
     544:	bc01      	pop	{r0}
     546:	3f04      	subs	r7, #4
     548:	6038      	str	r0, [r7, #0]
     54a:	4770      	bx	lr

0000054c <Dictionary_34>:
     54c:	00000564 	andeq	r0, r0, r4, ror #10
     550:	32030020 	andcc	r0, r3, #32
     554:	3f044072 	svccc	0x00044072

00000556 <Code_34>:
     556:	3f04      	subs	r7, #4
     558:	603e      	str	r6, [r7, #0]
     55a:	9e01      	ldr	r6, [sp, #4]
     55c:	3f04      	subs	r7, #4
     55e:	603e      	str	r6, [r7, #0]
     560:	9e00      	ldr	r6, [sp, #0]
     562:	4770      	bx	lr

00000564 <Dictionary_37>:
     564:	00000578 	andeq	r0, r0, r8, ror r5
     568:	32060020 	andcc	r0, r6, #32
     56c:	6f726472 	svcvs	0x00726472
     570:	b0020070 	andlt	r0, r2, r0, ror r0

00000572 <Code_37>:
     572:	b002      	add	sp, #8
     574:	4770      	bx	lr
     576:	46c0      	nop			; (mov r8, r8)

00000578 <Dictionary_38>:
     578:	00000590 	muleq	r0, r0, r5
     57c:	64030042 	strvs	r0, [r3], #-66	; 0x42
     580:	68382f32 	ldmdavs	r8!, {r1, r4, r5, r8, r9, sl, fp, sp}

00000582 <Code_38>:
     582:	6838      	ldr	r0, [r7, #0]
     584:	07f1      	lsls	r1, r6, #31
     586:	1076      	asrs	r6, r6, #1
     588:	0840      	lsrs	r0, r0, #1
     58a:	4308      	orrs	r0, r1
     58c:	6038      	str	r0, [r7, #0]
     58e:	4770      	bx	lr

00000590 <Dictionary_39>:
     590:	000005a4 	andeq	r0, r0, r4, lsr #11
     594:	64030062 	strvs	r0, [r3], #-98	; 0x62
     598:	68382a32 	ldmdavs	r8!, {r1, r4, r5, r9, fp, sp}

0000059a <Code_39>:
     59a:	6838      	ldr	r0, [r7, #0]
     59c:	1800      	adds	r0, r0, r0
     59e:	4176      	adcs	r6, r6
     5a0:	6038      	str	r0, [r7, #0]
     5a2:	4770      	bx	lr

000005a4 <Dictionary_40>:
     5a4:	000005c0 	andeq	r0, r0, r0, asr #11
     5a8:	64040042 	strvs	r0, [r4], #-66	; 0x42
     5ac:	00726873 	rsbseq	r6, r2, r3, ror r8

000005b0 <Code_40>:
     5b0:	6838      	ldr	r0, [r7, #0]
     5b2:	07f1      	lsls	r1, r6, #31
     5b4:	0876      	lsrs	r6, r6, #1
     5b6:	0840      	lsrs	r0, r0, #1
     5b8:	4308      	orrs	r0, r1
     5ba:	6038      	str	r0, [r7, #0]
     5bc:	4770      	bx	lr
     5be:	46c0      	nop			; (mov r8, r8)

000005c0 <Dictionary_41>:
     5c0:	000005d8 	ldrdeq	r0, [r0], -r8
     5c4:	64040062 	strvs	r0, [r4], #-98	; 0x62
     5c8:	006c6873 	rsbeq	r6, ip, r3, ror r8

000005cc <Code_41>:
     5cc:	6838      	ldr	r0, [r7, #0]
     5ce:	1800      	adds	r0, r0, r0
     5d0:	4176      	adcs	r6, r6
     5d2:	6038      	str	r0, [r7, #0]
     5d4:	4770      	bx	lr
     5d6:	46c0      	nop			; (mov r8, r8)

000005d8 <Dictionary_42>:
     5d8:	000005ec 	andeq	r0, r0, ip, ror #11
     5dc:	64040042 	strvs	r0, [r4], #-66	; 0x42
     5e0:	00736261 	rsbseq	r6, r3, r1, ror #4

000005e4 <Code_42>:
     5e4:	2e00      	cmp	r6, #0
     5e6:	d408      	bmi.n	5fa <Code_43>
     5e8:	4770      	bx	lr
     5ea:	46c0      	nop			; (mov r8, r8)

000005ec <Dictionary_43>:
     5ec:	0000060c 	andeq	r0, r0, ip, lsl #12
     5f0:	64070042 	strvs	r0, [r7], #-66	; 0x42
     5f4:	6167656e 	cmnvs	r7, lr, ror #10
     5f8:	68386574 	ldmdavs	r8!, {r2, r4, r5, r6, r8, sl, sp, lr}

000005fa <Code_43>:
     5fa:	6838      	ldr	r0, [r7, #0]
     5fc:	2100      	movs	r1, #0
     5fe:	43c0      	mvns	r0, r0
     600:	43f6      	mvns	r6, r6
     602:	3001      	adds	r0, #1
     604:	414e      	adcs	r6, r1
     606:	6038      	str	r0, [r7, #0]
     608:	4770      	bx	lr
     60a:	46c0      	nop			; (mov r8, r8)

0000060c <Dictionary_44>:
     60c:	00000624 	andeq	r0, r0, r4, lsr #12
     610:	64020064 	strvs	r0, [r2], #-100	; 0x64
     614:	cf07002d 	svcgt	0x0007002d

00000616 <Code_44>:
     616:	cf07      	ldmia	r7!, {r0, r1, r2}
     618:	1a12      	subs	r2, r2, r0
     61a:	41b1      	sbcs	r1, r6
     61c:	000e      	movs	r6, r1
     61e:	3f04      	subs	r7, #4
     620:	603a      	str	r2, [r7, #0]
     622:	4770      	bx	lr

00000624 <Dictionary_45>:
     624:	0000063c 	andeq	r0, r0, ip, lsr r6
     628:	64020064 	strvs	r0, [r2], #-100	; 0x64
     62c:	cf07002b 	svcgt	0x0007002b

0000062e <Code_45>:
     62e:	cf07      	ldmia	r7!, {r0, r1, r2}
     630:	1812      	adds	r2, r2, r0
     632:	414e      	adcs	r6, r1
     634:	3f04      	subs	r7, #4
     636:	603a      	str	r2, [r7, #0]
     638:	4770      	bx	lr
     63a:	46c0      	nop			; (mov r8, r8)

0000063c <Dictionary_46>:
     63c:	00000650 	andeq	r0, r0, r0, asr r6
     640:	73030061 	movwvc	r0, #12385	; 0x3061
     644:	3f04643e 	svccc	0x0004643e

00000646 <Code_46>:
     646:	3f04      	subs	r7, #4
     648:	603e      	str	r6, [r7, #0]
     64a:	17f6      	asrs	r6, r6, #31
     64c:	4770      	bx	lr
     64e:	46c0      	nop			; (mov r8, r8)

00000650 <Dictionary_48>:
     650:	0000067c 	andeq	r0, r0, ip, ror r6
     654:	75030042 	strvc	r0, [r3, #-66]	; 0x42
     658:	68382a6d 	ldmdavs	r8!, {r0, r2, r3, r5, r6, r9, fp, sp}

0000065a <Code_48>:
     65a:	6838      	ldr	r0, [r7, #0]
     65c:	0003      	movs	r3, r0
     65e:	4373      	muls	r3, r6
     660:	603b      	str	r3, [r7, #0]
     662:	0c01      	lsrs	r1, r0, #16
     664:	0c32      	lsrs	r2, r6, #16
     666:	000b      	movs	r3, r1
     668:	4353      	muls	r3, r2
     66a:	b2b6      	uxth	r6, r6
     66c:	b280      	uxth	r0, r0
     66e:	434e      	muls	r6, r1
     670:	4350      	muls	r0, r2
     672:	1836      	adds	r6, r6, r0
     674:	0c36      	lsrs	r6, r6, #16
     676:	18f6      	adds	r6, r6, r3
     678:	4770      	bx	lr
     67a:	46c0      	nop			; (mov r8, r8)

0000067c <Dictionary_49>:
     67c:	000006ac 	andeq	r0, r0, ip, lsr #13
     680:	6d020042 	stcvs	0, cr0, [r2, #-264]	; 0xfffffef8
     684:	6838002a 	ldmdavs	r8!, {r1, r3, r5}

00000686 <Code_49>:
     686:	6838      	ldr	r0, [r7, #0]
     688:	17c1      	asrs	r1, r0, #31
     68a:	d005      	beq.n	698 <Code_49+0x12>
     68c:	4240      	negs	r0, r0
     68e:	6038      	str	r0, [r7, #0]
     690:	17f0      	asrs	r0, r6, #31
     692:	d004      	beq.n	69e <Code_49+0x18>
     694:	4276      	negs	r6, r6
     696:	e7e0      	b.n	65a <Code_48>
     698:	17f0      	asrs	r0, r6, #31
     69a:	d0de      	beq.n	65a <Code_48>
     69c:	4276      	negs	r6, r6
     69e:	b500      	push	{lr}
     6a0:	f7ff ffdb 	bl	65a <Code_48>
     6a4:	f7ff ffa9 	bl	5fa <Code_43>
     6a8:	bd00      	pop	{pc}
     6aa:	46c0      	nop			; (mov r8, r8)

000006ac <Dictionary_50>:
     6ac:	000006ec 	andeq	r0, r0, ip, ror #13
     6b0:	75030044 	strvc	r0, [r3, #-68]	; 0x44
     6b4:	cf072a64 	svcgt	0x00072a64

000006b6 <Code_50>:
     6b6:	cf07      	ldmia	r7!, {r0, r1, r2}
     6b8:	4356      	muls	r6, r2
     6ba:	4341      	muls	r1, r0
     6bc:	1876      	adds	r6, r6, r1
     6be:	0c01      	lsrs	r1, r0, #16
     6c0:	0c13      	lsrs	r3, r2, #16
     6c2:	4359      	muls	r1, r3
     6c4:	1876      	adds	r6, r6, r1
     6c6:	0c01      	lsrs	r1, r0, #16
     6c8:	b280      	uxth	r0, r0
     6ca:	b292      	uxth	r2, r2
     6cc:	4351      	muls	r1, r2
     6ce:	4343      	muls	r3, r0
     6d0:	4350      	muls	r0, r2
     6d2:	2200      	movs	r2, #0
     6d4:	18c9      	adds	r1, r1, r3
     6d6:	4152      	adcs	r2, r2
     6d8:	0412      	lsls	r2, r2, #16
     6da:	18b6      	adds	r6, r6, r2
     6dc:	040a      	lsls	r2, r1, #16
     6de:	0c09      	lsrs	r1, r1, #16
     6e0:	1880      	adds	r0, r0, r2
     6e2:	414e      	adcs	r6, r1
     6e4:	3f04      	subs	r7, #4
     6e6:	6038      	str	r0, [r7, #0]
     6e8:	4770      	bx	lr
     6ea:	46c0      	nop			; (mov r8, r8)

000006ec <Dictionary_51>:
     6ec:	00000780 	andeq	r0, r0, r0, lsl #15
     6f0:	75040044 	strvc	r0, [r4, #-68]	; 0x44
     6f4:	002a6d64 	eoreq	r6, sl, r4, ror #26

000006f8 <Code_51>:
     6f8:	b510      	push	{r4, lr}
     6fa:	2400      	movs	r4, #0
     6fc:	3f04      	subs	r7, #4
     6fe:	603e      	str	r6, [r7, #0]
     700:	687e      	ldr	r6, [r7, #4]
     702:	3f04      	subs	r7, #4
     704:	603e      	str	r6, [r7, #0]
     706:	693e      	ldr	r6, [r7, #16]
     708:	f7ff ffa7 	bl	65a <Code_48>
     70c:	0031      	movs	r1, r6
     70e:	cf40      	ldmia	r7!, {r6}
     710:	0030      	movs	r0, r6
     712:	cf40      	ldmia	r7!, {r6}
     714:	3f04      	subs	r7, #4
     716:	603e      	str	r6, [r7, #0]
     718:	683e      	ldr	r6, [r7, #0]
     71a:	3f04      	subs	r7, #4
     71c:	603e      	str	r6, [r7, #0]
     71e:	68fe      	ldr	r6, [r7, #12]
     720:	b403      	push	{r0, r1}
     722:	f7ff ff9a 	bl	65a <Code_48>
     726:	bc03      	pop	{r0, r1}
     728:	0033      	movs	r3, r6
     72a:	cf40      	ldmia	r7!, {r6}
     72c:	0032      	movs	r2, r6
     72e:	cf40      	ldmia	r7!, {r6}
     730:	3f04      	subs	r7, #4
     732:	603e      	str	r6, [r7, #0]
     734:	683e      	ldr	r6, [r7, #0]
     736:	3f04      	subs	r7, #4
     738:	603e      	str	r6, [r7, #0]
     73a:	693e      	ldr	r6, [r7, #16]
     73c:	b40f      	push	{r0, r1, r2, r3}
     73e:	f7ff ff8c 	bl	65a <Code_48>
     742:	bc0f      	pop	{r0, r1, r2, r3}
     744:	1992      	adds	r2, r2, r6
     746:	4163      	adcs	r3, r4
     748:	cf40      	ldmia	r7!, {r6}
     74a:	1989      	adds	r1, r1, r6
     74c:	4162      	adcs	r2, r4
     74e:	4163      	adcs	r3, r4
     750:	cf40      	ldmia	r7!, {r6}
     752:	3f04      	subs	r7, #4
     754:	603e      	str	r6, [r7, #0]
     756:	687e      	ldr	r6, [r7, #4]
     758:	3f04      	subs	r7, #4
     75a:	603e      	str	r6, [r7, #0]
     75c:	68fe      	ldr	r6, [r7, #12]
     75e:	b40f      	push	{r0, r1, r2, r3}
     760:	f7ff ff7b 	bl	65a <Code_48>
     764:	bc0f      	pop	{r0, r1, r2, r3}
     766:	1992      	adds	r2, r2, r6
     768:	4163      	adcs	r3, r4
     76a:	cf40      	ldmia	r7!, {r6}
     76c:	1989      	adds	r1, r1, r6
     76e:	4162      	adcs	r2, r4
     770:	4163      	adcs	r3, r4
     772:	cf40      	ldmia	r7!, {r6}
     774:	001e      	movs	r6, r3
     776:	603a      	str	r2, [r7, #0]
     778:	6079      	str	r1, [r7, #4]
     77a:	60b8      	str	r0, [r7, #8]
     77c:	bd10      	pop	{r4, pc}
     77e:	46c0      	nop			; (mov r8, r8)

00000780 <Dictionary_68>:
     780:	000007a4 	andeq	r0, r0, r4, lsr #15
     784:	2a020043 	bcs	80898 <BIT19+0x898>
     788:	b500002f 	strlt	r0, [r0, #-47]	; 0x2f

0000078a <Code_68>:
     78a:	b500      	push	{lr}
     78c:	b440      	push	{r6}
     78e:	cf40      	ldmia	r7!, {r6}
     790:	f7ff ff79 	bl	686 <Code_49>
     794:	3f04      	subs	r7, #4
     796:	603e      	str	r6, [r7, #0]
     798:	bc40      	pop	{r6}
     79a:	f000 f84f 	bl	83c <Code_91>
     79e:	3704      	adds	r7, #4
     7a0:	bd00      	pop	{pc}
     7a2:	46c0      	nop			; (mov r8, r8)

000007a4 <Dictionary_73>:
     7a4:	000007c8 	andeq	r0, r0, r8, asr #15
     7a8:	2a050043 	bcs	1408bc <BIT20+0x408bc>
     7ac:	646f6d2f 	strbtvs	r6, [pc], #-3375	; 7b4 <Code_73+0x4>

000007b0 <Code_73>:
     7b0:	b500      	push	{lr}
     7b2:	b440      	push	{r6}
     7b4:	cf40      	ldmia	r7!, {r6}
     7b6:	f7ff ff66 	bl	686 <Code_49>
     7ba:	3f04      	subs	r7, #4
     7bc:	603e      	str	r6, [r7, #0]
     7be:	bc40      	pop	{r6}
     7c0:	f000 f83c 	bl	83c <Code_91>
     7c4:	bd00      	pop	{pc}
     7c6:	46c0      	nop			; (mov r8, r8)

000007c8 <Dictionary_77>:
     7c8:	000007ec 	andeq	r0, r0, ip, ror #15
     7cc:	75030043 	strvc	r0, [r3, #-67]	; 0x43
     7d0:	b5002f2a 	strlt	r2, [r0, #-3882]	; 0xf2a

000007d2 <Code_77>:
     7d2:	b500      	push	{lr}
     7d4:	b440      	push	{r6}
     7d6:	cf40      	ldmia	r7!, {r6}
     7d8:	f7ff ff3f 	bl	65a <Code_48>
     7dc:	3f04      	subs	r7, #4
     7de:	603e      	str	r6, [r7, #0]
     7e0:	bc40      	pop	{r6}
     7e2:	f000 f81c 	bl	81e <Code_86>
     7e6:	3704      	adds	r7, #4
     7e8:	bd00      	pop	{pc}
     7ea:	46c0      	nop			; (mov r8, r8)

000007ec <Dictionary_82>:
     7ec:	00000810 	andeq	r0, r0, r0, lsl r8
     7f0:	75060043 	strvc	r0, [r6, #-67]	; 0x43
     7f4:	6f6d2f2a 	svcvs	0x006d2f2a
     7f8:	b5000064 	strlt	r0, [r0, #-100]	; 0x64

000007fa <Code_82>:
     7fa:	b500      	push	{lr}
     7fc:	b440      	push	{r6}
     7fe:	cf40      	ldmia	r7!, {r6}
     800:	f7ff ff2b 	bl	65a <Code_48>
     804:	3f04      	subs	r7, #4
     806:	603e      	str	r6, [r7, #0]
     808:	bc40      	pop	{r6}
     80a:	f000 f808 	bl	81e <Code_86>
     80e:	bd00      	pop	{pc}

00000810 <Dictionary_86>:
     810:	00000830 	andeq	r0, r0, r0, lsr r8
     814:	75060043 	strvc	r0, [r6, #-67]	; 0x43
     818:	6f6d2f6d 	svcvs	0x006d2f6d
     81c:	b5000064 	strlt	r0, [r0, #-100]	; 0x64

0000081e <Code_86>:
     81e:	b500      	push	{lr}
     820:	3f04      	subs	r7, #4
     822:	603e      	str	r6, [r7, #0]
     824:	2600      	movs	r6, #0
     826:	f000 f81a 	bl	85e <Code_95>
     82a:	cf40      	ldmia	r7!, {r6}
     82c:	3704      	adds	r7, #4
     82e:	bd00      	pop	{pc}

00000830 <Dictionary_91>:
     830:	00000850 	andeq	r0, r0, r0, asr r8
     834:	6d050043 	stcvs	0, cr0, [r5, #-268]	; 0xfffffef4
     838:	646f6d2f 	strbtvs	r6, [pc], #-3375	; 840 <Code_91+0x4>

0000083c <Code_91>:
     83c:	b500      	push	{lr}
     83e:	3f04      	subs	r7, #4
     840:	603e      	str	r6, [r7, #0]
     842:	17f6      	asrs	r6, r6, #31
     844:	f000 f834 	bl	8b0 <Code_97>
     848:	cf40      	ldmia	r7!, {r6}
     84a:	3704      	adds	r7, #4
     84c:	bd00      	pop	{pc}
     84e:	46c0      	nop			; (mov r8, r8)

00000850 <Dictionary_95>:
     850:	000008a4 	andeq	r0, r0, r4, lsr #17
     854:	75060044 	strvc	r0, [r6, #-68]	; 0x44
     858:	6f6d2f64 	svcvs	0x006d2f64
     85c:	b4300064 	ldrtlt	r0, [r0], #-100	; 0x64

0000085e <Code_95>:
     85e:	b430      	push	{r4, r5}
     860:	2300      	movs	r3, #0
     862:	2200      	movs	r2, #0
     864:	6879      	ldr	r1, [r7, #4]
     866:	68b8      	ldr	r0, [r7, #8]

00000868 <ud_slash_mod_internal>:
     868:	0035      	movs	r5, r6
     86a:	683c      	ldr	r4, [r7, #0]
     86c:	2640      	movs	r6, #64	; 0x40
     86e:	0040      	lsls	r0, r0, #1
     870:	4149      	adcs	r1, r1
     872:	4152      	adcs	r2, r2
     874:	415b      	adcs	r3, r3
     876:	42ab      	cmp	r3, r5
     878:	d802      	bhi.n	880 <ud_slash_mod_internal+0x18>
     87a:	d304      	bcc.n	886 <ud_slash_mod_internal+0x1e>
     87c:	42a2      	cmp	r2, r4
     87e:	d302      	bcc.n	886 <ud_slash_mod_internal+0x1e>
     880:	1b12      	subs	r2, r2, r4
     882:	41ab      	sbcs	r3, r5
     884:	3001      	adds	r0, #1
     886:	3e01      	subs	r6, #1
     888:	d1f1      	bne.n	86e <ud_slash_mod_internal+0x6>
     88a:	000e      	movs	r6, r1
     88c:	6038      	str	r0, [r7, #0]
     88e:	607b      	str	r3, [r7, #4]
     890:	60ba      	str	r2, [r7, #8]
     892:	bc30      	pop	{r4, r5}
     894:	4770      	bx	lr

00000896 <uf_slash_mod>:
     896:	b430      	push	{r4, r5}
     898:	2300      	movs	r3, #0
     89a:	687a      	ldr	r2, [r7, #4]
     89c:	68b9      	ldr	r1, [r7, #8]
     89e:	2000      	movs	r0, #0
     8a0:	e7e2      	b.n	868 <ud_slash_mod_internal>
     8a2:	46c0      	nop			; (mov r8, r8)

000008a4 <Dictionary_97>:
     8a4:	0000091c 	andeq	r0, r0, ip, lsl r9
     8a8:	64050044 	strvs	r0, [r5], #-68	; 0x44
     8ac:	646f6d2f 	strbtvs	r6, [pc], #-3375	; 8b4 <Code_97+0x4>

000008b0 <Code_97>:
     8b0:	b500      	push	{lr}
     8b2:	17f0      	asrs	r0, r6, #31
     8b4:	d019      	beq.n	8ea <Code_97+0x3a>
     8b6:	f7ff fea0 	bl	5fa <Code_43>
     8ba:	f7ff fdd9 	bl	470 <Code_22>
     8be:	17f0      	asrs	r0, r6, #31
     8c0:	d00c      	beq.n	8dc <Code_97+0x2c>
     8c2:	f7ff fe9a 	bl	5fa <Code_43>
     8c6:	f7ff fdd3 	bl	470 <Code_22>
     8ca:	f7ff ffc8 	bl	85e <Code_95>
     8ce:	f7ff fdcf 	bl	470 <Code_22>
     8d2:	f7ff fe92 	bl	5fa <Code_43>
     8d6:	f7ff fdcb 	bl	470 <Code_22>
     8da:	bd00      	pop	{pc}
     8dc:	f7ff fdc8 	bl	470 <Code_22>
     8e0:	f7ff ffbd 	bl	85e <Code_95>
     8e4:	f7ff fe89 	bl	5fa <Code_43>
     8e8:	bd00      	pop	{pc}
     8ea:	f7ff fdc1 	bl	470 <Code_22>
     8ee:	17f0      	asrs	r0, r6, #31
     8f0:	d00e      	beq.n	910 <Code_97+0x60>
     8f2:	f7ff fe82 	bl	5fa <Code_43>
     8f6:	f7ff fdbb 	bl	470 <Code_22>
     8fa:	f7ff ffb0 	bl	85e <Code_95>
     8fe:	f7ff fe7c 	bl	5fa <Code_43>
     902:	f7ff fdb5 	bl	470 <Code_22>
     906:	f7ff fe78 	bl	5fa <Code_43>
     90a:	f7ff fdb1 	bl	470 <Code_22>
     90e:	bd00      	pop	{pc}
     910:	f7ff fdae 	bl	470 <Code_22>
     914:	f7ff ffa3 	bl	85e <Code_95>
     918:	bd00      	pop	{pc}
     91a:	46c0      	nop			; (mov r8, r8)

0000091c <Dictionary_98>:
     91c:	00000934 	andeq	r0, r0, r4, lsr r9
     920:	64020044 	strvs	r0, [r2], #-68	; 0x44
     924:	b500002f 	strlt	r0, [r0, #-47]	; 0x2f

00000926 <Code_98>:
     926:	b500      	push	{lr}
     928:	f7ff ffc2 	bl	8b0 <Code_97>
     92c:	f7ff fdb0 	bl	490 <Code_24>
     930:	bd00      	pop	{pc}
     932:	46c0      	nop			; (mov r8, r8)

00000934 <Dictionary_99>:
     934:	0000097c 	andeq	r0, r0, ip, ror r9
     938:	66020044 	strvs	r0, [r2], -r4, asr #32
     93c:	b500002a 	strlt	r0, [r0, #-42]	; 0x2a

0000093e <Code_99>:
     93e:	b500      	push	{lr}
     940:	17f0      	asrs	r0, r6, #31
     942:	d00d      	beq.n	960 <Code_99+0x22>
     944:	f7ff fe59 	bl	5fa <Code_43>
     948:	f7ff fd92 	bl	470 <Code_22>
     94c:	17f0      	asrs	r0, r6, #31
     94e:	d00d      	beq.n	96c <Code_99+0x2e>
     950:	f7ff fe53 	bl	5fa <Code_43>
     954:	f7ff fed0 	bl	6f8 <Code_51>
     958:	cf40      	ldmia	r7!, {r6}
     95a:	cf01      	ldmia	r7!, {r0}
     95c:	6038      	str	r0, [r7, #0]
     95e:	bd00      	pop	{pc}
     960:	f7ff fd86 	bl	470 <Code_22>
     964:	17f0      	asrs	r0, r6, #31
     966:	d0f5      	beq.n	954 <Code_99+0x16>
     968:	f7ff fe47 	bl	5fa <Code_43>
     96c:	f7ff fec4 	bl	6f8 <Code_51>
     970:	cf40      	ldmia	r7!, {r6}
     972:	cf01      	ldmia	r7!, {r0}
     974:	6038      	str	r0, [r7, #0]
     976:	f7ff fe40 	bl	5fa <Code_43>
     97a:	bd00      	pop	{pc}

0000097c <Dictionary_102>:
     97c:	000009c8 	andeq	r0, r0, r8, asr #19
     980:	66020044 	strvs	r0, [r2], -r4, asr #32
     984:	b500002f 	strlt	r0, [r0, #-47]	; 0x2f

00000986 <Code_102>:
     986:	b500      	push	{lr}
     988:	17f0      	asrs	r0, r6, #31
     98a:	d00e      	beq.n	9aa <Code_102+0x24>
     98c:	f7ff fe35 	bl	5fa <Code_43>
     990:	f7ff fd6e 	bl	470 <Code_22>
     994:	17f0      	asrs	r0, r6, #31
     996:	d00e      	beq.n	9b6 <Code_102+0x30>
     998:	f7ff fe2f 	bl	5fa <Code_43>
     99c:	f7ff fd68 	bl	470 <Code_22>
     9a0:	f7ff ff79 	bl	896 <uf_slash_mod>
     9a4:	f7ff fd74 	bl	490 <Code_24>
     9a8:	bd00      	pop	{pc}
     9aa:	f7ff fd61 	bl	470 <Code_22>
     9ae:	17f0      	asrs	r0, r6, #31
     9b0:	d0f4      	beq.n	99c <Code_102+0x16>
     9b2:	f7ff fe22 	bl	5fa <Code_43>
     9b6:	f7ff fd5b 	bl	470 <Code_22>
     9ba:	f7ff ff6c 	bl	896 <uf_slash_mod>
     9be:	f7ff fe1c 	bl	5fa <Code_43>
     9c2:	f7ff fd65 	bl	490 <Code_24>
     9c6:	bd00      	pop	{pc}

000009c8 <Dictionary_103>:
     9c8:	000009dc 	ldrdeq	r0, [r0], -ip
     9cc:	32020020 	andcc	r0, r2, #32
     9d0:	cf060021 	svcgt	0x00060021

000009d2 <Code_103>:
     9d2:	cf06      	ldmia	r7!, {r1, r2}
     9d4:	6031      	str	r1, [r6, #0]
     9d6:	6072      	str	r2, [r6, #4]
     9d8:	cf40      	ldmia	r7!, {r6}
     9da:	4770      	bx	lr

000009dc <Dictionary_105>:
     9dc:	000009f0 	strdeq	r0, [r0], -r0	; <UNPREDICTABLE>
     9e0:	32020020 	andcc	r0, r2, #32
     9e4:	3f040040 	svccc	0x00040040

000009e6 <Code_105>:
     9e6:	3f04      	subs	r7, #4
     9e8:	6870      	ldr	r0, [r6, #4]
     9ea:	6038      	str	r0, [r7, #0]
     9ec:	6836      	ldr	r6, [r6, #0]
     9ee:	4770      	bx	lr

000009f0 <Dictionary_106>:
     9f0:	00000a10 	andeq	r0, r0, r0, lsl sl
     9f4:	64030044 	strvs	r0, [r3], #-68	; 0x44
     9f8:	cf073c75 	svcgt	0x00073c75

000009fa <Code_106>:
     9fa:	cf07      	ldmia	r7!, {r0, r1, r2}
     9fc:	428e      	cmp	r6, r1
     9fe:	d804      	bhi.n	a0a <Code_106+0x10>
     a00:	d101      	bne.n	a06 <Code_106+0xc>
     a02:	4290      	cmp	r0, r2
     a04:	d801      	bhi.n	a0a <Code_106+0x10>
     a06:	2600      	movs	r6, #0
     a08:	4770      	bx	lr
     a0a:	2600      	movs	r6, #0
     a0c:	43f6      	mvns	r6, r6
     a0e:	4770      	bx	lr

00000a10 <Dictionary_107>:
     a10:	00000a30 	andeq	r0, r0, r0, lsr sl
     a14:	64030044 	strvs	r0, [r3], #-68	; 0x44
     a18:	cf073e75 	svcgt	0x00073e75

00000a1a <Code_107>:
     a1a:	cf07      	ldmia	r7!, {r0, r1, r2}
     a1c:	42b1      	cmp	r1, r6
     a1e:	d804      	bhi.n	a2a <Code_107+0x10>
     a20:	d101      	bne.n	a26 <Code_107+0xc>
     a22:	4282      	cmp	r2, r0
     a24:	d801      	bhi.n	a2a <Code_107+0x10>
     a26:	2600      	movs	r6, #0
     a28:	4770      	bx	lr
     a2a:	2600      	movs	r6, #0
     a2c:	43f6      	mvns	r6, r6
     a2e:	4770      	bx	lr

00000a30 <Dictionary_108>:
     a30:	00000a50 	andeq	r0, r0, r0, asr sl
     a34:	64020044 	strvs	r0, [r2], #-68	; 0x44
     a38:	cf07003c 	svcgt	0x0007003c

00000a3a <Code_108>:
     a3a:	cf07      	ldmia	r7!, {r0, r1, r2}
     a3c:	428e      	cmp	r6, r1
     a3e:	dc04      	bgt.n	a4a <Code_108+0x10>
     a40:	d101      	bne.n	a46 <Code_108+0xc>
     a42:	4290      	cmp	r0, r2
     a44:	dc01      	bgt.n	a4a <Code_108+0x10>
     a46:	2600      	movs	r6, #0
     a48:	4770      	bx	lr
     a4a:	2600      	movs	r6, #0
     a4c:	43f6      	mvns	r6, r6
     a4e:	4770      	bx	lr

00000a50 <Dictionary_109>:
     a50:	00000a70 	andeq	r0, r0, r0, ror sl
     a54:	64020044 	strvs	r0, [r2], #-68	; 0x44
     a58:	cf07003e 	svcgt	0x0007003e

00000a5a <Code_109>:
     a5a:	cf07      	ldmia	r7!, {r0, r1, r2}
     a5c:	42b1      	cmp	r1, r6
     a5e:	dc04      	bgt.n	a6a <Code_109+0x10>
     a60:	d101      	bne.n	a66 <Code_109+0xc>
     a62:	4282      	cmp	r2, r0
     a64:	dc01      	bgt.n	a6a <Code_109+0x10>
     a66:	2600      	movs	r6, #0
     a68:	4770      	bx	lr
     a6a:	2600      	movs	r6, #0
     a6c:	43f6      	mvns	r6, r6
     a6e:	4770      	bx	lr

00000a70 <Dictionary_110>:
     a70:	00000a80 	andeq	r0, r0, r0, lsl #21
     a74:	64030062 	strvs	r0, [r3], #-98	; 0x62
     a78:	37043c30 	smladxcc	r4, r0, ip, r3

00000a7a <Code_110>:
     a7a:	3704      	adds	r7, #4
     a7c:	17f6      	asrs	r6, r6, #31
     a7e:	4770      	bx	lr

00000a80 <Dictionary_111>:
     a80:	00000a94 	muleq	r0, r4, sl
     a84:	64030062 	strvs	r0, [r3], #-98	; 0x62
     a88:	cf013d30 	svcgt	0x00013d30

00000a8a <Code_111>:
     a8a:	cf01      	ldmia	r7!, {r0}
     a8c:	4306      	orrs	r6, r0
     a8e:	3e01      	subs	r6, #1
     a90:	41b6      	sbcs	r6, r6
     a92:	4770      	bx	lr

00000a94 <Dictionary_112>:
     a94:	00000ab0 			; <UNDEFINED> instruction: 0x00000ab0
     a98:	64030044 	strvs	r0, [r3], #-68	; 0x44
     a9c:	cf073e3c 	svcgt	0x00073e3c

00000a9e <Code_112>:
     a9e:	cf07      	ldmia	r7!, {r0, r1, r2}
     aa0:	4050      	eors	r0, r2
     aa2:	404e      	eors	r6, r1
     aa4:	4306      	orrs	r6, r0
     aa6:	3e01      	subs	r6, #1
     aa8:	41b6      	sbcs	r6, r6
     aaa:	43f6      	mvns	r6, r6
     aac:	4770      	bx	lr
     aae:	46c0      	nop			; (mov r8, r8)

00000ab0 <Dictionary_113>:
     ab0:	00000ac8 	andeq	r0, r0, r8, asr #21
     ab4:	64020044 	strvs	r0, [r2], #-68	; 0x44
     ab8:	cf07003d 	svcgt	0x0007003d

00000aba <Code_113>:
     aba:	cf07      	ldmia	r7!, {r0, r1, r2}
     abc:	4050      	eors	r0, r2
     abe:	404e      	eors	r6, r1
     ac0:	4306      	orrs	r6, r0
     ac2:	3e01      	subs	r6, #1
     ac4:	41b6      	sbcs	r6, r6
     ac6:	4770      	bx	lr

00000ac8 <Dictionary_114>:
     ac8:	00000adc 	ldrdeq	r0, [r0], -ip
     acc:	73030020 	movwvc	r0, #12320	; 0x3020
     ad0:	3f044070 	svccc	0x00044070

00000ad2 <Code_114>:
     ad2:	3f04      	subs	r7, #4
     ad4:	603e      	str	r6, [r7, #0]
     ad6:	003e      	movs	r6, r7
     ad8:	4770      	bx	lr
     ada:	46c0      	nop			; (mov r8, r8)

00000adc <Dictionary_116>:
     adc:	00000aec 	andeq	r0, r0, ip, ror #21
     ae0:	73030020 	movwvc	r0, #12320	; 0x3020
     ae4:	00372170 	eorseq	r2, r7, r0, ror r1

00000ae6 <Code_116>:
     ae6:	0037      	movs	r7, r6
     ae8:	cf40      	ldmia	r7!, {r6}
     aea:	4770      	bx	lr

00000aec <Dictionary_117>:
     aec:	00000b00 	andeq	r0, r0, r0, lsl #22
     af0:	72030020 	andvc	r0, r3, #32
     af4:	3f044070 	svccc	0x00044070

00000af6 <Code_117>:
     af6:	3f04      	subs	r7, #4
     af8:	603e      	str	r6, [r7, #0]
     afa:	466e      	mov	r6, sp
     afc:	4770      	bx	lr
     afe:	46c0      	nop			; (mov r8, r8)

00000b00 <Dictionary_119>:
     b00:	00000b10 	andeq	r0, r0, r0, lsl fp
     b04:	72030020 	andvc	r0, r3, #32
     b08:	46b52170 			; <UNDEFINED> instruction: 0x46b52170

00000b0a <Code_119>:
     b0a:	46b5      	mov	sp, r6
     b0c:	cf40      	ldmia	r7!, {r6}
     b0e:	4770      	bx	lr

00000b10 <Dictionary_120>:
     b10:	00000b20 	andeq	r0, r0, r0, lsr #22
     b14:	64030061 	strvs	r0, [r3], #-97	; 0x61
     b18:	3f047075 	svccc	0x00047075

00000b1a <Code_120>:
     b1a:	3f04      	subs	r7, #4
     b1c:	603e      	str	r6, [r7, #0]
     b1e:	4770      	bx	lr

00000b20 <Dictionary_123>:
     b20:	00000b30 	andeq	r0, r0, r0, lsr fp
     b24:	64040061 	strvs	r0, [r4], #-97	; 0x61
     b28:	00706f72 	rsbseq	r6, r0, r2, ror pc

00000b2c <Code_123>:
     b2c:	cf40      	ldmia	r7!, {r6}
     b2e:	4770      	bx	lr

00000b30 <Dictionary_125>:
     b30:	00000b48 	andeq	r0, r0, r8, asr #22
     b34:	3f040061 	svccc	0x00040061
     b38:	00707564 	rsbseq	r7, r0, r4, ror #10

00000b3c <Code_125>:
     b3c:	2e00      	cmp	r6, #0
     b3e:	d001      	beq.n	b44 <Code_125+0x8>
     b40:	3f04      	subs	r7, #4
     b42:	603e      	str	r6, [r7, #0]
     b44:	4770      	bx	lr
     b46:	46c0      	nop			; (mov r8, r8)

00000b48 <Dictionary_127>:
     b48:	00000b5c 	andeq	r0, r0, ip, asr fp
     b4c:	73040062 	movwvc	r0, #16482	; 0x4062
     b50:	00706177 	rsbseq	r6, r0, r7, ror r1

00000b54 <Code_127>:
     b54:	6839      	ldr	r1, [r7, #0]
     b56:	603e      	str	r6, [r7, #0]
     b58:	000e      	movs	r6, r1
     b5a:	4770      	bx	lr

00000b5c <Dictionary_128>:
     b5c:	00000b6c 	andeq	r0, r0, ip, ror #22
     b60:	6e030062 	cdpvs	0, 0, cr0, cr3, cr2, {3}
     b64:	37047069 	strcc	r7, [r4, -r9, rrx]

00000b66 <Code_128>:
     b66:	3704      	adds	r7, #4
     b68:	4770      	bx	lr
     b6a:	46c0      	nop			; (mov r8, r8)

00000b6c <Dictionary_130>:
     b6c:	00000b80 	andeq	r0, r0, r0, lsl #23
     b70:	6f040062 	svcvs	0x00040062
     b74:	00726576 	rsbseq	r6, r2, r6, ror r5

00000b78 <Code_130>:
     b78:	3f04      	subs	r7, #4
     b7a:	603e      	str	r6, [r7, #0]
     b7c:	687e      	ldr	r6, [r7, #4]
     b7e:	4770      	bx	lr

00000b80 <Dictionary_132>:
     b80:	00000b98 	muleq	r0, r8, fp
     b84:	74040062 	strvc	r0, [r4], #-98	; 0x62
     b88:	006b6375 	rsbeq	r6, fp, r5, ror r3

00000b8c <Code_132>:
     b8c:	cf01      	ldmia	r7!, {r0}
     b8e:	3f08      	subs	r7, #8
     b90:	607e      	str	r6, [r7, #4]
     b92:	6038      	str	r0, [r7, #0]
     b94:	4770      	bx	lr
     b96:	46c0      	nop			; (mov r8, r8)

00000b98 <Dictionary_133>:
     b98:	00000bb0 			; <UNDEFINED> instruction: 0x00000bb0
     b9c:	72030063 	andvc	r0, r3, #99	; 0x63
     ba0:	cf03746f 	svcgt	0x0003746f

00000ba2 <Code_133>:
     ba2:	cf03      	ldmia	r7!, {r0, r1}
     ba4:	3f08      	subs	r7, #8
     ba6:	6078      	str	r0, [r7, #4]
     ba8:	603e      	str	r6, [r7, #0]
     baa:	000e      	movs	r6, r1
     bac:	4770      	bx	lr
     bae:	46c0      	nop			; (mov r8, r8)

00000bb0 <Dictionary_134>:
     bb0:	00000bc8 	andeq	r0, r0, r8, asr #23
     bb4:	2d040063 	stccs	0, cr0, [r4, #-396]	; 0xfffffe74
     bb8:	00746f72 	rsbseq	r6, r4, r2, ror pc

00000bbc <Code_134>:
     bbc:	cf03      	ldmia	r7!, {r0, r1}
     bbe:	3f08      	subs	r7, #8
     bc0:	607e      	str	r6, [r7, #4]
     bc2:	6039      	str	r1, [r7, #0]
     bc4:	0006      	movs	r6, r0
     bc6:	4770      	bx	lr

00000bc8 <Dictionary_135>:
     bc8:	00000bdc 	ldrdeq	r0, [r0], -ip
     bcc:	70040020 	andvc	r0, r4, r0, lsr #32
     bd0:	006b6369 	rsbeq	r6, fp, r9, ror #6

00000bd4 <Code_135>:
     bd4:	00b0      	lsls	r0, r6, #2
     bd6:	583e      	ldr	r6, [r7, r0]
     bd8:	4770      	bx	lr
     bda:	46c0      	nop			; (mov r8, r8)

00000bdc <Dictionary_136>:
     bdc:	00000bf4 	strdeq	r0, [r0], -r4
     be0:	64050000 	strvs	r0, [r5]
     be4:	68747065 	ldmdavs	r4!, {r0, r2, r5, r6, ip, sp, lr}^

00000be8 <Code_136>:
     be8:	49c7      	ldr	r1, [pc, #796]	; (f08 <Code_180+0xc>)
     bea:	1bc9      	subs	r1, r1, r7
     bec:	3f04      	subs	r7, #4
     bee:	603e      	str	r6, [r7, #0]
     bf0:	088e      	lsrs	r6, r1, #2
     bf2:	4770      	bx	lr

00000bf4 <Dictionary_138>:
     bf4:	00000c10 	andeq	r0, r0, r0, lsl ip
     bf8:	72060000 	andvc	r0, r6, #0
     bfc:	74706564 	ldrbtvc	r6, [r0], #-1380	; 0x564
     c00:	3f040068 	svccc	0x00040068

00000c02 <Code_138>:
     c02:	3f04      	subs	r7, #4
     c04:	603e      	str	r6, [r7, #0]
     c06:	466e      	mov	r6, sp
     c08:	49c0      	ldr	r1, [pc, #768]	; (f0c <Code_180+0x10>)
     c0a:	1b89      	subs	r1, r1, r6
     c0c:	088e      	lsrs	r6, r1, #2
     c0e:	4770      	bx	lr

00000c10 <Dictionary_140>:
     c10:	00000c20 	andeq	r0, r0, r0, lsr #24
     c14:	3e020020 	cdpcc	0, 0, cr0, cr2, cr0, {1}
     c18:	b4400072 	strblt	r0, [r0], #-114	; 0x72

00000c1a <Code_140>:
     c1a:	b440      	push	{r6}
     c1c:	cf40      	ldmia	r7!, {r6}
     c1e:	4770      	bx	lr

00000c20 <Dictionary_141>:
     c20:	00000c34 	andeq	r0, r0, r4, lsr ip
     c24:	72020020 	andvc	r0, r2, #32
     c28:	3f04003e 	svccc	0x0004003e

00000c2a <Code_141>:
     c2a:	3f04      	subs	r7, #4
     c2c:	603e      	str	r6, [r7, #0]
     c2e:	bc40      	pop	{r6}
     c30:	4770      	bx	lr
     c32:	46c0      	nop			; (mov r8, r8)

00000c34 <Dictionary_143>:
     c34:	00000c48 	andeq	r0, r0, r8, asr #24
     c38:	72020020 	andvc	r0, r2, #32
     c3c:	3f040040 	svccc	0x00040040

00000c3e <Code_143>:
     c3e:	3f04      	subs	r7, #4
     c40:	603e      	str	r6, [r7, #0]
     c42:	9e00      	ldr	r6, [sp, #0]
     c44:	4770      	bx	lr
     c46:	46c0      	nop			; (mov r8, r8)

00000c48 <Dictionary_145>:
     c48:	00000c58 	andeq	r0, r0, r8, asr ip
     c4c:	72050020 	andvc	r0, r5, #32
     c50:	706f7264 	rsbvc	r7, pc, r4, ror #4

00000c54 <Code_145>:
     c54:	b001      	add	sp, #4
     c56:	4770      	bx	lr

00000c58 <Dictionary_146>:
     c58:	00000c6c 	andeq	r0, r0, ip, ror #24
     c5c:	72050020 	andvc	r0, r5, #32
     c60:	6b636970 	blvs	18db228 <BIT24+0x8db228>

00000c64 <Code_146>:
     c64:	00b6      	lsls	r6, r6, #2
     c66:	446e      	add	r6, sp
     c68:	6836      	ldr	r6, [r6, #0]
     c6a:	4770      	bx	lr

00000c6c <Dictionary_147>:
     c6c:	00000c80 	andeq	r0, r0, r0, lsl #25
     c70:	6103006a 	tstvs	r3, sl, rrx
     c74:	cf01646e 	svcgt	0x0001646e

00000c76 <Code_147>:
     c76:	cf01      	ldmia	r7!, {r0}
     c78:	4006      	ands	r6, r0
     c7a:	4770      	bx	lr
     c7c:	4006      	ands	r6, r0
     c7e:	46c0      	nop			; (mov r8, r8)

00000c80 <Dictionary_148>:
     c80:	00000c94 	muleq	r0, r4, ip
     c84:	6203006a 	andvs	r0, r3, #106	; 0x6a
     c88:	cf016369 	svcgt	0x00016369

00000c8a <Code_148>:
     c8a:	cf01      	ldmia	r7!, {r0}
     c8c:	43b0      	bics	r0, r6
     c8e:	0006      	movs	r6, r0
     c90:	4770      	bx	lr
     c92:	4386      	bics	r6, r0

00000c94 <Dictionary_149>:
     c94:	00000ca8 	andeq	r0, r0, r8, lsr #25
     c98:	6f02006a 	svcvs	0x0002006a
     c9c:	cf010072 	svcgt	0x00010072

00000c9e <Code_149>:
     c9e:	cf01      	ldmia	r7!, {r0}
     ca0:	4306      	orrs	r6, r0
     ca2:	4770      	bx	lr
     ca4:	4306      	orrs	r6, r0
     ca6:	46c0      	nop			; (mov r8, r8)

00000ca8 <Dictionary_150>:
     ca8:	00000cbc 			; <UNDEFINED> instruction: 0x00000cbc
     cac:	7803006a 	stmdavc	r3, {r1, r3, r5, r6}
     cb0:	cf01726f 	svcgt	0x0001726f

00000cb2 <Code_150>:
     cb2:	cf01      	ldmia	r7!, {r0}
     cb4:	4046      	eors	r6, r0
     cb6:	4770      	bx	lr
     cb8:	4046      	eors	r6, r0
     cba:	46c0      	nop			; (mov r8, r8)

00000cbc <Dictionary_151>:
     cbc:	00000ccc 	andeq	r0, r0, ip, asr #25
     cc0:	6e030061 	cdpvs	0, 0, cr0, cr3, cr1, {3}
     cc4:	43f6746f 	mvnsmi	r7, #1862270976	; 0x6f000000

00000cc6 <Code_151>:
     cc6:	43f6      	mvns	r6, r6
     cc8:	4770      	bx	lr
     cca:	46c0      	nop			; (mov r8, r8)

00000ccc <Dictionary_152>:
     ccc:	00000cec 	andeq	r0, r0, ip, ror #25
     cd0:	63030041 	movwvs	r0, #12353	; 0x3041
     cd4:	00307a6c 	eorseq	r7, r0, ip, ror #20

00000cd6 <Code_152>:
     cd6:	0030      	movs	r0, r6
     cd8:	d006      	beq.n	ce8 <Code_152+0x12>
     cda:	2600      	movs	r6, #0
     cdc:	0040      	lsls	r0, r0, #1
     cde:	d002      	beq.n	ce6 <Code_152+0x10>
     ce0:	d201      	bcs.n	ce6 <Code_152+0x10>
     ce2:	3601      	adds	r6, #1
     ce4:	e7fa      	b.n	cdc <Code_152+0x6>
     ce6:	4770      	bx	lr
     ce8:	2620      	movs	r6, #32
     cea:	4770      	bx	lr

00000cec <Dictionary_153>:
     cec:	00000cfc 	strdeq	r0, [r0], -ip
     cf0:	73030061 	movwvc	r0, #12385	; 0x3061
     cf4:	08767268 	ldmdaeq	r6!, {r3, r5, r6, r9, ip, sp, lr}^

00000cf6 <Code_153>:
     cf6:	0876      	lsrs	r6, r6, #1
     cf8:	4770      	bx	lr
     cfa:	46c0      	nop			; (mov r8, r8)

00000cfc <Dictionary_154>:
     cfc:	00000d0c 	andeq	r0, r0, ip, lsl #26
     d00:	73030061 	movwvc	r0, #12385	; 0x3061
     d04:	00766c68 	rsbseq	r6, r6, r8, ror #24

00000d06 <Code_154>:
     d06:	0076      	lsls	r6, r6, #1
     d08:	4770      	bx	lr
     d0a:	46c0      	nop			; (mov r8, r8)

00000d0c <Dictionary_155>:
     d0c:	00000d1c 	andeq	r0, r0, ip, lsl sp
     d10:	72030061 	andvc	r0, r3, #97	; 0x61
     d14:	2001726f 	andcs	r7, r1, pc, ror #4

00000d16 <Code_155>:
     d16:	2001      	movs	r0, #1
     d18:	41c6      	rors	r6, r0
     d1a:	4770      	bx	lr

00000d1c <Dictionary_156>:
     d1c:	00000d30 	andeq	r0, r0, r0, lsr sp
     d20:	72030061 	andvc	r0, r3, #97	; 0x61
     d24:	20006c6f 	andcs	r6, r0, pc, ror #24

00000d26 <Code_156>:
     d26:	2000      	movs	r0, #0
     d28:	19b6      	adds	r6, r6, r6
     d2a:	4146      	adcs	r6, r0
     d2c:	4770      	bx	lr
     d2e:	46c0      	nop			; (mov r8, r8)

00000d30 <Dictionary_157>:
     d30:	00000d4c 	andeq	r0, r0, ip, asr #26
     d34:	7206006c 	andvc	r0, r6, #108	; 0x6c
     d38:	66696873 			; <UNDEFINED> instruction: 0x66696873
     d3c:	cf010074 	svcgt	0x00010074

00000d3e <Code_157>:
     d3e:	cf01      	ldmia	r7!, {r0}
     d40:	40f0      	lsrs	r0, r6
     d42:	0006      	movs	r6, r0
     d44:	4770      	bx	lr
     d46:	26000836 			; <UNDEFINED> instruction: 0x26000836
     d4a:	46c0      	nop			; (mov r8, r8)

00000d4c <Dictionary_158>:
     d4c:	00000d68 	andeq	r0, r0, r8, ror #26
     d50:	6107006c 	tstvs	r7, ip, rrx
     d54:	69687372 	stmdbvs	r8!, {r1, r4, r5, r6, r8, r9, ip, sp, lr}^
     d58:	cf017466 	svcgt	0x00017466

00000d5a <Code_158>:
     d5a:	cf01      	ldmia	r7!, {r0}
     d5c:	4130      	asrs	r0, r6
     d5e:	0006      	movs	r6, r0
     d60:	4770      	bx	lr
     d62:	17f61036 			; <UNDEFINED> instruction: 0x17f61036
     d66:	46c0      	nop			; (mov r8, r8)

00000d68 <Dictionary_159>:
     d68:	00000d84 	andeq	r0, r0, r4, lsl #27
     d6c:	6c06006c 	stcvs	0, cr0, [r6], {108}	; 0x6c
     d70:	66696873 			; <UNDEFINED> instruction: 0x66696873
     d74:	cf010074 	svcgt	0x00010074

00000d76 <Code_159>:
     d76:	cf01      	ldmia	r7!, {r0}
     d78:	40b0      	lsls	r0, r6
     d7a:	0006      	movs	r6, r0
     d7c:	4770      	bx	lr
     d7e:	26000036 			; <UNDEFINED> instruction: 0x26000036
     d82:	46c0      	nop			; (mov r8, r8)

00000d84 <Dictionary_160>:
     d84:	00000d94 	muleq	r0, r4, sp
     d88:	30020061 	andcc	r0, r2, r1, rrx
     d8c:	3e01003d 	mcrcc	0, 0, r0, cr1, cr13, {1}

00000d8e <Code_160>:
     d8e:	3e01      	subs	r6, #1
     d90:	41b6      	sbcs	r6, r6
     d92:	4770      	bx	lr

00000d94 <Dictionary_161>:
     d94:	00000da8 	andeq	r0, r0, r8, lsr #27
     d98:	30030061 	andcc	r0, r3, r1, rrx
     d9c:	3e013e3c 	mcrcc	14, 0, r3, cr1, cr12, {1}

00000d9e <Code_161>:
     d9e:	3e01      	subs	r6, #1
     da0:	41b6      	sbcs	r6, r6
     da2:	43f6      	mvns	r6, r6
     da4:	4770      	bx	lr
     da6:	46c0      	nop			; (mov r8, r8)

00000da8 <Dictionary_162>:
     da8:	00000db8 			; <UNDEFINED> instruction: 0x00000db8
     dac:	30020061 	andcc	r0, r2, r1, rrx
     db0:	17f6003c 			; <UNDEFINED> instruction: 0x17f6003c

00000db2 <Code_162>:
     db2:	17f6      	asrs	r6, r6, #31
     db4:	4770      	bx	lr
     db6:	46c0      	nop			; (mov r8, r8)

00000db8 <Dictionary_163>:
     db8:	00000dd0 	ldrdeq	r0, [r0], -r0	; <UNPREDICTABLE>
     dbc:	74040060 	strvc	r0, [r4], #-96	; 0x60
     dc0:	00657572 	rsbeq	r7, r5, r2, ror r5

00000dc4 <Code_163>:
     dc4:	3f04      	subs	r7, #4
     dc6:	603e      	str	r6, [r7, #0]

00000dc8 <generate_true>:
     dc8:	2600      	movs	r6, #0
     dca:	43f6      	mvns	r6, r6
     dcc:	4770      	bx	lr
     dce:	46c0      	nop			; (mov r8, r8)

00000dd0 <Dictionary_165>:
     dd0:	00000de4 	andeq	r0, r0, r4, ror #27
     dd4:	66050060 	strvs	r0, [r5], -r0, rrx
     dd8:	65736c61 	ldrbvs	r6, [r3, #-3169]!	; 0xc61

00000ddc <Code_165>:
     ddc:	3f04      	subs	r7, #4
     dde:	603e      	str	r6, [r7, #0]
     de0:	2600      	movs	r6, #0
     de2:	4770      	bx	lr

00000de4 <Dictionary_167>:
     de4:	00000df8 	strdeq	r0, [r0], -r8
     de8:	3e020042 	cdpcc	0, 0, cr0, cr2, cr2, {2}
     dec:	cf01003d 	svcgt	0x0001003d

00000dee <Code_167>:
     dee:	cf01      	ldmia	r7!, {r0}
     df0:	42b0      	cmp	r0, r6
     df2:	dae9      	bge.n	dc8 <generate_true>
     df4:	2600      	movs	r6, #0
     df6:	4770      	bx	lr

00000df8 <Dictionary_168>:
     df8:	00000e0c 	andeq	r0, r0, ip, lsl #28
     dfc:	3c020042 	stccc	0, cr0, [r2], {66}	; 0x42
     e00:	cf01003d 	svcgt	0x0001003d

00000e02 <Code_168>:
     e02:	cf01      	ldmia	r7!, {r0}
     e04:	42b0      	cmp	r0, r6
     e06:	dddf      	ble.n	dc8 <generate_true>
     e08:	2600      	movs	r6, #0
     e0a:	4770      	bx	lr

00000e0c <Dictionary_169>:
     e0c:	00000e20 	andeq	r0, r0, r0, lsr #28
     e10:	3c010042 	stccc	0, cr0, [r1], {66}	; 0x42

00000e14 <Code_169>:
     e14:	cf01      	ldmia	r7!, {r0}
     e16:	42b0      	cmp	r0, r6
     e18:	dbd6      	blt.n	dc8 <generate_true>
     e1a:	2600      	movs	r6, #0
     e1c:	4770      	bx	lr
     e1e:	46c0      	nop			; (mov r8, r8)

00000e20 <Dictionary_170>:
     e20:	00000e34 	andeq	r0, r0, r4, lsr lr
     e24:	3e010042 	cdpcc	0, 0, cr0, cr1, cr2, {2}

00000e28 <Code_170>:
     e28:	cf01      	ldmia	r7!, {r0}
     e2a:	42b0      	cmp	r0, r6
     e2c:	dccc      	bgt.n	dc8 <generate_true>
     e2e:	2600      	movs	r6, #0
     e30:	4770      	bx	lr
     e32:	46c0      	nop			; (mov r8, r8)

00000e34 <Dictionary_171>:
     e34:	00000e48 	andeq	r0, r0, r8, asr #28
     e38:	75030062 	strvc	r0, [r3, #-98]	; 0x62
     e3c:	cf013d3e 	svcgt	0x00013d3e

00000e3e <Code_171>:
     e3e:	cf01      	ldmia	r7!, {r0}
     e40:	1b86      	subs	r6, r0, r6
     e42:	41b6      	sbcs	r6, r6
     e44:	43f6      	mvns	r6, r6
     e46:	4770      	bx	lr

00000e48 <Dictionary_172>:
     e48:	00000e5c 	andeq	r0, r0, ip, asr lr
     e4c:	75030062 	strvc	r0, [r3, #-98]	; 0x62
     e50:	cf013d3c 	svcgt	0x00013d3c

00000e52 <Code_172>:
     e52:	cf01      	ldmia	r7!, {r0}
     e54:	1a36      	subs	r6, r6, r0
     e56:	41b6      	sbcs	r6, r6
     e58:	43f6      	mvns	r6, r6
     e5a:	4770      	bx	lr

00000e5c <Dictionary_173>:
     e5c:	00000e70 	andeq	r0, r0, r0, ror lr
     e60:	75020062 	strvc	r0, [r2, #-98]	; 0x62
     e64:	cf01003c 	svcgt	0x0001003c

00000e66 <Code_173>:
     e66:	cf01      	ldmia	r7!, {r0}
     e68:	1b86      	subs	r6, r0, r6
     e6a:	41b6      	sbcs	r6, r6
     e6c:	4770      	bx	lr
     e6e:	46c0      	nop			; (mov r8, r8)

00000e70 <Dictionary_174>:
     e70:	00000e84 	andeq	r0, r0, r4, lsl #29
     e74:	75020062 	strvc	r0, [r2, #-98]	; 0x62
     e78:	cf01003e 	svcgt	0x0001003e

00000e7a <Code_174>:
     e7a:	cf01      	ldmia	r7!, {r0}
     e7c:	1a36      	subs	r6, r6, r0
     e7e:	41b6      	sbcs	r6, r6
     e80:	4770      	bx	lr
     e82:	46c0      	nop			; (mov r8, r8)

00000e84 <Dictionary_175>:
     e84:	00000e9c 	muleq	r0, ip, lr
     e88:	3c02006b 	stccc	0, cr0, [r2], {107}	; 0x6b
     e8c:	cf01003e 	svcgt	0x0001003e

00000e8e <Code_175>:
     e8e:	cf01      	ldmia	r7!, {r0}
     e90:	1a36      	subs	r6, r6, r0
     e92:	3e01      	subs	r6, #1
     e94:	41b6      	sbcs	r6, r6
     e96:	43f6      	mvns	r6, r6
     e98:	4770      	bx	lr
     e9a:	46c0      	nop			; (mov r8, r8)

00000e9c <Dictionary_176>:
     e9c:	00000eb0 			; <UNDEFINED> instruction: 0x00000eb0
     ea0:	3d01006b 	stccc	0, cr0, [r1, #-428]	; 0xfffffe54

00000ea4 <Code_176>:
     ea4:	cf01      	ldmia	r7!, {r0}
     ea6:	1a36      	subs	r6, r6, r0
     ea8:	3e01      	subs	r6, #1
     eaa:	41b6      	sbcs	r6, r6
     eac:	4770      	bx	lr
     eae:	46c0      	nop			; (mov r8, r8)

00000eb0 <Dictionary_177>:
     eb0:	00000ec4 	andeq	r0, r0, r4, asr #29
     eb4:	6d030062 	stcvs	0, cr0, [r3, #-392]	; 0xfffffe78
     eb8:	cf016e69 	svcgt	0x00016e69

00000eba <Code_177>:
     eba:	cf01      	ldmia	r7!, {r0}
     ebc:	42b0      	cmp	r0, r6
     ebe:	dc00      	bgt.n	ec2 <Code_177+0x8>
     ec0:	0006      	movs	r6, r0
     ec2:	4770      	bx	lr

00000ec4 <Dictionary_178>:
     ec4:	00000ed8 	ldrdeq	r0, [r0], -r8
     ec8:	6d030062 	stcvs	0, cr0, [r3, #-392]	; 0xfffffe78
     ecc:	cf017861 	svcgt	0x00017861

00000ece <Code_178>:
     ece:	cf01      	ldmia	r7!, {r0}
     ed0:	42b0      	cmp	r0, r6
     ed2:	db00      	blt.n	ed6 <Code_178+0x8>
     ed4:	0006      	movs	r6, r0
     ed6:	4770      	bx	lr

00000ed8 <Dictionary_179>:
     ed8:	00000ef0 	strdeq	r0, [r0], -r0	; <UNPREDICTABLE>
     edc:	75040062 	strvc	r0, [r4, #-98]	; 0x62
     ee0:	0078616d 	rsbseq	r6, r8, sp, ror #2

00000ee4 <Code_179>:
     ee4:	cf01      	ldmia	r7!, {r0}
     ee6:	42b0      	cmp	r0, r6
     ee8:	d300      	bcc.n	eec <Code_179+0x8>
     eea:	0006      	movs	r6, r0
     eec:	4770      	bx	lr
     eee:	46c0      	nop			; (mov r8, r8)

00000ef0 <Dictionary_180>:
     ef0:	00000f10 	andeq	r0, r0, r0, lsl pc
     ef4:	75040062 	strvc	r0, [r4, #-98]	; 0x62
     ef8:	006e696d 	rsbeq	r6, lr, sp, ror #18

00000efc <Code_180>:
     efc:	cf01      	ldmia	r7!, {r0}
     efe:	42b0      	cmp	r0, r6
     f00:	d800      	bhi.n	f04 <Code_180+0x8>
     f02:	0006      	movs	r6, r0
     f04:	4770      	bx	lr
     f06:	f2300000 	vhadd.s<illegal width 64>	d0, d0, d0
     f0a:	f3301fff 			; <UNDEFINED> instruction: 0xf3301fff
     f0e:	0f501fff 	svceq	0x00501fff

00000f10 <Dictionary_181>:
     f10:	00000f50 	andeq	r0, r0, r0, asr pc
     f14:	6d040000 	stcvs	0, cr0, [r4]
     f18:	0065766f 	rsbeq	r7, r5, pc, ror #12

00000f1c <Code_181>:
     f1c:	b507      	push	{r0, r1, r2, lr}
     f1e:	0031      	movs	r1, r6
     f20:	cf40      	ldmia	r7!, {r6}
     f22:	0032      	movs	r2, r6
     f24:	cf40      	ldmia	r7!, {r6}
     f26:	2900      	cmp	r1, #0
     f28:	d00f      	beq.n	f4a <Code_181+0x2e>
     f2a:	42b2      	cmp	r2, r6
     f2c:	d00d      	beq.n	f4a <Code_181+0x2e>
     f2e:	d306      	bcc.n	f3e <Code_181+0x22>
     f30:	3e01      	subs	r6, #1
     f32:	3a01      	subs	r2, #1
     f34:	5c70      	ldrb	r0, [r6, r1]
     f36:	5450      	strb	r0, [r2, r1]
     f38:	3901      	subs	r1, #1
     f3a:	d1fb      	bne.n	f34 <Code_181+0x18>
     f3c:	e005      	b.n	f4a <Code_181+0x2e>
     f3e:	7830      	ldrb	r0, [r6, #0]
     f40:	7010      	strb	r0, [r2, #0]
     f42:	3601      	adds	r6, #1
     f44:	3201      	adds	r2, #1
     f46:	3901      	subs	r1, #1
     f48:	d1f9      	bne.n	f3e <Code_181+0x22>
     f4a:	cf40      	ldmia	r7!, {r6}
     f4c:	bd07      	pop	{r0, r1, r2, pc}
     f4e:	46c0      	nop			; (mov r8, r8)

00000f50 <Dictionary_185>:
     f50:	00000f74 	andeq	r0, r0, r4, ror pc
     f54:	66040000 	strvs	r0, [r4], -r0
     f58:	006c6c69 	rsbeq	r6, ip, r9, ror #24

00000f5c <Code_185>:
     f5c:	0030      	movs	r0, r6
     f5e:	cf40      	ldmia	r7!, {r6}
     f60:	0031      	movs	r1, r6
     f62:	cf40      	ldmia	r7!, {r6}
     f64:	2900      	cmp	r1, #0
     f66:	d002      	beq.n	f6e <Code_185+0x12>
     f68:	3901      	subs	r1, #1
     f6a:	5470      	strb	r0, [r6, r1]
     f6c:	d1fc      	bne.n	f68 <Code_185+0xc>
     f6e:	cf40      	ldmia	r7!, {r6}
     f70:	4770      	bx	lr
     f72:	46c0      	nop			; (mov r8, r8)

00000f74 <Dictionary_189>:
     f74:	00000f80 	andeq	r0, r0, r0, lsl #31
     f78:	40010020 	andmi	r0, r1, r0, lsr #32

00000f7c <Code_189>:
     f7c:	6836      	ldr	r6, [r6, #0]
     f7e:	4770      	bx	lr

00000f80 <Dictionary_190>:
     f80:	00000f98 	muleq	r0, r8, pc	; <UNPREDICTABLE>
     f84:	2101006d 	tstcs	r1, sp, rrx

00000f88 <Code_190>:
     f88:	cf03      	ldmia	r7!, {r0, r1}
     f8a:	6030      	str	r0, [r6, #0]
     f8c:	000e      	movs	r6, r1
     f8e:	4770      	bx	lr
     f90:	6006      	str	r6, [r0, #0]
     f92:	4770      	bx	lr
     f94:	6001      	str	r1, [r0, #0]
     f96:	4770      	bx	lr

00000f98 <Dictionary_191>:
     f98:	00000fc0 	andeq	r0, r0, r0, asr #31
     f9c:	2b02006d 	blcs	81158 <BIT19+0x1158>
     fa0:	cf030021 	svcgt	0x00030021

00000fa2 <Code_191>:
     fa2:	cf03      	ldmia	r7!, {r0, r1}
     fa4:	6832      	ldr	r2, [r6, #0]
     fa6:	1812      	adds	r2, r2, r0
     fa8:	6032      	str	r2, [r6, #0]
     faa:	000e      	movs	r6, r1
     fac:	4770      	bx	lr
     fae:	6802      	ldr	r2, [r0, #0]
     fb0:	1992      	adds	r2, r2, r6
     fb2:	6002      	str	r2, [r0, #0]
     fb4:	4770      	bx	lr
     fb6:	6802      	ldr	r2, [r0, #0]
     fb8:	1852      	adds	r2, r2, r1
     fba:	6002      	str	r2, [r0, #0]
     fbc:	4770      	bx	lr
     fbe:	46c0      	nop			; (mov r8, r8)

00000fc0 <Dictionary_192>:
     fc0:	00000fd0 	ldrdeq	r0, [r0], -r0	; <UNPREDICTABLE>
     fc4:	68020020 	stmdavs	r2, {r5}
     fc8:	88360040 	ldmdahi	r6!, {r6}

00000fca <Code_192>:
     fca:	8836      	ldrh	r6, [r6, #0]
     fcc:	4770      	bx	lr
     fce:	46c0      	nop			; (mov r8, r8)

00000fd0 <Dictionary_193>:
     fd0:	00000fec 	andeq	r0, r0, ip, ror #31
     fd4:	6802006d 	stmdavs	r2, {r0, r2, r3, r5, r6}
     fd8:	cf030021 	svcgt	0x00030021

00000fda <Code_193>:
     fda:	cf03      	ldmia	r7!, {r0, r1}
     fdc:	8030      	strh	r0, [r6, #0]
     fde:	000e      	movs	r6, r1
     fe0:	4770      	bx	lr
     fe2:	8006      	strh	r6, [r0, #0]
     fe4:	4770      	bx	lr
     fe6:	8001      	strh	r1, [r0, #0]
     fe8:	4770      	bx	lr
     fea:	46c0      	nop			; (mov r8, r8)

00000fec <Dictionary_194>:
     fec:	00001014 	andeq	r1, r0, r4, lsl r0
     ff0:	6803006d 	stmdavs	r3, {r0, r2, r3, r5, r6}
     ff4:	cf03212b 	svcgt	0x0003212b

00000ff6 <Code_194>:
     ff6:	cf03      	ldmia	r7!, {r0, r1}
     ff8:	8832      	ldrh	r2, [r6, #0]
     ffa:	1812      	adds	r2, r2, r0
     ffc:	8032      	strh	r2, [r6, #0]
     ffe:	000e      	movs	r6, r1
    1000:	4770      	bx	lr
    1002:	8802      	ldrh	r2, [r0, #0]
    1004:	1992      	adds	r2, r2, r6
    1006:	8002      	strh	r2, [r0, #0]
    1008:	4770      	bx	lr
    100a:	8802      	ldrh	r2, [r0, #0]
    100c:	1852      	adds	r2, r2, r1
    100e:	8002      	strh	r2, [r0, #0]
    1010:	4770      	bx	lr
    1012:	46c0      	nop			; (mov r8, r8)

00001014 <Dictionary_195>:
    1014:	00001024 	andeq	r1, r0, r4, lsr #32
    1018:	63020020 	movwvs	r0, #8224	; 0x2020
    101c:	78360040 	ldmdavc	r6!, {r6}

0000101e <Code_195>:
    101e:	7836      	ldrb	r6, [r6, #0]
    1020:	4770      	bx	lr
    1022:	46c0      	nop			; (mov r8, r8)

00001024 <Dictionary_196>:
    1024:	00001040 	andeq	r1, r0, r0, asr #32
    1028:	6302006d 	movwvs	r0, #8301	; 0x206d
    102c:	cf030021 	svcgt	0x00030021

0000102e <Code_196>:
    102e:	cf03      	ldmia	r7!, {r0, r1}
    1030:	7030      	strb	r0, [r6, #0]
    1032:	000e      	movs	r6, r1
    1034:	4770      	bx	lr
    1036:	7006      	strb	r6, [r0, #0]
    1038:	4770      	bx	lr
    103a:	7001      	strb	r1, [r0, #0]
    103c:	4770      	bx	lr
    103e:	46c0      	nop			; (mov r8, r8)

00001040 <Dictionary_197>:
    1040:	00001068 	andeq	r1, r0, r8, rrx
    1044:	6303006d 	movwvs	r0, #12397	; 0x306d
    1048:	cf03212b 	svcgt	0x0003212b

0000104a <Code_197>:
    104a:	cf03      	ldmia	r7!, {r0, r1}
    104c:	7832      	ldrb	r2, [r6, #0]
    104e:	1812      	adds	r2, r2, r0
    1050:	7032      	strb	r2, [r6, #0]
    1052:	000e      	movs	r6, r1
    1054:	4770      	bx	lr
    1056:	7802      	ldrb	r2, [r0, #0]
    1058:	1992      	adds	r2, r2, r6
    105a:	7002      	strb	r2, [r0, #0]
    105c:	4770      	bx	lr
    105e:	7802      	ldrb	r2, [r0, #0]
    1060:	1852      	adds	r2, r2, r1
    1062:	7002      	strb	r2, [r0, #0]
    1064:	4770      	bx	lr
    1066:	46c0      	nop			; (mov r8, r8)

00001068 <Dictionary_198>:
    1068:	00001090 	muleq	r0, r0, r0
    106c:	6204006d 	andvs	r0, r4, #109	; 0x6d
    1070:	00217369 	eoreq	r7, r1, r9, ror #6

00001074 <Code_198>:
    1074:	cf03      	ldmia	r7!, {r0, r1}
    1076:	6832      	ldr	r2, [r6, #0]
    1078:	4302      	orrs	r2, r0
    107a:	6032      	str	r2, [r6, #0]
    107c:	000e      	movs	r6, r1
    107e:	4770      	bx	lr
    1080:	6802      	ldr	r2, [r0, #0]
    1082:	4332      	orrs	r2, r6
    1084:	6002      	str	r2, [r0, #0]
    1086:	4770      	bx	lr
    1088:	6802      	ldr	r2, [r0, #0]
    108a:	430a      	orrs	r2, r1
    108c:	6002      	str	r2, [r0, #0]
    108e:	4770      	bx	lr

00001090 <Dictionary_199>:
    1090:	000010b8 	strheq	r1, [r0], -r8
    1094:	6204006d 	andvs	r0, r4, #109	; 0x6d
    1098:	00216369 	eoreq	r6, r1, r9, ror #6

0000109c <Code_199>:
    109c:	cf03      	ldmia	r7!, {r0, r1}
    109e:	6832      	ldr	r2, [r6, #0]
    10a0:	4382      	bics	r2, r0
    10a2:	6032      	str	r2, [r6, #0]
    10a4:	000e      	movs	r6, r1
    10a6:	4770      	bx	lr
    10a8:	6802      	ldr	r2, [r0, #0]
    10aa:	43b2      	bics	r2, r6
    10ac:	6002      	str	r2, [r0, #0]
    10ae:	4770      	bx	lr
    10b0:	6802      	ldr	r2, [r0, #0]
    10b2:	438a      	bics	r2, r1
    10b4:	6002      	str	r2, [r0, #0]
    10b6:	4770      	bx	lr

000010b8 <Dictionary_200>:
    10b8:	000010e0 	andeq	r1, r0, r0, ror #1
    10bc:	7804006d 	stmdavc	r4, {r0, r2, r3, r5, r6}
    10c0:	0021726f 	eoreq	r7, r1, pc, ror #4

000010c4 <Code_200>:
    10c4:	cf03      	ldmia	r7!, {r0, r1}
    10c6:	6832      	ldr	r2, [r6, #0]
    10c8:	4042      	eors	r2, r0
    10ca:	6032      	str	r2, [r6, #0]
    10cc:	000e      	movs	r6, r1
    10ce:	4770      	bx	lr
    10d0:	6802      	ldr	r2, [r0, #0]
    10d2:	4072      	eors	r2, r6
    10d4:	6002      	str	r2, [r0, #0]
    10d6:	4770      	bx	lr
    10d8:	6802      	ldr	r2, [r0, #0]
    10da:	404a      	eors	r2, r1
    10dc:	6002      	str	r2, [r0, #0]
    10de:	4770      	bx	lr

000010e0 <Dictionary_201>:
    10e0:	00001148 	andeq	r1, r0, r8, asr #2
    10e4:	62040068 	andvs	r0, r4, #104	; 0x68
    10e8:	00407469 	subeq	r7, r0, r9, ror #8

000010ec <Code_201>:
    10ec:	cf01      	ldmia	r7!, {r0}
    10ee:	6836      	ldr	r6, [r6, #0]

000010f0 <struktur_bitfetch>:
    10f0:	4006      	ands	r6, r0
    10f2:	3e01      	subs	r6, #1
    10f4:	41b6      	sbcs	r6, r6
    10f6:	43f6      	mvns	r6, r6
    10f8:	4770      	bx	lr
    10fa:	4af2      	ldr	r2, [pc, #968]	; (14c4 <Code_240+0x6>)

000010fc <bitfetch_opcoding>:
    10fc:	b500      	push	{lr}
    10fe:	2b01      	cmp	r3, #1
    1100:	d10a      	bne.n	1118 <bitfetch_opcoding+0x1c>
    1102:	3f04      	subs	r7, #4
    1104:	603e      	str	r6, [r7, #0]
    1106:	2600      	movs	r6, #0
    1108:	f000 ff5c 	bl	1fc4 <Code_433>
    110c:	3f04      	subs	r7, #4
    110e:	603e      	str	r6, [r7, #0]
    1110:	0016      	movs	r6, r2
    1112:	f001 faee 	bl	26f2 <Code_574>
    1116:	e011      	b.n	113c <bitfetch_opcoding+0x40>
    1118:	cf02      	ldmia	r7!, {r1}
    111a:	3b01      	subs	r3, #1
    111c:	f002 fc3d 	bl	399a <konstantenschreiben>
    1120:	3f04      	subs	r7, #4
    1122:	603e      	str	r6, [r7, #0]
    1124:	2636      	movs	r6, #54	; 0x36
    1126:	4316      	orrs	r6, r2
    1128:	f001 fae3 	bl	26f2 <Code_574>
    112c:	3f04      	subs	r7, #4
    112e:	603e      	str	r6, [r7, #0]
    1130:	000e      	movs	r6, r1
    1132:	3f04      	subs	r7, #4
    1134:	603e      	str	r6, [r7, #0]
    1136:	2600      	movs	r6, #0
    1138:	f000 ff44 	bl	1fc4 <Code_433>
    113c:	3f04      	subs	r7, #4
    113e:	603e      	str	r6, [r7, #0]
    1140:	4ee1      	ldr	r6, [pc, #900]	; (14c8 <Code_240+0xa>)
    1142:	f001 f8e8 	bl	2316 <Code_499>
    1146:	bd00      	pop	{pc}

00001148 <Dictionary_213>:
    1148:	00001170 	andeq	r1, r0, r0, ror r1
    114c:	6805006d 	stmdavs	r5, {r0, r2, r3, r5, r6}
    1150:	21736962 	cmncs	r3, r2, ror #18

00001154 <Code_213>:
    1154:	cf03      	ldmia	r7!, {r0, r1}
    1156:	8832      	ldrh	r2, [r6, #0]
    1158:	4302      	orrs	r2, r0
    115a:	8032      	strh	r2, [r6, #0]
    115c:	000e      	movs	r6, r1
    115e:	4770      	bx	lr
    1160:	8802      	ldrh	r2, [r0, #0]
    1162:	4332      	orrs	r2, r6
    1164:	8002      	strh	r2, [r0, #0]
    1166:	4770      	bx	lr
    1168:	8802      	ldrh	r2, [r0, #0]
    116a:	430a      	orrs	r2, r1
    116c:	8002      	strh	r2, [r0, #0]
    116e:	4770      	bx	lr

00001170 <Dictionary_214>:
    1170:	00001198 	muleq	r0, r8, r1
    1174:	6805006d 	stmdavs	r5, {r0, r2, r3, r5, r6}
    1178:	21636962 	cmncs	r3, r2, ror #18

0000117c <Code_214>:
    117c:	cf03      	ldmia	r7!, {r0, r1}
    117e:	8832      	ldrh	r2, [r6, #0]
    1180:	4382      	bics	r2, r0
    1182:	8032      	strh	r2, [r6, #0]
    1184:	000e      	movs	r6, r1
    1186:	4770      	bx	lr
    1188:	8802      	ldrh	r2, [r0, #0]
    118a:	43b2      	bics	r2, r6
    118c:	8002      	strh	r2, [r0, #0]
    118e:	4770      	bx	lr
    1190:	8802      	ldrh	r2, [r0, #0]
    1192:	438a      	bics	r2, r1
    1194:	8002      	strh	r2, [r0, #0]
    1196:	4770      	bx	lr

00001198 <Dictionary_215>:
    1198:	000011c0 	andeq	r1, r0, r0, asr #3
    119c:	6805006d 	stmdavs	r5, {r0, r2, r3, r5, r6}
    11a0:	21726f78 	cmncs	r2, r8, ror pc

000011a4 <Code_215>:
    11a4:	cf03      	ldmia	r7!, {r0, r1}
    11a6:	8832      	ldrh	r2, [r6, #0]
    11a8:	4042      	eors	r2, r0
    11aa:	8032      	strh	r2, [r6, #0]
    11ac:	000e      	movs	r6, r1
    11ae:	4770      	bx	lr
    11b0:	8802      	ldrh	r2, [r0, #0]
    11b2:	4072      	eors	r2, r6
    11b4:	8002      	strh	r2, [r0, #0]
    11b6:	4770      	bx	lr
    11b8:	8802      	ldrh	r2, [r0, #0]
    11ba:	404a      	eors	r2, r1
    11bc:	8002      	strh	r2, [r0, #0]
    11be:	4770      	bx	lr

000011c0 <Dictionary_216>:
    11c0:	000011e0 	andeq	r1, r0, r0, ror #3
    11c4:	68050068 	stmdavs	r5, {r3, r5, r6}
    11c8:	40746962 	rsbsmi	r6, r4, r2, ror #18

000011cc <Code_216>:
    11cc:	cf01      	ldmia	r7!, {r0}
    11ce:	8836      	ldrh	r6, [r6, #0]
    11d0:	4006      	ands	r6, r0
    11d2:	3e01      	subs	r6, #1
    11d4:	41b6      	sbcs	r6, r6
    11d6:	43f6      	mvns	r6, r6
    11d8:	4770      	bx	lr
    11da:	4abc      	ldr	r2, [pc, #752]	; (14cc <Code_240+0xe>)
    11dc:	e78e      	b.n	10fc <bitfetch_opcoding>
    11de:	46c0      	nop			; (mov r8, r8)

000011e0 <Dictionary_217>:
    11e0:	00001208 	andeq	r1, r0, r8, lsl #4
    11e4:	6305006d 	movwvs	r0, #20589	; 0x506d
    11e8:	21736962 	cmncs	r3, r2, ror #18

000011ec <Code_217>:
    11ec:	cf03      	ldmia	r7!, {r0, r1}
    11ee:	7832      	ldrb	r2, [r6, #0]
    11f0:	4302      	orrs	r2, r0
    11f2:	7032      	strb	r2, [r6, #0]
    11f4:	000e      	movs	r6, r1
    11f6:	4770      	bx	lr
    11f8:	7802      	ldrb	r2, [r0, #0]
    11fa:	4332      	orrs	r2, r6
    11fc:	7002      	strb	r2, [r0, #0]
    11fe:	4770      	bx	lr
    1200:	7802      	ldrb	r2, [r0, #0]
    1202:	430a      	orrs	r2, r1
    1204:	7002      	strb	r2, [r0, #0]
    1206:	4770      	bx	lr

00001208 <Dictionary_218>:
    1208:	00001230 	andeq	r1, r0, r0, lsr r2
    120c:	6305006d 	movwvs	r0, #20589	; 0x506d
    1210:	21636962 	cmncs	r3, r2, ror #18

00001214 <Code_218>:
    1214:	cf03      	ldmia	r7!, {r0, r1}
    1216:	7832      	ldrb	r2, [r6, #0]
    1218:	4382      	bics	r2, r0
    121a:	7032      	strb	r2, [r6, #0]
    121c:	000e      	movs	r6, r1
    121e:	4770      	bx	lr
    1220:	7802      	ldrb	r2, [r0, #0]
    1222:	43b2      	bics	r2, r6
    1224:	7002      	strb	r2, [r0, #0]
    1226:	4770      	bx	lr
    1228:	7802      	ldrb	r2, [r0, #0]
    122a:	438a      	bics	r2, r1
    122c:	7002      	strb	r2, [r0, #0]
    122e:	4770      	bx	lr

00001230 <Dictionary_219>:
    1230:	00001258 	andeq	r1, r0, r8, asr r2
    1234:	6305006d 	movwvs	r0, #20589	; 0x506d
    1238:	21726f78 	cmncs	r2, r8, ror pc

0000123c <Code_219>:
    123c:	cf03      	ldmia	r7!, {r0, r1}
    123e:	7832      	ldrb	r2, [r6, #0]
    1240:	4042      	eors	r2, r0
    1242:	7032      	strb	r2, [r6, #0]
    1244:	000e      	movs	r6, r1
    1246:	4770      	bx	lr
    1248:	7802      	ldrb	r2, [r0, #0]
    124a:	4072      	eors	r2, r6
    124c:	7002      	strb	r2, [r0, #0]
    124e:	4770      	bx	lr
    1250:	7802      	ldrb	r2, [r0, #0]
    1252:	404a      	eors	r2, r1
    1254:	7002      	strb	r2, [r0, #0]
    1256:	4770      	bx	lr

00001258 <Dictionary_220>:
    1258:	00001278 	andeq	r1, r0, r8, ror r2
    125c:	63050068 	movwvs	r0, #20584	; 0x5068
    1260:	40746962 	rsbsmi	r6, r4, r2, ror #18

00001264 <Code_220>:
    1264:	cf01      	ldmia	r7!, {r0}
    1266:	7836      	ldrb	r6, [r6, #0]
    1268:	4006      	ands	r6, r0
    126a:	3e01      	subs	r6, #1
    126c:	41b6      	sbcs	r6, r6
    126e:	43f6      	mvns	r6, r6
    1270:	4770      	bx	lr
    1272:	4a97      	ldr	r2, [pc, #604]	; (14d0 <Code_240+0x12>)
    1274:	e742      	b.n	10fc <bitfetch_opcoding>
    1276:	46c0      	nop			; (mov r8, r8)

00001278 <Dictionary_221>:
    1278:	00001288 	andeq	r1, r0, r8, lsl #5
    127c:	63050061 	movwvs	r0, #20577	; 0x5061
    1280:	2b6c6c65 	blcs	1b1c41c <BIT24+0xb1c41c>

00001284 <Code_221>:
    1284:	3604      	adds	r6, #4
    1286:	4770      	bx	lr

00001288 <Dictionary_222>:
    1288:	00001298 	muleq	r0, r8, r2
    128c:	63050061 	movwvs	r0, #20577	; 0x5061
    1290:	736c6c65 	cmnvc	ip, #25856	; 0x6500

00001294 <Code_222>:
    1294:	00b6      	lsls	r6, r6, #2
    1296:	4770      	bx	lr

00001298 <Dictionary_223>:
    1298:	000013a8 	andeq	r1, r0, r8, lsr #7
    129c:	66060000 	strvs	r0, [r6], -r0
    12a0:	6873616c 	ldmdavs	r3!, {r2, r3, r5, r6, r8, sp, lr}^
    12a4:	00300021 	eorseq	r0, r0, r1, lsr #32

000012a6 <Code_223>:
    12a6:	0030      	movs	r0, r6
    12a8:	cf40      	ldmia	r7!, {r6}
    12aa:	0031      	movs	r1, r6
    12ac:	cf40      	ldmia	r7!, {r6}
    12ae:	4b89      	ldr	r3, [pc, #548]	; (14d4 <Code_240+0x16>)
    12b0:	4298      	cmp	r0, r3
    12b2:	d368      	bcc.n	1386 <Code_223+0xe0>
    12b4:	4b88      	ldr	r3, [pc, #544]	; (14d8 <Code_240+0x1a>)
    12b6:	4299      	cmp	r1, r3
    12b8:	d02e      	beq.n	1318 <Code_223+0x72>
    12ba:	2203      	movs	r2, #3
    12bc:	4002      	ands	r2, r0
    12be:	d12c      	bne.n	131a <Code_223+0x74>
    12c0:	6802      	ldr	r2, [r0, #0]
    12c2:	429a      	cmp	r2, r3
    12c4:	d146      	bne.n	1354 <Code_223+0xae>
    12c6:	4a85      	ldr	r2, [pc, #532]	; (14dc <Code_240+0x1e>)
    12c8:	7813      	ldrb	r3, [r2, #0]
    12ca:	2280      	movs	r2, #128	; 0x80
    12cc:	401a      	ands	r2, r3
    12ce:	d0fa      	beq.n	12c6 <Code_223+0x20>
    12d0:	2230      	movs	r2, #48	; 0x30
    12d2:	401a      	ands	r2, r3
    12d4:	d002      	beq.n	12dc <Code_223+0x36>
    12d6:	4a81      	ldr	r2, [pc, #516]	; (14dc <Code_240+0x1e>)
    12d8:	2330      	movs	r3, #48	; 0x30
    12da:	7013      	strb	r3, [r2, #0]
    12dc:	4a80      	ldr	r2, [pc, #512]	; (14e0 <Code_240+0x22>)
    12de:	2306      	movs	r3, #6
    12e0:	7013      	strb	r3, [r2, #0]
    12e2:	4a80      	ldr	r2, [pc, #512]	; (14e4 <Code_240+0x26>)
    12e4:	7010      	strb	r0, [r2, #0]
    12e6:	0a00      	lsrs	r0, r0, #8
    12e8:	4a7f      	ldr	r2, [pc, #508]	; (14e8 <Code_240+0x2a>)
    12ea:	7010      	strb	r0, [r2, #0]
    12ec:	0a00      	lsrs	r0, r0, #8
    12ee:	4a7f      	ldr	r2, [pc, #508]	; (14ec <Code_240+0x2e>)
    12f0:	7010      	strb	r0, [r2, #0]
    12f2:	4a7f      	ldr	r2, [pc, #508]	; (14f0 <Code_240+0x32>)
    12f4:	7011      	strb	r1, [r2, #0]
    12f6:	0a09      	lsrs	r1, r1, #8
    12f8:	4a7e      	ldr	r2, [pc, #504]	; (14f4 <Code_240+0x36>)
    12fa:	7011      	strb	r1, [r2, #0]
    12fc:	0a09      	lsrs	r1, r1, #8
    12fe:	4a7e      	ldr	r2, [pc, #504]	; (14f8 <Code_240+0x3a>)
    1300:	7011      	strb	r1, [r2, #0]
    1302:	0a09      	lsrs	r1, r1, #8
    1304:	4a7d      	ldr	r2, [pc, #500]	; (14fc <Code_240+0x3e>)
    1306:	7011      	strb	r1, [r2, #0]
    1308:	4a74      	ldr	r2, [pc, #464]	; (14dc <Code_240+0x1e>)
    130a:	2380      	movs	r3, #128	; 0x80
    130c:	7013      	strb	r3, [r2, #0]
    130e:	4a73      	ldr	r2, [pc, #460]	; (14dc <Code_240+0x1e>)
    1310:	7813      	ldrb	r3, [r2, #0]
    1312:	2280      	movs	r2, #128	; 0x80
    1314:	401a      	ands	r2, r3
    1316:	d0fa      	beq.n	130e <Code_223+0x68>
    1318:	4770      	bx	lr
    131a:	f000 fd05 	bl	1d28 <dotgaensefuesschen>
    131e:	64644130 	strbtvs	r4, [r4], #-304	; 0x130
    1322:	73736572 	cmnvc	r3, #478150656	; 0x1c800000
    1326:	73616820 	cmnvc	r1, #2097152	; 0x200000
    132a:	206f7420 	rsbcs	r7, pc, r0, lsr #8
    132e:	34206562 	strtcc	r6, [r0], #-1378	; 0x562
    1332:	696c612d 	stmdbvs	ip!, {r0, r2, r3, r5, r8, sp, lr}^
    1336:	64656e67 	strbtvs	r6, [r5], #-3687	; 0xe67
    133a:	726f6620 	rsbvc	r6, pc, #33554432	; 0x2000000
    133e:	69727720 	ldmdbvs	r2!, {r5, r8, r9, sl, ip, sp, lr}^
    1342:	676e6974 			; <UNDEFINED> instruction: 0x676e6974
    1346:	616c6620 	cmnvs	ip, r0, lsr #12
    134a:	21206873 	teqcs	r0, r3, ror r8
    134e:	f002000a 			; <UNDEFINED> instruction: 0xf002000a
    1352:	fb4a f000 	smusd	r0, sl, r0
    1356:	fce8 4629 	stc2l	6, cr4, [r8], #164	; 0xa4
    135a:	6873616c 	ldmdavs	r3!, {r2, r3, r5, r6, r8, sp, lr}^
    135e:	636f6c20 	cmnvs	pc, #8192	; 0x2000
    1362:	6f697461 	svcvs	0x00697461
    1366:	6163206e 	cmnvs	r3, lr, rrx
    136a:	746f6e6e 	strbtvc	r6, [pc], #-3694	; 1372 <Code_223+0xcc>
    136e:	20656220 	rsbcs	r6, r5, r0, lsr #4
    1372:	74697277 	strbtvc	r7, [r9], #-631	; 0x277
    1376:	206e6574 	rsbcs	r6, lr, r4, ror r5
    137a:	63697774 	cmnvs	r9, #30408704	; 0x1d00000
    137e:	0a212065 	beq	84951a <BIT23+0x4951a>
    1382:	f002 fb31 	bl	39e8 <Code_950>
    1386:	f000 fccf 	bl	1d28 <dotgaensefuesschen>
    138a:	6e614319 	mcrvs	3, 3, r4, cr1, cr9, {0}
    138e:	20746f6e 	rsbscs	r6, r4, lr, ror #30
    1392:	74697277 	strbtvc	r7, [r9], #-631	; 0x277
    1396:	6e692065 	cdpvs	0, 6, cr2, cr9, cr5, {3}
    139a:	63206f74 	teqvs	r0, #464	; 0x1d0
    139e:	2065726f 	rsbcs	r7, r5, pc, ror #4
    13a2:	f0020a21 			; <UNDEFINED> instruction: 0xf0020a21
    13a6:	fb20 142c 			; <UNDEFINED> instruction: 0xfb20142c

000013a8 <Dictionary_229>:
    13a8:	0000142c 	andeq	r1, r0, ip, lsr #8
    13ac:	660e0000 	strvs	r0, [lr], -r0
    13b0:	6873616c 	ldmdavs	r3!, {r2, r3, r5, r6, r8, sp, lr}^
    13b4:	65676170 	strbvs	r6, [r7, #-368]!	; 0x170
    13b8:	73617265 	cmnvc	r1, #1342177286	; 0x50000006
    13bc:	b50f0065 	strlt	r0, [pc, #-101]	; 135f <Code_223+0xb9>

000013be <Code_229>:
    13be:	b50f      	push	{r0, r1, r2, r3, lr}
    13c0:	0030      	movs	r0, r6
    13c2:	cf40      	ldmia	r7!, {r6}
    13c4:	4b43      	ldr	r3, [pc, #268]	; (14d4 <Code_240+0x16>)
    13c6:	4298      	cmp	r0, r3
    13c8:	d320      	bcc.n	140c <Code_229+0x4e>
    13ca:	2303      	movs	r3, #3
    13cc:	4398      	bics	r0, r3
    13ce:	4a43      	ldr	r2, [pc, #268]	; (14dc <Code_240+0x1e>)
    13d0:	7813      	ldrb	r3, [r2, #0]
    13d2:	2280      	movs	r2, #128	; 0x80
    13d4:	401a      	ands	r2, r3
    13d6:	d0fa      	beq.n	13ce <Code_229+0x10>
    13d8:	2230      	movs	r2, #48	; 0x30
    13da:	401a      	ands	r2, r3
    13dc:	d002      	beq.n	13e4 <Code_229+0x26>
    13de:	4a3f      	ldr	r2, [pc, #252]	; (14dc <Code_240+0x1e>)
    13e0:	2330      	movs	r3, #48	; 0x30
    13e2:	7013      	strb	r3, [r2, #0]
    13e4:	4a3e      	ldr	r2, [pc, #248]	; (14e0 <Code_240+0x22>)
    13e6:	2309      	movs	r3, #9
    13e8:	7013      	strb	r3, [r2, #0]
    13ea:	4a3e      	ldr	r2, [pc, #248]	; (14e4 <Code_240+0x26>)
    13ec:	7010      	strb	r0, [r2, #0]
    13ee:	0a00      	lsrs	r0, r0, #8
    13f0:	4a3d      	ldr	r2, [pc, #244]	; (14e8 <Code_240+0x2a>)
    13f2:	7010      	strb	r0, [r2, #0]
    13f4:	0a00      	lsrs	r0, r0, #8
    13f6:	4a3d      	ldr	r2, [pc, #244]	; (14ec <Code_240+0x2e>)
    13f8:	7010      	strb	r0, [r2, #0]
    13fa:	4a38      	ldr	r2, [pc, #224]	; (14dc <Code_240+0x1e>)
    13fc:	2380      	movs	r3, #128	; 0x80
    13fe:	7013      	strb	r3, [r2, #0]
    1400:	4a36      	ldr	r2, [pc, #216]	; (14dc <Code_240+0x1e>)
    1402:	7813      	ldrb	r3, [r2, #0]
    1404:	2280      	movs	r2, #128	; 0x80
    1406:	401a      	ands	r2, r3
    1408:	d0fa      	beq.n	1400 <Code_229+0x42>
    140a:	bd0f      	pop	{r0, r1, r2, r3, pc}
    140c:	f000 fc8c 	bl	1d28 <dotgaensefuesschen>
    1410:	6e614314 	mcrvs	3, 3, r4, cr1, cr4, {0}
    1414:	20746f6e 	rsbscs	r6, r4, lr, ror #30
    1418:	73617265 	cmnvc	r1, #1342177286	; 0x50000006
    141c:	6f632065 	svcvs	0x00632065
    1420:	21206572 	teqcs	r0, r2, ror r5
    1424:	f002000a 			; <UNDEFINED> instruction: 0xf002000a
    1428:	fadf 46c0 			; <UNDEFINED> instruction: 0xfadf46c0

0000142c <Dictionary_232>:
    142c:	000014a8 	andeq	r1, r0, r8, lsr #9
    1430:	650a0000 	strvs	r0, [sl]
    1434:	65736172 	ldrbvs	r6, [r3, #-370]!	; 0x172
    1438:	73616c66 	cmnvc	r1, #26112	; 0x6600
    143c:	48250068 	stmdami	r5!, {r3, r5, r6}

0000143e <Code_232>:
    143e:	4825      	ldr	r0, [pc, #148]	; (14d4 <Code_240+0x16>)

00001440 <eraseflash_intern>:
    1440:	b672      	cpsid	i
    1442:	492f      	ldr	r1, [pc, #188]	; (1500 <Code_240+0x42>)
    1444:	4a2f      	ldr	r2, [pc, #188]	; (1504 <Code_240+0x46>)
    1446:	6803      	ldr	r3, [r0, #0]
    1448:	4293      	cmp	r3, r2
    144a:	d01c      	beq.n	1486 <eraseflash_intern+0x46>
    144c:	3f04      	subs	r7, #4
    144e:	603e      	str	r6, [r7, #0]
    1450:	0006      	movs	r6, r0
    1452:	3f04      	subs	r7, #4
    1454:	603e      	str	r6, [r7, #0]
    1456:	f000 fc67 	bl	1d28 <dotgaensefuesschen>
    145a:	61724510 	cmnvs	r2, r0, lsl r5
    145e:	62206573 	eorvs	r6, r0, #482344960	; 0x1cc00000
    1462:	6b636f6c 	blvs	18dd21a <BIT24+0x8dd21a>
    1466:	20746120 	rsbscs	r6, r4, r0, lsr #2
    146a:	f0000020 			; <UNDEFINED> instruction: 0xf0000020
    146e:	fcd4 f000 	ldc2l	0, cr15, [r4], {0}
    1472:	fc5a 200c 	mrrc2	0, 0, r2, sl, cr12
    1476:	6d6f7266 	sfmvs	f7, 2, [pc, #-408]!	; 12e4 <Code_223+0x3e>
    147a:	616c4620 	cmnvs	ip, r0, lsr #12
    147e:	000a6873 	andeq	r6, sl, r3, ror r8
    1482:	f7ff ff9c 	bl	13be <Code_229>
    1486:	3004      	adds	r0, #4
    1488:	4288      	cmp	r0, r1
    148a:	d1dc      	bne.n	1446 <eraseflash_intern+0x6>
    148c:	f000 fc4c 	bl	1d28 <dotgaensefuesschen>
    1490:	6e694612 	mcrvs	6, 3, r4, cr9, cr2, {0}
    1494:	65687369 	strbvs	r7, [r8, #-873]!	; 0x369
    1498:	52202e64 	eorpl	r2, r0, #1600	; 0x640
    149c:	74657365 	strbtvc	r7, [r5], #-869	; 0x365
    14a0:	000a2120 	andeq	r2, sl, r0, lsr #2
    14a4:	f002 fb30 	bl	3b08 <Code_963>

000014a8 <Dictionary_240>:
    14a8:	00001550 	andeq	r1, r0, r0, asr r5
    14ac:	650e0000 	strvs	r0, [lr]
    14b0:	65736172 	ldrbvs	r6, [r3, #-370]!	; 0x172
    14b4:	73616c66 	cmnvc	r1, #26112	; 0x6600
    14b8:	6f726668 	svcvs	0x00726668
    14bc:	0030006d 	eorseq	r0, r0, sp, rrx

000014be <Code_240>:
    14be:	0030      	movs	r0, r6
    14c0:	cf40      	ldmia	r7!, {r6}
    14c2:	e7bd      	b.n	1440 <eraseflash_intern>
    14c4:	00006800 	andeq	r6, r0, r0, lsl #16
    14c8:	000010f0 	strdeq	r1, [r0], -r0
    14cc:	00008800 	andeq	r8, r0, r0, lsl #16
    14d0:	00007800 	andeq	r7, r0, r0, lsl #16
    14d4:	00004000 	andeq	r4, r0, r0
    14d8:	ffffffff 			; <UNDEFINED> instruction: 0xffffffff
    14dc:	40020000 	andmi	r0, r2, r0
    14e0:	40020007 	andmi	r0, r2, r7
    14e4:	40020004 	andmi	r0, r2, r4
    14e8:	40020005 	andmi	r0, r2, r5
    14ec:	40020006 	andmi	r0, r2, r6
    14f0:	40020008 	andmi	r0, r2, r8
    14f4:	40020009 	andmi	r0, r2, r9
    14f8:	4002000a 	andmi	r0, r2, sl
    14fc:	4002000b 	andmi	r0, r2, fp
    1500:	00020000 	andeq	r0, r2, r0
    1504:	ffffffff 			; <UNDEFINED> instruction: 0xffffffff

00001508 <sammeltabelleleeren>:
    1508:	4846      	ldr	r0, [pc, #280]	; (1624 <hflashstoreemulation_gefunden+0x2a>)
    150a:	2160      	movs	r1, #96	; 0x60
    150c:	2200      	movs	r2, #0
    150e:	8002      	strh	r2, [r0, #0]
    1510:	3002      	adds	r0, #2
    1512:	3901      	subs	r1, #1
    1514:	d1fb      	bne.n	150e <sammeltabelleleeren+0x6>
    1516:	4770      	bx	lr

00001518 <sammeltabelleleerprobe>:
    1518:	4842      	ldr	r0, [pc, #264]	; (1624 <hflashstoreemulation_gefunden+0x2a>)
    151a:	2160      	movs	r1, #96	; 0x60
    151c:	8802      	ldrh	r2, [r0, #0]
    151e:	2a00      	cmp	r2, #0
    1520:	d012      	beq.n	1548 <sammeltabelleleerprobe+0x30>
    1522:	f000 fc01 	bl	1d28 <dotgaensefuesschen>
    1526:	706e551d 	rsbvc	r5, lr, sp, lsl r5
    152a:	65726961 	ldrbvs	r6, [r2, #-2401]!	; 0x961
    152e:	36312064 	ldrtcc	r2, [r1], -r4, rrx
    1532:	7469622d 	strbtvc	r6, [r9], #-557	; 0x22d
    1536:	616c4620 	cmnvs	ip, r0, lsr #12
    153a:	77206873 			; <UNDEFINED> instruction: 0x77206873
    153e:	65746972 	ldrbvs	r6, [r4, #-2418]!	; 0x972
    1542:	f0020a2e 			; <UNDEFINED> instruction: 0xf0020a2e
    1546:	fa50 3002 			; <UNDEFINED> instruction: 0xfa503002
    154a:	3901      	subs	r1, #1
    154c:	d1e6      	bne.n	151c <sammeltabelleleerprobe+0x4>
    154e:	4770      	bx	lr

00001550 <Dictionary_243>:
    1550:	00001628 	andeq	r1, r0, r8, lsr #12
    1554:	68070000 	stmdavs	r7, {}	; <UNPREDICTABLE>
    1558:	73616c66 	cmnvc	r1, #26112	; 0x6600
    155c:	b5302168 	ldrlt	r2, [r0, #-360]!	; 0x168

0000155e <Code_243>:
    155e:	b530      	push	{r4, r5, lr}
    1560:	0032      	movs	r2, r6
    1562:	cf40      	ldmia	r7!, {r6}
    1564:	0850      	lsrs	r0, r2, #1
    1566:	d313      	bcc.n	1590 <Code_243+0x32>
    1568:	f000 fbde 	bl	1d28 <dotgaensefuesschen>
    156c:	6c66681e 	stclvs	8, cr6, [r6], #-120	; 0xffffff88
    1570:	21687361 	cmncs	r8, r1, ror #6
    1574:	65656e20 	strbvs	r6, [r5, #-3616]!	; 0xe20
    1578:	65207364 	strvs	r7, [r0, #-868]!	; 0x364
    157c:	206e6576 	rsbcs	r6, lr, r6, ror r5
    1580:	72646461 	rsbvc	r6, r4, #1627389952	; 0x61000000
    1584:	65737365 	ldrbvs	r7, [r3, #-869]!	; 0x365
    1588:	000a2e73 	andeq	r2, sl, r3, ror lr
    158c:	f002 fa2c 	bl	39e8 <Code_950>
    1590:	2302      	movs	r3, #2
    1592:	4053      	eors	r3, r2
    1594:	4823      	ldr	r0, [pc, #140]	; (1624 <hflashstoreemulation_gefunden+0x2a>)
    1596:	2120      	movs	r1, #32
    1598:	8804      	ldrh	r4, [r0, #0]
    159a:	8845      	ldrh	r5, [r0, #2]
    159c:	042d      	lsls	r5, r5, #16
    159e:	432c      	orrs	r4, r5
    15a0:	429c      	cmp	r4, r3
    15a2:	d02a      	beq.n	15fa <hflashstoreemulation_gefunden>
    15a4:	3006      	adds	r0, #6
    15a6:	3901      	subs	r1, #1
    15a8:	d1f6      	bne.n	1598 <Code_243+0x3a>
    15aa:	481e      	ldr	r0, [pc, #120]	; (1624 <hflashstoreemulation_gefunden+0x2a>)
    15ac:	2120      	movs	r1, #32
    15ae:	8804      	ldrh	r4, [r0, #0]
    15b0:	8845      	ldrh	r5, [r0, #2]
    15b2:	042d      	lsls	r5, r5, #16
    15b4:	432c      	orrs	r4, r5
    15b6:	d01a      	beq.n	15ee <hflashstoreemulation_leerestelle>
    15b8:	3006      	adds	r0, #6
    15ba:	3901      	subs	r1, #1
    15bc:	d1f7      	bne.n	15ae <Code_243+0x50>
    15be:	f000 fbb3 	bl	1d28 <dotgaensefuesschen>
    15c2:	6f6f5427 	svcvs	0x006f5427
    15c6:	6e616d20 	cdpvs	13, 6, cr6, cr1, cr0, {1}
    15ca:	6e752079 	mrcvs	0, 3, r2, cr5, cr9, {3}
    15ce:	72696170 	rsbvc	r6, r9, #28
    15d2:	31206465 	teqcc	r0, r5, ror #8
    15d6:	69622d36 	stmdbvs	r2!, {r1, r2, r4, r5, r8, sl, fp, sp}^
    15da:	6c462074 	mcrrvs	0, 7, r2, r6, cr4
    15de:	20687361 	rsbcs	r7, r8, r1, ror #6
    15e2:	74697277 	strbtvc	r7, [r9], #-631	; 0x277
    15e6:	0a2e7365 	beq	b9e382 <BIT23+0x39e382>
    15ea:	f002 f9fd 	bl	39e8 <Code_950>

000015ee <hflashstoreemulation_leerestelle>:
    15ee:	8002      	strh	r2, [r0, #0]
    15f0:	0c12      	lsrs	r2, r2, #16
    15f2:	8042      	strh	r2, [r0, #2]
    15f4:	8086      	strh	r6, [r0, #4]
    15f6:	cf40      	ldmia	r7!, {r6}
    15f8:	bd30      	pop	{r4, r5, pc}

000015fa <hflashstoreemulation_gefunden>:
    15fa:	2102      	movs	r1, #2
    15fc:	4011      	ands	r1, r2
    15fe:	d003      	beq.n	1608 <hflashstoreemulation_gefunden+0xe>
    1600:	3a02      	subs	r2, #2
    1602:	8881      	ldrh	r1, [r0, #4]
    1604:	0436      	lsls	r6, r6, #16
    1606:	e001      	b.n	160c <hflashstoreemulation_gefunden+0x12>
    1608:	8881      	ldrh	r1, [r0, #4]
    160a:	0409      	lsls	r1, r1, #16
    160c:	430e      	orrs	r6, r1
    160e:	3f04      	subs	r7, #4
    1610:	603e      	str	r6, [r7, #0]
    1612:	0016      	movs	r6, r2
    1614:	2100      	movs	r1, #0
    1616:	8001      	strh	r1, [r0, #0]
    1618:	8041      	strh	r1, [r0, #2]
    161a:	8081      	strh	r1, [r0, #4]
    161c:	f7ff fe43 	bl	12a6 <Code_223>
    1620:	bd30      	pop	{r4, r5, pc}
    1622:	f3300000 	vhadd.u<illegal width 64>	d0, d0, d0
    1626:	163c1fff 	shsub8ne	r1, ip, pc	; <UNPREDICTABLE>

00001628 <Dictionary_250>:
    1628:	0000163c 	andeq	r1, r0, ip, lsr r6
    162c:	2b010069 	blcs	417d8 <BIT18+0x17d8>

00001630 <Code_250>:
    1630:	cf01      	ldmia	r7!, {r0}
    1632:	1836      	adds	r6, r6, r0
    1634:	4770      	bx	lr
    1636:	1836      	adds	r6, r6, r0
    1638:	3600      	adds	r6, #0
    163a:	46c0      	nop			; (mov r8, r8)

0000163c <Dictionary_251>:
    163c:	00001650 	andeq	r1, r0, r0, asr r6
    1640:	2d010069 	stccs	0, cr0, [r1, #-420]	; 0xfffffe5c

00001644 <Code_251>:
    1644:	cf01      	ldmia	r7!, {r0}
    1646:	1b86      	subs	r6, r0, r6
    1648:	4770      	bx	lr
    164a:	1a36      	subs	r6, r6, r0
    164c:	3e00      	subs	r6, #0
    164e:	46c0      	nop			; (mov r8, r8)

00001650 <Dictionary_252>:
    1650:	00001660 	andeq	r1, r0, r0, ror #12
    1654:	31020061 	tstcc	r2, r1, rrx
    1658:	3e01002d 	cdpcc	0, 0, cr0, cr1, cr13, {1}

0000165a <Code_252>:
    165a:	3e01      	subs	r6, #1
    165c:	4770      	bx	lr
    165e:	46c0      	nop			; (mov r8, r8)

00001660 <Dictionary_253>:
    1660:	00001670 	andeq	r1, r0, r0, ror r6
    1664:	31020061 	tstcc	r2, r1, rrx
    1668:	3601002b 	strcc	r0, [r1], -fp, lsr #32

0000166a <Code_253>:
    166a:	3601      	adds	r6, #1
    166c:	4770      	bx	lr
    166e:	46c0      	nop			; (mov r8, r8)

00001670 <Dictionary_254>:
    1670:	00001680 	andeq	r1, r0, r0, lsl #13
    1674:	32020061 	andcc	r0, r2, #97	; 0x61
    1678:	3e02002d 	cdpcc	0, 0, cr0, cr2, cr13, {1}

0000167a <Code_254>:
    167a:	3e02      	subs	r6, #2
    167c:	4770      	bx	lr
    167e:	46c0      	nop			; (mov r8, r8)

00001680 <Dictionary_255>:
    1680:	00001690 	muleq	r0, r0, r6
    1684:	32020061 	andcc	r0, r2, #97	; 0x61
    1688:	3602002b 	strcc	r0, [r2], -fp, lsr #32

0000168a <Code_255>:
    168a:	3602      	adds	r6, #2
    168c:	4770      	bx	lr
    168e:	46c0      	nop			; (mov r8, r8)

00001690 <Dictionary_256>:
    1690:	000016a4 	andeq	r1, r0, r4, lsr #13
    1694:	6e060061 	cdpvs	0, 0, cr0, cr6, cr1, {3}
    1698:	74616765 	strbtvc	r6, [r1], #-1893	; 0x765
    169c:	42760065 	rsbsmi	r0, r6, #101	; 0x65

0000169e <Code_256>:
    169e:	4276      	negs	r6, r6
    16a0:	4770      	bx	lr
    16a2:	46c0      	nop			; (mov r8, r8)

000016a4 <Dictionary_257>:
    16a4:	000016b8 			; <UNDEFINED> instruction: 0x000016b8
    16a8:	61030061 	tstvs	r3, r1, rrx
    16ac:	17f07362 	ldrbne	r7, [r0, r2, ror #6]!

000016ae <Code_257>:
    16ae:	17f0      	asrs	r0, r6, #31
    16b0:	1836      	adds	r6, r6, r0
    16b2:	4046      	eors	r6, r0
    16b4:	4770      	bx	lr
    16b6:	46c0      	nop			; (mov r8, r8)

000016b8 <Dictionary_258>:
    16b8:	00001700 	andeq	r1, r0, r0, lsl #14
    16bc:	75050042 	strvc	r0, [r5, #-66]	; 0x42
    16c0:	646f6d2f 	strbtvs	r6, [pc], #-3375	; 16c8 <Code_258+0x4>

000016c4 <Code_258>:
    16c4:	0031      	movs	r1, r6
    16c6:	cf40      	ldmia	r7!, {r6}
    16c8:	2900      	cmp	r1, #0
    16ca:	d103      	bne.n	16d4 <Code_258+0x10>
    16cc:	3f04      	subs	r7, #4
    16ce:	603e      	str	r6, [r7, #0]
    16d0:	2600      	movs	r6, #0
    16d2:	4770      	bx	lr
    16d4:	2201      	movs	r2, #1
    16d6:	2300      	movs	r3, #0
    16d8:	428e      	cmp	r6, r1
    16da:	d906      	bls.n	16ea <Code_258+0x26>
    16dc:	3100      	adds	r1, #0
    16de:	d404      	bmi.n	16ea <Code_258+0x26>
    16e0:	0052      	lsls	r2, r2, #1
    16e2:	0049      	lsls	r1, r1, #1
    16e4:	d401      	bmi.n	16ea <Code_258+0x26>
    16e6:	428e      	cmp	r6, r1
    16e8:	d8fa      	bhi.n	16e0 <Code_258+0x1c>
    16ea:	428e      	cmp	r6, r1
    16ec:	d301      	bcc.n	16f2 <Code_258+0x2e>
    16ee:	1a76      	subs	r6, r6, r1
    16f0:	4313      	orrs	r3, r2
    16f2:	0849      	lsrs	r1, r1, #1
    16f4:	0852      	lsrs	r2, r2, #1
    16f6:	d1f8      	bne.n	16ea <Code_258+0x26>
    16f8:	3f04      	subs	r7, #4
    16fa:	603e      	str	r6, [r7, #0]
    16fc:	001e      	movs	r6, r3
    16fe:	4770      	bx	lr

00001700 <Dictionary_264>:
    1700:	00001770 	andeq	r1, r0, r0, ror r7
    1704:	2f040042 	svccs	0x00040042
    1708:	00646f6d 	rsbeq	r6, r4, sp, ror #30

0000170c <Code_264>:
    170c:	b500      	push	{lr}
    170e:	0030      	movs	r0, r6
    1710:	cf40      	ldmia	r7!, {r6}
    1712:	2e00      	cmp	r6, #0
    1714:	da1c      	bge.n	1750 <divmod_plus>
    1716:	4276      	negs	r6, r6

00001718 <divmod_minus>:
    1718:	2800      	cmp	r0, #0
    171a:	da0c      	bge.n	1736 <divmod_minus_plus>

0000171c <divmod_minus_minus>:
    171c:	4240      	negs	r0, r0
    171e:	3f04      	subs	r7, #4
    1720:	603e      	str	r6, [r7, #0]
    1722:	0006      	movs	r6, r0
    1724:	f7ff ffce 	bl	16c4 <Code_258>
    1728:	0030      	movs	r0, r6
    172a:	cf40      	ldmia	r7!, {r6}
    172c:	4276      	negs	r6, r6
    172e:	3f04      	subs	r7, #4
    1730:	603e      	str	r6, [r7, #0]
    1732:	0006      	movs	r6, r0
    1734:	bd00      	pop	{pc}

00001736 <divmod_minus_plus>:
    1736:	3f04      	subs	r7, #4
    1738:	603e      	str	r6, [r7, #0]
    173a:	0006      	movs	r6, r0
    173c:	f7ff ffc2 	bl	16c4 <Code_258>
    1740:	0030      	movs	r0, r6
    1742:	cf40      	ldmia	r7!, {r6}
    1744:	4240      	negs	r0, r0
    1746:	4276      	negs	r6, r6
    1748:	3f04      	subs	r7, #4
    174a:	603e      	str	r6, [r7, #0]
    174c:	0006      	movs	r6, r0
    174e:	bd00      	pop	{pc}

00001750 <divmod_plus>:
    1750:	2800      	cmp	r0, #0
    1752:	da07      	bge.n	1764 <divmod_plus_plus>

00001754 <divmod_plus_minus>:
    1754:	4240      	negs	r0, r0
    1756:	3f04      	subs	r7, #4
    1758:	603e      	str	r6, [r7, #0]
    175a:	0006      	movs	r6, r0
    175c:	f7ff ffb2 	bl	16c4 <Code_258>
    1760:	4276      	negs	r6, r6
    1762:	bd00      	pop	{pc}

00001764 <divmod_plus_plus>:
    1764:	3f04      	subs	r7, #4
    1766:	603e      	str	r6, [r7, #0]
    1768:	0006      	movs	r6, r0
    176a:	f7ff ffab 	bl	16c4 <Code_258>
    176e:	bd00      	pop	{pc}

00001770 <Dictionary_280>:
    1770:	00001784 	andeq	r1, r0, r4, lsl #15
    1774:	6d030042 	stcvs	0, cr0, [r3, #-264]	; 0xfffffef8
    1778:	b500646f 	strlt	r6, [r0, #-1135]	; 0x46f

0000177a <Code_280>:
    177a:	b500      	push	{lr}
    177c:	f7ff ffc6 	bl	170c <Code_264>
    1780:	cf40      	ldmia	r7!, {r6}
    1782:	bd00      	pop	{pc}

00001784 <Dictionary_282>:
    1784:	00001798 	muleq	r0, r8, r7
    1788:	2f010042 	svccs	0x00010042

0000178c <Code_282>:
    178c:	b500      	push	{lr}
    178e:	f7ff ffbd 	bl	170c <Code_264>
    1792:	3704      	adds	r7, #4
    1794:	bd00      	pop	{pc}
    1796:	46c0      	nop			; (mov r8, r8)

00001798 <Dictionary_283>:
    1798:	000017a8 	andeq	r1, r0, r8, lsr #15
    179c:	2a01006a 	bcs	4194c <BIT18+0x194c>

000017a0 <Code_283>:
    17a0:	cf01      	ldmia	r7!, {r0}
    17a2:	4346      	muls	r6, r0
    17a4:	4770      	bx	lr
    17a6:	4346      	muls	r6, r0

000017a8 <Dictionary_284>:
    17a8:	000017b8 			; <UNDEFINED> instruction: 0x000017b8
    17ac:	32020061 	andcc	r0, r2, #97	; 0x61
    17b0:	0076002a 	rsbseq	r0, r6, sl, lsr #32

000017b2 <Code_284>:
    17b2:	0076      	lsls	r6, r6, #1
    17b4:	4770      	bx	lr
    17b6:	46c0      	nop			; (mov r8, r8)

000017b8 <Dictionary_285>:
    17b8:	000017c8 	andeq	r1, r0, r8, asr #15
    17bc:	32020061 	andcc	r0, r2, #97	; 0x61
    17c0:	1076002f 	rsbsne	r0, r6, pc, lsr #32

000017c2 <Code_285>:
    17c2:	1076      	asrs	r6, r6, #1
    17c4:	4770      	bx	lr
    17c6:	46c0      	nop			; (mov r8, r8)

000017c8 <Dictionary_286>:
    17c8:	000017dc 	ldrdeq	r1, [r0], -ip
    17cc:	65040061 	strvs	r0, [r4, #-97]	; 0x61
    17d0:	006e6576 	rsbeq	r6, lr, r6, ror r5

000017d4 <Code_286>:
    17d4:	2001      	movs	r0, #1
    17d6:	4030      	ands	r0, r6
    17d8:	1836      	adds	r6, r6, r0
    17da:	4770      	bx	lr

000017dc <Dictionary_287>:
    17dc:	000017f4 	strdeq	r1, [r0], -r4
    17e0:	62040081 	andvs	r0, r4, #129	; 0x81
    17e4:	00657361 	rsbeq	r7, r5, r1, ror #6

000017e8 <Code_287>:
    17e8:	3f04      	subs	r7, #4
    17ea:	603e      	str	r6, [r7, #0]
    17ec:	4e93      	ldr	r6, [pc, #588]	; (1a3c <Code_322+0x22>)
    17ee:	4770      	bx	lr
    17f0:	0000000a 	andeq	r0, r0, sl

000017f4 <Dictionary_290>:
    17f4:	0000180c 	andeq	r1, r0, ip, lsl #16
    17f8:	62060000 	andvs	r0, r6, #0
    17fc:	72616e69 	rsbvc	r6, r1, #1680	; 0x690
    1800:	488e0079 	stmmi	lr, {r0, r3, r4, r5, r6}

00001802 <Code_290>:
    1802:	488e      	ldr	r0, [pc, #568]	; (1a3c <Code_322+0x22>)
    1804:	2102      	movs	r1, #2
    1806:	6001      	str	r1, [r0, #0]
    1808:	4770      	bx	lr
    180a:	46c0      	nop			; (mov r8, r8)

0000180c <Dictionary_291>:
    180c:	00001824 	andeq	r1, r0, r4, lsr #16
    1810:	64070000 	strvs	r0, [r7]
    1814:	6d696365 	stclvs	3, cr6, [r9, #-404]!	; 0xfffffe6c
    1818:	48886c61 	stmmi	r8, {r0, r5, r6, sl, fp, sp, lr}

0000181a <Code_291>:
    181a:	4888      	ldr	r0, [pc, #544]	; (1a3c <Code_322+0x22>)
    181c:	210a      	movs	r1, #10
    181e:	6001      	str	r1, [r0, #0]
    1820:	4770      	bx	lr
    1822:	46c0      	nop			; (mov r8, r8)

00001824 <Dictionary_292>:
    1824:	00001880 	andeq	r1, r0, r0, lsl #17
    1828:	68030000 	stmdavs	r3, {}	; <UNPREDICTABLE>
    182c:	48837865 	stmmi	r3, {r0, r2, r5, r6, fp, ip, sp, lr}

0000182e <Code_292>:
    182e:	4883      	ldr	r0, [pc, #524]	; (1a3c <Code_322+0x22>)
    1830:	2110      	movs	r1, #16
    1832:	6001      	str	r1, [r0, #0]
    1834:	4770      	bx	lr

00001836 <uart_init>:
    1836:	4982      	ldr	r1, [pc, #520]	; (1a40 <Code_322+0x26>)
    1838:	4882      	ldr	r0, [pc, #520]	; (1a44 <Code_322+0x2a>)
    183a:	6001      	str	r1, [r0, #0]
    183c:	4982      	ldr	r1, [pc, #520]	; (1a48 <Code_322+0x2e>)
    183e:	4883      	ldr	r0, [pc, #524]	; (1a4c <Code_322+0x32>)
    1840:	6001      	str	r1, [r0, #0]
    1842:	4983      	ldr	r1, [pc, #524]	; (1a50 <Code_322+0x36>)
    1844:	4883      	ldr	r0, [pc, #524]	; (1a54 <Code_322+0x3a>)
    1846:	6001      	str	r1, [r0, #0]
    1848:	4983      	ldr	r1, [pc, #524]	; (1a58 <Code_322+0x3e>)
    184a:	4884      	ldr	r0, [pc, #528]	; (1a5c <Code_322+0x42>)
    184c:	6001      	str	r1, [r0, #0]
    184e:	4884      	ldr	r0, [pc, #528]	; (1a60 <Code_322+0x46>)
    1850:	6001      	str	r1, [r0, #0]
    1852:	2100      	movs	r1, #0
    1854:	4883      	ldr	r0, [pc, #524]	; (1a64 <Code_322+0x4a>)
    1856:	7001      	strb	r1, [r0, #0]
    1858:	4883      	ldr	r0, [pc, #524]	; (1a68 <Code_322+0x4e>)
    185a:	7001      	strb	r1, [r0, #0]
    185c:	4883      	ldr	r0, [pc, #524]	; (1a6c <Code_322+0x52>)
    185e:	7001      	strb	r1, [r0, #0]
    1860:	4883      	ldr	r0, [pc, #524]	; (1a70 <Code_322+0x56>)
    1862:	7001      	strb	r1, [r0, #0]
    1864:	2106      	movs	r1, #6
    1866:	4883      	ldr	r0, [pc, #524]	; (1a74 <Code_322+0x5a>)
    1868:	7001      	strb	r1, [r0, #0]
    186a:	2100      	movs	r1, #0
    186c:	4882      	ldr	r0, [pc, #520]	; (1a78 <Code_322+0x5e>)
    186e:	7001      	strb	r1, [r0, #0]
    1870:	211a      	movs	r1, #26
    1872:	4882      	ldr	r0, [pc, #520]	; (1a7c <Code_322+0x62>)
    1874:	7001      	strb	r1, [r0, #0]
    1876:	210c      	movs	r1, #12
    1878:	487a      	ldr	r0, [pc, #488]	; (1a64 <Code_322+0x4a>)
    187a:	7001      	strb	r1, [r0, #0]
    187c:	4770      	bx	lr
    187e:	46c0      	nop			; (mov r8, r8)

00001880 <Dictionary_293>:
    1880:	0000189c 	muleq	r0, ip, r8
    1884:	68090081 	stmdavs	r9, {r0, r7}
    1888:	2d6b6f6f 	stclcs	15, cr6, [fp, #-444]!	; 0xfffffe44
    188c:	74696d65 	strbtvc	r6, [r9], #-3429	; 0xd65

00001890 <Code_293>:
    1890:	3f04      	subs	r7, #4
    1892:	603e      	str	r6, [r7, #0]
    1894:	4e7a      	ldr	r6, [pc, #488]	; (1a80 <Code_322+0x66>)
    1896:	4770      	bx	lr
    1898:	00001992 	muleq	r0, r2, r9

0000189c <Dictionary_296>:
    189c:	000018b8 			; <UNDEFINED> instruction: 0x000018b8
    18a0:	68080081 	stmdavs	r8, {r0, r7}
    18a4:	2d6b6f6f 	stclcs	15, cr6, [fp, #-444]!	; 0xfffffe44
    18a8:	0079656b 	rsbseq	r6, r9, fp, ror #10

000018ac <Code_296>:
    18ac:	3f04      	subs	r7, #4
    18ae:	603e      	str	r6, [r7, #0]
    18b0:	4e74      	ldr	r6, [pc, #464]	; (1a84 <Code_322+0x6a>)
    18b2:	4770      	bx	lr
    18b4:	000019ba 			; <UNDEFINED> instruction: 0x000019ba

000018b8 <Dictionary_299>:
    18b8:	000018d8 	ldrdeq	r1, [r0], -r8
    18bc:	680a0081 	stmdavs	sl, {r0, r7}
    18c0:	2d6b6f6f 	stclcs	15, cr6, [fp, #-444]!	; 0xfffffe44
    18c4:	74696d65 	strbtvc	r6, [r9], #-3429	; 0xd65
    18c8:	3f04003f 	svccc	0x0004003f

000018ca <Code_299>:
    18ca:	3f04      	subs	r7, #4
    18cc:	603e      	str	r6, [r7, #0]
    18ce:	4e6e      	ldr	r6, [pc, #440]	; (1a88 <Code_322+0x6e>)
    18d0:	4770      	bx	lr
    18d2:	000019e8 	andeq	r1, r0, r8, ror #19
    18d6:	18f446c0 	ldmne	r4!, {r6, r7, r9, sl, lr}^

000018d8 <Dictionary_302>:
    18d8:	000018f4 	strdeq	r1, [r0], -r4
    18dc:	68090081 	stmdavs	r9, {r0, r7}
    18e0:	2d6b6f6f 	stclcs	15, cr6, [fp, #-444]!	; 0xfffffe44
    18e4:	3f79656b 	svccc	0x0079656b

000018e8 <Code_302>:
    18e8:	3f04      	subs	r7, #4
    18ea:	603e      	str	r6, [r7, #0]
    18ec:	4e67      	ldr	r6, [pc, #412]	; (1a8c <Code_322+0x72>)
    18ee:	4770      	bx	lr
    18f0:	00001a1a 	andeq	r1, r0, sl, lsl sl

000018f4 <Dictionary_305>:
    18f4:	00001914 	andeq	r1, r0, r4, lsl r9
    18f8:	680a0081 	stmdavs	sl, {r0, r7}
    18fc:	2d6b6f6f 	stclcs	15, cr6, [fp, #-444]!	; 0xfffffe44
    1900:	73756170 	cmnvc	r5, #28
    1904:	3f040065 	svccc	0x00040065

00001906 <Code_305>:
    1906:	3f04      	subs	r7, #4
    1908:	603e      	str	r6, [r7, #0]
    190a:	4e61      	ldr	r6, [pc, #388]	; (1a90 <Code_322+0x76>)
    190c:	4770      	bx	lr
    190e:	00003ab6 			; <UNDEFINED> instruction: 0x00003ab6
    1912:	192c46c0 	stmdbne	ip!, {r6, r7, r9, sl, lr}

00001914 <Dictionary_308>:
    1914:	0000192c 	andeq	r1, r0, ip, lsr #18
    1918:	65040000 	strvs	r0, [r4]
    191c:	0074696d 	rsbseq	r6, r4, sp, ror #18

00001920 <Code_308>:
    1920:	b50f      	push	{r0, r1, r2, r3, lr}
    1922:	4857      	ldr	r0, [pc, #348]	; (1a80 <Code_322+0x66>)
    1924:	f000 f829 	bl	197a <hook_intern>
    1928:	bd0f      	pop	{r0, r1, r2, r3, pc}
    192a:	46c0      	nop			; (mov r8, r8)

0000192c <Dictionary_309>:
    192c:	00001940 	andeq	r1, r0, r0, asr #18
    1930:	6b030000 	blvs	c1938 <BIT19+0x41938>
    1934:	b50f7965 	strlt	r7, [pc, #-2405]	; fd7 <Dictionary_193+0x7>

00001936 <Code_309>:
    1936:	b50f      	push	{r0, r1, r2, r3, lr}
    1938:	4852      	ldr	r0, [pc, #328]	; (1a84 <Code_322+0x6a>)
    193a:	f000 f81e 	bl	197a <hook_intern>
    193e:	bd0f      	pop	{r0, r1, r2, r3, pc}

00001940 <Dictionary_310>:
    1940:	00001954 	andeq	r1, r0, r4, asr r9
    1944:	65050000 	strvs	r0, [r5]
    1948:	3f74696d 	svccc	0x0074696d

0000194c <Code_310>:
    194c:	484e      	ldr	r0, [pc, #312]	; (1a88 <Code_322+0x6e>)
    194e:	6800      	ldr	r0, [r0, #0]
    1950:	4687      	mov	pc, r0
    1952:	46c0      	nop			; (mov r8, r8)

00001954 <Dictionary_311>:
    1954:	00001968 	andeq	r1, r0, r8, ror #18
    1958:	6b040000 	blvs	101960 <BIT20+0x1960>
    195c:	003f7965 	eorseq	r7, pc, r5, ror #18

00001960 <Code_311>:
    1960:	484a      	ldr	r0, [pc, #296]	; (1a8c <Code_322+0x72>)
    1962:	6800      	ldr	r0, [r0, #0]
    1964:	4687      	mov	pc, r0
    1966:	46c0      	nop			; (mov r8, r8)

00001968 <Dictionary_312>:
    1968:	00001980 	andeq	r1, r0, r0, lsl #19
    196c:	70050000 	andvc	r0, r5, r0
    1970:	65737561 	ldrbvs	r7, [r3, #-1377]!	; 0x561

00001974 <Code_312>:
    1974:	4846      	ldr	r0, [pc, #280]	; (1a90 <Code_322+0x76>)
    1976:	6800      	ldr	r0, [r0, #0]
    1978:	4687      	mov	pc, r0

0000197a <hook_intern>:
    197a:	6800      	ldr	r0, [r0, #0]
    197c:	4687      	mov	pc, r0
    197e:	46c0      	nop			; (mov r8, r8)

00001980 <Dictionary_313>:
    1980:	000019a8 	andeq	r1, r0, r8, lsr #19
    1984:	730b0000 	movwvc	r0, #45056	; 0xb000
    1988:	61697265 	cmnvs	r9, r5, ror #4
    198c:	6d652d6c 	stclvs	13, cr2, [r5, #-432]!	; 0xfffffe50
    1990:	b5007469 	strlt	r7, [r0, #-1129]	; 0x469

00001992 <Code_313>:
    1992:	b500      	push	{lr}
    1994:	f000 f828 	bl	19e8 <Code_319>
    1998:	2e00      	cmp	r6, #0
    199a:	cf40      	ldmia	r7!, {r6}
    199c:	d0fa      	beq.n	1994 <Code_313+0x2>
    199e:	483d      	ldr	r0, [pc, #244]	; (1a94 <Code_322+0x7a>)
    19a0:	7006      	strb	r6, [r0, #0]
    19a2:	cf40      	ldmia	r7!, {r6}
    19a4:	bd00      	pop	{pc}
    19a6:	46c0      	nop			; (mov r8, r8)

000019a8 <Dictionary_316>:
    19a8:	000019d4 	ldrdeq	r1, [r0], -r4
    19ac:	730a0000 	movwvc	r0, #40960	; 0xa000
    19b0:	61697265 	cmnvs	r9, r5, ror #4
    19b4:	656b2d6c 	strbvs	r2, [fp, #-3436]!	; 0xd6c
    19b8:	b5000079 	strlt	r0, [r0, #-121]	; 0x79

000019ba <Code_316>:
    19ba:	b500      	push	{lr}
    19bc:	f000 f82d 	bl	1a1a <Code_322>
    19c0:	2e00      	cmp	r6, #0
    19c2:	cf40      	ldmia	r7!, {r6}
    19c4:	d0fa      	beq.n	19bc <Code_316+0x2>
    19c6:	4833      	ldr	r0, [pc, #204]	; (1a94 <Code_322+0x7a>)
    19c8:	3f04      	subs	r7, #4
    19ca:	603e      	str	r6, [r7, #0]
    19cc:	7806      	ldrb	r6, [r0, #0]
    19ce:	b2f6      	uxtb	r6, r6
    19d0:	bd00      	pop	{pc}
    19d2:	46c0      	nop			; (mov r8, r8)

000019d4 <Dictionary_319>:
    19d4:	00001a08 	andeq	r1, r0, r8, lsl #20
    19d8:	730c0000 	movwvc	r0, #49152	; 0xc000
    19dc:	61697265 	cmnvs	r9, r5, ror #4
    19e0:	6d652d6c 	stclvs	13, cr2, [r5, #-432]!	; 0xfffffe50
    19e4:	003f7469 	eorseq	r7, pc, r9, ror #8

000019e8 <Code_319>:
    19e8:	b500      	push	{lr}
    19ea:	f7ff ffc3 	bl	1974 <Code_312>
    19ee:	482a      	ldr	r0, [pc, #168]	; (1a98 <Code_322+0x7e>)
    19f0:	2108      	movs	r1, #8
    19f2:	7001      	strb	r1, [r0, #0]
    19f4:	3f04      	subs	r7, #4
    19f6:	603e      	str	r6, [r7, #0]
    19f8:	2600      	movs	r6, #0
    19fa:	4827      	ldr	r0, [pc, #156]	; (1a98 <Code_322+0x7e>)
    19fc:	2280      	movs	r2, #128	; 0x80
    19fe:	7801      	ldrb	r1, [r0, #0]
    1a00:	4011      	ands	r1, r2
    1a02:	d000      	beq.n	1a06 <Code_319+0x1e>
    1a04:	43f6      	mvns	r6, r6
    1a06:	bd00      	pop	{pc}

00001a08 <Dictionary_322>:
    1a08:	00001a9c 	muleq	r0, ip, sl
    1a0c:	730b0000 	movwvc	r0, #45056	; 0xb000
    1a10:	61697265 	cmnvs	r9, r5, ror #4
    1a14:	656b2d6c 	strbvs	r2, [fp, #-3436]!	; 0xd6c
    1a18:	b5003f79 	strlt	r3, [r0, #-3961]	; 0xf79

00001a1a <Code_322>:
    1a1a:	b500      	push	{lr}
    1a1c:	f7ff ffaa 	bl	1974 <Code_312>
    1a20:	481d      	ldr	r0, [pc, #116]	; (1a98 <Code_322+0x7e>)
    1a22:	2108      	movs	r1, #8
    1a24:	7001      	strb	r1, [r0, #0]
    1a26:	3f04      	subs	r7, #4
    1a28:	603e      	str	r6, [r7, #0]
    1a2a:	2600      	movs	r6, #0
    1a2c:	481a      	ldr	r0, [pc, #104]	; (1a98 <Code_322+0x7e>)
    1a2e:	2220      	movs	r2, #32
    1a30:	7801      	ldrb	r1, [r0, #0]
    1a32:	4011      	ands	r1, r2
    1a34:	d000      	beq.n	1a38 <Code_322+0x1e>
    1a36:	43f6      	mvns	r6, r6
    1a38:	bd00      	pop	{pc}
    1a3a:	2ffc0000 	svccs	0x00fc0000
    1a3e:	3f802000 	svccc	0x00802000
    1a42:	80380000 	eorshi	r0, r8, r0
    1a46:	04304004 	ldrteq	r4, [r0], #-4
    1a4a:	8034f000 	eorshi	pc, r4, r0
    1a4e:	00004004 	andeq	r4, r0, r4
    1a52:	80040400 	andhi	r0, r4, r0, lsl #8
    1a56:	02004004 	andeq	r4, r0, #4
    1a5a:	90040000 	andls	r0, r4, r0
    1a5e:	90084004 	andls	r4, r8, r4
    1a62:	a0034004 	andge	r4, r3, r4
    1a66:	a0024006 	andge	r4, r2, r6
    1a6a:	a0064006 	andge	r4, r6, r6
    1a6e:	a0054006 	andge	r4, r5, r6
    1a72:	a00a4006 	andge	r4, sl, r6
    1a76:	a0004006 	andge	r4, r0, r6
    1a7a:	a0014006 	andge	r4, r1, r6
    1a7e:	2ff84006 	svccs	0x00f84006
    1a82:	2ff42000 	svccs	0x00f42000
    1a86:	2ff02000 	svccs	0x00f02000
    1a8a:	2fec2000 	svccs	0x00ec2000
    1a8e:	2fe82000 	svccs	0x00e82000
    1a92:	a0072000 	andge	r2, r7, r0
    1a96:	a0044006 	andge	r4, r4, r6
    1a9a:	1ac04006 	bne	ff011aba <BIT31+0x7f011aba>

00001a9c <Dictionary_325>:
    1a9c:	00001ac0 	andeq	r1, r0, r0, asr #21
    1aa0:	63070000 	movwvs	r0, #28672	; 0x7000
    1aa4:	65707865 	ldrbvs	r7, [r0, #-2149]!	; 0x865
    1aa8:	b5007463 	strlt	r7, [r0, #-1123]	; 0x463

00001aaa <Code_325>:
    1aaa:	b500      	push	{lr}
    1aac:	6838      	ldr	r0, [r7, #0]
    1aae:	b401      	push	{r0}
    1ab0:	3001      	adds	r0, #1
    1ab2:	6038      	str	r0, [r7, #0]
    1ab4:	f000 f80b 	bl	1ace <Code_327>
    1ab8:	bc01      	pop	{r0}
    1aba:	7006      	strb	r6, [r0, #0]
    1abc:	cf40      	ldmia	r7!, {r6}
    1abe:	bd00      	pop	{pc}

00001ac0 <Dictionary_327>:
    1ac0:	00001b38 	andeq	r1, r0, r8, lsr fp
    1ac4:	61060000 	mrsvs	r0, (UNDEF: 6)
    1ac8:	70656363 	rsbvc	r6, r5, r3, ror #6
    1acc:	b5000074 	strlt	r0, [r0, #-116]	; 0x74

00001ace <Code_327>:
    1ace:	b500      	push	{lr}
    1ad0:	cf02      	ldmia	r7!, {r1}
    1ad2:	3901      	subs	r1, #1
    1ad4:	2200      	movs	r2, #0
    1ad6:	f7ff ff2e 	bl	1936 <Code_309>
    1ada:	0030      	movs	r0, r6
    1adc:	cf40      	ldmia	r7!, {r6}
    1ade:	287f      	cmp	r0, #127	; 0x7f
    1ae0:	d009      	beq.n	1af6 <Code_327+0x28>
    1ae2:	2820      	cmp	r0, #32
    1ae4:	d219      	bcs.n	1b1a <Code_327+0x4c>
    1ae6:	2809      	cmp	r0, #9
    1ae8:	d016      	beq.n	1b18 <Code_327+0x4a>
    1aea:	280a      	cmp	r0, #10
    1aec:	d01f      	beq.n	1b2e <Code_327+0x60>
    1aee:	280d      	cmp	r0, #13
    1af0:	d01d      	beq.n	1b2e <Code_327+0x60>
    1af2:	2808      	cmp	r0, #8
    1af4:	d1ef      	bne.n	1ad6 <Code_327+0x8>
    1af6:	2a00      	cmp	r2, #0
    1af8:	d0ed      	beq.n	1ad6 <Code_327+0x8>
    1afa:	f000 f915 	bl	1d28 <dotgaensefuesschen>
    1afe:	08200803 	stmdaeq	r0!, {r0, r1, fp}
    1b02:	2a00      	cmp	r2, #0
    1b04:	d0e7      	beq.n	1ad6 <Code_327+0x8>
    1b06:	5c88      	ldrb	r0, [r1, r2]
    1b08:	3a01      	subs	r2, #1
    1b0a:	2380      	movs	r3, #128	; 0x80
    1b0c:	4003      	ands	r3, r0
    1b0e:	d0e2      	beq.n	1ad6 <Code_327+0x8>
    1b10:	2340      	movs	r3, #64	; 0x40
    1b12:	4003      	ands	r3, r0
    1b14:	d0f5      	beq.n	1b02 <Code_327+0x34>
    1b16:	e7de      	b.n	1ad6 <Code_327+0x8>
    1b18:	2020      	movs	r0, #32
    1b1a:	42b2      	cmp	r2, r6
    1b1c:	d2db      	bcs.n	1ad6 <Code_327+0x8>
    1b1e:	3f04      	subs	r7, #4
    1b20:	603e      	str	r6, [r7, #0]
    1b22:	0006      	movs	r6, r0
    1b24:	f7ff fefc 	bl	1920 <Code_308>
    1b28:	3201      	adds	r2, #1
    1b2a:	5488      	strb	r0, [r1, r2]
    1b2c:	e7d3      	b.n	1ad6 <Code_327+0x8>
    1b2e:	0016      	movs	r6, r2
    1b30:	f000 f8a8 	bl	1c84 <Code_358>
    1b34:	bd00      	pop	{pc}
    1b36:	46c0      	nop			; (mov r8, r8)

00001b38 <Dictionary_331>:
    1b38:	00001b4c 	andeq	r1, r0, ip, asr #22
    1b3c:	74030040 	strvc	r0, [r3], #-64	; 0x40
    1b40:	3f046269 	svccc	0x00046269

00001b42 <Code_331>:
    1b42:	3f04      	subs	r7, #4
    1b44:	603e      	str	r6, [r7, #0]
    1b46:	4e2b      	ldr	r6, [pc, #172]	; (1bf4 <Code_343+0x20>)
    1b48:	4770      	bx	lr
    1b4a:	46c0      	nop			; (mov r8, r8)

00001b4c <Dictionary_333>:
    1b4c:	00001b64 	andeq	r1, r0, r4, ror #22
    1b50:	3e030081 	cdpcc	0, 0, cr0, cr3, cr1, {4}
    1b54:	3f046e69 	svccc	0x00046e69

00001b56 <Code_333>:
    1b56:	3f04      	subs	r7, #4
    1b58:	603e      	str	r6, [r7, #0]
    1b5a:	4e27      	ldr	r6, [pc, #156]	; (1bf8 <Code_343+0x24>)
    1b5c:	4770      	bx	lr
    1b5e:	00000000 	andeq	r0, r0, r0
    1b62:	1b8c46c0 	blne	fe31366a <BIT31+0x7e31366a>

00001b64 <Dictionary_336>:
    1b64:	00001b8c 	andeq	r1, r0, ip, lsl #23
    1b68:	630e0082 	movwvs	r0, #57474	; 0xe082
    1b6c:	65727275 	ldrbvs	r7, [r2, #-629]!	; 0x275
    1b70:	732d746e 	teqvc	sp, #1845493760	; 0x6e000000
    1b74:	6372756f 	cmnvs	r2, #465567744	; 0x1bc00000
    1b78:	3f040065 	svccc	0x00040065

00001b7a <Code_336>:
    1b7a:	3f04      	subs	r7, #4
    1b7c:	603e      	str	r6, [r7, #0]
    1b7e:	4e1f      	ldr	r6, [pc, #124]	; (1bfc <Code_343+0x28>)
    1b80:	4770      	bx	lr
    1b82:	00000000 	andeq	r0, r0, r0
    1b86:	1ffff068 	svcne	0x00fff068
    1b8a:	1ba846c0 	blne	fea13692 <BIT31+0x7ea13692>

00001b8c <Dictionary_339>:
    1b8c:	00001ba8 	andeq	r1, r0, r8, lsr #23
    1b90:	73090000 	movwvc	r0, #36864	; 0x9000
    1b94:	6f737465 	svcvs	0x00737465
    1b98:	65637275 	strbvs	r7, [r3, #-629]!	; 0x275

00001b9c <Code_339>:
    1b9c:	4817      	ldr	r0, [pc, #92]	; (1bfc <Code_343+0x28>)
    1b9e:	cf02      	ldmia	r7!, {r1}
    1ba0:	6006      	str	r6, [r0, #0]
    1ba2:	6041      	str	r1, [r0, #4]
    1ba4:	cf40      	ldmia	r7!, {r6}
    1ba6:	4770      	bx	lr

00001ba8 <Dictionary_341>:
    1ba8:	00001bc8 	andeq	r1, r0, r8, asr #23
    1bac:	73060000 	movwvc	r0, #24576	; 0x6000
    1bb0:	6372756f 	cmnvs	r2, #465567744	; 0x1bc00000
    1bb4:	3f040065 	svccc	0x00040065

00001bb6 <Code_341>:
    1bb6:	3f04      	subs	r7, #4
    1bb8:	603e      	str	r6, [r7, #0]
    1bba:	4e10      	ldr	r6, [pc, #64]	; (1bfc <Code_343+0x28>)
    1bbc:	3f04      	subs	r7, #4
    1bbe:	6870      	ldr	r0, [r6, #4]
    1bc0:	6038      	str	r0, [r7, #0]
    1bc2:	6836      	ldr	r6, [r6, #0]
    1bc4:	4770      	bx	lr
    1bc6:	46c0      	nop			; (mov r8, r8)

00001bc8 <Dictionary_343>:
    1bc8:	00001c00 	andeq	r1, r0, r0, lsl #24
    1bcc:	71050000 	mrsvc	r0, (UNDEF: 5)
    1bd0:	79726575 	ldmdbvc	r2!, {r0, r2, r4, r5, r6, r8, sl, sp, lr}^

00001bd4 <Code_343>:
    1bd4:	b50f      	push	{r0, r1, r2, r3, lr}
    1bd6:	4808      	ldr	r0, [pc, #32]	; (1bf8 <Code_343+0x24>)
    1bd8:	2100      	movs	r1, #0
    1bda:	6001      	str	r1, [r0, #0]
    1bdc:	f7ff ffb1 	bl	1b42 <Code_331>
    1be0:	3f04      	subs	r7, #4
    1be2:	603e      	str	r6, [r7, #0]
    1be4:	3f04      	subs	r7, #4
    1be6:	603e      	str	r6, [r7, #0]
    1be8:	26c8      	movs	r6, #200	; 0xc8
    1bea:	f7ff ff70 	bl	1ace <Code_327>
    1bee:	f7ff ffd5 	bl	1b9c <Code_339>
    1bf2:	bd0f      	pop	{r0, r1, r2, r3, pc}
    1bf4:	1ffff068 	svcne	0x00fff068
    1bf8:	20002fe4 	andcs	r2, r0, r4, ror #31
    1bfc:	20002fdc 	ldrdcs	r2, [r0], -ip

00001c00 <Dictionary_348>:
    1c00:	00001c50 	andeq	r1, r0, r0, asr ip
    1c04:	63070000 	movwvs	r0, #28672	; 0x7000
    1c08:	61706d6f 	cmnvs	r0, pc, ror #26
    1c0c:	b50f6572 	strlt	r6, [pc, #-1394]	; 16a2 <Code_256+0x4>

00001c0e <Code_348>:
    1c0e:	b50f      	push	{r0, r1, r2, r3, lr}
    1c10:	0031      	movs	r1, r6
    1c12:	cf40      	ldmia	r7!, {r6}
    1c14:	cf01      	ldmia	r7!, {r0}
    1c16:	4288      	cmp	r0, r1
    1c18:	d002      	beq.n	1c20 <Code_348+0x12>
    1c1a:	cf40      	ldmia	r7!, {r6}
    1c1c:	2600      	movs	r6, #0
    1c1e:	bd0f      	pop	{r0, r1, r2, r3, pc}
    1c20:	cf02      	ldmia	r7!, {r1}
    1c22:	2800      	cmp	r0, #0
    1c24:	d010      	beq.n	1c48 <Code_348+0x3a>
    1c26:	3801      	subs	r0, #1
    1c28:	5c0a      	ldrb	r2, [r1, r0]
    1c2a:	5c33      	ldrb	r3, [r6, r0]
    1c2c:	2a41      	cmp	r2, #65	; 0x41
    1c2e:	d302      	bcc.n	1c36 <Code_348+0x28>
    1c30:	2a5b      	cmp	r2, #91	; 0x5b
    1c32:	d200      	bcs.n	1c36 <Code_348+0x28>
    1c34:	3220      	adds	r2, #32
    1c36:	2b41      	cmp	r3, #65	; 0x41
    1c38:	d302      	bcc.n	1c40 <Code_348+0x32>
    1c3a:	2b5b      	cmp	r3, #91	; 0x5b
    1c3c:	d200      	bcs.n	1c40 <Code_348+0x32>
    1c3e:	3320      	adds	r3, #32
    1c40:	429a      	cmp	r2, r3
    1c42:	d0ee      	beq.n	1c22 <Code_348+0x14>
    1c44:	2600      	movs	r6, #0
    1c46:	bd0f      	pop	{r0, r1, r2, r3, pc}
    1c48:	2600      	movs	r6, #0
    1c4a:	43f6      	mvns	r6, r6
    1c4c:	bd0f      	pop	{r0, r1, r2, r3, pc}
    1c4e:	46c0      	nop			; (mov r8, r8)

00001c50 <Dictionary_353>:
    1c50:	00001c64 	andeq	r1, r0, r4, ror #24
    1c54:	63020000 	movwvs	r0, #8192	; 0x2000
    1c58:	b5000072 	strlt	r0, [r0, #-114]	; 0x72

00001c5a <Code_353>:
    1c5a:	b500      	push	{lr}
    1c5c:	f000 f864 	bl	1d28 <dotgaensefuesschen>
    1c60:	bd000a01 	vstrlt	s0, [r0, #-4]

00001c64 <Dictionary_355>:
    1c64:	00001c78 	andeq	r1, r0, r8, ror ip
    1c68:	62020000 	andvs	r0, r2, #0
    1c6c:	3f04006c 	svccc	0x0004006c

00001c6e <Code_355>:
    1c6e:	3f04      	subs	r7, #4
    1c70:	603e      	str	r6, [r7, #0]
    1c72:	2620      	movs	r6, #32
    1c74:	4770      	bx	lr
    1c76:	46c0      	nop			; (mov r8, r8)

00001c78 <Dictionary_358>:
    1c78:	00001c8c 	andeq	r1, r0, ip, lsl #25
    1c7c:	73050000 	movwvc	r0, #20480	; 0x5000
    1c80:	65636170 	strbvs	r6, [r3, #-368]!	; 0x170

00001c84 <Code_358>:
    1c84:	3f04      	subs	r7, #4
    1c86:	603e      	str	r6, [r7, #0]
    1c88:	2620      	movs	r6, #32
    1c8a:	e649      	b.n	1920 <Code_308>

00001c8c <Dictionary_361>:
    1c8c:	00001cac 	andeq	r1, r0, ip, lsr #25
    1c90:	73060000 	movwvc	r0, #24576	; 0x6000
    1c94:	65636170 	strbvs	r6, [r3, #-368]!	; 0x170
    1c98:	b5000073 	strlt	r0, [r0, #-115]	; 0x73

00001c9a <Code_361>:
    1c9a:	b500      	push	{lr}
    1c9c:	2e00      	cmp	r6, #0
    1c9e:	dd03      	ble.n	1ca8 <Code_361+0xe>
    1ca0:	f7ff fff0 	bl	1c84 <Code_358>
    1ca4:	3e01      	subs	r6, #1
    1ca6:	d1fb      	bne.n	1ca0 <Code_361+0x6>
    1ca8:	cf40      	ldmia	r7!, {r6}
    1caa:	bd00      	pop	{pc}

00001cac <Dictionary_363>:
    1cac:	00001cbc 			; <UNDEFINED> instruction: 0x00001cbc
    1cb0:	5b060050 	blpl	181df8 <BIT20+0x81df8>
    1cb4:	72616863 	rsbvc	r6, r1, #6488064	; 0x630000
    1cb8:	e005005d 	and	r0, r5, sp, asr r0

00001cba <Code_363>:
    1cba:	e005      	b.n	1cc8 <Code_364>

00001cbc <Dictionary_364>:
    1cbc:	00001cd4 	ldrdeq	r1, [r0], -r4
    1cc0:	63040000 	movwvs	r0, #16384	; 0x4000
    1cc4:	00726168 	rsbseq	r6, r2, r8, ror #2

00001cc8 <Code_364>:
    1cc8:	b500      	push	{lr}
    1cca:	f001 fb1b 	bl	3304 <Code_827>
    1cce:	cf40      	ldmia	r7!, {r6}
    1cd0:	7836      	ldrb	r6, [r6, #0]
    1cd2:	bd00      	pop	{pc}

00001cd4 <Dictionary_366>:
    1cd4:	00001ce4 	andeq	r1, r0, r4, ror #25
    1cd8:	28010050 	stmdacs	r1, {r4, r6}

00001cdc <Code_366>:
    1cdc:	3f04      	subs	r7, #4
    1cde:	603e      	str	r6, [r7, #0]
    1ce0:	2629      	movs	r6, #41	; 0x29
    1ce2:	e006      	b.n	1cf2 <Code_369+0x6>

00001ce4 <Dictionary_369>:
    1ce4:	00001d00 	andeq	r1, r0, r0, lsl #26
    1ce8:	5c010050 	stcpl	0, cr0, [r1], {80}	; 0x50

00001cec <Code_369>:
    1cec:	3f04      	subs	r7, #4
    1cee:	603e      	str	r6, [r7, #0]
    1cf0:	2600      	movs	r6, #0
    1cf2:	b500      	push	{lr}
    1cf4:	f001 fb10 	bl	3318 <Code_829>
    1cf8:	3704      	adds	r7, #4
    1cfa:	cf40      	ldmia	r7!, {r6}
    1cfc:	bd00      	pop	{pc}
    1cfe:	46c0      	nop			; (mov r8, r8)

00001d00 <Dictionary_374>:
    1d00:	00001d48 	andeq	r1, r0, r8, asr #26
    1d04:	2e020010 	mcrcs	0, 0, r0, cr2, cr0, {0}
    1d08:	489f0022 	ldmmi	pc, {r1, r5}	; <UNPREDICTABLE>

00001d0a <Code_374>:
    1d0a:	489f      	ldr	r0, [pc, #636]	; (1f88 <Code_413+0x94>)
    1d0c:	b500      	push	{lr}
    1d0e:	3f04      	subs	r7, #4
    1d10:	603e      	str	r6, [r7, #0]
    1d12:	0006      	movs	r6, r0
    1d14:	f000 f9f8 	bl	2108 <Code_460>
    1d18:	3f04      	subs	r7, #4
    1d1a:	603e      	str	r6, [r7, #0]
    1d1c:	2622      	movs	r6, #34	; 0x22
    1d1e:	f001 fafb 	bl	3318 <Code_829>
    1d22:	f000 fd20 	bl	2766 <Code_586>
    1d26:	bd00      	pop	{pc}

00001d28 <dotgaensefuesschen>:
    1d28:	b40a      	push	{r1, r3}
    1d2a:	3f04      	subs	r7, #4
    1d2c:	603e      	str	r6, [r7, #0]
    1d2e:	4676      	mov	r6, lr
    1d30:	3e01      	subs	r6, #1
    1d32:	7833      	ldrb	r3, [r6, #0]
    1d34:	2101      	movs	r1, #1
    1d36:	3301      	adds	r3, #1
    1d38:	4019      	ands	r1, r3
    1d3a:	185b      	adds	r3, r3, r1
    1d3c:	4671      	mov	r1, lr
    1d3e:	18c9      	adds	r1, r1, r3
    1d40:	468e      	mov	lr, r1
    1d42:	bc0a      	pop	{r1, r3}
    1d44:	e03c      	b.n	1dc0 <Code_389>
    1d46:	46c0      	nop			; (mov r8, r8)

00001d48 <Dictionary_380>:
    1d48:	00001d70 	andeq	r1, r0, r0, ror sp
    1d4c:	63020010 	movwvs	r0, #8208	; 0x2010
    1d50:	488e0022 	stmmi	lr, {r1, r5}

00001d52 <Code_380>:
    1d52:	488e      	ldr	r0, [pc, #568]	; (1f8c <Code_413+0x98>)
    1d54:	e7da      	b.n	1d0c <Code_374+0x2>

00001d56 <dotcfuesschen>:
    1d56:	3f04      	subs	r7, #4
    1d58:	603e      	str	r6, [r7, #0]
    1d5a:	4676      	mov	r6, lr
    1d5c:	3e01      	subs	r6, #1
    1d5e:	7833      	ldrb	r3, [r6, #0]
    1d60:	2101      	movs	r1, #1
    1d62:	3301      	adds	r3, #1
    1d64:	4019      	ands	r1, r3
    1d66:	185b      	adds	r3, r3, r1
    1d68:	4671      	mov	r1, lr
    1d6a:	18c9      	adds	r1, r1, r3
    1d6c:	468e      	mov	lr, r1
    1d6e:	4770      	bx	lr

00001d70 <Dictionary_382>:
    1d70:	00001d9c 	muleq	r0, ip, sp
    1d74:	73020010 	movwvc	r0, #8208	; 0x2010
    1d78:	48850022 	stmmi	r5, {r1, r5}

00001d7a <Code_382>:
    1d7a:	4885      	ldr	r0, [pc, #532]	; (1f90 <Code_413+0x9c>)
    1d7c:	e7c6      	b.n	1d0c <Code_374+0x2>

00001d7e <dotsfuesschen>:
    1d7e:	3f04      	subs	r7, #4
    1d80:	603e      	str	r6, [r7, #0]
    1d82:	4676      	mov	r6, lr
    1d84:	3f04      	subs	r7, #4
    1d86:	603e      	str	r6, [r7, #0]
    1d88:	3e01      	subs	r6, #1
    1d8a:	7836      	ldrb	r6, [r6, #0]
    1d8c:	2101      	movs	r1, #1
    1d8e:	1c73      	adds	r3, r6, #1
    1d90:	4019      	ands	r1, r3
    1d92:	185b      	adds	r3, r3, r1
    1d94:	4671      	mov	r1, lr
    1d96:	18c9      	adds	r1, r1, r3
    1d98:	468e      	mov	lr, r1
    1d9a:	4770      	bx	lr

00001d9c <Dictionary_386>:
    1d9c:	00001db4 			; <UNDEFINED> instruction: 0x00001db4
    1da0:	63050000 	movwvs	r0, #20480	; 0x5000
    1da4:	746e756f 	strbtvc	r7, [lr], #-1391	; 0x56f

00001da8 <Code_386>:
    1da8:	3601      	adds	r6, #1
    1daa:	3f04      	subs	r7, #4
    1dac:	603e      	str	r6, [r7, #0]
    1dae:	3e01      	subs	r6, #1
    1db0:	7836      	ldrb	r6, [r6, #0]
    1db2:	4770      	bx	lr

00001db4 <Dictionary_389>:
    1db4:	00001ddc 	ldrdeq	r1, [r0], -ip
    1db8:	63050000 	movwvs	r0, #20480	; 0x5000
    1dbc:	65707974 	ldrbvs	r7, [r0, #-2420]!	; 0x974

00001dc0 <Code_389>:
    1dc0:	b501      	push	{r0, lr}
    1dc2:	7830      	ldrb	r0, [r6, #0]
    1dc4:	2800      	cmp	r0, #0
    1dc6:	d007      	beq.n	1dd8 <Code_389+0x18>
    1dc8:	3601      	adds	r6, #1
    1dca:	3f04      	subs	r7, #4
    1dcc:	603e      	str	r6, [r7, #0]
    1dce:	7836      	ldrb	r6, [r6, #0]
    1dd0:	f7ff fda6 	bl	1920 <Code_308>
    1dd4:	3801      	subs	r0, #1
    1dd6:	d1f7      	bne.n	1dc8 <Code_389+0x8>
    1dd8:	cf40      	ldmia	r7!, {r6}
    1dda:	bd01      	pop	{r0, pc}

00001ddc <Dictionary_393>:
    1ddc:	00001e0c 	andeq	r1, r0, ip, lsl #28
    1de0:	74040000 	strvc	r0, [r4]
    1de4:	00657079 	rsbeq	r7, r5, r9, ror r0

00001de8 <Code_393>:
    1de8:	0031      	movs	r1, r6
    1dea:	cf40      	ldmia	r7!, {r6}
    1dec:	0030      	movs	r0, r6
    1dee:	cf40      	ldmia	r7!, {r6}

00001df0 <stype_addr_r0_len_r1>:
    1df0:	b500      	push	{lr}
    1df2:	2900      	cmp	r1, #0
    1df4:	d008      	beq.n	1e08 <stype_addr_r0_len_r1+0x18>
    1df6:	2200      	movs	r2, #0
    1df8:	3f04      	subs	r7, #4
    1dfa:	603e      	str	r6, [r7, #0]
    1dfc:	5c86      	ldrb	r6, [r0, r2]
    1dfe:	f7ff fd8f 	bl	1920 <Code_308>
    1e02:	3201      	adds	r2, #1
    1e04:	4291      	cmp	r1, r2
    1e06:	d1f7      	bne.n	1df8 <stype_addr_r0_len_r1+0x8>
    1e08:	bd00      	pop	{pc}
    1e0a:	46c0      	nop			; (mov r8, r8)

00001e0c <Dictionary_397>:
    1e0c:	00001e48 	andeq	r1, r0, r8, asr #28
    1e10:	68040000 	stmdavs	r4, {}	; <UNPREDICTABLE>
    1e14:	002e7865 	eoreq	r7, lr, r5, ror #16

00001e18 <Code_397>:
    1e18:	b507      	push	{r0, r1, r2, lr}
    1e1a:	0031      	movs	r1, r6
    1e1c:	cf40      	ldmia	r7!, {r6}
    1e1e:	2020      	movs	r0, #32
    1e20:	220f      	movs	r2, #15
    1e22:	3804      	subs	r0, #4
    1e24:	3f04      	subs	r7, #4
    1e26:	603e      	str	r6, [r7, #0]
    1e28:	000e      	movs	r6, r1
    1e2a:	40c6      	lsrs	r6, r0
    1e2c:	4016      	ands	r6, r2
    1e2e:	2e09      	cmp	r6, #9
    1e30:	d901      	bls.n	1e36 <Code_397+0x1e>
    1e32:	3637      	adds	r6, #55	; 0x37
    1e34:	e000      	b.n	1e38 <Code_397+0x20>
    1e36:	3630      	adds	r6, #48	; 0x30
    1e38:	f7ff fd72 	bl	1920 <Code_308>
    1e3c:	2800      	cmp	r0, #0
    1e3e:	d1f0      	bne.n	1e22 <Code_397+0xa>
    1e40:	f7ff ff20 	bl	1c84 <Code_358>
    1e44:	bd07      	pop	{r0, r1, r2, pc}
    1e46:	46c0      	nop			; (mov r8, r8)

00001e48 <Dictionary_400>:
    1e48:	00001e58 	andeq	r1, r0, r8, asr lr
    1e4c:	68030000 	stmdavs	r3, {}	; <UNPREDICTABLE>
    1e50:	b51f732e 	ldrlt	r7, [pc, #-814]	; 1b2a <Code_327+0x5c>

00001e52 <Code_400>:
    1e52:	b51f      	push	{r0, r1, r2, r3, r4, lr}
    1e54:	4c4f      	ldr	r4, [pc, #316]	; (1f94 <Code_413+0xa0>)
    1e56:	e00e      	b.n	1e76 <Code_402+0x4>

00001e58 <Dictionary_401>:
    1e58:	00001e68 	andeq	r1, r0, r8, ror #28
    1e5c:	75030000 	strvc	r0, [r3]
    1e60:	b51f732e 	ldrlt	r7, [pc, #-814]	; 1b3a <Dictionary_331+0x2>

00001e62 <Code_401>:
    1e62:	b51f      	push	{r0, r1, r2, r3, r4, lr}
    1e64:	4c4c      	ldr	r4, [pc, #304]	; (1f98 <Code_413+0xa4>)
    1e66:	e006      	b.n	1e76 <Code_402+0x4>

00001e68 <Dictionary_402>:
    1e68:	00001ee8 	andeq	r1, r0, r8, ror #29
    1e6c:	2e020000 	cdpcs	0, 0, cr0, cr2, cr0, {0}
    1e70:	b51f0073 	ldrlt	r0, [pc, #-115]	; 1e05 <stype_addr_r0_len_r1+0x15>

00001e72 <Code_402>:
    1e72:	b51f      	push	{r0, r1, r2, r3, r4, lr}
    1e74:	4c49      	ldr	r4, [pc, #292]	; (1f9c <Code_413+0xa8>)
    1e76:	494a      	ldr	r1, [pc, #296]	; (1fa0 <Code_413+0xac>)
    1e78:	1bc9      	subs	r1, r1, r7
    1e7a:	0889      	lsrs	r1, r1, #2
    1e7c:	4a49      	ldr	r2, [pc, #292]	; (1fa4 <Code_413+0xb0>)
    1e7e:	6810      	ldr	r0, [r2, #0]
    1e80:	b403      	push	{r0, r1}
    1e82:	200a      	movs	r0, #10
    1e84:	6010      	str	r0, [r2, #0]
    1e86:	f7ff ff4f 	bl	1d28 <dotgaensefuesschen>
    1e8a:	61745308 	cmnvs	r4, r8, lsl #6
    1e8e:	203a6b63 	eorscs	r6, sl, r3, ror #22
    1e92:	3f04005b 	svccc	0x0004005b
    1e96:	603e      	str	r6, [r7, #0]
    1e98:	000e      	movs	r6, r1
    1e9a:	f001 fc29 	bl	36f0 <Code_895>
    1e9e:	f7ff ff43 	bl	1d28 <dotgaensefuesschen>
    1ea2:	00205d02 	eoreq	r5, r0, r2, lsl #26
    1ea6:	bc03      	pop	{r0, r1}
    1ea8:	4a3e      	ldr	r2, [pc, #248]	; (1fa4 <Code_413+0xb0>)
    1eaa:	6010      	str	r0, [r2, #0]
    1eac:	2900      	cmp	r1, #0
    1eae:	d00a      	beq.n	1ec6 <Code_402+0x54>
    1eb0:	4a3d      	ldr	r2, [pc, #244]	; (1fa8 <Code_413+0xb4>)
    1eb2:	6810      	ldr	r0, [r2, #0]
    1eb4:	b406      	push	{r1, r2}
    1eb6:	3f04      	subs	r7, #4
    1eb8:	603e      	str	r6, [r7, #0]
    1eba:	0006      	movs	r6, r0
    1ebc:	47a0      	blx	r4
    1ebe:	bc06      	pop	{r1, r2}
    1ec0:	3a04      	subs	r2, #4
    1ec2:	3901      	subs	r1, #1
    1ec4:	d1f5      	bne.n	1eb2 <Code_402+0x40>
    1ec6:	f7ff ff2f 	bl	1d28 <dotgaensefuesschen>
    1eca:	4f542006 	svcmi	0x00542006
    1ece:	00203a53 	eoreq	r3, r0, r3, asr sl
    1ed2:	3f04      	subs	r7, #4
    1ed4:	603e      	str	r6, [r7, #0]
    1ed6:	0036      	movs	r6, r6
    1ed8:	47a0      	blx	r4
    1eda:	f7ff ff25 	bl	1d28 <dotgaensefuesschen>
    1ede:	3e2a2004 	cdpcc	0, 2, cr2, cr10, cr4, {0}
    1ee2:	bd1f000a 	ldclt	0, cr0, [pc, #-40]	; 1ec0 <Code_402+0x4e>
    1ee6:	46c0      	nop			; (mov r8, r8)

00001ee8 <Dictionary_413>:
    1ee8:	00001fac 	andeq	r1, r0, ip, lsr #31
    1eec:	77050000 	strvc	r0, [r5, -r0]
    1ef0:	7364726f 	cmnvc	r4, #-268435450	; 0xf0000006

00001ef4 <Code_413>:
    1ef4:	b500      	push	{lr}
    1ef6:	f7ff ff17 	bl	1d28 <dotgaensefuesschen>
    1efa:	f0000a01 			; <UNDEFINED> instruction: 0xf0000a01
    1efe:	fe71 f7ff 	mrc2	7, 3, pc, cr1, cr15, {7}
    1f02:	ff12 4109 	vrhadd.u16	d4, d2, d9
    1f06:	65726464 	ldrbvs	r6, [r2, #-1124]!	; 0x464
    1f0a:	203a7373 	eorscs	r7, sl, r3, ror r3
    1f0e:	3f04      	subs	r7, #4
    1f10:	603e      	str	r6, [r7, #0]
    1f12:	f7ff ff81 	bl	1e18 <Code_397>
    1f16:	f7ff ff07 	bl	1d28 <dotgaensefuesschen>
    1f1a:	6e694c06 	cdpvs	12, 6, cr4, cr9, cr6, {0}
    1f1e:	00203a6b 	eoreq	r3, r0, fp, ror #20
    1f22:	3f04      	subs	r7, #4
    1f24:	603e      	str	r6, [r7, #0]
    1f26:	6836      	ldr	r6, [r6, #0]
    1f28:	f7ff ff76 	bl	1e18 <Code_397>
    1f2c:	f7ff fefc 	bl	1d28 <dotgaensefuesschen>
    1f30:	616c4607 	cmnvs	ip, r7, lsl #12
    1f34:	203a7367 	eorscs	r7, sl, r7, ror #6
    1f38:	3f04      	subs	r7, #4
    1f3a:	603e      	str	r6, [r7, #0]
    1f3c:	88b6      	ldrh	r6, [r6, #4]
    1f3e:	f7ff ff6b 	bl	1e18 <Code_397>
    1f42:	f7ff fef1 	bl	1d28 <dotgaensefuesschen>
    1f46:	646f4306 	strbtvs	r4, [pc], #-774	; 1f4e <Code_413+0x5a>
    1f4a:	00203a65 	eoreq	r3, r0, r5, ror #20
    1f4e:	1db0      	adds	r0, r6, #6
    1f50:	f000 fe82 	bl	2c58 <skipstring>
    1f54:	3f04      	subs	r7, #4
    1f56:	603e      	str	r6, [r7, #0]
    1f58:	0006      	movs	r6, r0
    1f5a:	f7ff ff5d 	bl	1e18 <Code_397>
    1f5e:	f7ff fee3 	bl	1d28 <dotgaensefuesschen>
    1f62:	6d614e06 	stclvs	14, cr4, [r1, #-24]!	; 0xffffffe8
    1f66:	00203a65 	eoreq	r3, r0, r5, ror #20
    1f6a:	3f04      	subs	r7, #4
    1f6c:	603e      	str	r6, [r7, #0]
    1f6e:	3606      	adds	r6, #6
    1f70:	f7ff ff26 	bl	1dc0 <Code_389>
    1f74:	f7ff fed8 	bl	1d28 <dotgaensefuesschen>
    1f78:	f0000a01 			; <UNDEFINED> instruction: 0xf0000a01
    1f7c:	fe4a 0030 	mcr2	0, 2, r0, cr10, cr0, {1}
    1f80:	cf40      	ldmia	r7!, {r6}
    1f82:	d0bd      	beq.n	1f00 <Code_413+0xc>
    1f84:	cf40      	ldmia	r7!, {r6}
    1f86:	bd00      	pop	{pc}
    1f88:	00001d28 	andeq	r1, r0, r8, lsr #26
    1f8c:	00001d56 	andeq	r1, r0, r6, asr sp
    1f90:	00001d7e 	andeq	r1, r0, lr, ror sp
    1f94:	00001e19 	andeq	r1, r0, r9, lsl lr
    1f98:	000036df 	ldrdeq	r3, [r0], -pc	; <UNPREDICTABLE>
    1f9c:	000036f1 	strdeq	r3, [r0], -r1
    1fa0:	1ffff230 	svcne	0x00fff230
    1fa4:	20002ffc 	strdcs	r2, [r0], -ip
    1fa8:	1ffff22c 	svcne	0x00fff22c

00001fac <Dictionary_433>:
    1fac:	000020fc 	strdeq	r2, [r0], -ip
    1fb0:	72100000 	andsvc	r0, r0, #0
    1fb4:	73696765 	cmnvc	r9, #26476544	; 0x1940000
    1fb8:	6c726574 	cfldr64vs	mvdx6, [r2], #-464	; 0xfffffe30
    1fbc:	72657469 	rsbvc	r7, r5, #1761607680	; 0x69000000
    1fc0:	002c6c61 	eoreq	r6, ip, r1, ror #24

00001fc4 <Code_433>:
    1fc4:	b53f      	push	{r0, r1, r2, r3, r4, r5, lr}
    1fc6:	4ba6      	ldr	r3, [pc, #664]	; (2260 <Code_485+0x32>)
    1fc8:	6838      	ldr	r0, [r7, #0]
    1fca:	4018      	ands	r0, r3
    1fcc:	4298      	cmp	r0, r3
    1fce:	d10f      	bne.n	1ff0 <Code_433+0x2c>
    1fd0:	6838      	ldr	r0, [r7, #0]
    1fd2:	43c0      	mvns	r0, r0
    1fd4:	6038      	str	r0, [r7, #0]
    1fd6:	b440      	push	{r6}
    1fd8:	f000 f80d 	bl	1ff6 <registerliteralkomma_intern>
    1fdc:	3f04      	subs	r7, #4
    1fde:	603e      	str	r6, [r7, #0]
    1fe0:	4ea0      	ldr	r6, [pc, #640]	; (2264 <Code_485+0x36>)
    1fe2:	bc01      	pop	{r0}
    1fe4:	4306      	orrs	r6, r0
    1fe6:	00c0      	lsls	r0, r0, #3
    1fe8:	4306      	orrs	r6, r0
    1fea:	f000 fb82 	bl	26f2 <Code_574>
    1fee:	bd3f      	pop	{r0, r1, r2, r3, r4, r5, pc}
    1ff0:	f000 f801 	bl	1ff6 <registerliteralkomma_intern>
    1ff4:	bd3f      	pop	{r0, r1, r2, r3, r4, r5, pc}

00001ff6 <registerliteralkomma_intern>:
    1ff6:	b500      	push	{lr}
    1ff8:	0035      	movs	r5, r6
    1ffa:	cf40      	ldmia	r7!, {r6}
    1ffc:	0029      	movs	r1, r5
    1ffe:	00c9      	lsls	r1, r1, #3
    2000:	4329      	orrs	r1, r5
    2002:	022d      	lsls	r5, r5, #8
    2004:	4898      	ldr	r0, [pc, #608]	; (2268 <Code_485+0x3a>)
    2006:	4305      	orrs	r5, r0
    2008:	23ff      	movs	r3, #255	; 0xff
    200a:	2200      	movs	r2, #0
    200c:	0030      	movs	r0, r6
    200e:	40d0      	lsrs	r0, r2
    2010:	4398      	bics	r0, r3
    2012:	d001      	beq.n	2018 <BIT13+0x18>
    2014:	3201      	adds	r2, #1
    2016:	e7f9      	b.n	200c <BIT13+0xc>
    2018:	0030      	movs	r0, r6
    201a:	40d0      	lsrs	r0, r2
    201c:	4018      	ands	r0, r3
    201e:	4328      	orrs	r0, r5
    2020:	3f04      	subs	r7, #4
    2022:	603e      	str	r6, [r7, #0]
    2024:	0006      	movs	r6, r0
    2026:	f000 fb64 	bl	26f2 <Code_574>
    202a:	4890      	ldr	r0, [pc, #576]	; (226c <Code_485+0x3e>)
    202c:	4305      	orrs	r5, r0
    202e:	0018      	movs	r0, r3
    2030:	4090      	lsls	r0, r2
    2032:	4386      	bics	r6, r0
    2034:	d010      	beq.n	2058 <BIT13+0x58>
    2036:	2400      	movs	r4, #0
    2038:	0030      	movs	r0, r6
    203a:	40e0      	lsrs	r0, r4
    203c:	4398      	bics	r0, r3
    203e:	d001      	beq.n	2044 <BIT13+0x44>
    2040:	3401      	adds	r4, #1
    2042:	e7f9      	b.n	2038 <BIT13+0x38>
    2044:	1b10      	subs	r0, r2, r4
    2046:	3f04      	subs	r7, #4
    2048:	603e      	str	r6, [r7, #0]
    204a:	000e      	movs	r6, r1
    204c:	0180      	lsls	r0, r0, #6
    204e:	4306      	orrs	r6, r0
    2050:	f000 fb4f 	bl	26f2 <Code_574>
    2054:	0022      	movs	r2, r4
    2056:	e7df      	b.n	2018 <BIT13+0x18>
    2058:	2a00      	cmp	r2, #0
    205a:	d006      	beq.n	206a <BIT13+0x6a>
    205c:	3f04      	subs	r7, #4
    205e:	603e      	str	r6, [r7, #0]
    2060:	000e      	movs	r6, r1
    2062:	0192      	lsls	r2, r2, #6
    2064:	4316      	orrs	r6, r2
    2066:	f000 fb44 	bl	26f2 <Code_574>
    206a:	cf40      	ldmia	r7!, {r6}
    206c:	bd00      	pop	{pc}

0000206e <registerliteralkommalang>:
    206e:	b51f      	push	{r0, r1, r2, r3, r4, lr}
    2070:	0031      	movs	r1, r6
    2072:	cf40      	ldmia	r7!, {r6}
    2074:	4c7e      	ldr	r4, [pc, #504]	; (2270 <Code_485+0x42>)
    2076:	430c      	orrs	r4, r1
    2078:	00c9      	lsls	r1, r1, #3
    207a:	430c      	orrs	r4, r1
    207c:	0149      	lsls	r1, r1, #5
    207e:	0030      	movs	r0, r6
    2080:	cf40      	ldmia	r7!, {r6}
    2082:	0e02      	lsrs	r2, r0, #24
    2084:	23ff      	movs	r3, #255	; 0xff
    2086:	401a      	ands	r2, r3
    2088:	4b77      	ldr	r3, [pc, #476]	; (2268 <Code_485+0x3a>)
    208a:	430b      	orrs	r3, r1
    208c:	4313      	orrs	r3, r2
    208e:	3f04      	subs	r7, #4
    2090:	603e      	str	r6, [r7, #0]
    2092:	001e      	movs	r6, r3
    2094:	f000 fb2d 	bl	26f2 <Code_574>
    2098:	3f04      	subs	r7, #4
    209a:	603e      	str	r6, [r7, #0]
    209c:	0026      	movs	r6, r4
    209e:	f000 fb28 	bl	26f2 <Code_574>
    20a2:	0c02      	lsrs	r2, r0, #16
    20a4:	23ff      	movs	r3, #255	; 0xff
    20a6:	401a      	ands	r2, r3
    20a8:	4b72      	ldr	r3, [pc, #456]	; (2274 <Code_485+0x46>)
    20aa:	430b      	orrs	r3, r1
    20ac:	4313      	orrs	r3, r2
    20ae:	3f04      	subs	r7, #4
    20b0:	603e      	str	r6, [r7, #0]
    20b2:	001e      	movs	r6, r3
    20b4:	f000 fb1d 	bl	26f2 <Code_574>
    20b8:	3f04      	subs	r7, #4
    20ba:	603e      	str	r6, [r7, #0]
    20bc:	0026      	movs	r6, r4
    20be:	f000 fb18 	bl	26f2 <Code_574>
    20c2:	0a02      	lsrs	r2, r0, #8
    20c4:	23ff      	movs	r3, #255	; 0xff
    20c6:	401a      	ands	r2, r3
    20c8:	4b6a      	ldr	r3, [pc, #424]	; (2274 <Code_485+0x46>)
    20ca:	430b      	orrs	r3, r1
    20cc:	4313      	orrs	r3, r2
    20ce:	3f04      	subs	r7, #4
    20d0:	603e      	str	r6, [r7, #0]
    20d2:	001e      	movs	r6, r3
    20d4:	f000 fb0d 	bl	26f2 <Code_574>
    20d8:	3f04      	subs	r7, #4
    20da:	603e      	str	r6, [r7, #0]
    20dc:	0026      	movs	r6, r4
    20de:	f000 fb08 	bl	26f2 <Code_574>
    20e2:	0002      	movs	r2, r0
    20e4:	23ff      	movs	r3, #255	; 0xff
    20e6:	401a      	ands	r2, r3
    20e8:	4b62      	ldr	r3, [pc, #392]	; (2274 <Code_485+0x46>)
    20ea:	430b      	orrs	r3, r1
    20ec:	4313      	orrs	r3, r2
    20ee:	3f04      	subs	r7, #4
    20f0:	603e      	str	r6, [r7, #0]
    20f2:	001e      	movs	r6, r3
    20f4:	f000 fafd 	bl	26f2 <Code_574>
    20f8:	bd1f      	pop	{r0, r1, r2, r3, r4, pc}
    20fa:	46c0      	nop			; (mov r8, r8)

000020fc <Dictionary_460>:
    20fc:	0000216c 	andeq	r2, r0, ip, ror #2
    2100:	63050000 	movwvs	r0, #20480	; 0x5000
    2104:	2c6c6c61 	stclcs	12, cr6, [ip], #-388	; 0xfffffe7c

00002108 <Code_460>:
    2108:	b50f      	push	{r0, r1, r2, r3, lr}
    210a:	0033      	movs	r3, r6
    210c:	f000 fe3e 	bl	2d8c <Code_690>
    2110:	0030      	movs	r0, r6
    2112:	cf40      	ldmia	r7!, {r6}
    2114:	1a1b      	subs	r3, r3, r0
    2116:	3b04      	subs	r3, #4
    2118:	4957      	ldr	r1, [pc, #348]	; (2278 <Code_485+0x4a>)
    211a:	4019      	ands	r1, r3
    211c:	2900      	cmp	r1, #0
    211e:	d00e      	beq.n	213e <Code_460+0x36>
    2120:	4a56      	ldr	r2, [pc, #344]	; (227c <Code_485+0x4e>)
    2122:	4291      	cmp	r1, r2
    2124:	d00b      	beq.n	213e <Code_460+0x36>
    2126:	3601      	adds	r6, #1
    2128:	3f04      	subs	r7, #4
    212a:	603e      	str	r6, [r7, #0]
    212c:	2600      	movs	r6, #0
    212e:	f7ff ff49 	bl	1fc4 <Code_433>
    2132:	3f04      	subs	r7, #4
    2134:	603e      	str	r6, [r7, #0]
    2136:	4e52      	ldr	r6, [pc, #328]	; (2280 <Code_485+0x52>)
    2138:	f000 fadb 	bl	26f2 <Code_574>
    213c:	bd0f      	pop	{r0, r1, r2, r3, pc}
    213e:	cf40      	ldmia	r7!, {r6}
    2140:	085b      	lsrs	r3, r3, #1
    2142:	4850      	ldr	r0, [pc, #320]	; (2284 <Code_485+0x56>)
    2144:	4950      	ldr	r1, [pc, #320]	; (2288 <Code_485+0x5a>)
    2146:	4019      	ands	r1, r3
    2148:	4308      	orrs	r0, r1
    214a:	0adb      	lsrs	r3, r3, #11
    214c:	494f      	ldr	r1, [pc, #316]	; (228c <Code_485+0x5e>)
    214e:	4019      	ands	r1, r3
    2150:	0409      	lsls	r1, r1, #16
    2152:	4308      	orrs	r0, r1
    2154:	0a9b      	lsrs	r3, r3, #10
    2156:	2101      	movs	r1, #1
    2158:	4019      	ands	r1, r3
    215a:	0689      	lsls	r1, r1, #26
    215c:	4308      	orrs	r0, r1
    215e:	3f04      	subs	r7, #4
    2160:	603e      	str	r6, [r7, #0]
    2162:	0006      	movs	r6, r0
    2164:	f000 faef 	bl	2746 <Code_583>
    2168:	bd0f      	pop	{r0, r1, r2, r3, pc}
    216a:	46c0      	nop			; (mov r8, r8)

0000216c <Dictionary_469>:
    216c:	000021a0 	andeq	r2, r0, r0, lsr #3
    2170:	6c080000 	stcvs	0, cr0, [r8], {0}
    2174:	72657469 	rsbvc	r7, r5, #1761607680	; 0x69000000
    2178:	002c6c61 	eoreq	r6, ip, r1, ror #24

0000217c <Code_469>:
    217c:	b500      	push	{lr}
    217e:	3f04      	subs	r7, #4
    2180:	603e      	str	r6, [r7, #0]
    2182:	4e43      	ldr	r6, [pc, #268]	; (2290 <Code_485+0x62>)
    2184:	f000 fab5 	bl	26f2 <Code_574>
    2188:	3f04      	subs	r7, #4
    218a:	603e      	str	r6, [r7, #0]
    218c:	4e41      	ldr	r6, [pc, #260]	; (2294 <Code_485+0x66>)
    218e:	f000 fab0 	bl	26f2 <Code_574>
    2192:	3f04      	subs	r7, #4
    2194:	603e      	str	r6, [r7, #0]
    2196:	2606      	movs	r6, #6
    2198:	f7ff ff14 	bl	1fc4 <Code_433>
    219c:	bd00      	pop	{pc}
    219e:	46c0      	nop			; (mov r8, r8)

000021a0 <Dictionary_476>:
    21a0:	000021c8 	andeq	r2, r0, r8, asr #3
    21a4:	63060000 	movwvs	r0, #24576	; 0x6000
    21a8:	74616572 	strbtvc	r6, [r1], #-1394	; 0x572
    21ac:	b5000065 	strlt	r0, [r0, #-101]	; 0x65

000021ae <Code_476>:
    21ae:	b500      	push	{lr}
    21b0:	f000 f83d 	bl	222e <Code_485>
    21b4:	2021      	movs	r0, #33	; 0x21
    21b6:	0200      	lsls	r0, r0, #8
    21b8:	30e7      	adds	r0, #231	; 0xe7
    21ba:	4780      	blx	r0
    21bc:	3f04      	subs	r7, #4
    21be:	603e      	str	r6, [r7, #0]
    21c0:	4676      	mov	r6, lr
    21c2:	3e01      	subs	r6, #1
    21c4:	bd00      	pop	{pc}
    21c6:	46c0      	nop			; (mov r8, r8)

000021c8 <Dictionary_478>:
    21c8:	00002220 	andeq	r2, r0, r0, lsr #4
    21cc:	64050020 	strvs	r0, [r5], #-32
    21d0:	3e73656f 	cdpcc	5, 7, cr6, cr3, cr15, {3}

000021d4 <Code_478>:
    21d4:	2021      	movs	r0, #33	; 0x21
    21d6:	0200      	lsls	r0, r0, #8
    21d8:	30e7      	adds	r0, #231	; 0xe7
    21da:	4780      	blx	r0
    21dc:	3f04      	subs	r7, #4
    21de:	603e      	str	r6, [r7, #0]
    21e0:	4676      	mov	r6, lr
    21e2:	3e01      	subs	r6, #1
    21e4:	4770      	bx	lr

000021e6 <dodoes>:
    21e6:	3f04      	subs	r7, #4
    21e8:	603e      	str	r6, [r7, #0]
    21ea:	4676      	mov	r6, lr
    21ec:	3e01      	subs	r6, #1
    21ee:	4a2a      	ldr	r2, [pc, #168]	; (2298 <Code_485+0x6a>)
    21f0:	6813      	ldr	r3, [r2, #0]
    21f2:	492a      	ldr	r1, [pc, #168]	; (229c <Code_485+0x6e>)
    21f4:	6809      	ldr	r1, [r1, #0]
    21f6:	2002      	movs	r0, #2
    21f8:	4008      	ands	r0, r1
    21fa:	d100      	bne.n	21fe <dodoes+0x18>
    21fc:	3102      	adds	r1, #2
    21fe:	3102      	adds	r1, #2
    2200:	6011      	str	r1, [r2, #0]
    2202:	3601      	adds	r6, #1
    2204:	3f04      	subs	r7, #4
    2206:	603e      	str	r6, [r7, #0]
    2208:	2600      	movs	r6, #0
    220a:	f7ff ff30 	bl	206e <registerliteralkommalang>
    220e:	3f04      	subs	r7, #4
    2210:	603e      	str	r6, [r7, #0]
    2212:	4e1b      	ldr	r6, [pc, #108]	; (2280 <Code_485+0x52>)
    2214:	f000 fa6d 	bl	26f2 <Code_574>
    2218:	6013      	str	r3, [r2, #0]
    221a:	f000 f9e0 	bl	25de <Code_561>
    221e:	bd00      	pop	{pc}

00002220 <Dictionary_485>:
    2220:	000022a4 	andeq	r2, r0, r4, lsr #5
    2224:	3c070000 	stccc	0, cr0, [r7], {0}
    2228:	6c697562 	cfstr64vs	mvdx7, [r9], #-392	; 0xfffffe78
    222c:	b5007364 	strlt	r7, [r0, #-868]	; 0x364

0000222e <Code_485>:
    222e:	b500      	push	{lr}
    2230:	f000 fb64 	bl	28fc <Code_605>
    2234:	f000 fdaa 	bl	2d8c <Code_690>
    2238:	2002      	movs	r0, #2
    223a:	4006      	ands	r6, r0
    223c:	cf40      	ldmia	r7!, {r6}
    223e:	d104      	bne.n	224a <Code_485+0x1c>
    2240:	3f04      	subs	r7, #4
    2242:	603e      	str	r6, [r7, #0]
    2244:	2636      	movs	r6, #54	; 0x36
    2246:	f000 fa54 	bl	26f2 <Code_574>
    224a:	3f04      	subs	r7, #4
    224c:	603e      	str	r6, [r7, #0]
    224e:	4e14      	ldr	r6, [pc, #80]	; (22a0 <Code_485+0x72>)
    2250:	f000 fa4f 	bl	26f2 <Code_574>
    2254:	3f04      	subs	r7, #4
    2256:	603e      	str	r6, [r7, #0]
    2258:	2610      	movs	r6, #16
    225a:	f000 fab7 	bl	27cc <Code_594>
    225e:	bd00      	pop	{pc}
    2260:	ffff0000 			; <UNDEFINED> instruction: 0xffff0000
    2264:	000043c0 	andeq	r4, r0, r0, asr #7
    2268:	00002000 	andeq	r2, r0, r0
    226c:	00001000 	andeq	r1, r0, r0
    2270:	00000200 	andeq	r0, r0, r0, lsl #4
    2274:	00003000 	andeq	r3, r0, r0
    2278:	ffc00001 			; <UNDEFINED> instruction: 0xffc00001
    227c:	ffc00000 			; <UNDEFINED> instruction: 0xffc00000
    2280:	00004780 	andeq	r4, r0, r0, lsl #15
    2284:	f000f800 			; <UNDEFINED> instruction: 0xf000f800
    2288:	000007ff 	strdeq	r0, [r0], -pc	; <UNPREDICTABLE>
    228c:	000003ff 	strdeq	r0, [r0], -pc	; <UNPREDICTABLE>
    2290:	00003f04 	andeq	r3, r0, r4, lsl #30
    2294:	0000603e 	andeq	r6, r0, lr, lsr r0
    2298:	1ffff000 	svcne	0x00fff000
    229c:	1ffff014 	svcne	0x00fff014
    22a0:	0000b500 	andeq	fp, r0, r0, lsl #10

000022a4 <Dictionary_493>:
    22a4:	000022b0 			; <UNDEFINED> instruction: 0x000022b0
    22a8:	5b030050 	blpl	c23f0 <BIT19+0x423f0>
    22ac:	e0035d27 	and	r5, r3, r7, lsr #26

000022ae <Code_493>:
    22ae:	e003      	b.n	22b8 <Code_494>

000022b0 <Dictionary_494>:
    22b0:	000022c8 	andeq	r2, r0, r8, asr #5
    22b4:	27010000 	strcs	r0, [r1, -r0]

000022b8 <Code_494>:
    22b8:	b500      	push	{lr}
    22ba:	f001 f823 	bl	3304 <Code_827>
    22be:	f000 fd0a 	bl	2cd6 <find_not_found>
    22c2:	0030      	movs	r0, r6
    22c4:	cf40      	ldmia	r7!, {r6}
    22c6:	bd00      	pop	{pc}

000022c8 <Dictionary_496>:
    22c8:	00002308 	andeq	r2, r0, r8, lsl #6
    22cc:	70080030 	andvc	r0, r8, r0, lsr r0
    22d0:	7074736f 	rsbsvc	r7, r4, pc, ror #6
    22d4:	00656e6f 	rsbeq	r6, r5, pc, ror #28

000022d8 <Code_496>:
    22d8:	b500      	push	{lr}
    22da:	f7ff ffed 	bl	22b8 <Code_494>
    22de:	2110      	movs	r1, #16
    22e0:	4001      	ands	r1, r0
    22e2:	d10d      	bne.n	2300 <Code_496+0x28>
    22e4:	2120      	movs	r1, #32
    22e6:	4001      	ands	r1, r0
    22e8:	d005      	beq.n	22f6 <Code_496+0x1e>
    22ea:	f7ff ff47 	bl	217c <Code_469>
    22ee:	3f04      	subs	r7, #4
    22f0:	603e      	str	r6, [r7, #0]
    22f2:	4ee0      	ldr	r6, [pc, #896]	; (2674 <setflags_ram+0x1c>)
    22f4:	e004      	b.n	2300 <Code_496+0x28>
    22f6:	f7ff ff41 	bl	217c <Code_469>
    22fa:	3f04      	subs	r7, #4
    22fc:	603e      	str	r6, [r7, #0]
    22fe:	4ede      	ldr	r6, [pc, #888]	; (2678 <setflags_ram+0x20>)
    2300:	f7ff ff02 	bl	2108 <Code_460>
    2304:	bd00      	pop	{pc}
    2306:	46c0      	nop			; (mov r8, r8)

00002308 <Dictionary_499>:
    2308:	00002354 	andeq	r2, r0, r4, asr r3
    230c:	69070000 	stmdbvs	r7, {}	; <UNPREDICTABLE>
    2310:	6e696c6e 	cdpvs	12, 6, cr6, cr9, cr14, {3}
    2314:	b5002c65 	strlt	r2, [r0, #-3173]	; 0xc65

00002316 <Code_499>:
    2316:	b500      	push	{lr}
    2318:	49d8      	ldr	r1, [pc, #864]	; (267c <setflags_ram+0x24>)
    231a:	4ad9      	ldr	r2, [pc, #868]	; (2680 <setflags_ram+0x28>)
    231c:	4bd9      	ldr	r3, [pc, #868]	; (2684 <setflags_ram+0x2c>)
    231e:	8830      	ldrh	r0, [r6, #0]
    2320:	4288      	cmp	r0, r1
    2322:	d008      	beq.n	2336 <Code_499+0x20>
    2324:	4290      	cmp	r0, r2
    2326:	d008      	beq.n	233a <Code_499+0x24>
    2328:	4298      	cmp	r0, r3
    232a:	d006      	beq.n	233a <Code_499+0x24>
    232c:	3f04      	subs	r7, #4
    232e:	603e      	str	r6, [r7, #0]
    2330:	0006      	movs	r6, r0
    2332:	f000 f9de 	bl	26f2 <Code_574>
    2336:	3602      	adds	r6, #2
    2338:	e7f1      	b.n	231e <Code_499+0x8>
    233a:	cf40      	ldmia	r7!, {r6}
    233c:	bd00      	pop	{pc}

0000233e <suchedefinitionsende>:
    233e:	b40e      	push	{r1, r2, r3}
    2340:	4acf      	ldr	r2, [pc, #828]	; (2680 <setflags_ram+0x28>)
    2342:	4bd0      	ldr	r3, [pc, #832]	; (2684 <setflags_ram+0x2c>)
    2344:	8801      	ldrh	r1, [r0, #0]
    2346:	3002      	adds	r0, #2
    2348:	4291      	cmp	r1, r2
    234a:	d001      	beq.n	2350 <suchedefinitionsende+0x12>
    234c:	4299      	cmp	r1, r3
    234e:	d1f9      	bne.n	2344 <suchedefinitionsende+0x6>
    2350:	bc0e      	pop	{r1, r2, r3}
    2352:	4770      	bx	lr

00002354 <Dictionary_503>:
    2354:	00002368 	andeq	r2, r0, r8, ror #6
    2358:	72040000 	andvc	r0, r4, #0
    235c:	002c7465 	eoreq	r7, ip, r5, ror #8

00002360 <Code_503>:
    2360:	3f04      	subs	r7, #4
    2362:	603e      	str	r6, [r7, #0]
    2364:	4ec6      	ldr	r6, [pc, #792]	; (2680 <setflags_ram+0x28>)
    2366:	e1c4      	b.n	26f2 <Code_574>

00002368 <Dictionary_506>:
    2368:	00002378 	andeq	r2, r0, r8, ror r3
    236c:	65040030 	strvs	r0, [r4, #-48]	; 0x30
    2370:	00746978 	rsbseq	r6, r4, r8, ror r9

00002374 <Code_506>:
    2374:	e7f4      	b.n	2360 <Code_503>
    2376:	46c0      	nop			; (mov r8, r8)

00002378 <Dictionary_507>:
    2378:	00002390 	muleq	r0, r0, r3
    237c:	72070030 	andvc	r0, r7, #48	; 0x30
    2380:	72756365 	rsbsvc	r6, r5, #-1811939327	; 0x94000001
    2384:	3f046573 	svccc	0x00046573

00002386 <Code_507>:
    2386:	3f04      	subs	r7, #4
    2388:	603e      	str	r6, [r7, #0]
    238a:	4ebf      	ldr	r6, [pc, #764]	; (2688 <setflags_ram+0x30>)
    238c:	6836      	ldr	r6, [r6, #0]
    238e:	e6bb      	b.n	2108 <Code_460>

00002390 <Dictionary_509>:
    2390:	000023a8 	andeq	r2, r0, r8, lsr #7
    2394:	73050081 	movwvc	r0, #20609	; 0x5081
    2398:	65746174 	ldrbvs	r6, [r4, #-372]!	; 0x174

0000239c <Code_509>:
    239c:	3f04      	subs	r7, #4
    239e:	603e      	str	r6, [r7, #0]
    23a0:	4eba      	ldr	r6, [pc, #744]	; (268c <setflags_ram+0x34>)
    23a2:	4770      	bx	lr
    23a4:	00000000 	andeq	r0, r0, r0

000023a8 <Dictionary_512>:
    23a8:	000023bc 			; <UNDEFINED> instruction: 0x000023bc
    23ac:	5d010000 	stcpl	0, cr0, [r1]

000023b0 <Code_512>:
    23b0:	48b6      	ldr	r0, [pc, #728]	; (268c <setflags_ram+0x34>)
    23b2:	2100      	movs	r1, #0
    23b4:	43c9      	mvns	r1, r1
    23b6:	6001      	str	r1, [r0, #0]
    23b8:	4770      	bx	lr
    23ba:	46c0      	nop			; (mov r8, r8)

000023bc <Dictionary_513>:
    23bc:	000023cc 	andeq	r2, r0, ip, asr #7
    23c0:	5b010010 	blpl	42408 <BIT18+0x2408>

000023c4 <Code_513>:
    23c4:	48b1      	ldr	r0, [pc, #708]	; (268c <setflags_ram+0x34>)
    23c6:	2100      	movs	r1, #0
    23c8:	6001      	str	r1, [r0, #0]
    23ca:	4770      	bx	lr

000023cc <Dictionary_514>:
    23cc:	000023f4 	strdeq	r2, [r0], -r4
    23d0:	3a010000 	bcc	423d8 <BIT18+0x23d8>

000023d4 <Code_514>:
    23d4:	b500      	push	{lr}
    23d6:	48ae      	ldr	r0, [pc, #696]	; (2690 <setflags_ram+0x38>)
    23d8:	6007      	str	r7, [r0, #0]
    23da:	f000 fa8f 	bl	28fc <Code_605>
    23de:	3f04      	subs	r7, #4
    23e0:	603e      	str	r6, [r7, #0]
    23e2:	4ea6      	ldr	r6, [pc, #664]	; (267c <setflags_ram+0x24>)
    23e4:	f000 f985 	bl	26f2 <Code_574>
    23e8:	48a8      	ldr	r0, [pc, #672]	; (268c <setflags_ram+0x34>)
    23ea:	2100      	movs	r1, #0
    23ec:	43c9      	mvns	r1, r1
    23ee:	6001      	str	r1, [r0, #0]
    23f0:	bd00      	pop	{pc}
    23f2:	46c0      	nop			; (mov r8, r8)

000023f4 <Dictionary_517>:
    23f4:	0000243c 	andeq	r2, r0, ip, lsr r4
    23f8:	3b010030 	blcc	424c0 <BIT18+0x24c0>

000023fc <Code_517>:
    23fc:	b500      	push	{lr}
    23fe:	48a4      	ldr	r0, [pc, #656]	; (2690 <setflags_ram+0x38>)
    2400:	6801      	ldr	r1, [r0, #0]
    2402:	42b9      	cmp	r1, r7
    2404:	d00e      	beq.n	2424 <Code_517+0x28>
    2406:	f7ff fc8f 	bl	1d28 <dotgaensefuesschen>
    240a:	74532015 	ldrbvc	r2, [r3], #-21
    240e:	206b6361 	rsbcs	r6, fp, r1, ror #6
    2412:	20746f6e 	rsbscs	r6, r4, lr, ror #30
    2416:	616c6162 	cmnvs	ip, r2, ror #2
    241a:	6465636e 	strbtvs	r6, [r5], #-878	; 0x36e
    241e:	f0010a2e 			; <UNDEFINED> instruction: 0xf0010a2e
    2422:	fae2 3f04 			; <UNDEFINED> instruction: 0xfae23f04
    2426:	603e      	str	r6, [r7, #0]
    2428:	4e95      	ldr	r6, [pc, #596]	; (2680 <setflags_ram+0x28>)
    242a:	f000 f962 	bl	26f2 <Code_574>
    242e:	f000 f8d6 	bl	25de <Code_561>
    2432:	4896      	ldr	r0, [pc, #600]	; (268c <setflags_ram+0x34>)
    2434:	2100      	movs	r1, #0
    2436:	6001      	str	r1, [r0, #0]
    2438:	bd00      	pop	{pc}
    243a:	46c0      	nop			; (mov r8, r8)

0000243c <Dictionary_521>:
    243c:	00002450 	andeq	r2, r0, r0, asr r4
    2440:	65070000 	strvs	r0, [r7]
    2444:	75636578 	strbvc	r6, [r3, #-1400]!	; 0x578
    2448:	00306574 	eorseq	r6, r0, r4, ror r5

0000244a <Code_521>:
    244a:	0030      	movs	r0, r6
    244c:	cf40      	ldmia	r7!, {r6}
    244e:	4687      	mov	pc, r0

00002450 <Dictionary_523>:
    2450:	00002468 	andeq	r2, r0, r8, ror #8
    2454:	69090010 	stmdbvs	r9, {r4}
    2458:	64656d6d 	strbtvs	r6, [r5], #-3437	; 0xd6d
    245c:	65746169 	ldrbvs	r6, [r4, #-361]!	; 0x169

00002460 <Code_523>:
    2460:	3f04      	subs	r7, #4
    2462:	603e      	str	r6, [r7, #0]
    2464:	2610      	movs	r6, #16
    2466:	e0eb      	b.n	2640 <Code_567>

00002468 <Dictionary_526>:
    2468:	00002480 	andeq	r2, r0, r0, lsl #9
    246c:	69060050 	stmdbvs	r6, {r4, r6}
    2470:	6e696c6e 	cdpvs	12, 6, cr6, cr9, cr14, {3}
    2474:	3f040065 	svccc	0x00040065

00002476 <Code_526>:
    2476:	3f04      	subs	r7, #4
    2478:	603e      	str	r6, [r7, #0]
    247a:	2620      	movs	r6, #32
    247c:	e0e0      	b.n	2640 <Code_567>
    247e:	46c0      	nop			; (mov r8, r8)

00002480 <Dictionary_529>:
    2480:	0000249c 	muleq	r0, ip, r4
    2484:	630b0010 	movwvs	r0, #45072	; 0xb010
    2488:	69706d6f 	ldmdbvs	r0!, {r0, r1, r2, r3, r5, r6, r8, sl, fp, sp, lr}^
    248c:	6e6f656c 	cdpvs	5, 6, cr6, cr15, cr12, {3}
    2490:	3f04796c 	svccc	0x0004796c

00002492 <Code_529>:
    2492:	3f04      	subs	r7, #4
    2494:	603e      	str	r6, [r7, #0]
    2496:	2630      	movs	r6, #48	; 0x30
    2498:	e0d2      	b.n	2640 <Code_567>
    249a:	46c0      	nop			; (mov r8, r8)

0000249c <Dictionary_532>:
    249c:	000024b8 			; <UNDEFINED> instruction: 0x000024b8
    24a0:	300a0050 	andcc	r0, sl, r0, asr r0
    24a4:	6c6f662d 	stclvs	6, cr6, [pc], #-180	; 23f8 <Dictionary_517+0x4>
    24a8:	6c626164 	stfvse	f6, [r2], #-400	; 0xfffffe70
    24ac:	3f040065 	svccc	0x00040065

000024ae <Code_532>:
    24ae:	3f04      	subs	r7, #4
    24b0:	603e      	str	r6, [r7, #0]
    24b2:	2640      	movs	r6, #64	; 0x40
    24b4:	e0c4      	b.n	2640 <Code_567>
    24b6:	46c0      	nop			; (mov r8, r8)

000024b8 <Dictionary_535>:
    24b8:	000024d4 	ldrdeq	r2, [r0], -r4
    24bc:	310a0050 	qaddcc	r0, r0, sl
    24c0:	6c6f662d 	stclvs	6, cr6, [pc], #-180	; 2414 <Code_517+0x18>
    24c4:	6c626164 	stfvse	f6, [r2], #-400	; 0xfffffe70
    24c8:	3f040065 	svccc	0x00040065

000024ca <Code_535>:
    24ca:	3f04      	subs	r7, #4
    24cc:	603e      	str	r6, [r7, #0]
    24ce:	2641      	movs	r6, #65	; 0x41
    24d0:	e0b6      	b.n	2640 <Code_567>
    24d2:	46c0      	nop			; (mov r8, r8)

000024d4 <Dictionary_538>:
    24d4:	000024f0 	strdeq	r2, [r0], -r0
    24d8:	320a0050 	andcc	r0, sl, #80	; 0x50
    24dc:	6c6f662d 	stclvs	6, cr6, [pc], #-180	; 2430 <Code_517+0x34>
    24e0:	6c626164 	stfvse	f6, [r2], #-400	; 0xfffffe70
    24e4:	3f040065 	svccc	0x00040065

000024e6 <Code_538>:
    24e6:	3f04      	subs	r7, #4
    24e8:	603e      	str	r6, [r7, #0]
    24ea:	2642      	movs	r6, #66	; 0x42
    24ec:	e0a8      	b.n	2640 <Code_567>
    24ee:	46c0      	nop			; (mov r8, r8)

000024f0 <Dictionary_541>:
    24f0:	0000250c 	andeq	r2, r0, ip, lsl #10
    24f4:	330a0050 	movwcc	r0, #41040	; 0xa050
    24f8:	6c6f662d 	stclvs	6, cr6, [pc], #-180	; 244c <Code_521+0x2>
    24fc:	6c626164 	stfvse	f6, [r2], #-400	; 0xfffffe70
    2500:	3f040065 	svccc	0x00040065

00002502 <Code_541>:
    2502:	3f04      	subs	r7, #4
    2504:	603e      	str	r6, [r7, #0]
    2506:	2643      	movs	r6, #67	; 0x43
    2508:	e09a      	b.n	2640 <Code_567>
    250a:	46c0      	nop			; (mov r8, r8)

0000250c <Dictionary_544>:
    250c:	00002528 	andeq	r2, r0, r8, lsr #10
    2510:	340a0050 	strcc	r0, [sl], #-80	; 0x50
    2514:	6c6f662d 	stclvs	6, cr6, [pc], #-180	; 2468 <Dictionary_526>
    2518:	6c626164 	stfvse	f6, [r2], #-400	; 0xfffffe70
    251c:	3f040065 	svccc	0x00040065

0000251e <Code_544>:
    251e:	3f04      	subs	r7, #4
    2520:	603e      	str	r6, [r7, #0]
    2522:	2644      	movs	r6, #68	; 0x44
    2524:	e08c      	b.n	2640 <Code_567>
    2526:	46c0      	nop			; (mov r8, r8)

00002528 <Dictionary_547>:
    2528:	00002544 	andeq	r2, r0, r4, asr #10
    252c:	350a0050 	strcc	r0, [sl, #-80]	; 0x50
    2530:	6c6f662d 	stclvs	6, cr6, [pc], #-180	; 2484 <Dictionary_529+0x4>
    2534:	6c626164 	stfvse	f6, [r2], #-400	; 0xfffffe70
    2538:	3f040065 	svccc	0x00040065

0000253a <Code_547>:
    253a:	3f04      	subs	r7, #4
    253c:	603e      	str	r6, [r7, #0]
    253e:	2645      	movs	r6, #69	; 0x45
    2540:	e07e      	b.n	2640 <Code_567>
    2542:	46c0      	nop			; (mov r8, r8)

00002544 <Dictionary_550>:
    2544:	00002560 	andeq	r2, r0, r0, ror #10
    2548:	360a0050 			; <UNDEFINED> instruction: 0x360a0050
    254c:	6c6f662d 	stclvs	6, cr6, [pc], #-180	; 24a0 <Dictionary_532+0x4>
    2550:	6c626164 	stfvse	f6, [r2], #-400	; 0xfffffe70
    2554:	3f040065 	svccc	0x00040065

00002556 <Code_550>:
    2556:	3f04      	subs	r7, #4
    2558:	603e      	str	r6, [r7, #0]
    255a:	2646      	movs	r6, #70	; 0x46
    255c:	e070      	b.n	2640 <Code_567>
    255e:	46c0      	nop			; (mov r8, r8)

00002560 <Dictionary_553>:
    2560:	0000257c 	andeq	r2, r0, ip, ror r5
    2564:	370a0050 	smlsdcc	sl, r0, r0, r0
    2568:	6c6f662d 	stclvs	6, cr6, [pc], #-180	; 24bc <Dictionary_535+0x4>
    256c:	6c626164 	stfvse	f6, [r2], #-400	; 0xfffffe70
    2570:	3f040065 	svccc	0x00040065

00002572 <Code_553>:
    2572:	3f04      	subs	r7, #4
    2574:	603e      	str	r6, [r7, #0]
    2576:	2647      	movs	r6, #71	; 0x47
    2578:	e062      	b.n	2640 <Code_567>
    257a:	46c0      	nop			; (mov r8, r8)

0000257c <Dictionary_556>:
    257c:	000025ac 	andeq	r2, r0, ip, lsr #11
    2580:	63080000 	movwvs	r0, #32768	; 0x8000
    2584:	74736e6f 	ldrbtvc	r6, [r3], #-3695	; 0xe6f
    2588:	00746e61 	rsbseq	r6, r4, r1, ror #28

0000258c <Code_556>:
    258c:	b500      	push	{lr}
    258e:	f000 f9b5 	bl	28fc <Code_605>
    2592:	f7ff fdf3 	bl	217c <Code_469>
    2596:	3f04      	subs	r7, #4
    2598:	603e      	str	r6, [r7, #0]
    259a:	4e3a      	ldr	r6, [pc, #232]	; (2684 <setflags_ram+0x2c>)
    259c:	f000 f8a9 	bl	26f2 <Code_574>
    25a0:	f7ff ff85 	bl	24ae <Code_532>
    25a4:	f000 f81b 	bl	25de <Code_561>
    25a8:	bd00      	pop	{pc}
    25aa:	46c0      	nop			; (mov r8, r8)

000025ac <Dictionary_559>:
    25ac:	000025d0 	ldrdeq	r2, [r0], -r0
    25b0:	32090000 	andcc	r0, r9, #0
    25b4:	736e6f63 	cmnvc	lr, #396	; 0x18c
    25b8:	746e6174 	strbtvc	r6, [lr], #-372	; 0x174

000025bc <Code_559>:
    25bc:	b500      	push	{lr}
    25be:	f000 f99d 	bl	28fc <Code_605>
    25c2:	6839      	ldr	r1, [r7, #0]
    25c4:	603e      	str	r6, [r7, #0]
    25c6:	460e      	mov	r6, r1
    25c8:	f7ff fdd8 	bl	217c <Code_469>
    25cc:	e7e1      	b.n	2592 <Code_556+0x6>
    25ce:	46c0      	nop			; (mov r8, r8)

000025d0 <Dictionary_561>:
    25d0:	00002630 	andeq	r2, r0, r0, lsr r6
    25d4:	73060000 	movwvc	r0, #24576	; 0x6000
    25d8:	6764756d 	strbvs	r7, [r4, -sp, ror #10]!
    25dc:	b5000065 	strlt	r0, [r0, #-101]	; 0x65

000025de <Code_561>:
    25de:	b500      	push	{lr}
    25e0:	482c      	ldr	r0, [pc, #176]	; (2694 <setflags_ram+0x3c>)
    25e2:	6801      	ldr	r1, [r0, #0]
    25e4:	4a2b      	ldr	r2, [pc, #172]	; (2694 <setflags_ram+0x3c>)
    25e6:	4291      	cmp	r1, r2
    25e8:	d21c      	bcs.n	2624 <smudge_ram>
    25ea:	3902      	subs	r1, #2
    25ec:	880a      	ldrh	r2, [r1, #0]
    25ee:	4b2a      	ldr	r3, [pc, #168]	; (2698 <setflags_ram+0x40>)
    25f0:	429a      	cmp	r2, r3
    25f2:	d104      	bne.n	25fe <Code_561+0x20>
    25f4:	3f04      	subs	r7, #4
    25f6:	603e      	str	r6, [r7, #0]
    25f8:	4e28      	ldr	r6, [pc, #160]	; (269c <setflags_ram+0x44>)
    25fa:	f000 f87a 	bl	26f2 <Code_574>
    25fe:	f000 f867 	bl	26d0 <Code_571>
    2602:	4827      	ldr	r0, [pc, #156]	; (26a0 <setflags_ram+0x48>)
    2604:	6800      	ldr	r0, [r0, #0]
    2606:	3f04      	subs	r7, #4
    2608:	603e      	str	r6, [r7, #0]
    260a:	0006      	movs	r6, r0
    260c:	4925      	ldr	r1, [pc, #148]	; (26a4 <setflags_ram+0x4c>)
    260e:	6809      	ldr	r1, [r1, #0]
    2610:	3104      	adds	r1, #4
    2612:	4a20      	ldr	r2, [pc, #128]	; (2694 <setflags_ram+0x3c>)
    2614:	6813      	ldr	r3, [r2, #0]
    2616:	6011      	str	r1, [r2, #0]
    2618:	f000 f86b 	bl	26f2 <Code_574>
    261c:	6013      	str	r3, [r2, #0]
    261e:	f7fe ff7b 	bl	1518 <sammeltabelleleerprobe>
    2622:	bd00      	pop	{pc}

00002624 <smudge_ram>:
    2624:	f000 f854 	bl	26d0 <Code_571>
    2628:	3f04      	subs	r7, #4
    262a:	603e      	str	r6, [r7, #0]
    262c:	2600      	movs	r6, #0
    262e:	e008      	b.n	2642 <setflags_intern>

00002630 <Dictionary_567>:
    2630:	000026a8 	andeq	r2, r0, r8, lsr #13
    2634:	73080000 	movwvc	r0, #32768	; 0x8000
    2638:	6c667465 	cfstrdvs	mvd7, [r6], #-404	; 0xfffffe6c
    263c:	00736761 	rsbseq	r6, r3, r1, ror #14

00002640 <Code_567>:
    2640:	b500      	push	{lr}

00002642 <setflags_intern>:
    2642:	4814      	ldr	r0, [pc, #80]	; (2694 <setflags_ram+0x3c>)
    2644:	6801      	ldr	r1, [r0, #0]
    2646:	4a13      	ldr	r2, [pc, #76]	; (2694 <setflags_ram+0x3c>)
    2648:	4291      	cmp	r1, r2
    264a:	d205      	bcs.n	2658 <setflags_ram>
    264c:	4814      	ldr	r0, [pc, #80]	; (26a0 <setflags_ram+0x48>)
    264e:	6801      	ldr	r1, [r0, #0]
    2650:	4331      	orrs	r1, r6
    2652:	6001      	str	r1, [r0, #0]
    2654:	cf40      	ldmia	r7!, {r6}
    2656:	bd00      	pop	{pc}

00002658 <setflags_ram>:
    2658:	0032      	movs	r2, r6
    265a:	cf40      	ldmia	r7!, {r6}
    265c:	4811      	ldr	r0, [pc, #68]	; (26a4 <setflags_ram+0x4c>)
    265e:	6800      	ldr	r0, [r0, #0]
    2660:	3004      	adds	r0, #4
    2662:	8801      	ldrh	r1, [r0, #0]
    2664:	4b0c      	ldr	r3, [pc, #48]	; (2698 <setflags_ram+0x40>)
    2666:	4299      	cmp	r1, r3
    2668:	d101      	bne.n	266e <setflags_ram+0x16>
    266a:	0011      	movs	r1, r2
    266c:	e000      	b.n	2670 <setflags_ram+0x18>
    266e:	4311      	orrs	r1, r2
    2670:	8001      	strh	r1, [r0, #0]
    2672:	bd00      	pop	{pc}
    2674:	00002316 	andeq	r2, r0, r6, lsl r3
    2678:	00002108 	andeq	r2, r0, r8, lsl #2
    267c:	0000b500 	andeq	fp, r0, r0, lsl #10
    2680:	0000bd00 	andeq	fp, r0, r0, lsl #26
    2684:	00004770 	andeq	r4, r0, r0, ror r7
    2688:	1ffff014 	svcne	0x00fff014
    268c:	20002fd8 	ldrdcs	r2, [r0], -r8
    2690:	1ffff010 	svcne	0x00fff010
    2694:	1ffff000 	svcne	0x00fff000
    2698:	0000ffff 	strdeq	pc, [r0], -pc	; <UNPREDICTABLE>
    269c:	00000000 	andeq	r0, r0, r0
    26a0:	1ffff020 	svcne	0x00fff020
    26a4:	1ffff004 	svcne	0x00fff004

000026a8 <Dictionary_570>:
    26a8:	000026c4 	andeq	r2, r0, r4, asr #13
    26ac:	61070041 	tstvs	r7, r1, asr #32
    26b0:	6e67696c 	cdpvs	9, 6, cr6, cr7, cr12, {3}
    26b4:	20016465 	andcs	r6, r1, r5, ror #8

000026b6 <Code_570>:
    26b6:	2001      	movs	r0, #1
    26b8:	4030      	ands	r0, r6
    26ba:	1836      	adds	r6, r6, r0
    26bc:	2002      	movs	r0, #2
    26be:	4030      	ands	r0, r6
    26c0:	1836      	adds	r6, r6, r0
    26c2:	4770      	bx	lr

000026c4 <Dictionary_571>:
    26c4:	000026e8 	andeq	r2, r0, r8, ror #13
    26c8:	61050000 	mrsvs	r0, (UNDEF: 5)
    26cc:	6e67696c 	cdpvs	9, 6, cr6, cr7, cr12, {3}

000026d0 <Code_571>:
    26d0:	b500      	push	{lr}
    26d2:	4880      	ldr	r0, [pc, #512]	; (28d4 <Zweitpointertausch+0x4e>)
    26d4:	6801      	ldr	r1, [r0, #0]
    26d6:	2002      	movs	r0, #2
    26d8:	4001      	ands	r1, r0
    26da:	d004      	beq.n	26e6 <Code_571+0x16>
    26dc:	3f04      	subs	r7, #4
    26de:	603e      	str	r6, [r7, #0]
    26e0:	2600      	movs	r6, #0
    26e2:	f000 f806 	bl	26f2 <Code_574>
    26e6:	bd00      	pop	{pc}

000026e8 <Dictionary_574>:
    26e8:	00002720 	andeq	r2, r0, r0, lsr #14
    26ec:	68020000 	stmdavs	r2, {}	; <UNPREDICTABLE>
    26f0:	b50f002c 	strlt	r0, [pc, #-44]	; 26cc <Dictionary_571+0x8>

000026f2 <Code_574>:
    26f2:	b50f      	push	{r0, r1, r2, r3, lr}
    26f4:	b2b6      	uxth	r6, r6
    26f6:	4877      	ldr	r0, [pc, #476]	; (28d4 <Zweitpointertausch+0x4e>)
    26f8:	6801      	ldr	r1, [r0, #0]
    26fa:	4a76      	ldr	r2, [pc, #472]	; (28d4 <Zweitpointertausch+0x4e>)
    26fc:	4291      	cmp	r1, r2
    26fe:	d205      	bcs.n	270c <hkomma_ram>
    2700:	3f04      	subs	r7, #4
    2702:	603e      	str	r6, [r7, #0]
    2704:	000e      	movs	r6, r1
    2706:	f7fe ff2a 	bl	155e <Code_243>
    270a:	e002      	b.n	2712 <hkomma_fertig>

0000270c <hkomma_ram>:
    270c:	0032      	movs	r2, r6
    270e:	cf40      	ldmia	r7!, {r6}
    2710:	800a      	strh	r2, [r1, #0]

00002712 <hkomma_fertig>:
    2712:	3f04      	subs	r7, #4
    2714:	603e      	str	r6, [r7, #0]
    2716:	2602      	movs	r6, #2
    2718:	f000 f858 	bl	27cc <Code_594>
    271c:	bd0f      	pop	{r0, r1, r2, r3, pc}
    271e:	46c0      	nop			; (mov r8, r8)

00002720 <Dictionary_580>:
    2720:	0000273c 	andeq	r2, r0, ip, lsr r7
    2724:	2c010000 	stccs	0, cr0, [r1], {0}

00002728 <Code_580>:
    2728:	b500      	push	{lr}
    272a:	3f04      	subs	r7, #4
    272c:	603e      	str	r6, [r7, #0]
    272e:	f7ff ffe0 	bl	26f2 <Code_574>
    2732:	0c36      	lsrs	r6, r6, #16
    2734:	f7ff ffdd 	bl	26f2 <Code_574>
    2738:	bd00      	pop	{pc}
    273a:	46c0      	nop			; (mov r8, r8)

0000273c <Dictionary_583>:
    273c:	00002758 	andeq	r2, r0, r8, asr r7
    2740:	3e030000 	cdpcc	0, 0, cr0, cr3, cr0, {0}
    2744:	b5002c3c 	strlt	r2, [r0, #-3132]	; 0xc3c

00002746 <Code_583>:
    2746:	b500      	push	{lr}
    2748:	3f04      	subs	r7, #4
    274a:	603e      	str	r6, [r7, #0]
    274c:	0c36      	lsrs	r6, r6, #16
    274e:	f7ff ffd0 	bl	26f2 <Code_574>
    2752:	f7ff ffce 	bl	26f2 <Code_574>
    2756:	bd00      	pop	{pc}

00002758 <Dictionary_586>:
    2758:	000027c0 	andeq	r2, r0, r0, asr #15
    275c:	73070000 	movwvc	r0, #28672	; 0x7000
    2760:	6e697274 	mcrvs	2, 3, r7, cr9, cr4, {3}
    2764:	b5072c67 	strlt	r2, [r7, #-3175]	; 0xc67

00002766 <Code_586>:
    2766:	b507      	push	{r0, r1, r2, lr}
    2768:	21ff      	movs	r1, #255	; 0xff
    276a:	4031      	ands	r1, r6
    276c:	cf40      	ldmia	r7!, {r6}
    276e:	0030      	movs	r0, r6
    2770:	cf40      	ldmia	r7!, {r6}
    2772:	2900      	cmp	r1, #0
    2774:	d105      	bne.n	2782 <Code_586+0x1c>
    2776:	3f04      	subs	r7, #4
    2778:	603e      	str	r6, [r7, #0]
    277a:	2600      	movs	r6, #0
    277c:	f7ff ffb9 	bl	26f2 <Code_574>
    2780:	bd07      	pop	{r0, r1, r2, pc}
    2782:	3f04      	subs	r7, #4
    2784:	603e      	str	r6, [r7, #0]
    2786:	7806      	ldrb	r6, [r0, #0]
    2788:	0236      	lsls	r6, r6, #8
    278a:	430e      	orrs	r6, r1
    278c:	f7ff ffb1 	bl	26f2 <Code_574>
    2790:	3001      	adds	r0, #1
    2792:	3901      	subs	r1, #1
    2794:	2902      	cmp	r1, #2
    2796:	d30a      	bcc.n	27ae <Code_586+0x48>
    2798:	3f04      	subs	r7, #4
    279a:	603e      	str	r6, [r7, #0]
    279c:	7846      	ldrb	r6, [r0, #1]
    279e:	0236      	lsls	r6, r6, #8
    27a0:	7802      	ldrb	r2, [r0, #0]
    27a2:	4316      	orrs	r6, r2
    27a4:	f7ff ffa5 	bl	26f2 <Code_574>
    27a8:	3002      	adds	r0, #2
    27aa:	3902      	subs	r1, #2
    27ac:	e7f2      	b.n	2794 <Code_586+0x2e>
    27ae:	2900      	cmp	r1, #0
    27b0:	d100      	bne.n	27b4 <Code_586+0x4e>
    27b2:	bd07      	pop	{r0, r1, r2, pc}
    27b4:	3f04      	subs	r7, #4
    27b6:	603e      	str	r6, [r7, #0]
    27b8:	7806      	ldrb	r6, [r0, #0]
    27ba:	f7ff ff9a 	bl	26f2 <Code_574>
    27be:	bd07      	pop	{r0, r1, r2, pc}

000027c0 <Dictionary_594>:
    27c0:	0000281c 	andeq	r2, r0, ip, lsl r8
    27c4:	61050000 	mrsvs	r0, (UNDEF: 5)
    27c8:	746f6c6c 	strbtvc	r6, [pc], #-3180	; 27d0 <Code_594+0x4>

000027cc <Code_594>:
    27cc:	4841      	ldr	r0, [pc, #260]	; (28d4 <Zweitpointertausch+0x4e>)
    27ce:	6801      	ldr	r1, [r0, #0]
    27d0:	4a40      	ldr	r2, [pc, #256]	; (28d4 <Zweitpointertausch+0x4e>)
    27d2:	4291      	cmp	r1, r2
    27d4:	d20f      	bcs.n	27f6 <allot_ram>
    27d6:	0032      	movs	r2, r6
    27d8:	cf40      	ldmia	r7!, {r6}
    27da:	1889      	adds	r1, r1, r2
    27dc:	4a3e      	ldr	r2, [pc, #248]	; (28d8 <Zweitpointertausch+0x52>)
    27de:	4291      	cmp	r1, r2
    27e0:	d319      	bcc.n	2816 <allot_ok>
    27e2:	f7ff faa1 	bl	1d28 <dotgaensefuesschen>
    27e6:	616c460b 	cmnvs	ip, fp, lsl #12
    27ea:	66206873 			; <UNDEFINED> instruction: 0x66206873
    27ee:	0a6c6c75 	beq	1b1d9ca <BIT24+0xb1d9ca>
    27f2:	f001 f8f9 	bl	39e8 <Code_950>

000027f6 <allot_ram>:
    27f6:	0032      	movs	r2, r6
    27f8:	cf40      	ldmia	r7!, {r6}
    27fa:	1889      	adds	r1, r1, r2
    27fc:	4a37      	ldr	r2, [pc, #220]	; (28dc <Zweitpointertausch+0x56>)
    27fe:	6812      	ldr	r2, [r2, #0]
    2800:	4291      	cmp	r1, r2
    2802:	d308      	bcc.n	2816 <allot_ok>
    2804:	f7ff fa90 	bl	1d28 <dotgaensefuesschen>
    2808:	6d615209 	sfmvs	f5, 2, [r1, #-36]!	; 0xffffffdc
    280c:	6c756620 	ldclvs	6, cr6, [r5], #-128	; 0xffffff80
    2810:	f0010a6c 			; <UNDEFINED> instruction: 0xf0010a6c
    2814:	f8e9 6001 	str??.w	r6, [r9, #1]

00002816 <allot_ok>:
    2816:	6001      	str	r1, [r0, #0]
    2818:	4770      	bx	lr
    281a:	46c0      	nop			; (mov r8, r8)

0000281c <Dictionary_599>:
    281c:	00002844 	andeq	r2, r0, r4, asr #16
    2820:	630d0000 	movwvs	r0, #53248	; 0xd000
    2824:	69706d6f 	ldmdbvs	r0!, {r0, r1, r2, r3, r5, r6, r8, sl, fp, sp, lr}^
    2828:	6f74656c 	svcvs	0x0074656c
    282c:	3f6d6172 	svccc	0x006d6172

00002830 <Code_599>:
    2830:	3f04      	subs	r7, #4
    2832:	603e      	str	r6, [r7, #0]
    2834:	2600      	movs	r6, #0
    2836:	4827      	ldr	r0, [pc, #156]	; (28d4 <Zweitpointertausch+0x4e>)
    2838:	6800      	ldr	r0, [r0, #0]
    283a:	4926      	ldr	r1, [pc, #152]	; (28d4 <Zweitpointertausch+0x4e>)
    283c:	4288      	cmp	r0, r1
    283e:	d348      	bcc.n	28d2 <Zweitpointertausch+0x4c>
    2840:	43f6      	mvns	r6, r6
    2842:	4770      	bx	lr

00002844 <Dictionary_602>:
    2844:	00002864 	andeq	r2, r0, r4, ror #16
    2848:	630c0000 	movwvs	r0, #49152	; 0xc000
    284c:	69706d6f 	ldmdbvs	r0!, {r0, r1, r2, r3, r5, r6, r8, sl, fp, sp, lr}^
    2850:	6f74656c 	svcvs	0x0074656c
    2854:	006d6172 	rsbeq	r6, sp, r2, ror r1

00002858 <Code_602>:
    2858:	481e      	ldr	r0, [pc, #120]	; (28d4 <Zweitpointertausch+0x4e>)
    285a:	6800      	ldr	r0, [r0, #0]
    285c:	491d      	ldr	r1, [pc, #116]	; (28d4 <Zweitpointertausch+0x4e>)
    285e:	4288      	cmp	r0, r1
    2860:	d311      	bcc.n	2886 <Zweitpointertausch>
    2862:	4770      	bx	lr

00002864 <Dictionary_603>:
    2864:	000028ec 	andeq	r2, r0, ip, ror #17
    2868:	630e0000 	movwvs	r0, #57344	; 0xe000
    286c:	69706d6f 	ldmdbvs	r0!, {r0, r1, r2, r3, r5, r6, r8, sl, fp, sp, lr}^
    2870:	6f74656c 	svcvs	0x0074656c
    2874:	73616c66 	cmnvc	r1, #26112	; 0x6600
    2878:	48160068 	ldmdami	r6, {r3, r5, r6}

0000287a <Code_603>:
    287a:	4816      	ldr	r0, [pc, #88]	; (28d4 <Zweitpointertausch+0x4e>)
    287c:	6800      	ldr	r0, [r0, #0]
    287e:	4915      	ldr	r1, [pc, #84]	; (28d4 <Zweitpointertausch+0x4e>)
    2880:	4288      	cmp	r0, r1
    2882:	d200      	bcs.n	2886 <Zweitpointertausch>
    2884:	4770      	bx	lr

00002886 <Zweitpointertausch>:
    2886:	4816      	ldr	r0, [pc, #88]	; (28e0 <Zweitpointertausch+0x5a>)
    2888:	4916      	ldr	r1, [pc, #88]	; (28e4 <Zweitpointertausch+0x5e>)
    288a:	6802      	ldr	r2, [r0, #0]
    288c:	680b      	ldr	r3, [r1, #0]
    288e:	600a      	str	r2, [r1, #0]
    2890:	6003      	str	r3, [r0, #0]
    2892:	4810      	ldr	r0, [pc, #64]	; (28d4 <Zweitpointertausch+0x4e>)
    2894:	4914      	ldr	r1, [pc, #80]	; (28e8 <Zweitpointertausch+0x62>)
    2896:	6802      	ldr	r2, [r0, #0]
    2898:	680b      	ldr	r3, [r1, #0]
    289a:	600a      	str	r2, [r1, #0]
    289c:	6003      	str	r3, [r0, #0]
    289e:	480f      	ldr	r0, [pc, #60]	; (28dc <Zweitpointertausch+0x56>)
    28a0:	6800      	ldr	r0, [r0, #0]
    28a2:	4283      	cmp	r3, r0
    28a4:	d315      	bcc.n	28d2 <Zweitpointertausch+0x4c>
    28a6:	b500      	push	{lr}
    28a8:	f7ff fa3e 	bl	1d28 <dotgaensefuesschen>
    28ac:	61562023 	cmpvs	r6, r3, lsr #32
    28b0:	62616972 	rsbvs	r6, r1, #1867776	; 0x1c8000
    28b4:	2073656c 	rsbscs	r6, r3, ip, ror #10
    28b8:	6c6c6f63 	stclvs	15, cr6, [ip], #-396	; 0xfffffe74
    28bc:	20656469 	rsbcs	r6, r5, r9, ror #8
    28c0:	68746977 	ldmdavs	r4!, {r0, r1, r2, r4, r5, r6, r8, fp, sp, lr}^
    28c4:	63696420 	cmnvs	r9, #536870912	; 0x20000000
    28c8:	6e6f6974 	mcrvs	9, 3, r6, cr15, cr4, {3}
    28cc:	0a797261 	beq	1e5f258 <BIT24+0xe5f258>
    28d0:	bd00      	pop	{pc}
    28d2:	4770      	bx	lr
    28d4:	1ffff000 	svcne	0x00fff000
    28d8:	00020000 	andeq	r0, r2, r0
    28dc:	1ffff024 	svcne	0x00fff024
    28e0:	1ffff004 	svcne	0x00fff004
    28e4:	1ffff01c 	svcne	0x00fff01c
    28e8:	1ffff018 	svcne	0x00fff018

000028ec <Dictionary_605>:
    28ec:	000029d8 	ldrdeq	r2, [r0], -r8
    28f0:	28080000 	stmdacs	r8, {}	; <UNPREDICTABLE>
    28f4:	61657263 	cmnvs	r5, r3, ror #4
    28f8:	00296574 	eoreq	r6, r9, r4, ror r5

000028fc <Code_605>:
    28fc:	b500      	push	{lr}
    28fe:	f000 fd01 	bl	3304 <Code_827>
    2902:	2e00      	cmp	r6, #0
    2904:	d10e      	bne.n	2924 <Code_605+0x28>
    2906:	f7ff fa0f 	bl	1d28 <dotgaensefuesschen>
    290a:	72432015 	subvc	r2, r3, #21
    290e:	65746165 	ldrbvs	r6, [r4, #-357]!	; 0x165
    2912:	65656e20 	strbvs	r6, [r5, #-3616]!	; 0xe20
    2916:	6e207364 	cdpvs	3, 2, cr7, cr0, cr4, {3}
    291a:	20656d61 	rsbcs	r6, r5, r1, ror #26
    291e:	f0010a21 			; <UNDEFINED> instruction: 0xf0010a21
    2922:	f862 6838 	str??.w	r6, [r2, <undefined>]
    2926:	3f04      	subs	r7, #4
    2928:	603e      	str	r6, [r7, #0]
    292a:	3f04      	subs	r7, #4
    292c:	6038      	str	r0, [r7, #0]
    292e:	f000 f9a3 	bl	2c78 <Code_668>
    2932:	cf40      	ldmia	r7!, {r6}
    2934:	2e00      	cmp	r6, #0
    2936:	cf40      	ldmia	r7!, {r6}
    2938:	d011      	beq.n	295e <Code_605+0x62>
    293a:	6838      	ldr	r0, [r7, #0]
    293c:	3f04      	subs	r7, #4
    293e:	603e      	str	r6, [r7, #0]
    2940:	3f04      	subs	r7, #4
    2942:	6038      	str	r0, [r7, #0]
    2944:	f7ff f9f0 	bl	1d28 <dotgaensefuesschen>
    2948:	64655209 	strbtvs	r5, [r5], #-521	; 0x209
    294c:	6e696665 	cdpvs	6, 6, cr6, cr9, cr5, {3}
    2950:	f7ff2065 			; <UNDEFINED> instruction: 0xf7ff2065
    2954:	fa49 f7ff 			; <UNDEFINED> instruction: 0xfa49f7ff
    2958:	f9e7 2e02 	vld3.8	{d18[]-d20[]}, [r7], r2
    295c:	f7ff000a 			; <UNDEFINED> instruction: 0xf7ff000a
    2960:	feb7 f000 	cdp2	0, 11, cr15, cr7, cr0, {0}
    2964:	fa13 488d 			; <UNDEFINED> instruction: 0xfa13488d
    2968:	6800      	ldr	r0, [r0, #0]
    296a:	498c      	ldr	r1, [pc, #560]	; (2b9c <rambuffer_ram+0x44>)
    296c:	4288      	cmp	r0, r1
    296e:	d21c      	bcs.n	29aa <create_ram>
    2970:	488b      	ldr	r0, [pc, #556]	; (2ba0 <rambuffer_ram+0x48>)
    2972:	2100      	movs	r1, #0
    2974:	6001      	str	r1, [r0, #0]
    2976:	3f04      	subs	r7, #4
    2978:	603e      	str	r6, [r7, #0]
    297a:	2606      	movs	r6, #6
    297c:	f7ff ff26 	bl	27cc <Code_594>
    2980:	f7fe f91c 	bl	bbc <Code_134>
    2984:	f7ff feef 	bl	2766 <Code_586>
    2988:	4886      	ldr	r0, [pc, #536]	; (2ba4 <rambuffer_ram+0x4c>)
    298a:	6801      	ldr	r1, [r0, #0]
    298c:	680a      	ldr	r2, [r1, #0]
    298e:	4b86      	ldr	r3, [pc, #536]	; (2ba8 <rambuffer_ram+0x50>)
    2990:	429a      	cmp	r2, r3
    2992:	d107      	bne.n	29a4 <Code_605+0xa8>
    2994:	4a81      	ldr	r2, [pc, #516]	; (2b9c <rambuffer_ram+0x44>)
    2996:	6813      	ldr	r3, [r2, #0]
    2998:	6011      	str	r1, [r2, #0]
    299a:	3f04      	subs	r7, #4
    299c:	603e      	str	r6, [r7, #0]
    299e:	f7ff fec3 	bl	2728 <Code_580>
    29a2:	6013      	str	r3, [r2, #0]
    29a4:	6006      	str	r6, [r0, #0]
    29a6:	cf40      	ldmia	r7!, {r6}
    29a8:	e010      	b.n	29cc <create_ende>

000029aa <create_ram>:
    29aa:	487e      	ldr	r0, [pc, #504]	; (2ba4 <rambuffer_ram+0x4c>)
    29ac:	3f04      	subs	r7, #4
    29ae:	603e      	str	r6, [r7, #0]
    29b0:	6806      	ldr	r6, [r0, #0]
    29b2:	f7ff feb9 	bl	2728 <Code_580>
    29b6:	3f04      	subs	r7, #4
    29b8:	603e      	str	r6, [r7, #0]
    29ba:	4e7c      	ldr	r6, [pc, #496]	; (2bac <rambuffer_ram+0x54>)
    29bc:	f7ff fe99 	bl	26f2 <Code_574>
    29c0:	4878      	ldr	r0, [pc, #480]	; (2ba4 <rambuffer_ram+0x4c>)
    29c2:	0031      	movs	r1, r6
    29c4:	cf40      	ldmia	r7!, {r6}
    29c6:	6001      	str	r1, [r0, #0]
    29c8:	f7ff fecd 	bl	2766 <Code_586>

000029cc <create_ende>:
    29cc:	4873      	ldr	r0, [pc, #460]	; (2b9c <rambuffer_ram+0x44>)
    29ce:	6801      	ldr	r1, [r0, #0]
    29d0:	4877      	ldr	r0, [pc, #476]	; (2bb0 <rambuffer_ram+0x58>)
    29d2:	6001      	str	r1, [r0, #0]
    29d4:	bd00      	pop	{pc}
    29d6:	46c0      	nop			; (mov r8, r8)

000029d8 <Dictionary_623>:
    29d8:	000029f0 	strdeq	r2, [r0], -r0
    29dc:	76080000 	strvc	r0, [r8], -r0
    29e0:	61697261 	cmnvs	r9, r1, ror #4
    29e4:	00656c62 	rsbeq	r6, r5, r2, ror #24

000029e8 <Code_623>:
    29e8:	3f04      	subs	r7, #4
    29ea:	603e      	str	r6, [r7, #0]
    29ec:	2601      	movs	r6, #1
    29ee:	e013      	b.n	2a18 <Code_629>

000029f0 <Dictionary_626>:
    29f0:	00002a08 	andeq	r2, r0, r8, lsl #20
    29f4:	32090000 	andcc	r0, r9, #0
    29f8:	69726176 	ldmdbvs	r2!, {r1, r2, r4, r5, r6, r8, sp, lr}^
    29fc:	656c6261 	strbvs	r6, [ip, #-609]!	; 0x261

00002a00 <Code_626>:
    2a00:	3f04      	subs	r7, #4
    2a02:	603e      	str	r6, [r7, #0]
    2a04:	2602      	movs	r6, #2
    2a06:	e007      	b.n	2a18 <Code_629>

00002a08 <Dictionary_629>:
    2a08:	00002ae0 	andeq	r2, r0, r0, ror #21
    2a0c:	6e090000 	cdpvs	0, 0, cr0, cr9, cr0, {0}
    2a10:	69726176 	ldmdbvs	r2!, {r1, r2, r4, r5, r6, r8, sp, lr}^
    2a14:	656c6261 	strbvs	r6, [ip, #-609]!	; 0x261

00002a18 <Code_629>:
    2a18:	b500      	push	{lr}
    2a1a:	f7ff ff6f 	bl	28fc <Code_605>
    2a1e:	485f      	ldr	r0, [pc, #380]	; (2b9c <rambuffer_ram+0x44>)
    2a20:	6801      	ldr	r1, [r0, #0]
    2a22:	4a5e      	ldr	r2, [pc, #376]	; (2b9c <rambuffer_ram+0x44>)
    2a24:	4291      	cmp	r1, r2
    2a26:	d233      	bcs.n	2a90 <variable_ram>
    2a28:	200f      	movs	r0, #15
    2a2a:	4006      	ands	r6, r0
    2a2c:	00b2      	lsls	r2, r6, #2
    2a2e:	4861      	ldr	r0, [pc, #388]	; (2bb4 <rambuffer_ram+0x5c>)
    2a30:	6801      	ldr	r1, [r0, #0]
    2a32:	1a89      	subs	r1, r1, r2
    2a34:	4a60      	ldr	r2, [pc, #384]	; (2bb8 <rambuffer_ram+0x60>)
    2a36:	4291      	cmp	r1, r2
    2a38:	d20b      	bcs.n	2a52 <Code_629+0x3a>
    2a3a:	f7ff f975 	bl	1d28 <dotgaensefuesschen>
    2a3e:	746f4e0f 	strbtvc	r4, [pc], #-3599	; 2a46 <Code_629+0x2e>
    2a42:	6f6e6520 	svcvs	0x006e6520
    2a46:	20686775 	rsbcs	r6, r8, r5, ror r7
    2a4a:	0a4d4152 	beq	1352f9a <BIT24+0x352f9a>
    2a4e:	f000 ffcb 	bl	39e8 <Code_950>
    2a52:	6001      	str	r1, [r0, #0]
    2a54:	3f04      	subs	r7, #4
    2a56:	603e      	str	r6, [r7, #0]
    2a58:	000e      	movs	r6, r1
    2a5a:	f7ff fb8f 	bl	217c <Code_469>
    2a5e:	3f04      	subs	r7, #4
    2a60:	603e      	str	r6, [r7, #0]
    2a62:	4e56      	ldr	r6, [pc, #344]	; (2bbc <rambuffer_ram+0x64>)
    2a64:	f7ff fe45 	bl	26f2 <Code_574>
    2a68:	0030      	movs	r0, r6
    2a6a:	cf40      	ldmia	r7!, {r6}
    2a6c:	0002      	movs	r2, r0
    2a6e:	2800      	cmp	r0, #0
    2a70:	d005      	beq.n	2a7e <Code_629+0x66>
    2a72:	600e      	str	r6, [r1, #0]
    2a74:	3104      	adds	r1, #4
    2a76:	f7ff fe57 	bl	2728 <Code_580>
    2a7a:	3801      	subs	r0, #1
    2a7c:	d1f9      	bne.n	2a72 <Code_629+0x5a>
    2a7e:	3f04      	subs	r7, #4
    2a80:	603e      	str	r6, [r7, #0]
    2a82:	2680      	movs	r6, #128	; 0x80
    2a84:	4316      	orrs	r6, r2
    2a86:	f7ff fddb 	bl	2640 <Code_567>
    2a8a:	f7ff fda8 	bl	25de <Code_561>
    2a8e:	bd00      	pop	{pc}

00002a90 <variable_ram>:
    2a90:	f000 f97c 	bl	2d8c <Code_690>
    2a94:	2002      	movs	r0, #2
    2a96:	4006      	ands	r6, r0
    2a98:	cf40      	ldmia	r7!, {r6}
    2a9a:	d104      	bne.n	2aa6 <variable_ram+0x16>
    2a9c:	3f04      	subs	r7, #4
    2a9e:	603e      	str	r6, [r7, #0]
    2aa0:	2636      	movs	r6, #54	; 0x36
    2aa2:	f7ff fe26 	bl	26f2 <Code_574>
    2aa6:	3f04      	subs	r7, #4
    2aa8:	603e      	str	r6, [r7, #0]
    2aaa:	4e45      	ldr	r6, [pc, #276]	; (2bc0 <rambuffer_ram+0x68>)
    2aac:	f7ff fe4b 	bl	2746 <Code_583>
    2ab0:	3f04      	subs	r7, #4
    2ab2:	603e      	str	r6, [r7, #0]
    2ab4:	4e43      	ldr	r6, [pc, #268]	; (2bc4 <rambuffer_ram+0x6c>)
    2ab6:	f7ff fe46 	bl	2746 <Code_583>
    2aba:	3f04      	subs	r7, #4
    2abc:	603e      	str	r6, [r7, #0]
    2abe:	4e3f      	ldr	r6, [pc, #252]	; (2bbc <rambuffer_ram+0x64>)
    2ac0:	f7ff fe17 	bl	26f2 <Code_574>
    2ac4:	0030      	movs	r0, r6
    2ac6:	cf40      	ldmia	r7!, {r6}
    2ac8:	2800      	cmp	r0, #0
    2aca:	d003      	beq.n	2ad4 <variable_ram+0x44>
    2acc:	f7ff fe2c 	bl	2728 <Code_580>
    2ad0:	3801      	subs	r0, #1
    2ad2:	d1fb      	bne.n	2acc <variable_ram+0x3c>
    2ad4:	f7ff fceb 	bl	24ae <Code_532>
    2ad8:	f7ff fd81 	bl	25de <Code_561>
    2adc:	bd00      	pop	{pc}
    2ade:	46c0      	nop			; (mov r8, r8)

00002ae0 <Dictionary_646>:
    2ae0:	00002bcc 	andeq	r2, r0, ip, asr #23
    2ae4:	62070000 	andvs	r0, r7, #0
    2ae8:	65666675 	strbvs	r6, [r6, #-1653]!	; 0x675
    2aec:	b5003a72 	strlt	r3, [r0, #-2674]	; 0xa72

00002aee <Code_646>:
    2aee:	b500      	push	{lr}
    2af0:	f7ff ff04 	bl	28fc <Code_605>
    2af4:	2001      	movs	r0, #1
    2af6:	4030      	ands	r0, r6
    2af8:	1836      	adds	r6, r6, r0
    2afa:	2002      	movs	r0, #2
    2afc:	4030      	ands	r0, r6
    2afe:	1836      	adds	r6, r6, r0
    2b00:	4826      	ldr	r0, [pc, #152]	; (2b9c <rambuffer_ram+0x44>)
    2b02:	6801      	ldr	r1, [r0, #0]
    2b04:	4a25      	ldr	r2, [pc, #148]	; (2b9c <rambuffer_ram+0x44>)
    2b06:	4291      	cmp	r1, r2
    2b08:	d226      	bcs.n	2b58 <rambuffer_ram>
    2b0a:	482a      	ldr	r0, [pc, #168]	; (2bb4 <rambuffer_ram+0x5c>)
    2b0c:	6801      	ldr	r1, [r0, #0]
    2b0e:	1b89      	subs	r1, r1, r6
    2b10:	4a29      	ldr	r2, [pc, #164]	; (2bb8 <rambuffer_ram+0x60>)
    2b12:	4291      	cmp	r1, r2
    2b14:	d20b      	bcs.n	2b2e <Code_646+0x40>
    2b16:	f7ff f907 	bl	1d28 <dotgaensefuesschen>
    2b1a:	746f4e0f 	strbtvc	r4, [pc], #-3599	; 2b22 <Code_646+0x34>
    2b1e:	6f6e6520 	svcvs	0x006e6520
    2b22:	20686775 	rsbcs	r6, r8, r5, ror r7
    2b26:	0a4d4152 	beq	1353076 <BIT24+0x353076>
    2b2a:	f000 ff5d 	bl	39e8 <Code_950>
    2b2e:	6001      	str	r1, [r0, #0]
    2b30:	3f04      	subs	r7, #4
    2b32:	603e      	str	r6, [r7, #0]
    2b34:	000e      	movs	r6, r1
    2b36:	f7ff fb21 	bl	217c <Code_469>
    2b3a:	3f04      	subs	r7, #4
    2b3c:	603e      	str	r6, [r7, #0]
    2b3e:	4e1f      	ldr	r6, [pc, #124]	; (2bbc <rambuffer_ram+0x64>)
    2b40:	f7ff fdd7 	bl	26f2 <Code_574>
    2b44:	f7ff fdf0 	bl	2728 <Code_580>
    2b48:	3f04      	subs	r7, #4
    2b4a:	603e      	str	r6, [r7, #0]
    2b4c:	4e1e      	ldr	r6, [pc, #120]	; (2bc8 <rambuffer_ram+0x70>)
    2b4e:	f7ff fd77 	bl	2640 <Code_567>
    2b52:	f7ff fd44 	bl	25de <Code_561>
    2b56:	bd00      	pop	{pc}

00002b58 <rambuffer_ram>:
    2b58:	f000 f918 	bl	2d8c <Code_690>
    2b5c:	2002      	movs	r0, #2
    2b5e:	4006      	ands	r6, r0
    2b60:	cf40      	ldmia	r7!, {r6}
    2b62:	d104      	bne.n	2b6e <rambuffer_ram+0x16>
    2b64:	3f04      	subs	r7, #4
    2b66:	603e      	str	r6, [r7, #0]
    2b68:	2636      	movs	r6, #54	; 0x36
    2b6a:	f7ff fdc2 	bl	26f2 <Code_574>
    2b6e:	3f04      	subs	r7, #4
    2b70:	603e      	str	r6, [r7, #0]
    2b72:	4e13      	ldr	r6, [pc, #76]	; (2bc0 <rambuffer_ram+0x68>)
    2b74:	f7ff fde7 	bl	2746 <Code_583>
    2b78:	3f04      	subs	r7, #4
    2b7a:	603e      	str	r6, [r7, #0]
    2b7c:	4e11      	ldr	r6, [pc, #68]	; (2bc4 <rambuffer_ram+0x6c>)
    2b7e:	f7ff fde2 	bl	2746 <Code_583>
    2b82:	3f04      	subs	r7, #4
    2b84:	603e      	str	r6, [r7, #0]
    2b86:	4e0d      	ldr	r6, [pc, #52]	; (2bbc <rambuffer_ram+0x64>)
    2b88:	f7ff fdb3 	bl	26f2 <Code_574>
    2b8c:	f7ff fe1e 	bl	27cc <Code_594>
    2b90:	f7ff fc8d 	bl	24ae <Code_532>
    2b94:	f7ff fd23 	bl	25de <Code_561>
    2b98:	bd00      	pop	{pc}
    2b9a:	f0000000 			; <UNDEFINED> instruction: 0xf0000000
    2b9e:	f0201fff 			; <UNDEFINED> instruction: 0xf0201fff
    2ba2:	f0041fff 			; <UNDEFINED> instruction: 0xf0041fff
    2ba6:	ffff1fff 			; <UNDEFINED> instruction: 0xffff1fff
    2baa:	ffffffff 			; <UNDEFINED> instruction: 0xffffffff
    2bae:	f0140000 			; <UNDEFINED> instruction: 0xf0140000
    2bb2:	f0241fff 			; <UNDEFINED> instruction: 0xf0241fff
    2bb6:	f3f01fff 			; <UNDEFINED> instruction: 0xf3f01fff
    2bba:	47701fff 			; <UNDEFINED> instruction: 0x47701fff
    2bbe:	603e0000 	eorsvs	r0, lr, r0
    2bc2:	36023f04 	strcc	r3, [r2], -r4, lsl #30
    2bc6:	0140467e 	hvceq	1134	; 0x46e
	...

00002bcc <Dictionary_661>:
    2bcc:	00002bfc 	strdeq	r2, [r0], -ip
    2bd0:	640f0000 	strvs	r0, [pc], #0	; 2bd8 <Dictionary_661+0xc>
    2bd4:	69746369 	ldmdbvs	r4!, {r0, r3, r5, r6, r8, r9, sp, lr}^
    2bd8:	72616e6f 	rsbvc	r6, r1, #1776	; 0x6f0
    2bdc:	61747379 	cmnvs	r4, r9, ror r3
    2be0:	48eb7472 	stmiami	fp!, {r1, r4, r5, r6, sl, ip, sp, lr}^

00002be2 <Code_661>:
    2be2:	48eb      	ldr	r0, [pc, #940]	; (2f90 <Code_737+0x10>)
    2be4:	6800      	ldr	r0, [r0, #0]
    2be6:	49ea      	ldr	r1, [pc, #936]	; (2f90 <Code_737+0x10>)
    2be8:	3f04      	subs	r7, #4
    2bea:	603e      	str	r6, [r7, #0]
    2bec:	4288      	cmp	r0, r1
    2bee:	d201      	bcs.n	2bf4 <Code_661+0x12>
    2bf0:	4ee8      	ldr	r6, [pc, #928]	; (2f94 <Code_737+0x14>)
    2bf2:	4770      	bx	lr
    2bf4:	4ee8      	ldr	r6, [pc, #928]	; (2f98 <Code_737+0x18>)
    2bf6:	6836      	ldr	r6, [r6, #0]
    2bf8:	4770      	bx	lr
    2bfa:	46c0      	nop			; (mov r8, r8)

00002bfc <Dictionary_663>:
    2bfc:	00002c38 	andeq	r2, r0, r8, lsr ip
    2c00:	640e0000 	strvs	r0, [lr]
    2c04:	69746369 	ldmdbvs	r4!, {r0, r3, r5, r6, r8, r9, sp, lr}^
    2c08:	72616e6f 	rsbvc	r6, r1, #1776	; 0x6f0
    2c0c:	78656e79 	stmdavc	r5!, {r0, r3, r4, r5, r6, r9, sl, fp, sp, lr}^
    2c10:	b5030074 	strlt	r0, [r3, #-116]	; 0x74

00002c12 <Code_663>:
    2c12:	b503      	push	{r0, r1, lr}
    2c14:	6831      	ldr	r1, [r6, #0]
    2c16:	48e1      	ldr	r0, [pc, #900]	; (2f9c <Code_737+0x1c>)
    2c18:	4281      	cmp	r1, r0
    2c1a:	d007      	beq.n	2c2c <Code_663+0x1a>
    2c1c:	7988      	ldrb	r0, [r1, #6]
    2c1e:	28ff      	cmp	r0, #255	; 0xff
    2c20:	d004      	beq.n	2c2c <Code_663+0x1a>
    2c22:	000e      	movs	r6, r1
    2c24:	3f04      	subs	r7, #4
    2c26:	603e      	str	r6, [r7, #0]
    2c28:	2600      	movs	r6, #0
    2c2a:	bd03      	pop	{r0, r1, pc}
    2c2c:	3f04      	subs	r7, #4
    2c2e:	603e      	str	r6, [r7, #0]
    2c30:	2600      	movs	r6, #0
    2c32:	43f6      	mvns	r6, r6
    2c34:	bd03      	pop	{r0, r1, pc}
    2c36:	46c0      	nop			; (mov r8, r8)

00002c38 <Dictionary_667>:
    2c38:	00002c6c 	andeq	r2, r0, ip, ror #24
    2c3c:	730a0000 	movwvc	r0, #40960	; 0xa000
    2c40:	7370696b 	cmnvc	r0, #1753088	; 0x1ac000
    2c44:	6e697274 	mcrvs	2, 3, r7, cr9, cr4, {3}
    2c48:	78310067 	ldmdavc	r1!, {r0, r1, r2, r5, r6}

00002c4a <Code_667>:
    2c4a:	7831      	ldrb	r1, [r6, #0]
    2c4c:	3101      	adds	r1, #1
    2c4e:	2201      	movs	r2, #1
    2c50:	400a      	ands	r2, r1
    2c52:	1889      	adds	r1, r1, r2
    2c54:	1876      	adds	r6, r6, r1
    2c56:	4770      	bx	lr

00002c58 <skipstring>:
    2c58:	b406      	push	{r1, r2}
    2c5a:	7801      	ldrb	r1, [r0, #0]
    2c5c:	3101      	adds	r1, #1
    2c5e:	2201      	movs	r2, #1
    2c60:	400a      	ands	r2, r1
    2c62:	1889      	adds	r1, r1, r2
    2c64:	1840      	adds	r0, r0, r1
    2c66:	bc06      	pop	{r1, r2}
    2c68:	4770      	bx	lr
    2c6a:	46c0      	nop			; (mov r8, r8)

00002c6c <Dictionary_668>:
    2c6c:	00002cec 	andeq	r2, r0, ip, ror #25
    2c70:	66040000 	strvs	r0, [r4], -r0
    2c74:	00646e69 	rsbeq	r6, r4, r9, ror #28

00002c78 <Code_668>:
    2c78:	b53f      	push	{r0, r1, r2, r3, r4, r5, lr}
    2c7a:	2200      	movs	r2, #0
    2c7c:	2300      	movs	r3, #0
    2c7e:	0035      	movs	r5, r6
    2c80:	cf40      	ldmia	r7!, {r6}
    2c82:	0034      	movs	r4, r6
    2c84:	cf40      	ldmia	r7!, {r6}
    2c86:	f7ff ffac 	bl	2be2 <Code_661>
    2c8a:	48c5      	ldr	r0, [pc, #788]	; (2fa0 <Code_737+0x20>)
    2c8c:	88b1      	ldrh	r1, [r6, #4]
    2c8e:	4288      	cmp	r0, r1
    2c90:	d017      	beq.n	2cc2 <Code_668+0x4a>
    2c92:	3f04      	subs	r7, #4
    2c94:	603e      	str	r6, [r7, #0]
    2c96:	3606      	adds	r6, #6
    2c98:	f7ff f886 	bl	1da8 <Code_386>
    2c9c:	3f04      	subs	r7, #4
    2c9e:	603e      	str	r6, [r7, #0]
    2ca0:	0026      	movs	r6, r4
    2ca2:	3f04      	subs	r7, #4
    2ca4:	603e      	str	r6, [r7, #0]
    2ca6:	002e      	movs	r6, r5
    2ca8:	f7fe ffb1 	bl	1c0e <Code_348>
    2cac:	2e00      	cmp	r6, #0
    2cae:	cf40      	ldmia	r7!, {r6}
    2cb0:	d007      	beq.n	2cc2 <Code_668+0x4a>
    2cb2:	1db0      	adds	r0, r6, #6
    2cb4:	f7ff ffd0 	bl	2c58 <skipstring>
    2cb8:	0002      	movs	r2, r0
    2cba:	000b      	movs	r3, r1
    2cbc:	48b4      	ldr	r0, [pc, #720]	; (2f90 <Code_737+0x10>)
    2cbe:	4282      	cmp	r2, r0
    2cc0:	d204      	bcs.n	2ccc <Code_668+0x54>
    2cc2:	f7ff ffa6 	bl	2c12 <Code_663>
    2cc6:	0030      	movs	r0, r6
    2cc8:	cf40      	ldmia	r7!, {r6}
    2cca:	d0de      	beq.n	2c8a <Code_668+0x12>
    2ccc:	0016      	movs	r6, r2
    2cce:	3f04      	subs	r7, #4
    2cd0:	603e      	str	r6, [r7, #0]
    2cd2:	001e      	movs	r6, r3
    2cd4:	bd3f      	pop	{r0, r1, r2, r3, r4, r5, pc}

00002cd6 <find_not_found>:
    2cd6:	b500      	push	{lr}
    2cd8:	0031      	movs	r1, r6
    2cda:	6838      	ldr	r0, [r7, #0]
    2cdc:	f7ff ffcc 	bl	2c78 <Code_668>
    2ce0:	683a      	ldr	r2, [r7, #0]
    2ce2:	2a00      	cmp	r2, #0
    2ce4:	d101      	bne.n	2cea <find_not_found+0x14>
    2ce6:	f000 fd77 	bl	37d8 <not_found_addr_r0_len_r1>
    2cea:	bd00      	pop	{pc}

00002cec <Dictionary_681>:
    2cec:	00002d48 	andeq	r2, r0, r8, asr #26
    2cf0:	63060000 	movwvs	r0, #24576	; 0x6000
    2cf4:	706d756a 	rsbvc	r7, sp, sl, ror #10
    2cf8:	0032002c 	eorseq	r0, r2, ip, lsr #32

00002cfa <Code_681>:
    2cfa:	0032      	movs	r2, r6
    2cfc:	cf40      	ldmia	r7!, {r6}
    2cfe:	0031      	movs	r1, r6
    2d00:	cf40      	ldmia	r7!, {r6}
    2d02:	1b8b      	subs	r3, r1, r6
    2d04:	3b04      	subs	r3, #4
    2d06:	49a7      	ldr	r1, [pc, #668]	; (2fa4 <Code_737+0x24>)
    2d08:	4019      	ands	r1, r3
    2d0a:	2900      	cmp	r1, #0
    2d0c:	d00d      	beq.n	2d2a <jump_too_far+0x16>
    2d0e:	48a6      	ldr	r0, [pc, #664]	; (2fa8 <Code_737+0x28>)
    2d10:	4281      	cmp	r1, r0
    2d12:	d00a      	beq.n	2d2a <jump_too_far+0x16>

00002d14 <jump_too_far>:
    2d14:	f7ff f808 	bl	1d28 <dotgaensefuesschen>
    2d18:	6d754a0d 	vldmdbvs	r5!, {s9-s21}
    2d1c:	6f742070 	svcvs	0x00742070
    2d20:	6166206f 	cmnvs	r6, pc, rrx
    2d24:	f0000a72 			; <UNDEFINED> instruction: 0xf0000a72
    2d28:	fe5f 105b 	mrc2	0, 2, r1, cr15, cr11, {2}
    2d2c:	21ff      	movs	r1, #255	; 0xff
    2d2e:	400b      	ands	r3, r1
    2d30:	4313      	orrs	r3, r2
    2d32:	0030      	movs	r0, r6
    2d34:	001e      	movs	r6, r3

00002d36 <sprungbefehl_einfuegen>:
    2d36:	b500      	push	{lr}
    2d38:	4a95      	ldr	r2, [pc, #596]	; (2f90 <Code_737+0x10>)
    2d3a:	6813      	ldr	r3, [r2, #0]
    2d3c:	6010      	str	r0, [r2, #0]
    2d3e:	f7ff fcd8 	bl	26f2 <Code_574>
    2d42:	6013      	str	r3, [r2, #0]
    2d44:	bd00      	pop	{pc}
    2d46:	46c0      	nop			; (mov r8, r8)

00002d48 <Dictionary_685>:
    2d48:	00002d80 	andeq	r2, r0, r0, lsl #27
    2d4c:	6a050000 	bvs	142d54 <BIT20+0x42d54>
    2d50:	2c706d75 	ldclcs	13, cr6, [r0], #-468	; 0xfffffe2c

00002d54 <Code_685>:
    2d54:	0031      	movs	r1, r6
    2d56:	cf40      	ldmia	r7!, {r6}
    2d58:	0030      	movs	r0, r6
    2d5a:	cf40      	ldmia	r7!, {r6}
    2d5c:	1a0b      	subs	r3, r1, r0
    2d5e:	3b04      	subs	r3, #4
    2d60:	4992      	ldr	r1, [pc, #584]	; (2fac <Code_737+0x2c>)
    2d62:	4019      	ands	r1, r3
    2d64:	2900      	cmp	r1, #0
    2d66:	d002      	beq.n	2d6e <Code_685+0x1a>
    2d68:	4a91      	ldr	r2, [pc, #580]	; (2fb0 <Code_737+0x30>)
    2d6a:	4291      	cmp	r1, r2
    2d6c:	d1d2      	bne.n	2d14 <jump_too_far>
    2d6e:	105b      	asrs	r3, r3, #1
    2d70:	4a90      	ldr	r2, [pc, #576]	; (2fb4 <Code_737+0x34>)
    2d72:	4013      	ands	r3, r2
    2d74:	4a90      	ldr	r2, [pc, #576]	; (2fb8 <Code_737+0x38>)
    2d76:	4313      	orrs	r3, r2
    2d78:	3f04      	subs	r7, #4
    2d7a:	603e      	str	r6, [r7, #0]
    2d7c:	001e      	movs	r6, r3
    2d7e:	e7da      	b.n	2d36 <sprungbefehl_einfuegen>

00002d80 <Dictionary_690>:
    2d80:	00002d98 	muleq	r0, r8, sp
    2d84:	68040000 	stmdavs	r4, {}	; <UNPREDICTABLE>
    2d88:	00657265 	rsbeq	r7, r5, r5, ror #4

00002d8c <Code_690>:
    2d8c:	3f04      	subs	r7, #4
    2d8e:	603e      	str	r6, [r7, #0]
    2d90:	4e7f      	ldr	r6, [pc, #508]	; (2f90 <Code_737+0x10>)
    2d92:	6836      	ldr	r6, [r6, #0]
    2d94:	4770      	bx	lr
    2d96:	46c0      	nop			; (mov r8, r8)

00002d98 <Dictionary_692>:
    2d98:	00002e88 	andeq	r2, r0, r8, lsl #29
    2d9c:	660d0000 	strvs	r0, [sp], -r0
    2da0:	6873616c 	ldmdavs	r3!, {r2, r3, r5, r6, r8, sp, lr}^
    2da4:	2d726176 	ldfcse	f6, [r2, #-472]!	; 0xfffffe28
    2da8:	65726568 	ldrbvs	r6, [r2, #-1384]!	; 0x568

00002dac <Code_692>:
    2dac:	3f04      	subs	r7, #4
    2dae:	603e      	str	r6, [r7, #0]
    2db0:	4e82      	ldr	r6, [pc, #520]	; (2fbc <Code_737+0x3c>)
    2db2:	6836      	ldr	r6, [r6, #0]
    2db4:	4770      	bx	lr

00002db6 <nullprobekomma>:
    2db6:	b500      	push	{lr}
    2db8:	3f04      	subs	r7, #4
    2dba:	603e      	str	r6, [r7, #0]
    2dbc:	4e80      	ldr	r6, [pc, #512]	; (2fc0 <Code_737+0x40>)
    2dbe:	f7ff fc98 	bl	26f2 <Code_574>
    2dc2:	3f04      	subs	r7, #4
    2dc4:	603e      	str	r6, [r7, #0]
    2dc6:	4e7f      	ldr	r6, [pc, #508]	; (2fc4 <Code_737+0x44>)
    2dc8:	f7ff fc93 	bl	26f2 <Code_574>
    2dcc:	bd00      	pop	{pc}

00002dce <branch_r>:
    2dce:	e7dd      	b.n	2d8c <Code_690>

00002dd0 <r_branch_jne>:
    2dd0:	b500      	push	{lr}
    2dd2:	f000 f837 	bl	2e44 <branch_v>
    2dd6:	6839      	ldr	r1, [r7, #0]
    2dd8:	603e      	str	r6, [r7, #0]
    2dda:	460e      	mov	r6, r1
    2ddc:	3f04      	subs	r7, #4
    2dde:	603e      	str	r6, [r7, #0]
    2de0:	4e79      	ldr	r6, [pc, #484]	; (2fc8 <Code_737+0x48>)
    2de2:	f7ff ff8a 	bl	2cfa <Code_681>
    2de6:	bd00      	pop	{pc}

00002de8 <r_branch_jvc>:
    2de8:	b500      	push	{lr}
    2dea:	f000 f82b 	bl	2e44 <branch_v>
    2dee:	6839      	ldr	r1, [r7, #0]
    2df0:	603e      	str	r6, [r7, #0]
    2df2:	460e      	mov	r6, r1
    2df4:	3f04      	subs	r7, #4
    2df6:	603e      	str	r6, [r7, #0]
    2df8:	4e74      	ldr	r6, [pc, #464]	; (2fcc <Code_737+0x4c>)
    2dfa:	f7ff ff7e 	bl	2cfa <Code_681>
    2dfe:	bd00      	pop	{pc}

00002e00 <r_nullbranch>:
    2e00:	b500      	push	{lr}
    2e02:	f7ff ffd8 	bl	2db6 <nullprobekomma>
    2e06:	f000 f81d 	bl	2e44 <branch_v>
    2e0a:	6839      	ldr	r1, [r7, #0]
    2e0c:	603e      	str	r6, [r7, #0]
    2e0e:	460e      	mov	r6, r1
    2e10:	3f04      	subs	r7, #4
    2e12:	603e      	str	r6, [r7, #0]
    2e14:	4e6e      	ldr	r6, [pc, #440]	; (2fd0 <Code_737+0x50>)
    2e16:	f7ff ff70 	bl	2cfa <Code_681>
    2e1a:	bd00      	pop	{pc}

00002e1c <r_branch>:
    2e1c:	b500      	push	{lr}
    2e1e:	f000 f811 	bl	2e44 <branch_v>
    2e22:	6839      	ldr	r1, [r7, #0]
    2e24:	603e      	str	r6, [r7, #0]
    2e26:	460e      	mov	r6, r1
    2e28:	f7ff ff94 	bl	2d54 <Code_685>
    2e2c:	bd00      	pop	{pc}

00002e2e <nullbranch_v>:
    2e2e:	b500      	push	{lr}
    2e30:	f7ff ffc1 	bl	2db6 <nullprobekomma>
    2e34:	f7ff ffaa 	bl	2d8c <Code_690>
    2e38:	3f04      	subs	r7, #4
    2e3a:	603e      	str	r6, [r7, #0]
    2e3c:	2602      	movs	r6, #2
    2e3e:	f7ff fcc5 	bl	27cc <Code_594>
    2e42:	bd00      	pop	{pc}

00002e44 <branch_v>:
    2e44:	b500      	push	{lr}
    2e46:	f7ff ffa1 	bl	2d8c <Code_690>
    2e4a:	3f04      	subs	r7, #4
    2e4c:	603e      	str	r6, [r7, #0]
    2e4e:	2602      	movs	r6, #2
    2e50:	f7ff fcbc 	bl	27cc <Code_594>
    2e54:	bd00      	pop	{pc}

00002e56 <v_branch>:
    2e56:	b500      	push	{lr}
    2e58:	f7ff ff98 	bl	2d8c <Code_690>
    2e5c:	f7ff ff7a 	bl	2d54 <Code_685>
    2e60:	bd00      	pop	{pc}

00002e62 <v_nullbranch>:
    2e62:	b500      	push	{lr}
    2e64:	f7ff ff92 	bl	2d8c <Code_690>
    2e68:	3f04      	subs	r7, #4
    2e6a:	603e      	str	r6, [r7, #0]
    2e6c:	4e58      	ldr	r6, [pc, #352]	; (2fd0 <Code_737+0x50>)
    2e6e:	f7ff ff44 	bl	2cfa <Code_681>
    2e72:	bd00      	pop	{pc}

00002e74 <v_casebranch>:
    2e74:	b500      	push	{lr}
    2e76:	f7ff ff89 	bl	2d8c <Code_690>
    2e7a:	3f04      	subs	r7, #4
    2e7c:	603e      	str	r6, [r7, #0]
    2e7e:	4e52      	ldr	r6, [pc, #328]	; (2fc8 <Code_737+0x48>)
    2e80:	f7ff ff3b 	bl	2cfa <Code_681>
    2e84:	bd00      	pop	{pc}
    2e86:	46c0      	nop			; (mov r8, r8)

00002e88 <Dictionary_716>:
    2e88:	00002ec4 	andeq	r2, r0, r4, asr #29
    2e8c:	74040030 	strvc	r0, [r4], #-48	; 0x30
    2e90:	006e6568 	rsbeq	r6, lr, r8, ror #10

00002e94 <Code_716>:
    2e94:	2e05      	cmp	r6, #5
    2e96:	d101      	bne.n	2e9c <Code_716+0x8>
    2e98:	cf40      	ldmia	r7!, {r6}
    2e9a:	e7dc      	b.n	2e56 <v_branch>
    2e9c:	2e02      	cmp	r6, #2
    2e9e:	d101      	bne.n	2ea4 <strukturen_passen_nicht>
    2ea0:	cf40      	ldmia	r7!, {r6}
    2ea2:	e7de      	b.n	2e62 <v_nullbranch>

00002ea4 <strukturen_passen_nicht>:
    2ea4:	f7fe ff40 	bl	1d28 <dotgaensefuesschen>
    2ea8:	72745317 	rsbsvc	r5, r4, #1543503872	; 0x5c000000
    2eac:	75746375 	ldrbvc	r6, [r4, #-885]!	; 0x375
    2eb0:	20736572 	rsbscs	r6, r3, r2, ror r5
    2eb4:	276e6f64 	strbcs	r6, [lr, -r4, ror #30]!
    2eb8:	616d2074 	smcvs	53764	; 0xd204
    2ebc:	0a686374 	beq	1a1bc94 <BIT24+0xa1bc94>
    2ec0:	f000 fd92 	bl	39e8 <Code_950>

00002ec4 <Dictionary_720>:
    2ec4:	00002ef0 	strdeq	r2, [r0], -r0
    2ec8:	65040030 	strvs	r0, [r4, #-48]	; 0x30
    2ecc:	0065736c 	rsbeq	r7, r5, ip, ror #6

00002ed0 <Code_720>:
    2ed0:	b500      	push	{lr}
    2ed2:	2e02      	cmp	r6, #2
    2ed4:	d1e6      	bne.n	2ea4 <strukturen_passen_nicht>
    2ed6:	cf40      	ldmia	r7!, {r6}
    2ed8:	f7ff ffb4 	bl	2e44 <branch_v>
    2edc:	6839      	ldr	r1, [r7, #0]
    2ede:	603e      	str	r6, [r7, #0]
    2ee0:	460e      	mov	r6, r1
    2ee2:	f7ff ffbe 	bl	2e62 <v_nullbranch>
    2ee6:	3f04      	subs	r7, #4
    2ee8:	603e      	str	r6, [r7, #0]
    2eea:	2605      	movs	r6, #5
    2eec:	bd00      	pop	{pc}
    2eee:	46c0      	nop			; (mov r8, r8)

00002ef0 <Dictionary_725>:
    2ef0:	00002f08 	andeq	r2, r0, r8, lsl #30
    2ef4:	69020030 	stmdbvs	r2, {r4, r5}
    2ef8:	b5000066 	strlt	r0, [r0, #-102]	; 0x66

00002efa <Code_725>:
    2efa:	b500      	push	{lr}
    2efc:	f7ff ff97 	bl	2e2e <nullbranch_v>
    2f00:	3f04      	subs	r7, #4
    2f02:	603e      	str	r6, [r7, #0]
    2f04:	2602      	movs	r6, #2
    2f06:	bd00      	pop	{pc}

00002f08 <Dictionary_728>:
    2f08:	00002f30 	andeq	r2, r0, r0, lsr pc
    2f0c:	72060030 	andvc	r0, r6, #48	; 0x30
    2f10:	61657065 	cmnvs	r5, r5, rrx
    2f14:	2e040074 	mcrcs	0, 0, r0, cr4, cr4, {3}

00002f16 <Code_728>:
    2f16:	2e04      	cmp	r6, #4
    2f18:	d1c4      	bne.n	2ea4 <strukturen_passen_nicht>
    2f1a:	cf40      	ldmia	r7!, {r6}
    2f1c:	6839      	ldr	r1, [r7, #0]
    2f1e:	603e      	str	r6, [r7, #0]
    2f20:	460e      	mov	r6, r1
    2f22:	b500      	push	{lr}
    2f24:	f7ff ff7a 	bl	2e1c <r_branch>
    2f28:	f7ff ff9b 	bl	2e62 <v_nullbranch>
    2f2c:	bd00      	pop	{pc}
    2f2e:	46c0      	nop			; (mov r8, r8)

00002f30 <Dictionary_731>:
    2f30:	00002f4c 	andeq	r2, r0, ip, asr #30
    2f34:	77050030 	smladxvc	r5, r0, r0, r0
    2f38:	656c6968 	strbvs	r6, [ip, #-2408]!	; 0x968

00002f3c <Code_731>:
    2f3c:	2e01      	cmp	r6, #1
    2f3e:	d1b1      	bne.n	2ea4 <strukturen_passen_nicht>
    2f40:	cf40      	ldmia	r7!, {r6}
    2f42:	b500      	push	{lr}
    2f44:	f7ff ffd9 	bl	2efa <Code_725>
    2f48:	3602      	adds	r6, #2
    2f4a:	bd00      	pop	{pc}

00002f4c <Dictionary_733>:
    2f4c:	00002f60 	andeq	r2, r0, r0, ror #30
    2f50:	75050030 	strvc	r0, [r5, #-48]	; 0x30
    2f54:	6c69746e 	cfstrdvs	mvd7, [r9], #-440	; 0xfffffe48

00002f58 <Code_733>:
    2f58:	2e01      	cmp	r6, #1
    2f5a:	d1a3      	bne.n	2ea4 <strukturen_passen_nicht>
    2f5c:	cf40      	ldmia	r7!, {r6}
    2f5e:	e74f      	b.n	2e00 <r_nullbranch>

00002f60 <Dictionary_735>:
    2f60:	00002f74 	andeq	r2, r0, r4, ror pc
    2f64:	61050030 	tstvs	r5, r0, lsr r0
    2f68:	6e696167 	powvsez	f6, f1, f7

00002f6c <Code_735>:
    2f6c:	2e01      	cmp	r6, #1
    2f6e:	d199      	bne.n	2ea4 <strukturen_passen_nicht>
    2f70:	cf40      	ldmia	r7!, {r6}
    2f72:	e753      	b.n	2e1c <r_branch>

00002f74 <Dictionary_737>:
    2f74:	00002fd4 	ldrdeq	r2, [r0], -r4
    2f78:	62050030 	andvs	r0, r5, #48	; 0x30
    2f7c:	6e696765 	cdpvs	7, 6, cr6, cr9, cr5, {3}

00002f80 <Code_737>:
    2f80:	b500      	push	{lr}
    2f82:	f7ff ff24 	bl	2dce <branch_r>
    2f86:	3f04      	subs	r7, #4
    2f88:	603e      	str	r6, [r7, #0]
    2f8a:	2601      	movs	r6, #1
    2f8c:	bd00      	pop	{pc}
    2f8e:	f0000000 			; <UNDEFINED> instruction: 0xf0000000
    2f92:	04101fff 	ldreq	r1, [r0], #-4095	; 0xfff
    2f96:	f0040000 			; <UNDEFINED> instruction: 0xf0040000
    2f9a:	ffff1fff 			; <UNDEFINED> instruction: 0xffff1fff
    2f9e:	ffffffff 			; <UNDEFINED> instruction: 0xffffffff
    2fa2:	ff010000 			; <UNDEFINED> instruction: 0xff010000
    2fa6:	ff00ffff 			; <UNDEFINED> instruction: 0xff00ffff
    2faa:	f801ffff 			; <UNDEFINED> instruction: 0xf801ffff
    2fae:	f800ffff 			; <UNDEFINED> instruction: 0xf800ffff
    2fb2:	07ffffff 			; <UNDEFINED> instruction: 0x07ffffff
    2fb6:	e0000000 	and	r0, r0, r0
    2fba:	f0240000 			; <UNDEFINED> instruction: 0xf0240000
    2fbe:	2e001fff 	mcrcs	15, 0, r1, cr0, cr15, {7}
    2fc2:	cf400000 	svcgt	0x00400000
    2fc6:	d1000000 	mrsle	r0, (UNDEF: 0)
    2fca:	d7000000 	strle	r0, [r0, -r0]
    2fce:	d0000000 	andle	r0, r0, r0
	...

00002fd4 <Dictionary_740>:
    2fd4:	00002fe4 	andeq	r2, r0, r4, ror #31
    2fd8:	6b010020 	blvs	43060 <BIT18+0x3060>

00002fdc <Code_740>:
    2fdc:	3f04      	subs	r7, #4
    2fde:	603e      	str	r6, [r7, #0]
    2fe0:	9e02      	ldr	r6, [sp, #8]
    2fe2:	4770      	bx	lr

00002fe4 <Dictionary_742>:
    2fe4:	00002ff4 	strdeq	r2, [r0], -r4
    2fe8:	6a010020 	bvs	43070 <BIT18+0x3070>

00002fec <Code_742>:
    2fec:	3f04      	subs	r7, #4
    2fee:	603e      	str	r6, [r7, #0]
    2ff0:	9e00      	ldr	r6, [sp, #0]
    2ff2:	4770      	bx	lr

00002ff4 <Dictionary_744>:
    2ff4:	00003004 	andeq	r3, r0, r4
    2ff8:	69010020 	stmdbvs	r1, {r5}

00002ffc <Code_744>:
    2ffc:	3f04      	subs	r7, #4
    2ffe:	603e      	str	r6, [r7, #0]
    3000:	0026      	movs	r6, r4
    3002:	4770      	bx	lr

00003004 <Dictionary_747>:
    3004:	00003044 	andeq	r3, r0, r4, asr #32
    3008:	6c050030 	stcvs	0, cr0, [r5], {48}	; 0x30
    300c:	65766165 	ldrbvs	r6, [r6, #-357]!	; 0x165

00003010 <Code_747>:
    3010:	b500      	push	{lr}
    3012:	48d4      	ldr	r0, [pc, #848]	; (3364 <Code_829+0x4c>)
    3014:	6801      	ldr	r1, [r0, #0]
    3016:	003b      	movs	r3, r7
    3018:	3f04      	subs	r7, #4
    301a:	681a      	ldr	r2, [r3, #0]
    301c:	3b04      	subs	r3, #4
    301e:	601a      	str	r2, [r3, #0]
    3020:	3308      	adds	r3, #8
    3022:	428b      	cmp	r3, r1
    3024:	d1f9      	bne.n	301a <Code_747+0xa>
    3026:	b403      	push	{r0, r1}
    3028:	f7ff ff0c 	bl	2e44 <branch_v>
    302c:	bc03      	pop	{r0, r1}
    302e:	0033      	movs	r3, r6
    3030:	cf40      	ldmia	r7!, {r6}
    3032:	3904      	subs	r1, #4
    3034:	600b      	str	r3, [r1, #0]
    3036:	6001      	str	r1, [r0, #0]
    3038:	3904      	subs	r1, #4
    303a:	680a      	ldr	r2, [r1, #0]
    303c:	3201      	adds	r2, #1
    303e:	600a      	str	r2, [r1, #0]
    3040:	bd00      	pop	{pc}
    3042:	46c0      	nop			; (mov r8, r8)

00003044 <Dictionary_749>:
    3044:	00003058 	andeq	r3, r0, r8, asr r0
    3048:	75060020 	strvc	r0, [r6, #-32]
    304c:	6f6f6c6e 	svcvs	0x006f6c6e
    3050:	bc300070 	ldclt	0, cr0, [r0], #-448	; 0xfffffe40

00003052 <Code_749>:
    3052:	bc30      	pop	{r4, r5}
    3054:	4770      	bx	lr
    3056:	46c0      	nop			; (mov r8, r8)

00003058 <Dictionary_750>:
    3058:	00003090 	muleq	r0, r0, r0
    305c:	2b050030 	blcs	143124 <BIT20+0x43124>
    3060:	706f6f6c 	rsbvc	r6, pc, ip, ror #30

00003064 <Code_750>:
    3064:	2e03      	cmp	r6, #3
    3066:	d000      	beq.n	306a <Code_750+0x6>
    3068:	e71c      	b.n	2ea4 <strukturen_passen_nicht>
    306a:	cf40      	ldmia	r7!, {r6}
    306c:	b500      	push	{lr}
    306e:	3f04      	subs	r7, #4
    3070:	603e      	str	r6, [r7, #0]
    3072:	4ebd      	ldr	r6, [pc, #756]	; (3368 <Code_829+0x50>)
    3074:	f7ff f94f 	bl	2316 <Code_499>
    3078:	f7ff feb6 	bl	2de8 <r_branch_jvc>
    307c:	e01a      	b.n	30b4 <loop_intern>

0000307e <struktur_plusloop>:
    307e:	2080      	movs	r0, #128	; 0x80
    3080:	0600      	lsls	r0, r0, #24
    3082:	1900      	adds	r0, r0, r4
    3084:	19a4      	adds	r4, r4, r6
    3086:	1b40      	subs	r0, r0, r5
    3088:	1980      	adds	r0, r0, r6
    308a:	cf40      	ldmia	r7!, {r6}
    308c:	4770      	bx	lr
    308e:	46c0      	nop			; (mov r8, r8)

00003090 <Dictionary_754>:
    3090:	000030d4 	ldrdeq	r3, [r0], -r4
    3094:	6c040030 	stcvs	0, cr0, [r4], {48}	; 0x30
    3098:	00706f6f 	rsbseq	r6, r0, pc, ror #30

0000309c <Code_754>:
    309c:	2e03      	cmp	r6, #3
    309e:	d000      	beq.n	30a2 <Code_754+0x6>
    30a0:	e700      	b.n	2ea4 <strukturen_passen_nicht>
    30a2:	cf40      	ldmia	r7!, {r6}
    30a4:	b500      	push	{lr}
    30a6:	3f04      	subs	r7, #4
    30a8:	603e      	str	r6, [r7, #0]
    30aa:	4eb0      	ldr	r6, [pc, #704]	; (336c <Code_829+0x54>)
    30ac:	f7ff f933 	bl	2316 <Code_499>
    30b0:	f7ff fe8e 	bl	2dd0 <r_branch_jne>

000030b4 <loop_intern>:
    30b4:	f000 f90c 	bl	32d0 <spruenge_einpflegen>
    30b8:	48aa      	ldr	r0, [pc, #680]	; (3364 <Code_829+0x4c>)
    30ba:	0031      	movs	r1, r6
    30bc:	cf40      	ldmia	r7!, {r6}
    30be:	6001      	str	r1, [r0, #0]
    30c0:	3f04      	subs	r7, #4
    30c2:	603e      	str	r6, [r7, #0]
    30c4:	4eaa      	ldr	r6, [pc, #680]	; (3370 <Code_829+0x58>)
    30c6:	f7ff f926 	bl	2316 <Code_499>
    30ca:	bd00      	pop	{pc}

000030cc <struktur_loop>:
    30cc:	3401      	adds	r4, #1
    30ce:	42ac      	cmp	r4, r5
    30d0:	4770      	bx	lr
    30d2:	46c0      	nop			; (mov r8, r8)

000030d4 <Dictionary_759>:
    30d4:	0000311c 	andeq	r3, r0, ip, lsl r1
    30d8:	64020078 	strvs	r0, [r2], #-120	; 0x78
    30dc:	b500006f 	strlt	r0, [r0, #-111]	; 0x6f

000030de <Code_759>:
    30de:	b500      	push	{lr}
    30e0:	3f04      	subs	r7, #4
    30e2:	603e      	str	r6, [r7, #0]
    30e4:	4ea3      	ldr	r6, [pc, #652]	; (3374 <Code_829+0x5c>)
    30e6:	f7ff f916 	bl	2316 <Code_499>

000030ea <do_rest_der_schleifenstruktur>:
    30ea:	489e      	ldr	r0, [pc, #632]	; (3364 <Code_829+0x4c>)
    30ec:	6801      	ldr	r1, [r0, #0]
    30ee:	3f04      	subs	r7, #4
    30f0:	603e      	str	r6, [r7, #0]
    30f2:	000e      	movs	r6, r1
    30f4:	3f04      	subs	r7, #4
    30f6:	603e      	str	r6, [r7, #0]
    30f8:	2600      	movs	r6, #0
    30fa:	6007      	str	r7, [r0, #0]
    30fc:	f7ff fe67 	bl	2dce <branch_r>
    3100:	3f04      	subs	r7, #4
    3102:	603e      	str	r6, [r7, #0]
    3104:	2603      	movs	r6, #3
    3106:	bd00      	pop	{pc}
    3108:	b500      	push	{lr}
    310a:	f000 f82e 	bl	316a <gemeinsame_schleifenoptimierung>
    310e:	e7ec      	b.n	30ea <do_rest_der_schleifenstruktur>

00003110 <struktur_do>:
    3110:	b430      	push	{r4, r5}
    3112:	0034      	movs	r4, r6
    3114:	cf40      	ldmia	r7!, {r6}
    3116:	0035      	movs	r5, r6
    3118:	cf40      	ldmia	r7!, {r6}
    311a:	4770      	bx	lr

0000311c <Dictionary_769>:
    311c:	000031b0 			; <UNDEFINED> instruction: 0x000031b0
    3120:	3f030078 	svccc	0x00030078
    3124:	b5006f64 	strlt	r6, [r0, #-3940]	; 0xf64

00003126 <Code_769>:
    3126:	b500      	push	{lr}
    3128:	3f04      	subs	r7, #4
    312a:	603e      	str	r6, [r7, #0]
    312c:	4e91      	ldr	r6, [pc, #580]	; (3374 <Code_829+0x5c>)
    312e:	f7ff f8f2 	bl	2316 <Code_499>

00003132 <qdo_rest_der_schleifenstruktur>:
    3132:	3f04      	subs	r7, #4
    3134:	603e      	str	r6, [r7, #0]
    3136:	4e90      	ldr	r6, [pc, #576]	; (3378 <Code_829+0x60>)
    3138:	f7ff fadb 	bl	26f2 <Code_574>
    313c:	4889      	ldr	r0, [pc, #548]	; (3364 <Code_829+0x4c>)
    313e:	6801      	ldr	r1, [r0, #0]
    3140:	3f04      	subs	r7, #4
    3142:	603e      	str	r6, [r7, #0]
    3144:	000e      	movs	r6, r1
    3146:	f7ff fe7d 	bl	2e44 <branch_v>
    314a:	3601      	adds	r6, #1
    314c:	3f04      	subs	r7, #4
    314e:	603e      	str	r6, [r7, #0]
    3150:	2601      	movs	r6, #1
    3152:	4884      	ldr	r0, [pc, #528]	; (3364 <Code_829+0x4c>)
    3154:	6007      	str	r7, [r0, #0]
    3156:	f7ff fe3a 	bl	2dce <branch_r>
    315a:	3f04      	subs	r7, #4
    315c:	603e      	str	r6, [r7, #0]
    315e:	2603      	movs	r6, #3
    3160:	bd00      	pop	{pc}
    3162:	b500      	push	{lr}
    3164:	f000 f801 	bl	316a <gemeinsame_schleifenoptimierung>
    3168:	e7e3      	b.n	3132 <qdo_rest_der_schleifenstruktur>

0000316a <gemeinsame_schleifenoptimierung>:
    316a:	b500      	push	{lr}
    316c:	3f04      	subs	r7, #4
    316e:	603e      	str	r6, [r7, #0]
    3170:	4e82      	ldr	r6, [pc, #520]	; (337c <Code_829+0x64>)
    3172:	f7ff fabe 	bl	26f2 <Code_574>
    3176:	3f04      	subs	r7, #4
    3178:	603e      	str	r6, [r7, #0]
    317a:	2604      	movs	r6, #4
    317c:	f7fe ff22 	bl	1fc4 <Code_433>
    3180:	3b01      	subs	r3, #1
    3182:	d008      	beq.n	3196 <gemeinsame_schleifenoptimierung+0x2c>
    3184:	3f04      	subs	r7, #4
    3186:	603e      	str	r6, [r7, #0]
    3188:	2605      	movs	r6, #5
    318a:	f7fe ff1b 	bl	1fc4 <Code_433>
    318e:	3b01      	subs	r3, #1
    3190:	f000 fc03 	bl	399a <konstantenschreiben>
    3194:	bd00      	pop	{pc}
    3196:	3f04      	subs	r7, #4
    3198:	603e      	str	r6, [r7, #0]
    319a:	2635      	movs	r6, #53	; 0x35
    319c:	f7ff faa9 	bl	26f2 <Code_574>
    31a0:	3f04      	subs	r7, #4
    31a2:	603e      	str	r6, [r7, #0]
    31a4:	4e76      	ldr	r6, [pc, #472]	; (3380 <Code_829+0x68>)
    31a6:	f7ff faa4 	bl	26f2 <Code_574>
    31aa:	f000 fbf6 	bl	399a <konstantenschreiben>
    31ae:	bd00      	pop	{pc}

000031b0 <Dictionary_789>:
    31b0:	000031cc 	andeq	r3, r0, ip, asr #3
    31b4:	63040030 	movwvs	r0, #16432	; 0x4030
    31b8:	00657361 	rsbeq	r7, r5, r1, ror #6

000031bc <Code_789>:
    31bc:	3f04      	subs	r7, #4
    31be:	603e      	str	r6, [r7, #0]
    31c0:	2600      	movs	r6, #0
    31c2:	3f04      	subs	r7, #4
    31c4:	603e      	str	r6, [r7, #0]
    31c6:	2608      	movs	r6, #8
    31c8:	4770      	bx	lr
    31ca:	46c0      	nop			; (mov r8, r8)

000031cc <Dictionary_794>:
    31cc:	000031e4 	andeq	r3, r0, r4, ror #3
    31d0:	3f030030 	svccc	0x00030030
    31d4:	486b666f 	stmdami	fp!, {r0, r1, r2, r3, r5, r6, r9, sl, sp, lr}^

000031d6 <Code_794>:
    31d6:	486b      	ldr	r0, [pc, #428]	; (3384 <Code_829+0x6c>)
    31d8:	e00a      	b.n	31f0 <of_inneneinsprung>

000031da <struktur_qof>:
    31da:	3e01      	subs	r6, #1
    31dc:	41b6      	sbcs	r6, r6
    31de:	cf40      	ldmia	r7!, {r6}
    31e0:	4770      	bx	lr
    31e2:	46c0      	nop			; (mov r8, r8)

000031e4 <Dictionary_796>:
    31e4:	00003270 	andeq	r3, r0, r0, ror r2
    31e8:	6f020078 	svcvs	0x00020078
    31ec:	48660066 	stmdami	r6!, {r1, r2, r5, r6}^

000031ee <Code_796>:
    31ee:	4866      	ldr	r0, [pc, #408]	; (3388 <Code_829+0x70>)

000031f0 <of_inneneinsprung>:
    31f0:	2e08      	cmp	r6, #8
    31f2:	d000      	beq.n	31f6 <of_inneneinsprung+0x6>
    31f4:	e656      	b.n	2ea4 <strukturen_passen_nicht>
    31f6:	cf40      	ldmia	r7!, {r6}
    31f8:	b500      	push	{lr}
    31fa:	3f04      	subs	r7, #4
    31fc:	603e      	str	r6, [r7, #0]
    31fe:	0006      	movs	r6, r0
    3200:	f7ff f889 	bl	2316 <Code_499>

00003204 <of_opcodiereinsprung>:
    3204:	f7ff fe1e 	bl	2e44 <branch_v>
    3208:	6839      	ldr	r1, [r7, #0]
    320a:	603e      	str	r6, [r7, #0]
    320c:	460e      	mov	r6, r1
    320e:	3601      	adds	r6, #1
    3210:	3f04      	subs	r7, #4
    3212:	603e      	str	r6, [r7, #0]
    3214:	2609      	movs	r6, #9
    3216:	3f04      	subs	r7, #4
    3218:	603e      	str	r6, [r7, #0]
    321a:	4e59      	ldr	r6, [pc, #356]	; (3380 <Code_829+0x68>)
    321c:	f7ff fa69 	bl	26f2 <Code_574>
    3220:	bd00      	pop	{pc}
    3222:	b500      	push	{lr}
    3224:	0030      	movs	r0, r6
    3226:	cf40      	ldmia	r7!, {r6}
    3228:	3b01      	subs	r3, #1
    322a:	b401      	push	{r0}
    322c:	f000 fbb5 	bl	399a <konstantenschreiben>
    3230:	bc01      	pop	{r0}
    3232:	2e08      	cmp	r6, #8
    3234:	d000      	beq.n	3238 <of_opcodiereinsprung+0x34>
    3236:	e635      	b.n	2ea4 <strukturen_passen_nicht>
    3238:	cf40      	ldmia	r7!, {r6}
    323a:	3f04      	subs	r7, #4
    323c:	603e      	str	r6, [r7, #0]
    323e:	0006      	movs	r6, r0
    3240:	21ff      	movs	r1, #255	; 0xff
    3242:	4031      	ands	r1, r6
    3244:	42b1      	cmp	r1, r6
    3246:	d104      	bne.n	3252 <of_opcodiereinsprung+0x4e>
    3248:	4950      	ldr	r1, [pc, #320]	; (338c <Code_829+0x74>)
    324a:	430e      	orrs	r6, r1
    324c:	f7ff fa51 	bl	26f2 <Code_574>
    3250:	e7d8      	b.n	3204 <of_opcodiereinsprung>
    3252:	3f04      	subs	r7, #4
    3254:	603e      	str	r6, [r7, #0]
    3256:	2600      	movs	r6, #0
    3258:	f7fe feb4 	bl	1fc4 <Code_433>
    325c:	3f04      	subs	r7, #4
    325e:	603e      	str	r6, [r7, #0]
    3260:	4e4b      	ldr	r6, [pc, #300]	; (3390 <Code_829+0x78>)
    3262:	f7ff fa46 	bl	26f2 <Code_574>
    3266:	e7cd      	b.n	3204 <of_opcodiereinsprung>

00003268 <struktur_of>:
    3268:	0030      	movs	r0, r6
    326a:	cf40      	ldmia	r7!, {r6}
    326c:	42b0      	cmp	r0, r6
    326e:	4770      	bx	lr

00003270 <Dictionary_814>:
    3270:	000032a8 	andeq	r3, r0, r8, lsr #5
    3274:	65050030 	strvs	r0, [r5, #-48]	; 0x30
    3278:	666f646e 	strbtvs	r6, [pc], -lr, ror #8

0000327c <Code_814>:
    327c:	2e09      	cmp	r6, #9
    327e:	d000      	beq.n	3282 <Code_814+0x6>
    3280:	e610      	b.n	2ea4 <strukturen_passen_nicht>
    3282:	cf40      	ldmia	r7!, {r6}
    3284:	b500      	push	{lr}
    3286:	b440      	push	{r6}
    3288:	cf40      	ldmia	r7!, {r6}
    328a:	f7ff fddb 	bl	2e44 <branch_v>
    328e:	6839      	ldr	r1, [r7, #0]
    3290:	603e      	str	r6, [r7, #0]
    3292:	460e      	mov	r6, r1
    3294:	f7ff fdee 	bl	2e74 <v_casebranch>
    3298:	3f04      	subs	r7, #4
    329a:	603e      	str	r6, [r7, #0]
    329c:	bc40      	pop	{r6}
    329e:	3f04      	subs	r7, #4
    32a0:	603e      	str	r6, [r7, #0]
    32a2:	2608      	movs	r6, #8
    32a4:	bd00      	pop	{pc}
    32a6:	46c0      	nop			; (mov r8, r8)

000032a8 <Dictionary_822>:
    32a8:	000032f8 	strdeq	r3, [r0], -r8
    32ac:	65070030 	strvs	r0, [r7, #-48]	; 0x30
    32b0:	6163646e 	cmnvs	r3, lr, ror #8
    32b4:	2e086573 	cfrshl64cs	mvdx8, mvdx3, r6

000032b6 <Code_822>:
    32b6:	2e08      	cmp	r6, #8
    32b8:	d000      	beq.n	32bc <Code_822+0x6>
    32ba:	e5f3      	b.n	2ea4 <strukturen_passen_nicht>
    32bc:	cf40      	ldmia	r7!, {r6}
    32be:	b500      	push	{lr}
    32c0:	3f04      	subs	r7, #4
    32c2:	603e      	str	r6, [r7, #0]
    32c4:	4e2e      	ldr	r6, [pc, #184]	; (3380 <Code_829+0x68>)
    32c6:	f7ff fa14 	bl	26f2 <Code_574>
    32ca:	f000 f801 	bl	32d0 <spruenge_einpflegen>
    32ce:	bd00      	pop	{pc}

000032d0 <spruenge_einpflegen>:
    32d0:	b500      	push	{lr}
    32d2:	0030      	movs	r0, r6
    32d4:	cf40      	ldmia	r7!, {r6}
    32d6:	2800      	cmp	r0, #0
    32d8:	d00d      	beq.n	32f6 <spruenge_einpflegen+0x26>
    32da:	b403      	push	{r0, r1}
    32dc:	2101      	movs	r1, #1
    32de:	4031      	ands	r1, r6
    32e0:	2900      	cmp	r1, #0
    32e2:	d003      	beq.n	32ec <spruenge_einpflegen+0x1c>
    32e4:	3e01      	subs	r6, #1
    32e6:	f7ff fdbc 	bl	2e62 <v_nullbranch>
    32ea:	e001      	b.n	32f0 <spruenge_einpflegen+0x20>
    32ec:	f7ff fdb3 	bl	2e56 <v_branch>
    32f0:	bc03      	pop	{r0, r1}
    32f2:	3801      	subs	r0, #1
    32f4:	e7ef      	b.n	32d6 <spruenge_einpflegen+0x6>
    32f6:	bd00      	pop	{pc}

000032f8 <Dictionary_827>:
    32f8:	0000330c 	andeq	r3, r0, ip, lsl #6
    32fc:	74050000 	strvc	r0, [r5]
    3300:	6e656b6f 	vnmulvs.f64	d22, d5, d31

00003304 <Code_827>:
    3304:	3f04      	subs	r7, #4
    3306:	603e      	str	r6, [r7, #0]
    3308:	2620      	movs	r6, #32
    330a:	e005      	b.n	3318 <Code_829>

0000330c <Dictionary_829>:
    330c:	00003398 	muleq	r0, r8, r3
    3310:	70050000 	andvc	r0, r5, r0
    3314:	65737261 	ldrbvs	r7, [r3, #-609]!	; 0x261

00003318 <Code_829>:
    3318:	b510      	push	{r4, lr}
    331a:	f7fe fc4c 	bl	1bb6 <Code_341>
    331e:	0031      	movs	r1, r6
    3320:	cf40      	ldmia	r7!, {r6}
    3322:	0030      	movs	r0, r6
    3324:	cf40      	ldmia	r7!, {r6}
    3326:	4a1b      	ldr	r2, [pc, #108]	; (3394 <Code_829+0x7c>)
    3328:	6812      	ldr	r2, [r2, #0]
    332a:	1884      	adds	r4, r0, r2
    332c:	2e20      	cmp	r6, #32
    332e:	d107      	bne.n	3340 <Code_829+0x28>
    3330:	4291      	cmp	r1, r2
    3332:	d00f      	beq.n	3354 <Code_829+0x3c>
    3334:	5c83      	ldrb	r3, [r0, r2]
    3336:	42b3      	cmp	r3, r6
    3338:	d102      	bne.n	3340 <Code_829+0x28>
    333a:	3201      	adds	r2, #1
    333c:	1884      	adds	r4, r0, r2
    333e:	e7f7      	b.n	3330 <Code_829+0x18>
    3340:	4291      	cmp	r1, r2
    3342:	d007      	beq.n	3354 <Code_829+0x3c>
    3344:	5c83      	ldrb	r3, [r0, r2]
    3346:	3201      	adds	r2, #1
    3348:	42b3      	cmp	r3, r6
    334a:	d1f9      	bne.n	3340 <Code_829+0x28>
    334c:	1886      	adds	r6, r0, r2
    334e:	1b36      	subs	r6, r6, r4
    3350:	3e01      	subs	r6, #1
    3352:	e001      	b.n	3358 <Code_829+0x40>
    3354:	1886      	adds	r6, r0, r2
    3356:	1b36      	subs	r6, r6, r4
    3358:	3f04      	subs	r7, #4
    335a:	603c      	str	r4, [r7, #0]
    335c:	480d      	ldr	r0, [pc, #52]	; (3394 <Code_829+0x7c>)
    335e:	6002      	str	r2, [r0, #0]
    3360:	bd10      	pop	{r4, pc}
    3362:	f00c0000 			; <UNDEFINED> instruction: 0xf00c0000
    3366:	307e1fff 	ldrshtcc	r1, [lr], #-255	; 0xffffff01
    336a:	30cc0000 	sbccc	r0, ip, r0
    336e:	30520000 	subscc	r0, r2, r0
    3372:	31100000 	tstcc	r0, r0
    3376:	42ac0000 	adcmi	r0, ip, #0
    337a:	b4300000 	ldrtlt	r0, [r0]
    337e:	cf400000 	svcgt	0x00400000
    3382:	31da0000 	bicscc	r0, sl, r0
    3386:	32680000 	rsbcc	r0, r8, #0
    338a:	2e000000 	cdpcs	0, 0, cr0, cr0, cr0, {0}
    338e:	42b00000 	adcsmi	r0, r0, #0
    3392:	2fe40000 	svccs	0x00e40000
    3396:	33d82000 	bicscc	r2, r8, #0

00003398 <Dictionary_832>:
    3398:	000033d8 	ldrdeq	r3, [r0], -r8
    339c:	64050000 	strvs	r0, [r5]
    33a0:	74696769 	strbtvc	r6, [r9], #-1897	; 0x769

000033a4 <Code_832>:
    33a4:	4bd4      	ldr	r3, [pc, #848]	; (36f8 <Code_895+0x8>)
    33a6:	681b      	ldr	r3, [r3, #0]

000033a8 <digit_base_r3>:
    33a8:	3e30      	subs	r6, #48	; 0x30
    33aa:	d30b      	bcc.n	33c4 <digit_base_r3+0x1c>
    33ac:	2e0a      	cmp	r6, #10
    33ae:	d30b      	bcc.n	33c8 <digit_base_r3+0x20>
    33b0:	3e07      	subs	r6, #7
    33b2:	2e0a      	cmp	r6, #10
    33b4:	d306      	bcc.n	33c4 <digit_base_r3+0x1c>
    33b6:	2e24      	cmp	r6, #36	; 0x24
    33b8:	d306      	bcc.n	33c8 <digit_base_r3+0x20>
    33ba:	3e20      	subs	r6, #32
    33bc:	2e0a      	cmp	r6, #10
    33be:	d301      	bcc.n	33c4 <digit_base_r3+0x1c>
    33c0:	2e24      	cmp	r6, #36	; 0x24
    33c2:	d301      	bcc.n	33c8 <digit_base_r3+0x20>
    33c4:	2600      	movs	r6, #0
    33c6:	4770      	bx	lr
    33c8:	429e      	cmp	r6, r3
    33ca:	d2fb      	bcs.n	33c4 <digit_base_r3+0x1c>
    33cc:	3f04      	subs	r7, #4
    33ce:	603e      	str	r6, [r7, #0]
    33d0:	2600      	movs	r6, #0
    33d2:	43f6      	mvns	r6, r6
    33d4:	4770      	bx	lr
    33d6:	46c0      	nop			; (mov r8, r8)

000033d8 <Dictionary_834>:
    33d8:	000034e4 	andeq	r3, r0, r4, ror #9
    33dc:	6e060000 	cdpvs	0, 0, cr0, cr6, cr0, {0}
    33e0:	65626d75 	strbvs	r6, [r2, #-3445]!	; 0xd75
    33e4:	b53f0072 	ldrlt	r0, [pc, #-114]!	; 337a <Code_829+0x62>

000033e6 <Code_834>:
    33e6:	b53f      	push	{r0, r1, r2, r3, r4, r5, lr}
    33e8:	0031      	movs	r1, r6
    33ea:	cf40      	ldmia	r7!, {r6}
    33ec:	1e70      	subs	r0, r6, #1
    33ee:	2601      	movs	r6, #1
    33f0:	2201      	movs	r2, #1
    33f2:	b404      	push	{r2}
    33f4:	4bc0      	ldr	r3, [pc, #768]	; (36f8 <Code_895+0x8>)
    33f6:	681b      	ldr	r3, [r3, #0]
    33f8:	2400      	movs	r4, #0
    33fa:	2500      	movs	r5, #0
    33fc:	2900      	cmp	r1, #0
    33fe:	d03c      	beq.n	347a <Code_834+0x94>
    3400:	3001      	adds	r0, #1
    3402:	3901      	subs	r1, #1
    3404:	7802      	ldrb	r2, [r0, #0]
    3406:	2a2d      	cmp	r2, #45	; 0x2d
    3408:	d104      	bne.n	3414 <Code_834+0x2e>
    340a:	b001      	add	sp, #4
    340c:	2200      	movs	r2, #0
    340e:	43d2      	mvns	r2, r2
    3410:	b404      	push	{r2}
    3412:	e7f3      	b.n	33fc <Code_834+0x16>
    3414:	2a23      	cmp	r2, #35	; 0x23
    3416:	d101      	bne.n	341c <Code_834+0x36>
    3418:	230a      	movs	r3, #10
    341a:	e7ef      	b.n	33fc <Code_834+0x16>
    341c:	2a24      	cmp	r2, #36	; 0x24
    341e:	d101      	bne.n	3424 <Code_834+0x3e>
    3420:	2310      	movs	r3, #16
    3422:	e7eb      	b.n	33fc <Code_834+0x16>
    3424:	2a25      	cmp	r2, #37	; 0x25
    3426:	d101      	bne.n	342c <Code_834+0x46>
    3428:	2302      	movs	r3, #2
    342a:	e7e7      	b.n	33fc <Code_834+0x16>
    342c:	2a2e      	cmp	r2, #46	; 0x2e
    342e:	d101      	bne.n	3434 <Code_834+0x4e>
    3430:	2602      	movs	r6, #2
    3432:	e7e3      	b.n	33fc <Code_834+0x16>
    3434:	2a2c      	cmp	r2, #44	; 0x2c
    3436:	d036      	beq.n	34a6 <number_nachkommastellen>
    3438:	3f04      	subs	r7, #4
    343a:	603e      	str	r6, [r7, #0]
    343c:	0016      	movs	r6, r2
    343e:	f7ff ffb3 	bl	33a8 <digit_base_r3>
    3442:	2e00      	cmp	r6, #0
    3444:	cf40      	ldmia	r7!, {r6}
    3446:	d02b      	beq.n	34a0 <Code_834+0xba>
    3448:	3f04      	subs	r7, #4
    344a:	603e      	str	r6, [r7, #0]
    344c:	0026      	movs	r6, r4
    344e:	3f04      	subs	r7, #4
    3450:	603e      	str	r6, [r7, #0]
    3452:	002e      	movs	r6, r5
    3454:	3f04      	subs	r7, #4
    3456:	603e      	str	r6, [r7, #0]
    3458:	001e      	movs	r6, r3
    345a:	3f04      	subs	r7, #4
    345c:	603e      	str	r6, [r7, #0]
    345e:	2600      	movs	r6, #0
    3460:	b40f      	push	{r0, r1, r2, r3}
    3462:	f7fd f928 	bl	6b6 <Code_50>
    3466:	bc0f      	pop	{r0, r1, r2, r3}
    3468:	0035      	movs	r5, r6
    346a:	cf40      	ldmia	r7!, {r6}
    346c:	0034      	movs	r4, r6
    346e:	cf40      	ldmia	r7!, {r6}
    3470:	2200      	movs	r2, #0
    3472:	19a4      	adds	r4, r4, r6
    3474:	4155      	adcs	r5, r2
    3476:	cf40      	ldmia	r7!, {r6}
    3478:	e7c0      	b.n	33fc <Code_834+0x16>
    347a:	bc04      	pop	{r2}
    347c:	2a00      	cmp	r2, #0
    347e:	d504      	bpl.n	348a <Code_834+0xa4>
    3480:	2200      	movs	r2, #0
    3482:	43e4      	mvns	r4, r4
    3484:	43ed      	mvns	r5, r5
    3486:	3401      	adds	r4, #1
    3488:	4155      	adcs	r5, r2
    348a:	0033      	movs	r3, r6
    348c:	0026      	movs	r6, r4
    348e:	2b01      	cmp	r3, #1
    3490:	d002      	beq.n	3498 <Code_834+0xb2>
    3492:	3f04      	subs	r7, #4
    3494:	603e      	str	r6, [r7, #0]
    3496:	002e      	movs	r6, r5
    3498:	3f04      	subs	r7, #4
    349a:	603e      	str	r6, [r7, #0]
    349c:	001e      	movs	r6, r3
    349e:	bd3f      	pop	{r0, r1, r2, r3, r4, r5, pc}
    34a0:	b001      	add	sp, #4
    34a2:	2600      	movs	r6, #0
    34a4:	bd3f      	pop	{r0, r1, r2, r3, r4, r5, pc}

000034a6 <number_nachkommastellen>:
    34a6:	0025      	movs	r5, r4
    34a8:	2400      	movs	r4, #0
    34aa:	2602      	movs	r6, #2
    34ac:	2900      	cmp	r1, #0
    34ae:	d0e4      	beq.n	347a <Code_834+0x94>
    34b0:	5c42      	ldrb	r2, [r0, r1]
    34b2:	3901      	subs	r1, #1
    34b4:	2a2e      	cmp	r2, #46	; 0x2e
    34b6:	d0f9      	beq.n	34ac <number_nachkommastellen+0x6>
    34b8:	3f04      	subs	r7, #4
    34ba:	603e      	str	r6, [r7, #0]
    34bc:	0016      	movs	r6, r2
    34be:	f7ff ff73 	bl	33a8 <digit_base_r3>
    34c2:	2e00      	cmp	r6, #0
    34c4:	cf40      	ldmia	r7!, {r6}
    34c6:	d0eb      	beq.n	34a0 <Code_834+0xba>
    34c8:	3f04      	subs	r7, #4
    34ca:	603c      	str	r4, [r7, #0]
    34cc:	3f04      	subs	r7, #4
    34ce:	603e      	str	r6, [r7, #0]
    34d0:	001e      	movs	r6, r3
    34d2:	b40f      	push	{r0, r1, r2, r3}
    34d4:	f7fd f9a3 	bl	81e <Code_86>
    34d8:	bc0f      	pop	{r0, r1, r2, r3}
    34da:	0034      	movs	r4, r6
    34dc:	cf40      	ldmia	r7!, {r6}
    34de:	cf40      	ldmia	r7!, {r6}
    34e0:	e7e4      	b.n	34ac <number_nachkommastellen+0x6>
    34e2:	46c0      	nop			; (mov r8, r8)

000034e4 <Dictionary_861>:
    34e4:	00003508 	andeq	r3, r0, r8, lsl #10
    34e8:	2e060000 	cdpcs	0, 0, cr0, cr6, cr0, {0}
    34ec:	69676964 	stmdbvs	r7!, {r2, r5, r6, r8, fp, sp, lr}^
    34f0:	2e0a0074 	mcrcs	0, 0, r0, cr10, cr4, {3}

000034f2 <Code_861>:
    34f2:	2e0a      	cmp	r6, #10
    34f4:	d201      	bcs.n	34fa <Code_861+0x8>
    34f6:	3630      	adds	r6, #48	; 0x30
    34f8:	4770      	bx	lr
    34fa:	2e24      	cmp	r6, #36	; 0x24
    34fc:	d201      	bcs.n	3502 <Code_861+0x10>
    34fe:	3637      	adds	r6, #55	; 0x37
    3500:	4770      	bx	lr
    3502:	2623      	movs	r6, #35	; 0x23
    3504:	4770      	bx	lr
    3506:	46c0      	nop			; (mov r8, r8)

00003508 <Dictionary_862>:
    3508:	00003540 	andeq	r3, r0, r0, asr #10
    350c:	68040000 	stmdavs	r4, {}	; <UNPREDICTABLE>
    3510:	00646c6f 	rsbeq	r6, r4, pc, ror #24

00003514 <Code_862>:
    3514:	0033      	movs	r3, r6
    3516:	cf40      	ldmia	r7!, {r6}
    3518:	4878      	ldr	r0, [pc, #480]	; (36fc <Code_895+0xc>)
    351a:	7801      	ldrb	r1, [r0, #0]
    351c:	293f      	cmp	r1, #63	; 0x3f
    351e:	d20d      	bcs.n	353c <Code_862+0x28>
    3520:	3101      	adds	r1, #1
    3522:	7001      	strb	r1, [r0, #0]
    3524:	1840      	adds	r0, r0, r1
    3526:	2901      	cmp	r1, #1
    3528:	d007      	beq.n	353a <Code_862+0x26>
    352a:	3801      	subs	r0, #1
    352c:	7802      	ldrb	r2, [r0, #0]
    352e:	3001      	adds	r0, #1
    3530:	7002      	strb	r2, [r0, #0]
    3532:	3801      	subs	r0, #1
    3534:	3901      	subs	r1, #1
    3536:	2901      	cmp	r1, #1
    3538:	d1f7      	bne.n	352a <Code_862+0x16>
    353a:	7003      	strb	r3, [r0, #0]
    353c:	4770      	bx	lr
    353e:	46c0      	nop			; (mov r8, r8)

00003540 <Dictionary_864>:
    3540:	00003560 	andeq	r3, r0, r0, ror #10
    3544:	68050000 	stmdavs	r5, {}	; <UNPREDICTABLE>
    3548:	3c646c6f 	stclcc	12, cr6, [r4], #-444	; 0xfffffe44

0000354c <Code_864>:
    354c:	0033      	movs	r3, r6
    354e:	cf40      	ldmia	r7!, {r6}
    3550:	486a      	ldr	r0, [pc, #424]	; (36fc <Code_895+0xc>)
    3552:	7801      	ldrb	r1, [r0, #0]
    3554:	293f      	cmp	r1, #63	; 0x3f
    3556:	d202      	bcs.n	355e <Code_864+0x12>
    3558:	3101      	adds	r1, #1
    355a:	7001      	strb	r1, [r0, #0]
    355c:	5443      	strb	r3, [r0, r1]
    355e:	4770      	bx	lr

00003560 <Dictionary_866>:
    3560:	00003578 	andeq	r3, r0, r8, ror r5
    3564:	73040000 	movwvc	r0, #16384	; 0x4000
    3568:	006e6769 	rsbeq	r6, lr, r9, ror #14

0000356c <Code_866>:
    356c:	2e00      	cmp	r6, #0
    356e:	d401      	bmi.n	3574 <Code_866+0x8>
    3570:	cf40      	ldmia	r7!, {r6}
    3572:	4770      	bx	lr
    3574:	262d      	movs	r6, #45	; 0x2d
    3576:	e7cd      	b.n	3514 <Code_862>

00003578 <Dictionary_868>:
    3578:	0000358c 	andeq	r3, r0, ip, lsl #11
    357c:	23020000 	movwcs	r0, #8192	; 0x2000
    3580:	485e003e 	ldmdami	lr, {r1, r2, r3, r4, r5}^

00003582 <Code_868>:
    3582:	485e      	ldr	r0, [pc, #376]	; (36fc <Code_895+0xc>)
    3584:	7806      	ldrb	r6, [r0, #0]
    3586:	3001      	adds	r0, #1
    3588:	6038      	str	r0, [r7, #0]
    358a:	4770      	bx	lr

0000358c <Dictionary_869>:
    358c:	000035a4 	andeq	r3, r0, r4, lsr #11
    3590:	66030000 	strvs	r0, [r3], -r0
    3594:	b5105323 	ldrlt	r5, [r0, #-803]	; 0x323

00003596 <Code_869>:
    3596:	b510      	push	{r4, lr}
    3598:	2420      	movs	r4, #32
    359a:	f000 f808 	bl	35ae <Code_870>
    359e:	3c01      	subs	r4, #1
    35a0:	d1fb      	bne.n	359a <Code_869+0x4>
    35a2:	bd10      	pop	{r4, pc}

000035a4 <Dictionary_870>:
    35a4:	000035c8 	andeq	r3, r0, r8, asr #11
    35a8:	66020000 	strvs	r0, [r2], -r0
    35ac:	b5000023 	strlt	r0, [r0, #-35]	; 0x23

000035ae <Code_870>:
    35ae:	b500      	push	{lr}
    35b0:	3f04      	subs	r7, #4
    35b2:	603e      	str	r6, [r7, #0]
    35b4:	4e50      	ldr	r6, [pc, #320]	; (36f8 <Code_895+0x8>)
    35b6:	6836      	ldr	r6, [r6, #0]
    35b8:	f7fd f84f 	bl	65a <Code_48>
    35bc:	f7ff ff99 	bl	34f2 <Code_861>
    35c0:	f7ff ffc4 	bl	354c <Code_864>
    35c4:	bd00      	pop	{pc}
    35c6:	46c0      	nop			; (mov r8, r8)

000035c8 <Dictionary_872>:
    35c8:	000035e4 	andeq	r3, r0, r4, ror #11
    35cc:	23020000 	movwcs	r0, #8192	; 0x2000
    35d0:	b5000053 	strlt	r0, [r0, #-83]	; 0x53

000035d2 <Code_872>:
    35d2:	b500      	push	{lr}
    35d4:	f000 f80a 	bl	35ec <Code_873>
    35d8:	2e00      	cmp	r6, #0
    35da:	d1fb      	bne.n	35d4 <Code_872+0x2>
    35dc:	6838      	ldr	r0, [r7, #0]
    35de:	2800      	cmp	r0, #0
    35e0:	d1f8      	bne.n	35d4 <Code_872+0x2>
    35e2:	bd00      	pop	{pc}

000035e4 <Dictionary_873>:
    35e4:	00003610 	andeq	r3, r0, r0, lsl r6
    35e8:	23010000 	movwcs	r0, #4096	; 0x1000

000035ec <Code_873>:
    35ec:	b500      	push	{lr}
    35ee:	3f04      	subs	r7, #4
    35f0:	603e      	str	r6, [r7, #0]
    35f2:	4e41      	ldr	r6, [pc, #260]	; (36f8 <Code_895+0x8>)
    35f4:	6836      	ldr	r6, [r6, #0]
    35f6:	3f04      	subs	r7, #4
    35f8:	603e      	str	r6, [r7, #0]
    35fa:	2600      	movs	r6, #0
    35fc:	f7fd f92f 	bl	85e <Code_95>
    3600:	f7fc ff36 	bl	470 <Code_22>
    3604:	cf40      	ldmia	r7!, {r6}
    3606:	f7ff ff74 	bl	34f2 <Code_861>
    360a:	f7ff ff83 	bl	3514 <Code_862>
    360e:	bd00      	pop	{pc}

00003610 <Dictionary_878>:
    3610:	00003624 	andeq	r3, r0, r4, lsr #12
    3614:	3c020000 	stccc	0, cr0, [r2], {0}
    3618:	48380023 	ldmdami	r8!, {r0, r1, r5}

0000361a <Code_878>:
    361a:	4838      	ldr	r0, [pc, #224]	; (36fc <Code_895+0xc>)
    361c:	2100      	movs	r1, #0
    361e:	7001      	strb	r1, [r0, #0]
    3620:	4770      	bx	lr
    3622:	46c0      	nop			; (mov r8, r8)

00003624 <Dictionary_879>:
    3624:	00003638 	andeq	r3, r0, r8, lsr r6
    3628:	66020000 	strvs	r0, [r2], -r0
    362c:	3f04002e 	svccc	0x0004002e

0000362e <Code_879>:
    362e:	3f04      	subs	r7, #4
    3630:	603e      	str	r6, [r7, #0]
    3632:	2620      	movs	r6, #32
    3634:	e005      	b.n	3642 <Code_882>
    3636:	46c0      	nop			; (mov r8, r8)

00003638 <Dictionary_882>:
    3638:	00003688 	andeq	r3, r0, r8, lsl #13
    363c:	66030000 	strvs	r0, [r3], -r0
    3640:	b5006e2e 	strlt	r6, [r0, #-3630]	; 0xe2e

00003642 <Code_882>:
    3642:	b500      	push	{lr}
    3644:	b410      	push	{r4}
    3646:	0034      	movs	r4, r6
    3648:	cf40      	ldmia	r7!, {r6}
    364a:	f7fd fa9f 	bl	b8c <Code_132>
    364e:	f7fc ffc9 	bl	5e4 <Code_42>
    3652:	3f04      	subs	r7, #4
    3654:	603e      	str	r6, [r7, #0]
    3656:	2600      	movs	r6, #0
    3658:	f7ff ffdf 	bl	361a <Code_878>
    365c:	f7ff ffb9 	bl	35d2 <Code_872>
    3660:	cf40      	ldmia	r7!, {r6}
    3662:	262c      	movs	r6, #44	; 0x2c
    3664:	f7ff ff72 	bl	354c <Code_864>
    3668:	2c00      	cmp	r4, #0
    366a:	d003      	beq.n	3674 <Code_882+0x32>
    366c:	f7ff ff9f 	bl	35ae <Code_870>
    3670:	3c01      	subs	r4, #1
    3672:	d1fb      	bne.n	366c <Code_882+0x2a>
    3674:	bc10      	pop	{r4}
    3676:	cf40      	ldmia	r7!, {r6}
    3678:	f7ff ff78 	bl	356c <Code_866>
    367c:	3f04      	subs	r7, #4
    367e:	603e      	str	r6, [r7, #0]
    3680:	3f04      	subs	r7, #4
    3682:	603e      	str	r6, [r7, #0]
    3684:	e01e      	b.n	36c4 <abschluss_zahlenausgabe>
    3686:	46c0      	nop			; (mov r8, r8)

00003688 <Dictionary_890>:
    3688:	000036a0 	andeq	r3, r0, r0, lsr #13
    368c:	75030000 	strvc	r0, [r3]
    3690:	b5002e64 	strlt	r2, [r0, #-3684]	; 0xe64

00003692 <Code_890>:
    3692:	b500      	push	{lr}
    3694:	f7ff ffc1 	bl	361a <Code_878>
    3698:	f7ff ff9b 	bl	35d2 <Code_872>
    369c:	e012      	b.n	36c4 <abschluss_zahlenausgabe>
    369e:	46c0      	nop			; (mov r8, r8)

000036a0 <Dictionary_891>:
    36a0:	000036d4 	ldrdeq	r3, [r0], -r4
    36a4:	64020000 	strvs	r0, [r2]
    36a8:	b500002e 	strlt	r0, [r0, #-46]	; 0x2e

000036aa <Code_891>:
    36aa:	b500      	push	{lr}
    36ac:	f7fd fa6e 	bl	b8c <Code_132>
    36b0:	f7fc ff98 	bl	5e4 <Code_42>
    36b4:	f7ff ffb1 	bl	361a <Code_878>
    36b8:	f7ff ff8b 	bl	35d2 <Code_872>
    36bc:	f7fd fa71 	bl	ba2 <Code_133>
    36c0:	f7ff ff54 	bl	356c <Code_866>

000036c4 <abschluss_zahlenausgabe>:
    36c4:	f7ff ff5d 	bl	3582 <Code_868>
    36c8:	f7fe fb8e 	bl	1de8 <Code_393>
    36cc:	f7fe fada 	bl	1c84 <Code_358>
    36d0:	bd00      	pop	{pc}
    36d2:	46c0      	nop			; (mov r8, r8)

000036d4 <Dictionary_892>:
    36d4:	000036e8 	andeq	r3, r0, r8, ror #13
    36d8:	75020000 	strvc	r0, [r2]
    36dc:	3f04002e 	svccc	0x0004002e

000036de <Code_892>:
    36de:	3f04      	subs	r7, #4
    36e0:	603e      	str	r6, [r7, #0]
    36e2:	2600      	movs	r6, #0
    36e4:	e7d5      	b.n	3692 <Code_890>
    36e6:	46c0      	nop			; (mov r8, r8)

000036e8 <Dictionary_895>:
    36e8:	00003700 	andeq	r3, r0, r0, lsl #14
    36ec:	2e010000 	cdpcs	0, 0, cr0, cr1, cr0, {0}

000036f0 <Code_895>:
    36f0:	3f04      	subs	r7, #4
    36f2:	603e      	str	r6, [r7, #0]
    36f4:	17f6      	asrs	r6, r6, #31
    36f6:	e7d8      	b.n	36aa <Code_891>
    36f8:	20002ffc 	strdcs	r2, [r0], -ip
    36fc:	1ffff028 	svcne	0x00fff028

00003700 <Dictionary_897>:
    3700:	00003748 	andeq	r3, r0, r8, asr #14
    3704:	65080000 	strvs	r0, [r8]
    3708:	756c6176 	strbvc	r6, [ip, #-374]!	; 0x176
    370c:	00657461 	rsbeq	r7, r5, r1, ror #8

00003710 <Code_897>:
    3710:	b500      	push	{lr}
    3712:	f7fe fa50 	bl	1bb6 <Code_341>
    3716:	cf01      	ldmia	r7!, {r0}
    3718:	b401      	push	{r0}
    371a:	b440      	push	{r6}
    371c:	cf40      	ldmia	r7!, {r6}
    371e:	48c2      	ldr	r0, [pc, #776]	; (3a28 <quit_innenschleife+0x14>)
    3720:	6801      	ldr	r1, [r0, #0]
    3722:	b402      	push	{r1}
    3724:	2100      	movs	r1, #0
    3726:	6001      	str	r1, [r0, #0]
    3728:	f7fe fa38 	bl	1b9c <Code_339>
    372c:	f000 f814 	bl	3758 <Code_899>
    3730:	48bd      	ldr	r0, [pc, #756]	; (3a28 <quit_innenschleife+0x14>)
    3732:	bc02      	pop	{r1}
    3734:	6001      	str	r1, [r0, #0]
    3736:	3f04      	subs	r7, #4
    3738:	603e      	str	r6, [r7, #0]
    373a:	bc40      	pop	{r6}
    373c:	bc01      	pop	{r0}
    373e:	3f04      	subs	r7, #4
    3740:	6038      	str	r0, [r7, #0]
    3742:	f7fe fa2b 	bl	1b9c <Code_339>
    3746:	bd00      	pop	{pc}

00003748 <Dictionary_899>:
    3748:	000039c0 	andeq	r3, r0, r0, asr #19
    374c:	69090000 	stmdbvs	r9, {}	; <UNPREDICTABLE>
    3750:	7265746e 	rsbvc	r7, r5, #1845493760	; 0x6e000000
    3754:	74657270 	strbtvc	r7, [r5], #-624	; 0x270

00003758 <Code_899>:
    3758:	b530      	push	{r4, r5, lr}
    375a:	48b4      	ldr	r0, [pc, #720]	; (3a2c <quit_innenschleife+0x18>)
    375c:	4287      	cmp	r7, r0
    375e:	d90b      	bls.n	3778 <Code_899+0x20>
    3760:	f7fe fae2 	bl	1d28 <dotgaensefuesschen>
    3764:	61745310 	cmnvs	r4, r0, lsl r3
    3768:	75206b63 	strvc	r6, [r0, #-2915]!	; 0xb63
    376c:	7265646e 	rsbvc	r6, r5, #1845493760	; 0x6e000000
    3770:	776f6c66 	strbvc	r6, [pc, -r6, ror #24]!
    3774:	e137000a 	teq	r7, sl
    3778:	48ad      	ldr	r0, [pc, #692]	; (3a30 <quit_innenschleife+0x1c>)
    377a:	4287      	cmp	r7, r0
    377c:	d20a      	bcs.n	3794 <Code_899+0x3c>
    377e:	f7fe fad3 	bl	1d28 <dotgaensefuesschen>
    3782:	6174530f 	cmnvs	r4, pc, lsl #6
    3786:	6f206b63 	svcvs	0x00206b63
    378a:	66726576 			; <UNDEFINED> instruction: 0x66726576
    378e:	0a776f6c 	beq	1ddf546 <BIT24+0xddf546>
    3792:	e129      	b.n	39e8 <Code_950>
    3794:	4ca7      	ldr	r4, [pc, #668]	; (3a34 <quit_innenschleife+0x20>)
    3796:	6825      	ldr	r5, [r4, #0]
    3798:	2d00      	cmp	r5, #0
    379a:	d101      	bne.n	37a0 <Code_899+0x48>
    379c:	003d      	movs	r5, r7
    379e:	6025      	str	r5, [r4, #0]
    37a0:	f7ff fdb0 	bl	3304 <Code_827>
    37a4:	2e00      	cmp	r6, #0
    37a6:	d102      	bne.n	37ae <Code_899+0x56>
    37a8:	3704      	adds	r7, #4
    37aa:	cf40      	ldmia	r7!, {r6}
    37ac:	bd30      	pop	{r4, r5, pc}
    37ae:	6838      	ldr	r0, [r7, #0]
    37b0:	3f04      	subs	r7, #4
    37b2:	603e      	str	r6, [r7, #0]
    37b4:	3f04      	subs	r7, #4
    37b6:	6038      	str	r0, [r7, #0]
    37b8:	f7ff fa5e 	bl	2c78 <Code_668>
    37bc:	0031      	movs	r1, r6
    37be:	cf40      	ldmia	r7!, {r6}
    37c0:	0032      	movs	r2, r6
    37c2:	cf40      	ldmia	r7!, {r6}
    37c4:	2a00      	cmp	r2, #0
    37c6:	d113      	bne.n	37f0 <not_found_addr_r0_len_r1+0x18>
    37c8:	6838      	ldr	r0, [r7, #0]
    37ca:	0031      	movs	r1, r6
    37cc:	f7ff fe0b 	bl	33e6 <Code_834>
    37d0:	0032      	movs	r2, r6
    37d2:	cf40      	ldmia	r7!, {r6}
    37d4:	2a00      	cmp	r2, #0
    37d6:	d1c0      	bne.n	375a <Code_899+0x2>

000037d8 <not_found_addr_r0_len_r1>:
    37d8:	f7fe fb0a 	bl	1df0 <stype_addr_r0_len_r1>
    37dc:	f7fe faa4 	bl	1d28 <dotgaensefuesschen>
    37e0:	6f6e200c 	svcvs	0x006e200c
    37e4:	6f662074 	svcvs	0x00662074
    37e8:	2e646e75 	mcrcs	14, 3, r6, cr4, cr5, {3}
    37ec:	e0fb000a 	rscs	r0, fp, sl
    37f0:	4b91      	ldr	r3, [pc, #580]	; (3a38 <quit_innenschleife+0x24>)
    37f2:	681b      	ldr	r3, [r3, #0]
    37f4:	2b00      	cmp	r3, #0
    37f6:	d11d      	bne.n	3834 <.ausfuehren+0x12>
    37f8:	2500      	movs	r5, #0
    37fa:	6025      	str	r5, [r4, #0]
    37fc:	2330      	movs	r3, #48	; 0x30
    37fe:	400b      	ands	r3, r1
    3800:	2b30      	cmp	r3, #48	; 0x30
    3802:	d10e      	bne.n	3822 <.ausfuehren>
    3804:	f7fe faf0 	bl	1de8 <Code_393>
    3808:	f7fe fa8e 	bl	1d28 <dotgaensefuesschen>
    380c:	73692012 	cmnvc	r9, #18
    3810:	6d6f6320 	stclvs	3, cr6, [pc, #-128]!	; 3798 <Code_899+0x40>
    3814:	656c6970 	strbvs	r6, [ip, #-2416]!	; 0x970
    3818:	6c6e6f2d 	stclvs	15, cr6, [lr], #-180	; 0xffffff4c
    381c:	000a2e79 	andeq	r2, sl, r9, ror lr
    3820:	e0e2      	b.n	39e8 <Code_950>

00003822 <.ausfuehren>:
    3822:	3704      	adds	r7, #4
    3824:	cf40      	ldmia	r7!, {r6}
    3826:	3f04      	subs	r7, #4
    3828:	603e      	str	r6, [r7, #0]
    382a:	0016      	movs	r6, r2
    382c:	f7fe fe0d 	bl	244a <Code_521>
    3830:	f7ff ff93 	bl	375a <Code_899+0x2>
    3834:	3704      	adds	r7, #4
    3836:	cf40      	ldmia	r7!, {r6}
    3838:	2080      	movs	r0, #128	; 0x80
    383a:	4008      	ands	r0, r1
    383c:	d10e      	bne.n	385c <.interpret_faltoptimierung>
    383e:	1beb      	subs	r3, r5, r7
    3840:	089b      	lsrs	r3, r3, #2
    3842:	2040      	movs	r0, #64	; 0x40
    3844:	4008      	ands	r0, r1
    3846:	d00f      	beq.n	3868 <.konstantenschleife>
    3848:	2008      	movs	r0, #8
    384a:	4008      	ands	r0, r1
    384c:	d002      	beq.n	3854 <.interpret_genugkonstanten>
    384e:	2b00      	cmp	r3, #0
    3850:	d000      	beq.n	3854 <.interpret_genugkonstanten>
    3852:	e01d      	b.n	3890 <.interpret_opcodierbar>

00003854 <.interpret_genugkonstanten>:
    3854:	200f      	movs	r0, #15
    3856:	4008      	ands	r0, r1
    3858:	4283      	cmp	r3, r0
    385a:	d305      	bcc.n	3868 <.konstantenschleife>

0000385c <.interpret_faltoptimierung>:
    385c:	3f04      	subs	r7, #4
    385e:	603e      	str	r6, [r7, #0]
    3860:	0016      	movs	r6, r2
    3862:	f7fe fdf2 	bl	244a <Code_521>
    3866:	e778      	b.n	375a <Code_899+0x2>

00003868 <.konstantenschleife>:
    3868:	f000 f897 	bl	399a <konstantenschreiben>
    386c:	3f04      	subs	r7, #4
    386e:	603e      	str	r6, [r7, #0]
    3870:	0016      	movs	r6, r2
    3872:	2210      	movs	r2, #16
    3874:	400a      	ands	r2, r1
    3876:	d002      	beq.n	387e <.konstantenschleife+0x16>
    3878:	f7fe fde7 	bl	244a <Code_521>
    387c:	e76d      	b.n	375a <Code_899+0x2>
    387e:	2220      	movs	r2, #32
    3880:	400a      	ands	r2, r1
    3882:	d002      	beq.n	388a <.konstantenschleife+0x22>
    3884:	f7fe fd47 	bl	2316 <Code_499>
    3888:	e767      	b.n	375a <Code_899+0x2>
    388a:	f7fe fc3d 	bl	2108 <Code_460>
    388e:	e764      	b.n	375a <Code_899+0x2>

00003890 <.interpret_opcodierbar>:
    3890:	2007      	movs	r0, #7
    3892:	4001      	ands	r1, r0
    3894:	0010      	movs	r0, r2
    3896:	f7fe fd52 	bl	233e <suchedefinitionsende>
    389a:	2901      	cmp	r1, #1
    389c:	d115      	bne.n	38ca <.interpret_opcodierbar_rechenlogik>
    389e:	2b01      	cmp	r3, #1
    38a0:	d1dc      	bne.n	385c <.interpret_faltoptimierung>
    38a2:	21ff      	movs	r1, #255	; 0xff
    38a4:	4031      	ands	r1, r6
    38a6:	42b1      	cmp	r1, r6
    38a8:	d104      	bne.n	38b4 <.interpret_opcodieren_ueber_r0>
    38aa:	8840      	ldrh	r0, [r0, #2]
    38ac:	4306      	orrs	r6, r0
    38ae:	f7fe ff20 	bl	26f2 <Code_574>
    38b2:	e752      	b.n	375a <Code_899+0x2>

000038b4 <.interpret_opcodieren_ueber_r0>:
    38b4:	3f04      	subs	r7, #4
    38b6:	603e      	str	r6, [r7, #0]
    38b8:	2600      	movs	r6, #0
    38ba:	f7fe fb83 	bl	1fc4 <Code_433>
    38be:	3f04      	subs	r7, #4
    38c0:	603e      	str	r6, [r7, #0]
    38c2:	8806      	ldrh	r6, [r0, #0]
    38c4:	f7fe ff15 	bl	26f2 <Code_574>
    38c8:	e747      	b.n	375a <Code_899+0x2>

000038ca <.interpret_opcodierbar_rechenlogik>:
    38ca:	2902      	cmp	r1, #2
    38cc:	d102      	bne.n	38d4 <.interpret_opcodierbar_gleichungleich>
    38ce:	2b01      	cmp	r3, #1
    38d0:	d1c4      	bne.n	385c <.interpret_faltoptimierung>
    38d2:	e7ef      	b.n	38b4 <.interpret_opcodieren_ueber_r0>

000038d4 <.interpret_opcodierbar_gleichungleich>:
    38d4:	2903      	cmp	r1, #3
    38d6:	d11c      	bne.n	3912 <.interpret_opcodierbar_schieben>
    38d8:	2b01      	cmp	r3, #1
    38da:	d1bf      	bne.n	385c <.interpret_faltoptimierung>
    38dc:	21ff      	movs	r1, #255	; 0xff
    38de:	4031      	ands	r1, r6
    38e0:	42b1      	cmp	r1, r6
    38e2:	d10a      	bne.n	38fa <.interpret_opcodierbar_gleichungleich+0x26>
    38e4:	4955      	ldr	r1, [pc, #340]	; (3a3c <quit_innenschleife+0x28>)
    38e6:	430e      	orrs	r6, r1
    38e8:	f7fe ff03 	bl	26f2 <Code_574>
    38ec:	3204      	adds	r2, #4
    38ee:	3f04      	subs	r7, #4
    38f0:	603e      	str	r6, [r7, #0]
    38f2:	0016      	movs	r6, r2
    38f4:	f7fe fd0f 	bl	2316 <Code_499>
    38f8:	e72f      	b.n	375a <Code_899+0x2>
    38fa:	3f04      	subs	r7, #4
    38fc:	603e      	str	r6, [r7, #0]
    38fe:	2600      	movs	r6, #0
    3900:	f7fe fb60 	bl	1fc4 <Code_433>
    3904:	3202      	adds	r2, #2
    3906:	3f04      	subs	r7, #4
    3908:	603e      	str	r6, [r7, #0]
    390a:	0016      	movs	r6, r2
    390c:	f7fe fd03 	bl	2316 <Code_499>
    3910:	e723      	b.n	375a <Code_899+0x2>

00003912 <.interpret_opcodierbar_schieben>:
    3912:	2904      	cmp	r1, #4
    3914:	d118      	bne.n	3948 <.interpret_opcodierbar_speicherschreiben>
    3916:	2b01      	cmp	r3, #1
    3918:	d1a0      	bne.n	385c <.interpret_faltoptimierung>
    391a:	0033      	movs	r3, r6
    391c:	cf40      	ldmia	r7!, {r6}
    391e:	2b00      	cmp	r3, #0
    3920:	d100      	bne.n	3924 <.interpret_opcodierbar_schieben+0x12>
    3922:	e71a      	b.n	375a <Code_899+0x2>
    3924:	221f      	movs	r2, #31
    3926:	401a      	ands	r2, r3
    3928:	429a      	cmp	r2, r3
    392a:	d005      	beq.n	3938 <.interpret_opcodierbar_schieben+0x26>
    392c:	3f04      	subs	r7, #4
    392e:	603e      	str	r6, [r7, #0]
    3930:	8846      	ldrh	r6, [r0, #2]
    3932:	f7fe fede 	bl	26f2 <Code_574>
    3936:	e710      	b.n	375a <Code_899+0x2>
    3938:	3f04      	subs	r7, #4
    393a:	603e      	str	r6, [r7, #0]
    393c:	8806      	ldrh	r6, [r0, #0]
    393e:	019b      	lsls	r3, r3, #6
    3940:	431e      	orrs	r6, r3
    3942:	f7fe fed6 	bl	26f2 <Code_574>
    3946:	e708      	b.n	375a <Code_899+0x2>

00003948 <.interpret_opcodierbar_speicherschreiben>:
    3948:	2905      	cmp	r1, #5
    394a:	d123      	bne.n	3994 <.interpret_opcodierbar_andere>
    394c:	2b01      	cmp	r3, #1
    394e:	d10f      	bne.n	3970 <.interpret_opcodierbar_speicherschreiben+0x28>
    3950:	3f04      	subs	r7, #4
    3952:	603e      	str	r6, [r7, #0]
    3954:	2600      	movs	r6, #0
    3956:	f7fe fb35 	bl	1fc4 <Code_433>
    395a:	3f04      	subs	r7, #4
    395c:	603e      	str	r6, [r7, #0]
    395e:	0006      	movs	r6, r0
    3960:	f7fe fcd9 	bl	2316 <Code_499>
    3964:	3f04      	subs	r7, #4
    3966:	603e      	str	r6, [r7, #0]
    3968:	4e35      	ldr	r6, [pc, #212]	; (3a40 <quit_innenschleife+0x2c>)
    396a:	f7fe fec2 	bl	26f2 <Code_574>
    396e:	e6f4      	b.n	375a <Code_899+0x2>
    3970:	3f04      	subs	r7, #4
    3972:	603e      	str	r6, [r7, #0]
    3974:	2600      	movs	r6, #0
    3976:	f7fe fb25 	bl	1fc4 <Code_433>
    397a:	3f04      	subs	r7, #4
    397c:	603e      	str	r6, [r7, #0]
    397e:	2601      	movs	r6, #1
    3980:	f7fe fb20 	bl	1fc4 <Code_433>
    3984:	f7fe fcdb 	bl	233e <suchedefinitionsende>
    3988:	3f04      	subs	r7, #4
    398a:	603e      	str	r6, [r7, #0]
    398c:	0006      	movs	r6, r0
    398e:	f7fe fcc2 	bl	2316 <Code_499>
    3992:	e6e2      	b.n	375a <Code_899+0x2>

00003994 <.interpret_opcodierbar_andere>:
    3994:	3001      	adds	r0, #1
    3996:	4780      	blx	r0
    3998:	e6df      	b.n	375a <Code_899+0x2>

0000399a <konstantenschreiben>:
    399a:	b500      	push	{lr}
    399c:	2b00      	cmp	r3, #0
    399e:	d00b      	beq.n	39b8 <.konstanteninnenschleife+0x18>

000039a0 <.konstanteninnenschleife>:
    39a0:	3b01      	subs	r3, #1
    39a2:	3f04      	subs	r7, #4
    39a4:	603e      	str	r6, [r7, #0]
    39a6:	009e      	lsls	r6, r3, #2
    39a8:	59be      	ldr	r6, [r7, r6]
    39aa:	f7fe fbe7 	bl	217c <Code_469>
    39ae:	2b00      	cmp	r3, #0
    39b0:	d1f6      	bne.n	39a0 <.konstanteninnenschleife>
    39b2:	3d04      	subs	r5, #4
    39b4:	002f      	movs	r7, r5
    39b6:	cf40      	ldmia	r7!, {r6}
    39b8:	2500      	movs	r5, #0
    39ba:	6025      	str	r5, [r4, #0]
    39bc:	bd00      	pop	{pc}
    39be:	46c0      	nop			; (mov r8, r8)

000039c0 <Dictionary_947>:
    39c0:	000039dc 	ldrdeq	r3, [r0], -ip
    39c4:	68090081 	stmdavs	r9, {r0, r7}
    39c8:	2d6b6f6f 	stclcs	15, cr6, [fp, #-444]!	; 0xfffffe44
    39cc:	74697571 	strbtvc	r7, [r9], #-1393	; 0x571

000039d0 <Code_947>:
    39d0:	3f04      	subs	r7, #4
    39d2:	603e      	str	r6, [r7, #0]
    39d4:	4e1b      	ldr	r6, [pc, #108]	; (3a44 <quit_innenschleife+0x30>)
    39d6:	4770      	bx	lr
    39d8:	00003a14 	andeq	r3, r0, r4, lsl sl

000039dc <Dictionary_950>:
    39dc:	00003a58 	andeq	r3, r0, r8, asr sl
    39e0:	71040000 	mrsvc	r0, (UNDEF: 4)
    39e4:	00746975 	rsbseq	r6, r4, r5, ror r9

000039e8 <Code_950>:
    39e8:	4817      	ldr	r0, [pc, #92]	; (3a48 <quit_innenschleife+0x34>)
    39ea:	4685      	mov	sp, r0
    39ec:	4f0f      	ldr	r7, [pc, #60]	; (3a2c <quit_innenschleife+0x18>)
    39ee:	f7fd fd8b 	bl	1508 <sammeltabelleleeren>
    39f2:	4816      	ldr	r0, [pc, #88]	; (3a4c <quit_innenschleife+0x38>)
    39f4:	210a      	movs	r1, #10
    39f6:	6001      	str	r1, [r0, #0]
    39f8:	480f      	ldr	r0, [pc, #60]	; (3a38 <quit_innenschleife+0x24>)
    39fa:	2100      	movs	r1, #0
    39fc:	6001      	str	r1, [r0, #0]
    39fe:	480d      	ldr	r0, [pc, #52]	; (3a34 <quit_innenschleife+0x20>)
    3a00:	6001      	str	r1, [r0, #0]
    3a02:	4809      	ldr	r0, [pc, #36]	; (3a28 <quit_innenschleife+0x14>)
    3a04:	6001      	str	r1, [r0, #0]
    3a06:	4812      	ldr	r0, [pc, #72]	; (3a50 <quit_innenschleife+0x3c>)
    3a08:	6001      	str	r1, [r0, #0]
    3a0a:	4912      	ldr	r1, [pc, #72]	; (3a54 <quit_innenschleife+0x40>)
    3a0c:	6041      	str	r1, [r0, #4]

00003a0e <quit_intern>:
    3a0e:	480d      	ldr	r0, [pc, #52]	; (3a44 <quit_innenschleife+0x30>)
    3a10:	6800      	ldr	r0, [r0, #0]
    3a12:	4687      	mov	pc, r0

00003a14 <quit_innenschleife>:
    3a14:	f7fe f8de 	bl	1bd4 <Code_343>
    3a18:	f7ff fe9e 	bl	3758 <Code_899>
    3a1c:	f7fe f984 	bl	1d28 <dotgaensefuesschen>
    3a20:	6b6f2005 	blvs	1bcba3c <BIT24+0xbcba3c>
    3a24:	e7f50a2e 	ldrb	r0, [r5, lr, lsr #20]!
    3a28:	20002fe4 	andcs	r2, r0, r4, ror #31
    3a2c:	1ffff230 	svcne	0x00fff230
    3a30:	1ffff130 	svcne	0x00fff130
    3a34:	1ffff008 	svcne	0x00fff008
    3a38:	20002fd8 	ldrdcs	r2, [r0], -r8
    3a3c:	00003e00 	andeq	r3, r0, r0, lsl #28
    3a40:	0000cf40 	andeq	ip, r0, r0, asr #30
    3a44:	20002fd4 	ldrdcs	r2, [r0], -r4
    3a48:	1ffff330 	svcne	0x00fff330
    3a4c:	20002ffc 	strdcs	r2, [r0], -ip
    3a50:	20002fdc 	ldrdcs	r2, [r0], -ip
    3a54:	1ffff068 	svcne	0x00fff068

00003a58 <Dictionary_952>:
    3a58:	00003a74 	andeq	r3, r0, r4, ror sl
    3a5c:	65050000 	strvs	r0, [r5]
    3a60:	3f746e69 	svccc	0x00746e69

00003a64 <Code_952>:
    3a64:	3f04      	subs	r7, #4
    3a66:	603e      	str	r6, [r7, #0]
    3a68:	f3ef 8610 	mrs	r6, PRIMASK
    3a6c:	3e01      	subs	r6, #1
    3a6e:	41b6      	sbcs	r6, r6
    3a70:	4770      	bx	lr
    3a72:	46c0      	nop			; (mov r8, r8)

00003a74 <Dictionary_954>:
    3a74:	00003a84 	andeq	r3, r0, r4, lsl #21
    3a78:	65040020 	strvs	r0, [r4, #-32]
    3a7c:	00746e69 	rsbseq	r6, r4, r9, ror #28

00003a80 <Code_954>:
    3a80:	b662      	cpsie	i
    3a82:	4770      	bx	lr

00003a84 <Dictionary_955>:
    3a84:	00003a94 	muleq	r0, r4, sl
    3a88:	64040020 	strvs	r0, [r4], #-32
    3a8c:	00746e69 	rsbseq	r6, r4, r9, ror #28

00003a90 <Code_955>:
    3a90:	b672      	cpsid	i
    3a92:	4770      	bx	lr

00003a94 <Dictionary_956>:
    3a94:	00003aac 	andeq	r3, r0, ip, lsr #21
    3a98:	69040020 	stmdbvs	r4, {r5}
    3a9c:	00727370 	rsbseq	r7, r2, r0, ror r3

00003aa0 <Code_956>:
    3aa0:	3f04      	subs	r7, #4
    3aa2:	603e      	str	r6, [r7, #0]
    3aa4:	f3ef 8605 	mrs	r6, IPSR
    3aa8:	4770      	bx	lr
    3aaa:	46c0      	nop			; (mov r8, r8)

00003aac <Dictionary_958>:
    3aac:	00003ab8 			; <UNDEFINED> instruction: 0x00003ab8
    3ab0:	6e030000 	cdpvs	0, 0, cr0, cr3, cr0, {0}
    3ab4:	4770706f 	ldrbmi	r7, [r0, -pc, rrx]!

00003ab6 <Code_958>:
    3ab6:	4770      	bx	lr

00003ab8 <Dictionary_959>:
    3ab8:	00003afc 	strdeq	r3, [r0], -ip
    3abc:	75090000 	strvc	r0, [r9]
    3ac0:	6e61686e 	cdpvs	8, 6, cr6, cr1, cr14, {3}
    3ac4:	64656c64 	strbtvs	r6, [r5], #-3172	; 0xc64

00003ac8 <Code_959>:
    3ac8:	b500      	push	{lr}
    3aca:	f7fe f92d 	bl	1d28 <dotgaensefuesschen>
    3ace:	686e5514 	stmdavs	lr!, {r2, r4, r8, sl, ip, lr}^
    3ad2:	6c646e61 	stclvs	14, cr6, [r4], #-388	; 0xfffffe7c
    3ad6:	49206465 	stmdbmi	r0!, {r0, r2, r5, r6, sl, sp, lr}
    3ada:	7265746e 	rsbvc	r7, r5, #1845493760	; 0x6e000000
    3ade:	74707572 	ldrbtvc	r7, [r0], #-1394	; 0x572
    3ae2:	3f040020 	svccc	0x00040020
    3ae6:	603e      	str	r6, [r7, #0]
    3ae8:	f3ef 8605 	mrs	r6, IPSR
    3aec:	f7fe f994 	bl	1e18 <Code_397>
    3af0:	f7fe f91a 	bl	1d28 <dotgaensefuesschen>
    3af4:	000a2102 	andeq	r2, sl, r2, lsl #2
    3af8:	bd00      	pop	{pc}
    3afa:	46c0      	nop			; (mov r8, r8)

00003afc <Dictionary_963>:
    3afc:	00003b10 	andeq	r3, r0, r0, lsl fp
    3b00:	72050000 	andvc	r0, r5, #0
    3b04:	74657365 	strbtvc	r7, [r5], #-869	; 0x365

00003b08 <Code_963>:
    3b08:	4896      	ldr	r0, [pc, #600]	; (3d64 <init_name+0x6>)
    3b0a:	4997      	ldr	r1, [pc, #604]	; (3d68 <init_name+0xa>)
    3b0c:	6001      	str	r1, [r0, #0]
    3b0e:	46c0      	nop			; (mov r8, r8)

00003b10 <Dictionary_965>:
    3b10:	00003b34 	andeq	r3, r0, r4, lsr fp
    3b14:	690b0081 	stmdbvs	fp, {r0, r7}
    3b18:	732d7172 	teqvc	sp, #-2147483620	; 0x8000001c
    3b1c:	69747379 	ldmdbvs	r4!, {r0, r3, r4, r5, r6, r8, r9, ip, sp, lr}^
    3b20:	3f046b63 	svccc	0x00046b63

00003b22 <Code_965>:
    3b22:	3f04      	subs	r7, #4
    3b24:	603e      	str	r6, [r7, #0]
    3b26:	4e91      	ldr	r6, [pc, #580]	; (3d6c <init_name+0xe>)
    3b28:	4770      	bx	lr
    3b2a:	00003ac8 	andeq	r3, r0, r8, asr #21

00003b2e <irq_vektor_systick>:
    3b2e:	488f      	ldr	r0, [pc, #572]	; (3d6c <init_name+0xe>)
    3b30:	6800      	ldr	r0, [r0, #0]
    3b32:	4687      	mov	pc, r0

00003b34 <Dictionary_969>:
    3b34:	00003b58 	andeq	r3, r0, r8, asr fp
    3b38:	69090081 	stmdbvs	r9, {r0, r7}
    3b3c:	662d7172 			; <UNDEFINED> instruction: 0x662d7172
    3b40:	746c7561 	strbtvc	r7, [ip], #-1377	; 0x561

00003b44 <Code_969>:
    3b44:	3f04      	subs	r7, #4
    3b46:	603e      	str	r6, [r7, #0]
    3b48:	4e89      	ldr	r6, [pc, #548]	; (3d70 <init_name+0x12>)
    3b4a:	4770      	bx	lr
    3b4c:	00003ac8 	andeq	r3, r0, r8, asr #21

00003b50 <faulthandler>:
    3b50:	4887      	ldr	r0, [pc, #540]	; (3d70 <init_name+0x12>)
    3b52:	6800      	ldr	r0, [r0, #0]
    3b54:	4687      	mov	pc, r0
    3b56:	46c0      	nop			; (mov r8, r8)

00003b58 <Dictionary_973>:
    3b58:	00003b80 	andeq	r3, r0, r0, lsl #23
    3b5c:	690e0081 	stmdbvs	lr, {r0, r7}
    3b60:	632d7172 	teqvs	sp, #-2147483620	; 0x8000001c
    3b64:	656c6c6f 	strbvs	r6, [ip, #-3183]!	; 0xc6f
    3b68:	6f697463 	svcvs	0x00697463
    3b6c:	3f04006e 	svccc	0x0004006e

00003b6e <Code_973>:
    3b6e:	3f04      	subs	r7, #4
    3b70:	603e      	str	r6, [r7, #0]
    3b72:	4e80      	ldr	r6, [pc, #512]	; (3d74 <init_name+0x16>)
    3b74:	4770      	bx	lr
    3b76:	00003ac8 	andeq	r3, r0, r8, asr #21

00003b7a <nullhandler>:
    3b7a:	487e      	ldr	r0, [pc, #504]	; (3d74 <init_name+0x16>)
    3b7c:	6800      	ldr	r0, [r0, #0]
    3b7e:	4687      	mov	pc, r0

00003b80 <Dictionary_977>:
    3b80:	00003ba0 	andeq	r3, r0, r0, lsr #23
    3b84:	69070081 	stmdbvs	r7, {r0, r7}
    3b88:	612d7172 	teqvs	sp, r2, ror r1
    3b8c:	3f046364 	svccc	0x00046364

00003b8e <Code_977>:
    3b8e:	3f04      	subs	r7, #4
    3b90:	603e      	str	r6, [r7, #0]
    3b92:	4e79      	ldr	r6, [pc, #484]	; (3d78 <init_name+0x1a>)
    3b94:	4770      	bx	lr
    3b96:	00003ac8 	andeq	r3, r0, r8, asr #21

00003b9a <irq_vektor_adc>:
    3b9a:	4877      	ldr	r0, [pc, #476]	; (3d78 <init_name+0x1a>)
    3b9c:	6800      	ldr	r0, [r0, #0]
    3b9e:	4687      	mov	pc, r0

00003ba0 <Dictionary_981>:
    3ba0:	00003bc0 	andeq	r3, r0, r0, asr #23
    3ba4:	69070081 	stmdbvs	r7, {r0, r7}
    3ba8:	632d7172 	teqvs	sp, #-2147483620	; 0x8000001c
    3bac:	3f04706d 	svccc	0x0004706d

00003bae <Code_981>:
    3bae:	3f04      	subs	r7, #4
    3bb0:	603e      	str	r6, [r7, #0]
    3bb2:	4e72      	ldr	r6, [pc, #456]	; (3d7c <init_name+0x1e>)
    3bb4:	4770      	bx	lr
    3bb6:	00003ac8 	andeq	r3, r0, r8, asr #21

00003bba <irq_vektor_cmp>:
    3bba:	4870      	ldr	r0, [pc, #448]	; (3d7c <init_name+0x1e>)
    3bbc:	6800      	ldr	r0, [r0, #0]
    3bbe:	4687      	mov	pc, r0

00003bc0 <Dictionary_985>:
    3bc0:	00003be0 	andeq	r3, r0, r0, ror #23
    3bc4:	69070081 	stmdbvs	r7, {r0, r7}
    3bc8:	642d7172 	strtvs	r7, [sp], #-370	; 0x172
    3bcc:	3f046361 	svccc	0x00046361

00003bce <Code_985>:
    3bce:	3f04      	subs	r7, #4
    3bd0:	603e      	str	r6, [r7, #0]
    3bd2:	4e6b      	ldr	r6, [pc, #428]	; (3d80 <init_name+0x22>)
    3bd4:	4770      	bx	lr
    3bd6:	00003ac8 	andeq	r3, r0, r8, asr #21

00003bda <irq_vektor_dac>:
    3bda:	4869      	ldr	r0, [pc, #420]	; (3d80 <init_name+0x22>)
    3bdc:	6800      	ldr	r0, [r0, #0]
    3bde:	4687      	mov	pc, r0

00003be0 <Dictionary_989>:
    3be0:	00003c04 	andeq	r3, r0, r4, lsl #24
    3be4:	69090081 	stmdbvs	r9, {r0, r7}
    3be8:	702d7172 	eorvc	r7, sp, r2, ror r1
    3bec:	6174726f 	cmnvs	r4, pc, ror #4

00003bf0 <Code_989>:
    3bf0:	3f04      	subs	r7, #4
    3bf2:	603e      	str	r6, [r7, #0]
    3bf4:	4e63      	ldr	r6, [pc, #396]	; (3d84 <init_name+0x26>)
    3bf6:	4770      	bx	lr
    3bf8:	00003ac8 	andeq	r3, r0, r8, asr #21

00003bfc <irq_vektor_porta>:
    3bfc:	4861      	ldr	r0, [pc, #388]	; (3d84 <init_name+0x26>)
    3bfe:	6800      	ldr	r0, [r0, #0]
    3c00:	4687      	mov	pc, r0
    3c02:	46c0      	nop			; (mov r8, r8)

00003c04 <Dictionary_993>:
    3c04:	00003c28 	andeq	r3, r0, r8, lsr #24
    3c08:	69090081 	stmdbvs	r9, {r0, r7}
    3c0c:	702d7172 	eorvc	r7, sp, r2, ror r1
    3c10:	6474726f 	ldrbtvs	r7, [r4], #-623	; 0x26f

00003c14 <Code_993>:
    3c14:	3f04      	subs	r7, #4
    3c16:	603e      	str	r6, [r7, #0]
    3c18:	4e5b      	ldr	r6, [pc, #364]	; (3d88 <init_name+0x2a>)
    3c1a:	4770      	bx	lr
    3c1c:	00003ac8 	andeq	r3, r0, r8, asr #21

00003c20 <irq_vektor_portd>:
    3c20:	4859      	ldr	r0, [pc, #356]	; (3d88 <init_name+0x2a>)
    3c22:	6800      	ldr	r0, [r0, #0]
    3c24:	4687      	mov	pc, r0
    3c26:	46c0      	nop			; (mov r8, r8)

00003c28 <Dictionary_996>:
    3c28:	00004000 	andeq	r4, r0, r0
    3c2c:	2d18ffff 	ldccs	15, cr15, [r8, #-1020]	; 0xfffffc04
    3c30:	46202d2d 	strtmi	r2, [r0], -sp, lsr #26
    3c34:	6873616c 	ldmdavs	r3!, {r2, r3, r5, r6, r8, sp, lr}^
    3c38:	63694420 	cmnvs	r9, #536870912	; 0x20000000
    3c3c:	6e6f6974 	mcrvs	9, 3, r6, cr15, cr4, {3}
    3c40:	20797261 	rsbscs	r7, r9, r1, ror #4
    3c44:	002d2d2d 	eoreq	r2, sp, sp, lsr #26

00003c48 <Code_996>:
    3c48:	2100      	movs	r1, #0
    3c4a:	4850      	ldr	r0, [pc, #320]	; (3d8c <init_name+0x2e>)
    3c4c:	6001      	str	r1, [r0, #0]
    3c4e:	f7fd fdf2 	bl	1836 <uart_init>
    3c52:	484f      	ldr	r0, [pc, #316]	; (3d90 <init_name+0x32>)
    3c54:	4685      	mov	sp, r0
    3c56:	4f4f      	ldr	r7, [pc, #316]	; (3d94 <init_name+0x36>)
    3c58:	262a      	movs	r6, #42	; 0x2a
    3c5a:	484f      	ldr	r0, [pc, #316]	; (3d98 <init_name+0x3a>)
    3c5c:	494f      	ldr	r1, [pc, #316]	; (3d9c <init_name+0x3e>)
    3c5e:	6001      	str	r1, [r0, #0]
    3c60:	484f      	ldr	r0, [pc, #316]	; (3da0 <init_name+0x42>)
    3c62:	4950      	ldr	r1, [pc, #320]	; (3da4 <init_name+0x46>)
    3c64:	6001      	str	r1, [r0, #0]
    3c66:	3f04      	subs	r7, #4
    3c68:	603e      	str	r6, [r7, #0]
    3c6a:	4e4e      	ldr	r6, [pc, #312]	; (3da4 <init_name+0x46>)
    3c6c:	4d4e      	ldr	r5, [pc, #312]	; (3da8 <init_name+0x4a>)

00003c6e <SucheFlashPointer_Hangelschleife>:
    3c6e:	88b1      	ldrh	r1, [r6, #4]
    3c70:	4b4e      	ldr	r3, [pc, #312]	; (3dac <init_name+0x4e>)
    3c72:	4299      	cmp	r1, r3
    3c74:	d024      	beq.n	3cc0 <Sucheflashpointer_Speicherbelegung_fertig>
    3c76:	4b4e      	ldr	r3, [pc, #312]	; (3db0 <init_name+0x52>)
    3c78:	400b      	ands	r3, r1
    3c7a:	d00a      	beq.n	3c92 <SucheFlashPointer_Hangelschleife+0x24>
    3c7c:	1db0      	adds	r0, r6, #6
    3c7e:	f7fe ffeb 	bl	2c58 <skipstring>
    3c82:	f7fe fb5c 	bl	233e <suchedefinitionsende>
    3c86:	8803      	ldrh	r3, [r0, #0]
    3c88:	8840      	ldrh	r0, [r0, #2]
    3c8a:	0400      	lsls	r0, r0, #16
    3c8c:	4303      	orrs	r3, r0
    3c8e:	1aed      	subs	r5, r5, r3
    3c90:	e016      	b.n	3cc0 <Sucheflashpointer_Speicherbelegung_fertig>
    3c92:	2380      	movs	r3, #128	; 0x80
    3c94:	400b      	ands	r3, r1
    3c96:	d013      	beq.n	3cc0 <Sucheflashpointer_Speicherbelegung_fertig>
    3c98:	230f      	movs	r3, #15
    3c9a:	4019      	ands	r1, r3
    3c9c:	0089      	lsls	r1, r1, #2
    3c9e:	1a6d      	subs	r5, r5, r1
    3ca0:	1db0      	adds	r0, r6, #6
    3ca2:	f7fe ffd9 	bl	2c58 <skipstring>
    3ca6:	f7fe fb4a 	bl	233e <suchedefinitionsende>
    3caa:	3f04      	subs	r7, #4
    3cac:	603e      	str	r6, [r7, #0]
    3cae:	0006      	movs	r6, r0
    3cb0:	3f04      	subs	r7, #4
    3cb2:	603e      	str	r6, [r7, #0]
    3cb4:	002e      	movs	r6, r5
    3cb6:	3f04      	subs	r7, #4
    3cb8:	603e      	str	r6, [r7, #0]
    3cba:	000e      	movs	r6, r1
    3cbc:	f7fd f92e 	bl	f1c <Code_181>

00003cc0 <Sucheflashpointer_Speicherbelegung_fertig>:
    3cc0:	f7fe ffa7 	bl	2c12 <Code_663>
    3cc4:	0030      	movs	r0, r6
    3cc6:	cf40      	ldmia	r7!, {r6}
    3cc8:	d0d1      	beq.n	3c6e <SucheFlashPointer_Hangelschleife>
    3cca:	483a      	ldr	r0, [pc, #232]	; (3db4 <init_name+0x56>)
    3ccc:	6006      	str	r6, [r0, #0]
    3cce:	cf40      	ldmia	r7!, {r6}
    3cd0:	4839      	ldr	r0, [pc, #228]	; (3db8 <init_name+0x5a>)
    3cd2:	6005      	str	r5, [r0, #0]
    3cd4:	4839      	ldr	r0, [pc, #228]	; (3dbc <init_name+0x5e>)
    3cd6:	493a      	ldr	r1, [pc, #232]	; (3dc0 <init_name+0x62>)
    3cd8:	4a34      	ldr	r2, [pc, #208]	; (3dac <init_name+0x4e>)
    3cda:	4288      	cmp	r0, r1
    3cdc:	d004      	beq.n	3ce8 <Sucheflashpointer_Speicherbelegung_fertig+0x28>
    3cde:	3802      	subs	r0, #2
    3ce0:	8803      	ldrh	r3, [r0, #0]
    3ce2:	4293      	cmp	r3, r2
    3ce4:	d0f9      	beq.n	3cda <Sucheflashpointer_Speicherbelegung_fertig+0x1a>
    3ce6:	3002      	adds	r0, #2
    3ce8:	4936      	ldr	r1, [pc, #216]	; (3dc4 <init_name+0x66>)
    3cea:	6008      	str	r0, [r1, #0]
    3cec:	f7fd fc0c 	bl	1508 <sammeltabelleleeren>
    3cf0:	f7fe f81a 	bl	1d28 <dotgaensefuesschen>
    3cf4:	63654d43 	cmnvs	r5, #4288	; 0x10c0
    3cf8:	70736972 	rsbsvc	r6, r3, r2, ror r9
    3cfc:	6574532d 	ldrbvs	r5, [r4, #-813]!	; 0x32d
    3d00:	72616c6c 	rsbvc	r6, r1, #27648	; 0x6c00
    3d04:	32207369 	eorcc	r7, r0, #-1543503871	; 0xa4000001
    3d08:	312e322e 	teqcc	lr, lr, lsr #4
    3d0c:	74697720 	strbtvc	r7, [r9], #-1824	; 0x720
    3d10:	304d2068 	subcc	r2, sp, r8, rrx
    3d14:	726f6320 	rsbvc	r6, pc, #-2147483648	; 0x80000000
    3d18:	6f662065 	svcvs	0x00662065
    3d1c:	4c4b2072 	mcrrmi	0, 7, r2, fp, cr2
    3d20:	315a3532 	cmpcc	sl, r2, lsr r5
    3d24:	62203832 	eorvs	r3, r0, #3276800	; 0x320000
    3d28:	614d2079 	hvcvs	53769	; 0xd209
    3d2c:	69687474 	stmdbvs	r8!, {r2, r4, r5, r6, sl, ip, sp, lr}^
    3d30:	4b207361 	blmi	820abc <BIT23+0x20abc>
    3d34:	0a68636f 	beq	1a1caf8 <BIT24+0xa1caf8>
    3d38:	4823      	ldr	r0, [pc, #140]	; (3dc8 <init_name+0x6a>)
    3d3a:	2100      	movs	r1, #0
    3d3c:	6001      	str	r1, [r0, #0]
    3d3e:	3f04      	subs	r7, #4
    3d40:	603e      	str	r6, [r7, #0]
    3d42:	4e22      	ldr	r6, [pc, #136]	; (3dcc <init_name+0x6e>)
    3d44:	3f04      	subs	r7, #4
    3d46:	603e      	str	r6, [r7, #0]
    3d48:	2604      	movs	r6, #4
    3d4a:	f7fe ff95 	bl	2c78 <Code_668>
    3d4e:	cf40      	ldmia	r7!, {r6}
    3d50:	2e00      	cmp	r6, #0
    3d52:	d002      	beq.n	3d5a <Sucheflashpointer_Speicherbelegung_fertig+0x9a>
    3d54:	f7fe fb79 	bl	244a <Code_521>
    3d58:	e659      	b.n	3a0e <quit_intern>
    3d5a:	cf40      	ldmia	r7!, {r6}
    3d5c:	e644      	b.n	39e8 <Code_950>

00003d5e <init_name>:
    3d5e:	74696e69 	strbtvc	r6, [r9], #-3689	; 0xe69
    3d62:	ed0c0000 	stc	0, cr0, [ip]
    3d66:	0004e000 	andeq	lr, r4, r0
    3d6a:	2fd005fa 	svccs	0x00d005fa
    3d6e:	2fcc2000 	svccs	0x00cc2000
    3d72:	2fc82000 	svccs	0x00c82000
    3d76:	2fc42000 	svccs	0x00c42000
    3d7a:	2fc02000 	svccs	0x00c02000
    3d7e:	2fbc2000 	svccs	0x00bc2000
    3d82:	2fb82000 	svccs	0x00b82000
    3d86:	2fb42000 	svccs	0x00b42000
    3d8a:	81002000 	mrshi	r2, (UNDEF: 0)
    3d8e:	f3304004 	vhadd.u<illegal width 64>	d4, d0, d4
    3d92:	f2301fff 	vrsqrts.f<illegal width 64>	<illegal reg q0.5>, q8, <illegal reg q15.5>
    3d96:	f0001fff 			; <UNDEFINED> instruction: 0xf0001fff
    3d9a:	f3f01fff 			; <UNDEFINED> instruction: 0xf3f01fff
    3d9e:	f0041fff 			; <UNDEFINED> instruction: 0xf0041fff
    3da2:	04101fff 	ldreq	r1, [r0], #-4095	; 0xfff
    3da6:	30000000 	andcc	r0, r0, r0
    3daa:	ffff2000 			; <UNDEFINED> instruction: 0xffff2000
    3dae:	01000000 	mrseq	r0, (UNDEF: 0)
    3db2:	f01c0000 			; <UNDEFINED> instruction: 0xf01c0000
    3db6:	f0241fff 			; <UNDEFINED> instruction: 0xf0241fff
    3dba:	00001fff 	strdeq	r1, [r0], -pc	; <UNPREDICTABLE>
    3dbe:	40000002 	andmi	r0, r0, r2
    3dc2:	f0180000 			; <UNDEFINED> instruction: 0xf0180000
    3dc6:	f0081fff 			; <UNDEFINED> instruction: 0xf0081fff
    3dca:	3d5e1fff 	ldclcc	15, cr1, [lr, #-1020]	; 0xfffffc04
	...

Disassembly of section .ARM.attributes:

00000000 <.ARM.attributes>:
   0:	00002241 	andeq	r2, r0, r1, asr #4
   4:	61656100 	cmnvs	r5, r0, lsl #2
   8:	01006962 	tsteq	r0, r2, ror #18
   c:	00000018 	andeq	r0, r0, r8, lsl r0
  10:	726f4305 	rsbvc	r4, pc, #335544320	; 0x14000000
  14:	2d786574 	cfldr64cs	mvdx6, [r8, #-464]!	; 0xfffffe30
  18:	0600304d 	streq	r3, [r0], -sp, asr #32
  1c:	094d070c 	stmdbeq	sp, {r2, r3, r8, r9, sl}^
  20:	Address 0x00000020 is out of bounds.

