
mecrisp-stellaris-nrf51822.elf:     file format elf32-littlearm


Disassembly of section .text:

00000000 <addresszero>:
       0:	20000330 	andcs	r0, r0, r0, lsr r3
       4:	00003ae5 	andeq	r3, r0, r5, ror #21
       8:	000036a9 	andeq	r3, r0, r9, lsr #13
       c:	000036a9 	andeq	r3, r0, r9, lsr #13
	...
      2c:	000036d3 	ldrdeq	r3, [r0], -r3	; <UNPREDICTABLE>
	...
      38:	000036d3 	ldrdeq	r3, [r0], -r3	; <UNPREDICTABLE>
      3c:	00003687 	andeq	r3, r0, r7, lsl #13
      40:	000036f5 	strdeq	r3, [r0], -r5
      44:	00003719 	andeq	r3, r0, r9, lsl r7
      48:	0000373d 	andeq	r3, r0, sp, lsr r7
      4c:	00003761 	andeq	r3, r0, r1, ror #14
      50:	00003785 	andeq	r3, r0, r5, lsl #15
      54:	00000000 	andeq	r0, r0, r0
      58:	000037ab 	andeq	r3, r0, fp, lsr #15
      5c:	000037cb 	andeq	r3, r0, fp, asr #15
      60:	000037ed 	andeq	r3, r0, sp, ror #15
      64:	00003811 	andeq	r3, r0, r1, lsl r8
      68:	00003835 	andeq	r3, r0, r5, lsr r8
      6c:	00003859 	andeq	r3, r0, r9, asr r8
      70:	0000387d 	andeq	r3, r0, sp, ror r8
      74:	0000389f 	muleq	r0, pc, r8	; <UNPREDICTABLE>
      78:	000038bf 			; <UNDEFINED> instruction: 0x000038bf
      7c:	000038e3 	andeq	r3, r0, r3, ror #17
      80:	00003903 	andeq	r3, r0, r3, lsl #18
      84:	00003925 	andeq	r3, r0, r5, lsr #18
      88:	00003949 	andeq	r3, r0, r9, asr #18
      8c:	0000396f 	andeq	r3, r0, pc, ror #18
      90:	00003991 	muleq	r0, r1, r9
      94:	000039b5 			; <UNDEFINED> instruction: 0x000039b5
      98:	000039d9 	ldrdeq	r3, [r0], -r9
      9c:	000039fd 	strdeq	r3, [r0], -sp
      a0:	00003a21 	andeq	r3, r0, r1, lsr #20
      a4:	00003a45 	andeq	r3, r0, r5, asr #20
	...

000000c0 <CoreDictionaryAnfang>:
      c0:	000000e8 	andeq	r0, r0, r8, ror #1
      c4:	2d1effff 	ldccs	15, cr15, [lr, #-1020]	; 0xfffffc04
      c8:	4d202d2d 	stcmi	13, cr2, [r0, #-180]!	; 0xffffff4c
      cc:	69726365 	ldmdbvs	r2!, {r0, r2, r5, r6, r8, r9, sp, lr}^
      d0:	532d7073 	teqpl	sp, #115	; 0x73
      d4:	6c6c6574 	cfstr64vs	mvdx6, [ip], #-464	; 0xfffffe30
      d8:	73697261 	cmnvc	r9, #268435462	; 0x10000006
      dc:	726f4320 	rsbvc	r4, pc, #-2147483648	; 0x80000000
      e0:	2d2d2065 	stccs	0, cr2, [sp, #-404]!	; 0xfffffe6c
      e4:	46c0002d 	strbmi	r0, [r0], sp, lsr #32

000000e6 <Code_16>:
      e6:	46c0      	nop			; (mov r8, r8)

000000e8 <Dictionary_17>:
      e8:	00000100 	andeq	r0, r0, r0, lsl #2
      ec:	32040042 	andcc	r0, r4, #66	; 0x42
      f0:	00707564 	rsbseq	r7, r0, r4, ror #10

000000f4 <Code_17>:
      f4:	6838      	ldr	r0, [r7, #0]
      f6:	3f04      	subs	r7, #4
      f8:	603e      	str	r6, [r7, #0]
      fa:	3f04      	subs	r7, #4
      fc:	6038      	str	r0, [r7, #0]
      fe:	4770      	bx	lr

00000100 <Dictionary_19>:
     100:	00000114 	andeq	r0, r0, r4, lsl r1
     104:	32050062 	andcc	r0, r5, #98	; 0x62
     108:	706f7264 	rsbvc	r7, pc, r4, ror #4

0000010c <Code_19>:
     10c:	3704      	adds	r7, #4
     10e:	cf40      	ldmia	r7!, {r6}
     110:	4770      	bx	lr
     112:	46c0      	nop			; (mov r8, r8)

00000114 <Dictionary_21>:
     114:	00000134 	andeq	r0, r0, r4, lsr r1
     118:	32050044 	andcc	r0, r5, #68	; 0x44
     11c:	70617773 	rsbvc	r7, r1, r3, ror r7

00000120 <Code_21>:
     120:	cf07      	ldmia	r7!, {r0, r1, r2}
     122:	3f04      	subs	r7, #4
     124:	6038      	str	r0, [r7, #0]
     126:	3f04      	subs	r7, #4
     128:	603e      	str	r6, [r7, #0]
     12a:	3f04      	subs	r7, #4
     12c:	603a      	str	r2, [r7, #0]
     12e:	000e      	movs	r6, r1
     130:	4770      	bx	lr
     132:	46c0      	nop			; (mov r8, r8)

00000134 <Dictionary_23>:
     134:	00000148 	andeq	r0, r0, r8, asr #2
     138:	32040062 	andcc	r0, r4, #98	; 0x62
     13c:	0070696e 	rsbseq	r6, r0, lr, ror #18

00000140 <Code_23>:
     140:	cf07      	ldmia	r7!, {r0, r1, r2}
     142:	3f04      	subs	r7, #4
     144:	6038      	str	r0, [r7, #0]
     146:	4770      	bx	lr

00000148 <Dictionary_24>:
     148:	00000164 	andeq	r0, r0, r4, ror #2
     14c:	32050044 	andcc	r0, r5, #68	; 0x44
     150:	7265766f 	rsbvc	r7, r5, #116391936	; 0x6f00000

00000154 <Code_24>:
     154:	68b8      	ldr	r0, [r7, #8]
     156:	3f04      	subs	r7, #4
     158:	603e      	str	r6, [r7, #0]
     15a:	3f04      	subs	r7, #4
     15c:	6038      	str	r0, [r7, #0]
     15e:	68fe      	ldr	r6, [r7, #12]
     160:	4770      	bx	lr
     162:	46c0      	nop			; (mov r8, r8)

00000164 <Dictionary_26>:
     164:	00000188 	andeq	r0, r0, r8, lsl #3
     168:	32050044 	andcc	r0, r5, #68	; 0x44
     16c:	6b637574 	blvs	18dd744 <BIT24+0x8dd744>

00000170 <Code_26>:
     170:	cf07      	ldmia	r7!, {r0, r1, r2}
     172:	3f04      	subs	r7, #4
     174:	6038      	str	r0, [r7, #0]
     176:	3f04      	subs	r7, #4
     178:	603e      	str	r6, [r7, #0]
     17a:	3f04      	subs	r7, #4
     17c:	603a      	str	r2, [r7, #0]
     17e:	3f04      	subs	r7, #4
     180:	6039      	str	r1, [r7, #0]
     182:	3f04      	subs	r7, #4
     184:	6038      	str	r0, [r7, #0]
     186:	4770      	bx	lr

00000188 <Dictionary_28>:
     188:	000001ac 	andeq	r0, r0, ip, lsr #3
     18c:	32040046 	andcc	r0, r4, #70	; 0x46
     190:	00746f72 	rsbseq	r6, r4, r2, ror pc

00000194 <Code_28>:
     194:	6838      	ldr	r0, [r7, #0]
     196:	68b9      	ldr	r1, [r7, #8]
     198:	693a      	ldr	r2, [r7, #16]
     19a:	60b8      	str	r0, [r7, #8]
     19c:	6139      	str	r1, [r7, #16]
     19e:	603a      	str	r2, [r7, #0]
     1a0:	6879      	ldr	r1, [r7, #4]
     1a2:	607e      	str	r6, [r7, #4]
     1a4:	68fe      	ldr	r6, [r7, #12]
     1a6:	60f9      	str	r1, [r7, #12]
     1a8:	4770      	bx	lr
     1aa:	46c0      	nop			; (mov r8, r8)

000001ac <Dictionary_29>:
     1ac:	000001d0 	ldrdeq	r0, [r0], -r0	; <UNPREDICTABLE>
     1b0:	32050046 	andcc	r0, r5, #70	; 0x46
     1b4:	746f722d 	strbtvc	r7, [pc], #-557	; 1bc <Code_29+0x4>

000001b8 <Code_29>:
     1b8:	6838      	ldr	r0, [r7, #0]
     1ba:	68b9      	ldr	r1, [r7, #8]
     1bc:	693a      	ldr	r2, [r7, #16]
     1be:	6138      	str	r0, [r7, #16]
     1c0:	6039      	str	r1, [r7, #0]
     1c2:	60ba      	str	r2, [r7, #8]
     1c4:	68f9      	ldr	r1, [r7, #12]
     1c6:	60fe      	str	r6, [r7, #12]
     1c8:	687e      	ldr	r6, [r7, #4]
     1ca:	6079      	str	r1, [r7, #4]
     1cc:	4770      	bx	lr
     1ce:	46c0      	nop			; (mov r8, r8)

000001d0 <Dictionary_30>:
     1d0:	000001e4 	andeq	r0, r0, r4, ror #3
     1d4:	32030020 	andcc	r0, r3, #32
     1d8:	cf01723e 	svcgt	0x0001723e

000001da <Code_30>:
     1da:	cf01      	ldmia	r7!, {r0}
     1dc:	b401      	push	{r0}
     1de:	b440      	push	{r6}
     1e0:	cf40      	ldmia	r7!, {r6}
     1e2:	4770      	bx	lr

000001e4 <Dictionary_31>:
     1e4:	000001fc 	strdeq	r0, [r0], -ip
     1e8:	32030020 	andcc	r0, r3, #32
     1ec:	3f043e72 	svccc	0x00043e72

000001ee <Code_31>:
     1ee:	3f04      	subs	r7, #4
     1f0:	603e      	str	r6, [r7, #0]
     1f2:	bc40      	pop	{r6}
     1f4:	bc01      	pop	{r0}
     1f6:	3f04      	subs	r7, #4
     1f8:	6038      	str	r0, [r7, #0]
     1fa:	4770      	bx	lr

000001fc <Dictionary_33>:
     1fc:	00000214 	andeq	r0, r0, r4, lsl r2
     200:	32030020 	andcc	r0, r3, #32
     204:	3f044072 	svccc	0x00044072

00000206 <Code_33>:
     206:	3f04      	subs	r7, #4
     208:	603e      	str	r6, [r7, #0]
     20a:	9e01      	ldr	r6, [sp, #4]
     20c:	3f04      	subs	r7, #4
     20e:	603e      	str	r6, [r7, #0]
     210:	9e00      	ldr	r6, [sp, #0]
     212:	4770      	bx	lr

00000214 <Dictionary_36>:
     214:	00000228 	andeq	r0, r0, r8, lsr #4
     218:	32060020 	andcc	r0, r6, #32
     21c:	6f726472 	svcvs	0x00726472
     220:	b0020070 	andlt	r0, r2, r0, ror r0

00000222 <Code_36>:
     222:	b002      	add	sp, #8
     224:	4770      	bx	lr
     226:	46c0      	nop			; (mov r8, r8)

00000228 <Dictionary_37>:
     228:	00000240 	andeq	r0, r0, r0, asr #4
     22c:	64030042 	strvs	r0, [r3], #-66	; 0x42
     230:	68382f32 	ldmdavs	r8!, {r1, r4, r5, r8, r9, sl, fp, sp}

00000232 <Code_37>:
     232:	6838      	ldr	r0, [r7, #0]
     234:	07f1      	lsls	r1, r6, #31
     236:	1076      	asrs	r6, r6, #1
     238:	0840      	lsrs	r0, r0, #1
     23a:	4308      	orrs	r0, r1
     23c:	6038      	str	r0, [r7, #0]
     23e:	4770      	bx	lr

00000240 <Dictionary_38>:
     240:	00000254 	andeq	r0, r0, r4, asr r2
     244:	64030062 	strvs	r0, [r3], #-98	; 0x62
     248:	68382a32 	ldmdavs	r8!, {r1, r4, r5, r9, fp, sp}

0000024a <Code_38>:
     24a:	6838      	ldr	r0, [r7, #0]
     24c:	1800      	adds	r0, r0, r0
     24e:	4176      	adcs	r6, r6
     250:	6038      	str	r0, [r7, #0]
     252:	4770      	bx	lr

00000254 <Dictionary_39>:
     254:	00000270 	andeq	r0, r0, r0, ror r2
     258:	64040042 	strvs	r0, [r4], #-66	; 0x42
     25c:	00726873 	rsbseq	r6, r2, r3, ror r8

00000260 <Code_39>:
     260:	6838      	ldr	r0, [r7, #0]
     262:	07f1      	lsls	r1, r6, #31
     264:	0876      	lsrs	r6, r6, #1
     266:	0840      	lsrs	r0, r0, #1
     268:	4308      	orrs	r0, r1
     26a:	6038      	str	r0, [r7, #0]
     26c:	4770      	bx	lr
     26e:	46c0      	nop			; (mov r8, r8)

00000270 <Dictionary_40>:
     270:	00000288 	andeq	r0, r0, r8, lsl #5
     274:	64040062 	strvs	r0, [r4], #-98	; 0x62
     278:	006c6873 	rsbeq	r6, ip, r3, ror r8

0000027c <Code_40>:
     27c:	6838      	ldr	r0, [r7, #0]
     27e:	1800      	adds	r0, r0, r0
     280:	4176      	adcs	r6, r6
     282:	6038      	str	r0, [r7, #0]
     284:	4770      	bx	lr
     286:	46c0      	nop			; (mov r8, r8)

00000288 <Dictionary_41>:
     288:	0000029c 	muleq	r0, ip, r2
     28c:	64040042 	strvs	r0, [r4], #-66	; 0x42
     290:	00736261 	rsbseq	r6, r3, r1, ror #4

00000294 <Code_41>:
     294:	2e00      	cmp	r6, #0
     296:	d408      	bmi.n	2aa <Code_42>
     298:	4770      	bx	lr
     29a:	46c0      	nop			; (mov r8, r8)

0000029c <Dictionary_42>:
     29c:	000002bc 			; <UNDEFINED> instruction: 0x000002bc
     2a0:	64070042 	strvs	r0, [r7], #-66	; 0x42
     2a4:	6167656e 	cmnvs	r7, lr, ror #10
     2a8:	68386574 	ldmdavs	r8!, {r2, r4, r5, r6, r8, sl, sp, lr}

000002aa <Code_42>:
     2aa:	6838      	ldr	r0, [r7, #0]
     2ac:	2100      	movs	r1, #0
     2ae:	43c0      	mvns	r0, r0
     2b0:	43f6      	mvns	r6, r6
     2b2:	3001      	adds	r0, #1
     2b4:	414e      	adcs	r6, r1
     2b6:	6038      	str	r0, [r7, #0]
     2b8:	4770      	bx	lr
     2ba:	46c0      	nop			; (mov r8, r8)

000002bc <Dictionary_43>:
     2bc:	000002d4 	ldrdeq	r0, [r0], -r4
     2c0:	64020064 	strvs	r0, [r2], #-100	; 0x64
     2c4:	cf07002d 	svcgt	0x0007002d

000002c6 <Code_43>:
     2c6:	cf07      	ldmia	r7!, {r0, r1, r2}
     2c8:	1a12      	subs	r2, r2, r0
     2ca:	41b1      	sbcs	r1, r6
     2cc:	000e      	movs	r6, r1
     2ce:	3f04      	subs	r7, #4
     2d0:	603a      	str	r2, [r7, #0]
     2d2:	4770      	bx	lr

000002d4 <Dictionary_44>:
     2d4:	000002ec 	andeq	r0, r0, ip, ror #5
     2d8:	64020064 	strvs	r0, [r2], #-100	; 0x64
     2dc:	cf07002b 	svcgt	0x0007002b

000002de <Code_44>:
     2de:	cf07      	ldmia	r7!, {r0, r1, r2}
     2e0:	1812      	adds	r2, r2, r0
     2e2:	414e      	adcs	r6, r1
     2e4:	3f04      	subs	r7, #4
     2e6:	603a      	str	r2, [r7, #0]
     2e8:	4770      	bx	lr
     2ea:	46c0      	nop			; (mov r8, r8)

000002ec <Dictionary_45>:
     2ec:	00000300 	andeq	r0, r0, r0, lsl #6
     2f0:	73030061 	movwvc	r0, #12385	; 0x3061
     2f4:	3f04643e 	svccc	0x0004643e

000002f6 <Code_45>:
     2f6:	3f04      	subs	r7, #4
     2f8:	603e      	str	r6, [r7, #0]
     2fa:	17f6      	asrs	r6, r6, #31
     2fc:	4770      	bx	lr
     2fe:	46c0      	nop			; (mov r8, r8)

00000300 <Dictionary_47>:
     300:	0000032c 	andeq	r0, r0, ip, lsr #6
     304:	75030042 	strvc	r0, [r3, #-66]	; 0x42
     308:	68382a6d 	ldmdavs	r8!, {r0, r2, r3, r5, r6, r9, fp, sp}

0000030a <Code_47>:
     30a:	6838      	ldr	r0, [r7, #0]
     30c:	0003      	movs	r3, r0
     30e:	4373      	muls	r3, r6
     310:	603b      	str	r3, [r7, #0]
     312:	0c01      	lsrs	r1, r0, #16
     314:	0c32      	lsrs	r2, r6, #16
     316:	000b      	movs	r3, r1
     318:	4353      	muls	r3, r2
     31a:	b2b6      	uxth	r6, r6
     31c:	b280      	uxth	r0, r0
     31e:	434e      	muls	r6, r1
     320:	4350      	muls	r0, r2
     322:	1836      	adds	r6, r6, r0
     324:	0c36      	lsrs	r6, r6, #16
     326:	18f6      	adds	r6, r6, r3
     328:	4770      	bx	lr
     32a:	46c0      	nop			; (mov r8, r8)

0000032c <Dictionary_48>:
     32c:	0000035c 	andeq	r0, r0, ip, asr r3
     330:	6d020042 	stcvs	0, cr0, [r2, #-264]	; 0xfffffef8
     334:	6838002a 	ldmdavs	r8!, {r1, r3, r5}

00000336 <Code_48>:
     336:	6838      	ldr	r0, [r7, #0]
     338:	17c1      	asrs	r1, r0, #31
     33a:	d005      	beq.n	348 <Code_48+0x12>
     33c:	4240      	negs	r0, r0
     33e:	6038      	str	r0, [r7, #0]
     340:	17f0      	asrs	r0, r6, #31
     342:	d004      	beq.n	34e <Code_48+0x18>
     344:	4276      	negs	r6, r6
     346:	e7e0      	b.n	30a <Code_47>
     348:	17f0      	asrs	r0, r6, #31
     34a:	d0de      	beq.n	30a <Code_47>
     34c:	4276      	negs	r6, r6
     34e:	b500      	push	{lr}
     350:	f7ff ffdb 	bl	30a <Code_47>
     354:	f7ff ffa9 	bl	2aa <Code_42>
     358:	bd00      	pop	{pc}
     35a:	46c0      	nop			; (mov r8, r8)

0000035c <Dictionary_49>:
     35c:	0000039c 	muleq	r0, ip, r3
     360:	75030044 	strvc	r0, [r3, #-68]	; 0x44
     364:	cf072a64 	svcgt	0x00072a64

00000366 <Code_49>:
     366:	cf07      	ldmia	r7!, {r0, r1, r2}
     368:	4356      	muls	r6, r2
     36a:	4341      	muls	r1, r0
     36c:	1876      	adds	r6, r6, r1
     36e:	0c01      	lsrs	r1, r0, #16
     370:	0c13      	lsrs	r3, r2, #16
     372:	4359      	muls	r1, r3
     374:	1876      	adds	r6, r6, r1
     376:	0c01      	lsrs	r1, r0, #16
     378:	b280      	uxth	r0, r0
     37a:	b292      	uxth	r2, r2
     37c:	4351      	muls	r1, r2
     37e:	4343      	muls	r3, r0
     380:	4350      	muls	r0, r2
     382:	2200      	movs	r2, #0
     384:	18c9      	adds	r1, r1, r3
     386:	4152      	adcs	r2, r2
     388:	0412      	lsls	r2, r2, #16
     38a:	18b6      	adds	r6, r6, r2
     38c:	040a      	lsls	r2, r1, #16
     38e:	0c09      	lsrs	r1, r1, #16
     390:	1880      	adds	r0, r0, r2
     392:	414e      	adcs	r6, r1
     394:	3f04      	subs	r7, #4
     396:	6038      	str	r0, [r7, #0]
     398:	4770      	bx	lr
     39a:	46c0      	nop			; (mov r8, r8)

0000039c <Dictionary_50>:
     39c:	00000430 	andeq	r0, r0, r0, lsr r4
     3a0:	75040044 	strvc	r0, [r4, #-68]	; 0x44
     3a4:	002a6d64 	eoreq	r6, sl, r4, ror #26

000003a8 <Code_50>:
     3a8:	b510      	push	{r4, lr}
     3aa:	2400      	movs	r4, #0
     3ac:	3f04      	subs	r7, #4
     3ae:	603e      	str	r6, [r7, #0]
     3b0:	687e      	ldr	r6, [r7, #4]
     3b2:	3f04      	subs	r7, #4
     3b4:	603e      	str	r6, [r7, #0]
     3b6:	693e      	ldr	r6, [r7, #16]
     3b8:	f7ff ffa7 	bl	30a <Code_47>
     3bc:	0031      	movs	r1, r6
     3be:	cf40      	ldmia	r7!, {r6}
     3c0:	0030      	movs	r0, r6
     3c2:	cf40      	ldmia	r7!, {r6}
     3c4:	3f04      	subs	r7, #4
     3c6:	603e      	str	r6, [r7, #0]
     3c8:	683e      	ldr	r6, [r7, #0]
     3ca:	3f04      	subs	r7, #4
     3cc:	603e      	str	r6, [r7, #0]
     3ce:	68fe      	ldr	r6, [r7, #12]
     3d0:	b403      	push	{r0, r1}
     3d2:	f7ff ff9a 	bl	30a <Code_47>
     3d6:	bc03      	pop	{r0, r1}
     3d8:	0033      	movs	r3, r6
     3da:	cf40      	ldmia	r7!, {r6}
     3dc:	0032      	movs	r2, r6
     3de:	cf40      	ldmia	r7!, {r6}
     3e0:	3f04      	subs	r7, #4
     3e2:	603e      	str	r6, [r7, #0]
     3e4:	683e      	ldr	r6, [r7, #0]
     3e6:	3f04      	subs	r7, #4
     3e8:	603e      	str	r6, [r7, #0]
     3ea:	693e      	ldr	r6, [r7, #16]
     3ec:	b40f      	push	{r0, r1, r2, r3}
     3ee:	f7ff ff8c 	bl	30a <Code_47>
     3f2:	bc0f      	pop	{r0, r1, r2, r3}
     3f4:	1992      	adds	r2, r2, r6
     3f6:	4163      	adcs	r3, r4
     3f8:	cf40      	ldmia	r7!, {r6}
     3fa:	1989      	adds	r1, r1, r6
     3fc:	4162      	adcs	r2, r4
     3fe:	4163      	adcs	r3, r4
     400:	cf40      	ldmia	r7!, {r6}
     402:	3f04      	subs	r7, #4
     404:	603e      	str	r6, [r7, #0]
     406:	687e      	ldr	r6, [r7, #4]
     408:	3f04      	subs	r7, #4
     40a:	603e      	str	r6, [r7, #0]
     40c:	68fe      	ldr	r6, [r7, #12]
     40e:	b40f      	push	{r0, r1, r2, r3}
     410:	f7ff ff7b 	bl	30a <Code_47>
     414:	bc0f      	pop	{r0, r1, r2, r3}
     416:	1992      	adds	r2, r2, r6
     418:	4163      	adcs	r3, r4
     41a:	cf40      	ldmia	r7!, {r6}
     41c:	1989      	adds	r1, r1, r6
     41e:	4162      	adcs	r2, r4
     420:	4163      	adcs	r3, r4
     422:	cf40      	ldmia	r7!, {r6}
     424:	001e      	movs	r6, r3
     426:	603a      	str	r2, [r7, #0]
     428:	6079      	str	r1, [r7, #4]
     42a:	60b8      	str	r0, [r7, #8]
     42c:	bd10      	pop	{r4, pc}
     42e:	46c0      	nop			; (mov r8, r8)

00000430 <Dictionary_67>:
     430:	00000454 	andeq	r0, r0, r4, asr r4
     434:	2a020043 	bcs	80548 <BIT19+0x548>
     438:	b500002f 	strlt	r0, [r0, #-47]	; 0x2f

0000043a <Code_67>:
     43a:	b500      	push	{lr}
     43c:	b440      	push	{r6}
     43e:	cf40      	ldmia	r7!, {r6}
     440:	f7ff ff79 	bl	336 <Code_48>
     444:	3f04      	subs	r7, #4
     446:	603e      	str	r6, [r7, #0]
     448:	bc40      	pop	{r6}
     44a:	f000 f84f 	bl	4ec <Code_90>
     44e:	3704      	adds	r7, #4
     450:	bd00      	pop	{pc}
     452:	46c0      	nop			; (mov r8, r8)

00000454 <Dictionary_72>:
     454:	00000478 	andeq	r0, r0, r8, ror r4
     458:	2a050043 	bcs	14056c <BIT20+0x4056c>
     45c:	646f6d2f 	strbtvs	r6, [pc], #-3375	; 464 <Code_72+0x4>

00000460 <Code_72>:
     460:	b500      	push	{lr}
     462:	b440      	push	{r6}
     464:	cf40      	ldmia	r7!, {r6}
     466:	f7ff ff66 	bl	336 <Code_48>
     46a:	3f04      	subs	r7, #4
     46c:	603e      	str	r6, [r7, #0]
     46e:	bc40      	pop	{r6}
     470:	f000 f83c 	bl	4ec <Code_90>
     474:	bd00      	pop	{pc}
     476:	46c0      	nop			; (mov r8, r8)

00000478 <Dictionary_76>:
     478:	0000049c 	muleq	r0, ip, r4
     47c:	75030043 	strvc	r0, [r3, #-67]	; 0x43
     480:	b5002f2a 	strlt	r2, [r0, #-3882]	; 0xf2a

00000482 <Code_76>:
     482:	b500      	push	{lr}
     484:	b440      	push	{r6}
     486:	cf40      	ldmia	r7!, {r6}
     488:	f7ff ff3f 	bl	30a <Code_47>
     48c:	3f04      	subs	r7, #4
     48e:	603e      	str	r6, [r7, #0]
     490:	bc40      	pop	{r6}
     492:	f000 f81c 	bl	4ce <Code_85>
     496:	3704      	adds	r7, #4
     498:	bd00      	pop	{pc}
     49a:	46c0      	nop			; (mov r8, r8)

0000049c <Dictionary_81>:
     49c:	000004c0 	andeq	r0, r0, r0, asr #9
     4a0:	75060043 	strvc	r0, [r6, #-67]	; 0x43
     4a4:	6f6d2f2a 	svcvs	0x006d2f2a
     4a8:	b5000064 	strlt	r0, [r0, #-100]	; 0x64

000004aa <Code_81>:
     4aa:	b500      	push	{lr}
     4ac:	b440      	push	{r6}
     4ae:	cf40      	ldmia	r7!, {r6}
     4b0:	f7ff ff2b 	bl	30a <Code_47>
     4b4:	3f04      	subs	r7, #4
     4b6:	603e      	str	r6, [r7, #0]
     4b8:	bc40      	pop	{r6}
     4ba:	f000 f808 	bl	4ce <Code_85>
     4be:	bd00      	pop	{pc}

000004c0 <Dictionary_85>:
     4c0:	000004e0 	andeq	r0, r0, r0, ror #9
     4c4:	75060043 	strvc	r0, [r6, #-67]	; 0x43
     4c8:	6f6d2f6d 	svcvs	0x006d2f6d
     4cc:	b5000064 	strlt	r0, [r0, #-100]	; 0x64

000004ce <Code_85>:
     4ce:	b500      	push	{lr}
     4d0:	3f04      	subs	r7, #4
     4d2:	603e      	str	r6, [r7, #0]
     4d4:	2600      	movs	r6, #0
     4d6:	f000 f81a 	bl	50e <Code_94>
     4da:	cf40      	ldmia	r7!, {r6}
     4dc:	3704      	adds	r7, #4
     4de:	bd00      	pop	{pc}

000004e0 <Dictionary_90>:
     4e0:	00000500 	andeq	r0, r0, r0, lsl #10
     4e4:	6d050043 	stcvs	0, cr0, [r5, #-268]	; 0xfffffef4
     4e8:	646f6d2f 	strbtvs	r6, [pc], #-3375	; 4f0 <Code_90+0x4>

000004ec <Code_90>:
     4ec:	b500      	push	{lr}
     4ee:	3f04      	subs	r7, #4
     4f0:	603e      	str	r6, [r7, #0]
     4f2:	17f6      	asrs	r6, r6, #31
     4f4:	f000 f834 	bl	560 <Code_96>
     4f8:	cf40      	ldmia	r7!, {r6}
     4fa:	3704      	adds	r7, #4
     4fc:	bd00      	pop	{pc}
     4fe:	46c0      	nop			; (mov r8, r8)

00000500 <Dictionary_94>:
     500:	00000554 	andeq	r0, r0, r4, asr r5
     504:	75060044 	strvc	r0, [r6, #-68]	; 0x44
     508:	6f6d2f64 	svcvs	0x006d2f64
     50c:	b4300064 	ldrtlt	r0, [r0], #-100	; 0x64

0000050e <Code_94>:
     50e:	b430      	push	{r4, r5}
     510:	2300      	movs	r3, #0
     512:	2200      	movs	r2, #0
     514:	6879      	ldr	r1, [r7, #4]
     516:	68b8      	ldr	r0, [r7, #8]

00000518 <ud_slash_mod_internal>:
     518:	0035      	movs	r5, r6
     51a:	683c      	ldr	r4, [r7, #0]
     51c:	2640      	movs	r6, #64	; 0x40
     51e:	0040      	lsls	r0, r0, #1
     520:	4149      	adcs	r1, r1
     522:	4152      	adcs	r2, r2
     524:	415b      	adcs	r3, r3
     526:	42ab      	cmp	r3, r5
     528:	d802      	bhi.n	530 <ud_slash_mod_internal+0x18>
     52a:	d304      	bcc.n	536 <ud_slash_mod_internal+0x1e>
     52c:	42a2      	cmp	r2, r4
     52e:	d302      	bcc.n	536 <ud_slash_mod_internal+0x1e>
     530:	1b12      	subs	r2, r2, r4
     532:	41ab      	sbcs	r3, r5
     534:	3001      	adds	r0, #1
     536:	3e01      	subs	r6, #1
     538:	d1f1      	bne.n	51e <ud_slash_mod_internal+0x6>
     53a:	000e      	movs	r6, r1
     53c:	6038      	str	r0, [r7, #0]
     53e:	607b      	str	r3, [r7, #4]
     540:	60ba      	str	r2, [r7, #8]
     542:	bc30      	pop	{r4, r5}
     544:	4770      	bx	lr

00000546 <uf_slash_mod>:
     546:	b430      	push	{r4, r5}
     548:	2300      	movs	r3, #0
     54a:	687a      	ldr	r2, [r7, #4]
     54c:	68b9      	ldr	r1, [r7, #8]
     54e:	2000      	movs	r0, #0
     550:	e7e2      	b.n	518 <ud_slash_mod_internal>
     552:	46c0      	nop			; (mov r8, r8)

00000554 <Dictionary_96>:
     554:	000005cc 	andeq	r0, r0, ip, asr #11
     558:	64050044 	strvs	r0, [r5], #-68	; 0x44
     55c:	646f6d2f 	strbtvs	r6, [pc], #-3375	; 564 <Code_96+0x4>

00000560 <Code_96>:
     560:	b500      	push	{lr}
     562:	17f0      	asrs	r0, r6, #31
     564:	d019      	beq.n	59a <Code_96+0x3a>
     566:	f7ff fea0 	bl	2aa <Code_42>
     56a:	f7ff fdd9 	bl	120 <Code_21>
     56e:	17f0      	asrs	r0, r6, #31
     570:	d00c      	beq.n	58c <Code_96+0x2c>
     572:	f7ff fe9a 	bl	2aa <Code_42>
     576:	f7ff fdd3 	bl	120 <Code_21>
     57a:	f7ff ffc8 	bl	50e <Code_94>
     57e:	f7ff fdcf 	bl	120 <Code_21>
     582:	f7ff fe92 	bl	2aa <Code_42>
     586:	f7ff fdcb 	bl	120 <Code_21>
     58a:	bd00      	pop	{pc}
     58c:	f7ff fdc8 	bl	120 <Code_21>
     590:	f7ff ffbd 	bl	50e <Code_94>
     594:	f7ff fe89 	bl	2aa <Code_42>
     598:	bd00      	pop	{pc}
     59a:	f7ff fdc1 	bl	120 <Code_21>
     59e:	17f0      	asrs	r0, r6, #31
     5a0:	d00e      	beq.n	5c0 <Code_96+0x60>
     5a2:	f7ff fe82 	bl	2aa <Code_42>
     5a6:	f7ff fdbb 	bl	120 <Code_21>
     5aa:	f7ff ffb0 	bl	50e <Code_94>
     5ae:	f7ff fe7c 	bl	2aa <Code_42>
     5b2:	f7ff fdb5 	bl	120 <Code_21>
     5b6:	f7ff fe78 	bl	2aa <Code_42>
     5ba:	f7ff fdb1 	bl	120 <Code_21>
     5be:	bd00      	pop	{pc}
     5c0:	f7ff fdae 	bl	120 <Code_21>
     5c4:	f7ff ffa3 	bl	50e <Code_94>
     5c8:	bd00      	pop	{pc}
     5ca:	46c0      	nop			; (mov r8, r8)

000005cc <Dictionary_97>:
     5cc:	000005e4 	andeq	r0, r0, r4, ror #11
     5d0:	64020044 	strvs	r0, [r2], #-68	; 0x44
     5d4:	b500002f 	strlt	r0, [r0, #-47]	; 0x2f

000005d6 <Code_97>:
     5d6:	b500      	push	{lr}
     5d8:	f7ff ffc2 	bl	560 <Code_96>
     5dc:	f7ff fdb0 	bl	140 <Code_23>
     5e0:	bd00      	pop	{pc}
     5e2:	46c0      	nop			; (mov r8, r8)

000005e4 <Dictionary_98>:
     5e4:	0000062c 	andeq	r0, r0, ip, lsr #12
     5e8:	66020044 	strvs	r0, [r2], -r4, asr #32
     5ec:	b500002a 	strlt	r0, [r0, #-42]	; 0x2a

000005ee <Code_98>:
     5ee:	b500      	push	{lr}
     5f0:	17f0      	asrs	r0, r6, #31
     5f2:	d00d      	beq.n	610 <Code_98+0x22>
     5f4:	f7ff fe59 	bl	2aa <Code_42>
     5f8:	f7ff fd92 	bl	120 <Code_21>
     5fc:	17f0      	asrs	r0, r6, #31
     5fe:	d00d      	beq.n	61c <Code_98+0x2e>
     600:	f7ff fe53 	bl	2aa <Code_42>
     604:	f7ff fed0 	bl	3a8 <Code_50>
     608:	cf40      	ldmia	r7!, {r6}
     60a:	cf01      	ldmia	r7!, {r0}
     60c:	6038      	str	r0, [r7, #0]
     60e:	bd00      	pop	{pc}
     610:	f7ff fd86 	bl	120 <Code_21>
     614:	17f0      	asrs	r0, r6, #31
     616:	d0f5      	beq.n	604 <Code_98+0x16>
     618:	f7ff fe47 	bl	2aa <Code_42>
     61c:	f7ff fec4 	bl	3a8 <Code_50>
     620:	cf40      	ldmia	r7!, {r6}
     622:	cf01      	ldmia	r7!, {r0}
     624:	6038      	str	r0, [r7, #0]
     626:	f7ff fe40 	bl	2aa <Code_42>
     62a:	bd00      	pop	{pc}

0000062c <Dictionary_101>:
     62c:	00000678 	andeq	r0, r0, r8, ror r6
     630:	66020044 	strvs	r0, [r2], -r4, asr #32
     634:	b500002f 	strlt	r0, [r0, #-47]	; 0x2f

00000636 <Code_101>:
     636:	b500      	push	{lr}
     638:	17f0      	asrs	r0, r6, #31
     63a:	d00e      	beq.n	65a <Code_101+0x24>
     63c:	f7ff fe35 	bl	2aa <Code_42>
     640:	f7ff fd6e 	bl	120 <Code_21>
     644:	17f0      	asrs	r0, r6, #31
     646:	d00e      	beq.n	666 <Code_101+0x30>
     648:	f7ff fe2f 	bl	2aa <Code_42>
     64c:	f7ff fd68 	bl	120 <Code_21>
     650:	f7ff ff79 	bl	546 <uf_slash_mod>
     654:	f7ff fd74 	bl	140 <Code_23>
     658:	bd00      	pop	{pc}
     65a:	f7ff fd61 	bl	120 <Code_21>
     65e:	17f0      	asrs	r0, r6, #31
     660:	d0f4      	beq.n	64c <Code_101+0x16>
     662:	f7ff fe22 	bl	2aa <Code_42>
     666:	f7ff fd5b 	bl	120 <Code_21>
     66a:	f7ff ff6c 	bl	546 <uf_slash_mod>
     66e:	f7ff fe1c 	bl	2aa <Code_42>
     672:	f7ff fd65 	bl	140 <Code_23>
     676:	bd00      	pop	{pc}

00000678 <Dictionary_102>:
     678:	0000068c 	andeq	r0, r0, ip, lsl #13
     67c:	32020020 	andcc	r0, r2, #32
     680:	cf060021 	svcgt	0x00060021

00000682 <Code_102>:
     682:	cf06      	ldmia	r7!, {r1, r2}
     684:	6031      	str	r1, [r6, #0]
     686:	6072      	str	r2, [r6, #4]
     688:	cf40      	ldmia	r7!, {r6}
     68a:	4770      	bx	lr

0000068c <Dictionary_104>:
     68c:	000006a0 	andeq	r0, r0, r0, lsr #13
     690:	32020020 	andcc	r0, r2, #32
     694:	3f040040 	svccc	0x00040040

00000696 <Code_104>:
     696:	3f04      	subs	r7, #4
     698:	6870      	ldr	r0, [r6, #4]
     69a:	6038      	str	r0, [r7, #0]
     69c:	6836      	ldr	r6, [r6, #0]
     69e:	4770      	bx	lr

000006a0 <Dictionary_105>:
     6a0:	000006c0 	andeq	r0, r0, r0, asr #13
     6a4:	64030044 	strvs	r0, [r3], #-68	; 0x44
     6a8:	cf073c75 	svcgt	0x00073c75

000006aa <Code_105>:
     6aa:	cf07      	ldmia	r7!, {r0, r1, r2}
     6ac:	428e      	cmp	r6, r1
     6ae:	d804      	bhi.n	6ba <Code_105+0x10>
     6b0:	d101      	bne.n	6b6 <Code_105+0xc>
     6b2:	4290      	cmp	r0, r2
     6b4:	d801      	bhi.n	6ba <Code_105+0x10>
     6b6:	2600      	movs	r6, #0
     6b8:	4770      	bx	lr
     6ba:	2600      	movs	r6, #0
     6bc:	43f6      	mvns	r6, r6
     6be:	4770      	bx	lr

000006c0 <Dictionary_106>:
     6c0:	000006e0 	andeq	r0, r0, r0, ror #13
     6c4:	64030044 	strvs	r0, [r3], #-68	; 0x44
     6c8:	cf073e75 	svcgt	0x00073e75

000006ca <Code_106>:
     6ca:	cf07      	ldmia	r7!, {r0, r1, r2}
     6cc:	42b1      	cmp	r1, r6
     6ce:	d804      	bhi.n	6da <Code_106+0x10>
     6d0:	d101      	bne.n	6d6 <Code_106+0xc>
     6d2:	4282      	cmp	r2, r0
     6d4:	d801      	bhi.n	6da <Code_106+0x10>
     6d6:	2600      	movs	r6, #0
     6d8:	4770      	bx	lr
     6da:	2600      	movs	r6, #0
     6dc:	43f6      	mvns	r6, r6
     6de:	4770      	bx	lr

000006e0 <Dictionary_107>:
     6e0:	00000700 	andeq	r0, r0, r0, lsl #14
     6e4:	64020044 	strvs	r0, [r2], #-68	; 0x44
     6e8:	cf07003c 	svcgt	0x0007003c

000006ea <Code_107>:
     6ea:	cf07      	ldmia	r7!, {r0, r1, r2}
     6ec:	428e      	cmp	r6, r1
     6ee:	dc04      	bgt.n	6fa <Code_107+0x10>
     6f0:	d101      	bne.n	6f6 <Code_107+0xc>
     6f2:	4290      	cmp	r0, r2
     6f4:	dc01      	bgt.n	6fa <Code_107+0x10>
     6f6:	2600      	movs	r6, #0
     6f8:	4770      	bx	lr
     6fa:	2600      	movs	r6, #0
     6fc:	43f6      	mvns	r6, r6
     6fe:	4770      	bx	lr

00000700 <Dictionary_108>:
     700:	00000720 	andeq	r0, r0, r0, lsr #14
     704:	64020044 	strvs	r0, [r2], #-68	; 0x44
     708:	cf07003e 	svcgt	0x0007003e

0000070a <Code_108>:
     70a:	cf07      	ldmia	r7!, {r0, r1, r2}
     70c:	42b1      	cmp	r1, r6
     70e:	dc04      	bgt.n	71a <Code_108+0x10>
     710:	d101      	bne.n	716 <Code_108+0xc>
     712:	4282      	cmp	r2, r0
     714:	dc01      	bgt.n	71a <Code_108+0x10>
     716:	2600      	movs	r6, #0
     718:	4770      	bx	lr
     71a:	2600      	movs	r6, #0
     71c:	43f6      	mvns	r6, r6
     71e:	4770      	bx	lr

00000720 <Dictionary_109>:
     720:	00000730 	andeq	r0, r0, r0, lsr r7
     724:	64030062 	strvs	r0, [r3], #-98	; 0x62
     728:	37043c30 	smladxcc	r4, r0, ip, r3

0000072a <Code_109>:
     72a:	3704      	adds	r7, #4
     72c:	17f6      	asrs	r6, r6, #31
     72e:	4770      	bx	lr

00000730 <Dictionary_110>:
     730:	00000744 	andeq	r0, r0, r4, asr #14
     734:	64030062 	strvs	r0, [r3], #-98	; 0x62
     738:	cf013d30 	svcgt	0x00013d30

0000073a <Code_110>:
     73a:	cf01      	ldmia	r7!, {r0}
     73c:	4306      	orrs	r6, r0
     73e:	3e01      	subs	r6, #1
     740:	41b6      	sbcs	r6, r6
     742:	4770      	bx	lr

00000744 <Dictionary_111>:
     744:	00000760 	andeq	r0, r0, r0, ror #14
     748:	64030044 	strvs	r0, [r3], #-68	; 0x44
     74c:	cf073e3c 	svcgt	0x00073e3c

0000074e <Code_111>:
     74e:	cf07      	ldmia	r7!, {r0, r1, r2}
     750:	4050      	eors	r0, r2
     752:	404e      	eors	r6, r1
     754:	4306      	orrs	r6, r0
     756:	3e01      	subs	r6, #1
     758:	41b6      	sbcs	r6, r6
     75a:	43f6      	mvns	r6, r6
     75c:	4770      	bx	lr
     75e:	46c0      	nop			; (mov r8, r8)

00000760 <Dictionary_112>:
     760:	00000778 	andeq	r0, r0, r8, ror r7
     764:	64020044 	strvs	r0, [r2], #-68	; 0x44
     768:	cf07003d 	svcgt	0x0007003d

0000076a <Code_112>:
     76a:	cf07      	ldmia	r7!, {r0, r1, r2}
     76c:	4050      	eors	r0, r2
     76e:	404e      	eors	r6, r1
     770:	4306      	orrs	r6, r0
     772:	3e01      	subs	r6, #1
     774:	41b6      	sbcs	r6, r6
     776:	4770      	bx	lr

00000778 <Dictionary_113>:
     778:	0000078c 	andeq	r0, r0, ip, lsl #15
     77c:	73030020 	movwvc	r0, #12320	; 0x3020
     780:	3f044070 	svccc	0x00044070

00000782 <Code_113>:
     782:	3f04      	subs	r7, #4
     784:	603e      	str	r6, [r7, #0]
     786:	003e      	movs	r6, r7
     788:	4770      	bx	lr
     78a:	46c0      	nop			; (mov r8, r8)

0000078c <Dictionary_115>:
     78c:	0000079c 	muleq	r0, ip, r7
     790:	73030020 	movwvc	r0, #12320	; 0x3020
     794:	00372170 	eorseq	r2, r7, r0, ror r1

00000796 <Code_115>:
     796:	0037      	movs	r7, r6
     798:	cf40      	ldmia	r7!, {r6}
     79a:	4770      	bx	lr

0000079c <Dictionary_116>:
     79c:	000007b0 			; <UNDEFINED> instruction: 0x000007b0
     7a0:	72030020 	andvc	r0, r3, #32
     7a4:	3f044070 	svccc	0x00044070

000007a6 <Code_116>:
     7a6:	3f04      	subs	r7, #4
     7a8:	603e      	str	r6, [r7, #0]
     7aa:	466e      	mov	r6, sp
     7ac:	4770      	bx	lr
     7ae:	46c0      	nop			; (mov r8, r8)

000007b0 <Dictionary_118>:
     7b0:	000007c0 	andeq	r0, r0, r0, asr #15
     7b4:	72030020 	andvc	r0, r3, #32
     7b8:	46b52170 			; <UNDEFINED> instruction: 0x46b52170

000007ba <Code_118>:
     7ba:	46b5      	mov	sp, r6
     7bc:	cf40      	ldmia	r7!, {r6}
     7be:	4770      	bx	lr

000007c0 <Dictionary_119>:
     7c0:	000007d0 	ldrdeq	r0, [r0], -r0	; <UNPREDICTABLE>
     7c4:	64030061 	strvs	r0, [r3], #-97	; 0x61
     7c8:	3f047075 	svccc	0x00047075

000007ca <Code_119>:
     7ca:	3f04      	subs	r7, #4
     7cc:	603e      	str	r6, [r7, #0]
     7ce:	4770      	bx	lr

000007d0 <Dictionary_122>:
     7d0:	000007e0 	andeq	r0, r0, r0, ror #15
     7d4:	64040061 	strvs	r0, [r4], #-97	; 0x61
     7d8:	00706f72 	rsbseq	r6, r0, r2, ror pc

000007dc <Code_122>:
     7dc:	cf40      	ldmia	r7!, {r6}
     7de:	4770      	bx	lr

000007e0 <Dictionary_124>:
     7e0:	000007f8 	strdeq	r0, [r0], -r8
     7e4:	3f040061 	svccc	0x00040061
     7e8:	00707564 	rsbseq	r7, r0, r4, ror #10

000007ec <Code_124>:
     7ec:	2e00      	cmp	r6, #0
     7ee:	d001      	beq.n	7f4 <Code_124+0x8>
     7f0:	3f04      	subs	r7, #4
     7f2:	603e      	str	r6, [r7, #0]
     7f4:	4770      	bx	lr
     7f6:	46c0      	nop			; (mov r8, r8)

000007f8 <Dictionary_126>:
     7f8:	0000080c 	andeq	r0, r0, ip, lsl #16
     7fc:	73040062 	movwvc	r0, #16482	; 0x4062
     800:	00706177 	rsbseq	r6, r0, r7, ror r1

00000804 <Code_126>:
     804:	6839      	ldr	r1, [r7, #0]
     806:	603e      	str	r6, [r7, #0]
     808:	000e      	movs	r6, r1
     80a:	4770      	bx	lr

0000080c <Dictionary_127>:
     80c:	0000081c 	andeq	r0, r0, ip, lsl r8
     810:	6e030062 	cdpvs	0, 0, cr0, cr3, cr2, {3}
     814:	37047069 	strcc	r7, [r4, -r9, rrx]

00000816 <Code_127>:
     816:	3704      	adds	r7, #4
     818:	4770      	bx	lr
     81a:	46c0      	nop			; (mov r8, r8)

0000081c <Dictionary_129>:
     81c:	00000830 	andeq	r0, r0, r0, lsr r8
     820:	6f040062 	svcvs	0x00040062
     824:	00726576 	rsbseq	r6, r2, r6, ror r5

00000828 <Code_129>:
     828:	3f04      	subs	r7, #4
     82a:	603e      	str	r6, [r7, #0]
     82c:	687e      	ldr	r6, [r7, #4]
     82e:	4770      	bx	lr

00000830 <Dictionary_131>:
     830:	00000848 	andeq	r0, r0, r8, asr #16
     834:	74040062 	strvc	r0, [r4], #-98	; 0x62
     838:	006b6375 	rsbeq	r6, fp, r5, ror r3

0000083c <Code_131>:
     83c:	cf01      	ldmia	r7!, {r0}
     83e:	3f08      	subs	r7, #8
     840:	607e      	str	r6, [r7, #4]
     842:	6038      	str	r0, [r7, #0]
     844:	4770      	bx	lr
     846:	46c0      	nop			; (mov r8, r8)

00000848 <Dictionary_132>:
     848:	00000860 	andeq	r0, r0, r0, ror #16
     84c:	72030063 	andvc	r0, r3, #99	; 0x63
     850:	cf03746f 	svcgt	0x0003746f

00000852 <Code_132>:
     852:	cf03      	ldmia	r7!, {r0, r1}
     854:	3f08      	subs	r7, #8
     856:	6078      	str	r0, [r7, #4]
     858:	603e      	str	r6, [r7, #0]
     85a:	000e      	movs	r6, r1
     85c:	4770      	bx	lr
     85e:	46c0      	nop			; (mov r8, r8)

00000860 <Dictionary_133>:
     860:	00000878 	andeq	r0, r0, r8, ror r8
     864:	2d040063 	stccs	0, cr0, [r4, #-396]	; 0xfffffe74
     868:	00746f72 	rsbseq	r6, r4, r2, ror pc

0000086c <Code_133>:
     86c:	cf03      	ldmia	r7!, {r0, r1}
     86e:	3f08      	subs	r7, #8
     870:	607e      	str	r6, [r7, #4]
     872:	6039      	str	r1, [r7, #0]
     874:	0006      	movs	r6, r0
     876:	4770      	bx	lr

00000878 <Dictionary_134>:
     878:	0000088c 	andeq	r0, r0, ip, lsl #17
     87c:	70040020 	andvc	r0, r4, r0, lsr #32
     880:	006b6369 	rsbeq	r6, fp, r9, ror #6

00000884 <Code_134>:
     884:	00b0      	lsls	r0, r6, #2
     886:	583e      	ldr	r6, [r7, r0]
     888:	4770      	bx	lr
     88a:	46c0      	nop			; (mov r8, r8)

0000088c <Dictionary_135>:
     88c:	000008a4 	andeq	r0, r0, r4, lsr #17
     890:	64050000 	strvs	r0, [r5]
     894:	68747065 	ldmdavs	r4!, {r0, r2, r5, r6, ip, sp, lr}^

00000898 <Code_135>:
     898:	49c7      	ldr	r1, [pc, #796]	; (bb8 <Code_179+0xc>)
     89a:	1bc9      	subs	r1, r1, r7
     89c:	3f04      	subs	r7, #4
     89e:	603e      	str	r6, [r7, #0]
     8a0:	088e      	lsrs	r6, r1, #2
     8a2:	4770      	bx	lr

000008a4 <Dictionary_137>:
     8a4:	000008c0 	andeq	r0, r0, r0, asr #17
     8a8:	72060000 	andvc	r0, r6, #0
     8ac:	74706564 	ldrbtvc	r6, [r0], #-1380	; 0x564
     8b0:	3f040068 	svccc	0x00040068

000008b2 <Code_137>:
     8b2:	3f04      	subs	r7, #4
     8b4:	603e      	str	r6, [r7, #0]
     8b6:	466e      	mov	r6, sp
     8b8:	49c0      	ldr	r1, [pc, #768]	; (bbc <Code_179+0x10>)
     8ba:	1b89      	subs	r1, r1, r6
     8bc:	088e      	lsrs	r6, r1, #2
     8be:	4770      	bx	lr

000008c0 <Dictionary_139>:
     8c0:	000008d0 	ldrdeq	r0, [r0], -r0	; <UNPREDICTABLE>
     8c4:	3e020020 	cdpcc	0, 0, cr0, cr2, cr0, {1}
     8c8:	b4400072 	strblt	r0, [r0], #-114	; 0x72

000008ca <Code_139>:
     8ca:	b440      	push	{r6}
     8cc:	cf40      	ldmia	r7!, {r6}
     8ce:	4770      	bx	lr

000008d0 <Dictionary_140>:
     8d0:	000008e4 	andeq	r0, r0, r4, ror #17
     8d4:	72020020 	andvc	r0, r2, #32
     8d8:	3f04003e 	svccc	0x0004003e

000008da <Code_140>:
     8da:	3f04      	subs	r7, #4
     8dc:	603e      	str	r6, [r7, #0]
     8de:	bc40      	pop	{r6}
     8e0:	4770      	bx	lr
     8e2:	46c0      	nop			; (mov r8, r8)

000008e4 <Dictionary_142>:
     8e4:	000008f8 	strdeq	r0, [r0], -r8
     8e8:	72020020 	andvc	r0, r2, #32
     8ec:	3f040040 	svccc	0x00040040

000008ee <Code_142>:
     8ee:	3f04      	subs	r7, #4
     8f0:	603e      	str	r6, [r7, #0]
     8f2:	9e00      	ldr	r6, [sp, #0]
     8f4:	4770      	bx	lr
     8f6:	46c0      	nop			; (mov r8, r8)

000008f8 <Dictionary_144>:
     8f8:	00000908 	andeq	r0, r0, r8, lsl #18
     8fc:	72050020 	andvc	r0, r5, #32
     900:	706f7264 	rsbvc	r7, pc, r4, ror #4

00000904 <Code_144>:
     904:	b001      	add	sp, #4
     906:	4770      	bx	lr

00000908 <Dictionary_145>:
     908:	0000091c 	andeq	r0, r0, ip, lsl r9
     90c:	72050020 	andvc	r0, r5, #32
     910:	6b636970 	blvs	18daed8 <BIT24+0x8daed8>

00000914 <Code_145>:
     914:	00b6      	lsls	r6, r6, #2
     916:	446e      	add	r6, sp
     918:	6836      	ldr	r6, [r6, #0]
     91a:	4770      	bx	lr

0000091c <Dictionary_146>:
     91c:	00000930 	andeq	r0, r0, r0, lsr r9
     920:	6103006a 	tstvs	r3, sl, rrx
     924:	cf01646e 	svcgt	0x0001646e

00000926 <Code_146>:
     926:	cf01      	ldmia	r7!, {r0}
     928:	4006      	ands	r6, r0
     92a:	4770      	bx	lr
     92c:	4006      	ands	r6, r0
     92e:	46c0      	nop			; (mov r8, r8)

00000930 <Dictionary_147>:
     930:	00000944 	andeq	r0, r0, r4, asr #18
     934:	6203006a 	andvs	r0, r3, #106	; 0x6a
     938:	cf016369 	svcgt	0x00016369

0000093a <Code_147>:
     93a:	cf01      	ldmia	r7!, {r0}
     93c:	43b0      	bics	r0, r6
     93e:	0006      	movs	r6, r0
     940:	4770      	bx	lr
     942:	4386      	bics	r6, r0

00000944 <Dictionary_148>:
     944:	00000958 	andeq	r0, r0, r8, asr r9
     948:	6f02006a 	svcvs	0x0002006a
     94c:	cf010072 	svcgt	0x00010072

0000094e <Code_148>:
     94e:	cf01      	ldmia	r7!, {r0}
     950:	4306      	orrs	r6, r0
     952:	4770      	bx	lr
     954:	4306      	orrs	r6, r0
     956:	46c0      	nop			; (mov r8, r8)

00000958 <Dictionary_149>:
     958:	0000096c 	andeq	r0, r0, ip, ror #18
     95c:	7803006a 	stmdavc	r3, {r1, r3, r5, r6}
     960:	cf01726f 	svcgt	0x0001726f

00000962 <Code_149>:
     962:	cf01      	ldmia	r7!, {r0}
     964:	4046      	eors	r6, r0
     966:	4770      	bx	lr
     968:	4046      	eors	r6, r0
     96a:	46c0      	nop			; (mov r8, r8)

0000096c <Dictionary_150>:
     96c:	0000097c 	andeq	r0, r0, ip, ror r9
     970:	6e030061 	cdpvs	0, 0, cr0, cr3, cr1, {3}
     974:	43f6746f 	mvnsmi	r7, #1862270976	; 0x6f000000

00000976 <Code_150>:
     976:	43f6      	mvns	r6, r6
     978:	4770      	bx	lr
     97a:	46c0      	nop			; (mov r8, r8)

0000097c <Dictionary_151>:
     97c:	0000099c 	muleq	r0, ip, r9
     980:	63030041 	movwvs	r0, #12353	; 0x3041
     984:	00307a6c 	eorseq	r7, r0, ip, ror #20

00000986 <Code_151>:
     986:	0030      	movs	r0, r6
     988:	d006      	beq.n	998 <Code_151+0x12>
     98a:	2600      	movs	r6, #0
     98c:	0040      	lsls	r0, r0, #1
     98e:	d002      	beq.n	996 <Code_151+0x10>
     990:	d201      	bcs.n	996 <Code_151+0x10>
     992:	3601      	adds	r6, #1
     994:	e7fa      	b.n	98c <Code_151+0x6>
     996:	4770      	bx	lr
     998:	2620      	movs	r6, #32
     99a:	4770      	bx	lr

0000099c <Dictionary_152>:
     99c:	000009ac 	andeq	r0, r0, ip, lsr #19
     9a0:	73030061 	movwvc	r0, #12385	; 0x3061
     9a4:	08767268 	ldmdaeq	r6!, {r3, r5, r6, r9, ip, sp, lr}^

000009a6 <Code_152>:
     9a6:	0876      	lsrs	r6, r6, #1
     9a8:	4770      	bx	lr
     9aa:	46c0      	nop			; (mov r8, r8)

000009ac <Dictionary_153>:
     9ac:	000009bc 			; <UNDEFINED> instruction: 0x000009bc
     9b0:	73030061 	movwvc	r0, #12385	; 0x3061
     9b4:	00766c68 	rsbseq	r6, r6, r8, ror #24

000009b6 <Code_153>:
     9b6:	0076      	lsls	r6, r6, #1
     9b8:	4770      	bx	lr
     9ba:	46c0      	nop			; (mov r8, r8)

000009bc <Dictionary_154>:
     9bc:	000009cc 	andeq	r0, r0, ip, asr #19
     9c0:	72030061 	andvc	r0, r3, #97	; 0x61
     9c4:	2001726f 	andcs	r7, r1, pc, ror #4

000009c6 <Code_154>:
     9c6:	2001      	movs	r0, #1
     9c8:	41c6      	rors	r6, r0
     9ca:	4770      	bx	lr

000009cc <Dictionary_155>:
     9cc:	000009e0 	andeq	r0, r0, r0, ror #19
     9d0:	72030061 	andvc	r0, r3, #97	; 0x61
     9d4:	20006c6f 	andcs	r6, r0, pc, ror #24

000009d6 <Code_155>:
     9d6:	2000      	movs	r0, #0
     9d8:	19b6      	adds	r6, r6, r6
     9da:	4146      	adcs	r6, r0
     9dc:	4770      	bx	lr
     9de:	46c0      	nop			; (mov r8, r8)

000009e0 <Dictionary_156>:
     9e0:	000009fc 	strdeq	r0, [r0], -ip
     9e4:	7206006c 	andvc	r0, r6, #108	; 0x6c
     9e8:	66696873 			; <UNDEFINED> instruction: 0x66696873
     9ec:	cf010074 	svcgt	0x00010074

000009ee <Code_156>:
     9ee:	cf01      	ldmia	r7!, {r0}
     9f0:	40f0      	lsrs	r0, r6
     9f2:	0006      	movs	r6, r0
     9f4:	4770      	bx	lr
     9f6:	26000836 			; <UNDEFINED> instruction: 0x26000836
     9fa:	46c0      	nop			; (mov r8, r8)

000009fc <Dictionary_157>:
     9fc:	00000a18 	andeq	r0, r0, r8, lsl sl
     a00:	6107006c 	tstvs	r7, ip, rrx
     a04:	69687372 	stmdbvs	r8!, {r1, r4, r5, r6, r8, r9, ip, sp, lr}^
     a08:	cf017466 	svcgt	0x00017466

00000a0a <Code_157>:
     a0a:	cf01      	ldmia	r7!, {r0}
     a0c:	4130      	asrs	r0, r6
     a0e:	0006      	movs	r6, r0
     a10:	4770      	bx	lr
     a12:	17f61036 			; <UNDEFINED> instruction: 0x17f61036
     a16:	46c0      	nop			; (mov r8, r8)

00000a18 <Dictionary_158>:
     a18:	00000a34 	andeq	r0, r0, r4, lsr sl
     a1c:	6c06006c 	stcvs	0, cr0, [r6], {108}	; 0x6c
     a20:	66696873 			; <UNDEFINED> instruction: 0x66696873
     a24:	cf010074 	svcgt	0x00010074

00000a26 <Code_158>:
     a26:	cf01      	ldmia	r7!, {r0}
     a28:	40b0      	lsls	r0, r6
     a2a:	0006      	movs	r6, r0
     a2c:	4770      	bx	lr
     a2e:	26000036 			; <UNDEFINED> instruction: 0x26000036
     a32:	46c0      	nop			; (mov r8, r8)

00000a34 <Dictionary_159>:
     a34:	00000a44 	andeq	r0, r0, r4, asr #20
     a38:	30020061 	andcc	r0, r2, r1, rrx
     a3c:	3e01003d 	mcrcc	0, 0, r0, cr1, cr13, {1}

00000a3e <Code_159>:
     a3e:	3e01      	subs	r6, #1
     a40:	41b6      	sbcs	r6, r6
     a42:	4770      	bx	lr

00000a44 <Dictionary_160>:
     a44:	00000a58 	andeq	r0, r0, r8, asr sl
     a48:	30030061 	andcc	r0, r3, r1, rrx
     a4c:	3e013e3c 	mcrcc	14, 0, r3, cr1, cr12, {1}

00000a4e <Code_160>:
     a4e:	3e01      	subs	r6, #1
     a50:	41b6      	sbcs	r6, r6
     a52:	43f6      	mvns	r6, r6
     a54:	4770      	bx	lr
     a56:	46c0      	nop			; (mov r8, r8)

00000a58 <Dictionary_161>:
     a58:	00000a68 	andeq	r0, r0, r8, ror #20
     a5c:	30020061 	andcc	r0, r2, r1, rrx
     a60:	17f6003c 			; <UNDEFINED> instruction: 0x17f6003c

00000a62 <Code_161>:
     a62:	17f6      	asrs	r6, r6, #31
     a64:	4770      	bx	lr
     a66:	46c0      	nop			; (mov r8, r8)

00000a68 <Dictionary_162>:
     a68:	00000a80 	andeq	r0, r0, r0, lsl #21
     a6c:	74040060 	strvc	r0, [r4], #-96	; 0x60
     a70:	00657572 	rsbeq	r7, r5, r2, ror r5

00000a74 <Code_162>:
     a74:	3f04      	subs	r7, #4
     a76:	603e      	str	r6, [r7, #0]

00000a78 <generate_true>:
     a78:	2600      	movs	r6, #0
     a7a:	43f6      	mvns	r6, r6
     a7c:	4770      	bx	lr
     a7e:	46c0      	nop			; (mov r8, r8)

00000a80 <Dictionary_164>:
     a80:	00000a94 	muleq	r0, r4, sl
     a84:	66050060 	strvs	r0, [r5], -r0, rrx
     a88:	65736c61 	ldrbvs	r6, [r3, #-3169]!	; 0xc61

00000a8c <Code_164>:
     a8c:	3f04      	subs	r7, #4
     a8e:	603e      	str	r6, [r7, #0]
     a90:	2600      	movs	r6, #0
     a92:	4770      	bx	lr

00000a94 <Dictionary_166>:
     a94:	00000aa8 	andeq	r0, r0, r8, lsr #21
     a98:	3e020042 	cdpcc	0, 0, cr0, cr2, cr2, {2}
     a9c:	cf01003d 	svcgt	0x0001003d

00000a9e <Code_166>:
     a9e:	cf01      	ldmia	r7!, {r0}
     aa0:	42b0      	cmp	r0, r6
     aa2:	dae9      	bge.n	a78 <generate_true>
     aa4:	2600      	movs	r6, #0
     aa6:	4770      	bx	lr

00000aa8 <Dictionary_167>:
     aa8:	00000abc 			; <UNDEFINED> instruction: 0x00000abc
     aac:	3c020042 	stccc	0, cr0, [r2], {66}	; 0x42
     ab0:	cf01003d 	svcgt	0x0001003d

00000ab2 <Code_167>:
     ab2:	cf01      	ldmia	r7!, {r0}
     ab4:	42b0      	cmp	r0, r6
     ab6:	dddf      	ble.n	a78 <generate_true>
     ab8:	2600      	movs	r6, #0
     aba:	4770      	bx	lr

00000abc <Dictionary_168>:
     abc:	00000ad0 	ldrdeq	r0, [r0], -r0	; <UNPREDICTABLE>
     ac0:	3c010042 	stccc	0, cr0, [r1], {66}	; 0x42

00000ac4 <Code_168>:
     ac4:	cf01      	ldmia	r7!, {r0}
     ac6:	42b0      	cmp	r0, r6
     ac8:	dbd6      	blt.n	a78 <generate_true>
     aca:	2600      	movs	r6, #0
     acc:	4770      	bx	lr
     ace:	46c0      	nop			; (mov r8, r8)

00000ad0 <Dictionary_169>:
     ad0:	00000ae4 	andeq	r0, r0, r4, ror #21
     ad4:	3e010042 	cdpcc	0, 0, cr0, cr1, cr2, {2}

00000ad8 <Code_169>:
     ad8:	cf01      	ldmia	r7!, {r0}
     ada:	42b0      	cmp	r0, r6
     adc:	dccc      	bgt.n	a78 <generate_true>
     ade:	2600      	movs	r6, #0
     ae0:	4770      	bx	lr
     ae2:	46c0      	nop			; (mov r8, r8)

00000ae4 <Dictionary_170>:
     ae4:	00000af8 	strdeq	r0, [r0], -r8
     ae8:	75030062 	strvc	r0, [r3, #-98]	; 0x62
     aec:	cf013d3e 	svcgt	0x00013d3e

00000aee <Code_170>:
     aee:	cf01      	ldmia	r7!, {r0}
     af0:	1b86      	subs	r6, r0, r6
     af2:	41b6      	sbcs	r6, r6
     af4:	43f6      	mvns	r6, r6
     af6:	4770      	bx	lr

00000af8 <Dictionary_171>:
     af8:	00000b0c 	andeq	r0, r0, ip, lsl #22
     afc:	75030062 	strvc	r0, [r3, #-98]	; 0x62
     b00:	cf013d3c 	svcgt	0x00013d3c

00000b02 <Code_171>:
     b02:	cf01      	ldmia	r7!, {r0}
     b04:	1a36      	subs	r6, r6, r0
     b06:	41b6      	sbcs	r6, r6
     b08:	43f6      	mvns	r6, r6
     b0a:	4770      	bx	lr

00000b0c <Dictionary_172>:
     b0c:	00000b20 	andeq	r0, r0, r0, lsr #22
     b10:	75020062 	strvc	r0, [r2, #-98]	; 0x62
     b14:	cf01003c 	svcgt	0x0001003c

00000b16 <Code_172>:
     b16:	cf01      	ldmia	r7!, {r0}
     b18:	1b86      	subs	r6, r0, r6
     b1a:	41b6      	sbcs	r6, r6
     b1c:	4770      	bx	lr
     b1e:	46c0      	nop			; (mov r8, r8)

00000b20 <Dictionary_173>:
     b20:	00000b34 	andeq	r0, r0, r4, lsr fp
     b24:	75020062 	strvc	r0, [r2, #-98]	; 0x62
     b28:	cf01003e 	svcgt	0x0001003e

00000b2a <Code_173>:
     b2a:	cf01      	ldmia	r7!, {r0}
     b2c:	1a36      	subs	r6, r6, r0
     b2e:	41b6      	sbcs	r6, r6
     b30:	4770      	bx	lr
     b32:	46c0      	nop			; (mov r8, r8)

00000b34 <Dictionary_174>:
     b34:	00000b4c 	andeq	r0, r0, ip, asr #22
     b38:	3c02006b 	stccc	0, cr0, [r2], {107}	; 0x6b
     b3c:	cf01003e 	svcgt	0x0001003e

00000b3e <Code_174>:
     b3e:	cf01      	ldmia	r7!, {r0}
     b40:	1a36      	subs	r6, r6, r0
     b42:	3e01      	subs	r6, #1
     b44:	41b6      	sbcs	r6, r6
     b46:	43f6      	mvns	r6, r6
     b48:	4770      	bx	lr
     b4a:	46c0      	nop			; (mov r8, r8)

00000b4c <Dictionary_175>:
     b4c:	00000b60 	andeq	r0, r0, r0, ror #22
     b50:	3d01006b 	stccc	0, cr0, [r1, #-428]	; 0xfffffe54

00000b54 <Code_175>:
     b54:	cf01      	ldmia	r7!, {r0}
     b56:	1a36      	subs	r6, r6, r0
     b58:	3e01      	subs	r6, #1
     b5a:	41b6      	sbcs	r6, r6
     b5c:	4770      	bx	lr
     b5e:	46c0      	nop			; (mov r8, r8)

00000b60 <Dictionary_176>:
     b60:	00000b74 	andeq	r0, r0, r4, ror fp
     b64:	6d030062 	stcvs	0, cr0, [r3, #-392]	; 0xfffffe78
     b68:	cf016e69 	svcgt	0x00016e69

00000b6a <Code_176>:
     b6a:	cf01      	ldmia	r7!, {r0}
     b6c:	42b0      	cmp	r0, r6
     b6e:	dc00      	bgt.n	b72 <Code_176+0x8>
     b70:	0006      	movs	r6, r0
     b72:	4770      	bx	lr

00000b74 <Dictionary_177>:
     b74:	00000b88 	andeq	r0, r0, r8, lsl #23
     b78:	6d030062 	stcvs	0, cr0, [r3, #-392]	; 0xfffffe78
     b7c:	cf017861 	svcgt	0x00017861

00000b7e <Code_177>:
     b7e:	cf01      	ldmia	r7!, {r0}
     b80:	42b0      	cmp	r0, r6
     b82:	db00      	blt.n	b86 <Code_177+0x8>
     b84:	0006      	movs	r6, r0
     b86:	4770      	bx	lr

00000b88 <Dictionary_178>:
     b88:	00000ba0 	andeq	r0, r0, r0, lsr #23
     b8c:	75040062 	strvc	r0, [r4, #-98]	; 0x62
     b90:	0078616d 	rsbseq	r6, r8, sp, ror #2

00000b94 <Code_178>:
     b94:	cf01      	ldmia	r7!, {r0}
     b96:	42b0      	cmp	r0, r6
     b98:	d300      	bcc.n	b9c <Code_178+0x8>
     b9a:	0006      	movs	r6, r0
     b9c:	4770      	bx	lr
     b9e:	46c0      	nop			; (mov r8, r8)

00000ba0 <Dictionary_179>:
     ba0:	00000bc0 	andeq	r0, r0, r0, asr #23
     ba4:	75040062 	strvc	r0, [r4, #-98]	; 0x62
     ba8:	006e696d 	rsbeq	r6, lr, sp, ror #18

00000bac <Code_179>:
     bac:	cf01      	ldmia	r7!, {r0}
     bae:	42b0      	cmp	r0, r6
     bb0:	d800      	bhi.n	bb4 <Code_179+0x8>
     bb2:	0006      	movs	r6, r0
     bb4:	4770      	bx	lr
     bb6:	02300000 	eorseq	r0, r0, #0
     bba:	03302000 	teqeq	r0, #0
     bbe:	0c002000 	stceq	0, cr2, [r0], {0}

00000bc0 <Dictionary_180>:
     bc0:	00000c00 	andeq	r0, r0, r0, lsl #24
     bc4:	6d040000 	stcvs	0, cr0, [r4]
     bc8:	0065766f 	rsbeq	r7, r5, pc, ror #12

00000bcc <Code_180>:
     bcc:	b507      	push	{r0, r1, r2, lr}
     bce:	0031      	movs	r1, r6
     bd0:	cf40      	ldmia	r7!, {r6}
     bd2:	0032      	movs	r2, r6
     bd4:	cf40      	ldmia	r7!, {r6}
     bd6:	2900      	cmp	r1, #0
     bd8:	d00f      	beq.n	bfa <Code_180+0x2e>
     bda:	42b2      	cmp	r2, r6
     bdc:	d00d      	beq.n	bfa <Code_180+0x2e>
     bde:	d306      	bcc.n	bee <Code_180+0x22>
     be0:	3e01      	subs	r6, #1
     be2:	3a01      	subs	r2, #1
     be4:	5c70      	ldrb	r0, [r6, r1]
     be6:	5450      	strb	r0, [r2, r1]
     be8:	3901      	subs	r1, #1
     bea:	d1fb      	bne.n	be4 <Code_180+0x18>
     bec:	e005      	b.n	bfa <Code_180+0x2e>
     bee:	7830      	ldrb	r0, [r6, #0]
     bf0:	7010      	strb	r0, [r2, #0]
     bf2:	3601      	adds	r6, #1
     bf4:	3201      	adds	r2, #1
     bf6:	3901      	subs	r1, #1
     bf8:	d1f9      	bne.n	bee <Code_180+0x22>
     bfa:	cf40      	ldmia	r7!, {r6}
     bfc:	bd07      	pop	{r0, r1, r2, pc}
     bfe:	46c0      	nop			; (mov r8, r8)

00000c00 <Dictionary_184>:
     c00:	00000c24 	andeq	r0, r0, r4, lsr #24
     c04:	66040000 	strvs	r0, [r4], -r0
     c08:	006c6c69 	rsbeq	r6, ip, r9, ror #24

00000c0c <Code_184>:
     c0c:	0030      	movs	r0, r6
     c0e:	cf40      	ldmia	r7!, {r6}
     c10:	0031      	movs	r1, r6
     c12:	cf40      	ldmia	r7!, {r6}
     c14:	2900      	cmp	r1, #0
     c16:	d002      	beq.n	c1e <Code_184+0x12>
     c18:	3901      	subs	r1, #1
     c1a:	5470      	strb	r0, [r6, r1]
     c1c:	d1fc      	bne.n	c18 <Code_184+0xc>
     c1e:	cf40      	ldmia	r7!, {r6}
     c20:	4770      	bx	lr
     c22:	46c0      	nop			; (mov r8, r8)

00000c24 <Dictionary_188>:
     c24:	00000c30 	andeq	r0, r0, r0, lsr ip
     c28:	40010020 	andmi	r0, r1, r0, lsr #32

00000c2c <Code_188>:
     c2c:	6836      	ldr	r6, [r6, #0]
     c2e:	4770      	bx	lr

00000c30 <Dictionary_189>:
     c30:	00000c48 	andeq	r0, r0, r8, asr #24
     c34:	2101006d 	tstcs	r1, sp, rrx

00000c38 <Code_189>:
     c38:	cf03      	ldmia	r7!, {r0, r1}
     c3a:	6030      	str	r0, [r6, #0]
     c3c:	000e      	movs	r6, r1
     c3e:	4770      	bx	lr
     c40:	6006      	str	r6, [r0, #0]
     c42:	4770      	bx	lr
     c44:	6001      	str	r1, [r0, #0]
     c46:	4770      	bx	lr

00000c48 <Dictionary_190>:
     c48:	00000c70 	andeq	r0, r0, r0, ror ip
     c4c:	2b02006d 	blcs	80e08 <BIT19+0xe08>
     c50:	cf030021 	svcgt	0x00030021

00000c52 <Code_190>:
     c52:	cf03      	ldmia	r7!, {r0, r1}
     c54:	6832      	ldr	r2, [r6, #0]
     c56:	1812      	adds	r2, r2, r0
     c58:	6032      	str	r2, [r6, #0]
     c5a:	000e      	movs	r6, r1
     c5c:	4770      	bx	lr
     c5e:	6802      	ldr	r2, [r0, #0]
     c60:	1992      	adds	r2, r2, r6
     c62:	6002      	str	r2, [r0, #0]
     c64:	4770      	bx	lr
     c66:	6802      	ldr	r2, [r0, #0]
     c68:	1852      	adds	r2, r2, r1
     c6a:	6002      	str	r2, [r0, #0]
     c6c:	4770      	bx	lr
     c6e:	46c0      	nop			; (mov r8, r8)

00000c70 <Dictionary_191>:
     c70:	00000c80 	andeq	r0, r0, r0, lsl #25
     c74:	68020020 	stmdavs	r2, {r5}
     c78:	88360040 	ldmdahi	r6!, {r6}

00000c7a <Code_191>:
     c7a:	8836      	ldrh	r6, [r6, #0]
     c7c:	4770      	bx	lr
     c7e:	46c0      	nop			; (mov r8, r8)

00000c80 <Dictionary_192>:
     c80:	00000c9c 	muleq	r0, ip, ip
     c84:	6802006d 	stmdavs	r2, {r0, r2, r3, r5, r6}
     c88:	cf030021 	svcgt	0x00030021

00000c8a <Code_192>:
     c8a:	cf03      	ldmia	r7!, {r0, r1}
     c8c:	8030      	strh	r0, [r6, #0]
     c8e:	000e      	movs	r6, r1
     c90:	4770      	bx	lr
     c92:	8006      	strh	r6, [r0, #0]
     c94:	4770      	bx	lr
     c96:	8001      	strh	r1, [r0, #0]
     c98:	4770      	bx	lr
     c9a:	46c0      	nop			; (mov r8, r8)

00000c9c <Dictionary_193>:
     c9c:	00000cc4 	andeq	r0, r0, r4, asr #25
     ca0:	6803006d 	stmdavs	r3, {r0, r2, r3, r5, r6}
     ca4:	cf03212b 	svcgt	0x0003212b

00000ca6 <Code_193>:
     ca6:	cf03      	ldmia	r7!, {r0, r1}
     ca8:	8832      	ldrh	r2, [r6, #0]
     caa:	1812      	adds	r2, r2, r0
     cac:	8032      	strh	r2, [r6, #0]
     cae:	000e      	movs	r6, r1
     cb0:	4770      	bx	lr
     cb2:	8802      	ldrh	r2, [r0, #0]
     cb4:	1992      	adds	r2, r2, r6
     cb6:	8002      	strh	r2, [r0, #0]
     cb8:	4770      	bx	lr
     cba:	8802      	ldrh	r2, [r0, #0]
     cbc:	1852      	adds	r2, r2, r1
     cbe:	8002      	strh	r2, [r0, #0]
     cc0:	4770      	bx	lr
     cc2:	46c0      	nop			; (mov r8, r8)

00000cc4 <Dictionary_194>:
     cc4:	00000cd4 	ldrdeq	r0, [r0], -r4
     cc8:	63020020 	movwvs	r0, #8224	; 0x2020
     ccc:	78360040 	ldmdavc	r6!, {r6}

00000cce <Code_194>:
     cce:	7836      	ldrb	r6, [r6, #0]
     cd0:	4770      	bx	lr
     cd2:	46c0      	nop			; (mov r8, r8)

00000cd4 <Dictionary_195>:
     cd4:	00000cf0 	strdeq	r0, [r0], -r0	; <UNPREDICTABLE>
     cd8:	6302006d 	movwvs	r0, #8301	; 0x206d
     cdc:	cf030021 	svcgt	0x00030021

00000cde <Code_195>:
     cde:	cf03      	ldmia	r7!, {r0, r1}
     ce0:	7030      	strb	r0, [r6, #0]
     ce2:	000e      	movs	r6, r1
     ce4:	4770      	bx	lr
     ce6:	7006      	strb	r6, [r0, #0]
     ce8:	4770      	bx	lr
     cea:	7001      	strb	r1, [r0, #0]
     cec:	4770      	bx	lr
     cee:	46c0      	nop			; (mov r8, r8)

00000cf0 <Dictionary_196>:
     cf0:	00000d18 	andeq	r0, r0, r8, lsl sp
     cf4:	6303006d 	movwvs	r0, #12397	; 0x306d
     cf8:	cf03212b 	svcgt	0x0003212b

00000cfa <Code_196>:
     cfa:	cf03      	ldmia	r7!, {r0, r1}
     cfc:	7832      	ldrb	r2, [r6, #0]
     cfe:	1812      	adds	r2, r2, r0
     d00:	7032      	strb	r2, [r6, #0]
     d02:	000e      	movs	r6, r1
     d04:	4770      	bx	lr
     d06:	7802      	ldrb	r2, [r0, #0]
     d08:	1992      	adds	r2, r2, r6
     d0a:	7002      	strb	r2, [r0, #0]
     d0c:	4770      	bx	lr
     d0e:	7802      	ldrb	r2, [r0, #0]
     d10:	1852      	adds	r2, r2, r1
     d12:	7002      	strb	r2, [r0, #0]
     d14:	4770      	bx	lr
     d16:	46c0      	nop			; (mov r8, r8)

00000d18 <Dictionary_197>:
     d18:	00000d40 	andeq	r0, r0, r0, asr #26
     d1c:	6204006d 	andvs	r0, r4, #109	; 0x6d
     d20:	00217369 	eoreq	r7, r1, r9, ror #6

00000d24 <Code_197>:
     d24:	cf03      	ldmia	r7!, {r0, r1}
     d26:	6832      	ldr	r2, [r6, #0]
     d28:	4302      	orrs	r2, r0
     d2a:	6032      	str	r2, [r6, #0]
     d2c:	000e      	movs	r6, r1
     d2e:	4770      	bx	lr
     d30:	6802      	ldr	r2, [r0, #0]
     d32:	4332      	orrs	r2, r6
     d34:	6002      	str	r2, [r0, #0]
     d36:	4770      	bx	lr
     d38:	6802      	ldr	r2, [r0, #0]
     d3a:	430a      	orrs	r2, r1
     d3c:	6002      	str	r2, [r0, #0]
     d3e:	4770      	bx	lr

00000d40 <Dictionary_198>:
     d40:	00000d68 	andeq	r0, r0, r8, ror #26
     d44:	6204006d 	andvs	r0, r4, #109	; 0x6d
     d48:	00216369 	eoreq	r6, r1, r9, ror #6

00000d4c <Code_198>:
     d4c:	cf03      	ldmia	r7!, {r0, r1}
     d4e:	6832      	ldr	r2, [r6, #0]
     d50:	4382      	bics	r2, r0
     d52:	6032      	str	r2, [r6, #0]
     d54:	000e      	movs	r6, r1
     d56:	4770      	bx	lr
     d58:	6802      	ldr	r2, [r0, #0]
     d5a:	43b2      	bics	r2, r6
     d5c:	6002      	str	r2, [r0, #0]
     d5e:	4770      	bx	lr
     d60:	6802      	ldr	r2, [r0, #0]
     d62:	438a      	bics	r2, r1
     d64:	6002      	str	r2, [r0, #0]
     d66:	4770      	bx	lr

00000d68 <Dictionary_199>:
     d68:	00000d90 	muleq	r0, r0, sp
     d6c:	7804006d 	stmdavc	r4, {r0, r2, r3, r5, r6}
     d70:	0021726f 	eoreq	r7, r1, pc, ror #4

00000d74 <Code_199>:
     d74:	cf03      	ldmia	r7!, {r0, r1}
     d76:	6832      	ldr	r2, [r6, #0]
     d78:	4042      	eors	r2, r0
     d7a:	6032      	str	r2, [r6, #0]
     d7c:	000e      	movs	r6, r1
     d7e:	4770      	bx	lr
     d80:	6802      	ldr	r2, [r0, #0]
     d82:	4072      	eors	r2, r6
     d84:	6002      	str	r2, [r0, #0]
     d86:	4770      	bx	lr
     d88:	6802      	ldr	r2, [r0, #0]
     d8a:	404a      	eors	r2, r1
     d8c:	6002      	str	r2, [r0, #0]
     d8e:	4770      	bx	lr

00000d90 <Dictionary_200>:
     d90:	00000df8 	strdeq	r0, [r0], -r8
     d94:	62040068 	andvs	r0, r4, #104	; 0x68
     d98:	00407469 	subeq	r7, r0, r9, ror #8

00000d9c <Code_200>:
     d9c:	cf01      	ldmia	r7!, {r0}
     d9e:	6836      	ldr	r6, [r6, #0]

00000da0 <struktur_bitfetch>:
     da0:	4006      	ands	r6, r0
     da2:	3e01      	subs	r6, #1
     da4:	41b6      	sbcs	r6, r6
     da6:	43f6      	mvns	r6, r6
     da8:	4770      	bx	lr
     daa:	4ac4      	ldr	r2, [pc, #784]	; (10bc <Code_236+0x6>)

00000dac <bitfetch_opcoding>:
     dac:	b500      	push	{lr}
     dae:	2b01      	cmp	r3, #1
     db0:	d10a      	bne.n	dc8 <bitfetch_opcoding+0x1c>
     db2:	3f04      	subs	r7, #4
     db4:	603e      	str	r6, [r7, #0]
     db6:	2600      	movs	r6, #0
     db8:	f000 feb4 	bl	1b24 <Code_421>
     dbc:	3f04      	subs	r7, #4
     dbe:	603e      	str	r6, [r7, #0]
     dc0:	0016      	movs	r6, r2
     dc2:	f001 fa44 	bl	224e <Code_562>
     dc6:	e011      	b.n	dec <bitfetch_opcoding+0x40>
     dc8:	cf02      	ldmia	r7!, {r1}
     dca:	3b01      	subs	r3, #1
     dcc:	f002 fb93 	bl	34f6 <konstantenschreiben>
     dd0:	3f04      	subs	r7, #4
     dd2:	603e      	str	r6, [r7, #0]
     dd4:	2636      	movs	r6, #54	; 0x36
     dd6:	4316      	orrs	r6, r2
     dd8:	f001 fa39 	bl	224e <Code_562>
     ddc:	3f04      	subs	r7, #4
     dde:	603e      	str	r6, [r7, #0]
     de0:	000e      	movs	r6, r1
     de2:	3f04      	subs	r7, #4
     de4:	603e      	str	r6, [r7, #0]
     de6:	2600      	movs	r6, #0
     de8:	f000 fe9c 	bl	1b24 <Code_421>
     dec:	3f04      	subs	r7, #4
     dee:	603e      	str	r6, [r7, #0]
     df0:	4eb3      	ldr	r6, [pc, #716]	; (10c0 <Code_236+0xa>)
     df2:	f001 f840 	bl	1e76 <Code_487>
     df6:	bd00      	pop	{pc}

00000df8 <Dictionary_212>:
     df8:	00000e20 	andeq	r0, r0, r0, lsr #28
     dfc:	6805006d 	stmdavs	r5, {r0, r2, r3, r5, r6}
     e00:	21736962 	cmncs	r3, r2, ror #18

00000e04 <Code_212>:
     e04:	cf03      	ldmia	r7!, {r0, r1}
     e06:	8832      	ldrh	r2, [r6, #0]
     e08:	4302      	orrs	r2, r0
     e0a:	8032      	strh	r2, [r6, #0]
     e0c:	000e      	movs	r6, r1
     e0e:	4770      	bx	lr
     e10:	8802      	ldrh	r2, [r0, #0]
     e12:	4332      	orrs	r2, r6
     e14:	8002      	strh	r2, [r0, #0]
     e16:	4770      	bx	lr
     e18:	8802      	ldrh	r2, [r0, #0]
     e1a:	430a      	orrs	r2, r1
     e1c:	8002      	strh	r2, [r0, #0]
     e1e:	4770      	bx	lr

00000e20 <Dictionary_213>:
     e20:	00000e48 	andeq	r0, r0, r8, asr #28
     e24:	6805006d 	stmdavs	r5, {r0, r2, r3, r5, r6}
     e28:	21636962 	cmncs	r3, r2, ror #18

00000e2c <Code_213>:
     e2c:	cf03      	ldmia	r7!, {r0, r1}
     e2e:	8832      	ldrh	r2, [r6, #0]
     e30:	4382      	bics	r2, r0
     e32:	8032      	strh	r2, [r6, #0]
     e34:	000e      	movs	r6, r1
     e36:	4770      	bx	lr
     e38:	8802      	ldrh	r2, [r0, #0]
     e3a:	43b2      	bics	r2, r6
     e3c:	8002      	strh	r2, [r0, #0]
     e3e:	4770      	bx	lr
     e40:	8802      	ldrh	r2, [r0, #0]
     e42:	438a      	bics	r2, r1
     e44:	8002      	strh	r2, [r0, #0]
     e46:	4770      	bx	lr

00000e48 <Dictionary_214>:
     e48:	00000e70 	andeq	r0, r0, r0, ror lr
     e4c:	6805006d 	stmdavs	r5, {r0, r2, r3, r5, r6}
     e50:	21726f78 	cmncs	r2, r8, ror pc

00000e54 <Code_214>:
     e54:	cf03      	ldmia	r7!, {r0, r1}
     e56:	8832      	ldrh	r2, [r6, #0]
     e58:	4042      	eors	r2, r0
     e5a:	8032      	strh	r2, [r6, #0]
     e5c:	000e      	movs	r6, r1
     e5e:	4770      	bx	lr
     e60:	8802      	ldrh	r2, [r0, #0]
     e62:	4072      	eors	r2, r6
     e64:	8002      	strh	r2, [r0, #0]
     e66:	4770      	bx	lr
     e68:	8802      	ldrh	r2, [r0, #0]
     e6a:	404a      	eors	r2, r1
     e6c:	8002      	strh	r2, [r0, #0]
     e6e:	4770      	bx	lr

00000e70 <Dictionary_215>:
     e70:	00000e90 	muleq	r0, r0, lr
     e74:	68050068 	stmdavs	r5, {r3, r5, r6}
     e78:	40746962 	rsbsmi	r6, r4, r2, ror #18

00000e7c <Code_215>:
     e7c:	cf01      	ldmia	r7!, {r0}
     e7e:	8836      	ldrh	r6, [r6, #0]
     e80:	4006      	ands	r6, r0
     e82:	3e01      	subs	r6, #1
     e84:	41b6      	sbcs	r6, r6
     e86:	43f6      	mvns	r6, r6
     e88:	4770      	bx	lr
     e8a:	4a8e      	ldr	r2, [pc, #568]	; (10c4 <Code_236+0xe>)
     e8c:	e78e      	b.n	dac <bitfetch_opcoding>
     e8e:	46c0      	nop			; (mov r8, r8)

00000e90 <Dictionary_216>:
     e90:	00000eb8 			; <UNDEFINED> instruction: 0x00000eb8
     e94:	6305006d 	movwvs	r0, #20589	; 0x506d
     e98:	21736962 	cmncs	r3, r2, ror #18

00000e9c <Code_216>:
     e9c:	cf03      	ldmia	r7!, {r0, r1}
     e9e:	7832      	ldrb	r2, [r6, #0]
     ea0:	4302      	orrs	r2, r0
     ea2:	7032      	strb	r2, [r6, #0]
     ea4:	000e      	movs	r6, r1
     ea6:	4770      	bx	lr
     ea8:	7802      	ldrb	r2, [r0, #0]
     eaa:	4332      	orrs	r2, r6
     eac:	7002      	strb	r2, [r0, #0]
     eae:	4770      	bx	lr
     eb0:	7802      	ldrb	r2, [r0, #0]
     eb2:	430a      	orrs	r2, r1
     eb4:	7002      	strb	r2, [r0, #0]
     eb6:	4770      	bx	lr

00000eb8 <Dictionary_217>:
     eb8:	00000ee0 	andeq	r0, r0, r0, ror #29
     ebc:	6305006d 	movwvs	r0, #20589	; 0x506d
     ec0:	21636962 	cmncs	r3, r2, ror #18

00000ec4 <Code_217>:
     ec4:	cf03      	ldmia	r7!, {r0, r1}
     ec6:	7832      	ldrb	r2, [r6, #0]
     ec8:	4382      	bics	r2, r0
     eca:	7032      	strb	r2, [r6, #0]
     ecc:	000e      	movs	r6, r1
     ece:	4770      	bx	lr
     ed0:	7802      	ldrb	r2, [r0, #0]
     ed2:	43b2      	bics	r2, r6
     ed4:	7002      	strb	r2, [r0, #0]
     ed6:	4770      	bx	lr
     ed8:	7802      	ldrb	r2, [r0, #0]
     eda:	438a      	bics	r2, r1
     edc:	7002      	strb	r2, [r0, #0]
     ede:	4770      	bx	lr

00000ee0 <Dictionary_218>:
     ee0:	00000f08 	andeq	r0, r0, r8, lsl #30
     ee4:	6305006d 	movwvs	r0, #20589	; 0x506d
     ee8:	21726f78 	cmncs	r2, r8, ror pc

00000eec <Code_218>:
     eec:	cf03      	ldmia	r7!, {r0, r1}
     eee:	7832      	ldrb	r2, [r6, #0]
     ef0:	4042      	eors	r2, r0
     ef2:	7032      	strb	r2, [r6, #0]
     ef4:	000e      	movs	r6, r1
     ef6:	4770      	bx	lr
     ef8:	7802      	ldrb	r2, [r0, #0]
     efa:	4072      	eors	r2, r6
     efc:	7002      	strb	r2, [r0, #0]
     efe:	4770      	bx	lr
     f00:	7802      	ldrb	r2, [r0, #0]
     f02:	404a      	eors	r2, r1
     f04:	7002      	strb	r2, [r0, #0]
     f06:	4770      	bx	lr

00000f08 <Dictionary_219>:
     f08:	00000f28 	andeq	r0, r0, r8, lsr #30
     f0c:	63050068 	movwvs	r0, #20584	; 0x5068
     f10:	40746962 	rsbsmi	r6, r4, r2, ror #18

00000f14 <Code_219>:
     f14:	cf01      	ldmia	r7!, {r0}
     f16:	7836      	ldrb	r6, [r6, #0]
     f18:	4006      	ands	r6, r0
     f1a:	3e01      	subs	r6, #1
     f1c:	41b6      	sbcs	r6, r6
     f1e:	43f6      	mvns	r6, r6
     f20:	4770      	bx	lr
     f22:	4a69      	ldr	r2, [pc, #420]	; (10c8 <Code_236+0x12>)
     f24:	e742      	b.n	dac <bitfetch_opcoding>
     f26:	46c0      	nop			; (mov r8, r8)

00000f28 <Dictionary_220>:
     f28:	00000f38 	andeq	r0, r0, r8, lsr pc
     f2c:	63050061 	movwvs	r0, #20577	; 0x5061
     f30:	2b6c6c65 	blcs	1b1c0cc <BIT24+0xb1c0cc>

00000f34 <Code_220>:
     f34:	3604      	adds	r6, #4
     f36:	4770      	bx	lr

00000f38 <Dictionary_221>:
     f38:	00000f48 	andeq	r0, r0, r8, asr #30
     f3c:	63050061 	movwvs	r0, #20577	; 0x5061
     f40:	736c6c65 	cmnvc	ip, #25856	; 0x6500

00000f44 <Code_221>:
     f44:	00b6      	lsls	r6, r6, #2
     f46:	4770      	bx	lr

00000f48 <Dictionary_222>:
     f48:	00000fe4 	andeq	r0, r0, r4, ror #31
     f4c:	68070000 	stmdavs	r7, {}	; <UNPREDICTABLE>
     f50:	73616c66 	cmnvc	r1, #26112	; 0x6600
     f54:	00302168 	eorseq	r2, r0, r8, ror #2

00000f56 <Code_222>:
     f56:	0030      	movs	r0, r6
     f58:	cf40      	ldmia	r7!, {r6}
     f5a:	0031      	movs	r1, r6
     f5c:	cf40      	ldmia	r7!, {r6}
     f5e:	4b5b      	ldr	r3, [pc, #364]	; (10cc <Code_236+0x16>)
     f60:	4298      	cmp	r0, r3
     f62:	d324      	bcc.n	fae <Code_222+0x58>
     f64:	4b5a      	ldr	r3, [pc, #360]	; (10d0 <Code_236+0x1a>)
     f66:	4298      	cmp	r0, r3
     f68:	d221      	bcs.n	fae <Code_222+0x58>
     f6a:	4b5a      	ldr	r3, [pc, #360]	; (10d4 <Code_236+0x1e>)
     f6c:	4019      	ands	r1, r3
     f6e:	4299      	cmp	r1, r3
     f70:	d01c      	beq.n	fac <Code_222+0x56>
     f72:	2201      	movs	r2, #1
     f74:	4002      	ands	r2, r0
     f76:	2a00      	cmp	r2, #0
     f78:	d119      	bne.n	fae <Code_222+0x58>
     f7a:	8802      	ldrh	r2, [r0, #0]
     f7c:	429a      	cmp	r2, r3
     f7e:	d116      	bne.n	fae <Code_222+0x58>
     f80:	4a55      	ldr	r2, [pc, #340]	; (10d8 <Code_236+0x22>)
     f82:	2301      	movs	r3, #1
     f84:	6013      	str	r3, [r2, #0]
     f86:	2302      	movs	r3, #2
     f88:	4003      	ands	r3, r0
     f8a:	d004      	beq.n	f96 <Code_222+0x40>
     f8c:	4058      	eors	r0, r3
     f8e:	8803      	ldrh	r3, [r0, #0]
     f90:	0409      	lsls	r1, r1, #16
     f92:	4319      	orrs	r1, r3
     f94:	e001      	b.n	f9a <Code_222+0x44>
     f96:	4b51      	ldr	r3, [pc, #324]	; (10dc <Code_236+0x26>)
     f98:	4319      	orrs	r1, r3
     f9a:	6001      	str	r1, [r0, #0]
     f9c:	4a50      	ldr	r2, [pc, #320]	; (10e0 <Code_236+0x2a>)
     f9e:	6813      	ldr	r3, [r2, #0]
     fa0:	2001      	movs	r0, #1
     fa2:	4018      	ands	r0, r3
     fa4:	d0fb      	beq.n	f9e <Code_222+0x48>
     fa6:	4a4c      	ldr	r2, [pc, #304]	; (10d8 <Code_236+0x22>)
     fa8:	2300      	movs	r3, #0
     faa:	6013      	str	r3, [r2, #0]
     fac:	4770      	bx	lr
     fae:	f000 fc6b 	bl	1888 <dotgaensefuesschen>
     fb2:	6f72572a 	svcvs	0x0072572a
     fb6:	6120676e 	teqvs	r0, lr, ror #14
     fba:	65726464 	ldrbvs	r6, [r2, #-1124]!	; 0x464
     fbe:	6f207373 	svcvs	0x00207373
     fc2:	61642072 	smcvs	16898	; 0x4202
     fc6:	66206174 			; <UNDEFINED> instruction: 0x66206174
     fca:	7720726f 	strvc	r7, [r0, -pc, ror #4]!
     fce:	69746972 	ldmdbvs	r4!, {r1, r4, r5, r6, r8, fp, sp, lr}^
     fd2:	6620676e 	strtvs	r6, [r0], -lr, ror #14
     fd6:	6873616c 	ldmdavs	r3!, {r2, r3, r5, r6, r8, sp, lr}^
     fda:	000a2120 	andeq	r2, sl, r0, lsr #2
     fde:	f002 fab1 	bl	3544 <Code_938>
     fe2:	46c0      	nop			; (mov r8, r8)

00000fe4 <Dictionary_226>:
     fe4:	00001024 	andeq	r1, r0, r4, lsr #32
     fe8:	660e0000 	strvs	r0, [lr], -r0
     fec:	6873616c 	ldmdavs	r3!, {r2, r3, r5, r6, r8, sp, lr}^
     ff0:	65676170 	strbvs	r6, [r7, #-368]!	; 0x170
     ff4:	73617265 	cmnvc	r1, #1342177286	; 0x50000006
     ff8:	b50f0065 	strlt	r0, [pc, #-101]	; f9b <Code_222+0x45>

00000ffa <Code_226>:
     ffa:	b50f      	push	{r0, r1, r2, r3, lr}
     ffc:	0030      	movs	r0, r6
     ffe:	cf40      	ldmia	r7!, {r6}
    1000:	4b32      	ldr	r3, [pc, #200]	; (10cc <Code_236+0x16>)
    1002:	4298      	cmp	r0, r3
    1004:	d30c      	bcc.n	1020 <BIT12+0x20>
    1006:	4a34      	ldr	r2, [pc, #208]	; (10d8 <Code_236+0x22>)
    1008:	2302      	movs	r3, #2
    100a:	6013      	str	r3, [r2, #0]
    100c:	4a35      	ldr	r2, [pc, #212]	; (10e4 <Code_236+0x2e>)
    100e:	6010      	str	r0, [r2, #0]
    1010:	4a33      	ldr	r2, [pc, #204]	; (10e0 <Code_236+0x2a>)
    1012:	6813      	ldr	r3, [r2, #0]
    1014:	2001      	movs	r0, #1
    1016:	4018      	ands	r0, r3
    1018:	d0fb      	beq.n	1012 <BIT12+0x12>
    101a:	4a2f      	ldr	r2, [pc, #188]	; (10d8 <Code_236+0x22>)
    101c:	2300      	movs	r3, #0
    101e:	6013      	str	r3, [r2, #0]
    1020:	bd0f      	pop	{r0, r1, r2, r3, pc}
    1022:	46c0      	nop			; (mov r8, r8)

00001024 <Dictionary_228>:
    1024:	000010a0 	andeq	r1, r0, r0, lsr #1
    1028:	650a0000 	strvs	r0, [sl]
    102c:	65736172 	ldrbvs	r6, [r3, #-370]!	; 0x172
    1030:	73616c66 	cmnvc	r1, #26112	; 0x6600
    1034:	48250068 	stmdami	r5!, {r3, r5, r6}

00001036 <Code_228>:
    1036:	4825      	ldr	r0, [pc, #148]	; (10cc <Code_236+0x16>)

00001038 <eraseflash_intern>:
    1038:	b672      	cpsid	i
    103a:	4925      	ldr	r1, [pc, #148]	; (10d0 <Code_236+0x1a>)
    103c:	4a25      	ldr	r2, [pc, #148]	; (10d4 <Code_236+0x1e>)
    103e:	8803      	ldrh	r3, [r0, #0]
    1040:	4293      	cmp	r3, r2
    1042:	d01c      	beq.n	107e <eraseflash_intern+0x46>
    1044:	3f04      	subs	r7, #4
    1046:	603e      	str	r6, [r7, #0]
    1048:	0006      	movs	r6, r0
    104a:	3f04      	subs	r7, #4
    104c:	603e      	str	r6, [r7, #0]
    104e:	f000 fc1b 	bl	1888 <dotgaensefuesschen>
    1052:	61724510 	cmnvs	r2, r0, lsl r5
    1056:	62206573 	eorvs	r6, r0, #482344960	; 0x1cc00000
    105a:	6b636f6c 	blvs	18dce12 <BIT24+0x8dce12>
    105e:	20746120 	rsbscs	r6, r4, r0, lsr #2
    1062:	f0000020 			; <UNDEFINED> instruction: 0xf0000020
    1066:	fc88 f000 	stc2	0, cr15, [r8], {0}
    106a:	fc0e 200c 	stc2	0, cr2, [lr], {12}
    106e:	6d6f7266 	sfmvs	f7, 2, [pc, #-408]!	; edc <Code_217+0x18>
    1072:	616c4620 	cmnvs	ip, r0, lsr #12
    1076:	000a6873 	andeq	r6, sl, r3, ror r8
    107a:	f7ff ffbe 	bl	ffa <Code_226>
    107e:	3002      	adds	r0, #2
    1080:	4288      	cmp	r0, r1
    1082:	d1dc      	bne.n	103e <eraseflash_intern+0x6>
    1084:	f000 fc00 	bl	1888 <dotgaensefuesschen>
    1088:	6e694612 	mcrvs	6, 3, r4, cr9, cr2, {0}
    108c:	65687369 	strbvs	r7, [r8, #-873]!	; 0x369
    1090:	52202e64 	eorpl	r2, r0, #1600	; 0x640
    1094:	74657365 	strbtvc	r7, [r5], #-869	; 0x365
    1098:	000a2120 	andeq	r2, sl, r0, lsr #2
    109c:	f002 fae0 	bl	3660 <Code_951>

000010a0 <Dictionary_236>:
    10a0:	000010e8 	andeq	r1, r0, r8, ror #1
    10a4:	650e0000 	strvs	r0, [lr]
    10a8:	65736172 	ldrbvs	r6, [r3, #-370]!	; 0x172
    10ac:	73616c66 	cmnvc	r1, #26112	; 0x6600
    10b0:	6f726668 	svcvs	0x00726668
    10b4:	0030006d 	eorseq	r0, r0, sp, rrx

000010b6 <Code_236>:
    10b6:	0030      	movs	r0, r6
    10b8:	cf40      	ldmia	r7!, {r6}
    10ba:	e7bd      	b.n	1038 <eraseflash_intern>
    10bc:	00006800 	andeq	r6, r0, r0, lsl #16
    10c0:	00000da0 	andeq	r0, r0, r0, lsr #27
    10c4:	00008800 	andeq	r8, r0, r0, lsl #16
    10c8:	00007800 	andeq	r7, r0, r0, lsl #16
    10cc:	00004000 	andeq	r4, r0, r0
    10d0:	00040000 	andeq	r0, r4, r0
    10d4:	0000ffff 	strdeq	pc, [r0], -pc	; <UNPREDICTABLE>
    10d8:	4001e504 	andmi	lr, r1, r4, lsl #10
    10dc:	ffff0000 			; <UNDEFINED> instruction: 0xffff0000
    10e0:	4001e400 	andmi	lr, r1, r0, lsl #8
    10e4:	4001e508 	andmi	lr, r1, r8, lsl #10

000010e8 <Dictionary_238>:
    10e8:	000010fc 	strdeq	r1, [r0], -ip
    10ec:	2b010069 	blcs	41298 <BIT18+0x1298>

000010f0 <Code_238>:
    10f0:	cf01      	ldmia	r7!, {r0}
    10f2:	1836      	adds	r6, r6, r0
    10f4:	4770      	bx	lr
    10f6:	1836      	adds	r6, r6, r0
    10f8:	3600      	adds	r6, #0
    10fa:	46c0      	nop			; (mov r8, r8)

000010fc <Dictionary_239>:
    10fc:	00001110 	andeq	r1, r0, r0, lsl r1
    1100:	2d010069 	stccs	0, cr0, [r1, #-420]	; 0xfffffe5c

00001104 <Code_239>:
    1104:	cf01      	ldmia	r7!, {r0}
    1106:	1b86      	subs	r6, r0, r6
    1108:	4770      	bx	lr
    110a:	1a36      	subs	r6, r6, r0
    110c:	3e00      	subs	r6, #0
    110e:	46c0      	nop			; (mov r8, r8)

00001110 <Dictionary_240>:
    1110:	00001120 	andeq	r1, r0, r0, lsr #2
    1114:	31020061 	tstcc	r2, r1, rrx
    1118:	3e01002d 	cdpcc	0, 0, cr0, cr1, cr13, {1}

0000111a <Code_240>:
    111a:	3e01      	subs	r6, #1
    111c:	4770      	bx	lr
    111e:	46c0      	nop			; (mov r8, r8)

00001120 <Dictionary_241>:
    1120:	00001130 	andeq	r1, r0, r0, lsr r1
    1124:	31020061 	tstcc	r2, r1, rrx
    1128:	3601002b 	strcc	r0, [r1], -fp, lsr #32

0000112a <Code_241>:
    112a:	3601      	adds	r6, #1
    112c:	4770      	bx	lr
    112e:	46c0      	nop			; (mov r8, r8)

00001130 <Dictionary_242>:
    1130:	00001140 	andeq	r1, r0, r0, asr #2
    1134:	32020061 	andcc	r0, r2, #97	; 0x61
    1138:	3e02002d 	cdpcc	0, 0, cr0, cr2, cr13, {1}

0000113a <Code_242>:
    113a:	3e02      	subs	r6, #2
    113c:	4770      	bx	lr
    113e:	46c0      	nop			; (mov r8, r8)

00001140 <Dictionary_243>:
    1140:	00001150 	andeq	r1, r0, r0, asr r1
    1144:	32020061 	andcc	r0, r2, #97	; 0x61
    1148:	3602002b 	strcc	r0, [r2], -fp, lsr #32

0000114a <Code_243>:
    114a:	3602      	adds	r6, #2
    114c:	4770      	bx	lr
    114e:	46c0      	nop			; (mov r8, r8)

00001150 <Dictionary_244>:
    1150:	00001164 	andeq	r1, r0, r4, ror #2
    1154:	6e060061 	cdpvs	0, 0, cr0, cr6, cr1, {3}
    1158:	74616765 	strbtvc	r6, [r1], #-1893	; 0x765
    115c:	42760065 	rsbsmi	r0, r6, #101	; 0x65

0000115e <Code_244>:
    115e:	4276      	negs	r6, r6
    1160:	4770      	bx	lr
    1162:	46c0      	nop			; (mov r8, r8)

00001164 <Dictionary_245>:
    1164:	00001178 	andeq	r1, r0, r8, ror r1
    1168:	61030061 	tstvs	r3, r1, rrx
    116c:	17f07362 	ldrbne	r7, [r0, r2, ror #6]!

0000116e <Code_245>:
    116e:	17f0      	asrs	r0, r6, #31
    1170:	1836      	adds	r6, r6, r0
    1172:	4046      	eors	r6, r0
    1174:	4770      	bx	lr
    1176:	46c0      	nop			; (mov r8, r8)

00001178 <Dictionary_246>:
    1178:	000011c0 	andeq	r1, r0, r0, asr #3
    117c:	75050042 	strvc	r0, [r5, #-66]	; 0x42
    1180:	646f6d2f 	strbtvs	r6, [pc], #-3375	; 1188 <Code_246+0x4>

00001184 <Code_246>:
    1184:	0031      	movs	r1, r6
    1186:	cf40      	ldmia	r7!, {r6}
    1188:	2900      	cmp	r1, #0
    118a:	d103      	bne.n	1194 <Code_246+0x10>
    118c:	3f04      	subs	r7, #4
    118e:	603e      	str	r6, [r7, #0]
    1190:	2600      	movs	r6, #0
    1192:	4770      	bx	lr
    1194:	2201      	movs	r2, #1
    1196:	2300      	movs	r3, #0
    1198:	428e      	cmp	r6, r1
    119a:	d906      	bls.n	11aa <Code_246+0x26>
    119c:	3100      	adds	r1, #0
    119e:	d404      	bmi.n	11aa <Code_246+0x26>
    11a0:	0052      	lsls	r2, r2, #1
    11a2:	0049      	lsls	r1, r1, #1
    11a4:	d401      	bmi.n	11aa <Code_246+0x26>
    11a6:	428e      	cmp	r6, r1
    11a8:	d8fa      	bhi.n	11a0 <Code_246+0x1c>
    11aa:	428e      	cmp	r6, r1
    11ac:	d301      	bcc.n	11b2 <Code_246+0x2e>
    11ae:	1a76      	subs	r6, r6, r1
    11b0:	4313      	orrs	r3, r2
    11b2:	0849      	lsrs	r1, r1, #1
    11b4:	0852      	lsrs	r2, r2, #1
    11b6:	d1f8      	bne.n	11aa <Code_246+0x26>
    11b8:	3f04      	subs	r7, #4
    11ba:	603e      	str	r6, [r7, #0]
    11bc:	001e      	movs	r6, r3
    11be:	4770      	bx	lr

000011c0 <Dictionary_252>:
    11c0:	00001230 	andeq	r1, r0, r0, lsr r2
    11c4:	2f040042 	svccs	0x00040042
    11c8:	00646f6d 	rsbeq	r6, r4, sp, ror #30

000011cc <Code_252>:
    11cc:	b500      	push	{lr}
    11ce:	0030      	movs	r0, r6
    11d0:	cf40      	ldmia	r7!, {r6}
    11d2:	2e00      	cmp	r6, #0
    11d4:	da1c      	bge.n	1210 <divmod_plus>
    11d6:	4276      	negs	r6, r6

000011d8 <divmod_minus>:
    11d8:	2800      	cmp	r0, #0
    11da:	da0c      	bge.n	11f6 <divmod_minus_plus>

000011dc <divmod_minus_minus>:
    11dc:	4240      	negs	r0, r0
    11de:	3f04      	subs	r7, #4
    11e0:	603e      	str	r6, [r7, #0]
    11e2:	0006      	movs	r6, r0
    11e4:	f7ff ffce 	bl	1184 <Code_246>
    11e8:	0030      	movs	r0, r6
    11ea:	cf40      	ldmia	r7!, {r6}
    11ec:	4276      	negs	r6, r6
    11ee:	3f04      	subs	r7, #4
    11f0:	603e      	str	r6, [r7, #0]
    11f2:	0006      	movs	r6, r0
    11f4:	bd00      	pop	{pc}

000011f6 <divmod_minus_plus>:
    11f6:	3f04      	subs	r7, #4
    11f8:	603e      	str	r6, [r7, #0]
    11fa:	0006      	movs	r6, r0
    11fc:	f7ff ffc2 	bl	1184 <Code_246>
    1200:	0030      	movs	r0, r6
    1202:	cf40      	ldmia	r7!, {r6}
    1204:	4240      	negs	r0, r0
    1206:	4276      	negs	r6, r6
    1208:	3f04      	subs	r7, #4
    120a:	603e      	str	r6, [r7, #0]
    120c:	0006      	movs	r6, r0
    120e:	bd00      	pop	{pc}

00001210 <divmod_plus>:
    1210:	2800      	cmp	r0, #0
    1212:	da07      	bge.n	1224 <divmod_plus_plus>

00001214 <divmod_plus_minus>:
    1214:	4240      	negs	r0, r0
    1216:	3f04      	subs	r7, #4
    1218:	603e      	str	r6, [r7, #0]
    121a:	0006      	movs	r6, r0
    121c:	f7ff ffb2 	bl	1184 <Code_246>
    1220:	4276      	negs	r6, r6
    1222:	bd00      	pop	{pc}

00001224 <divmod_plus_plus>:
    1224:	3f04      	subs	r7, #4
    1226:	603e      	str	r6, [r7, #0]
    1228:	0006      	movs	r6, r0
    122a:	f7ff ffab 	bl	1184 <Code_246>
    122e:	bd00      	pop	{pc}

00001230 <Dictionary_268>:
    1230:	00001244 	andeq	r1, r0, r4, asr #4
    1234:	6d030042 	stcvs	0, cr0, [r3, #-264]	; 0xfffffef8
    1238:	b500646f 	strlt	r6, [r0, #-1135]	; 0x46f

0000123a <Code_268>:
    123a:	b500      	push	{lr}
    123c:	f7ff ffc6 	bl	11cc <Code_252>
    1240:	cf40      	ldmia	r7!, {r6}
    1242:	bd00      	pop	{pc}

00001244 <Dictionary_270>:
    1244:	00001258 	andeq	r1, r0, r8, asr r2
    1248:	2f010042 	svccs	0x00010042

0000124c <Code_270>:
    124c:	b500      	push	{lr}
    124e:	f7ff ffbd 	bl	11cc <Code_252>
    1252:	3704      	adds	r7, #4
    1254:	bd00      	pop	{pc}
    1256:	46c0      	nop			; (mov r8, r8)

00001258 <Dictionary_271>:
    1258:	00001268 	andeq	r1, r0, r8, ror #4
    125c:	2a01006a 	bcs	4140c <BIT18+0x140c>

00001260 <Code_271>:
    1260:	cf01      	ldmia	r7!, {r0}
    1262:	4346      	muls	r6, r0
    1264:	4770      	bx	lr
    1266:	4346      	muls	r6, r0

00001268 <Dictionary_272>:
    1268:	00001278 	andeq	r1, r0, r8, ror r2
    126c:	32020061 	andcc	r0, r2, #97	; 0x61
    1270:	0076002a 	rsbseq	r0, r6, sl, lsr #32

00001272 <Code_272>:
    1272:	0076      	lsls	r6, r6, #1
    1274:	4770      	bx	lr
    1276:	46c0      	nop			; (mov r8, r8)

00001278 <Dictionary_273>:
    1278:	00001288 	andeq	r1, r0, r8, lsl #5
    127c:	32020061 	andcc	r0, r2, #97	; 0x61
    1280:	1076002f 	rsbsne	r0, r6, pc, lsr #32

00001282 <Code_273>:
    1282:	1076      	asrs	r6, r6, #1
    1284:	4770      	bx	lr
    1286:	46c0      	nop			; (mov r8, r8)

00001288 <Dictionary_274>:
    1288:	0000129c 	muleq	r0, ip, r2
    128c:	65040061 	strvs	r0, [r4, #-97]	; 0x61
    1290:	006e6576 	rsbeq	r6, lr, r6, ror r5

00001294 <Code_274>:
    1294:	2001      	movs	r0, #1
    1296:	4030      	ands	r0, r6
    1298:	1836      	adds	r6, r6, r0
    129a:	4770      	bx	lr

0000129c <Dictionary_275>:
    129c:	000012b4 			; <UNDEFINED> instruction: 0x000012b4
    12a0:	62040081 	andvs	r0, r4, #129	; 0x81
    12a4:	00657361 	rsbeq	r7, r5, r1, ror #6

000012a8 <Code_275>:
    12a8:	3f04      	subs	r7, #4
    12aa:	603e      	str	r6, [r7, #0]
    12ac:	4eb0      	ldr	r6, [pc, #704]	; (1570 <Code_310+0x1a>)
    12ae:	4770      	bx	lr
    12b0:	0000000a 	andeq	r0, r0, sl

000012b4 <Dictionary_278>:
    12b4:	000012cc 	andeq	r1, r0, ip, asr #5
    12b8:	62060000 	andvs	r0, r6, #0
    12bc:	72616e69 	rsbvc	r6, r1, #1680	; 0x690
    12c0:	48ab0079 	stmiami	fp!, {r0, r3, r4, r5, r6}

000012c2 <Code_278>:
    12c2:	48ab      	ldr	r0, [pc, #684]	; (1570 <Code_310+0x1a>)
    12c4:	2102      	movs	r1, #2
    12c6:	6001      	str	r1, [r0, #0]
    12c8:	4770      	bx	lr
    12ca:	46c0      	nop			; (mov r8, r8)

000012cc <Dictionary_279>:
    12cc:	000012e4 	andeq	r1, r0, r4, ror #5
    12d0:	64070000 	strvs	r0, [r7]
    12d4:	6d696365 	stclvs	3, cr6, [r9, #-404]!	; 0xfffffe6c
    12d8:	48a56c61 	stmiami	r5!, {r0, r5, r6, sl, fp, sp, lr}

000012da <Code_279>:
    12da:	48a5      	ldr	r0, [pc, #660]	; (1570 <Code_310+0x1a>)
    12dc:	210a      	movs	r1, #10
    12de:	6001      	str	r1, [r0, #0]
    12e0:	4770      	bx	lr
    12e2:	46c0      	nop			; (mov r8, r8)

000012e4 <Dictionary_280>:
    12e4:	000013b8 			; <UNDEFINED> instruction: 0x000013b8
    12e8:	68030000 	stmdavs	r3, {}	; <UNPREDICTABLE>
    12ec:	48a07865 	stmiami	r0!, {r0, r2, r5, r6, fp, ip, sp, lr}

000012ee <Code_280>:
    12ee:	48a0      	ldr	r0, [pc, #640]	; (1570 <Code_310+0x1a>)
    12f0:	2110      	movs	r1, #16
    12f2:	6001      	str	r1, [r0, #0]
    12f4:	4770      	bx	lr

000012f6 <Manual_Peripheral_Setup>:
    12f6:	489f      	ldr	r0, [pc, #636]	; (1574 <Code_310+0x1e>)
    12f8:	499f      	ldr	r1, [pc, #636]	; (1578 <Code_310+0x22>)
    12fa:	6001      	str	r1, [r0, #0]
    12fc:	489f      	ldr	r0, [pc, #636]	; (157c <Code_310+0x26>)
    12fe:	49a0      	ldr	r1, [pc, #640]	; (1580 <Code_310+0x2a>)
    1300:	6001      	str	r1, [r0, #0]
    1302:	4770      	bx	lr

00001304 <Check_Device>:
    1304:	489f      	ldr	r0, [pc, #636]	; (1584 <Code_310+0x2e>)
    1306:	6800      	ldr	r0, [r0, #0]
    1308:	499f      	ldr	r1, [pc, #636]	; (1588 <Code_310+0x32>)
    130a:	4008      	ands	r0, r1
    130c:	2801      	cmp	r0, #1
    130e:	d11d      	bne.n	134c <Check_Device+0x48>
    1310:	489e      	ldr	r0, [pc, #632]	; (158c <Code_310+0x36>)
    1312:	6800      	ldr	r0, [r0, #0]
    1314:	499e      	ldr	r1, [pc, #632]	; (1590 <Code_310+0x3a>)
    1316:	4008      	ands	r0, r1
    1318:	d118      	bne.n	134c <Check_Device+0x48>
    131a:	489e      	ldr	r0, [pc, #632]	; (1594 <Code_310+0x3e>)
    131c:	6800      	ldr	r0, [r0, #0]
    131e:	499e      	ldr	r1, [pc, #632]	; (1598 <Code_310+0x42>)
    1320:	4008      	ands	r0, r1
    1322:	d113      	bne.n	134c <Check_Device+0x48>
    1324:	489d      	ldr	r0, [pc, #628]	; (159c <Code_310+0x46>)
    1326:	6800      	ldr	r0, [r0, #0]
    1328:	499b      	ldr	r1, [pc, #620]	; (1598 <Code_310+0x42>)
    132a:	4008      	ands	r0, r1
    132c:	d100      	bne.n	1330 <Check_Device+0x2c>
    132e:	e7e2      	b.n	12f6 <Manual_Peripheral_Setup>
    1330:	489a      	ldr	r0, [pc, #616]	; (159c <Code_310+0x46>)
    1332:	6800      	ldr	r0, [r0, #0]
    1334:	4998      	ldr	r1, [pc, #608]	; (1598 <Code_310+0x42>)
    1336:	4008      	ands	r0, r1
    1338:	2810      	cmp	r0, #16
    133a:	d100      	bne.n	133e <Check_Device+0x3a>
    133c:	e7db      	b.n	12f6 <Manual_Peripheral_Setup>
    133e:	4897      	ldr	r0, [pc, #604]	; (159c <Code_310+0x46>)
    1340:	6800      	ldr	r0, [r0, #0]
    1342:	4995      	ldr	r1, [pc, #596]	; (1598 <Code_310+0x42>)
    1344:	4008      	ands	r0, r1
    1346:	2830      	cmp	r0, #48	; 0x30
    1348:	d100      	bne.n	134c <Check_Device+0x48>
    134a:	e7d4      	b.n	12f6 <Manual_Peripheral_Setup>
    134c:	4770      	bx	lr

0000134e <uart_init>:
    134e:	b500      	push	{lr}
    1350:	f7ff ffd8 	bl	1304 <Check_Device>
    1354:	4892      	ldr	r0, [pc, #584]	; (15a0 <Code_310+0x4a>)
    1356:	6802      	ldr	r2, [r0, #0]
    1358:	2103      	movs	r1, #3
    135a:	430a      	orrs	r2, r1
    135c:	6002      	str	r2, [r0, #0]
    135e:	4991      	ldr	r1, [pc, #580]	; (15a4 <Code_310+0x4e>)
    1360:	2000      	movs	r0, #0
    1362:	6008      	str	r0, [r1, #0]
    1364:	4990      	ldr	r1, [pc, #576]	; (15a8 <Code_310+0x52>)
    1366:	2001      	movs	r0, #1
    1368:	6008      	str	r0, [r1, #0]
    136a:	498e      	ldr	r1, [pc, #568]	; (15a4 <Code_310+0x4e>)
    136c:	680b      	ldr	r3, [r1, #0]
    136e:	2001      	movs	r0, #1
    1370:	4018      	ands	r0, r3
    1372:	d0fb      	beq.n	136c <uart_init+0x1e>
    1374:	498d      	ldr	r1, [pc, #564]	; (15ac <Code_310+0x56>)
    1376:	488e      	ldr	r0, [pc, #568]	; (15b0 <Code_310+0x5a>)
    1378:	6008      	str	r0, [r1, #0]
    137a:	498e      	ldr	r1, [pc, #568]	; (15b4 <Code_310+0x5e>)
    137c:	2001      	movs	r0, #1
    137e:	6008      	str	r0, [r1, #0]
    1380:	498d      	ldr	r1, [pc, #564]	; (15b8 <Code_310+0x62>)
    1382:	200c      	movs	r0, #12
    1384:	6008      	str	r0, [r1, #0]
    1386:	498d      	ldr	r1, [pc, #564]	; (15bc <Code_310+0x66>)
    1388:	2011      	movs	r0, #17
    138a:	6008      	str	r0, [r1, #0]
    138c:	498c      	ldr	r1, [pc, #560]	; (15c0 <Code_310+0x6a>)
    138e:	2010      	movs	r0, #16
    1390:	6008      	str	r0, [r1, #0]
    1392:	498c      	ldr	r1, [pc, #560]	; (15c4 <Code_310+0x6e>)
    1394:	488c      	ldr	r0, [pc, #560]	; (15c8 <Code_310+0x72>)
    1396:	6008      	str	r0, [r1, #0]
    1398:	498c      	ldr	r1, [pc, #560]	; (15cc <Code_310+0x76>)
    139a:	2004      	movs	r0, #4
    139c:	6008      	str	r0, [r1, #0]
    139e:	498c      	ldr	r1, [pc, #560]	; (15d0 <Code_310+0x7a>)
    13a0:	2001      	movs	r0, #1
    13a2:	6008      	str	r0, [r1, #0]
    13a4:	498b      	ldr	r1, [pc, #556]	; (15d4 <Code_310+0x7e>)
    13a6:	2001      	movs	r0, #1
    13a8:	6008      	str	r0, [r1, #0]
    13aa:	498b      	ldr	r1, [pc, #556]	; (15d8 <Code_310+0x82>)
    13ac:	2000      	movs	r0, #0
    13ae:	6008      	str	r0, [r1, #0]
    13b0:	498a      	ldr	r1, [pc, #552]	; (15dc <Code_310+0x86>)
    13b2:	2014      	movs	r0, #20
    13b4:	6008      	str	r0, [r1, #0]
    13b6:	bd00      	pop	{pc}

000013b8 <Dictionary_281>:
    13b8:	000013d4 	ldrdeq	r1, [r0], -r4
    13bc:	68090081 	stmdavs	r9, {r0, r7}
    13c0:	2d6b6f6f 	stclcs	15, cr6, [fp, #-444]!	; 0xfffffe44
    13c4:	74696d65 	strbtvc	r6, [r9], #-3429	; 0xd65

000013c8 <Code_281>:
    13c8:	3f04      	subs	r7, #4
    13ca:	603e      	str	r6, [r7, #0]
    13cc:	4e84      	ldr	r6, [pc, #528]	; (15e0 <Code_310+0x8a>)
    13ce:	4770      	bx	lr
    13d0:	000014ca 	andeq	r1, r0, sl, asr #9

000013d4 <Dictionary_284>:
    13d4:	000013f0 	strdeq	r1, [r0], -r0
    13d8:	68080081 	stmdavs	r8, {r0, r7}
    13dc:	2d6b6f6f 	stclcs	15, cr6, [fp, #-444]!	; 0xfffffe44
    13e0:	0079656b 	rsbseq	r6, r9, fp, ror #10

000013e4 <Code_284>:
    13e4:	3f04      	subs	r7, #4
    13e6:	603e      	str	r6, [r7, #0]
    13e8:	4e7e      	ldr	r6, [pc, #504]	; (15e4 <Code_310+0x8e>)
    13ea:	4770      	bx	lr
    13ec:	000014f6 	strdeq	r1, [r0], -r6

000013f0 <Dictionary_287>:
    13f0:	00001410 	andeq	r1, r0, r0, lsl r4
    13f4:	680a0081 	stmdavs	sl, {r0, r7}
    13f8:	2d6b6f6f 	stclcs	15, cr6, [fp, #-444]!	; 0xfffffe44
    13fc:	74696d65 	strbtvc	r6, [r9], #-3429	; 0xd65
    1400:	3f04003f 	svccc	0x0004003f

00001402 <Code_287>:
    1402:	3f04      	subs	r7, #4
    1404:	603e      	str	r6, [r7, #0]
    1406:	4e78      	ldr	r6, [pc, #480]	; (15e8 <Code_310+0x92>)
    1408:	4770      	bx	lr
    140a:	00001528 	andeq	r1, r0, r8, lsr #10
    140e:	142c46c0 	strtne	r4, [ip], #-1728	; 0x6c0

00001410 <Dictionary_290>:
    1410:	0000142c 	andeq	r1, r0, ip, lsr #8
    1414:	68090081 	stmdavs	r9, {r0, r7}
    1418:	2d6b6f6f 	stclcs	15, cr6, [fp, #-444]!	; 0xfffffe44
    141c:	3f79656b 	svccc	0x0079656b

00001420 <Code_290>:
    1420:	3f04      	subs	r7, #4
    1422:	603e      	str	r6, [r7, #0]
    1424:	4e71      	ldr	r6, [pc, #452]	; (15ec <Code_310+0x96>)
    1426:	4770      	bx	lr
    1428:	00001556 	andeq	r1, r0, r6, asr r5

0000142c <Dictionary_293>:
    142c:	0000144c 	andeq	r1, r0, ip, asr #8
    1430:	680a0081 	stmdavs	sl, {r0, r7}
    1434:	2d6b6f6f 	stclcs	15, cr6, [fp, #-444]!	; 0xfffffe44
    1438:	73756170 	cmnvc	r5, #28
    143c:	3f040065 	svccc	0x00040065

0000143e <Code_293>:
    143e:	3f04      	subs	r7, #4
    1440:	603e      	str	r6, [r7, #0]
    1442:	4e6b      	ldr	r6, [pc, #428]	; (15f0 <Code_310+0x9a>)
    1444:	4770      	bx	lr
    1446:	0000360e 	andeq	r3, r0, lr, lsl #12
    144a:	146446c0 	strbtne	r4, [r4], #-1728	; 0x6c0

0000144c <Dictionary_296>:
    144c:	00001464 	andeq	r1, r0, r4, ror #8
    1450:	65040000 	strvs	r0, [r4]
    1454:	0074696d 	rsbseq	r6, r4, sp, ror #18

00001458 <Code_296>:
    1458:	b50f      	push	{r0, r1, r2, r3, lr}
    145a:	4861      	ldr	r0, [pc, #388]	; (15e0 <Code_310+0x8a>)
    145c:	f000 f829 	bl	14b2 <hook_intern>
    1460:	bd0f      	pop	{r0, r1, r2, r3, pc}
    1462:	46c0      	nop			; (mov r8, r8)

00001464 <Dictionary_297>:
    1464:	00001478 	andeq	r1, r0, r8, ror r4
    1468:	6b030000 	blvs	c1470 <BIT19+0x41470>
    146c:	b50f7965 	strlt	r7, [pc, #-2405]	; b0f <Dictionary_172+0x3>

0000146e <Code_297>:
    146e:	b50f      	push	{r0, r1, r2, r3, lr}
    1470:	485c      	ldr	r0, [pc, #368]	; (15e4 <Code_310+0x8e>)
    1472:	f000 f81e 	bl	14b2 <hook_intern>
    1476:	bd0f      	pop	{r0, r1, r2, r3, pc}

00001478 <Dictionary_298>:
    1478:	0000148c 	andeq	r1, r0, ip, lsl #9
    147c:	65050000 	strvs	r0, [r5]
    1480:	3f74696d 	svccc	0x0074696d

00001484 <Code_298>:
    1484:	4858      	ldr	r0, [pc, #352]	; (15e8 <Code_310+0x92>)
    1486:	6800      	ldr	r0, [r0, #0]
    1488:	4687      	mov	pc, r0
    148a:	46c0      	nop			; (mov r8, r8)

0000148c <Dictionary_299>:
    148c:	000014a0 	andeq	r1, r0, r0, lsr #9
    1490:	6b040000 	blvs	101498 <BIT20+0x1498>
    1494:	003f7965 	eorseq	r7, pc, r5, ror #18

00001498 <Code_299>:
    1498:	4854      	ldr	r0, [pc, #336]	; (15ec <Code_310+0x96>)
    149a:	6800      	ldr	r0, [r0, #0]
    149c:	4687      	mov	pc, r0
    149e:	46c0      	nop			; (mov r8, r8)

000014a0 <Dictionary_300>:
    14a0:	000014b8 			; <UNDEFINED> instruction: 0x000014b8
    14a4:	70050000 	andvc	r0, r5, r0
    14a8:	65737561 	ldrbvs	r7, [r3, #-1377]!	; 0x561

000014ac <Code_300>:
    14ac:	4850      	ldr	r0, [pc, #320]	; (15f0 <Code_310+0x9a>)
    14ae:	6800      	ldr	r0, [r0, #0]
    14b0:	4687      	mov	pc, r0

000014b2 <hook_intern>:
    14b2:	6800      	ldr	r0, [r0, #0]
    14b4:	4687      	mov	pc, r0
    14b6:	46c0      	nop			; (mov r8, r8)

000014b8 <Dictionary_301>:
    14b8:	000014e4 	andeq	r1, r0, r4, ror #9
    14bc:	730b0000 	movwvc	r0, #45056	; 0xb000
    14c0:	61697265 	cmnvs	r9, r5, ror #4
    14c4:	6d652d6c 	stclvs	13, cr2, [r5, #-432]!	; 0xfffffe50
    14c8:	b5007469 	strlt	r7, [r0, #-1129]	; 0x469

000014ca <Code_301>:
    14ca:	b500      	push	{lr}
    14cc:	f000 f82c 	bl	1528 <Code_307>
    14d0:	2e00      	cmp	r6, #0
    14d2:	cf40      	ldmia	r7!, {r6}
    14d4:	d0fa      	beq.n	14cc <Code_301+0x2>
    14d6:	4a47      	ldr	r2, [pc, #284]	; (15f4 <Code_310+0x9e>)
    14d8:	2000      	movs	r0, #0
    14da:	6010      	str	r0, [r2, #0]
    14dc:	4a3f      	ldr	r2, [pc, #252]	; (15dc <Code_310+0x86>)
    14de:	7016      	strb	r6, [r2, #0]
    14e0:	cf40      	ldmia	r7!, {r6}
    14e2:	bd00      	pop	{pc}

000014e4 <Dictionary_304>:
    14e4:	00001514 	andeq	r1, r0, r4, lsl r5
    14e8:	730a0000 	movwvc	r0, #40960	; 0xa000
    14ec:	61697265 	cmnvs	r9, r5, ror #4
    14f0:	656b2d6c 	strbvs	r2, [fp, #-3436]!	; 0xd6c
    14f4:	b5000079 	strlt	r0, [r0, #-121]	; 0x79

000014f6 <Code_304>:
    14f6:	b500      	push	{lr}
    14f8:	f000 f82d 	bl	1556 <Code_310>
    14fc:	2e00      	cmp	r6, #0
    14fe:	cf40      	ldmia	r7!, {r6}
    1500:	d0fa      	beq.n	14f8 <Code_304+0x2>
    1502:	4a35      	ldr	r2, [pc, #212]	; (15d8 <Code_310+0x82>)
    1504:	2000      	movs	r0, #0
    1506:	6010      	str	r0, [r2, #0]
    1508:	3f04      	subs	r7, #4
    150a:	603e      	str	r6, [r7, #0]
    150c:	4a3a      	ldr	r2, [pc, #232]	; (15f8 <Code_310+0xa2>)
    150e:	7816      	ldrb	r6, [r2, #0]
    1510:	bd00      	pop	{pc}
    1512:	46c0      	nop			; (mov r8, r8)

00001514 <Dictionary_307>:
    1514:	00001544 	andeq	r1, r0, r4, asr #10
    1518:	730c0000 	movwvc	r0, #49152	; 0xc000
    151c:	61697265 	cmnvs	r9, r5, ror #4
    1520:	6d652d6c 	stclvs	13, cr2, [r5, #-432]!	; 0xfffffe50
    1524:	003f7469 	eorseq	r7, pc, r9, ror #8

00001528 <Code_307>:
    1528:	b500      	push	{lr}
    152a:	f7ff ffbf 	bl	14ac <Code_300>
    152e:	3f04      	subs	r7, #4
    1530:	603e      	str	r6, [r7, #0]
    1532:	2600      	movs	r6, #0
    1534:	4a2f      	ldr	r2, [pc, #188]	; (15f4 <Code_310+0x9e>)
    1536:	6811      	ldr	r1, [r2, #0]
    1538:	2001      	movs	r0, #1
    153a:	4001      	ands	r1, r0
    153c:	d000      	beq.n	1540 <Code_307+0x18>
    153e:	43f6      	mvns	r6, r6
    1540:	bd00      	pop	{pc}
    1542:	46c0      	nop			; (mov r8, r8)

00001544 <Dictionary_310>:
    1544:	000015fc 	strdeq	r1, [r0], -ip
    1548:	730b0000 	movwvc	r0, #45056	; 0xb000
    154c:	61697265 	cmnvs	r9, r5, ror #4
    1550:	656b2d6c 	strbvs	r2, [fp, #-3436]!	; 0xd6c
    1554:	b5003f79 	strlt	r3, [r0, #-3961]	; 0xf79

00001556 <Code_310>:
    1556:	b500      	push	{lr}
    1558:	f7ff ffa8 	bl	14ac <Code_300>
    155c:	3f04      	subs	r7, #4
    155e:	603e      	str	r6, [r7, #0]
    1560:	2600      	movs	r6, #0
    1562:	4a1d      	ldr	r2, [pc, #116]	; (15d8 <Code_310+0x82>)
    1564:	6811      	ldr	r1, [r2, #0]
    1566:	2001      	movs	r0, #1
    1568:	4001      	ands	r1, r0
    156a:	d000      	beq.n	156e <Code_310+0x18>
    156c:	43f6      	mvns	r6, r6
    156e:	bd00      	pop	{pc}
    1570:	20003ffc 	strdcs	r3, [r0], -ip
    1574:	40000504 	andmi	r0, r0, r4, lsl #10
    1578:	c007ffdf 	ldrdgt	pc, [r7], -pc	; <UNPREDICTABLE>
    157c:	40006c18 	andmi	r6, r0, r8, lsl ip
    1580:	00008000 	andeq	r8, r0, r0
    1584:	f0000fe0 			; <UNDEFINED> instruction: 0xf0000fe0
    1588:	000000ff 	strdeq	r0, [r0], -pc	; <UNPREDICTABLE>
    158c:	f0000fe4 			; <UNDEFINED> instruction: 0xf0000fe4
    1590:	0000000f 	andeq	r0, r0, pc
    1594:	f0000fec 			; <UNDEFINED> instruction: 0xf0000fec
    1598:	000000f0 	strdeq	r0, [r0], -r0	; <UNPREDICTABLE>
    159c:	f0000fe8 			; <UNDEFINED> instruction: 0xf0000fe8
    15a0:	40000524 	andmi	r0, r0, r4, lsr #10
    15a4:	40000100 	andmi	r0, r0, r0, lsl #2
    15a8:	40000000 	andmi	r0, r0, r0
    15ac:	50000508 	andpl	r0, r0, r8, lsl #10
    15b0:	00020000 	andeq	r0, r2, r0
    15b4:	50000744 	andpl	r0, r0, r4, asr #14
    15b8:	50000740 	andpl	r0, r0, r0, asr #14
    15bc:	4000250c 	andmi	r2, r0, ip, lsl #10
    15c0:	40002514 	andmi	r2, r0, r4, lsl r5
    15c4:	40002524 	andmi	r2, r0, r4, lsr #10
    15c8:	01d7e000 	bicseq	lr, r7, r0
    15cc:	40002500 	andmi	r2, r0, r0, lsl #10
    15d0:	40002008 	andmi	r2, r0, r8
    15d4:	40002000 	andmi	r2, r0, r0
    15d8:	40002108 	andmi	r2, r0, r8, lsl #2
    15dc:	4000251c 	andmi	r2, r0, ip, lsl r5
    15e0:	20003ff8 	strdcs	r3, [r0], -r8
    15e4:	20003ff4 	strdcs	r3, [r0], -r4
    15e8:	20003ff0 	strdcs	r3, [r0], -r0
    15ec:	20003fec 	andcs	r3, r0, ip, ror #31
    15f0:	20003fe8 	andcs	r3, r0, r8, ror #31
    15f4:	4000211c 	andmi	r2, r0, ip, lsl r1
    15f8:	40002518 	andmi	r2, r0, r8, lsl r5

000015fc <Dictionary_313>:
    15fc:	00001620 	andeq	r1, r0, r0, lsr #12
    1600:	63070000 	movwvs	r0, #28672	; 0x7000
    1604:	65707865 	ldrbvs	r7, [r0, #-2149]!	; 0x865
    1608:	b5007463 	strlt	r7, [r0, #-1123]	; 0x463

0000160a <Code_313>:
    160a:	b500      	push	{lr}
    160c:	6838      	ldr	r0, [r7, #0]
    160e:	b401      	push	{r0}
    1610:	3001      	adds	r0, #1
    1612:	6038      	str	r0, [r7, #0]
    1614:	f000 f80b 	bl	162e <Code_315>
    1618:	bc01      	pop	{r0}
    161a:	7006      	strb	r6, [r0, #0]
    161c:	cf40      	ldmia	r7!, {r6}
    161e:	bd00      	pop	{pc}

00001620 <Dictionary_315>:
    1620:	00001698 	muleq	r0, r8, r6
    1624:	61060000 	mrsvs	r0, (UNDEF: 6)
    1628:	70656363 	rsbvc	r6, r5, r3, ror #6
    162c:	b5000074 	strlt	r0, [r0, #-116]	; 0x74

0000162e <Code_315>:
    162e:	b500      	push	{lr}
    1630:	cf02      	ldmia	r7!, {r1}
    1632:	3901      	subs	r1, #1
    1634:	2200      	movs	r2, #0
    1636:	f7ff ff1a 	bl	146e <Code_297>
    163a:	0030      	movs	r0, r6
    163c:	cf40      	ldmia	r7!, {r6}
    163e:	287f      	cmp	r0, #127	; 0x7f
    1640:	d009      	beq.n	1656 <Code_315+0x28>
    1642:	2820      	cmp	r0, #32
    1644:	d219      	bcs.n	167a <Code_315+0x4c>
    1646:	2809      	cmp	r0, #9
    1648:	d016      	beq.n	1678 <Code_315+0x4a>
    164a:	280a      	cmp	r0, #10
    164c:	d01f      	beq.n	168e <Code_315+0x60>
    164e:	280d      	cmp	r0, #13
    1650:	d01d      	beq.n	168e <Code_315+0x60>
    1652:	2808      	cmp	r0, #8
    1654:	d1ef      	bne.n	1636 <Code_315+0x8>
    1656:	2a00      	cmp	r2, #0
    1658:	d0ed      	beq.n	1636 <Code_315+0x8>
    165a:	f000 f915 	bl	1888 <dotgaensefuesschen>
    165e:	08200803 	stmdaeq	r0!, {r0, r1, fp}
    1662:	2a00      	cmp	r2, #0
    1664:	d0e7      	beq.n	1636 <Code_315+0x8>
    1666:	5c88      	ldrb	r0, [r1, r2]
    1668:	3a01      	subs	r2, #1
    166a:	2380      	movs	r3, #128	; 0x80
    166c:	4003      	ands	r3, r0
    166e:	d0e2      	beq.n	1636 <Code_315+0x8>
    1670:	2340      	movs	r3, #64	; 0x40
    1672:	4003      	ands	r3, r0
    1674:	d0f5      	beq.n	1662 <Code_315+0x34>
    1676:	e7de      	b.n	1636 <Code_315+0x8>
    1678:	2020      	movs	r0, #32
    167a:	42b2      	cmp	r2, r6
    167c:	d2db      	bcs.n	1636 <Code_315+0x8>
    167e:	3f04      	subs	r7, #4
    1680:	603e      	str	r6, [r7, #0]
    1682:	0006      	movs	r6, r0
    1684:	f7ff fee8 	bl	1458 <Code_296>
    1688:	3201      	adds	r2, #1
    168a:	5488      	strb	r0, [r1, r2]
    168c:	e7d3      	b.n	1636 <Code_315+0x8>
    168e:	0016      	movs	r6, r2
    1690:	f000 f8a8 	bl	17e4 <Code_346>
    1694:	bd00      	pop	{pc}
    1696:	46c0      	nop			; (mov r8, r8)

00001698 <Dictionary_319>:
    1698:	000016ac 	andeq	r1, r0, ip, lsr #13
    169c:	74030040 	strvc	r0, [r3], #-64	; 0x40
    16a0:	3f046269 	svccc	0x00046269

000016a2 <Code_319>:
    16a2:	3f04      	subs	r7, #4
    16a4:	603e      	str	r6, [r7, #0]
    16a6:	4e2b      	ldr	r6, [pc, #172]	; (1754 <Code_331+0x20>)
    16a8:	4770      	bx	lr
    16aa:	46c0      	nop			; (mov r8, r8)

000016ac <Dictionary_321>:
    16ac:	000016c4 	andeq	r1, r0, r4, asr #13
    16b0:	3e030081 	cdpcc	0, 0, cr0, cr3, cr1, {4}
    16b4:	3f046e69 	svccc	0x00046e69

000016b6 <Code_321>:
    16b6:	3f04      	subs	r7, #4
    16b8:	603e      	str	r6, [r7, #0]
    16ba:	4e27      	ldr	r6, [pc, #156]	; (1758 <Code_331+0x24>)
    16bc:	4770      	bx	lr
    16be:	00000000 	andeq	r0, r0, r0
    16c2:	16ec46c0 	strbtne	r4, [ip], r0, asr #13

000016c4 <Dictionary_324>:
    16c4:	000016ec 	andeq	r1, r0, ip, ror #13
    16c8:	630e0082 	movwvs	r0, #57474	; 0xe082
    16cc:	65727275 	ldrbvs	r7, [r2, #-629]!	; 0x275
    16d0:	732d746e 	teqvc	sp, #1845493760	; 0x6e000000
    16d4:	6372756f 	cmnvs	r2, #465567744	; 0x1bc00000
    16d8:	3f040065 	svccc	0x00040065

000016da <Code_324>:
    16da:	3f04      	subs	r7, #4
    16dc:	603e      	str	r6, [r7, #0]
    16de:	4e1f      	ldr	r6, [pc, #124]	; (175c <Code_331+0x28>)
    16e0:	4770      	bx	lr
    16e2:	00000000 	andeq	r0, r0, r0
    16e6:	20000068 	andcs	r0, r0, r8, rrx
    16ea:	170846c0 	strne	r4, [r8, -r0, asr #13]

000016ec <Dictionary_327>:
    16ec:	00001708 	andeq	r1, r0, r8, lsl #14
    16f0:	73090000 	movwvc	r0, #36864	; 0x9000
    16f4:	6f737465 	svcvs	0x00737465
    16f8:	65637275 	strbvs	r7, [r3, #-629]!	; 0x275

000016fc <Code_327>:
    16fc:	4817      	ldr	r0, [pc, #92]	; (175c <Code_331+0x28>)
    16fe:	cf02      	ldmia	r7!, {r1}
    1700:	6006      	str	r6, [r0, #0]
    1702:	6041      	str	r1, [r0, #4]
    1704:	cf40      	ldmia	r7!, {r6}
    1706:	4770      	bx	lr

00001708 <Dictionary_329>:
    1708:	00001728 	andeq	r1, r0, r8, lsr #14
    170c:	73060000 	movwvc	r0, #24576	; 0x6000
    1710:	6372756f 	cmnvs	r2, #465567744	; 0x1bc00000
    1714:	3f040065 	svccc	0x00040065

00001716 <Code_329>:
    1716:	3f04      	subs	r7, #4
    1718:	603e      	str	r6, [r7, #0]
    171a:	4e10      	ldr	r6, [pc, #64]	; (175c <Code_331+0x28>)
    171c:	3f04      	subs	r7, #4
    171e:	6870      	ldr	r0, [r6, #4]
    1720:	6038      	str	r0, [r7, #0]
    1722:	6836      	ldr	r6, [r6, #0]
    1724:	4770      	bx	lr
    1726:	46c0      	nop			; (mov r8, r8)

00001728 <Dictionary_331>:
    1728:	00001760 	andeq	r1, r0, r0, ror #14
    172c:	71050000 	mrsvc	r0, (UNDEF: 5)
    1730:	79726575 	ldmdbvc	r2!, {r0, r2, r4, r5, r6, r8, sl, sp, lr}^

00001734 <Code_331>:
    1734:	b50f      	push	{r0, r1, r2, r3, lr}
    1736:	4808      	ldr	r0, [pc, #32]	; (1758 <Code_331+0x24>)
    1738:	2100      	movs	r1, #0
    173a:	6001      	str	r1, [r0, #0]
    173c:	f7ff ffb1 	bl	16a2 <Code_319>
    1740:	3f04      	subs	r7, #4
    1742:	603e      	str	r6, [r7, #0]
    1744:	3f04      	subs	r7, #4
    1746:	603e      	str	r6, [r7, #0]
    1748:	26c8      	movs	r6, #200	; 0xc8
    174a:	f7ff ff70 	bl	162e <Code_315>
    174e:	f7ff ffd5 	bl	16fc <Code_327>
    1752:	bd0f      	pop	{r0, r1, r2, r3, pc}
    1754:	20000068 	andcs	r0, r0, r8, rrx
    1758:	20003fe4 	andcs	r3, r0, r4, ror #31
    175c:	20003fdc 	ldrdcs	r3, [r0], -ip

00001760 <Dictionary_336>:
    1760:	000017b0 			; <UNDEFINED> instruction: 0x000017b0
    1764:	63070000 	movwvs	r0, #28672	; 0x7000
    1768:	61706d6f 	cmnvs	r0, pc, ror #26
    176c:	b50f6572 	strlt	r6, [pc, #-1394]	; 1202 <divmod_minus_plus+0xc>

0000176e <Code_336>:
    176e:	b50f      	push	{r0, r1, r2, r3, lr}
    1770:	0031      	movs	r1, r6
    1772:	cf40      	ldmia	r7!, {r6}
    1774:	cf01      	ldmia	r7!, {r0}
    1776:	4288      	cmp	r0, r1
    1778:	d002      	beq.n	1780 <Code_336+0x12>
    177a:	cf40      	ldmia	r7!, {r6}
    177c:	2600      	movs	r6, #0
    177e:	bd0f      	pop	{r0, r1, r2, r3, pc}
    1780:	cf02      	ldmia	r7!, {r1}
    1782:	2800      	cmp	r0, #0
    1784:	d010      	beq.n	17a8 <Code_336+0x3a>
    1786:	3801      	subs	r0, #1
    1788:	5c0a      	ldrb	r2, [r1, r0]
    178a:	5c33      	ldrb	r3, [r6, r0]
    178c:	2a41      	cmp	r2, #65	; 0x41
    178e:	d302      	bcc.n	1796 <Code_336+0x28>
    1790:	2a5b      	cmp	r2, #91	; 0x5b
    1792:	d200      	bcs.n	1796 <Code_336+0x28>
    1794:	3220      	adds	r2, #32
    1796:	2b41      	cmp	r3, #65	; 0x41
    1798:	d302      	bcc.n	17a0 <Code_336+0x32>
    179a:	2b5b      	cmp	r3, #91	; 0x5b
    179c:	d200      	bcs.n	17a0 <Code_336+0x32>
    179e:	3320      	adds	r3, #32
    17a0:	429a      	cmp	r2, r3
    17a2:	d0ee      	beq.n	1782 <Code_336+0x14>
    17a4:	2600      	movs	r6, #0
    17a6:	bd0f      	pop	{r0, r1, r2, r3, pc}
    17a8:	2600      	movs	r6, #0
    17aa:	43f6      	mvns	r6, r6
    17ac:	bd0f      	pop	{r0, r1, r2, r3, pc}
    17ae:	46c0      	nop			; (mov r8, r8)

000017b0 <Dictionary_341>:
    17b0:	000017c4 	andeq	r1, r0, r4, asr #15
    17b4:	63020000 	movwvs	r0, #8192	; 0x2000
    17b8:	b5000072 	strlt	r0, [r0, #-114]	; 0x72

000017ba <Code_341>:
    17ba:	b500      	push	{lr}
    17bc:	f000 f864 	bl	1888 <dotgaensefuesschen>
    17c0:	bd000a01 	vstrlt	s0, [r0, #-4]

000017c4 <Dictionary_343>:
    17c4:	000017d8 	ldrdeq	r1, [r0], -r8
    17c8:	62020000 	andvs	r0, r2, #0
    17cc:	3f04006c 	svccc	0x0004006c

000017ce <Code_343>:
    17ce:	3f04      	subs	r7, #4
    17d0:	603e      	str	r6, [r7, #0]
    17d2:	2620      	movs	r6, #32
    17d4:	4770      	bx	lr
    17d6:	46c0      	nop			; (mov r8, r8)

000017d8 <Dictionary_346>:
    17d8:	000017ec 	andeq	r1, r0, ip, ror #15
    17dc:	73050000 	movwvc	r0, #20480	; 0x5000
    17e0:	65636170 	strbvs	r6, [r3, #-368]!	; 0x170

000017e4 <Code_346>:
    17e4:	3f04      	subs	r7, #4
    17e6:	603e      	str	r6, [r7, #0]
    17e8:	2620      	movs	r6, #32
    17ea:	e635      	b.n	1458 <Code_296>

000017ec <Dictionary_349>:
    17ec:	0000180c 	andeq	r1, r0, ip, lsl #16
    17f0:	73060000 	movwvc	r0, #24576	; 0x6000
    17f4:	65636170 	strbvs	r6, [r3, #-368]!	; 0x170
    17f8:	b5000073 	strlt	r0, [r0, #-115]	; 0x73

000017fa <Code_349>:
    17fa:	b500      	push	{lr}
    17fc:	2e00      	cmp	r6, #0
    17fe:	dd03      	ble.n	1808 <Code_349+0xe>
    1800:	f7ff fff0 	bl	17e4 <Code_346>
    1804:	3e01      	subs	r6, #1
    1806:	d1fb      	bne.n	1800 <Code_349+0x6>
    1808:	cf40      	ldmia	r7!, {r6}
    180a:	bd00      	pop	{pc}

0000180c <Dictionary_351>:
    180c:	0000181c 	andeq	r1, r0, ip, lsl r8
    1810:	5b060050 	blpl	181958 <BIT20+0x81958>
    1814:	72616863 	rsbvc	r6, r1, #6488064	; 0x630000
    1818:	e005005d 	and	r0, r5, sp, asr r0

0000181a <Code_351>:
    181a:	e005      	b.n	1828 <Code_352>

0000181c <Dictionary_352>:
    181c:	00001834 	andeq	r1, r0, r4, lsr r8
    1820:	63040000 	movwvs	r0, #16384	; 0x4000
    1824:	00726168 	rsbseq	r6, r2, r8, ror #2

00001828 <Code_352>:
    1828:	b500      	push	{lr}
    182a:	f001 fb19 	bl	2e60 <Code_815>
    182e:	cf40      	ldmia	r7!, {r6}
    1830:	7836      	ldrb	r6, [r6, #0]
    1832:	bd00      	pop	{pc}

00001834 <Dictionary_354>:
    1834:	00001844 	andeq	r1, r0, r4, asr #16
    1838:	28010050 	stmdacs	r1, {r4, r6}

0000183c <Code_354>:
    183c:	3f04      	subs	r7, #4
    183e:	603e      	str	r6, [r7, #0]
    1840:	2629      	movs	r6, #41	; 0x29
    1842:	e006      	b.n	1852 <Code_357+0x6>

00001844 <Dictionary_357>:
    1844:	00001860 	andeq	r1, r0, r0, ror #16
    1848:	5c010050 	stcpl	0, cr0, [r1], {80}	; 0x50

0000184c <Code_357>:
    184c:	3f04      	subs	r7, #4
    184e:	603e      	str	r6, [r7, #0]
    1850:	2600      	movs	r6, #0
    1852:	b500      	push	{lr}
    1854:	f001 fb0e 	bl	2e74 <Code_817>
    1858:	3704      	adds	r7, #4
    185a:	cf40      	ldmia	r7!, {r6}
    185c:	bd00      	pop	{pc}
    185e:	46c0      	nop			; (mov r8, r8)

00001860 <Dictionary_362>:
    1860:	000018a8 	andeq	r1, r0, r8, lsr #17
    1864:	2e020010 	mcrcs	0, 0, r0, cr2, cr0, {0}
    1868:	489f0022 	ldmmi	pc, {r1, r5}	; <UNPREDICTABLE>

0000186a <Code_362>:
    186a:	489f      	ldr	r0, [pc, #636]	; (1ae8 <Code_401+0x94>)
    186c:	b500      	push	{lr}
    186e:	3f04      	subs	r7, #4
    1870:	603e      	str	r6, [r7, #0]
    1872:	0006      	movs	r6, r0
    1874:	f000 f9f8 	bl	1c68 <Code_448>
    1878:	3f04      	subs	r7, #4
    187a:	603e      	str	r6, [r7, #0]
    187c:	2622      	movs	r6, #34	; 0x22
    187e:	f001 faf9 	bl	2e74 <Code_817>
    1882:	f000 fd1e 	bl	22c2 <Code_574>
    1886:	bd00      	pop	{pc}

00001888 <dotgaensefuesschen>:
    1888:	b40a      	push	{r1, r3}
    188a:	3f04      	subs	r7, #4
    188c:	603e      	str	r6, [r7, #0]
    188e:	4676      	mov	r6, lr
    1890:	3e01      	subs	r6, #1
    1892:	7833      	ldrb	r3, [r6, #0]
    1894:	2101      	movs	r1, #1
    1896:	3301      	adds	r3, #1
    1898:	4019      	ands	r1, r3
    189a:	185b      	adds	r3, r3, r1
    189c:	4671      	mov	r1, lr
    189e:	18c9      	adds	r1, r1, r3
    18a0:	468e      	mov	lr, r1
    18a2:	bc0a      	pop	{r1, r3}
    18a4:	e03c      	b.n	1920 <Code_377>
    18a6:	46c0      	nop			; (mov r8, r8)

000018a8 <Dictionary_368>:
    18a8:	000018d0 	ldrdeq	r1, [r0], -r0
    18ac:	63020010 	movwvs	r0, #8208	; 0x2010
    18b0:	488e0022 	stmmi	lr, {r1, r5}

000018b2 <Code_368>:
    18b2:	488e      	ldr	r0, [pc, #568]	; (1aec <Code_401+0x98>)
    18b4:	e7da      	b.n	186c <Code_362+0x2>

000018b6 <dotcfuesschen>:
    18b6:	3f04      	subs	r7, #4
    18b8:	603e      	str	r6, [r7, #0]
    18ba:	4676      	mov	r6, lr
    18bc:	3e01      	subs	r6, #1
    18be:	7833      	ldrb	r3, [r6, #0]
    18c0:	2101      	movs	r1, #1
    18c2:	3301      	adds	r3, #1
    18c4:	4019      	ands	r1, r3
    18c6:	185b      	adds	r3, r3, r1
    18c8:	4671      	mov	r1, lr
    18ca:	18c9      	adds	r1, r1, r3
    18cc:	468e      	mov	lr, r1
    18ce:	4770      	bx	lr

000018d0 <Dictionary_370>:
    18d0:	000018fc 	strdeq	r1, [r0], -ip
    18d4:	73020010 	movwvc	r0, #8208	; 0x2010
    18d8:	48850022 	stmmi	r5, {r1, r5}

000018da <Code_370>:
    18da:	4885      	ldr	r0, [pc, #532]	; (1af0 <Code_401+0x9c>)
    18dc:	e7c6      	b.n	186c <Code_362+0x2>

000018de <dotsfuesschen>:
    18de:	3f04      	subs	r7, #4
    18e0:	603e      	str	r6, [r7, #0]
    18e2:	4676      	mov	r6, lr
    18e4:	3f04      	subs	r7, #4
    18e6:	603e      	str	r6, [r7, #0]
    18e8:	3e01      	subs	r6, #1
    18ea:	7836      	ldrb	r6, [r6, #0]
    18ec:	2101      	movs	r1, #1
    18ee:	1c73      	adds	r3, r6, #1
    18f0:	4019      	ands	r1, r3
    18f2:	185b      	adds	r3, r3, r1
    18f4:	4671      	mov	r1, lr
    18f6:	18c9      	adds	r1, r1, r3
    18f8:	468e      	mov	lr, r1
    18fa:	4770      	bx	lr

000018fc <Dictionary_374>:
    18fc:	00001914 	andeq	r1, r0, r4, lsl r9
    1900:	63050000 	movwvs	r0, #20480	; 0x5000
    1904:	746e756f 	strbtvc	r7, [lr], #-1391	; 0x56f

00001908 <Code_374>:
    1908:	3601      	adds	r6, #1
    190a:	3f04      	subs	r7, #4
    190c:	603e      	str	r6, [r7, #0]
    190e:	3e01      	subs	r6, #1
    1910:	7836      	ldrb	r6, [r6, #0]
    1912:	4770      	bx	lr

00001914 <Dictionary_377>:
    1914:	0000193c 	andeq	r1, r0, ip, lsr r9
    1918:	63050000 	movwvs	r0, #20480	; 0x5000
    191c:	65707974 	ldrbvs	r7, [r0, #-2420]!	; 0x974

00001920 <Code_377>:
    1920:	b501      	push	{r0, lr}
    1922:	7830      	ldrb	r0, [r6, #0]
    1924:	2800      	cmp	r0, #0
    1926:	d007      	beq.n	1938 <Code_377+0x18>
    1928:	3601      	adds	r6, #1
    192a:	3f04      	subs	r7, #4
    192c:	603e      	str	r6, [r7, #0]
    192e:	7836      	ldrb	r6, [r6, #0]
    1930:	f7ff fd92 	bl	1458 <Code_296>
    1934:	3801      	subs	r0, #1
    1936:	d1f7      	bne.n	1928 <Code_377+0x8>
    1938:	cf40      	ldmia	r7!, {r6}
    193a:	bd01      	pop	{r0, pc}

0000193c <Dictionary_381>:
    193c:	0000196c 	andeq	r1, r0, ip, ror #18
    1940:	74040000 	strvc	r0, [r4]
    1944:	00657079 	rsbeq	r7, r5, r9, ror r0

00001948 <Code_381>:
    1948:	0031      	movs	r1, r6
    194a:	cf40      	ldmia	r7!, {r6}
    194c:	0030      	movs	r0, r6
    194e:	cf40      	ldmia	r7!, {r6}

00001950 <stype_addr_r0_len_r1>:
    1950:	b500      	push	{lr}
    1952:	2900      	cmp	r1, #0
    1954:	d008      	beq.n	1968 <stype_addr_r0_len_r1+0x18>
    1956:	2200      	movs	r2, #0
    1958:	3f04      	subs	r7, #4
    195a:	603e      	str	r6, [r7, #0]
    195c:	5c86      	ldrb	r6, [r0, r2]
    195e:	f7ff fd7b 	bl	1458 <Code_296>
    1962:	3201      	adds	r2, #1
    1964:	4291      	cmp	r1, r2
    1966:	d1f7      	bne.n	1958 <stype_addr_r0_len_r1+0x8>
    1968:	bd00      	pop	{pc}
    196a:	46c0      	nop			; (mov r8, r8)

0000196c <Dictionary_385>:
    196c:	000019a8 	andeq	r1, r0, r8, lsr #19
    1970:	68040000 	stmdavs	r4, {}	; <UNPREDICTABLE>
    1974:	002e7865 	eoreq	r7, lr, r5, ror #16

00001978 <Code_385>:
    1978:	b507      	push	{r0, r1, r2, lr}
    197a:	0031      	movs	r1, r6
    197c:	cf40      	ldmia	r7!, {r6}
    197e:	2020      	movs	r0, #32
    1980:	220f      	movs	r2, #15
    1982:	3804      	subs	r0, #4
    1984:	3f04      	subs	r7, #4
    1986:	603e      	str	r6, [r7, #0]
    1988:	000e      	movs	r6, r1
    198a:	40c6      	lsrs	r6, r0
    198c:	4016      	ands	r6, r2
    198e:	2e09      	cmp	r6, #9
    1990:	d901      	bls.n	1996 <Code_385+0x1e>
    1992:	3637      	adds	r6, #55	; 0x37
    1994:	e000      	b.n	1998 <Code_385+0x20>
    1996:	3630      	adds	r6, #48	; 0x30
    1998:	f7ff fd5e 	bl	1458 <Code_296>
    199c:	2800      	cmp	r0, #0
    199e:	d1f0      	bne.n	1982 <Code_385+0xa>
    19a0:	f7ff ff20 	bl	17e4 <Code_346>
    19a4:	bd07      	pop	{r0, r1, r2, pc}
    19a6:	46c0      	nop			; (mov r8, r8)

000019a8 <Dictionary_388>:
    19a8:	000019b8 			; <UNDEFINED> instruction: 0x000019b8
    19ac:	68030000 	stmdavs	r3, {}	; <UNPREDICTABLE>
    19b0:	b51f732e 	ldrlt	r7, [pc, #-814]	; 168a <Code_315+0x5c>

000019b2 <Code_388>:
    19b2:	b51f      	push	{r0, r1, r2, r3, r4, lr}
    19b4:	4c4f      	ldr	r4, [pc, #316]	; (1af4 <Code_401+0xa0>)
    19b6:	e00e      	b.n	19d6 <Code_390+0x4>

000019b8 <Dictionary_389>:
    19b8:	000019c8 	andeq	r1, r0, r8, asr #19
    19bc:	75030000 	strvc	r0, [r3]
    19c0:	b51f732e 	ldrlt	r7, [pc, #-814]	; 169a <Dictionary_319+0x2>

000019c2 <Code_389>:
    19c2:	b51f      	push	{r0, r1, r2, r3, r4, lr}
    19c4:	4c4c      	ldr	r4, [pc, #304]	; (1af8 <Code_401+0xa4>)
    19c6:	e006      	b.n	19d6 <Code_390+0x4>

000019c8 <Dictionary_390>:
    19c8:	00001a48 	andeq	r1, r0, r8, asr #20
    19cc:	2e020000 	cdpcs	0, 0, cr0, cr2, cr0, {0}
    19d0:	b51f0073 	ldrlt	r0, [pc, #-115]	; 1965 <stype_addr_r0_len_r1+0x15>

000019d2 <Code_390>:
    19d2:	b51f      	push	{r0, r1, r2, r3, r4, lr}
    19d4:	4c49      	ldr	r4, [pc, #292]	; (1afc <Code_401+0xa8>)
    19d6:	494a      	ldr	r1, [pc, #296]	; (1b00 <Code_401+0xac>)
    19d8:	1bc9      	subs	r1, r1, r7
    19da:	0889      	lsrs	r1, r1, #2
    19dc:	4a49      	ldr	r2, [pc, #292]	; (1b04 <Code_401+0xb0>)
    19de:	6810      	ldr	r0, [r2, #0]
    19e0:	b403      	push	{r0, r1}
    19e2:	200a      	movs	r0, #10
    19e4:	6010      	str	r0, [r2, #0]
    19e6:	f7ff ff4f 	bl	1888 <dotgaensefuesschen>
    19ea:	61745308 	cmnvs	r4, r8, lsl #6
    19ee:	203a6b63 	eorscs	r6, sl, r3, ror #22
    19f2:	3f04005b 	svccc	0x0004005b
    19f6:	603e      	str	r6, [r7, #0]
    19f8:	000e      	movs	r6, r1
    19fa:	f001 fc27 	bl	324c <Code_883>
    19fe:	f7ff ff43 	bl	1888 <dotgaensefuesschen>
    1a02:	00205d02 	eoreq	r5, r0, r2, lsl #26
    1a06:	bc03      	pop	{r0, r1}
    1a08:	4a3e      	ldr	r2, [pc, #248]	; (1b04 <Code_401+0xb0>)
    1a0a:	6010      	str	r0, [r2, #0]
    1a0c:	2900      	cmp	r1, #0
    1a0e:	d00a      	beq.n	1a26 <Code_390+0x54>
    1a10:	4a3d      	ldr	r2, [pc, #244]	; (1b08 <Code_401+0xb4>)
    1a12:	6810      	ldr	r0, [r2, #0]
    1a14:	b406      	push	{r1, r2}
    1a16:	3f04      	subs	r7, #4
    1a18:	603e      	str	r6, [r7, #0]
    1a1a:	0006      	movs	r6, r0
    1a1c:	47a0      	blx	r4
    1a1e:	bc06      	pop	{r1, r2}
    1a20:	3a04      	subs	r2, #4
    1a22:	3901      	subs	r1, #1
    1a24:	d1f5      	bne.n	1a12 <Code_390+0x40>
    1a26:	f7ff ff2f 	bl	1888 <dotgaensefuesschen>
    1a2a:	4f542006 	svcmi	0x00542006
    1a2e:	00203a53 	eoreq	r3, r0, r3, asr sl
    1a32:	3f04      	subs	r7, #4
    1a34:	603e      	str	r6, [r7, #0]
    1a36:	0036      	movs	r6, r6
    1a38:	47a0      	blx	r4
    1a3a:	f7ff ff25 	bl	1888 <dotgaensefuesschen>
    1a3e:	3e2a2004 	cdpcc	0, 2, cr2, cr10, cr4, {0}
    1a42:	bd1f000a 	ldclt	0, cr0, [pc, #-40]	; 1a20 <Code_390+0x4e>
    1a46:	46c0      	nop			; (mov r8, r8)

00001a48 <Dictionary_401>:
    1a48:	00001b0c 	andeq	r1, r0, ip, lsl #22
    1a4c:	77050000 	strvc	r0, [r5, -r0]
    1a50:	7364726f 	cmnvc	r4, #-268435450	; 0xf0000006

00001a54 <Code_401>:
    1a54:	b500      	push	{lr}
    1a56:	f7ff ff17 	bl	1888 <dotgaensefuesschen>
    1a5a:	f0000a01 			; <UNDEFINED> instruction: 0xf0000a01
    1a5e:	fe6f f7ff 	mcr2	7, 3, pc, cr15, cr15, {7}	; <UNPREDICTABLE>
    1a62:	ff12 4109 	vrhadd.u16	d4, d2, d9
    1a66:	65726464 	ldrbvs	r6, [r2, #-1124]!	; 0x464
    1a6a:	203a7373 	eorscs	r7, sl, r3, ror r3
    1a6e:	3f04      	subs	r7, #4
    1a70:	603e      	str	r6, [r7, #0]
    1a72:	f7ff ff81 	bl	1978 <Code_385>
    1a76:	f7ff ff07 	bl	1888 <dotgaensefuesschen>
    1a7a:	6e694c06 	cdpvs	12, 6, cr4, cr9, cr6, {0}
    1a7e:	00203a6b 	eoreq	r3, r0, fp, ror #20
    1a82:	3f04      	subs	r7, #4
    1a84:	603e      	str	r6, [r7, #0]
    1a86:	6836      	ldr	r6, [r6, #0]
    1a88:	f7ff ff76 	bl	1978 <Code_385>
    1a8c:	f7ff fefc 	bl	1888 <dotgaensefuesschen>
    1a90:	616c4607 	cmnvs	ip, r7, lsl #12
    1a94:	203a7367 	eorscs	r7, sl, r7, ror #6
    1a98:	3f04      	subs	r7, #4
    1a9a:	603e      	str	r6, [r7, #0]
    1a9c:	88b6      	ldrh	r6, [r6, #4]
    1a9e:	f7ff ff6b 	bl	1978 <Code_385>
    1aa2:	f7ff fef1 	bl	1888 <dotgaensefuesschen>
    1aa6:	646f4306 	strbtvs	r4, [pc], #-774	; 1aae <Code_401+0x5a>
    1aaa:	00203a65 	eoreq	r3, r0, r5, ror #20
    1aae:	1db0      	adds	r0, r6, #6
    1ab0:	f000 fe80 	bl	27b4 <skipstring>
    1ab4:	3f04      	subs	r7, #4
    1ab6:	603e      	str	r6, [r7, #0]
    1ab8:	0006      	movs	r6, r0
    1aba:	f7ff ff5d 	bl	1978 <Code_385>
    1abe:	f7ff fee3 	bl	1888 <dotgaensefuesschen>
    1ac2:	6d614e06 	stclvs	14, cr4, [r1, #-24]!	; 0xffffffe8
    1ac6:	00203a65 	eoreq	r3, r0, r5, ror #20
    1aca:	3f04      	subs	r7, #4
    1acc:	603e      	str	r6, [r7, #0]
    1ace:	3606      	adds	r6, #6
    1ad0:	f7ff ff26 	bl	1920 <Code_377>
    1ad4:	f7ff fed8 	bl	1888 <dotgaensefuesschen>
    1ad8:	f0000a01 			; <UNDEFINED> instruction: 0xf0000a01
    1adc:	fe48 0030 	mcr2	0, 2, r0, cr8, cr0, {1}
    1ae0:	cf40      	ldmia	r7!, {r6}
    1ae2:	d0bd      	beq.n	1a60 <Code_401+0xc>
    1ae4:	cf40      	ldmia	r7!, {r6}
    1ae6:	bd00      	pop	{pc}
    1ae8:	00001888 	andeq	r1, r0, r8, lsl #17
    1aec:	000018b6 			; <UNDEFINED> instruction: 0x000018b6
    1af0:	000018de 	ldrdeq	r1, [r0], -lr
    1af4:	00001979 	andeq	r1, r0, r9, ror r9
    1af8:	0000323b 	andeq	r3, r0, fp, lsr r2
    1afc:	0000324d 	andeq	r3, r0, sp, asr #4
    1b00:	20000230 	andcs	r0, r0, r0, lsr r2
    1b04:	20003ffc 	strdcs	r3, [r0], -ip
    1b08:	2000022c 	andcs	r0, r0, ip, lsr #4

00001b0c <Dictionary_421>:
    1b0c:	00001c5c 	andeq	r1, r0, ip, asr ip
    1b10:	72100000 	andsvc	r0, r0, #0
    1b14:	73696765 	cmnvc	r9, #26476544	; 0x1940000
    1b18:	6c726574 	cfldr64vs	mvdx6, [r2], #-464	; 0xfffffe30
    1b1c:	72657469 	rsbvc	r7, r5, #1761607680	; 0x69000000
    1b20:	002c6c61 	eoreq	r6, ip, r1, ror #24

00001b24 <Code_421>:
    1b24:	b53f      	push	{r0, r1, r2, r3, r4, r5, lr}
    1b26:	4ba6      	ldr	r3, [pc, #664]	; (1dc0 <Code_473+0x32>)
    1b28:	6838      	ldr	r0, [r7, #0]
    1b2a:	4018      	ands	r0, r3
    1b2c:	4298      	cmp	r0, r3
    1b2e:	d10f      	bne.n	1b50 <Code_421+0x2c>
    1b30:	6838      	ldr	r0, [r7, #0]
    1b32:	43c0      	mvns	r0, r0
    1b34:	6038      	str	r0, [r7, #0]
    1b36:	b440      	push	{r6}
    1b38:	f000 f80d 	bl	1b56 <registerliteralkomma_intern>
    1b3c:	3f04      	subs	r7, #4
    1b3e:	603e      	str	r6, [r7, #0]
    1b40:	4ea0      	ldr	r6, [pc, #640]	; (1dc4 <Code_473+0x36>)
    1b42:	bc01      	pop	{r0}
    1b44:	4306      	orrs	r6, r0
    1b46:	00c0      	lsls	r0, r0, #3
    1b48:	4306      	orrs	r6, r0
    1b4a:	f000 fb80 	bl	224e <Code_562>
    1b4e:	bd3f      	pop	{r0, r1, r2, r3, r4, r5, pc}
    1b50:	f000 f801 	bl	1b56 <registerliteralkomma_intern>
    1b54:	bd3f      	pop	{r0, r1, r2, r3, r4, r5, pc}

00001b56 <registerliteralkomma_intern>:
    1b56:	b500      	push	{lr}
    1b58:	0035      	movs	r5, r6
    1b5a:	cf40      	ldmia	r7!, {r6}
    1b5c:	0029      	movs	r1, r5
    1b5e:	00c9      	lsls	r1, r1, #3
    1b60:	4329      	orrs	r1, r5
    1b62:	022d      	lsls	r5, r5, #8
    1b64:	4898      	ldr	r0, [pc, #608]	; (1dc8 <Code_473+0x3a>)
    1b66:	4305      	orrs	r5, r0
    1b68:	23ff      	movs	r3, #255	; 0xff
    1b6a:	2200      	movs	r2, #0
    1b6c:	0030      	movs	r0, r6
    1b6e:	40d0      	lsrs	r0, r2
    1b70:	4398      	bics	r0, r3
    1b72:	d001      	beq.n	1b78 <registerliteralkomma_intern+0x22>
    1b74:	3201      	adds	r2, #1
    1b76:	e7f9      	b.n	1b6c <registerliteralkomma_intern+0x16>
    1b78:	0030      	movs	r0, r6
    1b7a:	40d0      	lsrs	r0, r2
    1b7c:	4018      	ands	r0, r3
    1b7e:	4328      	orrs	r0, r5
    1b80:	3f04      	subs	r7, #4
    1b82:	603e      	str	r6, [r7, #0]
    1b84:	0006      	movs	r6, r0
    1b86:	f000 fb62 	bl	224e <Code_562>
    1b8a:	4890      	ldr	r0, [pc, #576]	; (1dcc <Code_473+0x3e>)
    1b8c:	4305      	orrs	r5, r0
    1b8e:	0018      	movs	r0, r3
    1b90:	4090      	lsls	r0, r2
    1b92:	4386      	bics	r6, r0
    1b94:	d010      	beq.n	1bb8 <registerliteralkomma_intern+0x62>
    1b96:	2400      	movs	r4, #0
    1b98:	0030      	movs	r0, r6
    1b9a:	40e0      	lsrs	r0, r4
    1b9c:	4398      	bics	r0, r3
    1b9e:	d001      	beq.n	1ba4 <registerliteralkomma_intern+0x4e>
    1ba0:	3401      	adds	r4, #1
    1ba2:	e7f9      	b.n	1b98 <registerliteralkomma_intern+0x42>
    1ba4:	1b10      	subs	r0, r2, r4
    1ba6:	3f04      	subs	r7, #4
    1ba8:	603e      	str	r6, [r7, #0]
    1baa:	000e      	movs	r6, r1
    1bac:	0180      	lsls	r0, r0, #6
    1bae:	4306      	orrs	r6, r0
    1bb0:	f000 fb4d 	bl	224e <Code_562>
    1bb4:	0022      	movs	r2, r4
    1bb6:	e7df      	b.n	1b78 <registerliteralkomma_intern+0x22>
    1bb8:	2a00      	cmp	r2, #0
    1bba:	d006      	beq.n	1bca <registerliteralkomma_intern+0x74>
    1bbc:	3f04      	subs	r7, #4
    1bbe:	603e      	str	r6, [r7, #0]
    1bc0:	000e      	movs	r6, r1
    1bc2:	0192      	lsls	r2, r2, #6
    1bc4:	4316      	orrs	r6, r2
    1bc6:	f000 fb42 	bl	224e <Code_562>
    1bca:	cf40      	ldmia	r7!, {r6}
    1bcc:	bd00      	pop	{pc}

00001bce <registerliteralkommalang>:
    1bce:	b51f      	push	{r0, r1, r2, r3, r4, lr}
    1bd0:	0031      	movs	r1, r6
    1bd2:	cf40      	ldmia	r7!, {r6}
    1bd4:	4c7e      	ldr	r4, [pc, #504]	; (1dd0 <Code_473+0x42>)
    1bd6:	430c      	orrs	r4, r1
    1bd8:	00c9      	lsls	r1, r1, #3
    1bda:	430c      	orrs	r4, r1
    1bdc:	0149      	lsls	r1, r1, #5
    1bde:	0030      	movs	r0, r6
    1be0:	cf40      	ldmia	r7!, {r6}
    1be2:	0e02      	lsrs	r2, r0, #24
    1be4:	23ff      	movs	r3, #255	; 0xff
    1be6:	401a      	ands	r2, r3
    1be8:	4b77      	ldr	r3, [pc, #476]	; (1dc8 <Code_473+0x3a>)
    1bea:	430b      	orrs	r3, r1
    1bec:	4313      	orrs	r3, r2
    1bee:	3f04      	subs	r7, #4
    1bf0:	603e      	str	r6, [r7, #0]
    1bf2:	001e      	movs	r6, r3
    1bf4:	f000 fb2b 	bl	224e <Code_562>
    1bf8:	3f04      	subs	r7, #4
    1bfa:	603e      	str	r6, [r7, #0]
    1bfc:	0026      	movs	r6, r4
    1bfe:	f000 fb26 	bl	224e <Code_562>
    1c02:	0c02      	lsrs	r2, r0, #16
    1c04:	23ff      	movs	r3, #255	; 0xff
    1c06:	401a      	ands	r2, r3
    1c08:	4b72      	ldr	r3, [pc, #456]	; (1dd4 <Code_473+0x46>)
    1c0a:	430b      	orrs	r3, r1
    1c0c:	4313      	orrs	r3, r2
    1c0e:	3f04      	subs	r7, #4
    1c10:	603e      	str	r6, [r7, #0]
    1c12:	001e      	movs	r6, r3
    1c14:	f000 fb1b 	bl	224e <Code_562>
    1c18:	3f04      	subs	r7, #4
    1c1a:	603e      	str	r6, [r7, #0]
    1c1c:	0026      	movs	r6, r4
    1c1e:	f000 fb16 	bl	224e <Code_562>
    1c22:	0a02      	lsrs	r2, r0, #8
    1c24:	23ff      	movs	r3, #255	; 0xff
    1c26:	401a      	ands	r2, r3
    1c28:	4b6a      	ldr	r3, [pc, #424]	; (1dd4 <Code_473+0x46>)
    1c2a:	430b      	orrs	r3, r1
    1c2c:	4313      	orrs	r3, r2
    1c2e:	3f04      	subs	r7, #4
    1c30:	603e      	str	r6, [r7, #0]
    1c32:	001e      	movs	r6, r3
    1c34:	f000 fb0b 	bl	224e <Code_562>
    1c38:	3f04      	subs	r7, #4
    1c3a:	603e      	str	r6, [r7, #0]
    1c3c:	0026      	movs	r6, r4
    1c3e:	f000 fb06 	bl	224e <Code_562>
    1c42:	0002      	movs	r2, r0
    1c44:	23ff      	movs	r3, #255	; 0xff
    1c46:	401a      	ands	r2, r3
    1c48:	4b62      	ldr	r3, [pc, #392]	; (1dd4 <Code_473+0x46>)
    1c4a:	430b      	orrs	r3, r1
    1c4c:	4313      	orrs	r3, r2
    1c4e:	3f04      	subs	r7, #4
    1c50:	603e      	str	r6, [r7, #0]
    1c52:	001e      	movs	r6, r3
    1c54:	f000 fafb 	bl	224e <Code_562>
    1c58:	bd1f      	pop	{r0, r1, r2, r3, r4, pc}
    1c5a:	46c0      	nop			; (mov r8, r8)

00001c5c <Dictionary_448>:
    1c5c:	00001ccc 	andeq	r1, r0, ip, asr #25
    1c60:	63050000 	movwvs	r0, #20480	; 0x5000
    1c64:	2c6c6c61 	stclcs	12, cr6, [ip], #-388	; 0xfffffe7c

00001c68 <Code_448>:
    1c68:	b50f      	push	{r0, r1, r2, r3, lr}
    1c6a:	0033      	movs	r3, r6
    1c6c:	f000 fe3c 	bl	28e8 <Code_678>
    1c70:	0030      	movs	r0, r6
    1c72:	cf40      	ldmia	r7!, {r6}
    1c74:	1a1b      	subs	r3, r3, r0
    1c76:	3b04      	subs	r3, #4
    1c78:	4957      	ldr	r1, [pc, #348]	; (1dd8 <Code_473+0x4a>)
    1c7a:	4019      	ands	r1, r3
    1c7c:	2900      	cmp	r1, #0
    1c7e:	d00e      	beq.n	1c9e <Code_448+0x36>
    1c80:	4a56      	ldr	r2, [pc, #344]	; (1ddc <Code_473+0x4e>)
    1c82:	4291      	cmp	r1, r2
    1c84:	d00b      	beq.n	1c9e <Code_448+0x36>
    1c86:	3601      	adds	r6, #1
    1c88:	3f04      	subs	r7, #4
    1c8a:	603e      	str	r6, [r7, #0]
    1c8c:	2600      	movs	r6, #0
    1c8e:	f7ff ff49 	bl	1b24 <Code_421>
    1c92:	3f04      	subs	r7, #4
    1c94:	603e      	str	r6, [r7, #0]
    1c96:	4e52      	ldr	r6, [pc, #328]	; (1de0 <Code_473+0x52>)
    1c98:	f000 fad9 	bl	224e <Code_562>
    1c9c:	bd0f      	pop	{r0, r1, r2, r3, pc}
    1c9e:	cf40      	ldmia	r7!, {r6}
    1ca0:	085b      	lsrs	r3, r3, #1
    1ca2:	4850      	ldr	r0, [pc, #320]	; (1de4 <Code_473+0x56>)
    1ca4:	4950      	ldr	r1, [pc, #320]	; (1de8 <Code_473+0x5a>)
    1ca6:	4019      	ands	r1, r3
    1ca8:	4308      	orrs	r0, r1
    1caa:	0adb      	lsrs	r3, r3, #11
    1cac:	494f      	ldr	r1, [pc, #316]	; (1dec <Code_473+0x5e>)
    1cae:	4019      	ands	r1, r3
    1cb0:	0409      	lsls	r1, r1, #16
    1cb2:	4308      	orrs	r0, r1
    1cb4:	0a9b      	lsrs	r3, r3, #10
    1cb6:	2101      	movs	r1, #1
    1cb8:	4019      	ands	r1, r3
    1cba:	0689      	lsls	r1, r1, #26
    1cbc:	4308      	orrs	r0, r1
    1cbe:	3f04      	subs	r7, #4
    1cc0:	603e      	str	r6, [r7, #0]
    1cc2:	0006      	movs	r6, r0
    1cc4:	f000 faed 	bl	22a2 <Code_571>
    1cc8:	bd0f      	pop	{r0, r1, r2, r3, pc}
    1cca:	46c0      	nop			; (mov r8, r8)

00001ccc <Dictionary_457>:
    1ccc:	00001d00 	andeq	r1, r0, r0, lsl #26
    1cd0:	6c080000 	stcvs	0, cr0, [r8], {0}
    1cd4:	72657469 	rsbvc	r7, r5, #1761607680	; 0x69000000
    1cd8:	002c6c61 	eoreq	r6, ip, r1, ror #24

00001cdc <Code_457>:
    1cdc:	b500      	push	{lr}
    1cde:	3f04      	subs	r7, #4
    1ce0:	603e      	str	r6, [r7, #0]
    1ce2:	4e43      	ldr	r6, [pc, #268]	; (1df0 <Code_473+0x62>)
    1ce4:	f000 fab3 	bl	224e <Code_562>
    1ce8:	3f04      	subs	r7, #4
    1cea:	603e      	str	r6, [r7, #0]
    1cec:	4e41      	ldr	r6, [pc, #260]	; (1df4 <Code_473+0x66>)
    1cee:	f000 faae 	bl	224e <Code_562>
    1cf2:	3f04      	subs	r7, #4
    1cf4:	603e      	str	r6, [r7, #0]
    1cf6:	2606      	movs	r6, #6
    1cf8:	f7ff ff14 	bl	1b24 <Code_421>
    1cfc:	bd00      	pop	{pc}
    1cfe:	46c0      	nop			; (mov r8, r8)

00001d00 <Dictionary_464>:
    1d00:	00001d28 	andeq	r1, r0, r8, lsr #26
    1d04:	63060000 	movwvs	r0, #24576	; 0x6000
    1d08:	74616572 	strbtvc	r6, [r1], #-1394	; 0x572
    1d0c:	b5000065 	strlt	r0, [r0, #-101]	; 0x65

00001d0e <Code_464>:
    1d0e:	b500      	push	{lr}
    1d10:	f000 f83d 	bl	1d8e <Code_473>
    1d14:	201d      	movs	r0, #29
    1d16:	0200      	lsls	r0, r0, #8
    1d18:	3047      	adds	r0, #71	; 0x47
    1d1a:	4780      	blx	r0
    1d1c:	3f04      	subs	r7, #4
    1d1e:	603e      	str	r6, [r7, #0]
    1d20:	4676      	mov	r6, lr
    1d22:	3e01      	subs	r6, #1
    1d24:	bd00      	pop	{pc}
    1d26:	46c0      	nop			; (mov r8, r8)

00001d28 <Dictionary_466>:
    1d28:	00001d80 	andeq	r1, r0, r0, lsl #27
    1d2c:	64050020 	strvs	r0, [r5], #-32
    1d30:	3e73656f 	cdpcc	5, 7, cr6, cr3, cr15, {3}

00001d34 <Code_466>:
    1d34:	201d      	movs	r0, #29
    1d36:	0200      	lsls	r0, r0, #8
    1d38:	3047      	adds	r0, #71	; 0x47
    1d3a:	4780      	blx	r0
    1d3c:	3f04      	subs	r7, #4
    1d3e:	603e      	str	r6, [r7, #0]
    1d40:	4676      	mov	r6, lr
    1d42:	3e01      	subs	r6, #1
    1d44:	4770      	bx	lr

00001d46 <dodoes>:
    1d46:	3f04      	subs	r7, #4
    1d48:	603e      	str	r6, [r7, #0]
    1d4a:	4676      	mov	r6, lr
    1d4c:	3e01      	subs	r6, #1
    1d4e:	4a2a      	ldr	r2, [pc, #168]	; (1df8 <Code_473+0x6a>)
    1d50:	6813      	ldr	r3, [r2, #0]
    1d52:	492a      	ldr	r1, [pc, #168]	; (1dfc <Code_473+0x6e>)
    1d54:	6809      	ldr	r1, [r1, #0]
    1d56:	2002      	movs	r0, #2
    1d58:	4008      	ands	r0, r1
    1d5a:	d100      	bne.n	1d5e <dodoes+0x18>
    1d5c:	3102      	adds	r1, #2
    1d5e:	3102      	adds	r1, #2
    1d60:	6011      	str	r1, [r2, #0]
    1d62:	3601      	adds	r6, #1
    1d64:	3f04      	subs	r7, #4
    1d66:	603e      	str	r6, [r7, #0]
    1d68:	2600      	movs	r6, #0
    1d6a:	f7ff ff30 	bl	1bce <registerliteralkommalang>
    1d6e:	3f04      	subs	r7, #4
    1d70:	603e      	str	r6, [r7, #0]
    1d72:	4e1b      	ldr	r6, [pc, #108]	; (1de0 <Code_473+0x52>)
    1d74:	f000 fa6b 	bl	224e <Code_562>
    1d78:	6013      	str	r3, [r2, #0]
    1d7a:	f000 f9e0 	bl	213e <Code_549>
    1d7e:	bd00      	pop	{pc}

00001d80 <Dictionary_473>:
    1d80:	00001e04 	andeq	r1, r0, r4, lsl #28
    1d84:	3c070000 	stccc	0, cr0, [r7], {0}
    1d88:	6c697562 	cfstr64vs	mvdx7, [r9], #-392	; 0xfffffe78
    1d8c:	b5007364 	strlt	r7, [r0, #-868]	; 0x364

00001d8e <Code_473>:
    1d8e:	b500      	push	{lr}
    1d90:	f000 fb62 	bl	2458 <Code_593>
    1d94:	f000 fda8 	bl	28e8 <Code_678>
    1d98:	2002      	movs	r0, #2
    1d9a:	4006      	ands	r6, r0
    1d9c:	cf40      	ldmia	r7!, {r6}
    1d9e:	d104      	bne.n	1daa <Code_473+0x1c>
    1da0:	3f04      	subs	r7, #4
    1da2:	603e      	str	r6, [r7, #0]
    1da4:	2636      	movs	r6, #54	; 0x36
    1da6:	f000 fa52 	bl	224e <Code_562>
    1daa:	3f04      	subs	r7, #4
    1dac:	603e      	str	r6, [r7, #0]
    1dae:	4e14      	ldr	r6, [pc, #80]	; (1e00 <Code_473+0x72>)
    1db0:	f000 fa4d 	bl	224e <Code_562>
    1db4:	3f04      	subs	r7, #4
    1db6:	603e      	str	r6, [r7, #0]
    1db8:	2610      	movs	r6, #16
    1dba:	f000 fab5 	bl	2328 <Code_582>
    1dbe:	bd00      	pop	{pc}
    1dc0:	ffff0000 			; <UNDEFINED> instruction: 0xffff0000
    1dc4:	000043c0 	andeq	r4, r0, r0, asr #7
    1dc8:	00002000 	andeq	r2, r0, r0
    1dcc:	00001000 	andeq	r1, r0, r0
    1dd0:	00000200 	andeq	r0, r0, r0, lsl #4
    1dd4:	00003000 	andeq	r3, r0, r0
    1dd8:	ffc00001 			; <UNDEFINED> instruction: 0xffc00001
    1ddc:	ffc00000 			; <UNDEFINED> instruction: 0xffc00000
    1de0:	00004780 	andeq	r4, r0, r0, lsl #15
    1de4:	f000f800 			; <UNDEFINED> instruction: 0xf000f800
    1de8:	000007ff 	strdeq	r0, [r0], -pc	; <UNPREDICTABLE>
    1dec:	000003ff 	strdeq	r0, [r0], -pc	; <UNPREDICTABLE>
    1df0:	00003f04 	andeq	r3, r0, r4, lsl #30
    1df4:	0000603e 	andeq	r6, r0, lr, lsr r0
    1df8:	20000000 	andcs	r0, r0, r0
    1dfc:	20000014 	andcs	r0, r0, r4, lsl r0
    1e00:	0000b500 	andeq	fp, r0, r0, lsl #10

00001e04 <Dictionary_481>:
    1e04:	00001e10 	andeq	r1, r0, r0, lsl lr
    1e08:	5b030050 	blpl	c1f50 <BIT19+0x41f50>
    1e0c:	e0035d27 	and	r5, r3, r7, lsr #26

00001e0e <Code_481>:
    1e0e:	e003      	b.n	1e18 <Code_482>

00001e10 <Dictionary_482>:
    1e10:	00001e28 	andeq	r1, r0, r8, lsr #28
    1e14:	27010000 	strcs	r0, [r1, -r0]

00001e18 <Code_482>:
    1e18:	b500      	push	{lr}
    1e1a:	f001 f821 	bl	2e60 <Code_815>
    1e1e:	f000 fd08 	bl	2832 <find_not_found>
    1e22:	0030      	movs	r0, r6
    1e24:	cf40      	ldmia	r7!, {r6}
    1e26:	bd00      	pop	{pc}

00001e28 <Dictionary_484>:
    1e28:	00001e68 	andeq	r1, r0, r8, ror #28
    1e2c:	70080030 	andvc	r0, r8, r0, lsr r0
    1e30:	7074736f 	rsbsvc	r7, r4, pc, ror #6
    1e34:	00656e6f 	rsbeq	r6, r5, pc, ror #28

00001e38 <Code_484>:
    1e38:	b500      	push	{lr}
    1e3a:	f7ff ffed 	bl	1e18 <Code_482>
    1e3e:	2110      	movs	r1, #16
    1e40:	4001      	ands	r1, r0
    1e42:	d10d      	bne.n	1e60 <Code_484+0x28>
    1e44:	2120      	movs	r1, #32
    1e46:	4001      	ands	r1, r0
    1e48:	d005      	beq.n	1e56 <Code_484+0x1e>
    1e4a:	f7ff ff47 	bl	1cdc <Code_457>
    1e4e:	3f04      	subs	r7, #4
    1e50:	603e      	str	r6, [r7, #0]
    1e52:	4edf      	ldr	r6, [pc, #892]	; (21d0 <setflags_ram+0x1c>)
    1e54:	e004      	b.n	1e60 <Code_484+0x28>
    1e56:	f7ff ff41 	bl	1cdc <Code_457>
    1e5a:	3f04      	subs	r7, #4
    1e5c:	603e      	str	r6, [r7, #0]
    1e5e:	4edd      	ldr	r6, [pc, #884]	; (21d4 <setflags_ram+0x20>)
    1e60:	f7ff ff02 	bl	1c68 <Code_448>
    1e64:	bd00      	pop	{pc}
    1e66:	46c0      	nop			; (mov r8, r8)

00001e68 <Dictionary_487>:
    1e68:	00001eb4 			; <UNDEFINED> instruction: 0x00001eb4
    1e6c:	69070000 	stmdbvs	r7, {}	; <UNPREDICTABLE>
    1e70:	6e696c6e 	cdpvs	12, 6, cr6, cr9, cr14, {3}
    1e74:	b5002c65 	strlt	r2, [r0, #-3173]	; 0xc65

00001e76 <Code_487>:
    1e76:	b500      	push	{lr}
    1e78:	49d7      	ldr	r1, [pc, #860]	; (21d8 <setflags_ram+0x24>)
    1e7a:	4ad8      	ldr	r2, [pc, #864]	; (21dc <setflags_ram+0x28>)
    1e7c:	4bd8      	ldr	r3, [pc, #864]	; (21e0 <setflags_ram+0x2c>)
    1e7e:	8830      	ldrh	r0, [r6, #0]
    1e80:	4288      	cmp	r0, r1
    1e82:	d008      	beq.n	1e96 <Code_487+0x20>
    1e84:	4290      	cmp	r0, r2
    1e86:	d008      	beq.n	1e9a <Code_487+0x24>
    1e88:	4298      	cmp	r0, r3
    1e8a:	d006      	beq.n	1e9a <Code_487+0x24>
    1e8c:	3f04      	subs	r7, #4
    1e8e:	603e      	str	r6, [r7, #0]
    1e90:	0006      	movs	r6, r0
    1e92:	f000 f9dc 	bl	224e <Code_562>
    1e96:	3602      	adds	r6, #2
    1e98:	e7f1      	b.n	1e7e <Code_487+0x8>
    1e9a:	cf40      	ldmia	r7!, {r6}
    1e9c:	bd00      	pop	{pc}

00001e9e <suchedefinitionsende>:
    1e9e:	b40e      	push	{r1, r2, r3}
    1ea0:	4ace      	ldr	r2, [pc, #824]	; (21dc <setflags_ram+0x28>)
    1ea2:	4bcf      	ldr	r3, [pc, #828]	; (21e0 <setflags_ram+0x2c>)
    1ea4:	8801      	ldrh	r1, [r0, #0]
    1ea6:	3002      	adds	r0, #2
    1ea8:	4291      	cmp	r1, r2
    1eaa:	d001      	beq.n	1eb0 <suchedefinitionsende+0x12>
    1eac:	4299      	cmp	r1, r3
    1eae:	d1f9      	bne.n	1ea4 <suchedefinitionsende+0x6>
    1eb0:	bc0e      	pop	{r1, r2, r3}
    1eb2:	4770      	bx	lr

00001eb4 <Dictionary_491>:
    1eb4:	00001ec8 	andeq	r1, r0, r8, asr #29
    1eb8:	72040000 	andvc	r0, r4, #0
    1ebc:	002c7465 	eoreq	r7, ip, r5, ror #8

00001ec0 <Code_491>:
    1ec0:	3f04      	subs	r7, #4
    1ec2:	603e      	str	r6, [r7, #0]
    1ec4:	4ec5      	ldr	r6, [pc, #788]	; (21dc <setflags_ram+0x28>)
    1ec6:	e1c2      	b.n	224e <Code_562>

00001ec8 <Dictionary_494>:
    1ec8:	00001ed8 	ldrdeq	r1, [r0], -r8
    1ecc:	65040030 	strvs	r0, [r4, #-48]	; 0x30
    1ed0:	00746978 	rsbseq	r6, r4, r8, ror r9

00001ed4 <Code_494>:
    1ed4:	e7f4      	b.n	1ec0 <Code_491>
    1ed6:	46c0      	nop			; (mov r8, r8)

00001ed8 <Dictionary_495>:
    1ed8:	00001ef0 	strdeq	r1, [r0], -r0
    1edc:	72070030 	andvc	r0, r7, #48	; 0x30
    1ee0:	72756365 	rsbsvc	r6, r5, #-1811939327	; 0x94000001
    1ee4:	3f046573 	svccc	0x00046573

00001ee6 <Code_495>:
    1ee6:	3f04      	subs	r7, #4
    1ee8:	603e      	str	r6, [r7, #0]
    1eea:	4ebe      	ldr	r6, [pc, #760]	; (21e4 <setflags_ram+0x30>)
    1eec:	6836      	ldr	r6, [r6, #0]
    1eee:	e6bb      	b.n	1c68 <Code_448>

00001ef0 <Dictionary_497>:
    1ef0:	00001f08 	andeq	r1, r0, r8, lsl #30
    1ef4:	73050081 	movwvc	r0, #20609	; 0x5081
    1ef8:	65746174 	ldrbvs	r6, [r4, #-372]!	; 0x174

00001efc <Code_497>:
    1efc:	3f04      	subs	r7, #4
    1efe:	603e      	str	r6, [r7, #0]
    1f00:	4eb9      	ldr	r6, [pc, #740]	; (21e8 <setflags_ram+0x34>)
    1f02:	4770      	bx	lr
    1f04:	00000000 	andeq	r0, r0, r0

00001f08 <Dictionary_500>:
    1f08:	00001f1c 	andeq	r1, r0, ip, lsl pc
    1f0c:	5d010000 	stcpl	0, cr0, [r1]

00001f10 <Code_500>:
    1f10:	48b5      	ldr	r0, [pc, #724]	; (21e8 <setflags_ram+0x34>)
    1f12:	2100      	movs	r1, #0
    1f14:	43c9      	mvns	r1, r1
    1f16:	6001      	str	r1, [r0, #0]
    1f18:	4770      	bx	lr
    1f1a:	46c0      	nop			; (mov r8, r8)

00001f1c <Dictionary_501>:
    1f1c:	00001f2c 	andeq	r1, r0, ip, lsr #30
    1f20:	5b010010 	blpl	41f68 <BIT18+0x1f68>

00001f24 <Code_501>:
    1f24:	48b0      	ldr	r0, [pc, #704]	; (21e8 <setflags_ram+0x34>)
    1f26:	2100      	movs	r1, #0
    1f28:	6001      	str	r1, [r0, #0]
    1f2a:	4770      	bx	lr

00001f2c <Dictionary_502>:
    1f2c:	00001f54 	andeq	r1, r0, r4, asr pc
    1f30:	3a010000 	bcc	41f38 <BIT18+0x1f38>

00001f34 <Code_502>:
    1f34:	b500      	push	{lr}
    1f36:	48ad      	ldr	r0, [pc, #692]	; (21ec <setflags_ram+0x38>)
    1f38:	6007      	str	r7, [r0, #0]
    1f3a:	f000 fa8d 	bl	2458 <Code_593>
    1f3e:	3f04      	subs	r7, #4
    1f40:	603e      	str	r6, [r7, #0]
    1f42:	4ea5      	ldr	r6, [pc, #660]	; (21d8 <setflags_ram+0x24>)
    1f44:	f000 f983 	bl	224e <Code_562>
    1f48:	48a7      	ldr	r0, [pc, #668]	; (21e8 <setflags_ram+0x34>)
    1f4a:	2100      	movs	r1, #0
    1f4c:	43c9      	mvns	r1, r1
    1f4e:	6001      	str	r1, [r0, #0]
    1f50:	bd00      	pop	{pc}
    1f52:	46c0      	nop			; (mov r8, r8)

00001f54 <Dictionary_505>:
    1f54:	00001f9c 	muleq	r0, ip, pc	; <UNPREDICTABLE>
    1f58:	3b010030 	blcc	42020 <BIT18+0x2020>

00001f5c <Code_505>:
    1f5c:	b500      	push	{lr}
    1f5e:	48a3      	ldr	r0, [pc, #652]	; (21ec <setflags_ram+0x38>)
    1f60:	6801      	ldr	r1, [r0, #0]
    1f62:	42b9      	cmp	r1, r7
    1f64:	d00e      	beq.n	1f84 <Code_505+0x28>
    1f66:	f7ff fc8f 	bl	1888 <dotgaensefuesschen>
    1f6a:	74532015 	ldrbvc	r2, [r3], #-21
    1f6e:	206b6361 	rsbcs	r6, fp, r1, ror #6
    1f72:	20746f6e 	rsbscs	r6, r4, lr, ror #30
    1f76:	616c6162 	cmnvs	ip, r2, ror #2
    1f7a:	6465636e 	strbtvs	r6, [r5], #-878	; 0x36e
    1f7e:	f0010a2e 			; <UNDEFINED> instruction: 0xf0010a2e
    1f82:	fae0 3f04 			; <UNDEFINED> instruction: 0xfae03f04
    1f86:	603e      	str	r6, [r7, #0]
    1f88:	4e94      	ldr	r6, [pc, #592]	; (21dc <setflags_ram+0x28>)
    1f8a:	f000 f960 	bl	224e <Code_562>
    1f8e:	f000 f8d6 	bl	213e <Code_549>
    1f92:	4895      	ldr	r0, [pc, #596]	; (21e8 <setflags_ram+0x34>)
    1f94:	2100      	movs	r1, #0
    1f96:	6001      	str	r1, [r0, #0]
    1f98:	bd00      	pop	{pc}
    1f9a:	46c0      	nop			; (mov r8, r8)

00001f9c <Dictionary_509>:
    1f9c:	00001fb0 			; <UNDEFINED> instruction: 0x00001fb0
    1fa0:	65070000 	strvs	r0, [r7]
    1fa4:	75636578 	strbvc	r6, [r3, #-1400]!	; 0x578
    1fa8:	00306574 	eorseq	r6, r0, r4, ror r5

00001faa <Code_509>:
    1faa:	0030      	movs	r0, r6
    1fac:	cf40      	ldmia	r7!, {r6}
    1fae:	4687      	mov	pc, r0

00001fb0 <Dictionary_511>:
    1fb0:	00001fc8 	andeq	r1, r0, r8, asr #31
    1fb4:	69090010 	stmdbvs	r9, {r4}
    1fb8:	64656d6d 	strbtvs	r6, [r5], #-3437	; 0xd6d
    1fbc:	65746169 	ldrbvs	r6, [r4, #-361]!	; 0x169

00001fc0 <Code_511>:
    1fc0:	3f04      	subs	r7, #4
    1fc2:	603e      	str	r6, [r7, #0]
    1fc4:	2610      	movs	r6, #16
    1fc6:	e0e9      	b.n	219c <Code_555>

00001fc8 <Dictionary_514>:
    1fc8:	00001fe0 	andeq	r1, r0, r0, ror #31
    1fcc:	69060050 	stmdbvs	r6, {r4, r6}
    1fd0:	6e696c6e 	cdpvs	12, 6, cr6, cr9, cr14, {3}
    1fd4:	3f040065 	svccc	0x00040065

00001fd6 <Code_514>:
    1fd6:	3f04      	subs	r7, #4
    1fd8:	603e      	str	r6, [r7, #0]
    1fda:	2620      	movs	r6, #32
    1fdc:	e0de      	b.n	219c <Code_555>
    1fde:	46c0      	nop			; (mov r8, r8)

00001fe0 <Dictionary_517>:
    1fe0:	00001ffc 	strdeq	r1, [r0], -ip
    1fe4:	630b0010 	movwvs	r0, #45072	; 0xb010
    1fe8:	69706d6f 	ldmdbvs	r0!, {r0, r1, r2, r3, r5, r6, r8, sl, fp, sp, lr}^
    1fec:	6e6f656c 	cdpvs	5, 6, cr6, cr15, cr12, {3}
    1ff0:	3f04796c 	svccc	0x0004796c

00001ff2 <Code_517>:
    1ff2:	3f04      	subs	r7, #4
    1ff4:	603e      	str	r6, [r7, #0]
    1ff6:	2630      	movs	r6, #48	; 0x30
    1ff8:	e0d0      	b.n	219c <Code_555>
    1ffa:	46c0      	nop			; (mov r8, r8)

00001ffc <Dictionary_520>:
    1ffc:	00002018 	andeq	r2, r0, r8, lsl r0
    2000:	300a0050 	andcc	r0, sl, r0, asr r0
    2004:	6c6f662d 	stclvs	6, cr6, [pc], #-180	; 1f58 <Dictionary_505+0x4>
    2008:	6c626164 	stfvse	f6, [r2], #-400	; 0xfffffe70
    200c:	3f040065 	svccc	0x00040065

0000200e <Code_520>:
    200e:	3f04      	subs	r7, #4
    2010:	603e      	str	r6, [r7, #0]
    2012:	2640      	movs	r6, #64	; 0x40
    2014:	e0c2      	b.n	219c <Code_555>
    2016:	46c0      	nop			; (mov r8, r8)

00002018 <Dictionary_523>:
    2018:	00002034 	andeq	r2, r0, r4, lsr r0
    201c:	310a0050 	qaddcc	r0, r0, sl
    2020:	6c6f662d 	stclvs	6, cr6, [pc], #-180	; 1f74 <Code_505+0x18>
    2024:	6c626164 	stfvse	f6, [r2], #-400	; 0xfffffe70
    2028:	3f040065 	svccc	0x00040065

0000202a <Code_523>:
    202a:	3f04      	subs	r7, #4
    202c:	603e      	str	r6, [r7, #0]
    202e:	2641      	movs	r6, #65	; 0x41
    2030:	e0b4      	b.n	219c <Code_555>
    2032:	46c0      	nop			; (mov r8, r8)

00002034 <Dictionary_526>:
    2034:	00002050 	andeq	r2, r0, r0, asr r0
    2038:	320a0050 	andcc	r0, sl, #80	; 0x50
    203c:	6c6f662d 	stclvs	6, cr6, [pc], #-180	; 1f90 <Code_505+0x34>
    2040:	6c626164 	stfvse	f6, [r2], #-400	; 0xfffffe70
    2044:	3f040065 	svccc	0x00040065

00002046 <Code_526>:
    2046:	3f04      	subs	r7, #4
    2048:	603e      	str	r6, [r7, #0]
    204a:	2642      	movs	r6, #66	; 0x42
    204c:	e0a6      	b.n	219c <Code_555>
    204e:	46c0      	nop			; (mov r8, r8)

00002050 <Dictionary_529>:
    2050:	0000206c 	andeq	r2, r0, ip, rrx
    2054:	330a0050 	movwcc	r0, #41040	; 0xa050
    2058:	6c6f662d 	stclvs	6, cr6, [pc], #-180	; 1fac <Code_509+0x2>
    205c:	6c626164 	stfvse	f6, [r2], #-400	; 0xfffffe70
    2060:	3f040065 	svccc	0x00040065

00002062 <Code_529>:
    2062:	3f04      	subs	r7, #4
    2064:	603e      	str	r6, [r7, #0]
    2066:	2643      	movs	r6, #67	; 0x43
    2068:	e098      	b.n	219c <Code_555>
    206a:	46c0      	nop			; (mov r8, r8)

0000206c <Dictionary_532>:
    206c:	00002088 	andeq	r2, r0, r8, lsl #1
    2070:	340a0050 	strcc	r0, [sl], #-80	; 0x50
    2074:	6c6f662d 	stclvs	6, cr6, [pc], #-180	; 1fc8 <Dictionary_514>
    2078:	6c626164 	stfvse	f6, [r2], #-400	; 0xfffffe70
    207c:	3f040065 	svccc	0x00040065

0000207e <Code_532>:
    207e:	3f04      	subs	r7, #4
    2080:	603e      	str	r6, [r7, #0]
    2082:	2644      	movs	r6, #68	; 0x44
    2084:	e08a      	b.n	219c <Code_555>
    2086:	46c0      	nop			; (mov r8, r8)

00002088 <Dictionary_535>:
    2088:	000020a4 	andeq	r2, r0, r4, lsr #1
    208c:	350a0050 	strcc	r0, [sl, #-80]	; 0x50
    2090:	6c6f662d 	stclvs	6, cr6, [pc], #-180	; 1fe4 <Dictionary_517+0x4>
    2094:	6c626164 	stfvse	f6, [r2], #-400	; 0xfffffe70
    2098:	3f040065 	svccc	0x00040065

0000209a <Code_535>:
    209a:	3f04      	subs	r7, #4
    209c:	603e      	str	r6, [r7, #0]
    209e:	2645      	movs	r6, #69	; 0x45
    20a0:	e07c      	b.n	219c <Code_555>
    20a2:	46c0      	nop			; (mov r8, r8)

000020a4 <Dictionary_538>:
    20a4:	000020c0 	andeq	r2, r0, r0, asr #1
    20a8:	360a0050 			; <UNDEFINED> instruction: 0x360a0050
    20ac:	6c6f662d 	stclvs	6, cr6, [pc], #-180	; 2000 <BIT13>
    20b0:	6c626164 	stfvse	f6, [r2], #-400	; 0xfffffe70
    20b4:	3f040065 	svccc	0x00040065

000020b6 <Code_538>:
    20b6:	3f04      	subs	r7, #4
    20b8:	603e      	str	r6, [r7, #0]
    20ba:	2646      	movs	r6, #70	; 0x46
    20bc:	e06e      	b.n	219c <Code_555>
    20be:	46c0      	nop			; (mov r8, r8)

000020c0 <Dictionary_541>:
    20c0:	000020dc 	ldrdeq	r2, [r0], -ip
    20c4:	370a0050 	smlsdcc	sl, r0, r0, r0
    20c8:	6c6f662d 	stclvs	6, cr6, [pc], #-180	; 201c <Dictionary_523+0x4>
    20cc:	6c626164 	stfvse	f6, [r2], #-400	; 0xfffffe70
    20d0:	3f040065 	svccc	0x00040065

000020d2 <Code_541>:
    20d2:	3f04      	subs	r7, #4
    20d4:	603e      	str	r6, [r7, #0]
    20d6:	2647      	movs	r6, #71	; 0x47
    20d8:	e060      	b.n	219c <Code_555>
    20da:	46c0      	nop			; (mov r8, r8)

000020dc <Dictionary_544>:
    20dc:	0000210c 	andeq	r2, r0, ip, lsl #2
    20e0:	63080000 	movwvs	r0, #32768	; 0x8000
    20e4:	74736e6f 	ldrbtvc	r6, [r3], #-3695	; 0xe6f
    20e8:	00746e61 	rsbseq	r6, r4, r1, ror #28

000020ec <Code_544>:
    20ec:	b500      	push	{lr}
    20ee:	f000 f9b3 	bl	2458 <Code_593>
    20f2:	f7ff fdf3 	bl	1cdc <Code_457>
    20f6:	3f04      	subs	r7, #4
    20f8:	603e      	str	r6, [r7, #0]
    20fa:	4e39      	ldr	r6, [pc, #228]	; (21e0 <setflags_ram+0x2c>)
    20fc:	f000 f8a7 	bl	224e <Code_562>
    2100:	f7ff ff85 	bl	200e <Code_520>
    2104:	f000 f81b 	bl	213e <Code_549>
    2108:	bd00      	pop	{pc}
    210a:	46c0      	nop			; (mov r8, r8)

0000210c <Dictionary_547>:
    210c:	00002130 	andeq	r2, r0, r0, lsr r1
    2110:	32090000 	andcc	r0, r9, #0
    2114:	736e6f63 	cmnvc	lr, #396	; 0x18c
    2118:	746e6174 	strbtvc	r6, [lr], #-372	; 0x174

0000211c <Code_547>:
    211c:	b500      	push	{lr}
    211e:	f000 f99b 	bl	2458 <Code_593>
    2122:	6839      	ldr	r1, [r7, #0]
    2124:	603e      	str	r6, [r7, #0]
    2126:	460e      	mov	r6, r1
    2128:	f7ff fdd8 	bl	1cdc <Code_457>
    212c:	e7e1      	b.n	20f2 <Code_544+0x6>
    212e:	46c0      	nop			; (mov r8, r8)

00002130 <Dictionary_549>:
    2130:	0000218c 	andeq	r2, r0, ip, lsl #3
    2134:	73060000 	movwvc	r0, #24576	; 0x6000
    2138:	6764756d 	strbvs	r7, [r4, -sp, ror #10]!
    213c:	b5000065 	strlt	r0, [r0, #-101]	; 0x65

0000213e <Code_549>:
    213e:	b500      	push	{lr}
    2140:	482b      	ldr	r0, [pc, #172]	; (21f0 <setflags_ram+0x3c>)
    2142:	6801      	ldr	r1, [r0, #0]
    2144:	4a2a      	ldr	r2, [pc, #168]	; (21f0 <setflags_ram+0x3c>)
    2146:	4291      	cmp	r1, r2
    2148:	d21a      	bcs.n	2180 <smudge_ram>
    214a:	3902      	subs	r1, #2
    214c:	880a      	ldrh	r2, [r1, #0]
    214e:	4b29      	ldr	r3, [pc, #164]	; (21f4 <setflags_ram+0x40>)
    2150:	429a      	cmp	r2, r3
    2152:	d104      	bne.n	215e <Code_549+0x20>
    2154:	3f04      	subs	r7, #4
    2156:	603e      	str	r6, [r7, #0]
    2158:	4e27      	ldr	r6, [pc, #156]	; (21f8 <setflags_ram+0x44>)
    215a:	f000 f878 	bl	224e <Code_562>
    215e:	f000 f865 	bl	222c <Code_559>
    2162:	4826      	ldr	r0, [pc, #152]	; (21fc <setflags_ram+0x48>)
    2164:	6800      	ldr	r0, [r0, #0]
    2166:	3f04      	subs	r7, #4
    2168:	603e      	str	r6, [r7, #0]
    216a:	0006      	movs	r6, r0
    216c:	4924      	ldr	r1, [pc, #144]	; (2200 <setflags_ram+0x4c>)
    216e:	6809      	ldr	r1, [r1, #0]
    2170:	3104      	adds	r1, #4
    2172:	4a1f      	ldr	r2, [pc, #124]	; (21f0 <setflags_ram+0x3c>)
    2174:	6813      	ldr	r3, [r2, #0]
    2176:	6011      	str	r1, [r2, #0]
    2178:	f000 f869 	bl	224e <Code_562>
    217c:	6013      	str	r3, [r2, #0]
    217e:	bd00      	pop	{pc}

00002180 <smudge_ram>:
    2180:	f000 f854 	bl	222c <Code_559>
    2184:	3f04      	subs	r7, #4
    2186:	603e      	str	r6, [r7, #0]
    2188:	2600      	movs	r6, #0
    218a:	e008      	b.n	219e <setflags_intern>

0000218c <Dictionary_555>:
    218c:	00002204 	andeq	r2, r0, r4, lsl #4
    2190:	73080000 	movwvc	r0, #32768	; 0x8000
    2194:	6c667465 	cfstrdvs	mvd7, [r6], #-404	; 0xfffffe6c
    2198:	00736761 	rsbseq	r6, r3, r1, ror #14

0000219c <Code_555>:
    219c:	b500      	push	{lr}

0000219e <setflags_intern>:
    219e:	4814      	ldr	r0, [pc, #80]	; (21f0 <setflags_ram+0x3c>)
    21a0:	6801      	ldr	r1, [r0, #0]
    21a2:	4a13      	ldr	r2, [pc, #76]	; (21f0 <setflags_ram+0x3c>)
    21a4:	4291      	cmp	r1, r2
    21a6:	d205      	bcs.n	21b4 <setflags_ram>
    21a8:	4814      	ldr	r0, [pc, #80]	; (21fc <setflags_ram+0x48>)
    21aa:	6801      	ldr	r1, [r0, #0]
    21ac:	4331      	orrs	r1, r6
    21ae:	6001      	str	r1, [r0, #0]
    21b0:	cf40      	ldmia	r7!, {r6}
    21b2:	bd00      	pop	{pc}

000021b4 <setflags_ram>:
    21b4:	0032      	movs	r2, r6
    21b6:	cf40      	ldmia	r7!, {r6}
    21b8:	4811      	ldr	r0, [pc, #68]	; (2200 <setflags_ram+0x4c>)
    21ba:	6800      	ldr	r0, [r0, #0]
    21bc:	3004      	adds	r0, #4
    21be:	8801      	ldrh	r1, [r0, #0]
    21c0:	4b0c      	ldr	r3, [pc, #48]	; (21f4 <setflags_ram+0x40>)
    21c2:	4299      	cmp	r1, r3
    21c4:	d101      	bne.n	21ca <setflags_ram+0x16>
    21c6:	0011      	movs	r1, r2
    21c8:	e000      	b.n	21cc <setflags_ram+0x18>
    21ca:	4311      	orrs	r1, r2
    21cc:	8001      	strh	r1, [r0, #0]
    21ce:	bd00      	pop	{pc}
    21d0:	00001e76 	andeq	r1, r0, r6, ror lr
    21d4:	00001c68 	andeq	r1, r0, r8, ror #24
    21d8:	0000b500 	andeq	fp, r0, r0, lsl #10
    21dc:	0000bd00 	andeq	fp, r0, r0, lsl #26
    21e0:	00004770 	andeq	r4, r0, r0, ror r7
    21e4:	20000014 	andcs	r0, r0, r4, lsl r0
    21e8:	20003fd8 	ldrdcs	r3, [r0], -r8
    21ec:	20000010 	andcs	r0, r0, r0, lsl r0
    21f0:	20000000 	andcs	r0, r0, r0
    21f4:	0000ffff 	strdeq	pc, [r0], -pc	; <UNPREDICTABLE>
    21f8:	00000000 	andeq	r0, r0, r0
    21fc:	20000020 	andcs	r0, r0, r0, lsr #32
    2200:	20000004 	andcs	r0, r0, r4

00002204 <Dictionary_558>:
    2204:	00002220 	andeq	r2, r0, r0, lsr #4
    2208:	61070041 	tstvs	r7, r1, asr #32
    220c:	6e67696c 	cdpvs	9, 6, cr6, cr7, cr12, {3}
    2210:	20016465 	andcs	r6, r1, r5, ror #8

00002212 <Code_558>:
    2212:	2001      	movs	r0, #1
    2214:	4030      	ands	r0, r6
    2216:	1836      	adds	r6, r6, r0
    2218:	2002      	movs	r0, #2
    221a:	4030      	ands	r0, r6
    221c:	1836      	adds	r6, r6, r0
    221e:	4770      	bx	lr

00002220 <Dictionary_559>:
    2220:	00002244 	andeq	r2, r0, r4, asr #4
    2224:	61050000 	mrsvs	r0, (UNDEF: 5)
    2228:	6e67696c 	cdpvs	9, 6, cr6, cr7, cr12, {3}

0000222c <Code_559>:
    222c:	b500      	push	{lr}
    222e:	4880      	ldr	r0, [pc, #512]	; (2430 <Zweitpointertausch+0x4e>)
    2230:	6801      	ldr	r1, [r0, #0]
    2232:	2002      	movs	r0, #2
    2234:	4001      	ands	r1, r0
    2236:	d004      	beq.n	2242 <Code_559+0x16>
    2238:	3f04      	subs	r7, #4
    223a:	603e      	str	r6, [r7, #0]
    223c:	2600      	movs	r6, #0
    223e:	f000 f806 	bl	224e <Code_562>
    2242:	bd00      	pop	{pc}

00002244 <Dictionary_562>:
    2244:	0000227c 	andeq	r2, r0, ip, ror r2
    2248:	68020000 	stmdavs	r2, {}	; <UNPREDICTABLE>
    224c:	b50f002c 	strlt	r0, [pc, #-44]	; 2228 <Dictionary_559+0x8>

0000224e <Code_562>:
    224e:	b50f      	push	{r0, r1, r2, r3, lr}
    2250:	b2b6      	uxth	r6, r6
    2252:	4877      	ldr	r0, [pc, #476]	; (2430 <Zweitpointertausch+0x4e>)
    2254:	6801      	ldr	r1, [r0, #0]
    2256:	4a76      	ldr	r2, [pc, #472]	; (2430 <Zweitpointertausch+0x4e>)
    2258:	4291      	cmp	r1, r2
    225a:	d205      	bcs.n	2268 <hkomma_ram>
    225c:	3f04      	subs	r7, #4
    225e:	603e      	str	r6, [r7, #0]
    2260:	000e      	movs	r6, r1
    2262:	f7fe fe78 	bl	f56 <Code_222>
    2266:	e002      	b.n	226e <hkomma_fertig>

00002268 <hkomma_ram>:
    2268:	0032      	movs	r2, r6
    226a:	cf40      	ldmia	r7!, {r6}
    226c:	800a      	strh	r2, [r1, #0]

0000226e <hkomma_fertig>:
    226e:	3f04      	subs	r7, #4
    2270:	603e      	str	r6, [r7, #0]
    2272:	2602      	movs	r6, #2
    2274:	f000 f858 	bl	2328 <Code_582>
    2278:	bd0f      	pop	{r0, r1, r2, r3, pc}
    227a:	46c0      	nop			; (mov r8, r8)

0000227c <Dictionary_568>:
    227c:	00002298 	muleq	r0, r8, r2
    2280:	2c010000 	stccs	0, cr0, [r1], {0}

00002284 <Code_568>:
    2284:	b500      	push	{lr}
    2286:	3f04      	subs	r7, #4
    2288:	603e      	str	r6, [r7, #0]
    228a:	f7ff ffe0 	bl	224e <Code_562>
    228e:	0c36      	lsrs	r6, r6, #16
    2290:	f7ff ffdd 	bl	224e <Code_562>
    2294:	bd00      	pop	{pc}
    2296:	46c0      	nop			; (mov r8, r8)

00002298 <Dictionary_571>:
    2298:	000022b4 			; <UNDEFINED> instruction: 0x000022b4
    229c:	3e030000 	cdpcc	0, 0, cr0, cr3, cr0, {0}
    22a0:	b5002c3c 	strlt	r2, [r0, #-3132]	; 0xc3c

000022a2 <Code_571>:
    22a2:	b500      	push	{lr}
    22a4:	3f04      	subs	r7, #4
    22a6:	603e      	str	r6, [r7, #0]
    22a8:	0c36      	lsrs	r6, r6, #16
    22aa:	f7ff ffd0 	bl	224e <Code_562>
    22ae:	f7ff ffce 	bl	224e <Code_562>
    22b2:	bd00      	pop	{pc}

000022b4 <Dictionary_574>:
    22b4:	0000231c 	andeq	r2, r0, ip, lsl r3
    22b8:	73070000 	movwvc	r0, #28672	; 0x7000
    22bc:	6e697274 	mcrvs	2, 3, r7, cr9, cr4, {3}
    22c0:	b5072c67 	strlt	r2, [r7, #-3175]	; 0xc67

000022c2 <Code_574>:
    22c2:	b507      	push	{r0, r1, r2, lr}
    22c4:	21ff      	movs	r1, #255	; 0xff
    22c6:	4031      	ands	r1, r6
    22c8:	cf40      	ldmia	r7!, {r6}
    22ca:	0030      	movs	r0, r6
    22cc:	cf40      	ldmia	r7!, {r6}
    22ce:	2900      	cmp	r1, #0
    22d0:	d105      	bne.n	22de <Code_574+0x1c>
    22d2:	3f04      	subs	r7, #4
    22d4:	603e      	str	r6, [r7, #0]
    22d6:	2600      	movs	r6, #0
    22d8:	f7ff ffb9 	bl	224e <Code_562>
    22dc:	bd07      	pop	{r0, r1, r2, pc}
    22de:	3f04      	subs	r7, #4
    22e0:	603e      	str	r6, [r7, #0]
    22e2:	7806      	ldrb	r6, [r0, #0]
    22e4:	0236      	lsls	r6, r6, #8
    22e6:	430e      	orrs	r6, r1
    22e8:	f7ff ffb1 	bl	224e <Code_562>
    22ec:	3001      	adds	r0, #1
    22ee:	3901      	subs	r1, #1
    22f0:	2902      	cmp	r1, #2
    22f2:	d30a      	bcc.n	230a <Code_574+0x48>
    22f4:	3f04      	subs	r7, #4
    22f6:	603e      	str	r6, [r7, #0]
    22f8:	7846      	ldrb	r6, [r0, #1]
    22fa:	0236      	lsls	r6, r6, #8
    22fc:	7802      	ldrb	r2, [r0, #0]
    22fe:	4316      	orrs	r6, r2
    2300:	f7ff ffa5 	bl	224e <Code_562>
    2304:	3002      	adds	r0, #2
    2306:	3902      	subs	r1, #2
    2308:	e7f2      	b.n	22f0 <Code_574+0x2e>
    230a:	2900      	cmp	r1, #0
    230c:	d100      	bne.n	2310 <Code_574+0x4e>
    230e:	bd07      	pop	{r0, r1, r2, pc}
    2310:	3f04      	subs	r7, #4
    2312:	603e      	str	r6, [r7, #0]
    2314:	7806      	ldrb	r6, [r0, #0]
    2316:	f7ff ff9a 	bl	224e <Code_562>
    231a:	bd07      	pop	{r0, r1, r2, pc}

0000231c <Dictionary_582>:
    231c:	00002378 	andeq	r2, r0, r8, ror r3
    2320:	61050000 	mrsvs	r0, (UNDEF: 5)
    2324:	746f6c6c 	strbtvc	r6, [pc], #-3180	; 232c <Code_582+0x4>

00002328 <Code_582>:
    2328:	4841      	ldr	r0, [pc, #260]	; (2430 <Zweitpointertausch+0x4e>)
    232a:	6801      	ldr	r1, [r0, #0]
    232c:	4a40      	ldr	r2, [pc, #256]	; (2430 <Zweitpointertausch+0x4e>)
    232e:	4291      	cmp	r1, r2
    2330:	d20f      	bcs.n	2352 <allot_ram>
    2332:	0032      	movs	r2, r6
    2334:	cf40      	ldmia	r7!, {r6}
    2336:	1889      	adds	r1, r1, r2
    2338:	4a3e      	ldr	r2, [pc, #248]	; (2434 <Zweitpointertausch+0x52>)
    233a:	4291      	cmp	r1, r2
    233c:	d319      	bcc.n	2372 <allot_ok>
    233e:	f7ff faa3 	bl	1888 <dotgaensefuesschen>
    2342:	616c460b 	cmnvs	ip, fp, lsl #12
    2346:	66206873 			; <UNDEFINED> instruction: 0x66206873
    234a:	0a6c6c75 	beq	1b1d526 <BIT24+0xb1d526>
    234e:	f001 f8f9 	bl	3544 <Code_938>

00002352 <allot_ram>:
    2352:	0032      	movs	r2, r6
    2354:	cf40      	ldmia	r7!, {r6}
    2356:	1889      	adds	r1, r1, r2
    2358:	4a37      	ldr	r2, [pc, #220]	; (2438 <Zweitpointertausch+0x56>)
    235a:	6812      	ldr	r2, [r2, #0]
    235c:	4291      	cmp	r1, r2
    235e:	d308      	bcc.n	2372 <allot_ok>
    2360:	f7ff fa92 	bl	1888 <dotgaensefuesschen>
    2364:	6d615209 	sfmvs	f5, 2, [r1, #-36]!	; 0xffffffdc
    2368:	6c756620 	ldclvs	6, cr6, [r5], #-128	; 0xffffff80
    236c:	f0010a6c 			; <UNDEFINED> instruction: 0xf0010a6c
    2370:	f8e9 6001 	str??.w	r6, [r9, #1]

00002372 <allot_ok>:
    2372:	6001      	str	r1, [r0, #0]
    2374:	4770      	bx	lr
    2376:	46c0      	nop			; (mov r8, r8)

00002378 <Dictionary_587>:
    2378:	000023a0 	andeq	r2, r0, r0, lsr #7
    237c:	630d0000 	movwvs	r0, #53248	; 0xd000
    2380:	69706d6f 	ldmdbvs	r0!, {r0, r1, r2, r3, r5, r6, r8, sl, fp, sp, lr}^
    2384:	6f74656c 	svcvs	0x0074656c
    2388:	3f6d6172 	svccc	0x006d6172

0000238c <Code_587>:
    238c:	3f04      	subs	r7, #4
    238e:	603e      	str	r6, [r7, #0]
    2390:	2600      	movs	r6, #0
    2392:	4827      	ldr	r0, [pc, #156]	; (2430 <Zweitpointertausch+0x4e>)
    2394:	6800      	ldr	r0, [r0, #0]
    2396:	4926      	ldr	r1, [pc, #152]	; (2430 <Zweitpointertausch+0x4e>)
    2398:	4288      	cmp	r0, r1
    239a:	d348      	bcc.n	242e <Zweitpointertausch+0x4c>
    239c:	43f6      	mvns	r6, r6
    239e:	4770      	bx	lr

000023a0 <Dictionary_590>:
    23a0:	000023c0 	andeq	r2, r0, r0, asr #7
    23a4:	630c0000 	movwvs	r0, #49152	; 0xc000
    23a8:	69706d6f 	ldmdbvs	r0!, {r0, r1, r2, r3, r5, r6, r8, sl, fp, sp, lr}^
    23ac:	6f74656c 	svcvs	0x0074656c
    23b0:	006d6172 	rsbeq	r6, sp, r2, ror r1

000023b4 <Code_590>:
    23b4:	481e      	ldr	r0, [pc, #120]	; (2430 <Zweitpointertausch+0x4e>)
    23b6:	6800      	ldr	r0, [r0, #0]
    23b8:	491d      	ldr	r1, [pc, #116]	; (2430 <Zweitpointertausch+0x4e>)
    23ba:	4288      	cmp	r0, r1
    23bc:	d311      	bcc.n	23e2 <Zweitpointertausch>
    23be:	4770      	bx	lr

000023c0 <Dictionary_591>:
    23c0:	00002448 	andeq	r2, r0, r8, asr #8
    23c4:	630e0000 	movwvs	r0, #57344	; 0xe000
    23c8:	69706d6f 	ldmdbvs	r0!, {r0, r1, r2, r3, r5, r6, r8, sl, fp, sp, lr}^
    23cc:	6f74656c 	svcvs	0x0074656c
    23d0:	73616c66 	cmnvc	r1, #26112	; 0x6600
    23d4:	48160068 	ldmdami	r6, {r3, r5, r6}

000023d6 <Code_591>:
    23d6:	4816      	ldr	r0, [pc, #88]	; (2430 <Zweitpointertausch+0x4e>)
    23d8:	6800      	ldr	r0, [r0, #0]
    23da:	4915      	ldr	r1, [pc, #84]	; (2430 <Zweitpointertausch+0x4e>)
    23dc:	4288      	cmp	r0, r1
    23de:	d200      	bcs.n	23e2 <Zweitpointertausch>
    23e0:	4770      	bx	lr

000023e2 <Zweitpointertausch>:
    23e2:	4816      	ldr	r0, [pc, #88]	; (243c <Zweitpointertausch+0x5a>)
    23e4:	4916      	ldr	r1, [pc, #88]	; (2440 <Zweitpointertausch+0x5e>)
    23e6:	6802      	ldr	r2, [r0, #0]
    23e8:	680b      	ldr	r3, [r1, #0]
    23ea:	600a      	str	r2, [r1, #0]
    23ec:	6003      	str	r3, [r0, #0]
    23ee:	4810      	ldr	r0, [pc, #64]	; (2430 <Zweitpointertausch+0x4e>)
    23f0:	4914      	ldr	r1, [pc, #80]	; (2444 <Zweitpointertausch+0x62>)
    23f2:	6802      	ldr	r2, [r0, #0]
    23f4:	680b      	ldr	r3, [r1, #0]
    23f6:	600a      	str	r2, [r1, #0]
    23f8:	6003      	str	r3, [r0, #0]
    23fa:	480f      	ldr	r0, [pc, #60]	; (2438 <Zweitpointertausch+0x56>)
    23fc:	6800      	ldr	r0, [r0, #0]
    23fe:	4283      	cmp	r3, r0
    2400:	d315      	bcc.n	242e <Zweitpointertausch+0x4c>
    2402:	b500      	push	{lr}
    2404:	f7ff fa40 	bl	1888 <dotgaensefuesschen>
    2408:	61562023 	cmpvs	r6, r3, lsr #32
    240c:	62616972 	rsbvs	r6, r1, #1867776	; 0x1c8000
    2410:	2073656c 	rsbscs	r6, r3, ip, ror #10
    2414:	6c6c6f63 	stclvs	15, cr6, [ip], #-396	; 0xfffffe74
    2418:	20656469 	rsbcs	r6, r5, r9, ror #8
    241c:	68746977 	ldmdavs	r4!, {r0, r1, r2, r4, r5, r6, r8, fp, sp, lr}^
    2420:	63696420 	cmnvs	r9, #536870912	; 0x20000000
    2424:	6e6f6974 	mcrvs	9, 3, r6, cr15, cr4, {3}
    2428:	0a797261 	beq	1e5edb4 <BAUD115200+0xe0db4>
    242c:	bd00      	pop	{pc}
    242e:	4770      	bx	lr
    2430:	20000000 	andcs	r0, r0, r0
    2434:	00040000 	andeq	r0, r4, r0
    2438:	20000024 	andcs	r0, r0, r4, lsr #32
    243c:	20000004 	andcs	r0, r0, r4
    2440:	2000001c 	andcs	r0, r0, ip, lsl r0
    2444:	20000018 	andcs	r0, r0, r8, lsl r0

00002448 <Dictionary_593>:
    2448:	00002534 	andeq	r2, r0, r4, lsr r5
    244c:	28080000 	stmdacs	r8, {}	; <UNPREDICTABLE>
    2450:	61657263 	cmnvs	r5, r3, ror #4
    2454:	00296574 	eoreq	r6, r9, r4, ror r5

00002458 <Code_593>:
    2458:	b500      	push	{lr}
    245a:	f000 fd01 	bl	2e60 <Code_815>
    245e:	2e00      	cmp	r6, #0
    2460:	d10e      	bne.n	2480 <Code_593+0x28>
    2462:	f7ff fa11 	bl	1888 <dotgaensefuesschen>
    2466:	72432015 	subvc	r2, r3, #21
    246a:	65746165 	ldrbvs	r6, [r4, #-357]!	; 0x165
    246e:	65656e20 	strbvs	r6, [r5, #-3616]!	; 0xe20
    2472:	6e207364 	cdpvs	3, 2, cr7, cr0, cr4, {3}
    2476:	20656d61 	rsbcs	r6, r5, r1, ror #26
    247a:	f0010a21 			; <UNDEFINED> instruction: 0xf0010a21
    247e:	f862 6838 	str??.w	r6, [r2, <undefined>]
    2482:	3f04      	subs	r7, #4
    2484:	603e      	str	r6, [r7, #0]
    2486:	3f04      	subs	r7, #4
    2488:	6038      	str	r0, [r7, #0]
    248a:	f000 f9a3 	bl	27d4 <Code_656>
    248e:	cf40      	ldmia	r7!, {r6}
    2490:	2e00      	cmp	r6, #0
    2492:	cf40      	ldmia	r7!, {r6}
    2494:	d011      	beq.n	24ba <Code_593+0x62>
    2496:	6838      	ldr	r0, [r7, #0]
    2498:	3f04      	subs	r7, #4
    249a:	603e      	str	r6, [r7, #0]
    249c:	3f04      	subs	r7, #4
    249e:	6038      	str	r0, [r7, #0]
    24a0:	f7ff f9f2 	bl	1888 <dotgaensefuesschen>
    24a4:	64655209 	strbtvs	r5, [r5], #-521	; 0x209
    24a8:	6e696665 	cdpvs	6, 6, cr6, cr9, cr5, {3}
    24ac:	f7ff2065 			; <UNDEFINED> instruction: 0xf7ff2065
    24b0:	fa4b f7ff 			; <UNDEFINED> instruction: 0xfa4bf7ff
    24b4:	f9e9 2e02 	vld3.8	{d18[]-d20[]}, [r9], r2
    24b8:	f7ff000a 			; <UNDEFINED> instruction: 0xf7ff000a
    24bc:	feb7 f000 	cdp2	0, 11, cr15, cr7, cr0, {0}
    24c0:	fa13 488d 			; <UNDEFINED> instruction: 0xfa13488d
    24c4:	6800      	ldr	r0, [r0, #0]
    24c6:	498c      	ldr	r1, [pc, #560]	; (26f8 <rambuffer_ram+0x44>)
    24c8:	4288      	cmp	r0, r1
    24ca:	d21c      	bcs.n	2506 <create_ram>
    24cc:	488b      	ldr	r0, [pc, #556]	; (26fc <rambuffer_ram+0x48>)
    24ce:	2100      	movs	r1, #0
    24d0:	6001      	str	r1, [r0, #0]
    24d2:	3f04      	subs	r7, #4
    24d4:	603e      	str	r6, [r7, #0]
    24d6:	2606      	movs	r6, #6
    24d8:	f7ff ff26 	bl	2328 <Code_582>
    24dc:	f7fe f9c6 	bl	86c <Code_133>
    24e0:	f7ff feef 	bl	22c2 <Code_574>
    24e4:	4886      	ldr	r0, [pc, #536]	; (2700 <rambuffer_ram+0x4c>)
    24e6:	6801      	ldr	r1, [r0, #0]
    24e8:	680a      	ldr	r2, [r1, #0]
    24ea:	4b86      	ldr	r3, [pc, #536]	; (2704 <rambuffer_ram+0x50>)
    24ec:	429a      	cmp	r2, r3
    24ee:	d107      	bne.n	2500 <Code_593+0xa8>
    24f0:	4a81      	ldr	r2, [pc, #516]	; (26f8 <rambuffer_ram+0x44>)
    24f2:	6813      	ldr	r3, [r2, #0]
    24f4:	6011      	str	r1, [r2, #0]
    24f6:	3f04      	subs	r7, #4
    24f8:	603e      	str	r6, [r7, #0]
    24fa:	f7ff fec3 	bl	2284 <Code_568>
    24fe:	6013      	str	r3, [r2, #0]
    2500:	6006      	str	r6, [r0, #0]
    2502:	cf40      	ldmia	r7!, {r6}
    2504:	e010      	b.n	2528 <create_ende>

00002506 <create_ram>:
    2506:	487e      	ldr	r0, [pc, #504]	; (2700 <rambuffer_ram+0x4c>)
    2508:	3f04      	subs	r7, #4
    250a:	603e      	str	r6, [r7, #0]
    250c:	6806      	ldr	r6, [r0, #0]
    250e:	f7ff feb9 	bl	2284 <Code_568>
    2512:	3f04      	subs	r7, #4
    2514:	603e      	str	r6, [r7, #0]
    2516:	4e7c      	ldr	r6, [pc, #496]	; (2708 <rambuffer_ram+0x54>)
    2518:	f7ff fe99 	bl	224e <Code_562>
    251c:	4878      	ldr	r0, [pc, #480]	; (2700 <rambuffer_ram+0x4c>)
    251e:	0031      	movs	r1, r6
    2520:	cf40      	ldmia	r7!, {r6}
    2522:	6001      	str	r1, [r0, #0]
    2524:	f7ff fecd 	bl	22c2 <Code_574>

00002528 <create_ende>:
    2528:	4873      	ldr	r0, [pc, #460]	; (26f8 <rambuffer_ram+0x44>)
    252a:	6801      	ldr	r1, [r0, #0]
    252c:	4877      	ldr	r0, [pc, #476]	; (270c <rambuffer_ram+0x58>)
    252e:	6001      	str	r1, [r0, #0]
    2530:	bd00      	pop	{pc}
    2532:	46c0      	nop			; (mov r8, r8)

00002534 <Dictionary_611>:
    2534:	0000254c 	andeq	r2, r0, ip, asr #10
    2538:	76080000 	strvc	r0, [r8], -r0
    253c:	61697261 	cmnvs	r9, r1, ror #4
    2540:	00656c62 	rsbeq	r6, r5, r2, ror #24

00002544 <Code_611>:
    2544:	3f04      	subs	r7, #4
    2546:	603e      	str	r6, [r7, #0]
    2548:	2601      	movs	r6, #1
    254a:	e013      	b.n	2574 <Code_617>

0000254c <Dictionary_614>:
    254c:	00002564 	andeq	r2, r0, r4, ror #10
    2550:	32090000 	andcc	r0, r9, #0
    2554:	69726176 	ldmdbvs	r2!, {r1, r2, r4, r5, r6, r8, sp, lr}^
    2558:	656c6261 	strbvs	r6, [ip, #-609]!	; 0x261

0000255c <Code_614>:
    255c:	3f04      	subs	r7, #4
    255e:	603e      	str	r6, [r7, #0]
    2560:	2602      	movs	r6, #2
    2562:	e007      	b.n	2574 <Code_617>

00002564 <Dictionary_617>:
    2564:	0000263c 	andeq	r2, r0, ip, lsr r6
    2568:	6e090000 	cdpvs	0, 0, cr0, cr9, cr0, {0}
    256c:	69726176 	ldmdbvs	r2!, {r1, r2, r4, r5, r6, r8, sp, lr}^
    2570:	656c6261 	strbvs	r6, [ip, #-609]!	; 0x261

00002574 <Code_617>:
    2574:	b500      	push	{lr}
    2576:	f7ff ff6f 	bl	2458 <Code_593>
    257a:	485f      	ldr	r0, [pc, #380]	; (26f8 <rambuffer_ram+0x44>)
    257c:	6801      	ldr	r1, [r0, #0]
    257e:	4a5e      	ldr	r2, [pc, #376]	; (26f8 <rambuffer_ram+0x44>)
    2580:	4291      	cmp	r1, r2
    2582:	d233      	bcs.n	25ec <variable_ram>
    2584:	200f      	movs	r0, #15
    2586:	4006      	ands	r6, r0
    2588:	00b2      	lsls	r2, r6, #2
    258a:	4861      	ldr	r0, [pc, #388]	; (2710 <rambuffer_ram+0x5c>)
    258c:	6801      	ldr	r1, [r0, #0]
    258e:	1a89      	subs	r1, r1, r2
    2590:	4a60      	ldr	r2, [pc, #384]	; (2714 <rambuffer_ram+0x60>)
    2592:	4291      	cmp	r1, r2
    2594:	d20b      	bcs.n	25ae <Code_617+0x3a>
    2596:	f7ff f977 	bl	1888 <dotgaensefuesschen>
    259a:	746f4e0f 	strbtvc	r4, [pc], #-3599	; 25a2 <Code_617+0x2e>
    259e:	6f6e6520 	svcvs	0x006e6520
    25a2:	20686775 	rsbcs	r6, r8, r5, ror r7
    25a6:	0a4d4152 	beq	1352af6 <BIT24+0x352af6>
    25aa:	f000 ffcb 	bl	3544 <Code_938>
    25ae:	6001      	str	r1, [r0, #0]
    25b0:	3f04      	subs	r7, #4
    25b2:	603e      	str	r6, [r7, #0]
    25b4:	000e      	movs	r6, r1
    25b6:	f7ff fb91 	bl	1cdc <Code_457>
    25ba:	3f04      	subs	r7, #4
    25bc:	603e      	str	r6, [r7, #0]
    25be:	4e56      	ldr	r6, [pc, #344]	; (2718 <rambuffer_ram+0x64>)
    25c0:	f7ff fe45 	bl	224e <Code_562>
    25c4:	0030      	movs	r0, r6
    25c6:	cf40      	ldmia	r7!, {r6}
    25c8:	0002      	movs	r2, r0
    25ca:	2800      	cmp	r0, #0
    25cc:	d005      	beq.n	25da <Code_617+0x66>
    25ce:	600e      	str	r6, [r1, #0]
    25d0:	3104      	adds	r1, #4
    25d2:	f7ff fe57 	bl	2284 <Code_568>
    25d6:	3801      	subs	r0, #1
    25d8:	d1f9      	bne.n	25ce <Code_617+0x5a>
    25da:	3f04      	subs	r7, #4
    25dc:	603e      	str	r6, [r7, #0]
    25de:	2680      	movs	r6, #128	; 0x80
    25e0:	4316      	orrs	r6, r2
    25e2:	f7ff fddb 	bl	219c <Code_555>
    25e6:	f7ff fdaa 	bl	213e <Code_549>
    25ea:	bd00      	pop	{pc}

000025ec <variable_ram>:
    25ec:	f000 f97c 	bl	28e8 <Code_678>
    25f0:	2002      	movs	r0, #2
    25f2:	4006      	ands	r6, r0
    25f4:	cf40      	ldmia	r7!, {r6}
    25f6:	d104      	bne.n	2602 <variable_ram+0x16>
    25f8:	3f04      	subs	r7, #4
    25fa:	603e      	str	r6, [r7, #0]
    25fc:	2636      	movs	r6, #54	; 0x36
    25fe:	f7ff fe26 	bl	224e <Code_562>
    2602:	3f04      	subs	r7, #4
    2604:	603e      	str	r6, [r7, #0]
    2606:	4e45      	ldr	r6, [pc, #276]	; (271c <rambuffer_ram+0x68>)
    2608:	f7ff fe4b 	bl	22a2 <Code_571>
    260c:	3f04      	subs	r7, #4
    260e:	603e      	str	r6, [r7, #0]
    2610:	4e43      	ldr	r6, [pc, #268]	; (2720 <rambuffer_ram+0x6c>)
    2612:	f7ff fe46 	bl	22a2 <Code_571>
    2616:	3f04      	subs	r7, #4
    2618:	603e      	str	r6, [r7, #0]
    261a:	4e3f      	ldr	r6, [pc, #252]	; (2718 <rambuffer_ram+0x64>)
    261c:	f7ff fe17 	bl	224e <Code_562>
    2620:	0030      	movs	r0, r6
    2622:	cf40      	ldmia	r7!, {r6}
    2624:	2800      	cmp	r0, #0
    2626:	d003      	beq.n	2630 <variable_ram+0x44>
    2628:	f7ff fe2c 	bl	2284 <Code_568>
    262c:	3801      	subs	r0, #1
    262e:	d1fb      	bne.n	2628 <variable_ram+0x3c>
    2630:	f7ff fced 	bl	200e <Code_520>
    2634:	f7ff fd83 	bl	213e <Code_549>
    2638:	bd00      	pop	{pc}
    263a:	46c0      	nop			; (mov r8, r8)

0000263c <Dictionary_634>:
    263c:	00002728 	andeq	r2, r0, r8, lsr #14
    2640:	62070000 	andvs	r0, r7, #0
    2644:	65666675 	strbvs	r6, [r6, #-1653]!	; 0x675
    2648:	b5003a72 	strlt	r3, [r0, #-2674]	; 0xa72

0000264a <Code_634>:
    264a:	b500      	push	{lr}
    264c:	f7ff ff04 	bl	2458 <Code_593>
    2650:	2001      	movs	r0, #1
    2652:	4030      	ands	r0, r6
    2654:	1836      	adds	r6, r6, r0
    2656:	2002      	movs	r0, #2
    2658:	4030      	ands	r0, r6
    265a:	1836      	adds	r6, r6, r0
    265c:	4826      	ldr	r0, [pc, #152]	; (26f8 <rambuffer_ram+0x44>)
    265e:	6801      	ldr	r1, [r0, #0]
    2660:	4a25      	ldr	r2, [pc, #148]	; (26f8 <rambuffer_ram+0x44>)
    2662:	4291      	cmp	r1, r2
    2664:	d226      	bcs.n	26b4 <rambuffer_ram>
    2666:	482a      	ldr	r0, [pc, #168]	; (2710 <rambuffer_ram+0x5c>)
    2668:	6801      	ldr	r1, [r0, #0]
    266a:	1b89      	subs	r1, r1, r6
    266c:	4a29      	ldr	r2, [pc, #164]	; (2714 <rambuffer_ram+0x60>)
    266e:	4291      	cmp	r1, r2
    2670:	d20b      	bcs.n	268a <Code_634+0x40>
    2672:	f7ff f909 	bl	1888 <dotgaensefuesschen>
    2676:	746f4e0f 	strbtvc	r4, [pc], #-3599	; 267e <Code_634+0x34>
    267a:	6f6e6520 	svcvs	0x006e6520
    267e:	20686775 	rsbcs	r6, r8, r5, ror r7
    2682:	0a4d4152 	beq	1352bd2 <BIT24+0x352bd2>
    2686:	f000 ff5d 	bl	3544 <Code_938>
    268a:	6001      	str	r1, [r0, #0]
    268c:	3f04      	subs	r7, #4
    268e:	603e      	str	r6, [r7, #0]
    2690:	000e      	movs	r6, r1
    2692:	f7ff fb23 	bl	1cdc <Code_457>
    2696:	3f04      	subs	r7, #4
    2698:	603e      	str	r6, [r7, #0]
    269a:	4e1f      	ldr	r6, [pc, #124]	; (2718 <rambuffer_ram+0x64>)
    269c:	f7ff fdd7 	bl	224e <Code_562>
    26a0:	f7ff fdf0 	bl	2284 <Code_568>
    26a4:	3f04      	subs	r7, #4
    26a6:	603e      	str	r6, [r7, #0]
    26a8:	4e1e      	ldr	r6, [pc, #120]	; (2724 <rambuffer_ram+0x70>)
    26aa:	f7ff fd77 	bl	219c <Code_555>
    26ae:	f7ff fd46 	bl	213e <Code_549>
    26b2:	bd00      	pop	{pc}

000026b4 <rambuffer_ram>:
    26b4:	f000 f918 	bl	28e8 <Code_678>
    26b8:	2002      	movs	r0, #2
    26ba:	4006      	ands	r6, r0
    26bc:	cf40      	ldmia	r7!, {r6}
    26be:	d104      	bne.n	26ca <rambuffer_ram+0x16>
    26c0:	3f04      	subs	r7, #4
    26c2:	603e      	str	r6, [r7, #0]
    26c4:	2636      	movs	r6, #54	; 0x36
    26c6:	f7ff fdc2 	bl	224e <Code_562>
    26ca:	3f04      	subs	r7, #4
    26cc:	603e      	str	r6, [r7, #0]
    26ce:	4e13      	ldr	r6, [pc, #76]	; (271c <rambuffer_ram+0x68>)
    26d0:	f7ff fde7 	bl	22a2 <Code_571>
    26d4:	3f04      	subs	r7, #4
    26d6:	603e      	str	r6, [r7, #0]
    26d8:	4e11      	ldr	r6, [pc, #68]	; (2720 <rambuffer_ram+0x6c>)
    26da:	f7ff fde2 	bl	22a2 <Code_571>
    26de:	3f04      	subs	r7, #4
    26e0:	603e      	str	r6, [r7, #0]
    26e2:	4e0d      	ldr	r6, [pc, #52]	; (2718 <rambuffer_ram+0x64>)
    26e4:	f7ff fdb3 	bl	224e <Code_562>
    26e8:	f7ff fe1e 	bl	2328 <Code_582>
    26ec:	f7ff fc8f 	bl	200e <Code_520>
    26f0:	f7ff fd25 	bl	213e <Code_549>
    26f4:	bd00      	pop	{pc}
    26f6:	00000000 	andeq	r0, r0, r0
    26fa:	00202000 	eoreq	r2, r0, r0
    26fe:	00042000 	andeq	r2, r4, r0
    2702:	ffff2000 			; <UNDEFINED> instruction: 0xffff2000
    2706:	ffffffff 			; <UNDEFINED> instruction: 0xffffffff
    270a:	00140000 	andseq	r0, r4, r0
    270e:	00242000 	eoreq	r2, r4, r0
    2712:	03302000 	teqeq	r0, #0
    2716:	47702000 	ldrbmi	r2, [r0, -r0]!
    271a:	603e0000 	eorsvs	r0, lr, r0
    271e:	36023f04 	strcc	r3, [r2], -r4, lsl #30
    2722:	0140467e 	hvceq	1134	; 0x46e
	...

00002728 <Dictionary_649>:
    2728:	00002758 	andeq	r2, r0, r8, asr r7
    272c:	640f0000 	strvs	r0, [pc], #0	; 2734 <Dictionary_649+0xc>
    2730:	69746369 	ldmdbvs	r4!, {r0, r3, r5, r6, r8, r9, sp, lr}^
    2734:	72616e6f 	rsbvc	r6, r1, #1776	; 0x6f0
    2738:	61747379 	cmnvs	r4, r9, ror r3
    273c:	48eb7472 	stmiami	fp!, {r1, r4, r5, r6, sl, ip, sp, lr}^

0000273e <Code_649>:
    273e:	48eb      	ldr	r0, [pc, #940]	; (2aec <Code_725+0x10>)
    2740:	6800      	ldr	r0, [r0, #0]
    2742:	49ea      	ldr	r1, [pc, #936]	; (2aec <Code_725+0x10>)
    2744:	3f04      	subs	r7, #4
    2746:	603e      	str	r6, [r7, #0]
    2748:	4288      	cmp	r0, r1
    274a:	d201      	bcs.n	2750 <Code_649+0x12>
    274c:	4ee8      	ldr	r6, [pc, #928]	; (2af0 <Code_725+0x14>)
    274e:	4770      	bx	lr
    2750:	4ee8      	ldr	r6, [pc, #928]	; (2af4 <Code_725+0x18>)
    2752:	6836      	ldr	r6, [r6, #0]
    2754:	4770      	bx	lr
    2756:	46c0      	nop			; (mov r8, r8)

00002758 <Dictionary_651>:
    2758:	00002794 	muleq	r0, r4, r7
    275c:	640e0000 	strvs	r0, [lr]
    2760:	69746369 	ldmdbvs	r4!, {r0, r3, r5, r6, r8, r9, sp, lr}^
    2764:	72616e6f 	rsbvc	r6, r1, #1776	; 0x6f0
    2768:	78656e79 	stmdavc	r5!, {r0, r3, r4, r5, r6, r9, sl, fp, sp, lr}^
    276c:	b5030074 	strlt	r0, [r3, #-116]	; 0x74

0000276e <Code_651>:
    276e:	b503      	push	{r0, r1, lr}
    2770:	6831      	ldr	r1, [r6, #0]
    2772:	48e1      	ldr	r0, [pc, #900]	; (2af8 <Code_725+0x1c>)
    2774:	4281      	cmp	r1, r0
    2776:	d007      	beq.n	2788 <Code_651+0x1a>
    2778:	7988      	ldrb	r0, [r1, #6]
    277a:	28ff      	cmp	r0, #255	; 0xff
    277c:	d004      	beq.n	2788 <Code_651+0x1a>
    277e:	000e      	movs	r6, r1
    2780:	3f04      	subs	r7, #4
    2782:	603e      	str	r6, [r7, #0]
    2784:	2600      	movs	r6, #0
    2786:	bd03      	pop	{r0, r1, pc}
    2788:	3f04      	subs	r7, #4
    278a:	603e      	str	r6, [r7, #0]
    278c:	2600      	movs	r6, #0
    278e:	43f6      	mvns	r6, r6
    2790:	bd03      	pop	{r0, r1, pc}
    2792:	46c0      	nop			; (mov r8, r8)

00002794 <Dictionary_655>:
    2794:	000027c8 	andeq	r2, r0, r8, asr #15
    2798:	730a0000 	movwvc	r0, #40960	; 0xa000
    279c:	7370696b 	cmnvc	r0, #1753088	; 0x1ac000
    27a0:	6e697274 	mcrvs	2, 3, r7, cr9, cr4, {3}
    27a4:	78310067 	ldmdavc	r1!, {r0, r1, r2, r5, r6}

000027a6 <Code_655>:
    27a6:	7831      	ldrb	r1, [r6, #0]
    27a8:	3101      	adds	r1, #1
    27aa:	2201      	movs	r2, #1
    27ac:	400a      	ands	r2, r1
    27ae:	1889      	adds	r1, r1, r2
    27b0:	1876      	adds	r6, r6, r1
    27b2:	4770      	bx	lr

000027b4 <skipstring>:
    27b4:	b406      	push	{r1, r2}
    27b6:	7801      	ldrb	r1, [r0, #0]
    27b8:	3101      	adds	r1, #1
    27ba:	2201      	movs	r2, #1
    27bc:	400a      	ands	r2, r1
    27be:	1889      	adds	r1, r1, r2
    27c0:	1840      	adds	r0, r0, r1
    27c2:	bc06      	pop	{r1, r2}
    27c4:	4770      	bx	lr
    27c6:	46c0      	nop			; (mov r8, r8)

000027c8 <Dictionary_656>:
    27c8:	00002848 	andeq	r2, r0, r8, asr #16
    27cc:	66040000 	strvs	r0, [r4], -r0
    27d0:	00646e69 	rsbeq	r6, r4, r9, ror #28

000027d4 <Code_656>:
    27d4:	b53f      	push	{r0, r1, r2, r3, r4, r5, lr}
    27d6:	2200      	movs	r2, #0
    27d8:	2300      	movs	r3, #0
    27da:	0035      	movs	r5, r6
    27dc:	cf40      	ldmia	r7!, {r6}
    27de:	0034      	movs	r4, r6
    27e0:	cf40      	ldmia	r7!, {r6}
    27e2:	f7ff ffac 	bl	273e <Code_649>
    27e6:	48c5      	ldr	r0, [pc, #788]	; (2afc <Code_725+0x20>)
    27e8:	88b1      	ldrh	r1, [r6, #4]
    27ea:	4288      	cmp	r0, r1
    27ec:	d017      	beq.n	281e <Code_656+0x4a>
    27ee:	3f04      	subs	r7, #4
    27f0:	603e      	str	r6, [r7, #0]
    27f2:	3606      	adds	r6, #6
    27f4:	f7ff f888 	bl	1908 <Code_374>
    27f8:	3f04      	subs	r7, #4
    27fa:	603e      	str	r6, [r7, #0]
    27fc:	0026      	movs	r6, r4
    27fe:	3f04      	subs	r7, #4
    2800:	603e      	str	r6, [r7, #0]
    2802:	002e      	movs	r6, r5
    2804:	f7fe ffb3 	bl	176e <Code_336>
    2808:	2e00      	cmp	r6, #0
    280a:	cf40      	ldmia	r7!, {r6}
    280c:	d007      	beq.n	281e <Code_656+0x4a>
    280e:	1db0      	adds	r0, r6, #6
    2810:	f7ff ffd0 	bl	27b4 <skipstring>
    2814:	0002      	movs	r2, r0
    2816:	000b      	movs	r3, r1
    2818:	48b4      	ldr	r0, [pc, #720]	; (2aec <Code_725+0x10>)
    281a:	4282      	cmp	r2, r0
    281c:	d204      	bcs.n	2828 <Code_656+0x54>
    281e:	f7ff ffa6 	bl	276e <Code_651>
    2822:	0030      	movs	r0, r6
    2824:	cf40      	ldmia	r7!, {r6}
    2826:	d0de      	beq.n	27e6 <Code_656+0x12>
    2828:	0016      	movs	r6, r2
    282a:	3f04      	subs	r7, #4
    282c:	603e      	str	r6, [r7, #0]
    282e:	001e      	movs	r6, r3
    2830:	bd3f      	pop	{r0, r1, r2, r3, r4, r5, pc}

00002832 <find_not_found>:
    2832:	b500      	push	{lr}
    2834:	0031      	movs	r1, r6
    2836:	6838      	ldr	r0, [r7, #0]
    2838:	f7ff ffcc 	bl	27d4 <Code_656>
    283c:	683a      	ldr	r2, [r7, #0]
    283e:	2a00      	cmp	r2, #0
    2840:	d101      	bne.n	2846 <find_not_found+0x14>
    2842:	f000 fd77 	bl	3334 <not_found_addr_r0_len_r1>
    2846:	bd00      	pop	{pc}

00002848 <Dictionary_669>:
    2848:	000028a4 	andeq	r2, r0, r4, lsr #17
    284c:	63060000 	movwvs	r0, #24576	; 0x6000
    2850:	706d756a 	rsbvc	r7, sp, sl, ror #10
    2854:	0032002c 	eorseq	r0, r2, ip, lsr #32

00002856 <Code_669>:
    2856:	0032      	movs	r2, r6
    2858:	cf40      	ldmia	r7!, {r6}
    285a:	0031      	movs	r1, r6
    285c:	cf40      	ldmia	r7!, {r6}
    285e:	1b8b      	subs	r3, r1, r6
    2860:	3b04      	subs	r3, #4
    2862:	49a7      	ldr	r1, [pc, #668]	; (2b00 <Code_725+0x24>)
    2864:	4019      	ands	r1, r3
    2866:	2900      	cmp	r1, #0
    2868:	d00d      	beq.n	2886 <jump_too_far+0x16>
    286a:	48a6      	ldr	r0, [pc, #664]	; (2b04 <Code_725+0x28>)
    286c:	4281      	cmp	r1, r0
    286e:	d00a      	beq.n	2886 <jump_too_far+0x16>

00002870 <jump_too_far>:
    2870:	f7ff f80a 	bl	1888 <dotgaensefuesschen>
    2874:	6d754a0d 	vldmdbvs	r5!, {s9-s21}
    2878:	6f742070 	svcvs	0x00742070
    287c:	6166206f 	cmnvs	r6, pc, rrx
    2880:	f0000a72 			; <UNDEFINED> instruction: 0xf0000a72
    2884:	fe5f 105b 	mrc2	0, 2, r1, cr15, cr11, {2}
    2888:	21ff      	movs	r1, #255	; 0xff
    288a:	400b      	ands	r3, r1
    288c:	4313      	orrs	r3, r2
    288e:	0030      	movs	r0, r6
    2890:	001e      	movs	r6, r3

00002892 <sprungbefehl_einfuegen>:
    2892:	b500      	push	{lr}
    2894:	4a95      	ldr	r2, [pc, #596]	; (2aec <Code_725+0x10>)
    2896:	6813      	ldr	r3, [r2, #0]
    2898:	6010      	str	r0, [r2, #0]
    289a:	f7ff fcd8 	bl	224e <Code_562>
    289e:	6013      	str	r3, [r2, #0]
    28a0:	bd00      	pop	{pc}
    28a2:	46c0      	nop			; (mov r8, r8)

000028a4 <Dictionary_673>:
    28a4:	000028dc 	ldrdeq	r2, [r0], -ip
    28a8:	6a050000 	bvs	1428b0 <BIT20+0x428b0>
    28ac:	2c706d75 	ldclcs	13, cr6, [r0], #-468	; 0xfffffe2c

000028b0 <Code_673>:
    28b0:	0031      	movs	r1, r6
    28b2:	cf40      	ldmia	r7!, {r6}
    28b4:	0030      	movs	r0, r6
    28b6:	cf40      	ldmia	r7!, {r6}
    28b8:	1a0b      	subs	r3, r1, r0
    28ba:	3b04      	subs	r3, #4
    28bc:	4992      	ldr	r1, [pc, #584]	; (2b08 <Code_725+0x2c>)
    28be:	4019      	ands	r1, r3
    28c0:	2900      	cmp	r1, #0
    28c2:	d002      	beq.n	28ca <Code_673+0x1a>
    28c4:	4a91      	ldr	r2, [pc, #580]	; (2b0c <Code_725+0x30>)
    28c6:	4291      	cmp	r1, r2
    28c8:	d1d2      	bne.n	2870 <jump_too_far>
    28ca:	105b      	asrs	r3, r3, #1
    28cc:	4a90      	ldr	r2, [pc, #576]	; (2b10 <Code_725+0x34>)
    28ce:	4013      	ands	r3, r2
    28d0:	4a90      	ldr	r2, [pc, #576]	; (2b14 <Code_725+0x38>)
    28d2:	4313      	orrs	r3, r2
    28d4:	3f04      	subs	r7, #4
    28d6:	603e      	str	r6, [r7, #0]
    28d8:	001e      	movs	r6, r3
    28da:	e7da      	b.n	2892 <sprungbefehl_einfuegen>

000028dc <Dictionary_678>:
    28dc:	000028f4 	strdeq	r2, [r0], -r4
    28e0:	68040000 	stmdavs	r4, {}	; <UNPREDICTABLE>
    28e4:	00657265 	rsbeq	r7, r5, r5, ror #4

000028e8 <Code_678>:
    28e8:	3f04      	subs	r7, #4
    28ea:	603e      	str	r6, [r7, #0]
    28ec:	4e7f      	ldr	r6, [pc, #508]	; (2aec <Code_725+0x10>)
    28ee:	6836      	ldr	r6, [r6, #0]
    28f0:	4770      	bx	lr
    28f2:	46c0      	nop			; (mov r8, r8)

000028f4 <Dictionary_680>:
    28f4:	000029e4 	andeq	r2, r0, r4, ror #19
    28f8:	660d0000 	strvs	r0, [sp], -r0
    28fc:	6873616c 	ldmdavs	r3!, {r2, r3, r5, r6, r8, sp, lr}^
    2900:	2d726176 	ldfcse	f6, [r2, #-472]!	; 0xfffffe28
    2904:	65726568 	ldrbvs	r6, [r2, #-1384]!	; 0x568

00002908 <Code_680>:
    2908:	3f04      	subs	r7, #4
    290a:	603e      	str	r6, [r7, #0]
    290c:	4e82      	ldr	r6, [pc, #520]	; (2b18 <Code_725+0x3c>)
    290e:	6836      	ldr	r6, [r6, #0]
    2910:	4770      	bx	lr

00002912 <nullprobekomma>:
    2912:	b500      	push	{lr}
    2914:	3f04      	subs	r7, #4
    2916:	603e      	str	r6, [r7, #0]
    2918:	4e80      	ldr	r6, [pc, #512]	; (2b1c <Code_725+0x40>)
    291a:	f7ff fc98 	bl	224e <Code_562>
    291e:	3f04      	subs	r7, #4
    2920:	603e      	str	r6, [r7, #0]
    2922:	4e7f      	ldr	r6, [pc, #508]	; (2b20 <Code_725+0x44>)
    2924:	f7ff fc93 	bl	224e <Code_562>
    2928:	bd00      	pop	{pc}

0000292a <branch_r>:
    292a:	e7dd      	b.n	28e8 <Code_678>

0000292c <r_branch_jne>:
    292c:	b500      	push	{lr}
    292e:	f000 f837 	bl	29a0 <branch_v>
    2932:	6839      	ldr	r1, [r7, #0]
    2934:	603e      	str	r6, [r7, #0]
    2936:	460e      	mov	r6, r1
    2938:	3f04      	subs	r7, #4
    293a:	603e      	str	r6, [r7, #0]
    293c:	4e79      	ldr	r6, [pc, #484]	; (2b24 <Code_725+0x48>)
    293e:	f7ff ff8a 	bl	2856 <Code_669>
    2942:	bd00      	pop	{pc}

00002944 <r_branch_jvc>:
    2944:	b500      	push	{lr}
    2946:	f000 f82b 	bl	29a0 <branch_v>
    294a:	6839      	ldr	r1, [r7, #0]
    294c:	603e      	str	r6, [r7, #0]
    294e:	460e      	mov	r6, r1
    2950:	3f04      	subs	r7, #4
    2952:	603e      	str	r6, [r7, #0]
    2954:	4e74      	ldr	r6, [pc, #464]	; (2b28 <Code_725+0x4c>)
    2956:	f7ff ff7e 	bl	2856 <Code_669>
    295a:	bd00      	pop	{pc}

0000295c <r_nullbranch>:
    295c:	b500      	push	{lr}
    295e:	f7ff ffd8 	bl	2912 <nullprobekomma>
    2962:	f000 f81d 	bl	29a0 <branch_v>
    2966:	6839      	ldr	r1, [r7, #0]
    2968:	603e      	str	r6, [r7, #0]
    296a:	460e      	mov	r6, r1
    296c:	3f04      	subs	r7, #4
    296e:	603e      	str	r6, [r7, #0]
    2970:	4e6e      	ldr	r6, [pc, #440]	; (2b2c <Code_725+0x50>)
    2972:	f7ff ff70 	bl	2856 <Code_669>
    2976:	bd00      	pop	{pc}

00002978 <r_branch>:
    2978:	b500      	push	{lr}
    297a:	f000 f811 	bl	29a0 <branch_v>
    297e:	6839      	ldr	r1, [r7, #0]
    2980:	603e      	str	r6, [r7, #0]
    2982:	460e      	mov	r6, r1
    2984:	f7ff ff94 	bl	28b0 <Code_673>
    2988:	bd00      	pop	{pc}

0000298a <nullbranch_v>:
    298a:	b500      	push	{lr}
    298c:	f7ff ffc1 	bl	2912 <nullprobekomma>
    2990:	f7ff ffaa 	bl	28e8 <Code_678>
    2994:	3f04      	subs	r7, #4
    2996:	603e      	str	r6, [r7, #0]
    2998:	2602      	movs	r6, #2
    299a:	f7ff fcc5 	bl	2328 <Code_582>
    299e:	bd00      	pop	{pc}

000029a0 <branch_v>:
    29a0:	b500      	push	{lr}
    29a2:	f7ff ffa1 	bl	28e8 <Code_678>
    29a6:	3f04      	subs	r7, #4
    29a8:	603e      	str	r6, [r7, #0]
    29aa:	2602      	movs	r6, #2
    29ac:	f7ff fcbc 	bl	2328 <Code_582>
    29b0:	bd00      	pop	{pc}

000029b2 <v_branch>:
    29b2:	b500      	push	{lr}
    29b4:	f7ff ff98 	bl	28e8 <Code_678>
    29b8:	f7ff ff7a 	bl	28b0 <Code_673>
    29bc:	bd00      	pop	{pc}

000029be <v_nullbranch>:
    29be:	b500      	push	{lr}
    29c0:	f7ff ff92 	bl	28e8 <Code_678>
    29c4:	3f04      	subs	r7, #4
    29c6:	603e      	str	r6, [r7, #0]
    29c8:	4e58      	ldr	r6, [pc, #352]	; (2b2c <Code_725+0x50>)
    29ca:	f7ff ff44 	bl	2856 <Code_669>
    29ce:	bd00      	pop	{pc}

000029d0 <v_casebranch>:
    29d0:	b500      	push	{lr}
    29d2:	f7ff ff89 	bl	28e8 <Code_678>
    29d6:	3f04      	subs	r7, #4
    29d8:	603e      	str	r6, [r7, #0]
    29da:	4e52      	ldr	r6, [pc, #328]	; (2b24 <Code_725+0x48>)
    29dc:	f7ff ff3b 	bl	2856 <Code_669>
    29e0:	bd00      	pop	{pc}
    29e2:	46c0      	nop			; (mov r8, r8)

000029e4 <Dictionary_704>:
    29e4:	00002a20 	andeq	r2, r0, r0, lsr #20
    29e8:	74040030 	strvc	r0, [r4], #-48	; 0x30
    29ec:	006e6568 	rsbeq	r6, lr, r8, ror #10

000029f0 <Code_704>:
    29f0:	2e05      	cmp	r6, #5
    29f2:	d101      	bne.n	29f8 <Code_704+0x8>
    29f4:	cf40      	ldmia	r7!, {r6}
    29f6:	e7dc      	b.n	29b2 <v_branch>
    29f8:	2e02      	cmp	r6, #2
    29fa:	d101      	bne.n	2a00 <strukturen_passen_nicht>
    29fc:	cf40      	ldmia	r7!, {r6}
    29fe:	e7de      	b.n	29be <v_nullbranch>

00002a00 <strukturen_passen_nicht>:
    2a00:	f7fe ff42 	bl	1888 <dotgaensefuesschen>
    2a04:	72745317 	rsbsvc	r5, r4, #1543503872	; 0x5c000000
    2a08:	75746375 	ldrbvc	r6, [r4, #-885]!	; 0x375
    2a0c:	20736572 	rsbscs	r6, r3, r2, ror r5
    2a10:	276e6f64 	strbcs	r6, [lr, -r4, ror #30]!
    2a14:	616d2074 	smcvs	53764	; 0xd204
    2a18:	0a686374 	beq	1a1b7f0 <BIT24+0xa1b7f0>
    2a1c:	f000 fd92 	bl	3544 <Code_938>

00002a20 <Dictionary_708>:
    2a20:	00002a4c 	andeq	r2, r0, ip, asr #20
    2a24:	65040030 	strvs	r0, [r4, #-48]	; 0x30
    2a28:	0065736c 	rsbeq	r7, r5, ip, ror #6

00002a2c <Code_708>:
    2a2c:	b500      	push	{lr}
    2a2e:	2e02      	cmp	r6, #2
    2a30:	d1e6      	bne.n	2a00 <strukturen_passen_nicht>
    2a32:	cf40      	ldmia	r7!, {r6}
    2a34:	f7ff ffb4 	bl	29a0 <branch_v>
    2a38:	6839      	ldr	r1, [r7, #0]
    2a3a:	603e      	str	r6, [r7, #0]
    2a3c:	460e      	mov	r6, r1
    2a3e:	f7ff ffbe 	bl	29be <v_nullbranch>
    2a42:	3f04      	subs	r7, #4
    2a44:	603e      	str	r6, [r7, #0]
    2a46:	2605      	movs	r6, #5
    2a48:	bd00      	pop	{pc}
    2a4a:	46c0      	nop			; (mov r8, r8)

00002a4c <Dictionary_713>:
    2a4c:	00002a64 	andeq	r2, r0, r4, ror #20
    2a50:	69020030 	stmdbvs	r2, {r4, r5}
    2a54:	b5000066 	strlt	r0, [r0, #-102]	; 0x66

00002a56 <Code_713>:
    2a56:	b500      	push	{lr}
    2a58:	f7ff ff97 	bl	298a <nullbranch_v>
    2a5c:	3f04      	subs	r7, #4
    2a5e:	603e      	str	r6, [r7, #0]
    2a60:	2602      	movs	r6, #2
    2a62:	bd00      	pop	{pc}

00002a64 <Dictionary_716>:
    2a64:	00002a8c 	andeq	r2, r0, ip, lsl #21
    2a68:	72060030 	andvc	r0, r6, #48	; 0x30
    2a6c:	61657065 	cmnvs	r5, r5, rrx
    2a70:	2e040074 	mcrcs	0, 0, r0, cr4, cr4, {3}

00002a72 <Code_716>:
    2a72:	2e04      	cmp	r6, #4
    2a74:	d1c4      	bne.n	2a00 <strukturen_passen_nicht>
    2a76:	cf40      	ldmia	r7!, {r6}
    2a78:	6839      	ldr	r1, [r7, #0]
    2a7a:	603e      	str	r6, [r7, #0]
    2a7c:	460e      	mov	r6, r1
    2a7e:	b500      	push	{lr}
    2a80:	f7ff ff7a 	bl	2978 <r_branch>
    2a84:	f7ff ff9b 	bl	29be <v_nullbranch>
    2a88:	bd00      	pop	{pc}
    2a8a:	46c0      	nop			; (mov r8, r8)

00002a8c <Dictionary_719>:
    2a8c:	00002aa8 	andeq	r2, r0, r8, lsr #21
    2a90:	77050030 	smladxvc	r5, r0, r0, r0
    2a94:	656c6968 	strbvs	r6, [ip, #-2408]!	; 0x968

00002a98 <Code_719>:
    2a98:	2e01      	cmp	r6, #1
    2a9a:	d1b1      	bne.n	2a00 <strukturen_passen_nicht>
    2a9c:	cf40      	ldmia	r7!, {r6}
    2a9e:	b500      	push	{lr}
    2aa0:	f7ff ffd9 	bl	2a56 <Code_713>
    2aa4:	3602      	adds	r6, #2
    2aa6:	bd00      	pop	{pc}

00002aa8 <Dictionary_721>:
    2aa8:	00002abc 			; <UNDEFINED> instruction: 0x00002abc
    2aac:	75050030 	strvc	r0, [r5, #-48]	; 0x30
    2ab0:	6c69746e 	cfstrdvs	mvd7, [r9], #-440	; 0xfffffe48

00002ab4 <Code_721>:
    2ab4:	2e01      	cmp	r6, #1
    2ab6:	d1a3      	bne.n	2a00 <strukturen_passen_nicht>
    2ab8:	cf40      	ldmia	r7!, {r6}
    2aba:	e74f      	b.n	295c <r_nullbranch>

00002abc <Dictionary_723>:
    2abc:	00002ad0 	ldrdeq	r2, [r0], -r0
    2ac0:	61050030 	tstvs	r5, r0, lsr r0
    2ac4:	6e696167 	powvsez	f6, f1, f7

00002ac8 <Code_723>:
    2ac8:	2e01      	cmp	r6, #1
    2aca:	d199      	bne.n	2a00 <strukturen_passen_nicht>
    2acc:	cf40      	ldmia	r7!, {r6}
    2ace:	e753      	b.n	2978 <r_branch>

00002ad0 <Dictionary_725>:
    2ad0:	00002b30 	andeq	r2, r0, r0, lsr fp
    2ad4:	62050030 	andvs	r0, r5, #48	; 0x30
    2ad8:	6e696765 	cdpvs	7, 6, cr6, cr9, cr5, {3}

00002adc <Code_725>:
    2adc:	b500      	push	{lr}
    2ade:	f7ff ff24 	bl	292a <branch_r>
    2ae2:	3f04      	subs	r7, #4
    2ae4:	603e      	str	r6, [r7, #0]
    2ae6:	2601      	movs	r6, #1
    2ae8:	bd00      	pop	{pc}
    2aea:	00000000 	andeq	r0, r0, r0
    2aee:	00c02000 	sbceq	r2, r0, r0
    2af2:	00040000 	andeq	r0, r4, r0
    2af6:	ffff2000 			; <UNDEFINED> instruction: 0xffff2000
    2afa:	ffffffff 			; <UNDEFINED> instruction: 0xffffffff
    2afe:	ff010000 			; <UNDEFINED> instruction: 0xff010000
    2b02:	ff00ffff 			; <UNDEFINED> instruction: 0xff00ffff
    2b06:	f801ffff 			; <UNDEFINED> instruction: 0xf801ffff
    2b0a:	f800ffff 			; <UNDEFINED> instruction: 0xf800ffff
    2b0e:	07ffffff 			; <UNDEFINED> instruction: 0x07ffffff
    2b12:	e0000000 	and	r0, r0, r0
    2b16:	00240000 	eoreq	r0, r4, r0
    2b1a:	2e002000 	cdpcs	0, 0, cr2, cr0, cr0, {0}
    2b1e:	cf400000 	svcgt	0x00400000
    2b22:	d1000000 	mrsle	r0, (UNDEF: 0)
    2b26:	d7000000 	strle	r0, [r0, -r0]
    2b2a:	d0000000 	andle	r0, r0, r0
	...

00002b30 <Dictionary_728>:
    2b30:	00002b40 	andeq	r2, r0, r0, asr #22
    2b34:	6b010020 	blvs	42bbc <BIT18+0x2bbc>

00002b38 <Code_728>:
    2b38:	3f04      	subs	r7, #4
    2b3a:	603e      	str	r6, [r7, #0]
    2b3c:	9e02      	ldr	r6, [sp, #8]
    2b3e:	4770      	bx	lr

00002b40 <Dictionary_730>:
    2b40:	00002b50 	andeq	r2, r0, r0, asr fp
    2b44:	6a010020 	bvs	42bcc <BIT18+0x2bcc>

00002b48 <Code_730>:
    2b48:	3f04      	subs	r7, #4
    2b4a:	603e      	str	r6, [r7, #0]
    2b4c:	9e00      	ldr	r6, [sp, #0]
    2b4e:	4770      	bx	lr

00002b50 <Dictionary_732>:
    2b50:	00002b60 	andeq	r2, r0, r0, ror #22
    2b54:	69010020 	stmdbvs	r1, {r5}

00002b58 <Code_732>:
    2b58:	3f04      	subs	r7, #4
    2b5a:	603e      	str	r6, [r7, #0]
    2b5c:	0026      	movs	r6, r4
    2b5e:	4770      	bx	lr

00002b60 <Dictionary_735>:
    2b60:	00002ba0 	andeq	r2, r0, r0, lsr #23
    2b64:	6c050030 	stcvs	0, cr0, [r5], {48}	; 0x30
    2b68:	65766165 	ldrbvs	r6, [r6, #-357]!	; 0x165

00002b6c <Code_735>:
    2b6c:	b500      	push	{lr}
    2b6e:	48d4      	ldr	r0, [pc, #848]	; (2ec0 <Code_817+0x4c>)
    2b70:	6801      	ldr	r1, [r0, #0]
    2b72:	003b      	movs	r3, r7
    2b74:	3f04      	subs	r7, #4
    2b76:	681a      	ldr	r2, [r3, #0]
    2b78:	3b04      	subs	r3, #4
    2b7a:	601a      	str	r2, [r3, #0]
    2b7c:	3308      	adds	r3, #8
    2b7e:	428b      	cmp	r3, r1
    2b80:	d1f9      	bne.n	2b76 <Code_735+0xa>
    2b82:	b403      	push	{r0, r1}
    2b84:	f7ff ff0c 	bl	29a0 <branch_v>
    2b88:	bc03      	pop	{r0, r1}
    2b8a:	0033      	movs	r3, r6
    2b8c:	cf40      	ldmia	r7!, {r6}
    2b8e:	3904      	subs	r1, #4
    2b90:	600b      	str	r3, [r1, #0]
    2b92:	6001      	str	r1, [r0, #0]
    2b94:	3904      	subs	r1, #4
    2b96:	680a      	ldr	r2, [r1, #0]
    2b98:	3201      	adds	r2, #1
    2b9a:	600a      	str	r2, [r1, #0]
    2b9c:	bd00      	pop	{pc}
    2b9e:	46c0      	nop			; (mov r8, r8)

00002ba0 <Dictionary_737>:
    2ba0:	00002bb4 			; <UNDEFINED> instruction: 0x00002bb4
    2ba4:	75060020 	strvc	r0, [r6, #-32]
    2ba8:	6f6f6c6e 	svcvs	0x006f6c6e
    2bac:	bc300070 	ldclt	0, cr0, [r0], #-448	; 0xfffffe40

00002bae <Code_737>:
    2bae:	bc30      	pop	{r4, r5}
    2bb0:	4770      	bx	lr
    2bb2:	46c0      	nop			; (mov r8, r8)

00002bb4 <Dictionary_738>:
    2bb4:	00002bec 	andeq	r2, r0, ip, ror #23
    2bb8:	2b050030 	blcs	142c80 <BIT20+0x42c80>
    2bbc:	706f6f6c 	rsbvc	r6, pc, ip, ror #30

00002bc0 <Code_738>:
    2bc0:	2e03      	cmp	r6, #3
    2bc2:	d000      	beq.n	2bc6 <Code_738+0x6>
    2bc4:	e71c      	b.n	2a00 <strukturen_passen_nicht>
    2bc6:	cf40      	ldmia	r7!, {r6}
    2bc8:	b500      	push	{lr}
    2bca:	3f04      	subs	r7, #4
    2bcc:	603e      	str	r6, [r7, #0]
    2bce:	4ebd      	ldr	r6, [pc, #756]	; (2ec4 <Code_817+0x50>)
    2bd0:	f7ff f951 	bl	1e76 <Code_487>
    2bd4:	f7ff feb6 	bl	2944 <r_branch_jvc>
    2bd8:	e01a      	b.n	2c10 <loop_intern>

00002bda <struktur_plusloop>:
    2bda:	2080      	movs	r0, #128	; 0x80
    2bdc:	0600      	lsls	r0, r0, #24
    2bde:	1900      	adds	r0, r0, r4
    2be0:	19a4      	adds	r4, r4, r6
    2be2:	1b40      	subs	r0, r0, r5
    2be4:	1980      	adds	r0, r0, r6
    2be6:	cf40      	ldmia	r7!, {r6}
    2be8:	4770      	bx	lr
    2bea:	46c0      	nop			; (mov r8, r8)

00002bec <Dictionary_742>:
    2bec:	00002c30 	andeq	r2, r0, r0, lsr ip
    2bf0:	6c040030 	stcvs	0, cr0, [r4], {48}	; 0x30
    2bf4:	00706f6f 	rsbseq	r6, r0, pc, ror #30

00002bf8 <Code_742>:
    2bf8:	2e03      	cmp	r6, #3
    2bfa:	d000      	beq.n	2bfe <Code_742+0x6>
    2bfc:	e700      	b.n	2a00 <strukturen_passen_nicht>
    2bfe:	cf40      	ldmia	r7!, {r6}
    2c00:	b500      	push	{lr}
    2c02:	3f04      	subs	r7, #4
    2c04:	603e      	str	r6, [r7, #0]
    2c06:	4eb0      	ldr	r6, [pc, #704]	; (2ec8 <Code_817+0x54>)
    2c08:	f7ff f935 	bl	1e76 <Code_487>
    2c0c:	f7ff fe8e 	bl	292c <r_branch_jne>

00002c10 <loop_intern>:
    2c10:	f000 f90c 	bl	2e2c <spruenge_einpflegen>
    2c14:	48aa      	ldr	r0, [pc, #680]	; (2ec0 <Code_817+0x4c>)
    2c16:	0031      	movs	r1, r6
    2c18:	cf40      	ldmia	r7!, {r6}
    2c1a:	6001      	str	r1, [r0, #0]
    2c1c:	3f04      	subs	r7, #4
    2c1e:	603e      	str	r6, [r7, #0]
    2c20:	4eaa      	ldr	r6, [pc, #680]	; (2ecc <Code_817+0x58>)
    2c22:	f7ff f928 	bl	1e76 <Code_487>
    2c26:	bd00      	pop	{pc}

00002c28 <struktur_loop>:
    2c28:	3401      	adds	r4, #1
    2c2a:	42ac      	cmp	r4, r5
    2c2c:	4770      	bx	lr
    2c2e:	46c0      	nop			; (mov r8, r8)

00002c30 <Dictionary_747>:
    2c30:	00002c78 	andeq	r2, r0, r8, ror ip
    2c34:	64020078 	strvs	r0, [r2], #-120	; 0x78
    2c38:	b500006f 	strlt	r0, [r0, #-111]	; 0x6f

00002c3a <Code_747>:
    2c3a:	b500      	push	{lr}
    2c3c:	3f04      	subs	r7, #4
    2c3e:	603e      	str	r6, [r7, #0]
    2c40:	4ea3      	ldr	r6, [pc, #652]	; (2ed0 <Code_817+0x5c>)
    2c42:	f7ff f918 	bl	1e76 <Code_487>

00002c46 <do_rest_der_schleifenstruktur>:
    2c46:	489e      	ldr	r0, [pc, #632]	; (2ec0 <Code_817+0x4c>)
    2c48:	6801      	ldr	r1, [r0, #0]
    2c4a:	3f04      	subs	r7, #4
    2c4c:	603e      	str	r6, [r7, #0]
    2c4e:	000e      	movs	r6, r1
    2c50:	3f04      	subs	r7, #4
    2c52:	603e      	str	r6, [r7, #0]
    2c54:	2600      	movs	r6, #0
    2c56:	6007      	str	r7, [r0, #0]
    2c58:	f7ff fe67 	bl	292a <branch_r>
    2c5c:	3f04      	subs	r7, #4
    2c5e:	603e      	str	r6, [r7, #0]
    2c60:	2603      	movs	r6, #3
    2c62:	bd00      	pop	{pc}
    2c64:	b500      	push	{lr}
    2c66:	f000 f82e 	bl	2cc6 <gemeinsame_schleifenoptimierung>
    2c6a:	e7ec      	b.n	2c46 <do_rest_der_schleifenstruktur>

00002c6c <struktur_do>:
    2c6c:	b430      	push	{r4, r5}
    2c6e:	0034      	movs	r4, r6
    2c70:	cf40      	ldmia	r7!, {r6}
    2c72:	0035      	movs	r5, r6
    2c74:	cf40      	ldmia	r7!, {r6}
    2c76:	4770      	bx	lr

00002c78 <Dictionary_757>:
    2c78:	00002d0c 	andeq	r2, r0, ip, lsl #26
    2c7c:	3f030078 	svccc	0x00030078
    2c80:	b5006f64 	strlt	r6, [r0, #-3940]	; 0xf64

00002c82 <Code_757>:
    2c82:	b500      	push	{lr}
    2c84:	3f04      	subs	r7, #4
    2c86:	603e      	str	r6, [r7, #0]
    2c88:	4e91      	ldr	r6, [pc, #580]	; (2ed0 <Code_817+0x5c>)
    2c8a:	f7ff f8f4 	bl	1e76 <Code_487>

00002c8e <qdo_rest_der_schleifenstruktur>:
    2c8e:	3f04      	subs	r7, #4
    2c90:	603e      	str	r6, [r7, #0]
    2c92:	4e90      	ldr	r6, [pc, #576]	; (2ed4 <Code_817+0x60>)
    2c94:	f7ff fadb 	bl	224e <Code_562>
    2c98:	4889      	ldr	r0, [pc, #548]	; (2ec0 <Code_817+0x4c>)
    2c9a:	6801      	ldr	r1, [r0, #0]
    2c9c:	3f04      	subs	r7, #4
    2c9e:	603e      	str	r6, [r7, #0]
    2ca0:	000e      	movs	r6, r1
    2ca2:	f7ff fe7d 	bl	29a0 <branch_v>
    2ca6:	3601      	adds	r6, #1
    2ca8:	3f04      	subs	r7, #4
    2caa:	603e      	str	r6, [r7, #0]
    2cac:	2601      	movs	r6, #1
    2cae:	4884      	ldr	r0, [pc, #528]	; (2ec0 <Code_817+0x4c>)
    2cb0:	6007      	str	r7, [r0, #0]
    2cb2:	f7ff fe3a 	bl	292a <branch_r>
    2cb6:	3f04      	subs	r7, #4
    2cb8:	603e      	str	r6, [r7, #0]
    2cba:	2603      	movs	r6, #3
    2cbc:	bd00      	pop	{pc}
    2cbe:	b500      	push	{lr}
    2cc0:	f000 f801 	bl	2cc6 <gemeinsame_schleifenoptimierung>
    2cc4:	e7e3      	b.n	2c8e <qdo_rest_der_schleifenstruktur>

00002cc6 <gemeinsame_schleifenoptimierung>:
    2cc6:	b500      	push	{lr}
    2cc8:	3f04      	subs	r7, #4
    2cca:	603e      	str	r6, [r7, #0]
    2ccc:	4e82      	ldr	r6, [pc, #520]	; (2ed8 <Code_817+0x64>)
    2cce:	f7ff fabe 	bl	224e <Code_562>
    2cd2:	3f04      	subs	r7, #4
    2cd4:	603e      	str	r6, [r7, #0]
    2cd6:	2604      	movs	r6, #4
    2cd8:	f7fe ff24 	bl	1b24 <Code_421>
    2cdc:	3b01      	subs	r3, #1
    2cde:	d008      	beq.n	2cf2 <gemeinsame_schleifenoptimierung+0x2c>
    2ce0:	3f04      	subs	r7, #4
    2ce2:	603e      	str	r6, [r7, #0]
    2ce4:	2605      	movs	r6, #5
    2ce6:	f7fe ff1d 	bl	1b24 <Code_421>
    2cea:	3b01      	subs	r3, #1
    2cec:	f000 fc03 	bl	34f6 <konstantenschreiben>
    2cf0:	bd00      	pop	{pc}
    2cf2:	3f04      	subs	r7, #4
    2cf4:	603e      	str	r6, [r7, #0]
    2cf6:	2635      	movs	r6, #53	; 0x35
    2cf8:	f7ff faa9 	bl	224e <Code_562>
    2cfc:	3f04      	subs	r7, #4
    2cfe:	603e      	str	r6, [r7, #0]
    2d00:	4e76      	ldr	r6, [pc, #472]	; (2edc <Code_817+0x68>)
    2d02:	f7ff faa4 	bl	224e <Code_562>
    2d06:	f000 fbf6 	bl	34f6 <konstantenschreiben>
    2d0a:	bd00      	pop	{pc}

00002d0c <Dictionary_777>:
    2d0c:	00002d28 	andeq	r2, r0, r8, lsr #26
    2d10:	63040030 	movwvs	r0, #16432	; 0x4030
    2d14:	00657361 	rsbeq	r7, r5, r1, ror #6

00002d18 <Code_777>:
    2d18:	3f04      	subs	r7, #4
    2d1a:	603e      	str	r6, [r7, #0]
    2d1c:	2600      	movs	r6, #0
    2d1e:	3f04      	subs	r7, #4
    2d20:	603e      	str	r6, [r7, #0]
    2d22:	2608      	movs	r6, #8
    2d24:	4770      	bx	lr
    2d26:	46c0      	nop			; (mov r8, r8)

00002d28 <Dictionary_782>:
    2d28:	00002d40 	andeq	r2, r0, r0, asr #26
    2d2c:	3f030030 	svccc	0x00030030
    2d30:	486b666f 	stmdami	fp!, {r0, r1, r2, r3, r5, r6, r9, sl, sp, lr}^

00002d32 <Code_782>:
    2d32:	486b      	ldr	r0, [pc, #428]	; (2ee0 <Code_817+0x6c>)
    2d34:	e00a      	b.n	2d4c <of_inneneinsprung>

00002d36 <struktur_qof>:
    2d36:	3e01      	subs	r6, #1
    2d38:	41b6      	sbcs	r6, r6
    2d3a:	cf40      	ldmia	r7!, {r6}
    2d3c:	4770      	bx	lr
    2d3e:	46c0      	nop			; (mov r8, r8)

00002d40 <Dictionary_784>:
    2d40:	00002dcc 	andeq	r2, r0, ip, asr #27
    2d44:	6f020078 	svcvs	0x00020078
    2d48:	48660066 	stmdami	r6!, {r1, r2, r5, r6}^

00002d4a <Code_784>:
    2d4a:	4866      	ldr	r0, [pc, #408]	; (2ee4 <Code_817+0x70>)

00002d4c <of_inneneinsprung>:
    2d4c:	2e08      	cmp	r6, #8
    2d4e:	d000      	beq.n	2d52 <of_inneneinsprung+0x6>
    2d50:	e656      	b.n	2a00 <strukturen_passen_nicht>
    2d52:	cf40      	ldmia	r7!, {r6}
    2d54:	b500      	push	{lr}
    2d56:	3f04      	subs	r7, #4
    2d58:	603e      	str	r6, [r7, #0]
    2d5a:	0006      	movs	r6, r0
    2d5c:	f7ff f88b 	bl	1e76 <Code_487>

00002d60 <of_opcodiereinsprung>:
    2d60:	f7ff fe1e 	bl	29a0 <branch_v>
    2d64:	6839      	ldr	r1, [r7, #0]
    2d66:	603e      	str	r6, [r7, #0]
    2d68:	460e      	mov	r6, r1
    2d6a:	3601      	adds	r6, #1
    2d6c:	3f04      	subs	r7, #4
    2d6e:	603e      	str	r6, [r7, #0]
    2d70:	2609      	movs	r6, #9
    2d72:	3f04      	subs	r7, #4
    2d74:	603e      	str	r6, [r7, #0]
    2d76:	4e59      	ldr	r6, [pc, #356]	; (2edc <Code_817+0x68>)
    2d78:	f7ff fa69 	bl	224e <Code_562>
    2d7c:	bd00      	pop	{pc}
    2d7e:	b500      	push	{lr}
    2d80:	0030      	movs	r0, r6
    2d82:	cf40      	ldmia	r7!, {r6}
    2d84:	3b01      	subs	r3, #1
    2d86:	b401      	push	{r0}
    2d88:	f000 fbb5 	bl	34f6 <konstantenschreiben>
    2d8c:	bc01      	pop	{r0}
    2d8e:	2e08      	cmp	r6, #8
    2d90:	d000      	beq.n	2d94 <of_opcodiereinsprung+0x34>
    2d92:	e635      	b.n	2a00 <strukturen_passen_nicht>
    2d94:	cf40      	ldmia	r7!, {r6}
    2d96:	3f04      	subs	r7, #4
    2d98:	603e      	str	r6, [r7, #0]
    2d9a:	0006      	movs	r6, r0
    2d9c:	21ff      	movs	r1, #255	; 0xff
    2d9e:	4031      	ands	r1, r6
    2da0:	42b1      	cmp	r1, r6
    2da2:	d104      	bne.n	2dae <of_opcodiereinsprung+0x4e>
    2da4:	4950      	ldr	r1, [pc, #320]	; (2ee8 <Code_817+0x74>)
    2da6:	430e      	orrs	r6, r1
    2da8:	f7ff fa51 	bl	224e <Code_562>
    2dac:	e7d8      	b.n	2d60 <of_opcodiereinsprung>
    2dae:	3f04      	subs	r7, #4
    2db0:	603e      	str	r6, [r7, #0]
    2db2:	2600      	movs	r6, #0
    2db4:	f7fe feb6 	bl	1b24 <Code_421>
    2db8:	3f04      	subs	r7, #4
    2dba:	603e      	str	r6, [r7, #0]
    2dbc:	4e4b      	ldr	r6, [pc, #300]	; (2eec <Code_817+0x78>)
    2dbe:	f7ff fa46 	bl	224e <Code_562>
    2dc2:	e7cd      	b.n	2d60 <of_opcodiereinsprung>

00002dc4 <struktur_of>:
    2dc4:	0030      	movs	r0, r6
    2dc6:	cf40      	ldmia	r7!, {r6}
    2dc8:	42b0      	cmp	r0, r6
    2dca:	4770      	bx	lr

00002dcc <Dictionary_802>:
    2dcc:	00002e04 	andeq	r2, r0, r4, lsl #28
    2dd0:	65050030 	strvs	r0, [r5, #-48]	; 0x30
    2dd4:	666f646e 	strbtvs	r6, [pc], -lr, ror #8

00002dd8 <Code_802>:
    2dd8:	2e09      	cmp	r6, #9
    2dda:	d000      	beq.n	2dde <Code_802+0x6>
    2ddc:	e610      	b.n	2a00 <strukturen_passen_nicht>
    2dde:	cf40      	ldmia	r7!, {r6}
    2de0:	b500      	push	{lr}
    2de2:	b440      	push	{r6}
    2de4:	cf40      	ldmia	r7!, {r6}
    2de6:	f7ff fddb 	bl	29a0 <branch_v>
    2dea:	6839      	ldr	r1, [r7, #0]
    2dec:	603e      	str	r6, [r7, #0]
    2dee:	460e      	mov	r6, r1
    2df0:	f7ff fdee 	bl	29d0 <v_casebranch>
    2df4:	3f04      	subs	r7, #4
    2df6:	603e      	str	r6, [r7, #0]
    2df8:	bc40      	pop	{r6}
    2dfa:	3f04      	subs	r7, #4
    2dfc:	603e      	str	r6, [r7, #0]
    2dfe:	2608      	movs	r6, #8
    2e00:	bd00      	pop	{pc}
    2e02:	46c0      	nop			; (mov r8, r8)

00002e04 <Dictionary_810>:
    2e04:	00002e54 	andeq	r2, r0, r4, asr lr
    2e08:	65070030 	strvs	r0, [r7, #-48]	; 0x30
    2e0c:	6163646e 	cmnvs	r3, lr, ror #8
    2e10:	2e086573 	cfrshl64cs	mvdx8, mvdx3, r6

00002e12 <Code_810>:
    2e12:	2e08      	cmp	r6, #8
    2e14:	d000      	beq.n	2e18 <Code_810+0x6>
    2e16:	e5f3      	b.n	2a00 <strukturen_passen_nicht>
    2e18:	cf40      	ldmia	r7!, {r6}
    2e1a:	b500      	push	{lr}
    2e1c:	3f04      	subs	r7, #4
    2e1e:	603e      	str	r6, [r7, #0]
    2e20:	4e2e      	ldr	r6, [pc, #184]	; (2edc <Code_817+0x68>)
    2e22:	f7ff fa14 	bl	224e <Code_562>
    2e26:	f000 f801 	bl	2e2c <spruenge_einpflegen>
    2e2a:	bd00      	pop	{pc}

00002e2c <spruenge_einpflegen>:
    2e2c:	b500      	push	{lr}
    2e2e:	0030      	movs	r0, r6
    2e30:	cf40      	ldmia	r7!, {r6}
    2e32:	2800      	cmp	r0, #0
    2e34:	d00d      	beq.n	2e52 <spruenge_einpflegen+0x26>
    2e36:	b403      	push	{r0, r1}
    2e38:	2101      	movs	r1, #1
    2e3a:	4031      	ands	r1, r6
    2e3c:	2900      	cmp	r1, #0
    2e3e:	d003      	beq.n	2e48 <spruenge_einpflegen+0x1c>
    2e40:	3e01      	subs	r6, #1
    2e42:	f7ff fdbc 	bl	29be <v_nullbranch>
    2e46:	e001      	b.n	2e4c <spruenge_einpflegen+0x20>
    2e48:	f7ff fdb3 	bl	29b2 <v_branch>
    2e4c:	bc03      	pop	{r0, r1}
    2e4e:	3801      	subs	r0, #1
    2e50:	e7ef      	b.n	2e32 <spruenge_einpflegen+0x6>
    2e52:	bd00      	pop	{pc}

00002e54 <Dictionary_815>:
    2e54:	00002e68 	andeq	r2, r0, r8, ror #28
    2e58:	74050000 	strvc	r0, [r5]
    2e5c:	6e656b6f 	vnmulvs.f64	d22, d5, d31

00002e60 <Code_815>:
    2e60:	3f04      	subs	r7, #4
    2e62:	603e      	str	r6, [r7, #0]
    2e64:	2620      	movs	r6, #32
    2e66:	e005      	b.n	2e74 <Code_817>

00002e68 <Dictionary_817>:
    2e68:	00002ef4 	strdeq	r2, [r0], -r4
    2e6c:	70050000 	andvc	r0, r5, r0
    2e70:	65737261 	ldrbvs	r7, [r3, #-609]!	; 0x261

00002e74 <Code_817>:
    2e74:	b510      	push	{r4, lr}
    2e76:	f7fe fc4e 	bl	1716 <Code_329>
    2e7a:	0031      	movs	r1, r6
    2e7c:	cf40      	ldmia	r7!, {r6}
    2e7e:	0030      	movs	r0, r6
    2e80:	cf40      	ldmia	r7!, {r6}
    2e82:	4a1b      	ldr	r2, [pc, #108]	; (2ef0 <Code_817+0x7c>)
    2e84:	6812      	ldr	r2, [r2, #0]
    2e86:	1884      	adds	r4, r0, r2
    2e88:	2e20      	cmp	r6, #32
    2e8a:	d107      	bne.n	2e9c <Code_817+0x28>
    2e8c:	4291      	cmp	r1, r2
    2e8e:	d00f      	beq.n	2eb0 <Code_817+0x3c>
    2e90:	5c83      	ldrb	r3, [r0, r2]
    2e92:	42b3      	cmp	r3, r6
    2e94:	d102      	bne.n	2e9c <Code_817+0x28>
    2e96:	3201      	adds	r2, #1
    2e98:	1884      	adds	r4, r0, r2
    2e9a:	e7f7      	b.n	2e8c <Code_817+0x18>
    2e9c:	4291      	cmp	r1, r2
    2e9e:	d007      	beq.n	2eb0 <Code_817+0x3c>
    2ea0:	5c83      	ldrb	r3, [r0, r2]
    2ea2:	3201      	adds	r2, #1
    2ea4:	42b3      	cmp	r3, r6
    2ea6:	d1f9      	bne.n	2e9c <Code_817+0x28>
    2ea8:	1886      	adds	r6, r0, r2
    2eaa:	1b36      	subs	r6, r6, r4
    2eac:	3e01      	subs	r6, #1
    2eae:	e001      	b.n	2eb4 <Code_817+0x40>
    2eb0:	1886      	adds	r6, r0, r2
    2eb2:	1b36      	subs	r6, r6, r4
    2eb4:	3f04      	subs	r7, #4
    2eb6:	603c      	str	r4, [r7, #0]
    2eb8:	480d      	ldr	r0, [pc, #52]	; (2ef0 <Code_817+0x7c>)
    2eba:	6002      	str	r2, [r0, #0]
    2ebc:	bd10      	pop	{r4, pc}
    2ebe:	000c0000 	andeq	r0, ip, r0
    2ec2:	2bda2000 	blcs	ff68aeca <BIT31+0x7f68aeca>
    2ec6:	2c280000 	stccs	0, cr0, [r8]
    2eca:	2bae0000 	blcs	feb82ed2 <BIT31+0x7eb82ed2>
    2ece:	2c6c0000 	stclcs	0, cr0, [ip]
    2ed2:	42ac0000 	adcmi	r0, ip, #0
    2ed6:	b4300000 	ldrtlt	r0, [r0]
    2eda:	cf400000 	svcgt	0x00400000
    2ede:	2d360000 	ldccs	0, cr0, [r6]
    2ee2:	2dc40000 	stclcs	0, cr0, [r4]
    2ee6:	2e000000 	cdpcs	0, 0, cr0, cr0, cr0, {0}
    2eea:	42b00000 	adcsmi	r0, r0, #0
    2eee:	3fe40000 	svccc	0x00e40000
    2ef2:	2f342000 	svccs	0x00342000

00002ef4 <Dictionary_820>:
    2ef4:	00002f34 	andeq	r2, r0, r4, lsr pc
    2ef8:	64050000 	strvs	r0, [r5]
    2efc:	74696769 	strbtvc	r6, [r9], #-1897	; 0x769

00002f00 <Code_820>:
    2f00:	4bd4      	ldr	r3, [pc, #848]	; (3254 <Code_883+0x8>)
    2f02:	681b      	ldr	r3, [r3, #0]

00002f04 <digit_base_r3>:
    2f04:	3e30      	subs	r6, #48	; 0x30
    2f06:	d30b      	bcc.n	2f20 <digit_base_r3+0x1c>
    2f08:	2e0a      	cmp	r6, #10
    2f0a:	d30b      	bcc.n	2f24 <digit_base_r3+0x20>
    2f0c:	3e07      	subs	r6, #7
    2f0e:	2e0a      	cmp	r6, #10
    2f10:	d306      	bcc.n	2f20 <digit_base_r3+0x1c>
    2f12:	2e24      	cmp	r6, #36	; 0x24
    2f14:	d306      	bcc.n	2f24 <digit_base_r3+0x20>
    2f16:	3e20      	subs	r6, #32
    2f18:	2e0a      	cmp	r6, #10
    2f1a:	d301      	bcc.n	2f20 <digit_base_r3+0x1c>
    2f1c:	2e24      	cmp	r6, #36	; 0x24
    2f1e:	d301      	bcc.n	2f24 <digit_base_r3+0x20>
    2f20:	2600      	movs	r6, #0
    2f22:	4770      	bx	lr
    2f24:	429e      	cmp	r6, r3
    2f26:	d2fb      	bcs.n	2f20 <digit_base_r3+0x1c>
    2f28:	3f04      	subs	r7, #4
    2f2a:	603e      	str	r6, [r7, #0]
    2f2c:	2600      	movs	r6, #0
    2f2e:	43f6      	mvns	r6, r6
    2f30:	4770      	bx	lr
    2f32:	46c0      	nop			; (mov r8, r8)

00002f34 <Dictionary_822>:
    2f34:	00003040 	andeq	r3, r0, r0, asr #32
    2f38:	6e060000 	cdpvs	0, 0, cr0, cr6, cr0, {0}
    2f3c:	65626d75 	strbvs	r6, [r2, #-3445]!	; 0xd75
    2f40:	b53f0072 	ldrlt	r0, [pc, #-114]!	; 2ed6 <Code_817+0x62>

00002f42 <Code_822>:
    2f42:	b53f      	push	{r0, r1, r2, r3, r4, r5, lr}
    2f44:	0031      	movs	r1, r6
    2f46:	cf40      	ldmia	r7!, {r6}
    2f48:	1e70      	subs	r0, r6, #1
    2f4a:	2601      	movs	r6, #1
    2f4c:	2201      	movs	r2, #1
    2f4e:	b404      	push	{r2}
    2f50:	4bc0      	ldr	r3, [pc, #768]	; (3254 <Code_883+0x8>)
    2f52:	681b      	ldr	r3, [r3, #0]
    2f54:	2400      	movs	r4, #0
    2f56:	2500      	movs	r5, #0
    2f58:	2900      	cmp	r1, #0
    2f5a:	d03c      	beq.n	2fd6 <Code_822+0x94>
    2f5c:	3001      	adds	r0, #1
    2f5e:	3901      	subs	r1, #1
    2f60:	7802      	ldrb	r2, [r0, #0]
    2f62:	2a2d      	cmp	r2, #45	; 0x2d
    2f64:	d104      	bne.n	2f70 <Code_822+0x2e>
    2f66:	b001      	add	sp, #4
    2f68:	2200      	movs	r2, #0
    2f6a:	43d2      	mvns	r2, r2
    2f6c:	b404      	push	{r2}
    2f6e:	e7f3      	b.n	2f58 <Code_822+0x16>
    2f70:	2a23      	cmp	r2, #35	; 0x23
    2f72:	d101      	bne.n	2f78 <Code_822+0x36>
    2f74:	230a      	movs	r3, #10
    2f76:	e7ef      	b.n	2f58 <Code_822+0x16>
    2f78:	2a24      	cmp	r2, #36	; 0x24
    2f7a:	d101      	bne.n	2f80 <Code_822+0x3e>
    2f7c:	2310      	movs	r3, #16
    2f7e:	e7eb      	b.n	2f58 <Code_822+0x16>
    2f80:	2a25      	cmp	r2, #37	; 0x25
    2f82:	d101      	bne.n	2f88 <Code_822+0x46>
    2f84:	2302      	movs	r3, #2
    2f86:	e7e7      	b.n	2f58 <Code_822+0x16>
    2f88:	2a2e      	cmp	r2, #46	; 0x2e
    2f8a:	d101      	bne.n	2f90 <Code_822+0x4e>
    2f8c:	2602      	movs	r6, #2
    2f8e:	e7e3      	b.n	2f58 <Code_822+0x16>
    2f90:	2a2c      	cmp	r2, #44	; 0x2c
    2f92:	d036      	beq.n	3002 <number_nachkommastellen>
    2f94:	3f04      	subs	r7, #4
    2f96:	603e      	str	r6, [r7, #0]
    2f98:	0016      	movs	r6, r2
    2f9a:	f7ff ffb3 	bl	2f04 <digit_base_r3>
    2f9e:	2e00      	cmp	r6, #0
    2fa0:	cf40      	ldmia	r7!, {r6}
    2fa2:	d02b      	beq.n	2ffc <Code_822+0xba>
    2fa4:	3f04      	subs	r7, #4
    2fa6:	603e      	str	r6, [r7, #0]
    2fa8:	0026      	movs	r6, r4
    2faa:	3f04      	subs	r7, #4
    2fac:	603e      	str	r6, [r7, #0]
    2fae:	002e      	movs	r6, r5
    2fb0:	3f04      	subs	r7, #4
    2fb2:	603e      	str	r6, [r7, #0]
    2fb4:	001e      	movs	r6, r3
    2fb6:	3f04      	subs	r7, #4
    2fb8:	603e      	str	r6, [r7, #0]
    2fba:	2600      	movs	r6, #0
    2fbc:	b40f      	push	{r0, r1, r2, r3}
    2fbe:	f7fd f9d2 	bl	366 <Code_49>
    2fc2:	bc0f      	pop	{r0, r1, r2, r3}
    2fc4:	0035      	movs	r5, r6
    2fc6:	cf40      	ldmia	r7!, {r6}
    2fc8:	0034      	movs	r4, r6
    2fca:	cf40      	ldmia	r7!, {r6}
    2fcc:	2200      	movs	r2, #0
    2fce:	19a4      	adds	r4, r4, r6
    2fd0:	4155      	adcs	r5, r2
    2fd2:	cf40      	ldmia	r7!, {r6}
    2fd4:	e7c0      	b.n	2f58 <Code_822+0x16>
    2fd6:	bc04      	pop	{r2}
    2fd8:	2a00      	cmp	r2, #0
    2fda:	d504      	bpl.n	2fe6 <Code_822+0xa4>
    2fdc:	2200      	movs	r2, #0
    2fde:	43e4      	mvns	r4, r4
    2fe0:	43ed      	mvns	r5, r5
    2fe2:	3401      	adds	r4, #1
    2fe4:	4155      	adcs	r5, r2
    2fe6:	0033      	movs	r3, r6
    2fe8:	0026      	movs	r6, r4
    2fea:	2b01      	cmp	r3, #1
    2fec:	d002      	beq.n	2ff4 <Code_822+0xb2>
    2fee:	3f04      	subs	r7, #4
    2ff0:	603e      	str	r6, [r7, #0]
    2ff2:	002e      	movs	r6, r5
    2ff4:	3f04      	subs	r7, #4
    2ff6:	603e      	str	r6, [r7, #0]
    2ff8:	001e      	movs	r6, r3
    2ffa:	bd3f      	pop	{r0, r1, r2, r3, r4, r5, pc}
    2ffc:	b001      	add	sp, #4
    2ffe:	2600      	movs	r6, #0
    3000:	bd3f      	pop	{r0, r1, r2, r3, r4, r5, pc}

00003002 <number_nachkommastellen>:
    3002:	0025      	movs	r5, r4
    3004:	2400      	movs	r4, #0
    3006:	2602      	movs	r6, #2
    3008:	2900      	cmp	r1, #0
    300a:	d0e4      	beq.n	2fd6 <Code_822+0x94>
    300c:	5c42      	ldrb	r2, [r0, r1]
    300e:	3901      	subs	r1, #1
    3010:	2a2e      	cmp	r2, #46	; 0x2e
    3012:	d0f9      	beq.n	3008 <number_nachkommastellen+0x6>
    3014:	3f04      	subs	r7, #4
    3016:	603e      	str	r6, [r7, #0]
    3018:	0016      	movs	r6, r2
    301a:	f7ff ff73 	bl	2f04 <digit_base_r3>
    301e:	2e00      	cmp	r6, #0
    3020:	cf40      	ldmia	r7!, {r6}
    3022:	d0eb      	beq.n	2ffc <Code_822+0xba>
    3024:	3f04      	subs	r7, #4
    3026:	603c      	str	r4, [r7, #0]
    3028:	3f04      	subs	r7, #4
    302a:	603e      	str	r6, [r7, #0]
    302c:	001e      	movs	r6, r3
    302e:	b40f      	push	{r0, r1, r2, r3}
    3030:	f7fd fa4d 	bl	4ce <Code_85>
    3034:	bc0f      	pop	{r0, r1, r2, r3}
    3036:	0034      	movs	r4, r6
    3038:	cf40      	ldmia	r7!, {r6}
    303a:	cf40      	ldmia	r7!, {r6}
    303c:	e7e4      	b.n	3008 <number_nachkommastellen+0x6>
    303e:	46c0      	nop			; (mov r8, r8)

00003040 <Dictionary_849>:
    3040:	00003064 	andeq	r3, r0, r4, rrx
    3044:	2e060000 	cdpcs	0, 0, cr0, cr6, cr0, {0}
    3048:	69676964 	stmdbvs	r7!, {r2, r5, r6, r8, fp, sp, lr}^
    304c:	2e0a0074 	mcrcs	0, 0, r0, cr10, cr4, {3}

0000304e <Code_849>:
    304e:	2e0a      	cmp	r6, #10
    3050:	d201      	bcs.n	3056 <Code_849+0x8>
    3052:	3630      	adds	r6, #48	; 0x30
    3054:	4770      	bx	lr
    3056:	2e24      	cmp	r6, #36	; 0x24
    3058:	d201      	bcs.n	305e <Code_849+0x10>
    305a:	3637      	adds	r6, #55	; 0x37
    305c:	4770      	bx	lr
    305e:	2623      	movs	r6, #35	; 0x23
    3060:	4770      	bx	lr
    3062:	46c0      	nop			; (mov r8, r8)

00003064 <Dictionary_850>:
    3064:	0000309c 	muleq	r0, ip, r0
    3068:	68040000 	stmdavs	r4, {}	; <UNPREDICTABLE>
    306c:	00646c6f 	rsbeq	r6, r4, pc, ror #24

00003070 <Code_850>:
    3070:	0033      	movs	r3, r6
    3072:	cf40      	ldmia	r7!, {r6}
    3074:	4878      	ldr	r0, [pc, #480]	; (3258 <Code_883+0xc>)
    3076:	7801      	ldrb	r1, [r0, #0]
    3078:	293f      	cmp	r1, #63	; 0x3f
    307a:	d20d      	bcs.n	3098 <Code_850+0x28>
    307c:	3101      	adds	r1, #1
    307e:	7001      	strb	r1, [r0, #0]
    3080:	1840      	adds	r0, r0, r1
    3082:	2901      	cmp	r1, #1
    3084:	d007      	beq.n	3096 <Code_850+0x26>
    3086:	3801      	subs	r0, #1
    3088:	7802      	ldrb	r2, [r0, #0]
    308a:	3001      	adds	r0, #1
    308c:	7002      	strb	r2, [r0, #0]
    308e:	3801      	subs	r0, #1
    3090:	3901      	subs	r1, #1
    3092:	2901      	cmp	r1, #1
    3094:	d1f7      	bne.n	3086 <Code_850+0x16>
    3096:	7003      	strb	r3, [r0, #0]
    3098:	4770      	bx	lr
    309a:	46c0      	nop			; (mov r8, r8)

0000309c <Dictionary_852>:
    309c:	000030bc 	strheq	r3, [r0], -ip
    30a0:	68050000 	stmdavs	r5, {}	; <UNPREDICTABLE>
    30a4:	3c646c6f 	stclcc	12, cr6, [r4], #-444	; 0xfffffe44

000030a8 <Code_852>:
    30a8:	0033      	movs	r3, r6
    30aa:	cf40      	ldmia	r7!, {r6}
    30ac:	486a      	ldr	r0, [pc, #424]	; (3258 <Code_883+0xc>)
    30ae:	7801      	ldrb	r1, [r0, #0]
    30b0:	293f      	cmp	r1, #63	; 0x3f
    30b2:	d202      	bcs.n	30ba <Code_852+0x12>
    30b4:	3101      	adds	r1, #1
    30b6:	7001      	strb	r1, [r0, #0]
    30b8:	5443      	strb	r3, [r0, r1]
    30ba:	4770      	bx	lr

000030bc <Dictionary_854>:
    30bc:	000030d4 	ldrdeq	r3, [r0], -r4
    30c0:	73040000 	movwvc	r0, #16384	; 0x4000
    30c4:	006e6769 	rsbeq	r6, lr, r9, ror #14

000030c8 <Code_854>:
    30c8:	2e00      	cmp	r6, #0
    30ca:	d401      	bmi.n	30d0 <Code_854+0x8>
    30cc:	cf40      	ldmia	r7!, {r6}
    30ce:	4770      	bx	lr
    30d0:	262d      	movs	r6, #45	; 0x2d
    30d2:	e7cd      	b.n	3070 <Code_850>

000030d4 <Dictionary_856>:
    30d4:	000030e8 	andeq	r3, r0, r8, ror #1
    30d8:	23020000 	movwcs	r0, #8192	; 0x2000
    30dc:	485e003e 	ldmdami	lr, {r1, r2, r3, r4, r5}^

000030de <Code_856>:
    30de:	485e      	ldr	r0, [pc, #376]	; (3258 <Code_883+0xc>)
    30e0:	7806      	ldrb	r6, [r0, #0]
    30e2:	3001      	adds	r0, #1
    30e4:	6038      	str	r0, [r7, #0]
    30e6:	4770      	bx	lr

000030e8 <Dictionary_857>:
    30e8:	00003100 	andeq	r3, r0, r0, lsl #2
    30ec:	66030000 	strvs	r0, [r3], -r0
    30f0:	b5105323 	ldrlt	r5, [r0, #-803]	; 0x323

000030f2 <Code_857>:
    30f2:	b510      	push	{r4, lr}
    30f4:	2420      	movs	r4, #32
    30f6:	f000 f808 	bl	310a <Code_858>
    30fa:	3c01      	subs	r4, #1
    30fc:	d1fb      	bne.n	30f6 <Code_857+0x4>
    30fe:	bd10      	pop	{r4, pc}

00003100 <Dictionary_858>:
    3100:	00003124 	andeq	r3, r0, r4, lsr #2
    3104:	66020000 	strvs	r0, [r2], -r0
    3108:	b5000023 	strlt	r0, [r0, #-35]	; 0x23

0000310a <Code_858>:
    310a:	b500      	push	{lr}
    310c:	3f04      	subs	r7, #4
    310e:	603e      	str	r6, [r7, #0]
    3110:	4e50      	ldr	r6, [pc, #320]	; (3254 <Code_883+0x8>)
    3112:	6836      	ldr	r6, [r6, #0]
    3114:	f7fd f8f9 	bl	30a <Code_47>
    3118:	f7ff ff99 	bl	304e <Code_849>
    311c:	f7ff ffc4 	bl	30a8 <Code_852>
    3120:	bd00      	pop	{pc}
    3122:	46c0      	nop			; (mov r8, r8)

00003124 <Dictionary_860>:
    3124:	00003140 	andeq	r3, r0, r0, asr #2
    3128:	23020000 	movwcs	r0, #8192	; 0x2000
    312c:	b5000053 	strlt	r0, [r0, #-83]	; 0x53

0000312e <Code_860>:
    312e:	b500      	push	{lr}
    3130:	f000 f80a 	bl	3148 <Code_861>
    3134:	2e00      	cmp	r6, #0
    3136:	d1fb      	bne.n	3130 <Code_860+0x2>
    3138:	6838      	ldr	r0, [r7, #0]
    313a:	2800      	cmp	r0, #0
    313c:	d1f8      	bne.n	3130 <Code_860+0x2>
    313e:	bd00      	pop	{pc}

00003140 <Dictionary_861>:
    3140:	0000316c 	andeq	r3, r0, ip, ror #2
    3144:	23010000 	movwcs	r0, #4096	; 0x1000

00003148 <Code_861>:
    3148:	b500      	push	{lr}
    314a:	3f04      	subs	r7, #4
    314c:	603e      	str	r6, [r7, #0]
    314e:	4e41      	ldr	r6, [pc, #260]	; (3254 <Code_883+0x8>)
    3150:	6836      	ldr	r6, [r6, #0]
    3152:	3f04      	subs	r7, #4
    3154:	603e      	str	r6, [r7, #0]
    3156:	2600      	movs	r6, #0
    3158:	f7fd f9d9 	bl	50e <Code_94>
    315c:	f7fc ffe0 	bl	120 <Code_21>
    3160:	cf40      	ldmia	r7!, {r6}
    3162:	f7ff ff74 	bl	304e <Code_849>
    3166:	f7ff ff83 	bl	3070 <Code_850>
    316a:	bd00      	pop	{pc}

0000316c <Dictionary_866>:
    316c:	00003180 	andeq	r3, r0, r0, lsl #3
    3170:	3c020000 	stccc	0, cr0, [r2], {0}
    3174:	48380023 	ldmdami	r8!, {r0, r1, r5}

00003176 <Code_866>:
    3176:	4838      	ldr	r0, [pc, #224]	; (3258 <Code_883+0xc>)
    3178:	2100      	movs	r1, #0
    317a:	7001      	strb	r1, [r0, #0]
    317c:	4770      	bx	lr
    317e:	46c0      	nop			; (mov r8, r8)

00003180 <Dictionary_867>:
    3180:	00003194 	muleq	r0, r4, r1
    3184:	66020000 	strvs	r0, [r2], -r0
    3188:	3f04002e 	svccc	0x0004002e

0000318a <Code_867>:
    318a:	3f04      	subs	r7, #4
    318c:	603e      	str	r6, [r7, #0]
    318e:	2620      	movs	r6, #32
    3190:	e005      	b.n	319e <Code_870>
    3192:	46c0      	nop			; (mov r8, r8)

00003194 <Dictionary_870>:
    3194:	000031e4 	andeq	r3, r0, r4, ror #3
    3198:	66030000 	strvs	r0, [r3], -r0
    319c:	b5006e2e 	strlt	r6, [r0, #-3630]	; 0xe2e

0000319e <Code_870>:
    319e:	b500      	push	{lr}
    31a0:	b410      	push	{r4}
    31a2:	0034      	movs	r4, r6
    31a4:	cf40      	ldmia	r7!, {r6}
    31a6:	f7fd fb49 	bl	83c <Code_131>
    31aa:	f7fd f873 	bl	294 <Code_41>
    31ae:	3f04      	subs	r7, #4
    31b0:	603e      	str	r6, [r7, #0]
    31b2:	2600      	movs	r6, #0
    31b4:	f7ff ffdf 	bl	3176 <Code_866>
    31b8:	f7ff ffb9 	bl	312e <Code_860>
    31bc:	cf40      	ldmia	r7!, {r6}
    31be:	262c      	movs	r6, #44	; 0x2c
    31c0:	f7ff ff72 	bl	30a8 <Code_852>
    31c4:	2c00      	cmp	r4, #0
    31c6:	d003      	beq.n	31d0 <Code_870+0x32>
    31c8:	f7ff ff9f 	bl	310a <Code_858>
    31cc:	3c01      	subs	r4, #1
    31ce:	d1fb      	bne.n	31c8 <Code_870+0x2a>
    31d0:	bc10      	pop	{r4}
    31d2:	cf40      	ldmia	r7!, {r6}
    31d4:	f7ff ff78 	bl	30c8 <Code_854>
    31d8:	3f04      	subs	r7, #4
    31da:	603e      	str	r6, [r7, #0]
    31dc:	3f04      	subs	r7, #4
    31de:	603e      	str	r6, [r7, #0]
    31e0:	e01e      	b.n	3220 <abschluss_zahlenausgabe>
    31e2:	46c0      	nop			; (mov r8, r8)

000031e4 <Dictionary_878>:
    31e4:	000031fc 	strdeq	r3, [r0], -ip
    31e8:	75030000 	strvc	r0, [r3]
    31ec:	b5002e64 	strlt	r2, [r0, #-3684]	; 0xe64

000031ee <Code_878>:
    31ee:	b500      	push	{lr}
    31f0:	f7ff ffc1 	bl	3176 <Code_866>
    31f4:	f7ff ff9b 	bl	312e <Code_860>
    31f8:	e012      	b.n	3220 <abschluss_zahlenausgabe>
    31fa:	46c0      	nop			; (mov r8, r8)

000031fc <Dictionary_879>:
    31fc:	00003230 	andeq	r3, r0, r0, lsr r2
    3200:	64020000 	strvs	r0, [r2]
    3204:	b500002e 	strlt	r0, [r0, #-46]	; 0x2e

00003206 <Code_879>:
    3206:	b500      	push	{lr}
    3208:	f7fd fb18 	bl	83c <Code_131>
    320c:	f7fd f842 	bl	294 <Code_41>
    3210:	f7ff ffb1 	bl	3176 <Code_866>
    3214:	f7ff ff8b 	bl	312e <Code_860>
    3218:	f7fd fb1b 	bl	852 <Code_132>
    321c:	f7ff ff54 	bl	30c8 <Code_854>

00003220 <abschluss_zahlenausgabe>:
    3220:	f7ff ff5d 	bl	30de <Code_856>
    3224:	f7fe fb90 	bl	1948 <Code_381>
    3228:	f7fe fadc 	bl	17e4 <Code_346>
    322c:	bd00      	pop	{pc}
    322e:	46c0      	nop			; (mov r8, r8)

00003230 <Dictionary_880>:
    3230:	00003244 	andeq	r3, r0, r4, asr #4
    3234:	75020000 	strvc	r0, [r2]
    3238:	3f04002e 	svccc	0x0004002e

0000323a <Code_880>:
    323a:	3f04      	subs	r7, #4
    323c:	603e      	str	r6, [r7, #0]
    323e:	2600      	movs	r6, #0
    3240:	e7d5      	b.n	31ee <Code_878>
    3242:	46c0      	nop			; (mov r8, r8)

00003244 <Dictionary_883>:
    3244:	0000325c 	andeq	r3, r0, ip, asr r2
    3248:	2e010000 	cdpcs	0, 0, cr0, cr1, cr0, {0}

0000324c <Code_883>:
    324c:	3f04      	subs	r7, #4
    324e:	603e      	str	r6, [r7, #0]
    3250:	17f6      	asrs	r6, r6, #31
    3252:	e7d8      	b.n	3206 <Code_879>
    3254:	20003ffc 	strdcs	r3, [r0], -ip
    3258:	20000028 	andcs	r0, r0, r8, lsr #32

0000325c <Dictionary_885>:
    325c:	000032a4 	andeq	r3, r0, r4, lsr #5
    3260:	65080000 	strvs	r0, [r8]
    3264:	756c6176 	strbvc	r6, [ip, #-374]!	; 0x176
    3268:	00657461 	rsbeq	r7, r5, r1, ror #8

0000326c <Code_885>:
    326c:	b500      	push	{lr}
    326e:	f7fe fa52 	bl	1716 <Code_329>
    3272:	cf01      	ldmia	r7!, {r0}
    3274:	b401      	push	{r0}
    3276:	b440      	push	{r6}
    3278:	cf40      	ldmia	r7!, {r6}
    327a:	48c1      	ldr	r0, [pc, #772]	; (3580 <quit_innenschleife+0x14>)
    327c:	6801      	ldr	r1, [r0, #0]
    327e:	b402      	push	{r1}
    3280:	2100      	movs	r1, #0
    3282:	6001      	str	r1, [r0, #0]
    3284:	f7fe fa3a 	bl	16fc <Code_327>
    3288:	f000 f814 	bl	32b4 <Code_887>
    328c:	48bc      	ldr	r0, [pc, #752]	; (3580 <quit_innenschleife+0x14>)
    328e:	bc02      	pop	{r1}
    3290:	6001      	str	r1, [r0, #0]
    3292:	3f04      	subs	r7, #4
    3294:	603e      	str	r6, [r7, #0]
    3296:	bc40      	pop	{r6}
    3298:	bc01      	pop	{r0}
    329a:	3f04      	subs	r7, #4
    329c:	6038      	str	r0, [r7, #0]
    329e:	f7fe fa2d 	bl	16fc <Code_327>
    32a2:	bd00      	pop	{pc}

000032a4 <Dictionary_887>:
    32a4:	0000351c 	andeq	r3, r0, ip, lsl r5
    32a8:	69090000 	stmdbvs	r9, {}	; <UNPREDICTABLE>
    32ac:	7265746e 	rsbvc	r7, r5, #1845493760	; 0x6e000000
    32b0:	74657270 	strbtvc	r7, [r5], #-624	; 0x270

000032b4 <Code_887>:
    32b4:	b530      	push	{r4, r5, lr}
    32b6:	48b3      	ldr	r0, [pc, #716]	; (3584 <quit_innenschleife+0x18>)
    32b8:	4287      	cmp	r7, r0
    32ba:	d90b      	bls.n	32d4 <Code_887+0x20>
    32bc:	f7fe fae4 	bl	1888 <dotgaensefuesschen>
    32c0:	61745310 	cmnvs	r4, r0, lsl r3
    32c4:	75206b63 	strvc	r6, [r0, #-2915]!	; 0xb63
    32c8:	7265646e 	rsbvc	r6, r5, #1845493760	; 0x6e000000
    32cc:	776f6c66 	strbvc	r6, [pc, -r6, ror #24]!
    32d0:	e137000a 	teq	r7, sl
    32d4:	48ac      	ldr	r0, [pc, #688]	; (3588 <quit_innenschleife+0x1c>)
    32d6:	4287      	cmp	r7, r0
    32d8:	d20a      	bcs.n	32f0 <Code_887+0x3c>
    32da:	f7fe fad5 	bl	1888 <dotgaensefuesschen>
    32de:	6174530f 	cmnvs	r4, pc, lsl #6
    32e2:	6f206b63 	svcvs	0x00206b63
    32e6:	66726576 			; <UNDEFINED> instruction: 0x66726576
    32ea:	0a776f6c 	beq	1ddf0a2 <BAUD115200+0x610a2>
    32ee:	e129      	b.n	3544 <Code_938>
    32f0:	4ca6      	ldr	r4, [pc, #664]	; (358c <quit_innenschleife+0x20>)
    32f2:	6825      	ldr	r5, [r4, #0]
    32f4:	2d00      	cmp	r5, #0
    32f6:	d101      	bne.n	32fc <Code_887+0x48>
    32f8:	003d      	movs	r5, r7
    32fa:	6025      	str	r5, [r4, #0]
    32fc:	f7ff fdb0 	bl	2e60 <Code_815>
    3300:	2e00      	cmp	r6, #0
    3302:	d102      	bne.n	330a <Code_887+0x56>
    3304:	3704      	adds	r7, #4
    3306:	cf40      	ldmia	r7!, {r6}
    3308:	bd30      	pop	{r4, r5, pc}
    330a:	6838      	ldr	r0, [r7, #0]
    330c:	3f04      	subs	r7, #4
    330e:	603e      	str	r6, [r7, #0]
    3310:	3f04      	subs	r7, #4
    3312:	6038      	str	r0, [r7, #0]
    3314:	f7ff fa5e 	bl	27d4 <Code_656>
    3318:	0031      	movs	r1, r6
    331a:	cf40      	ldmia	r7!, {r6}
    331c:	0032      	movs	r2, r6
    331e:	cf40      	ldmia	r7!, {r6}
    3320:	2a00      	cmp	r2, #0
    3322:	d113      	bne.n	334c <not_found_addr_r0_len_r1+0x18>
    3324:	6838      	ldr	r0, [r7, #0]
    3326:	0031      	movs	r1, r6
    3328:	f7ff fe0b 	bl	2f42 <Code_822>
    332c:	0032      	movs	r2, r6
    332e:	cf40      	ldmia	r7!, {r6}
    3330:	2a00      	cmp	r2, #0
    3332:	d1c0      	bne.n	32b6 <Code_887+0x2>

00003334 <not_found_addr_r0_len_r1>:
    3334:	f7fe fb0c 	bl	1950 <stype_addr_r0_len_r1>
    3338:	f7fe faa6 	bl	1888 <dotgaensefuesschen>
    333c:	6f6e200c 	svcvs	0x006e200c
    3340:	6f662074 	svcvs	0x00662074
    3344:	2e646e75 	mcrcs	14, 3, r6, cr4, cr5, {3}
    3348:	e0fb000a 	rscs	r0, fp, sl
    334c:	4b90      	ldr	r3, [pc, #576]	; (3590 <quit_innenschleife+0x24>)
    334e:	681b      	ldr	r3, [r3, #0]
    3350:	2b00      	cmp	r3, #0
    3352:	d11d      	bne.n	3390 <.ausfuehren+0x12>
    3354:	2500      	movs	r5, #0
    3356:	6025      	str	r5, [r4, #0]
    3358:	2330      	movs	r3, #48	; 0x30
    335a:	400b      	ands	r3, r1
    335c:	2b30      	cmp	r3, #48	; 0x30
    335e:	d10e      	bne.n	337e <.ausfuehren>
    3360:	f7fe faf2 	bl	1948 <Code_381>
    3364:	f7fe fa90 	bl	1888 <dotgaensefuesschen>
    3368:	73692012 	cmnvc	r9, #18
    336c:	6d6f6320 	stclvs	3, cr6, [pc, #-128]!	; 32f4 <Code_887+0x40>
    3370:	656c6970 	strbvs	r6, [ip, #-2416]!	; 0x970
    3374:	6c6e6f2d 	stclvs	15, cr6, [lr], #-180	; 0xffffff4c
    3378:	000a2e79 	andeq	r2, sl, r9, ror lr
    337c:	e0e2      	b.n	3544 <Code_938>

0000337e <.ausfuehren>:
    337e:	3704      	adds	r7, #4
    3380:	cf40      	ldmia	r7!, {r6}
    3382:	3f04      	subs	r7, #4
    3384:	603e      	str	r6, [r7, #0]
    3386:	0016      	movs	r6, r2
    3388:	f7fe fe0f 	bl	1faa <Code_509>
    338c:	f7ff ff93 	bl	32b6 <Code_887+0x2>
    3390:	3704      	adds	r7, #4
    3392:	cf40      	ldmia	r7!, {r6}
    3394:	2080      	movs	r0, #128	; 0x80
    3396:	4008      	ands	r0, r1
    3398:	d10e      	bne.n	33b8 <.interpret_faltoptimierung>
    339a:	1beb      	subs	r3, r5, r7
    339c:	089b      	lsrs	r3, r3, #2
    339e:	2040      	movs	r0, #64	; 0x40
    33a0:	4008      	ands	r0, r1
    33a2:	d00f      	beq.n	33c4 <.konstantenschleife>
    33a4:	2008      	movs	r0, #8
    33a6:	4008      	ands	r0, r1
    33a8:	d002      	beq.n	33b0 <.interpret_genugkonstanten>
    33aa:	2b00      	cmp	r3, #0
    33ac:	d000      	beq.n	33b0 <.interpret_genugkonstanten>
    33ae:	e01d      	b.n	33ec <.interpret_opcodierbar>

000033b0 <.interpret_genugkonstanten>:
    33b0:	200f      	movs	r0, #15
    33b2:	4008      	ands	r0, r1
    33b4:	4283      	cmp	r3, r0
    33b6:	d305      	bcc.n	33c4 <.konstantenschleife>

000033b8 <.interpret_faltoptimierung>:
    33b8:	3f04      	subs	r7, #4
    33ba:	603e      	str	r6, [r7, #0]
    33bc:	0016      	movs	r6, r2
    33be:	f7fe fdf4 	bl	1faa <Code_509>
    33c2:	e778      	b.n	32b6 <Code_887+0x2>

000033c4 <.konstantenschleife>:
    33c4:	f000 f897 	bl	34f6 <konstantenschreiben>
    33c8:	3f04      	subs	r7, #4
    33ca:	603e      	str	r6, [r7, #0]
    33cc:	0016      	movs	r6, r2
    33ce:	2210      	movs	r2, #16
    33d0:	400a      	ands	r2, r1
    33d2:	d002      	beq.n	33da <.konstantenschleife+0x16>
    33d4:	f7fe fde9 	bl	1faa <Code_509>
    33d8:	e76d      	b.n	32b6 <Code_887+0x2>
    33da:	2220      	movs	r2, #32
    33dc:	400a      	ands	r2, r1
    33de:	d002      	beq.n	33e6 <.konstantenschleife+0x22>
    33e0:	f7fe fd49 	bl	1e76 <Code_487>
    33e4:	e767      	b.n	32b6 <Code_887+0x2>
    33e6:	f7fe fc3f 	bl	1c68 <Code_448>
    33ea:	e764      	b.n	32b6 <Code_887+0x2>

000033ec <.interpret_opcodierbar>:
    33ec:	2007      	movs	r0, #7
    33ee:	4001      	ands	r1, r0
    33f0:	0010      	movs	r0, r2
    33f2:	f7fe fd54 	bl	1e9e <suchedefinitionsende>
    33f6:	2901      	cmp	r1, #1
    33f8:	d115      	bne.n	3426 <.interpret_opcodierbar_rechenlogik>
    33fa:	2b01      	cmp	r3, #1
    33fc:	d1dc      	bne.n	33b8 <.interpret_faltoptimierung>
    33fe:	21ff      	movs	r1, #255	; 0xff
    3400:	4031      	ands	r1, r6
    3402:	42b1      	cmp	r1, r6
    3404:	d104      	bne.n	3410 <.interpret_opcodieren_ueber_r0>
    3406:	8840      	ldrh	r0, [r0, #2]
    3408:	4306      	orrs	r6, r0
    340a:	f7fe ff20 	bl	224e <Code_562>
    340e:	e752      	b.n	32b6 <Code_887+0x2>

00003410 <.interpret_opcodieren_ueber_r0>:
    3410:	3f04      	subs	r7, #4
    3412:	603e      	str	r6, [r7, #0]
    3414:	2600      	movs	r6, #0
    3416:	f7fe fb85 	bl	1b24 <Code_421>
    341a:	3f04      	subs	r7, #4
    341c:	603e      	str	r6, [r7, #0]
    341e:	8806      	ldrh	r6, [r0, #0]
    3420:	f7fe ff15 	bl	224e <Code_562>
    3424:	e747      	b.n	32b6 <Code_887+0x2>

00003426 <.interpret_opcodierbar_rechenlogik>:
    3426:	2902      	cmp	r1, #2
    3428:	d102      	bne.n	3430 <.interpret_opcodierbar_gleichungleich>
    342a:	2b01      	cmp	r3, #1
    342c:	d1c4      	bne.n	33b8 <.interpret_faltoptimierung>
    342e:	e7ef      	b.n	3410 <.interpret_opcodieren_ueber_r0>

00003430 <.interpret_opcodierbar_gleichungleich>:
    3430:	2903      	cmp	r1, #3
    3432:	d11c      	bne.n	346e <.interpret_opcodierbar_schieben>
    3434:	2b01      	cmp	r3, #1
    3436:	d1bf      	bne.n	33b8 <.interpret_faltoptimierung>
    3438:	21ff      	movs	r1, #255	; 0xff
    343a:	4031      	ands	r1, r6
    343c:	42b1      	cmp	r1, r6
    343e:	d10a      	bne.n	3456 <.interpret_opcodierbar_gleichungleich+0x26>
    3440:	4954      	ldr	r1, [pc, #336]	; (3594 <quit_innenschleife+0x28>)
    3442:	430e      	orrs	r6, r1
    3444:	f7fe ff03 	bl	224e <Code_562>
    3448:	3204      	adds	r2, #4
    344a:	3f04      	subs	r7, #4
    344c:	603e      	str	r6, [r7, #0]
    344e:	0016      	movs	r6, r2
    3450:	f7fe fd11 	bl	1e76 <Code_487>
    3454:	e72f      	b.n	32b6 <Code_887+0x2>
    3456:	3f04      	subs	r7, #4
    3458:	603e      	str	r6, [r7, #0]
    345a:	2600      	movs	r6, #0
    345c:	f7fe fb62 	bl	1b24 <Code_421>
    3460:	3202      	adds	r2, #2
    3462:	3f04      	subs	r7, #4
    3464:	603e      	str	r6, [r7, #0]
    3466:	0016      	movs	r6, r2
    3468:	f7fe fd05 	bl	1e76 <Code_487>
    346c:	e723      	b.n	32b6 <Code_887+0x2>

0000346e <.interpret_opcodierbar_schieben>:
    346e:	2904      	cmp	r1, #4
    3470:	d118      	bne.n	34a4 <.interpret_opcodierbar_speicherschreiben>
    3472:	2b01      	cmp	r3, #1
    3474:	d1a0      	bne.n	33b8 <.interpret_faltoptimierung>
    3476:	0033      	movs	r3, r6
    3478:	cf40      	ldmia	r7!, {r6}
    347a:	2b00      	cmp	r3, #0
    347c:	d100      	bne.n	3480 <.interpret_opcodierbar_schieben+0x12>
    347e:	e71a      	b.n	32b6 <Code_887+0x2>
    3480:	221f      	movs	r2, #31
    3482:	401a      	ands	r2, r3
    3484:	429a      	cmp	r2, r3
    3486:	d005      	beq.n	3494 <.interpret_opcodierbar_schieben+0x26>
    3488:	3f04      	subs	r7, #4
    348a:	603e      	str	r6, [r7, #0]
    348c:	8846      	ldrh	r6, [r0, #2]
    348e:	f7fe fede 	bl	224e <Code_562>
    3492:	e710      	b.n	32b6 <Code_887+0x2>
    3494:	3f04      	subs	r7, #4
    3496:	603e      	str	r6, [r7, #0]
    3498:	8806      	ldrh	r6, [r0, #0]
    349a:	019b      	lsls	r3, r3, #6
    349c:	431e      	orrs	r6, r3
    349e:	f7fe fed6 	bl	224e <Code_562>
    34a2:	e708      	b.n	32b6 <Code_887+0x2>

000034a4 <.interpret_opcodierbar_speicherschreiben>:
    34a4:	2905      	cmp	r1, #5
    34a6:	d123      	bne.n	34f0 <.interpret_opcodierbar_andere>
    34a8:	2b01      	cmp	r3, #1
    34aa:	d10f      	bne.n	34cc <.interpret_opcodierbar_speicherschreiben+0x28>
    34ac:	3f04      	subs	r7, #4
    34ae:	603e      	str	r6, [r7, #0]
    34b0:	2600      	movs	r6, #0
    34b2:	f7fe fb37 	bl	1b24 <Code_421>
    34b6:	3f04      	subs	r7, #4
    34b8:	603e      	str	r6, [r7, #0]
    34ba:	0006      	movs	r6, r0
    34bc:	f7fe fcdb 	bl	1e76 <Code_487>
    34c0:	3f04      	subs	r7, #4
    34c2:	603e      	str	r6, [r7, #0]
    34c4:	4e34      	ldr	r6, [pc, #208]	; (3598 <quit_innenschleife+0x2c>)
    34c6:	f7fe fec2 	bl	224e <Code_562>
    34ca:	e6f4      	b.n	32b6 <Code_887+0x2>
    34cc:	3f04      	subs	r7, #4
    34ce:	603e      	str	r6, [r7, #0]
    34d0:	2600      	movs	r6, #0
    34d2:	f7fe fb27 	bl	1b24 <Code_421>
    34d6:	3f04      	subs	r7, #4
    34d8:	603e      	str	r6, [r7, #0]
    34da:	2601      	movs	r6, #1
    34dc:	f7fe fb22 	bl	1b24 <Code_421>
    34e0:	f7fe fcdd 	bl	1e9e <suchedefinitionsende>
    34e4:	3f04      	subs	r7, #4
    34e6:	603e      	str	r6, [r7, #0]
    34e8:	0006      	movs	r6, r0
    34ea:	f7fe fcc4 	bl	1e76 <Code_487>
    34ee:	e6e2      	b.n	32b6 <Code_887+0x2>

000034f0 <.interpret_opcodierbar_andere>:
    34f0:	3001      	adds	r0, #1
    34f2:	4780      	blx	r0
    34f4:	e6df      	b.n	32b6 <Code_887+0x2>

000034f6 <konstantenschreiben>:
    34f6:	b500      	push	{lr}
    34f8:	2b00      	cmp	r3, #0
    34fa:	d00b      	beq.n	3514 <.konstanteninnenschleife+0x18>

000034fc <.konstanteninnenschleife>:
    34fc:	3b01      	subs	r3, #1
    34fe:	3f04      	subs	r7, #4
    3500:	603e      	str	r6, [r7, #0]
    3502:	009e      	lsls	r6, r3, #2
    3504:	59be      	ldr	r6, [r7, r6]
    3506:	f7fe fbe9 	bl	1cdc <Code_457>
    350a:	2b00      	cmp	r3, #0
    350c:	d1f6      	bne.n	34fc <.konstanteninnenschleife>
    350e:	3d04      	subs	r5, #4
    3510:	002f      	movs	r7, r5
    3512:	cf40      	ldmia	r7!, {r6}
    3514:	2500      	movs	r5, #0
    3516:	6025      	str	r5, [r4, #0]
    3518:	bd00      	pop	{pc}
    351a:	46c0      	nop			; (mov r8, r8)

0000351c <Dictionary_935>:
    351c:	00003538 	andeq	r3, r0, r8, lsr r5
    3520:	68090081 	stmdavs	r9, {r0, r7}
    3524:	2d6b6f6f 	stclcs	15, cr6, [fp, #-444]!	; 0xfffffe44
    3528:	74697571 	strbtvc	r7, [r9], #-1393	; 0x571

0000352c <Code_935>:
    352c:	3f04      	subs	r7, #4
    352e:	603e      	str	r6, [r7, #0]
    3530:	4e1a      	ldr	r6, [pc, #104]	; (359c <quit_innenschleife+0x30>)
    3532:	4770      	bx	lr
    3534:	0000356c 	andeq	r3, r0, ip, ror #10

00003538 <Dictionary_938>:
    3538:	000035b0 			; <UNDEFINED> instruction: 0x000035b0
    353c:	71040000 	mrsvc	r0, (UNDEF: 4)
    3540:	00746975 	rsbseq	r6, r4, r5, ror r9

00003544 <Code_938>:
    3544:	4816      	ldr	r0, [pc, #88]	; (35a0 <quit_innenschleife+0x34>)
    3546:	4685      	mov	sp, r0
    3548:	4f0e      	ldr	r7, [pc, #56]	; (3584 <quit_innenschleife+0x18>)
    354a:	4816      	ldr	r0, [pc, #88]	; (35a4 <quit_innenschleife+0x38>)
    354c:	210a      	movs	r1, #10
    354e:	6001      	str	r1, [r0, #0]
    3550:	480f      	ldr	r0, [pc, #60]	; (3590 <quit_innenschleife+0x24>)
    3552:	2100      	movs	r1, #0
    3554:	6001      	str	r1, [r0, #0]
    3556:	480d      	ldr	r0, [pc, #52]	; (358c <quit_innenschleife+0x20>)
    3558:	6001      	str	r1, [r0, #0]
    355a:	4809      	ldr	r0, [pc, #36]	; (3580 <quit_innenschleife+0x14>)
    355c:	6001      	str	r1, [r0, #0]
    355e:	4812      	ldr	r0, [pc, #72]	; (35a8 <quit_innenschleife+0x3c>)
    3560:	6001      	str	r1, [r0, #0]
    3562:	4912      	ldr	r1, [pc, #72]	; (35ac <quit_innenschleife+0x40>)
    3564:	6041      	str	r1, [r0, #4]

00003566 <quit_intern>:
    3566:	480d      	ldr	r0, [pc, #52]	; (359c <quit_innenschleife+0x30>)
    3568:	6800      	ldr	r0, [r0, #0]
    356a:	4687      	mov	pc, r0

0000356c <quit_innenschleife>:
    356c:	f7fe f8e2 	bl	1734 <Code_331>
    3570:	f7ff fea0 	bl	32b4 <Code_887>
    3574:	f7fe f988 	bl	1888 <dotgaensefuesschen>
    3578:	6b6f2005 	blvs	1bcb594 <BIT24+0xbcb594>
    357c:	e7f50a2e 	ldrb	r0, [r5, lr, lsr #20]!
    3580:	20003fe4 	andcs	r3, r0, r4, ror #31
    3584:	20000230 	andcs	r0, r0, r0, lsr r2
    3588:	20000130 	andcs	r0, r0, r0, lsr r1
    358c:	20000008 	andcs	r0, r0, r8
    3590:	20003fd8 	ldrdcs	r3, [r0], -r8
    3594:	00003e00 	andeq	r3, r0, r0, lsl #28
    3598:	0000cf40 	andeq	ip, r0, r0, asr #30
    359c:	20003fd4 	ldrdcs	r3, [r0], -r4
    35a0:	20000330 	andcs	r0, r0, r0, lsr r3
    35a4:	20003ffc 	strdcs	r3, [r0], -ip
    35a8:	20003fdc 	ldrdcs	r3, [r0], -ip
    35ac:	20000068 	andcs	r0, r0, r8, rrx

000035b0 <Dictionary_940>:
    35b0:	000035cc 	andeq	r3, r0, ip, asr #11
    35b4:	65050000 	strvs	r0, [r5]
    35b8:	3f746e69 	svccc	0x00746e69

000035bc <Code_940>:
    35bc:	3f04      	subs	r7, #4
    35be:	603e      	str	r6, [r7, #0]
    35c0:	f3ef 8610 	mrs	r6, PRIMASK
    35c4:	3e01      	subs	r6, #1
    35c6:	41b6      	sbcs	r6, r6
    35c8:	4770      	bx	lr
    35ca:	46c0      	nop			; (mov r8, r8)

000035cc <Dictionary_942>:
    35cc:	000035dc 	ldrdeq	r3, [r0], -ip
    35d0:	65040020 	strvs	r0, [r4, #-32]
    35d4:	00746e69 	rsbseq	r6, r4, r9, ror #28

000035d8 <Code_942>:
    35d8:	b662      	cpsie	i
    35da:	4770      	bx	lr

000035dc <Dictionary_943>:
    35dc:	000035ec 	andeq	r3, r0, ip, ror #11
    35e0:	64040020 	strvs	r0, [r4], #-32
    35e4:	00746e69 	rsbseq	r6, r4, r9, ror #28

000035e8 <Code_943>:
    35e8:	b672      	cpsid	i
    35ea:	4770      	bx	lr

000035ec <Dictionary_944>:
    35ec:	00003604 	andeq	r3, r0, r4, lsl #12
    35f0:	69040020 	stmdbvs	r4, {r5}
    35f4:	00727370 	rsbseq	r7, r2, r0, ror r3

000035f8 <Code_944>:
    35f8:	3f04      	subs	r7, #4
    35fa:	603e      	str	r6, [r7, #0]
    35fc:	f3ef 8605 	mrs	r6, IPSR
    3600:	4770      	bx	lr
    3602:	46c0      	nop			; (mov r8, r8)

00003604 <Dictionary_946>:
    3604:	00003610 	andeq	r3, r0, r0, lsl r6
    3608:	6e030000 	cdpvs	0, 0, cr0, cr3, cr0, {0}
    360c:	4770706f 	ldrbmi	r7, [r0, -pc, rrx]!

0000360e <Code_946>:
    360e:	4770      	bx	lr

00003610 <Dictionary_947>:
    3610:	00003654 	andeq	r3, r0, r4, asr r6
    3614:	75090000 	strvc	r0, [r9]
    3618:	6e61686e 	cdpvs	8, 6, cr6, cr1, cr14, {3}
    361c:	64656c64 	strbtvs	r6, [r5], #-3172	; 0xc64

00003620 <Code_947>:
    3620:	b500      	push	{lr}
    3622:	f7fe f931 	bl	1888 <dotgaensefuesschen>
    3626:	686e5514 	stmdavs	lr!, {r2, r4, r8, sl, ip, lr}^
    362a:	6c646e61 	stclvs	14, cr6, [r4], #-388	; 0xfffffe7c
    362e:	49206465 	stmdbmi	r0!, {r0, r2, r5, r6, sl, sp, lr}
    3632:	7265746e 	rsbvc	r7, r5, #1845493760	; 0x6e000000
    3636:	74707572 	ldrbtvc	r7, [r0], #-1394	; 0x572
    363a:	3f040020 	svccc	0x00040020
    363e:	603e      	str	r6, [r7, #0]
    3640:	f3ef 8605 	mrs	r6, IPSR
    3644:	f7fe f998 	bl	1978 <Code_385>
    3648:	f7fe f91e 	bl	1888 <dotgaensefuesschen>
    364c:	000a2102 	andeq	r2, sl, r2, lsl #2
    3650:	bd00      	pop	{pc}
    3652:	46c0      	nop			; (mov r8, r8)

00003654 <Dictionary_951>:
    3654:	00003668 	andeq	r3, r0, r8, ror #12
    3658:	72050000 	andvc	r0, r5, #0
    365c:	74657365 	strbtvc	r7, [r5], #-869	; 0x365

00003660 <Code_951>:
    3660:	48fa      	ldr	r0, [pc, #1000]	; (3a4c <irq_vektor_swi5+0x8>)
    3662:	49fb      	ldr	r1, [pc, #1004]	; (3a50 <irq_vektor_swi5+0xc>)
    3664:	6001      	str	r1, [r0, #0]
    3666:	46c0      	nop			; (mov r8, r8)

00003668 <Dictionary_953>:
    3668:	0000368c 	andeq	r3, r0, ip, lsl #13
    366c:	690b0081 	stmdbvs	fp, {r0, r7}
    3670:	732d7172 	teqvc	sp, #-2147483620	; 0x8000001c
    3674:	69747379 	ldmdbvs	r4!, {r0, r3, r4, r5, r6, r8, r9, ip, sp, lr}^
    3678:	3f046b63 	svccc	0x00046b63

0000367a <Code_953>:
    367a:	3f04      	subs	r7, #4
    367c:	603e      	str	r6, [r7, #0]
    367e:	4ef5      	ldr	r6, [pc, #980]	; (3a54 <irq_vektor_swi5+0x10>)
    3680:	4770      	bx	lr
    3682:	00003620 	andeq	r3, r0, r0, lsr #12

00003686 <irq_vektor_systick>:
    3686:	48f3      	ldr	r0, [pc, #972]	; (3a54 <irq_vektor_swi5+0x10>)
    3688:	6800      	ldr	r0, [r0, #0]
    368a:	4687      	mov	pc, r0

0000368c <Dictionary_957>:
    368c:	000036b0 			; <UNDEFINED> instruction: 0x000036b0
    3690:	69090081 	stmdbvs	r9, {r0, r7}
    3694:	662d7172 			; <UNDEFINED> instruction: 0x662d7172
    3698:	746c7561 	strbtvc	r7, [ip], #-1377	; 0x561

0000369c <Code_957>:
    369c:	3f04      	subs	r7, #4
    369e:	603e      	str	r6, [r7, #0]
    36a0:	4eed      	ldr	r6, [pc, #948]	; (3a58 <irq_vektor_swi5+0x14>)
    36a2:	4770      	bx	lr
    36a4:	00003620 	andeq	r3, r0, r0, lsr #12

000036a8 <faulthandler>:
    36a8:	48eb      	ldr	r0, [pc, #940]	; (3a58 <irq_vektor_swi5+0x14>)
    36aa:	6800      	ldr	r0, [r0, #0]
    36ac:	4687      	mov	pc, r0
    36ae:	46c0      	nop			; (mov r8, r8)

000036b0 <Dictionary_961>:
    36b0:	000036d8 	ldrdeq	r3, [r0], -r8
    36b4:	690e0081 	stmdbvs	lr, {r0, r7}
    36b8:	632d7172 	teqvs	sp, #-2147483620	; 0x8000001c
    36bc:	656c6c6f 	strbvs	r6, [ip, #-3183]!	; 0xc6f
    36c0:	6f697463 	svcvs	0x00697463
    36c4:	3f04006e 	svccc	0x0004006e

000036c6 <Code_961>:
    36c6:	3f04      	subs	r7, #4
    36c8:	603e      	str	r6, [r7, #0]
    36ca:	4ee4      	ldr	r6, [pc, #912]	; (3a5c <irq_vektor_swi5+0x18>)
    36cc:	4770      	bx	lr
    36ce:	00003620 	andeq	r3, r0, r0, lsr #12

000036d2 <nullhandler>:
    36d2:	48e2      	ldr	r0, [pc, #904]	; (3a5c <irq_vektor_swi5+0x18>)
    36d4:	6800      	ldr	r0, [r0, #0]
    36d6:	4687      	mov	pc, r0

000036d8 <Dictionary_965>:
    36d8:	000036fc 	strdeq	r3, [r0], -ip
    36dc:	69090081 	stmdbvs	r9, {r0, r7}
    36e0:	702d7172 	eorvc	r7, sp, r2, ror r1
    36e4:	7265776f 	rsbvc	r7, r5, #29097984	; 0x1bc0000

000036e8 <Code_965>:
    36e8:	3f04      	subs	r7, #4
    36ea:	603e      	str	r6, [r7, #0]
    36ec:	4edc      	ldr	r6, [pc, #880]	; (3a60 <irq_vektor_swi5+0x1c>)
    36ee:	4770      	bx	lr
    36f0:	00003620 	andeq	r3, r0, r0, lsr #12

000036f4 <irq_vektor_power>:
    36f4:	48da      	ldr	r0, [pc, #872]	; (3a60 <irq_vektor_swi5+0x1c>)
    36f6:	6800      	ldr	r0, [r0, #0]
    36f8:	4687      	mov	pc, r0
    36fa:	46c0      	nop			; (mov r8, r8)

000036fc <Dictionary_969>:
    36fc:	00003720 	andeq	r3, r0, r0, lsr #14
    3700:	69090081 	stmdbvs	r9, {r0, r7}
    3704:	722d7172 	eorvc	r7, sp, #-2147483620	; 0x8000001c
    3708:	6f696461 	svcvs	0x00696461

0000370c <Code_969>:
    370c:	3f04      	subs	r7, #4
    370e:	603e      	str	r6, [r7, #0]
    3710:	4ed4      	ldr	r6, [pc, #848]	; (3a64 <irq_vektor_swi5+0x20>)
    3712:	4770      	bx	lr
    3714:	00003620 	andeq	r3, r0, r0, lsr #12

00003718 <irq_vektor_radio>:
    3718:	48d2      	ldr	r0, [pc, #840]	; (3a64 <irq_vektor_swi5+0x20>)
    371a:	6800      	ldr	r0, [r0, #0]
    371c:	4687      	mov	pc, r0
    371e:	46c0      	nop			; (mov r8, r8)

00003720 <Dictionary_973>:
    3720:	00003744 	andeq	r3, r0, r4, asr #14
    3724:	69080081 	stmdbvs	r8, {r0, r7}
    3728:	752d7172 	strvc	r7, [sp, #-370]!	; 0x172
    372c:	00747261 	rsbseq	r7, r4, r1, ror #4

00003730 <Code_973>:
    3730:	3f04      	subs	r7, #4
    3732:	603e      	str	r6, [r7, #0]
    3734:	4ecc      	ldr	r6, [pc, #816]	; (3a68 <irq_vektor_swi5+0x24>)
    3736:	4770      	bx	lr
    3738:	00003620 	andeq	r3, r0, r0, lsr #12

0000373c <irq_vektor_uart>:
    373c:	48ca      	ldr	r0, [pc, #808]	; (3a68 <irq_vektor_swi5+0x24>)
    373e:	6800      	ldr	r0, [r0, #0]
    3740:	4687      	mov	pc, r0
    3742:	46c0      	nop			; (mov r8, r8)

00003744 <Dictionary_977>:
    3744:	00003768 	andeq	r3, r0, r8, ror #14
    3748:	69080081 	stmdbvs	r8, {r0, r7}
    374c:	732d7172 	teqvc	sp, #-2147483620	; 0x8000001c
    3750:	00306970 	eorseq	r6, r0, r0, ror r9

00003754 <Code_977>:
    3754:	3f04      	subs	r7, #4
    3756:	603e      	str	r6, [r7, #0]
    3758:	4ec4      	ldr	r6, [pc, #784]	; (3a6c <irq_vektor_swi5+0x28>)
    375a:	4770      	bx	lr
    375c:	00003620 	andeq	r3, r0, r0, lsr #12

00003760 <irq_vektor_spi0>:
    3760:	48c2      	ldr	r0, [pc, #776]	; (3a6c <irq_vektor_swi5+0x28>)
    3762:	6800      	ldr	r0, [r0, #0]
    3764:	4687      	mov	pc, r0
    3766:	46c0      	nop			; (mov r8, r8)

00003768 <Dictionary_981>:
    3768:	0000378c 	andeq	r3, r0, ip, lsl #15
    376c:	69080081 	stmdbvs	r8, {r0, r7}
    3770:	732d7172 	teqvc	sp, #-2147483620	; 0x8000001c
    3774:	00316970 	eorseq	r6, r1, r0, ror r9

00003778 <Code_981>:
    3778:	3f04      	subs	r7, #4
    377a:	603e      	str	r6, [r7, #0]
    377c:	4ebc      	ldr	r6, [pc, #752]	; (3a70 <irq_vektor_swi5+0x2c>)
    377e:	4770      	bx	lr
    3780:	00003620 	andeq	r3, r0, r0, lsr #12

00003784 <irq_vektor_spi1>:
    3784:	48ba      	ldr	r0, [pc, #744]	; (3a70 <irq_vektor_swi5+0x2c>)
    3786:	6800      	ldr	r0, [r0, #0]
    3788:	4687      	mov	pc, r0
    378a:	46c0      	nop			; (mov r8, r8)

0000378c <Dictionary_985>:
    378c:	000037b0 			; <UNDEFINED> instruction: 0x000037b0
    3790:	690a0081 	stmdbvs	sl, {r0, r7}
    3794:	672d7172 			; <UNDEFINED> instruction: 0x672d7172
    3798:	746f6970 	strbtvc	r6, [pc], #-2416	; 37a0 <Code_985+0x2>
    379c:	3f040065 	svccc	0x00040065

0000379e <Code_985>:
    379e:	3f04      	subs	r7, #4
    37a0:	603e      	str	r6, [r7, #0]
    37a2:	4eb4      	ldr	r6, [pc, #720]	; (3a74 <irq_vektor_swi5+0x30>)
    37a4:	4770      	bx	lr
    37a6:	00003620 	andeq	r3, r0, r0, lsr #12

000037aa <irq_vektor_gpiote>:
    37aa:	48b2      	ldr	r0, [pc, #712]	; (3a74 <irq_vektor_swi5+0x30>)
    37ac:	6800      	ldr	r0, [r0, #0]
    37ae:	4687      	mov	pc, r0

000037b0 <Dictionary_989>:
    37b0:	000037d0 	ldrdeq	r3, [r0], -r0
    37b4:	69070081 	stmdbvs	r7, {r0, r7}
    37b8:	612d7172 	teqvs	sp, r2, ror r1
    37bc:	3f046364 	svccc	0x00046364

000037be <Code_989>:
    37be:	3f04      	subs	r7, #4
    37c0:	603e      	str	r6, [r7, #0]
    37c2:	4ead      	ldr	r6, [pc, #692]	; (3a78 <irq_vektor_swi5+0x34>)
    37c4:	4770      	bx	lr
    37c6:	00003620 	andeq	r3, r0, r0, lsr #12

000037ca <irq_vektor_adc>:
    37ca:	48ab      	ldr	r0, [pc, #684]	; (3a78 <irq_vektor_swi5+0x34>)
    37cc:	6800      	ldr	r0, [r0, #0]
    37ce:	4687      	mov	pc, r0

000037d0 <Dictionary_993>:
    37d0:	000037f4 	strdeq	r3, [r0], -r4
    37d4:	69080081 	stmdbvs	r8, {r0, r7}
    37d8:	742d7172 	strtvc	r7, [sp], #-370	; 0x172
    37dc:	00306d69 	eorseq	r6, r0, r9, ror #26

000037e0 <Code_993>:
    37e0:	3f04      	subs	r7, #4
    37e2:	603e      	str	r6, [r7, #0]
    37e4:	4ea5      	ldr	r6, [pc, #660]	; (3a7c <irq_vektor_swi5+0x38>)
    37e6:	4770      	bx	lr
    37e8:	00003620 	andeq	r3, r0, r0, lsr #12

000037ec <irq_vektor_tim0>:
    37ec:	48a3      	ldr	r0, [pc, #652]	; (3a7c <irq_vektor_swi5+0x38>)
    37ee:	6800      	ldr	r0, [r0, #0]
    37f0:	4687      	mov	pc, r0
    37f2:	46c0      	nop			; (mov r8, r8)

000037f4 <Dictionary_997>:
    37f4:	00003818 	andeq	r3, r0, r8, lsl r8
    37f8:	69080081 	stmdbvs	r8, {r0, r7}
    37fc:	742d7172 	strtvc	r7, [sp], #-370	; 0x172
    3800:	00316d69 	eorseq	r6, r1, r9, ror #26

00003804 <Code_997>:
    3804:	3f04      	subs	r7, #4
    3806:	603e      	str	r6, [r7, #0]
    3808:	4e9d      	ldr	r6, [pc, #628]	; (3a80 <irq_vektor_swi5+0x3c>)
    380a:	4770      	bx	lr
    380c:	00003620 	andeq	r3, r0, r0, lsr #12

00003810 <irq_vektor_tim1>:
    3810:	489b      	ldr	r0, [pc, #620]	; (3a80 <irq_vektor_swi5+0x3c>)
    3812:	6800      	ldr	r0, [r0, #0]
    3814:	4687      	mov	pc, r0
    3816:	46c0      	nop			; (mov r8, r8)

00003818 <Dictionary_1001>:
    3818:	0000383c 	andeq	r3, r0, ip, lsr r8
    381c:	69080081 	stmdbvs	r8, {r0, r7}
    3820:	742d7172 	strtvc	r7, [sp], #-370	; 0x172
    3824:	00326d69 	eorseq	r6, r2, r9, ror #26

00003828 <Code_1001>:
    3828:	3f04      	subs	r7, #4
    382a:	603e      	str	r6, [r7, #0]
    382c:	4e95      	ldr	r6, [pc, #596]	; (3a84 <irq_vektor_swi5+0x40>)
    382e:	4770      	bx	lr
    3830:	00003620 	andeq	r3, r0, r0, lsr #12

00003834 <irq_vektor_tim2>:
    3834:	4893      	ldr	r0, [pc, #588]	; (3a84 <irq_vektor_swi5+0x40>)
    3836:	6800      	ldr	r0, [r0, #0]
    3838:	4687      	mov	pc, r0
    383a:	46c0      	nop			; (mov r8, r8)

0000383c <Dictionary_1005>:
    383c:	00003860 	andeq	r3, r0, r0, ror #16
    3840:	69080081 	stmdbvs	r8, {r0, r7}
    3844:	722d7172 	eorvc	r7, sp, #-2147483620	; 0x8000001c
    3848:	00306374 	eorseq	r6, r0, r4, ror r3

0000384c <Code_1005>:
    384c:	3f04      	subs	r7, #4
    384e:	603e      	str	r6, [r7, #0]
    3850:	4e8d      	ldr	r6, [pc, #564]	; (3a88 <irq_vektor_swi5+0x44>)
    3852:	4770      	bx	lr
    3854:	00003620 	andeq	r3, r0, r0, lsr #12

00003858 <irq_vektor_rtc0>:
    3858:	488b      	ldr	r0, [pc, #556]	; (3a88 <irq_vektor_swi5+0x44>)
    385a:	6800      	ldr	r0, [r0, #0]
    385c:	4687      	mov	pc, r0
    385e:	46c0      	nop			; (mov r8, r8)

00003860 <Dictionary_1009>:
    3860:	00003884 	andeq	r3, r0, r4, lsl #17
    3864:	69080081 	stmdbvs	r8, {r0, r7}
    3868:	742d7172 	strtvc	r7, [sp], #-370	; 0x172
    386c:	00706d65 	rsbseq	r6, r0, r5, ror #26

00003870 <Code_1009>:
    3870:	3f04      	subs	r7, #4
    3872:	603e      	str	r6, [r7, #0]
    3874:	4e85      	ldr	r6, [pc, #532]	; (3a8c <irq_vektor_swi5+0x48>)
    3876:	4770      	bx	lr
    3878:	00003620 	andeq	r3, r0, r0, lsr #12

0000387c <irq_vektor_temp>:
    387c:	4883      	ldr	r0, [pc, #524]	; (3a8c <irq_vektor_swi5+0x48>)
    387e:	6800      	ldr	r0, [r0, #0]
    3880:	4687      	mov	pc, r0
    3882:	46c0      	nop			; (mov r8, r8)

00003884 <Dictionary_1013>:
    3884:	000038a4 	andeq	r3, r0, r4, lsr #17
    3888:	69070081 	stmdbvs	r7, {r0, r7}
    388c:	722d7172 	eorvc	r7, sp, #-2147483620	; 0x8000001c
    3890:	3f04676e 	svccc	0x0004676e

00003892 <Code_1013>:
    3892:	3f04      	subs	r7, #4
    3894:	603e      	str	r6, [r7, #0]
    3896:	4e7e      	ldr	r6, [pc, #504]	; (3a90 <irq_vektor_swi5+0x4c>)
    3898:	4770      	bx	lr
    389a:	00003620 	andeq	r3, r0, r0, lsr #12

0000389e <irq_vektor_rng>:
    389e:	487c      	ldr	r0, [pc, #496]	; (3a90 <irq_vektor_swi5+0x4c>)
    38a0:	6800      	ldr	r0, [r0, #0]
    38a2:	4687      	mov	pc, r0

000038a4 <Dictionary_1017>:
    38a4:	000038c4 	andeq	r3, r0, r4, asr #17
    38a8:	69070081 	stmdbvs	r7, {r0, r7}
    38ac:	652d7172 	strvs	r7, [sp, #-370]!	; 0x172
    38b0:	3f046263 	svccc	0x00046263

000038b2 <Code_1017>:
    38b2:	3f04      	subs	r7, #4
    38b4:	603e      	str	r6, [r7, #0]
    38b6:	4e77      	ldr	r6, [pc, #476]	; (3a94 <irq_vektor_swi5+0x50>)
    38b8:	4770      	bx	lr
    38ba:	00003620 	andeq	r3, r0, r0, lsr #12

000038be <irq_vektor_ecb>:
    38be:	4875      	ldr	r0, [pc, #468]	; (3a94 <irq_vektor_swi5+0x50>)
    38c0:	6800      	ldr	r0, [r0, #0]
    38c2:	4687      	mov	pc, r0

000038c4 <Dictionary_1021>:
    38c4:	000038e8 	andeq	r3, r0, r8, ror #17
    38c8:	690b0081 	stmdbvs	fp, {r0, r7}
    38cc:	632d7172 	teqvs	sp, #-2147483620	; 0x8000001c
    38d0:	615f6d63 	cmpvs	pc, r3, ror #26
    38d4:	3f047261 	svccc	0x00047261

000038d6 <Code_1021>:
    38d6:	3f04      	subs	r7, #4
    38d8:	603e      	str	r6, [r7, #0]
    38da:	4e6f      	ldr	r6, [pc, #444]	; (3a98 <irq_vektor_swi5+0x54>)
    38dc:	4770      	bx	lr
    38de:	00003620 	andeq	r3, r0, r0, lsr #12

000038e2 <irq_vektor_ccm_aar>:
    38e2:	486d      	ldr	r0, [pc, #436]	; (3a98 <irq_vektor_swi5+0x54>)
    38e4:	6800      	ldr	r0, [r0, #0]
    38e6:	4687      	mov	pc, r0

000038e8 <Dictionary_1025>:
    38e8:	00003908 	andeq	r3, r0, r8, lsl #18
    38ec:	69070081 	stmdbvs	r7, {r0, r7}
    38f0:	772d7172 			; <UNDEFINED> instruction: 0x772d7172
    38f4:	3f047464 	svccc	0x00047464

000038f6 <Code_1025>:
    38f6:	3f04      	subs	r7, #4
    38f8:	603e      	str	r6, [r7, #0]
    38fa:	4e68      	ldr	r6, [pc, #416]	; (3a9c <irq_vektor_swi5+0x58>)
    38fc:	4770      	bx	lr
    38fe:	00003620 	andeq	r3, r0, r0, lsr #12

00003902 <irq_vektor_wdt>:
    3902:	4866      	ldr	r0, [pc, #408]	; (3a9c <irq_vektor_swi5+0x58>)
    3904:	6800      	ldr	r0, [r0, #0]
    3906:	4687      	mov	pc, r0

00003908 <Dictionary_1029>:
    3908:	0000392c 	andeq	r3, r0, ip, lsr #18
    390c:	69080081 	stmdbvs	r8, {r0, r7}
    3910:	722d7172 	eorvc	r7, sp, #-2147483620	; 0x8000001c
    3914:	00316374 	eorseq	r6, r1, r4, ror r3

00003918 <Code_1029>:
    3918:	3f04      	subs	r7, #4
    391a:	603e      	str	r6, [r7, #0]
    391c:	4e60      	ldr	r6, [pc, #384]	; (3aa0 <irq_vektor_swi5+0x5c>)
    391e:	4770      	bx	lr
    3920:	00003620 	andeq	r3, r0, r0, lsr #12

00003924 <irq_vektor_rtc1>:
    3924:	485e      	ldr	r0, [pc, #376]	; (3aa0 <irq_vektor_swi5+0x5c>)
    3926:	6800      	ldr	r0, [r0, #0]
    3928:	4687      	mov	pc, r0
    392a:	46c0      	nop			; (mov r8, r8)

0000392c <Dictionary_1033>:
    392c:	00003950 	andeq	r3, r0, r0, asr r9
    3930:	69080081 	stmdbvs	r8, {r0, r7}
    3934:	712d7172 	teqvc	sp, r2, ror r1
    3938:	00636564 	rsbeq	r6, r3, r4, ror #10

0000393c <Code_1033>:
    393c:	3f04      	subs	r7, #4
    393e:	603e      	str	r6, [r7, #0]
    3940:	4e58      	ldr	r6, [pc, #352]	; (3aa4 <irq_vektor_swi5+0x60>)
    3942:	4770      	bx	lr
    3944:	00003620 	andeq	r3, r0, r0, lsr #12

00003948 <irq_vektor_qdec>:
    3948:	4856      	ldr	r0, [pc, #344]	; (3aa4 <irq_vektor_swi5+0x60>)
    394a:	6800      	ldr	r0, [r0, #0]
    394c:	4687      	mov	pc, r0
    394e:	46c0      	nop			; (mov r8, r8)

00003950 <Dictionary_1037>:
    3950:	00003974 	andeq	r3, r0, r4, ror r9
    3954:	690a0081 	stmdbvs	sl, {r0, r7}
    3958:	6c2d7172 	stfvss	f7, [sp], #-456	; 0xfffffe38
    395c:	6d6f6370 	stclvs	3, cr6, [pc, #-448]!	; 37a4 <Code_985+0x6>
    3960:	3f040070 	svccc	0x00040070

00003962 <Code_1037>:
    3962:	3f04      	subs	r7, #4
    3964:	603e      	str	r6, [r7, #0]
    3966:	4e50      	ldr	r6, [pc, #320]	; (3aa8 <irq_vektor_swi5+0x64>)
    3968:	4770      	bx	lr
    396a:	00003620 	andeq	r3, r0, r0, lsr #12

0000396e <irq_vektor_lpcomp>:
    396e:	484e      	ldr	r0, [pc, #312]	; (3aa8 <irq_vektor_swi5+0x64>)
    3970:	6800      	ldr	r0, [r0, #0]
    3972:	4687      	mov	pc, r0

00003974 <Dictionary_1041>:
    3974:	00003998 	muleq	r0, r8, r9
    3978:	69080081 	stmdbvs	r8, {r0, r7}
    397c:	732d7172 	teqvc	sp, #-2147483620	; 0x8000001c
    3980:	00306977 	eorseq	r6, r0, r7, ror r9

00003984 <Code_1041>:
    3984:	3f04      	subs	r7, #4
    3986:	603e      	str	r6, [r7, #0]
    3988:	4e48      	ldr	r6, [pc, #288]	; (3aac <irq_vektor_swi5+0x68>)
    398a:	4770      	bx	lr
    398c:	00003620 	andeq	r3, r0, r0, lsr #12

00003990 <irq_vektor_swi0>:
    3990:	4846      	ldr	r0, [pc, #280]	; (3aac <irq_vektor_swi5+0x68>)
    3992:	6800      	ldr	r0, [r0, #0]
    3994:	4687      	mov	pc, r0
    3996:	46c0      	nop			; (mov r8, r8)

00003998 <Dictionary_1045>:
    3998:	000039bc 			; <UNDEFINED> instruction: 0x000039bc
    399c:	69080081 	stmdbvs	r8, {r0, r7}
    39a0:	732d7172 	teqvc	sp, #-2147483620	; 0x8000001c
    39a4:	00316977 	eorseq	r6, r1, r7, ror r9

000039a8 <Code_1045>:
    39a8:	3f04      	subs	r7, #4
    39aa:	603e      	str	r6, [r7, #0]
    39ac:	4e40      	ldr	r6, [pc, #256]	; (3ab0 <irq_vektor_swi5+0x6c>)
    39ae:	4770      	bx	lr
    39b0:	00003620 	andeq	r3, r0, r0, lsr #12

000039b4 <irq_vektor_swi1>:
    39b4:	483e      	ldr	r0, [pc, #248]	; (3ab0 <irq_vektor_swi5+0x6c>)
    39b6:	6800      	ldr	r0, [r0, #0]
    39b8:	4687      	mov	pc, r0
    39ba:	46c0      	nop			; (mov r8, r8)

000039bc <Dictionary_1049>:
    39bc:	000039e0 	andeq	r3, r0, r0, ror #19
    39c0:	69080081 	stmdbvs	r8, {r0, r7}
    39c4:	732d7172 	teqvc	sp, #-2147483620	; 0x8000001c
    39c8:	00326977 	eorseq	r6, r2, r7, ror r9

000039cc <Code_1049>:
    39cc:	3f04      	subs	r7, #4
    39ce:	603e      	str	r6, [r7, #0]
    39d0:	4e38      	ldr	r6, [pc, #224]	; (3ab4 <irq_vektor_swi5+0x70>)
    39d2:	4770      	bx	lr
    39d4:	00003620 	andeq	r3, r0, r0, lsr #12

000039d8 <irq_vektor_swi2>:
    39d8:	4836      	ldr	r0, [pc, #216]	; (3ab4 <irq_vektor_swi5+0x70>)
    39da:	6800      	ldr	r0, [r0, #0]
    39dc:	4687      	mov	pc, r0
    39de:	46c0      	nop			; (mov r8, r8)

000039e0 <Dictionary_1053>:
    39e0:	00003a04 	andeq	r3, r0, r4, lsl #20
    39e4:	69080081 	stmdbvs	r8, {r0, r7}
    39e8:	732d7172 	teqvc	sp, #-2147483620	; 0x8000001c
    39ec:	00336977 	eorseq	r6, r3, r7, ror r9

000039f0 <Code_1053>:
    39f0:	3f04      	subs	r7, #4
    39f2:	603e      	str	r6, [r7, #0]
    39f4:	4e30      	ldr	r6, [pc, #192]	; (3ab8 <irq_vektor_swi5+0x74>)
    39f6:	4770      	bx	lr
    39f8:	00003620 	andeq	r3, r0, r0, lsr #12

000039fc <irq_vektor_swi3>:
    39fc:	482e      	ldr	r0, [pc, #184]	; (3ab8 <irq_vektor_swi5+0x74>)
    39fe:	6800      	ldr	r0, [r0, #0]
    3a00:	4687      	mov	pc, r0
    3a02:	46c0      	nop			; (mov r8, r8)

00003a04 <Dictionary_1057>:
    3a04:	00003a28 	andeq	r3, r0, r8, lsr #20
    3a08:	69080081 	stmdbvs	r8, {r0, r7}
    3a0c:	732d7172 	teqvc	sp, #-2147483620	; 0x8000001c
    3a10:	00346977 	eorseq	r6, r4, r7, ror r9

00003a14 <Code_1057>:
    3a14:	3f04      	subs	r7, #4
    3a16:	603e      	str	r6, [r7, #0]
    3a18:	4e28      	ldr	r6, [pc, #160]	; (3abc <irq_vektor_swi5+0x78>)
    3a1a:	4770      	bx	lr
    3a1c:	00003620 	andeq	r3, r0, r0, lsr #12

00003a20 <irq_vektor_swi4>:
    3a20:	4826      	ldr	r0, [pc, #152]	; (3abc <irq_vektor_swi5+0x78>)
    3a22:	6800      	ldr	r0, [r0, #0]
    3a24:	4687      	mov	pc, r0
    3a26:	46c0      	nop			; (mov r8, r8)

00003a28 <Dictionary_1061>:
    3a28:	00003ac4 	andeq	r3, r0, r4, asr #21
    3a2c:	69080081 	stmdbvs	r8, {r0, r7}
    3a30:	732d7172 	teqvc	sp, #-2147483620	; 0x8000001c
    3a34:	00356977 	eorseq	r6, r5, r7, ror r9

00003a38 <Code_1061>:
    3a38:	3f04      	subs	r7, #4
    3a3a:	603e      	str	r6, [r7, #0]
    3a3c:	4e20      	ldr	r6, [pc, #128]	; (3ac0 <irq_vektor_swi5+0x7c>)
    3a3e:	4770      	bx	lr
    3a40:	00003620 	andeq	r3, r0, r0, lsr #12

00003a44 <irq_vektor_swi5>:
    3a44:	481e      	ldr	r0, [pc, #120]	; (3ac0 <irq_vektor_swi5+0x7c>)
    3a46:	6800      	ldr	r0, [r0, #0]
    3a48:	4687      	mov	pc, r0
    3a4a:	ed0c0000 	stc	0, cr0, [ip]
    3a4e:	0004e000 	andeq	lr, r4, r0
    3a52:	3fd005fa 	svccc	0x00d005fa
    3a56:	3fcc2000 	svccc	0x00cc2000
    3a5a:	3fc82000 	svccc	0x00c82000
    3a5e:	3fc42000 	svccc	0x00c42000
    3a62:	3fc02000 	svccc	0x00c02000
    3a66:	3fbc2000 	svccc	0x00bc2000
    3a6a:	3fb82000 	svccc	0x00b82000
    3a6e:	3fb42000 	svccc	0x00b42000
    3a72:	3fb02000 	svccc	0x00b02000
    3a76:	3fac2000 	svccc	0x00ac2000
    3a7a:	3fa82000 	svccc	0x00a82000
    3a7e:	3fa42000 	svccc	0x00a42000
    3a82:	3fa02000 	svccc	0x00a02000
    3a86:	3f9c2000 	svccc	0x009c2000
    3a8a:	3f982000 	svccc	0x00982000
    3a8e:	3f942000 	svccc	0x00942000
    3a92:	3f902000 	svccc	0x00902000
    3a96:	3f8c2000 	svccc	0x008c2000
    3a9a:	3f882000 	svccc	0x00882000
    3a9e:	3f842000 	svccc	0x00842000
    3aa2:	3f802000 	svccc	0x00802000
    3aa6:	3f7c2000 	svccc	0x007c2000
    3aaa:	3f782000 	svccc	0x00782000
    3aae:	3f742000 	svccc	0x00742000
    3ab2:	3f702000 	svccc	0x00702000
    3ab6:	3f6c2000 	svccc	0x006c2000
    3aba:	3f682000 	svccc	0x00682000
    3abe:	3f642000 	svccc	0x00642000
    3ac2:	40002000 	andmi	r2, r0, r0

00003ac4 <Dictionary_1064>:
    3ac4:	00004000 	andeq	r4, r0, r0
    3ac8:	2d18ffff 	ldccs	15, cr15, [r8, #-1020]	; 0xfffffc04
    3acc:	46202d2d 	strtmi	r2, [r0], -sp, lsr #26
    3ad0:	6873616c 	ldmdavs	r3!, {r2, r3, r5, r6, r8, sp, lr}^
    3ad4:	63694420 	cmnvs	r9, #536870912	; 0x20000000
    3ad8:	6e6f6974 	mcrvs	9, 3, r6, cr15, cr4, {3}
    3adc:	20797261 	rsbscs	r7, r9, r1, ror #4
    3ae0:	002d2d2d 	eoreq	r2, sp, sp, lsr #26

00003ae4 <Code_1064>:
    3ae4:	f7fd fc33 	bl	134e <uart_init>
    3ae8:	484c      	ldr	r0, [pc, #304]	; (3c1c <init_name+0x6>)
    3aea:	4685      	mov	sp, r0
    3aec:	4f4c      	ldr	r7, [pc, #304]	; (3c20 <init_name+0xa>)
    3aee:	262a      	movs	r6, #42	; 0x2a
    3af0:	484c      	ldr	r0, [pc, #304]	; (3c24 <init_name+0xe>)
    3af2:	494a      	ldr	r1, [pc, #296]	; (3c1c <init_name+0x6>)
    3af4:	6001      	str	r1, [r0, #0]
    3af6:	484c      	ldr	r0, [pc, #304]	; (3c28 <init_name+0x12>)
    3af8:	494c      	ldr	r1, [pc, #304]	; (3c2c <init_name+0x16>)
    3afa:	6001      	str	r1, [r0, #0]
    3afc:	3f04      	subs	r7, #4
    3afe:	603e      	str	r6, [r7, #0]
    3b00:	4e4a      	ldr	r6, [pc, #296]	; (3c2c <init_name+0x16>)
    3b02:	4d4b      	ldr	r5, [pc, #300]	; (3c30 <init_name+0x1a>)

00003b04 <SucheFlashPointer_Hangelschleife>:
    3b04:	88b1      	ldrh	r1, [r6, #4]
    3b06:	4b4b      	ldr	r3, [pc, #300]	; (3c34 <init_name+0x1e>)
    3b08:	4299      	cmp	r1, r3
    3b0a:	d024      	beq.n	3b56 <Sucheflashpointer_Speicherbelegung_fertig>
    3b0c:	4b4a      	ldr	r3, [pc, #296]	; (3c38 <init_name+0x22>)
    3b0e:	400b      	ands	r3, r1
    3b10:	d00a      	beq.n	3b28 <SucheFlashPointer_Hangelschleife+0x24>
    3b12:	1db0      	adds	r0, r6, #6
    3b14:	f7fe fe4e 	bl	27b4 <skipstring>
    3b18:	f7fe f9c1 	bl	1e9e <suchedefinitionsende>
    3b1c:	8803      	ldrh	r3, [r0, #0]
    3b1e:	8840      	ldrh	r0, [r0, #2]
    3b20:	0400      	lsls	r0, r0, #16
    3b22:	4303      	orrs	r3, r0
    3b24:	1aed      	subs	r5, r5, r3
    3b26:	e016      	b.n	3b56 <Sucheflashpointer_Speicherbelegung_fertig>
    3b28:	2380      	movs	r3, #128	; 0x80
    3b2a:	400b      	ands	r3, r1
    3b2c:	d013      	beq.n	3b56 <Sucheflashpointer_Speicherbelegung_fertig>
    3b2e:	230f      	movs	r3, #15
    3b30:	4019      	ands	r1, r3
    3b32:	0089      	lsls	r1, r1, #2
    3b34:	1a6d      	subs	r5, r5, r1
    3b36:	1db0      	adds	r0, r6, #6
    3b38:	f7fe fe3c 	bl	27b4 <skipstring>
    3b3c:	f7fe f9af 	bl	1e9e <suchedefinitionsende>
    3b40:	3f04      	subs	r7, #4
    3b42:	603e      	str	r6, [r7, #0]
    3b44:	0006      	movs	r6, r0
    3b46:	3f04      	subs	r7, #4
    3b48:	603e      	str	r6, [r7, #0]
    3b4a:	002e      	movs	r6, r5
    3b4c:	3f04      	subs	r7, #4
    3b4e:	603e      	str	r6, [r7, #0]
    3b50:	000e      	movs	r6, r1
    3b52:	f7fd f83b 	bl	bcc <Code_180>

00003b56 <Sucheflashpointer_Speicherbelegung_fertig>:
    3b56:	f7fe fe0a 	bl	276e <Code_651>
    3b5a:	0030      	movs	r0, r6
    3b5c:	cf40      	ldmia	r7!, {r6}
    3b5e:	d0d1      	beq.n	3b04 <SucheFlashPointer_Hangelschleife>
    3b60:	4836      	ldr	r0, [pc, #216]	; (3c3c <init_name+0x26>)
    3b62:	6006      	str	r6, [r0, #0]
    3b64:	cf40      	ldmia	r7!, {r6}
    3b66:	4836      	ldr	r0, [pc, #216]	; (3c40 <init_name+0x2a>)
    3b68:	6005      	str	r5, [r0, #0]
    3b6a:	4836      	ldr	r0, [pc, #216]	; (3c44 <init_name+0x2e>)
    3b6c:	4936      	ldr	r1, [pc, #216]	; (3c48 <init_name+0x32>)
    3b6e:	4a31      	ldr	r2, [pc, #196]	; (3c34 <init_name+0x1e>)
    3b70:	4288      	cmp	r0, r1
    3b72:	d004      	beq.n	3b7e <Sucheflashpointer_Speicherbelegung_fertig+0x28>
    3b74:	3802      	subs	r0, #2
    3b76:	8803      	ldrh	r3, [r0, #0]
    3b78:	4293      	cmp	r3, r2
    3b7a:	d0f9      	beq.n	3b70 <Sucheflashpointer_Speicherbelegung_fertig+0x1a>
    3b7c:	3002      	adds	r0, #2
    3b7e:	4933      	ldr	r1, [pc, #204]	; (3c4c <init_name+0x36>)
    3b80:	6008      	str	r0, [r1, #0]
    3b82:	f7fd fe81 	bl	1888 <dotgaensefuesschen>
    3b86:	63654d36 	cmnvs	r5, #3456	; 0xd80
    3b8a:	70736972 	rsbsvc	r6, r3, r2, ror r9
    3b8e:	6574532d 	ldrbvs	r5, [r4, #-813]!	; 0x32d
    3b92:	72616c6c 	rsbvc	r6, r1, #27648	; 0x6c00
    3b96:	32207369 	eorcc	r7, r0, #-1543503871	; 0xa4000001
    3b9a:	312e322e 	teqcc	lr, lr, lsr #4
    3b9e:	74697720 	strbtvc	r7, [r9], #-1824	; 0x720
    3ba2:	304d2068 	subcc	r2, sp, r8, rrx
    3ba6:	726f6320 	rsbvc	r6, pc, #-2147483648	; 0x80000000
    3baa:	79622065 	stmdbvc	r2!, {r0, r2, r5, r6, sp}^
    3bae:	74614d20 	strbtvc	r4, [r1], #-3360	; 0xd20
    3bb2:	61696874 	smcvs	38532	; 0x9684
    3bb6:	6f4b2073 	svcvs	0x004b2073
    3bba:	000a6863 	andeq	r6, sl, r3, ror #16
    3bbe:	f7fd fe63 	bl	1888 <dotgaensefuesschen>
    3bc2:	646f4d2c 	strbtvs	r4, [pc], #-3372	; 3bca <Sucheflashpointer_Speicherbelegung_fertig+0x74>
    3bc6:	65696669 	strbvs	r6, [r9, #-1641]!	; 0x669
    3bca:	6f662064 	svcvs	0x00662064
    3bce:	526e2072 	rsbpl	r2, lr, #114	; 0x72
    3bd2:	38313546 	ldmdacc	r1!, {r1, r2, r6, r8, sl, ip, sp}
    3bd6:	62203232 	eorvs	r3, r0, #536870915	; 0x20000003
    3bda:	6f4a2079 	svcvs	0x004a2079
    3bde:	48206e68 	stmdami	r0!, {r3, r5, r6, r9, sl, fp, sp, lr}
    3be2:	72656275 	rsbvc	r6, r5, #1342177287	; 0x50000007
    3be6:	28207374 	stmdacs	r0!, {r2, r4, r5, r6, r8, r9, ip, sp, lr}
    3bea:	2942494a 	stmdbcs	r2, {r1, r3, r6, r8, fp, lr}^
    3bee:	4817000a 	ldmdami	r7, {r1, r3}
    3bf2:	2100      	movs	r1, #0
    3bf4:	6001      	str	r1, [r0, #0]
    3bf6:	3f04      	subs	r7, #4
    3bf8:	603e      	str	r6, [r7, #0]
    3bfa:	4e16      	ldr	r6, [pc, #88]	; (3c54 <init_name+0x3e>)
    3bfc:	3f04      	subs	r7, #4
    3bfe:	603e      	str	r6, [r7, #0]
    3c00:	2604      	movs	r6, #4
    3c02:	f7fe fde7 	bl	27d4 <Code_656>
    3c06:	cf40      	ldmia	r7!, {r6}
    3c08:	2e00      	cmp	r6, #0
    3c0a:	d002      	beq.n	3c12 <Sucheflashpointer_Speicherbelegung_fertig+0xbc>
    3c0c:	f7fe f9cd 	bl	1faa <Code_509>
    3c10:	e4a9      	b.n	3566 <quit_intern>
    3c12:	cf40      	ldmia	r7!, {r6}
    3c14:	e496      	b.n	3544 <Code_938>

00003c16 <init_name>:
    3c16:	74696e69 	strbtvc	r6, [r9], #-3689	; 0xe69
    3c1a:	03300000 	teqeq	r0, #0
    3c1e:	02302000 	eorseq	r2, r0, #0
    3c22:	00002000 	andeq	r2, r0, r0
    3c26:	00042000 	andeq	r2, r4, r0
    3c2a:	00c02000 	sbceq	r2, r0, r0
    3c2e:	40000000 	andmi	r0, r0, r0
    3c32:	ffff2000 			; <UNDEFINED> instruction: 0xffff2000
    3c36:	01000000 	mrseq	r0, (UNDEF: 0)
    3c3a:	001c0000 	andseq	r0, ip, r0
    3c3e:	00242000 	eoreq	r2, r4, r0
    3c42:	00002000 	andeq	r2, r0, r0
    3c46:	40000004 	andmi	r0, r0, r4
    3c4a:	00180000 	andseq	r0, r8, r0
    3c4e:	00082000 	andeq	r2, r8, r0
    3c52:	3c162000 	ldccc	0, cr2, [r6], {0}
	...

Disassembly of section .ARM.attributes:

00000000 <.ARM.attributes>:
   0:	00002241 	andeq	r2, r0, r1, asr #4
   4:	61656100 	cmnvs	r5, r0, lsl #2
   8:	01006962 	tsteq	r0, r2, ror #18
   c:	00000018 	andeq	r0, r0, r8, lsl r0
  10:	726f4305 	rsbvc	r4, pc, #335544320	; 0x14000000
  14:	2d786574 	cfldr64cs	mvdx6, [r8, #-464]!	; 0xfffffe30
  18:	0600304d 	streq	r3, [r0], -sp, asr #32
  1c:	094d070c 	stmdbeq	sp, {r2, r3, r8, r9, sl}^
  20:	Address 0x00000020 is out of bounds.

