
mecrisp-stellaris-kl25z128.elf:     file format elf32-littlearm


Disassembly of section .text:

00000000 <addresszero>:
       0:	1ffff38c 	svcne	0x00fff38c
       4:	00004d9d 	muleq	r0, sp, sp
       8:	00004ca5 	andeq	r4, r0, r5, lsr #25
       c:	00004ca5 	andeq	r4, r0, r5, lsr #25
	...
      2c:	00004ccf 	andeq	r4, r0, pc, asr #25
	...
      38:	00004ccf 	andeq	r4, r0, pc, asr #25
      3c:	00004c83 	andeq	r4, r0, r3, lsl #25
      40:	00004ccf 	andeq	r4, r0, pc, asr #25
      44:	00004ccf 	andeq	r4, r0, pc, asr #25
      48:	00004ccf 	andeq	r4, r0, pc, asr #25
      4c:	00004ccf 	andeq	r4, r0, pc, asr #25
      50:	00004ccf 	andeq	r4, r0, pc, asr #25
      54:	00004ccf 	andeq	r4, r0, pc, asr #25
      58:	00004ccf 	andeq	r4, r0, pc, asr #25
      5c:	00004ccf 	andeq	r4, r0, pc, asr #25
      60:	00004ccf 	andeq	r4, r0, pc, asr #25
      64:	00004ccf 	andeq	r4, r0, pc, asr #25
      68:	00004ccf 	andeq	r4, r0, pc, asr #25
      6c:	00004ccf 	andeq	r4, r0, pc, asr #25
      70:	00004ccf 	andeq	r4, r0, pc, asr #25
      74:	00004ccf 	andeq	r4, r0, pc, asr #25
      78:	00004ccf 	andeq	r4, r0, pc, asr #25
      7c:	00004cef 	andeq	r4, r0, pc, ror #25
      80:	00004d0f 	andeq	r4, r0, pc, lsl #26
      84:	00004ccf 	andeq	r4, r0, pc, asr #25
      88:	00004ccf 	andeq	r4, r0, pc, asr #25
      8c:	00004ccf 	andeq	r4, r0, pc, asr #25
      90:	00004ccf 	andeq	r4, r0, pc, asr #25
      94:	00004ccf 	andeq	r4, r0, pc, asr #25
      98:	00004ccf 	andeq	r4, r0, pc, asr #25
      9c:	00004ccf 	andeq	r4, r0, pc, asr #25
      a0:	00004ccf 	andeq	r4, r0, pc, asr #25
      a4:	00004d2f 	andeq	r4, r0, pc, lsr #26
      a8:	00004ccf 	andeq	r4, r0, pc, asr #25
      ac:	00004ccf 	andeq	r4, r0, pc, asr #25
      b0:	00004ccf 	andeq	r4, r0, pc, asr #25
      b4:	00004ccf 	andeq	r4, r0, pc, asr #25
      b8:	00004d51 	andeq	r4, r0, r1, asr sp
      bc:	00004d75 	andeq	r4, r0, r5, ror sp
      c0:	ffffffff 			; <UNDEFINED> instruction: 0xffffffff
      c4:	ffffffff 			; <UNDEFINED> instruction: 0xffffffff
      c8:	ffffffff 			; <UNDEFINED> instruction: 0xffffffff
      cc:	ffffffff 			; <UNDEFINED> instruction: 0xffffffff
      d0:	ffffffff 			; <UNDEFINED> instruction: 0xffffffff
      d4:	ffffffff 			; <UNDEFINED> instruction: 0xffffffff
      d8:	ffffffff 			; <UNDEFINED> instruction: 0xffffffff
      dc:	ffffffff 			; <UNDEFINED> instruction: 0xffffffff
      e0:	ffffffff 			; <UNDEFINED> instruction: 0xffffffff
      e4:	ffffffff 			; <UNDEFINED> instruction: 0xffffffff
      e8:	ffffffff 			; <UNDEFINED> instruction: 0xffffffff
      ec:	ffffffff 			; <UNDEFINED> instruction: 0xffffffff
      f0:	ffffffff 			; <UNDEFINED> instruction: 0xffffffff
      f4:	ffffffff 			; <UNDEFINED> instruction: 0xffffffff
      f8:	ffffffff 			; <UNDEFINED> instruction: 0xffffffff
      fc:	ffffffff 			; <UNDEFINED> instruction: 0xffffffff
     100:	ffffffff 			; <UNDEFINED> instruction: 0xffffffff
     104:	ffffffff 			; <UNDEFINED> instruction: 0xffffffff
     108:	ffffffff 			; <UNDEFINED> instruction: 0xffffffff
     10c:	ffffffff 			; <UNDEFINED> instruction: 0xffffffff
     110:	ffffffff 			; <UNDEFINED> instruction: 0xffffffff
     114:	ffffffff 			; <UNDEFINED> instruction: 0xffffffff
     118:	ffffffff 			; <UNDEFINED> instruction: 0xffffffff
     11c:	ffffffff 			; <UNDEFINED> instruction: 0xffffffff
     120:	ffffffff 			; <UNDEFINED> instruction: 0xffffffff
     124:	ffffffff 			; <UNDEFINED> instruction: 0xffffffff
     128:	ffffffff 			; <UNDEFINED> instruction: 0xffffffff
     12c:	ffffffff 			; <UNDEFINED> instruction: 0xffffffff
     130:	ffffffff 			; <UNDEFINED> instruction: 0xffffffff
     134:	ffffffff 			; <UNDEFINED> instruction: 0xffffffff
     138:	ffffffff 			; <UNDEFINED> instruction: 0xffffffff
     13c:	ffffffff 			; <UNDEFINED> instruction: 0xffffffff
     140:	ffffffff 			; <UNDEFINED> instruction: 0xffffffff
     144:	ffffffff 			; <UNDEFINED> instruction: 0xffffffff
     148:	ffffffff 			; <UNDEFINED> instruction: 0xffffffff
     14c:	ffffffff 			; <UNDEFINED> instruction: 0xffffffff
     150:	ffffffff 			; <UNDEFINED> instruction: 0xffffffff
     154:	ffffffff 			; <UNDEFINED> instruction: 0xffffffff
     158:	ffffffff 			; <UNDEFINED> instruction: 0xffffffff
     15c:	ffffffff 			; <UNDEFINED> instruction: 0xffffffff
     160:	ffffffff 			; <UNDEFINED> instruction: 0xffffffff
     164:	ffffffff 			; <UNDEFINED> instruction: 0xffffffff
     168:	ffffffff 			; <UNDEFINED> instruction: 0xffffffff
     16c:	ffffffff 			; <UNDEFINED> instruction: 0xffffffff
     170:	ffffffff 			; <UNDEFINED> instruction: 0xffffffff
     174:	ffffffff 			; <UNDEFINED> instruction: 0xffffffff
     178:	ffffffff 			; <UNDEFINED> instruction: 0xffffffff
     17c:	ffffffff 			; <UNDEFINED> instruction: 0xffffffff
     180:	ffffffff 			; <UNDEFINED> instruction: 0xffffffff
     184:	ffffffff 			; <UNDEFINED> instruction: 0xffffffff
     188:	ffffffff 			; <UNDEFINED> instruction: 0xffffffff
     18c:	ffffffff 			; <UNDEFINED> instruction: 0xffffffff
     190:	ffffffff 			; <UNDEFINED> instruction: 0xffffffff
     194:	ffffffff 			; <UNDEFINED> instruction: 0xffffffff
     198:	ffffffff 			; <UNDEFINED> instruction: 0xffffffff
     19c:	ffffffff 			; <UNDEFINED> instruction: 0xffffffff
     1a0:	ffffffff 			; <UNDEFINED> instruction: 0xffffffff
     1a4:	ffffffff 			; <UNDEFINED> instruction: 0xffffffff
     1a8:	ffffffff 			; <UNDEFINED> instruction: 0xffffffff
     1ac:	ffffffff 			; <UNDEFINED> instruction: 0xffffffff
     1b0:	ffffffff 			; <UNDEFINED> instruction: 0xffffffff
     1b4:	ffffffff 			; <UNDEFINED> instruction: 0xffffffff
     1b8:	ffffffff 			; <UNDEFINED> instruction: 0xffffffff
     1bc:	ffffffff 			; <UNDEFINED> instruction: 0xffffffff
     1c0:	ffffffff 			; <UNDEFINED> instruction: 0xffffffff
     1c4:	ffffffff 			; <UNDEFINED> instruction: 0xffffffff
     1c8:	ffffffff 			; <UNDEFINED> instruction: 0xffffffff
     1cc:	ffffffff 			; <UNDEFINED> instruction: 0xffffffff
     1d0:	ffffffff 			; <UNDEFINED> instruction: 0xffffffff
     1d4:	ffffffff 			; <UNDEFINED> instruction: 0xffffffff
     1d8:	ffffffff 			; <UNDEFINED> instruction: 0xffffffff
     1dc:	ffffffff 			; <UNDEFINED> instruction: 0xffffffff
     1e0:	ffffffff 			; <UNDEFINED> instruction: 0xffffffff
     1e4:	ffffffff 			; <UNDEFINED> instruction: 0xffffffff
     1e8:	ffffffff 			; <UNDEFINED> instruction: 0xffffffff
     1ec:	ffffffff 			; <UNDEFINED> instruction: 0xffffffff
     1f0:	ffffffff 			; <UNDEFINED> instruction: 0xffffffff
     1f4:	ffffffff 			; <UNDEFINED> instruction: 0xffffffff
     1f8:	ffffffff 			; <UNDEFINED> instruction: 0xffffffff
     1fc:	ffffffff 			; <UNDEFINED> instruction: 0xffffffff
     200:	ffffffff 			; <UNDEFINED> instruction: 0xffffffff
     204:	ffffffff 			; <UNDEFINED> instruction: 0xffffffff
     208:	ffffffff 			; <UNDEFINED> instruction: 0xffffffff
     20c:	ffffffff 			; <UNDEFINED> instruction: 0xffffffff
     210:	ffffffff 			; <UNDEFINED> instruction: 0xffffffff
     214:	ffffffff 			; <UNDEFINED> instruction: 0xffffffff
     218:	ffffffff 			; <UNDEFINED> instruction: 0xffffffff
     21c:	ffffffff 			; <UNDEFINED> instruction: 0xffffffff
     220:	ffffffff 			; <UNDEFINED> instruction: 0xffffffff
     224:	ffffffff 			; <UNDEFINED> instruction: 0xffffffff
     228:	ffffffff 			; <UNDEFINED> instruction: 0xffffffff
     22c:	ffffffff 			; <UNDEFINED> instruction: 0xffffffff
     230:	ffffffff 			; <UNDEFINED> instruction: 0xffffffff
     234:	ffffffff 			; <UNDEFINED> instruction: 0xffffffff
     238:	ffffffff 			; <UNDEFINED> instruction: 0xffffffff
     23c:	ffffffff 			; <UNDEFINED> instruction: 0xffffffff
     240:	ffffffff 			; <UNDEFINED> instruction: 0xffffffff
     244:	ffffffff 			; <UNDEFINED> instruction: 0xffffffff
     248:	ffffffff 			; <UNDEFINED> instruction: 0xffffffff
     24c:	ffffffff 			; <UNDEFINED> instruction: 0xffffffff
     250:	ffffffff 			; <UNDEFINED> instruction: 0xffffffff
     254:	ffffffff 			; <UNDEFINED> instruction: 0xffffffff
     258:	ffffffff 			; <UNDEFINED> instruction: 0xffffffff
     25c:	ffffffff 			; <UNDEFINED> instruction: 0xffffffff
     260:	ffffffff 			; <UNDEFINED> instruction: 0xffffffff
     264:	ffffffff 			; <UNDEFINED> instruction: 0xffffffff
     268:	ffffffff 			; <UNDEFINED> instruction: 0xffffffff
     26c:	ffffffff 			; <UNDEFINED> instruction: 0xffffffff
     270:	ffffffff 			; <UNDEFINED> instruction: 0xffffffff
     274:	ffffffff 			; <UNDEFINED> instruction: 0xffffffff
     278:	ffffffff 			; <UNDEFINED> instruction: 0xffffffff
     27c:	ffffffff 			; <UNDEFINED> instruction: 0xffffffff
     280:	ffffffff 			; <UNDEFINED> instruction: 0xffffffff
     284:	ffffffff 			; <UNDEFINED> instruction: 0xffffffff
     288:	ffffffff 			; <UNDEFINED> instruction: 0xffffffff
     28c:	ffffffff 			; <UNDEFINED> instruction: 0xffffffff
     290:	ffffffff 			; <UNDEFINED> instruction: 0xffffffff
     294:	ffffffff 			; <UNDEFINED> instruction: 0xffffffff
     298:	ffffffff 			; <UNDEFINED> instruction: 0xffffffff
     29c:	ffffffff 			; <UNDEFINED> instruction: 0xffffffff
     2a0:	ffffffff 			; <UNDEFINED> instruction: 0xffffffff
     2a4:	ffffffff 			; <UNDEFINED> instruction: 0xffffffff
     2a8:	ffffffff 			; <UNDEFINED> instruction: 0xffffffff
     2ac:	ffffffff 			; <UNDEFINED> instruction: 0xffffffff
     2b0:	ffffffff 			; <UNDEFINED> instruction: 0xffffffff
     2b4:	ffffffff 			; <UNDEFINED> instruction: 0xffffffff
     2b8:	ffffffff 			; <UNDEFINED> instruction: 0xffffffff
     2bc:	ffffffff 			; <UNDEFINED> instruction: 0xffffffff
     2c0:	ffffffff 			; <UNDEFINED> instruction: 0xffffffff
     2c4:	ffffffff 			; <UNDEFINED> instruction: 0xffffffff
     2c8:	ffffffff 			; <UNDEFINED> instruction: 0xffffffff
     2cc:	ffffffff 			; <UNDEFINED> instruction: 0xffffffff
     2d0:	ffffffff 			; <UNDEFINED> instruction: 0xffffffff
     2d4:	ffffffff 			; <UNDEFINED> instruction: 0xffffffff
     2d8:	ffffffff 			; <UNDEFINED> instruction: 0xffffffff
     2dc:	ffffffff 			; <UNDEFINED> instruction: 0xffffffff
     2e0:	ffffffff 			; <UNDEFINED> instruction: 0xffffffff
     2e4:	ffffffff 			; <UNDEFINED> instruction: 0xffffffff
     2e8:	ffffffff 			; <UNDEFINED> instruction: 0xffffffff
     2ec:	ffffffff 			; <UNDEFINED> instruction: 0xffffffff
     2f0:	ffffffff 			; <UNDEFINED> instruction: 0xffffffff
     2f4:	ffffffff 			; <UNDEFINED> instruction: 0xffffffff
     2f8:	ffffffff 			; <UNDEFINED> instruction: 0xffffffff
     2fc:	ffffffff 			; <UNDEFINED> instruction: 0xffffffff
     300:	ffffffff 			; <UNDEFINED> instruction: 0xffffffff
     304:	ffffffff 			; <UNDEFINED> instruction: 0xffffffff
     308:	ffffffff 			; <UNDEFINED> instruction: 0xffffffff
     30c:	ffffffff 			; <UNDEFINED> instruction: 0xffffffff
     310:	ffffffff 			; <UNDEFINED> instruction: 0xffffffff
     314:	ffffffff 			; <UNDEFINED> instruction: 0xffffffff
     318:	ffffffff 			; <UNDEFINED> instruction: 0xffffffff
     31c:	ffffffff 			; <UNDEFINED> instruction: 0xffffffff
     320:	ffffffff 			; <UNDEFINED> instruction: 0xffffffff
     324:	ffffffff 			; <UNDEFINED> instruction: 0xffffffff
     328:	ffffffff 			; <UNDEFINED> instruction: 0xffffffff
     32c:	ffffffff 			; <UNDEFINED> instruction: 0xffffffff
     330:	ffffffff 			; <UNDEFINED> instruction: 0xffffffff
     334:	ffffffff 			; <UNDEFINED> instruction: 0xffffffff
     338:	ffffffff 			; <UNDEFINED> instruction: 0xffffffff
     33c:	ffffffff 			; <UNDEFINED> instruction: 0xffffffff
     340:	ffffffff 			; <UNDEFINED> instruction: 0xffffffff
     344:	ffffffff 			; <UNDEFINED> instruction: 0xffffffff
     348:	ffffffff 			; <UNDEFINED> instruction: 0xffffffff
     34c:	ffffffff 			; <UNDEFINED> instruction: 0xffffffff
     350:	ffffffff 			; <UNDEFINED> instruction: 0xffffffff
     354:	ffffffff 			; <UNDEFINED> instruction: 0xffffffff
     358:	ffffffff 			; <UNDEFINED> instruction: 0xffffffff
     35c:	ffffffff 			; <UNDEFINED> instruction: 0xffffffff
     360:	ffffffff 			; <UNDEFINED> instruction: 0xffffffff
     364:	ffffffff 			; <UNDEFINED> instruction: 0xffffffff
     368:	ffffffff 			; <UNDEFINED> instruction: 0xffffffff
     36c:	ffffffff 			; <UNDEFINED> instruction: 0xffffffff
     370:	ffffffff 			; <UNDEFINED> instruction: 0xffffffff
     374:	ffffffff 			; <UNDEFINED> instruction: 0xffffffff
     378:	ffffffff 			; <UNDEFINED> instruction: 0xffffffff
     37c:	ffffffff 			; <UNDEFINED> instruction: 0xffffffff
     380:	ffffffff 			; <UNDEFINED> instruction: 0xffffffff
     384:	ffffffff 			; <UNDEFINED> instruction: 0xffffffff
     388:	ffffffff 			; <UNDEFINED> instruction: 0xffffffff
     38c:	ffffffff 			; <UNDEFINED> instruction: 0xffffffff
     390:	ffffffff 			; <UNDEFINED> instruction: 0xffffffff
     394:	ffffffff 			; <UNDEFINED> instruction: 0xffffffff
     398:	ffffffff 			; <UNDEFINED> instruction: 0xffffffff
     39c:	ffffffff 			; <UNDEFINED> instruction: 0xffffffff
     3a0:	ffffffff 			; <UNDEFINED> instruction: 0xffffffff
     3a4:	ffffffff 			; <UNDEFINED> instruction: 0xffffffff
     3a8:	ffffffff 			; <UNDEFINED> instruction: 0xffffffff
     3ac:	ffffffff 			; <UNDEFINED> instruction: 0xffffffff
     3b0:	ffffffff 			; <UNDEFINED> instruction: 0xffffffff
     3b4:	ffffffff 			; <UNDEFINED> instruction: 0xffffffff
     3b8:	ffffffff 			; <UNDEFINED> instruction: 0xffffffff
     3bc:	ffffffff 			; <UNDEFINED> instruction: 0xffffffff
     3c0:	ffffffff 			; <UNDEFINED> instruction: 0xffffffff
     3c4:	ffffffff 			; <UNDEFINED> instruction: 0xffffffff
     3c8:	ffffffff 			; <UNDEFINED> instruction: 0xffffffff
     3cc:	ffffffff 			; <UNDEFINED> instruction: 0xffffffff
     3d0:	ffffffff 			; <UNDEFINED> instruction: 0xffffffff
     3d4:	ffffffff 			; <UNDEFINED> instruction: 0xffffffff
     3d8:	ffffffff 			; <UNDEFINED> instruction: 0xffffffff
     3dc:	ffffffff 			; <UNDEFINED> instruction: 0xffffffff
     3e0:	ffffffff 			; <UNDEFINED> instruction: 0xffffffff
     3e4:	ffffffff 			; <UNDEFINED> instruction: 0xffffffff
     3e8:	ffffffff 			; <UNDEFINED> instruction: 0xffffffff
     3ec:	ffffffff 			; <UNDEFINED> instruction: 0xffffffff
     3f0:	ffffffff 			; <UNDEFINED> instruction: 0xffffffff
     3f4:	ffffffff 			; <UNDEFINED> instruction: 0xffffffff
     3f8:	ffffffff 			; <UNDEFINED> instruction: 0xffffffff
     3fc:	ffffffff 			; <UNDEFINED> instruction: 0xffffffff
     400:	ffffffff 			; <UNDEFINED> instruction: 0xffffffff
     404:	ffffffff 			; <UNDEFINED> instruction: 0xffffffff
     408:	ffffffff 			; <UNDEFINED> instruction: 0xffffffff
     40c:	ffffffff 			; <UNDEFINED> instruction: 0xffffffff

00000410 <CoreDictionaryAnfang>:
     410:	00000864 	andeq	r0, r0, r4, ror #16
     414:	2d1effff 	ldccs	15, cr15, [lr, #-1020]	; 0xfffffc04
     418:	4d202d2d 	stcmi	13, cr2, [r0, #-180]!	; 0xffffff4c
     41c:	69726365 	ldmdbvs	r2!, {r0, r2, r5, r6, r8, r9, sp, lr}^
     420:	532d7073 	teqpl	sp, #115	; 0x73
     424:	6c6c6574 	cfstr64vs	mvdx6, [ip], #-464	; 0xfffffe30
     428:	73697261 	cmnvc	r9, #268435462	; 0x10000006
     42c:	726f4320 	rsbvc	r4, pc, #-2147483648	; 0x80000000
     430:	2d2d2065 	stccs	0, cr2, [sp, #-404]!	; 0xfffffe6c
     434:	b507002d 	strlt	r0, [r7, #-45]	; 0x2d

00000436 <Code_32>:
     436:	b507      	push	{r0, r1, r2, lr}
     438:	4890      	ldr	r0, [pc, #576]	; (67c <r0_unfrei+0x18>)
     43a:	2b00      	cmp	r3, #0
     43c:	d009      	beq.n	452 <Code_32+0x1c>
     43e:	f000 f83b 	bl	4b8 <free_5os_element>
     442:	f000 f841 	bl	4c8 <elemente_einen_weiterrutschen_lassen>
     446:	f000 f827 	bl	498 <nget_faltkonstante>
     44a:	6042      	str	r2, [r0, #4]
     44c:	2128      	movs	r1, #40	; 0x28
     44e:	6001      	str	r1, [r0, #0]
     450:	e7f3      	b.n	43a <Code_32+0x4>
     452:	bd07      	pop	{r0, r1, r2, pc}

00000454 <nfaltkonstanten_aufschwimmen>:
     454:	b500      	push	{lr}
     456:	4889      	ldr	r0, [pc, #548]	; (67c <r0_unfrei+0x18>)
     458:	2300      	movs	r3, #0
     45a:	6801      	ldr	r1, [r0, #0]
     45c:	2928      	cmp	r1, #40	; 0x28
     45e:	d105      	bne.n	46c <nfaltkonstanten_aufschwimmen+0x18>
     460:	6842      	ldr	r2, [r0, #4]
     462:	f000 f804 	bl	46e <npush_faltkonstante>
     466:	f000 f84c 	bl	502 <eliminiere_tos>
     46a:	e7f6      	b.n	45a <nfaltkonstanten_aufschwimmen+0x6>
     46c:	bd00      	pop	{pc}

0000046e <npush_faltkonstante>:
     46e:	b503      	push	{r0, r1, lr}
     470:	3f04      	subs	r7, #4
     472:	603e      	str	r6, [r7, #0]
     474:	0016      	movs	r6, r2
     476:	3f04      	subs	r7, #4
     478:	603e      	str	r6, [r7, #0]
     47a:	001e      	movs	r6, r3
     47c:	b408      	push	{r3}
     47e:	f000 ffcf 	bl	1420 <Code_233>
     482:	bc08      	pop	{r3}
     484:	3301      	adds	r3, #1
     486:	3f04      	subs	r7, #4
     488:	603e      	str	r6, [r7, #0]
     48a:	4e7d      	ldr	r6, [pc, #500]	; (680 <r0_unfrei+0x1c>)
     48c:	3f04      	subs	r7, #4
     48e:	603e      	str	r6, [r7, #0]
     490:	4e7c      	ldr	r6, [pc, #496]	; (684 <r0_unfrei+0x20>)
     492:	f004 fa36 	bl	4902 <add_to_inline_cache>
     496:	bd03      	pop	{r0, r1, pc}

00000498 <nget_faltkonstante>:
     498:	b503      	push	{r0, r1, lr}
     49a:	3b01      	subs	r3, #1
     49c:	3f04      	subs	r7, #4
     49e:	603e      	str	r6, [r7, #0]
     4a0:	001e      	movs	r6, r3
     4a2:	b408      	push	{r3}
     4a4:	f000 ffa6 	bl	13f4 <Code_231>
     4a8:	bc08      	pop	{r3}
     4aa:	0032      	movs	r2, r6
     4ac:	3f04      	subs	r7, #4
     4ae:	603e      	str	r6, [r7, #0]
     4b0:	4e75      	ldr	r6, [pc, #468]	; (688 <r0_unfrei+0x24>)
     4b2:	f004 fa26 	bl	4902 <add_to_inline_cache>
     4b6:	bd03      	pop	{r0, r1, pc}

000004b8 <free_5os_element>:
     4b8:	b503      	push	{r0, r1, lr}
     4ba:	4874      	ldr	r0, [pc, #464]	; (68c <r0_unfrei+0x28>)
     4bc:	6801      	ldr	r1, [r0, #0]
     4be:	291e      	cmp	r1, #30
     4c0:	d001      	beq.n	4c6 <free_5os_element+0xe>
     4c2:	f000 f834 	bl	52e <element_to_stack>
     4c6:	bd03      	pop	{r0, r1, pc}

000004c8 <elemente_einen_weiterrutschen_lassen>:
     4c8:	6981      	ldr	r1, [r0, #24]
     4ca:	6201      	str	r1, [r0, #32]
     4cc:	6901      	ldr	r1, [r0, #16]
     4ce:	6181      	str	r1, [r0, #24]
     4d0:	6881      	ldr	r1, [r0, #8]
     4d2:	6101      	str	r1, [r0, #16]
     4d4:	6801      	ldr	r1, [r0, #0]
     4d6:	6081      	str	r1, [r0, #8]
     4d8:	69c1      	ldr	r1, [r0, #28]
     4da:	6241      	str	r1, [r0, #36]	; 0x24
     4dc:	6941      	ldr	r1, [r0, #20]
     4de:	61c1      	str	r1, [r0, #28]
     4e0:	68c1      	ldr	r1, [r0, #12]
     4e2:	6141      	str	r1, [r0, #20]
     4e4:	6841      	ldr	r1, [r0, #4]
     4e6:	60c1      	str	r1, [r0, #12]
     4e8:	211e      	movs	r1, #30
     4ea:	6001      	str	r1, [r0, #0]
     4ec:	4770      	bx	lr

000004ee <befreie_tos>:
     4ee:	b50f      	push	{r0, r1, r2, r3, lr}
     4f0:	4862      	ldr	r0, [pc, #392]	; (67c <r0_unfrei+0x18>)
     4f2:	6801      	ldr	r1, [r0, #0]
     4f4:	291e      	cmp	r1, #30
     4f6:	d003      	beq.n	500 <befreie_tos+0x12>
     4f8:	f7ff ffde 	bl	4b8 <free_5os_element>
     4fc:	f7ff ffe4 	bl	4c8 <elemente_einen_weiterrutschen_lassen>
     500:	bd0f      	pop	{r0, r1, r2, r3, pc}

00000502 <eliminiere_tos>:
     502:	b502      	push	{r1, lr}
     504:	6881      	ldr	r1, [r0, #8]
     506:	6001      	str	r1, [r0, #0]
     508:	68c1      	ldr	r1, [r0, #12]
     50a:	6041      	str	r1, [r0, #4]
     50c:	e000      	b.n	510 <eliminiere_nos+0x2>

0000050e <eliminiere_nos>:
     50e:	b502      	push	{r1, lr}
     510:	6901      	ldr	r1, [r0, #16]
     512:	6081      	str	r1, [r0, #8]
     514:	6941      	ldr	r1, [r0, #20]
     516:	60c1      	str	r1, [r0, #12]
     518:	6981      	ldr	r1, [r0, #24]
     51a:	6101      	str	r1, [r0, #16]
     51c:	69c1      	ldr	r1, [r0, #28]
     51e:	6141      	str	r1, [r0, #20]
     520:	6a01      	ldr	r1, [r0, #32]
     522:	6181      	str	r1, [r0, #24]
     524:	6a41      	ldr	r1, [r0, #36]	; 0x24
     526:	61c1      	str	r1, [r0, #28]
     528:	211e      	movs	r1, #30
     52a:	6201      	str	r1, [r0, #32]
     52c:	bd02      	pop	{r1, pc}

0000052e <element_to_stack>:
     52e:	b508      	push	{r3, lr}
     530:	6801      	ldr	r1, [r0, #0]
     532:	221e      	movs	r2, #30
     534:	6002      	str	r2, [r0, #0]
     536:	2908      	cmp	r1, #8
     538:	d201      	bcs.n	53e <element_to_stack+0x10>
     53a:	000b      	movs	r3, r1
     53c:	e004      	b.n	548 <element_to_stack+0x1a>
     53e:	2928      	cmp	r1, #40	; 0x28
     540:	d10d      	bne.n	55e <element_to_stack+0x30>
     542:	6843      	ldr	r3, [r0, #4]
     544:	f000 f85d 	bl	602 <generiere_konstante>
     548:	3f04      	subs	r7, #4
     54a:	603e      	str	r6, [r7, #0]
     54c:	4e50      	ldr	r6, [pc, #320]	; (690 <r0_unfrei+0x2c>)
     54e:	f003 f870 	bl	3632 <Code_826>
     552:	3f04      	subs	r7, #4
     554:	603e      	str	r6, [r7, #0]
     556:	4e4f      	ldr	r6, [pc, #316]	; (694 <r0_unfrei+0x30>)
     558:	431e      	orrs	r6, r3
     55a:	f003 f86a 	bl	3632 <Code_826>
     55e:	bd08      	pop	{r3, pc}

00000560 <tidyup_register_allocator>:
     560:	b500      	push	{lr}
     562:	f000 f809 	bl	578 <tidyup_register_allocator_5os>
     566:	f000 f80c 	bl	582 <tidyup_register_allocator_4os>
     56a:	f000 f80f 	bl	58c <tidyup_register_allocator_3os>
     56e:	f000 f812 	bl	596 <tidyup_register_allocator_nos>
     572:	f000 f815 	bl	5a0 <tidyup_register_allocator_tos>
     576:	bd00      	pop	{pc}

00000578 <tidyup_register_allocator_5os>:
     578:	b50f      	push	{r0, r1, r2, r3, lr}
     57a:	4844      	ldr	r0, [pc, #272]	; (68c <r0_unfrei+0x28>)
     57c:	f7ff ffd7 	bl	52e <element_to_stack>
     580:	bd0f      	pop	{r0, r1, r2, r3, pc}

00000582 <tidyup_register_allocator_4os>:
     582:	b50f      	push	{r0, r1, r2, r3, lr}
     584:	4844      	ldr	r0, [pc, #272]	; (698 <r0_unfrei+0x34>)
     586:	f7ff ffd2 	bl	52e <element_to_stack>
     58a:	bd0f      	pop	{r0, r1, r2, r3, pc}

0000058c <tidyup_register_allocator_3os>:
     58c:	b50f      	push	{r0, r1, r2, r3, lr}
     58e:	4843      	ldr	r0, [pc, #268]	; (69c <r0_unfrei+0x38>)
     590:	f7ff ffcd 	bl	52e <element_to_stack>
     594:	bd0f      	pop	{r0, r1, r2, r3, pc}

00000596 <tidyup_register_allocator_nos>:
     596:	b50f      	push	{r0, r1, r2, r3, lr}
     598:	4841      	ldr	r0, [pc, #260]	; (6a0 <r0_unfrei+0x3c>)
     59a:	f7ff ffc8 	bl	52e <element_to_stack>
     59e:	bd0f      	pop	{r0, r1, r2, r3, pc}

000005a0 <tidyup_register_allocator_tos>:
     5a0:	b50f      	push	{r0, r1, r2, r3, lr}
     5a2:	4836      	ldr	r0, [pc, #216]	; (67c <r0_unfrei+0x18>)
     5a4:	6801      	ldr	r1, [r0, #0]
     5a6:	2206      	movs	r2, #6
     5a8:	6002      	str	r2, [r0, #0]
     5aa:	291e      	cmp	r1, #30
     5ac:	d105      	bne.n	5ba <tidyup_register_allocator_tos+0x1a>
     5ae:	3f04      	subs	r7, #4
     5b0:	603e      	str	r6, [r7, #0]
     5b2:	4e3c      	ldr	r6, [pc, #240]	; (6a4 <r0_unfrei+0x40>)
     5b4:	f003 f83d 	bl	3632 <Code_826>
     5b8:	e014      	b.n	5e4 <tidyup_finish>
     5ba:	2928      	cmp	r1, #40	; 0x28
     5bc:	d109      	bne.n	5d2 <tidyup_register_allocator_tos+0x32>
     5be:	6843      	ldr	r3, [r0, #4]
     5c0:	3f04      	subs	r7, #4
     5c2:	603e      	str	r6, [r7, #0]
     5c4:	001e      	movs	r6, r3
     5c6:	3f04      	subs	r7, #4
     5c8:	603e      	str	r6, [r7, #0]
     5ca:	2606      	movs	r6, #6
     5cc:	f002 fc8e 	bl	2eec <Code_681>
     5d0:	e008      	b.n	5e4 <tidyup_finish>
     5d2:	2906      	cmp	r1, #6
     5d4:	d006      	beq.n	5e4 <tidyup_finish>
     5d6:	3f04      	subs	r7, #4
     5d8:	603e      	str	r6, [r7, #0]
     5da:	4e33      	ldr	r6, [pc, #204]	; (6a8 <r0_unfrei+0x44>)
     5dc:	00c9      	lsls	r1, r1, #3
     5de:	430e      	orrs	r6, r1
     5e0:	f003 f827 	bl	3632 <Code_826>

000005e4 <tidyup_finish>:
     5e4:	f000 f801 	bl	5ea <init_register_allocator>
     5e8:	bd0f      	pop	{r0, r1, r2, r3, pc}

000005ea <init_register_allocator>:
     5ea:	4824      	ldr	r0, [pc, #144]	; (67c <r0_unfrei+0x18>)
     5ec:	211e      	movs	r1, #30
     5ee:	6201      	str	r1, [r0, #32]
     5f0:	6181      	str	r1, [r0, #24]
     5f2:	6101      	str	r1, [r0, #16]
     5f4:	6081      	str	r1, [r0, #8]
     5f6:	62c1      	str	r1, [r0, #44]	; 0x2c
     5f8:	2106      	movs	r1, #6
     5fa:	6001      	str	r1, [r0, #0]
     5fc:	2100      	movs	r1, #0
     5fe:	6281      	str	r1, [r0, #40]	; 0x28
     600:	4770      	bx	lr

00000602 <generiere_konstante>:
     602:	b507      	push	{r0, r1, r2, lr}
     604:	3f04      	subs	r7, #4
     606:	603e      	str	r6, [r7, #0]
     608:	001e      	movs	r6, r3
     60a:	f000 f84f 	bl	6ac <get_free_register>
     60e:	3f04      	subs	r7, #4
     610:	603e      	str	r6, [r7, #0]
     612:	001e      	movs	r6, r3
     614:	f002 fc6a 	bl	2eec <Code_681>
     618:	bd07      	pop	{r0, r1, r2, pc}

0000061a <generiere_adresskonstante>:
     61a:	b507      	push	{r0, r1, r2, lr}
     61c:	6ac1      	ldr	r1, [r0, #44]	; 0x2c
     61e:	2928      	cmp	r1, #40	; 0x28
     620:	d104      	bne.n	62c <generiere_adresskonstante+0x12>
     622:	6b01      	ldr	r1, [r0, #48]	; 0x30
     624:	4299      	cmp	r1, r3
     626:	d101      	bne.n	62c <generiere_adresskonstante+0x12>
     628:	2300      	movs	r3, #0
     62a:	bd07      	pop	{r0, r1, r2, pc}
     62c:	6801      	ldr	r1, [r0, #0]
     62e:	2900      	cmp	r1, #0
     630:	d018      	beq.n	664 <r0_unfrei>
     632:	6881      	ldr	r1, [r0, #8]
     634:	2900      	cmp	r1, #0
     636:	d015      	beq.n	664 <r0_unfrei>
     638:	6901      	ldr	r1, [r0, #16]
     63a:	2900      	cmp	r1, #0
     63c:	d012      	beq.n	664 <r0_unfrei>
     63e:	6981      	ldr	r1, [r0, #24]
     640:	2900      	cmp	r1, #0
     642:	d00f      	beq.n	664 <r0_unfrei>
     644:	6a01      	ldr	r1, [r0, #32]
     646:	2900      	cmp	r1, #0
     648:	d00c      	beq.n	664 <r0_unfrei>
     64a:	6303      	str	r3, [r0, #48]	; 0x30
     64c:	3f04      	subs	r7, #4
     64e:	603e      	str	r6, [r7, #0]
     650:	001e      	movs	r6, r3
     652:	3f04      	subs	r7, #4
     654:	603e      	str	r6, [r7, #0]
     656:	2600      	movs	r6, #0
     658:	f002 fc48 	bl	2eec <Code_681>
     65c:	2128      	movs	r1, #40	; 0x28
     65e:	62c1      	str	r1, [r0, #44]	; 0x2c
     660:	2300      	movs	r3, #0
     662:	bd07      	pop	{r0, r1, r2, pc}

00000664 <r0_unfrei>:
     664:	3f04      	subs	r7, #4
     666:	603e      	str	r6, [r7, #0]
     668:	001e      	movs	r6, r3
     66a:	f000 f81f 	bl	6ac <get_free_register>
     66e:	3f04      	subs	r7, #4
     670:	603e      	str	r6, [r7, #0]
     672:	001e      	movs	r6, r3
     674:	f002 fc3a 	bl	2eec <Code_681>
     678:	bd07      	pop	{r0, r1, r2, pc}
     67a:	f0280000 			; <UNDEFINED> instruction: 0xf0280000
     67e:	11a41fff 	strdne	r1, [r4, pc]!
     682:	02610000 	rsbeq	r0, r1, #0
     686:	20000000 	andcs	r0, r0, r0
     68a:	f0480000 			; <UNDEFINED> instruction: 0xf0480000
     68e:	3f041fff 	svccc	0x00041fff
     692:	60380000 	eorsvs	r0, r8, r0
     696:	f0400000 			; <UNDEFINED> instruction: 0xf0400000
     69a:	f0381fff 			; <UNDEFINED> instruction: 0xf0381fff
     69e:	f0301fff 			; <UNDEFINED> instruction: 0xf0301fff
     6a2:	cf401fff 	svcgt	0x00401fff
     6a6:	46060000 	strmi	r0, [r6], -r0
	...

000006ac <get_free_register>:
     6ac:	b537      	push	{r0, r1, r2, r4, r5, lr}
     6ae:	4836      	ldr	r0, [pc, #216]	; (788 <expect_four_elements+0x28>)
     6b0:	6801      	ldr	r1, [r0, #0]
     6b2:	6882      	ldr	r2, [r0, #8]
     6b4:	6903      	ldr	r3, [r0, #16]
     6b6:	6984      	ldr	r4, [r0, #24]
     6b8:	6a05      	ldr	r5, [r0, #32]
     6ba:	2006      	movs	r0, #6
     6bc:	f000 f80e 	bl	6dc <get_free_register_intern>
     6c0:	2003      	movs	r0, #3
     6c2:	f000 f80b 	bl	6dc <get_free_register_intern>
     6c6:	2002      	movs	r0, #2
     6c8:	f000 f808 	bl	6dc <get_free_register_intern>
     6cc:	2001      	movs	r0, #1
     6ce:	f000 f805 	bl	6dc <get_free_register_intern>
     6d2:	2300      	movs	r3, #0
     6d4:	482c      	ldr	r0, [pc, #176]	; (788 <expect_four_elements+0x28>)
     6d6:	211e      	movs	r1, #30
     6d8:	62c1      	str	r1, [r0, #44]	; 0x2c
     6da:	bd37      	pop	{r0, r1, r2, r4, r5, pc}

000006dc <get_free_register_intern>:
     6dc:	4281      	cmp	r1, r0
     6de:	d009      	beq.n	6f4 <get_free_register_intern+0x18>
     6e0:	4282      	cmp	r2, r0
     6e2:	d007      	beq.n	6f4 <get_free_register_intern+0x18>
     6e4:	4283      	cmp	r3, r0
     6e6:	d005      	beq.n	6f4 <get_free_register_intern+0x18>
     6e8:	4284      	cmp	r4, r0
     6ea:	d003      	beq.n	6f4 <get_free_register_intern+0x18>
     6ec:	4285      	cmp	r5, r0
     6ee:	d001      	beq.n	6f4 <get_free_register_intern+0x18>
     6f0:	0003      	movs	r3, r0
     6f2:	bd37      	pop	{r0, r1, r2, r4, r5, pc}
     6f4:	4770      	bx	lr

000006f6 <erstes_element_belegen>:
     6f6:	3f04      	subs	r7, #4
     6f8:	603e      	str	r6, [r7, #0]
     6fa:	4e24      	ldr	r6, [pc, #144]	; (78c <expect_four_elements+0x2c>)

000006fc <element_belegen>:
     6fc:	b500      	push	{lr}
     6fe:	5881      	ldr	r1, [r0, r2]
     700:	291e      	cmp	r1, #30
     702:	d105      	bne.n	710 <element_belegen+0x14>
     704:	f7ff ffd2 	bl	6ac <get_free_register>
     708:	5083      	str	r3, [r0, r2]
     70a:	2101      	movs	r1, #1
     70c:	4099      	lsls	r1, r3
     70e:	430e      	orrs	r6, r1
     710:	bd00      	pop	{pc}

00000712 <expect_one_element>:
     712:	b500      	push	{lr}
     714:	6801      	ldr	r1, [r0, #0]
     716:	291e      	cmp	r1, #30
     718:	d104      	bne.n	724 <expect_one_element+0x12>
     71a:	2200      	movs	r2, #0
     71c:	f7ff ffeb 	bl	6f6 <erstes_element_belegen>
     720:	f002 ff87 	bl	3632 <Code_826>
     724:	bd00      	pop	{pc}

00000726 <expect_two_elements>:
     726:	b500      	push	{lr}
     728:	6881      	ldr	r1, [r0, #8]
     72a:	291e      	cmp	r1, #30
     72c:	d107      	bne.n	73e <expect_two_elements+0x18>
     72e:	2208      	movs	r2, #8
     730:	f7ff ffe1 	bl	6f6 <erstes_element_belegen>
     734:	2200      	movs	r2, #0
     736:	f7ff ffe1 	bl	6fc <element_belegen>
     73a:	f002 ff7a 	bl	3632 <Code_826>
     73e:	bd00      	pop	{pc}

00000740 <expect_three_elements>:
     740:	b500      	push	{lr}
     742:	6901      	ldr	r1, [r0, #16]
     744:	291e      	cmp	r1, #30
     746:	d10a      	bne.n	75e <expect_three_elements+0x1e>
     748:	2210      	movs	r2, #16
     74a:	f7ff ffd4 	bl	6f6 <erstes_element_belegen>
     74e:	2208      	movs	r2, #8
     750:	f7ff ffd4 	bl	6fc <element_belegen>
     754:	2200      	movs	r2, #0
     756:	f7ff ffd1 	bl	6fc <element_belegen>
     75a:	f002 ff6a 	bl	3632 <Code_826>
     75e:	bd00      	pop	{pc}

00000760 <expect_four_elements>:
     760:	b500      	push	{lr}
     762:	6981      	ldr	r1, [r0, #24]
     764:	291e      	cmp	r1, #30
     766:	d10d      	bne.n	784 <expect_four_elements+0x24>
     768:	2218      	movs	r2, #24
     76a:	f7ff ffc4 	bl	6f6 <erstes_element_belegen>
     76e:	2210      	movs	r2, #16
     770:	f7ff ffc4 	bl	6fc <element_belegen>
     774:	2208      	movs	r2, #8
     776:	f7ff ffc1 	bl	6fc <element_belegen>
     77a:	2200      	movs	r2, #0
     77c:	f7ff ffbe 	bl	6fc <element_belegen>
     780:	f002 ff57 	bl	3632 <Code_826>
     784:	bd00      	pop	{pc}
     786:	f0280000 			; <UNDEFINED> instruction: 0xf0280000
     78a:	cf001fff 	svcgt	0x00001fff
	...

00000790 <expect_tos_in_register>:
     790:	b500      	push	{lr}
     792:	6801      	ldr	r1, [r0, #0]
     794:	2928      	cmp	r1, #40	; 0x28
     796:	d104      	bne.n	7a2 <expect_tos_in_register+0x12>
     798:	6843      	ldr	r3, [r0, #4]
     79a:	f7ff ff32 	bl	602 <generiere_konstante>
     79e:	6003      	str	r3, [r0, #0]
     7a0:	0019      	movs	r1, r3
     7a2:	bd00      	pop	{pc}

000007a4 <expect_nos_in_register>:
     7a4:	b500      	push	{lr}
     7a6:	6881      	ldr	r1, [r0, #8]
     7a8:	2928      	cmp	r1, #40	; 0x28
     7aa:	d104      	bne.n	7b6 <expect_nos_in_register+0x12>
     7ac:	68c3      	ldr	r3, [r0, #12]
     7ae:	f7ff ff28 	bl	602 <generiere_konstante>
     7b2:	6083      	str	r3, [r0, #8]
     7b4:	0019      	movs	r1, r3
     7b6:	bd00      	pop	{pc}

000007b8 <expect_3os_in_register>:
     7b8:	b500      	push	{lr}
     7ba:	6901      	ldr	r1, [r0, #16]
     7bc:	2928      	cmp	r1, #40	; 0x28
     7be:	d104      	bne.n	7ca <expect_3os_in_register+0x12>
     7c0:	6943      	ldr	r3, [r0, #20]
     7c2:	f7ff ff1e 	bl	602 <generiere_konstante>
     7c6:	6103      	str	r3, [r0, #16]
     7c8:	0019      	movs	r1, r3
     7ca:	bd00      	pop	{pc}

000007cc <nos_change_tos_away_later>:
     7cc:	b53e      	push	{r1, r2, r3, r4, r5, lr}
     7ce:	6882      	ldr	r2, [r0, #8]
     7d0:	6903      	ldr	r3, [r0, #16]
     7d2:	6984      	ldr	r4, [r0, #24]
     7d4:	6a05      	ldr	r5, [r0, #32]
     7d6:	429a      	cmp	r2, r3
     7d8:	d003      	beq.n	7e2 <nos_change_tos_away_later+0x16>
     7da:	42a2      	cmp	r2, r4
     7dc:	d001      	beq.n	7e2 <nos_change_tos_away_later+0x16>
     7de:	42aa      	cmp	r2, r5
     7e0:	d10a      	bne.n	7f8 <nos_change_tos_away_later+0x2c>
     7e2:	2a07      	cmp	r2, #7
     7e4:	d808      	bhi.n	7f8 <nos_change_tos_away_later+0x2c>
     7e6:	3f04      	subs	r7, #4
     7e8:	603e      	str	r6, [r7, #0]
     7ea:	00d6      	lsls	r6, r2, #3
     7ec:	f7ff ff5e 	bl	6ac <get_free_register>
     7f0:	431e      	orrs	r6, r3
     7f2:	6083      	str	r3, [r0, #8]
     7f4:	f002 ff1d 	bl	3632 <Code_826>
     7f8:	bd3e      	pop	{r1, r2, r3, r4, r5, pc}

000007fa <make_tos_changeable>:
     7fa:	b53e      	push	{r1, r2, r3, r4, r5, lr}
     7fc:	6801      	ldr	r1, [r0, #0]
     7fe:	6882      	ldr	r2, [r0, #8]
     800:	6903      	ldr	r3, [r0, #16]
     802:	6984      	ldr	r4, [r0, #24]
     804:	6a05      	ldr	r5, [r0, #32]
     806:	4291      	cmp	r1, r2
     808:	d006      	beq.n	818 <BIT11+0x18>
     80a:	4299      	cmp	r1, r3
     80c:	d004      	beq.n	818 <BIT11+0x18>
     80e:	42a1      	cmp	r1, r4
     810:	d002      	beq.n	818 <BIT11+0x18>
     812:	42a9      	cmp	r1, r5
     814:	d000      	beq.n	818 <BIT11+0x18>
     816:	bd3e      	pop	{r1, r2, r3, r4, r5, pc}
     818:	3f04      	subs	r7, #4
     81a:	603e      	str	r6, [r7, #0]
     81c:	00ce      	lsls	r6, r1, #3
     81e:	f7ff ff45 	bl	6ac <get_free_register>
     822:	431e      	orrs	r6, r3
     824:	6003      	str	r3, [r0, #0]
     826:	f002 ff04 	bl	3632 <Code_826>
     82a:	bd3e      	pop	{r1, r2, r3, r4, r5, pc}

0000082c <tos_registerwechsel>:
     82c:	b500      	push	{lr}
     82e:	f7ff fe68 	bl	502 <eliminiere_tos>
     832:	f7ff fe5c 	bl	4ee <befreie_tos>
     836:	f7ff ff39 	bl	6ac <get_free_register>
     83a:	6003      	str	r3, [r0, #0]
     83c:	bd00      	pop	{pc}

0000083e <push_lr_nachholen>:
     83e:	b501      	push	{r0, lr}
     840:	4806      	ldr	r0, [pc, #24]	; (85c <push_lr_nachholen+0x1e>)
     842:	6803      	ldr	r3, [r0, #0]
     844:	3301      	adds	r3, #1
     846:	d007      	beq.n	858 <push_lr_nachholen+0x1a>
     848:	2300      	movs	r3, #0
     84a:	43db      	mvns	r3, r3
     84c:	6003      	str	r3, [r0, #0]
     84e:	3f04      	subs	r7, #4
     850:	603e      	str	r6, [r7, #0]
     852:	4e03      	ldr	r6, [pc, #12]	; (860 <push_lr_nachholen+0x22>)
     854:	f002 feed 	bl	3632 <Code_826>
     858:	bd01      	pop	{r0, pc}
     85a:	2fd80000 	svccs	0x00d80000
     85e:	b5002000 	strlt	r2, [r0]
	...

00000864 <Dictionary_72>:
     864:	00000888 	andeq	r0, r0, r8, lsl #17
     868:	32040242 	andcc	r0, r4, #536870916	; 0x20000004
     86c:	00707564 	rsbseq	r7, r0, r4, ror #10

00000870 <Code_72>:
     870:	6838      	ldr	r0, [r7, #0]
     872:	3f04      	subs	r7, #4
     874:	603e      	str	r6, [r7, #0]
     876:	3f04      	subs	r7, #4
     878:	6038      	str	r0, [r7, #0]
     87a:	4770      	bx	lr
     87c:	b500      	push	{lr}
     87e:	f000 fce3 	bl	1248 <over_allocator>
     882:	f000 fce1 	bl	1248 <over_allocator>
     886:	bd00      	pop	{pc}

00000888 <Dictionary_74>:
     888:	000008a8 	andeq	r0, r0, r8, lsr #17
     88c:	32050262 	andcc	r0, r5, #536870918	; 0x20000006
     890:	706f7264 	rsbvc	r7, pc, r4, ror #4

00000894 <Code_74>:
     894:	3704      	adds	r7, #4
     896:	cf40      	ldmia	r7!, {r6}
     898:	4770      	bx	lr
     89a:	b500      	push	{lr}
     89c:	f000 fc84 	bl	11a8 <drop_allocator>
     8a0:	f000 fc82 	bl	11a8 <drop_allocator>
     8a4:	bd00      	pop	{pc}
     8a6:	46c0      	nop			; (mov r8, r8)

000008a8 <Dictionary_76>:
     8a8:	000008f0 	strdeq	r0, [r0], -r0	; <UNPREDICTABLE>
     8ac:	32050244 	andcc	r0, r5, #1073741828	; 0x40000004
     8b0:	70617773 	rsbvc	r7, r1, r3, ror r7

000008b4 <Code_76>:
     8b4:	cf07      	ldmia	r7!, {r0, r1, r2}
     8b6:	3f04      	subs	r7, #4
     8b8:	6038      	str	r0, [r7, #0]
     8ba:	3f04      	subs	r7, #4
     8bc:	603e      	str	r6, [r7, #0]
     8be:	3f04      	subs	r7, #4
     8c0:	603a      	str	r2, [r7, #0]
     8c2:	000e      	movs	r6, r1
     8c4:	4770      	bx	lr

000008c6 <dswap_allocator>:
     8c6:	b500      	push	{lr}
     8c8:	f7ff ff4a 	bl	760 <expect_four_elements>
     8cc:	6802      	ldr	r2, [r0, #0]
     8ce:	6903      	ldr	r3, [r0, #16]
     8d0:	6003      	str	r3, [r0, #0]
     8d2:	6102      	str	r2, [r0, #16]
     8d4:	6842      	ldr	r2, [r0, #4]
     8d6:	6943      	ldr	r3, [r0, #20]
     8d8:	6043      	str	r3, [r0, #4]
     8da:	6142      	str	r2, [r0, #20]
     8dc:	6882      	ldr	r2, [r0, #8]
     8de:	6983      	ldr	r3, [r0, #24]
     8e0:	6083      	str	r3, [r0, #8]
     8e2:	6182      	str	r2, [r0, #24]
     8e4:	68c2      	ldr	r2, [r0, #12]
     8e6:	69c3      	ldr	r3, [r0, #28]
     8e8:	60c3      	str	r3, [r0, #12]
     8ea:	61c2      	str	r2, [r0, #28]
     8ec:	bd00      	pop	{pc}
     8ee:	46c0      	nop			; (mov r8, r8)

000008f0 <Dictionary_78>:
     8f0:	00000918 	andeq	r0, r0, r8, lsl r9
     8f4:	32040262 	andcc	r0, r4, #536870918	; 0x20000006
     8f8:	0070696e 	rsbseq	r6, r0, lr, ror #18

000008fc <Code_78>:
     8fc:	cf07      	ldmia	r7!, {r0, r1, r2}
     8fe:	3f04      	subs	r7, #4
     900:	6038      	str	r0, [r7, #0]
     902:	4770      	bx	lr
     904:	b500      	push	{lr}
     906:	f7ff ff2b 	bl	760 <expect_four_elements>
     90a:	f7ff ffdc 	bl	8c6 <dswap_allocator>
     90e:	f7ff fdf8 	bl	502 <eliminiere_tos>
     912:	f7ff fdf6 	bl	502 <eliminiere_tos>
     916:	bd00      	pop	{pc}

00000918 <Dictionary_79>:
     918:	00000934 	andeq	r0, r0, r4, lsr r9
     91c:	32050044 	andcc	r0, r5, #68	; 0x44
     920:	7265766f 	rsbvc	r7, r5, #116391936	; 0x6f00000

00000924 <Code_79>:
     924:	68b8      	ldr	r0, [r7, #8]
     926:	3f04      	subs	r7, #4
     928:	603e      	str	r6, [r7, #0]
     92a:	3f04      	subs	r7, #4
     92c:	6038      	str	r0, [r7, #0]
     92e:	68fe      	ldr	r6, [r7, #12]
     930:	4770      	bx	lr
     932:	46c0      	nop			; (mov r8, r8)

00000934 <Dictionary_81>:
     934:	00000958 	andeq	r0, r0, r8, asr r9
     938:	32050044 	andcc	r0, r5, #68	; 0x44
     93c:	6b637574 	blvs	18ddf14 <BIT24+0x8ddf14>

00000940 <Code_81>:
     940:	cf07      	ldmia	r7!, {r0, r1, r2}
     942:	3f04      	subs	r7, #4
     944:	6038      	str	r0, [r7, #0]
     946:	3f04      	subs	r7, #4
     948:	603e      	str	r6, [r7, #0]
     94a:	3f04      	subs	r7, #4
     94c:	603a      	str	r2, [r7, #0]
     94e:	3f04      	subs	r7, #4
     950:	6039      	str	r1, [r7, #0]
     952:	3f04      	subs	r7, #4
     954:	6038      	str	r0, [r7, #0]
     956:	4770      	bx	lr

00000958 <Dictionary_83>:
     958:	0000097c 	andeq	r0, r0, ip, ror r9
     95c:	32040046 	andcc	r0, r4, #70	; 0x46
     960:	00746f72 	rsbseq	r6, r4, r2, ror pc

00000964 <Code_83>:
     964:	6838      	ldr	r0, [r7, #0]
     966:	68b9      	ldr	r1, [r7, #8]
     968:	693a      	ldr	r2, [r7, #16]
     96a:	60b8      	str	r0, [r7, #8]
     96c:	6139      	str	r1, [r7, #16]
     96e:	603a      	str	r2, [r7, #0]
     970:	6879      	ldr	r1, [r7, #4]
     972:	607e      	str	r6, [r7, #4]
     974:	68fe      	ldr	r6, [r7, #12]
     976:	60f9      	str	r1, [r7, #12]
     978:	4770      	bx	lr
     97a:	46c0      	nop			; (mov r8, r8)

0000097c <Dictionary_84>:
     97c:	000009a0 	andeq	r0, r0, r0, lsr #19
     980:	32050046 	andcc	r0, r5, #70	; 0x46
     984:	746f722d 	strbtvc	r7, [pc], #-557	; 98c <Code_84+0x4>

00000988 <Code_84>:
     988:	6838      	ldr	r0, [r7, #0]
     98a:	68b9      	ldr	r1, [r7, #8]
     98c:	693a      	ldr	r2, [r7, #16]
     98e:	6138      	str	r0, [r7, #16]
     990:	6039      	str	r1, [r7, #0]
     992:	60ba      	str	r2, [r7, #8]
     994:	68f9      	ldr	r1, [r7, #12]
     996:	60fe      	str	r6, [r7, #12]
     998:	687e      	ldr	r6, [r7, #4]
     99a:	6079      	str	r1, [r7, #4]
     99c:	4770      	bx	lr
     99e:	46c0      	nop			; (mov r8, r8)

000009a0 <Dictionary_85>:
     9a0:	000009c8 	andeq	r0, r0, r8, asr #19
     9a4:	32030220 	andcc	r0, r3, #2
     9a8:	cf01723e 	svcgt	0x0001723e

000009aa <Code_85>:
     9aa:	cf01      	ldmia	r7!, {r0}
     9ac:	b401      	push	{r0}
     9ae:	b440      	push	{r6}
     9b0:	cf40      	ldmia	r7!, {r6}
     9b2:	4770      	bx	lr
     9b4:	b500      	push	{lr}
     9b6:	f7ff ff42 	bl	83e <push_lr_nachholen>
     9ba:	f000 fc19 	bl	11f0 <swap_allocator>
     9be:	f000 fcbb 	bl	1338 <allocator_to_r>
     9c2:	f000 fcb9 	bl	1338 <allocator_to_r>
     9c6:	bd00      	pop	{pc}

000009c8 <Dictionary_86>:
     9c8:	000009f4 	strdeq	r0, [r0], -r4
     9cc:	32030220 	andcc	r0, r3, #2
     9d0:	3f043e72 	svccc	0x00043e72

000009d2 <Code_86>:
     9d2:	3f04      	subs	r7, #4
     9d4:	603e      	str	r6, [r7, #0]
     9d6:	bc40      	pop	{r6}
     9d8:	bc01      	pop	{r0}
     9da:	3f04      	subs	r7, #4
     9dc:	6038      	str	r0, [r7, #0]
     9de:	4770      	bx	lr
     9e0:	b500      	push	{lr}
     9e2:	f7ff ff2c 	bl	83e <push_lr_nachholen>
     9e6:	f000 fcc2 	bl	136e <allocator_r_from>
     9ea:	f000 fcc0 	bl	136e <allocator_r_from>
     9ee:	f000 fbff 	bl	11f0 <swap_allocator>
     9f2:	bd00      	pop	{pc}

000009f4 <Dictionary_88>:
     9f4:	00000a24 	andeq	r0, r0, r4, lsr #20
     9f8:	32030220 	andcc	r0, r3, #2
     9fc:	3f044072 	svccc	0x00044072

000009fe <Code_88>:
     9fe:	3f04      	subs	r7, #4
     a00:	603e      	str	r6, [r7, #0]
     a02:	9e01      	ldr	r6, [sp, #4]
     a04:	3f04      	subs	r7, #4
     a06:	603e      	str	r6, [r7, #0]
     a08:	9e00      	ldr	r6, [sp, #0]
     a0a:	4770      	bx	lr
     a0c:	b500      	push	{lr}
     a0e:	f7ff ff16 	bl	83e <push_lr_nachholen>
     a12:	3f04      	subs	r7, #4
     a14:	603e      	str	r6, [r7, #0]
     a16:	4e0c      	ldr	r6, [pc, #48]	; (a48 <Code_93+0x16>)
     a18:	f003 fb25 	bl	4066 <loop_j_allocator>
     a1c:	f003 fb20 	bl	4060 <rfetch_allocator>
     a20:	bd00      	pop	{pc}
     a22:	46c0      	nop			; (mov r8, r8)

00000a24 <Dictionary_93>:
     a24:	00000a50 	andeq	r0, r0, r0, asr sl
     a28:	32060220 	andcc	r0, r6, #2
     a2c:	6f726472 	svcvs	0x00726472
     a30:	b0020070 	andlt	r0, r2, r0, ror r0

00000a32 <Code_93>:
     a32:	b002      	add	sp, #8
     a34:	4770      	bx	lr
     a36:	b500      	push	{lr}
     a38:	f7ff ff01 	bl	83e <push_lr_nachholen>
     a3c:	3f04      	subs	r7, #4
     a3e:	603e      	str	r6, [r7, #0]
     a40:	4e02      	ldr	r6, [pc, #8]	; (a4c <Code_93+0x1a>)
     a42:	f002 fdf6 	bl	3632 <Code_826>
     a46:	bd00      	pop	{pc}
     a48:	00009801 	andeq	r9, r0, r1, lsl #16
     a4c:	0000b002 	andeq	fp, r0, r2

00000a50 <Dictionary_96>:
     a50:	00000a68 	andeq	r0, r0, r8, ror #20
     a54:	64030042 	strvs	r0, [r3], #-66	; 0x42
     a58:	68382f32 	ldmdavs	r8!, {r1, r4, r5, r8, r9, sl, fp, sp}

00000a5a <Code_96>:
     a5a:	6838      	ldr	r0, [r7, #0]
     a5c:	07f1      	lsls	r1, r6, #31
     a5e:	1076      	asrs	r6, r6, #1
     a60:	0840      	lsrs	r0, r0, #1
     a62:	4308      	orrs	r0, r1
     a64:	6038      	str	r0, [r7, #0]
     a66:	4770      	bx	lr

00000a68 <Dictionary_97>:
     a68:	00000a80 	andeq	r0, r0, r0, lsl #21
     a6c:	64030262 	strvs	r0, [r3], #-610	; 0x262
     a70:	68382a32 	ldmdavs	r8!, {r1, r4, r5, r9, fp, sp}

00000a72 <Code_97>:
     a72:	6838      	ldr	r0, [r7, #0]
     a74:	1800      	adds	r0, r0, r0
     a76:	4176      	adcs	r6, r6
     a78:	6038      	str	r0, [r7, #0]
     a7a:	4770      	bx	lr
     a7c:	e019      	b.n	ab2 <Code_99+0xa>
     a7e:	46c0      	nop			; (mov r8, r8)

00000a80 <Dictionary_98>:
     a80:	00000a9c 	muleq	r0, ip, sl
     a84:	64040042 	strvs	r0, [r4], #-66	; 0x42
     a88:	00726873 	rsbseq	r6, r2, r3, ror r8

00000a8c <Code_98>:
     a8c:	6838      	ldr	r0, [r7, #0]
     a8e:	07f1      	lsls	r1, r6, #31
     a90:	0876      	lsrs	r6, r6, #1
     a92:	0840      	lsrs	r0, r0, #1
     a94:	4308      	orrs	r0, r1
     a96:	6038      	str	r0, [r7, #0]
     a98:	4770      	bx	lr
     a9a:	46c0      	nop			; (mov r8, r8)

00000a9c <Dictionary_99>:
     a9c:	00000ae8 	andeq	r0, r0, r8, ror #21
     aa0:	64040262 	strvs	r0, [r4], #-610	; 0x262
     aa4:	006c6873 	rsbeq	r6, ip, r3, ror r8

00000aa8 <Code_99>:
     aa8:	6838      	ldr	r0, [r7, #0]
     aaa:	1800      	adds	r0, r0, r0
     aac:	4176      	adcs	r6, r6
     aae:	6038      	str	r0, [r7, #0]
     ab0:	4770      	bx	lr
     ab2:	b500      	push	{lr}
     ab4:	f7ff fe37 	bl	726 <expect_two_elements>
     ab8:	f7ff fe6a 	bl	790 <expect_tos_in_register>
     abc:	f7ff fe9d 	bl	7fa <make_tos_changeable>
     ac0:	f000 fb96 	bl	11f0 <swap_allocator>
     ac4:	f7ff fe64 	bl	790 <expect_tos_in_register>
     ac8:	f7ff fe97 	bl	7fa <make_tos_changeable>
     acc:	3f04      	subs	r7, #4
     ace:	603e      	str	r6, [r7, #0]
     ad0:	2640      	movs	r6, #64	; 0x40
     ad2:	f001 fd13 	bl	24fc <smalltworegisters>
     ad6:	f000 fb8b 	bl	11f0 <swap_allocator>
     ada:	3f04      	subs	r7, #4
     adc:	603e      	str	r6, [r7, #0]
     ade:	4e40      	ldr	r6, [pc, #256]	; (be0 <Code_112+0x1e>)
     ae0:	f001 fd0c 	bl	24fc <smalltworegisters>
     ae4:	bd00      	pop	{pc}
     ae6:	46c0      	nop			; (mov r8, r8)

00000ae8 <Dictionary_104>:
     ae8:	00000afc 	strdeq	r0, [r0], -ip
     aec:	64040042 	strvs	r0, [r4], #-66	; 0x42
     af0:	00736261 	rsbseq	r6, r3, r1, ror #4

00000af4 <Code_104>:
     af4:	2e00      	cmp	r6, #0
     af6:	d408      	bmi.n	b0a <Code_105>
     af8:	4770      	bx	lr
     afa:	46c0      	nop			; (mov r8, r8)

00000afc <Dictionary_105>:
     afc:	00000b1c 	andeq	r0, r0, ip, lsl fp
     b00:	64070042 	strvs	r0, [r7], #-66	; 0x42
     b04:	6167656e 	cmnvs	r7, lr, ror #10
     b08:	68386574 	ldmdavs	r8!, {r2, r4, r5, r6, r8, sl, sp, lr}

00000b0a <Code_105>:
     b0a:	6838      	ldr	r0, [r7, #0]
     b0c:	2100      	movs	r1, #0
     b0e:	43c0      	mvns	r0, r0
     b10:	43f6      	mvns	r6, r6
     b12:	3001      	adds	r0, #1
     b14:	414e      	adcs	r6, r1
     b16:	6038      	str	r0, [r7, #0]
     b18:	4770      	bx	lr
     b1a:	46c0      	nop			; (mov r8, r8)

00000b1c <Dictionary_106>:
     b1c:	00000b6c 	andeq	r0, r0, ip, ror #22
     b20:	64020264 	strvs	r0, [r2], #-612	; 0x264
     b24:	cf07002d 	svcgt	0x0007002d

00000b26 <Code_106>:
     b26:	cf07      	ldmia	r7!, {r0, r1, r2}
     b28:	1a12      	subs	r2, r2, r0
     b2a:	41b1      	sbcs	r1, r6
     b2c:	000e      	movs	r6, r1
     b2e:	3f04      	subs	r7, #4
     b30:	603a      	str	r2, [r7, #0]
     b32:	4770      	bx	lr
     b34:	b500      	push	{lr}
     b36:	f7ff fe13 	bl	760 <expect_four_elements>
     b3a:	f000 fbae 	bl	129a <rot_allocator>
     b3e:	f7ff fe27 	bl	790 <expect_tos_in_register>
     b42:	f7ff fe5a 	bl	7fa <make_tos_changeable>
     b46:	f000 fb53 	bl	11f0 <swap_allocator>
     b4a:	f7ff fe21 	bl	790 <expect_tos_in_register>
     b4e:	f7ff fe54 	bl	7fa <make_tos_changeable>
     b52:	f7ff feb8 	bl	8c6 <dswap_allocator>
     b56:	f001 fc5c 	bl	2412 <minus_allocator>
     b5a:	f000 fbbb 	bl	12d4 <minusrot_allocator>
     b5e:	3f04      	subs	r7, #4
     b60:	603e      	str	r6, [r7, #0]
     b62:	4e20      	ldr	r6, [pc, #128]	; (be4 <Code_112+0x22>)
     b64:	f000 fd3f 	bl	15e6 <alloc_unkommutativ>
     b68:	bd00      	pop	{pc}
     b6a:	46c0      	nop			; (mov r8, r8)

00000b6c <Dictionary_109>:
     b6c:	00000bb8 			; <UNDEFINED> instruction: 0x00000bb8
     b70:	64020264 	strvs	r0, [r2], #-612	; 0x264
     b74:	cf07002b 	svcgt	0x0007002b

00000b76 <Code_109>:
     b76:	cf07      	ldmia	r7!, {r0, r1, r2}
     b78:	1812      	adds	r2, r2, r0
     b7a:	414e      	adcs	r6, r1
     b7c:	3f04      	subs	r7, #4
     b7e:	603a      	str	r2, [r7, #0]
     b80:	4770      	bx	lr
     b82:	b500      	push	{lr}
     b84:	f7ff fdec 	bl	760 <expect_four_elements>
     b88:	f000 fb87 	bl	129a <rot_allocator>
     b8c:	f7ff fe00 	bl	790 <expect_tos_in_register>
     b90:	f7ff fe33 	bl	7fa <make_tos_changeable>
     b94:	f000 fb2c 	bl	11f0 <swap_allocator>
     b98:	f7ff fdfa 	bl	790 <expect_tos_in_register>
     b9c:	f7ff fe2d 	bl	7fa <make_tos_changeable>
     ba0:	f7ff fe91 	bl	8c6 <dswap_allocator>
     ba4:	f001 fc1f 	bl	23e6 <plus_allocator>
     ba8:	f000 fb94 	bl	12d4 <minusrot_allocator>
     bac:	3f04      	subs	r7, #4
     bae:	603e      	str	r6, [r7, #0]
     bb0:	4e0b      	ldr	r6, [pc, #44]	; (be0 <Code_112+0x1e>)
     bb2:	f000 fd1c 	bl	15ee <alloc_kommutativ>
     bb6:	bd00      	pop	{pc}

00000bb8 <Dictionary_112>:
     bb8:	00000bec 	andeq	r0, r0, ip, ror #23
     bbc:	73030261 	movwvc	r0, #12897	; 0x3261
     bc0:	3f04643e 	svccc	0x0004643e

00000bc2 <Code_112>:
     bc2:	3f04      	subs	r7, #4
     bc4:	603e      	str	r6, [r7, #0]
     bc6:	17f6      	asrs	r6, r6, #31
     bc8:	4770      	bx	lr
     bca:	b500      	push	{lr}
     bcc:	f000 fada 	bl	1184 <dup_allocator>
     bd0:	f7ff fe13 	bl	7fa <make_tos_changeable>
     bd4:	3f04      	subs	r7, #4
     bd6:	603e      	str	r6, [r7, #0]
     bd8:	4e03      	ldr	r6, [pc, #12]	; (be8 <Code_112+0x26>)
     bda:	f001 fc8f 	bl	24fc <smalltworegisters>
     bde:	bd00      	pop	{pc}
     be0:	00004140 	andeq	r4, r0, r0, asr #2
     be4:	00004180 	andeq	r4, r0, r0, lsl #3
     be8:	000017c0 	andeq	r1, r0, r0, asr #15

00000bec <Dictionary_116>:
     bec:	00000c18 	andeq	r0, r0, r8, lsl ip
     bf0:	75030042 	strvc	r0, [r3, #-66]	; 0x42
     bf4:	68382a6d 	ldmdavs	r8!, {r0, r2, r3, r5, r6, r9, fp, sp}

00000bf6 <Code_116>:
     bf6:	6838      	ldr	r0, [r7, #0]
     bf8:	0003      	movs	r3, r0
     bfa:	4373      	muls	r3, r6
     bfc:	603b      	str	r3, [r7, #0]
     bfe:	0c01      	lsrs	r1, r0, #16
     c00:	0c32      	lsrs	r2, r6, #16
     c02:	000b      	movs	r3, r1
     c04:	4353      	muls	r3, r2
     c06:	b2b6      	uxth	r6, r6
     c08:	b280      	uxth	r0, r0
     c0a:	434e      	muls	r6, r1
     c0c:	4350      	muls	r0, r2
     c0e:	1836      	adds	r6, r6, r0
     c10:	0c36      	lsrs	r6, r6, #16
     c12:	18f6      	adds	r6, r6, r3
     c14:	4770      	bx	lr
     c16:	46c0      	nop			; (mov r8, r8)

00000c18 <Dictionary_117>:
     c18:	00000c48 	andeq	r0, r0, r8, asr #24
     c1c:	6d020042 	stcvs	0, cr0, [r2, #-264]	; 0xfffffef8
     c20:	6838002a 	ldmdavs	r8!, {r1, r3, r5}

00000c22 <Code_117>:
     c22:	6838      	ldr	r0, [r7, #0]
     c24:	17c1      	asrs	r1, r0, #31
     c26:	d005      	beq.n	c34 <Code_117+0x12>
     c28:	4240      	negs	r0, r0
     c2a:	6038      	str	r0, [r7, #0]
     c2c:	17f0      	asrs	r0, r6, #31
     c2e:	d004      	beq.n	c3a <Code_117+0x18>
     c30:	4276      	negs	r6, r6
     c32:	e7e0      	b.n	bf6 <Code_116>
     c34:	17f0      	asrs	r0, r6, #31
     c36:	d0de      	beq.n	bf6 <Code_116>
     c38:	4276      	negs	r6, r6
     c3a:	b500      	push	{lr}
     c3c:	f7ff ffdb 	bl	bf6 <Code_116>
     c40:	f7ff ff63 	bl	b0a <Code_105>
     c44:	bd00      	pop	{pc}
     c46:	46c0      	nop			; (mov r8, r8)

00000c48 <Dictionary_118>:
     c48:	00000c88 	andeq	r0, r0, r8, lsl #25
     c4c:	75030044 	strvc	r0, [r3, #-68]	; 0x44
     c50:	cf072a64 	svcgt	0x00072a64

00000c52 <Code_118>:
     c52:	cf07      	ldmia	r7!, {r0, r1, r2}
     c54:	4356      	muls	r6, r2
     c56:	4341      	muls	r1, r0
     c58:	1876      	adds	r6, r6, r1
     c5a:	0c01      	lsrs	r1, r0, #16
     c5c:	0c13      	lsrs	r3, r2, #16
     c5e:	4359      	muls	r1, r3
     c60:	1876      	adds	r6, r6, r1
     c62:	0c01      	lsrs	r1, r0, #16
     c64:	b280      	uxth	r0, r0
     c66:	b292      	uxth	r2, r2
     c68:	4351      	muls	r1, r2
     c6a:	4343      	muls	r3, r0
     c6c:	4350      	muls	r0, r2
     c6e:	2200      	movs	r2, #0
     c70:	18c9      	adds	r1, r1, r3
     c72:	4152      	adcs	r2, r2
     c74:	0412      	lsls	r2, r2, #16
     c76:	18b6      	adds	r6, r6, r2
     c78:	040a      	lsls	r2, r1, #16
     c7a:	0c09      	lsrs	r1, r1, #16
     c7c:	1880      	adds	r0, r0, r2
     c7e:	414e      	adcs	r6, r1
     c80:	3f04      	subs	r7, #4
     c82:	6038      	str	r0, [r7, #0]
     c84:	4770      	bx	lr
     c86:	46c0      	nop			; (mov r8, r8)

00000c88 <Dictionary_119>:
     c88:	00000d1c 	andeq	r0, r0, ip, lsl sp
     c8c:	75040044 	strvc	r0, [r4, #-68]	; 0x44
     c90:	002a6d64 	eoreq	r6, sl, r4, ror #26

00000c94 <Code_119>:
     c94:	b510      	push	{r4, lr}
     c96:	2400      	movs	r4, #0
     c98:	3f04      	subs	r7, #4
     c9a:	603e      	str	r6, [r7, #0]
     c9c:	687e      	ldr	r6, [r7, #4]
     c9e:	3f04      	subs	r7, #4
     ca0:	603e      	str	r6, [r7, #0]
     ca2:	693e      	ldr	r6, [r7, #16]
     ca4:	f7ff ffa7 	bl	bf6 <Code_116>
     ca8:	0031      	movs	r1, r6
     caa:	cf40      	ldmia	r7!, {r6}
     cac:	0030      	movs	r0, r6
     cae:	cf40      	ldmia	r7!, {r6}
     cb0:	3f04      	subs	r7, #4
     cb2:	603e      	str	r6, [r7, #0]
     cb4:	683e      	ldr	r6, [r7, #0]
     cb6:	3f04      	subs	r7, #4
     cb8:	603e      	str	r6, [r7, #0]
     cba:	68fe      	ldr	r6, [r7, #12]
     cbc:	b403      	push	{r0, r1}
     cbe:	f7ff ff9a 	bl	bf6 <Code_116>
     cc2:	bc03      	pop	{r0, r1}
     cc4:	0033      	movs	r3, r6
     cc6:	cf40      	ldmia	r7!, {r6}
     cc8:	0032      	movs	r2, r6
     cca:	cf40      	ldmia	r7!, {r6}
     ccc:	3f04      	subs	r7, #4
     cce:	603e      	str	r6, [r7, #0]
     cd0:	683e      	ldr	r6, [r7, #0]
     cd2:	3f04      	subs	r7, #4
     cd4:	603e      	str	r6, [r7, #0]
     cd6:	693e      	ldr	r6, [r7, #16]
     cd8:	b40f      	push	{r0, r1, r2, r3}
     cda:	f7ff ff8c 	bl	bf6 <Code_116>
     cde:	bc0f      	pop	{r0, r1, r2, r3}
     ce0:	1992      	adds	r2, r2, r6
     ce2:	4163      	adcs	r3, r4
     ce4:	cf40      	ldmia	r7!, {r6}
     ce6:	1989      	adds	r1, r1, r6
     ce8:	4162      	adcs	r2, r4
     cea:	4163      	adcs	r3, r4
     cec:	cf40      	ldmia	r7!, {r6}
     cee:	3f04      	subs	r7, #4
     cf0:	603e      	str	r6, [r7, #0]
     cf2:	687e      	ldr	r6, [r7, #4]
     cf4:	3f04      	subs	r7, #4
     cf6:	603e      	str	r6, [r7, #0]
     cf8:	68fe      	ldr	r6, [r7, #12]
     cfa:	b40f      	push	{r0, r1, r2, r3}
     cfc:	f7ff ff7b 	bl	bf6 <Code_116>
     d00:	bc0f      	pop	{r0, r1, r2, r3}
     d02:	1992      	adds	r2, r2, r6
     d04:	4163      	adcs	r3, r4
     d06:	cf40      	ldmia	r7!, {r6}
     d08:	1989      	adds	r1, r1, r6
     d0a:	4162      	adcs	r2, r4
     d0c:	4163      	adcs	r3, r4
     d0e:	cf40      	ldmia	r7!, {r6}
     d10:	001e      	movs	r6, r3
     d12:	603a      	str	r2, [r7, #0]
     d14:	6079      	str	r1, [r7, #4]
     d16:	60b8      	str	r0, [r7, #8]
     d18:	bd10      	pop	{r4, pc}
     d1a:	46c0      	nop			; (mov r8, r8)

00000d1c <Dictionary_136>:
     d1c:	00000d40 	andeq	r0, r0, r0, asr #26
     d20:	2a020043 	bcs	80e34 <BIT19+0xe34>
     d24:	b500002f 	strlt	r0, [r0, #-47]	; 0x2f

00000d26 <Code_136>:
     d26:	b500      	push	{lr}
     d28:	b440      	push	{r6}
     d2a:	cf40      	ldmia	r7!, {r6}
     d2c:	f7ff ff79 	bl	c22 <Code_117>
     d30:	3f04      	subs	r7, #4
     d32:	603e      	str	r6, [r7, #0]
     d34:	bc40      	pop	{r6}
     d36:	f000 f84f 	bl	dd8 <Code_159>
     d3a:	3704      	adds	r7, #4
     d3c:	bd00      	pop	{pc}
     d3e:	46c0      	nop			; (mov r8, r8)

00000d40 <Dictionary_141>:
     d40:	00000d64 	andeq	r0, r0, r4, ror #26
     d44:	2a050043 	bcs	140e58 <BIT20+0x40e58>
     d48:	646f6d2f 	strbtvs	r6, [pc], #-3375	; d50 <Code_141+0x4>

00000d4c <Code_141>:
     d4c:	b500      	push	{lr}
     d4e:	b440      	push	{r6}
     d50:	cf40      	ldmia	r7!, {r6}
     d52:	f7ff ff66 	bl	c22 <Code_117>
     d56:	3f04      	subs	r7, #4
     d58:	603e      	str	r6, [r7, #0]
     d5a:	bc40      	pop	{r6}
     d5c:	f000 f83c 	bl	dd8 <Code_159>
     d60:	bd00      	pop	{pc}
     d62:	46c0      	nop			; (mov r8, r8)

00000d64 <Dictionary_145>:
     d64:	00000d88 	andeq	r0, r0, r8, lsl #27
     d68:	75030043 	strvc	r0, [r3, #-67]	; 0x43
     d6c:	b5002f2a 	strlt	r2, [r0, #-3882]	; 0xf2a

00000d6e <Code_145>:
     d6e:	b500      	push	{lr}
     d70:	b440      	push	{r6}
     d72:	cf40      	ldmia	r7!, {r6}
     d74:	f7ff ff3f 	bl	bf6 <Code_116>
     d78:	3f04      	subs	r7, #4
     d7a:	603e      	str	r6, [r7, #0]
     d7c:	bc40      	pop	{r6}
     d7e:	f000 f81c 	bl	dba <Code_154>
     d82:	3704      	adds	r7, #4
     d84:	bd00      	pop	{pc}
     d86:	46c0      	nop			; (mov r8, r8)

00000d88 <Dictionary_150>:
     d88:	00000dac 	andeq	r0, r0, ip, lsr #27
     d8c:	75060043 	strvc	r0, [r6, #-67]	; 0x43
     d90:	6f6d2f2a 	svcvs	0x006d2f2a
     d94:	b5000064 	strlt	r0, [r0, #-100]	; 0x64

00000d96 <Code_150>:
     d96:	b500      	push	{lr}
     d98:	b440      	push	{r6}
     d9a:	cf40      	ldmia	r7!, {r6}
     d9c:	f7ff ff2b 	bl	bf6 <Code_116>
     da0:	3f04      	subs	r7, #4
     da2:	603e      	str	r6, [r7, #0]
     da4:	bc40      	pop	{r6}
     da6:	f000 f808 	bl	dba <Code_154>
     daa:	bd00      	pop	{pc}

00000dac <Dictionary_154>:
     dac:	00000dcc 	andeq	r0, r0, ip, asr #27
     db0:	75060043 	strvc	r0, [r6, #-67]	; 0x43
     db4:	6f6d2f6d 	svcvs	0x006d2f6d
     db8:	b5000064 	strlt	r0, [r0, #-100]	; 0x64

00000dba <Code_154>:
     dba:	b500      	push	{lr}
     dbc:	3f04      	subs	r7, #4
     dbe:	603e      	str	r6, [r7, #0]
     dc0:	2600      	movs	r6, #0
     dc2:	f000 f81a 	bl	dfa <Code_163>
     dc6:	cf40      	ldmia	r7!, {r6}
     dc8:	3704      	adds	r7, #4
     dca:	bd00      	pop	{pc}

00000dcc <Dictionary_159>:
     dcc:	00000dec 	andeq	r0, r0, ip, ror #27
     dd0:	6d050043 	stcvs	0, cr0, [r5, #-268]	; 0xfffffef4
     dd4:	646f6d2f 	strbtvs	r6, [pc], #-3375	; ddc <Code_159+0x4>

00000dd8 <Code_159>:
     dd8:	b500      	push	{lr}
     dda:	3f04      	subs	r7, #4
     ddc:	603e      	str	r6, [r7, #0]
     dde:	17f6      	asrs	r6, r6, #31
     de0:	f000 f834 	bl	e4c <Code_165>
     de4:	cf40      	ldmia	r7!, {r6}
     de6:	3704      	adds	r7, #4
     de8:	bd00      	pop	{pc}
     dea:	46c0      	nop			; (mov r8, r8)

00000dec <Dictionary_163>:
     dec:	00000e40 	andeq	r0, r0, r0, asr #28
     df0:	75060044 	strvc	r0, [r6, #-68]	; 0x44
     df4:	6f6d2f64 	svcvs	0x006d2f64
     df8:	b4300064 	ldrtlt	r0, [r0], #-100	; 0x64

00000dfa <Code_163>:
     dfa:	b430      	push	{r4, r5}
     dfc:	2300      	movs	r3, #0
     dfe:	2200      	movs	r2, #0
     e00:	6879      	ldr	r1, [r7, #4]
     e02:	68b8      	ldr	r0, [r7, #8]

00000e04 <ud_slash_mod_internal>:
     e04:	0035      	movs	r5, r6
     e06:	683c      	ldr	r4, [r7, #0]
     e08:	2640      	movs	r6, #64	; 0x40
     e0a:	0040      	lsls	r0, r0, #1
     e0c:	4149      	adcs	r1, r1
     e0e:	4152      	adcs	r2, r2
     e10:	415b      	adcs	r3, r3
     e12:	42ab      	cmp	r3, r5
     e14:	d802      	bhi.n	e1c <ud_slash_mod_internal+0x18>
     e16:	d304      	bcc.n	e22 <ud_slash_mod_internal+0x1e>
     e18:	42a2      	cmp	r2, r4
     e1a:	d302      	bcc.n	e22 <ud_slash_mod_internal+0x1e>
     e1c:	1b12      	subs	r2, r2, r4
     e1e:	41ab      	sbcs	r3, r5
     e20:	3001      	adds	r0, #1
     e22:	3e01      	subs	r6, #1
     e24:	d1f1      	bne.n	e0a <ud_slash_mod_internal+0x6>
     e26:	000e      	movs	r6, r1
     e28:	6038      	str	r0, [r7, #0]
     e2a:	607b      	str	r3, [r7, #4]
     e2c:	60ba      	str	r2, [r7, #8]
     e2e:	bc30      	pop	{r4, r5}
     e30:	4770      	bx	lr

00000e32 <uf_slash_mod>:
     e32:	b430      	push	{r4, r5}
     e34:	2300      	movs	r3, #0
     e36:	687a      	ldr	r2, [r7, #4]
     e38:	68b9      	ldr	r1, [r7, #8]
     e3a:	2000      	movs	r0, #0
     e3c:	e7e2      	b.n	e04 <ud_slash_mod_internal>
     e3e:	46c0      	nop			; (mov r8, r8)

00000e40 <Dictionary_165>:
     e40:	00000eb8 			; <UNDEFINED> instruction: 0x00000eb8
     e44:	64050044 	strvs	r0, [r5], #-68	; 0x44
     e48:	646f6d2f 	strbtvs	r6, [pc], #-3375	; e50 <Code_165+0x4>

00000e4c <Code_165>:
     e4c:	b500      	push	{lr}
     e4e:	17f0      	asrs	r0, r6, #31
     e50:	d019      	beq.n	e86 <Code_165+0x3a>
     e52:	f7ff fe5a 	bl	b0a <Code_105>
     e56:	f7ff fd2d 	bl	8b4 <Code_76>
     e5a:	17f0      	asrs	r0, r6, #31
     e5c:	d00c      	beq.n	e78 <Code_165+0x2c>
     e5e:	f7ff fe54 	bl	b0a <Code_105>
     e62:	f7ff fd27 	bl	8b4 <Code_76>
     e66:	f7ff ffc8 	bl	dfa <Code_163>
     e6a:	f7ff fd23 	bl	8b4 <Code_76>
     e6e:	f7ff fe4c 	bl	b0a <Code_105>
     e72:	f7ff fd1f 	bl	8b4 <Code_76>
     e76:	bd00      	pop	{pc}
     e78:	f7ff fd1c 	bl	8b4 <Code_76>
     e7c:	f7ff ffbd 	bl	dfa <Code_163>
     e80:	f7ff fe43 	bl	b0a <Code_105>
     e84:	bd00      	pop	{pc}
     e86:	f7ff fd15 	bl	8b4 <Code_76>
     e8a:	17f0      	asrs	r0, r6, #31
     e8c:	d00e      	beq.n	eac <Code_165+0x60>
     e8e:	f7ff fe3c 	bl	b0a <Code_105>
     e92:	f7ff fd0f 	bl	8b4 <Code_76>
     e96:	f7ff ffb0 	bl	dfa <Code_163>
     e9a:	f7ff fe36 	bl	b0a <Code_105>
     e9e:	f7ff fd09 	bl	8b4 <Code_76>
     ea2:	f7ff fe32 	bl	b0a <Code_105>
     ea6:	f7ff fd05 	bl	8b4 <Code_76>
     eaa:	bd00      	pop	{pc}
     eac:	f7ff fd02 	bl	8b4 <Code_76>
     eb0:	f7ff ffa3 	bl	dfa <Code_163>
     eb4:	bd00      	pop	{pc}
     eb6:	46c0      	nop			; (mov r8, r8)

00000eb8 <Dictionary_166>:
     eb8:	00000ed0 	ldrdeq	r0, [r0], -r0	; <UNPREDICTABLE>
     ebc:	64020044 	strvs	r0, [r2], #-68	; 0x44
     ec0:	b500002f 	strlt	r0, [r0, #-47]	; 0x2f

00000ec2 <Code_166>:
     ec2:	b500      	push	{lr}
     ec4:	f7ff ffc2 	bl	e4c <Code_165>
     ec8:	f7ff fd18 	bl	8fc <Code_78>
     ecc:	bd00      	pop	{pc}
     ece:	46c0      	nop			; (mov r8, r8)

00000ed0 <Dictionary_167>:
     ed0:	00000f18 	andeq	r0, r0, r8, lsl pc
     ed4:	66020044 	strvs	r0, [r2], -r4, asr #32
     ed8:	b500002a 	strlt	r0, [r0, #-42]	; 0x2a

00000eda <Code_167>:
     eda:	b500      	push	{lr}
     edc:	17f0      	asrs	r0, r6, #31
     ede:	d00d      	beq.n	efc <Code_167+0x22>
     ee0:	f7ff fe13 	bl	b0a <Code_105>
     ee4:	f7ff fce6 	bl	8b4 <Code_76>
     ee8:	17f0      	asrs	r0, r6, #31
     eea:	d00d      	beq.n	f08 <Code_167+0x2e>
     eec:	f7ff fe0d 	bl	b0a <Code_105>
     ef0:	f7ff fed0 	bl	c94 <Code_119>
     ef4:	cf40      	ldmia	r7!, {r6}
     ef6:	cf01      	ldmia	r7!, {r0}
     ef8:	6038      	str	r0, [r7, #0]
     efa:	bd00      	pop	{pc}
     efc:	f7ff fcda 	bl	8b4 <Code_76>
     f00:	17f0      	asrs	r0, r6, #31
     f02:	d0f5      	beq.n	ef0 <Code_167+0x16>
     f04:	f7ff fe01 	bl	b0a <Code_105>
     f08:	f7ff fec4 	bl	c94 <Code_119>
     f0c:	cf40      	ldmia	r7!, {r6}
     f0e:	cf01      	ldmia	r7!, {r0}
     f10:	6038      	str	r0, [r7, #0]
     f12:	f7ff fdfa 	bl	b0a <Code_105>
     f16:	bd00      	pop	{pc}

00000f18 <Dictionary_170>:
     f18:	00000f64 	andeq	r0, r0, r4, ror #30
     f1c:	66020044 	strvs	r0, [r2], -r4, asr #32
     f20:	b500002f 	strlt	r0, [r0, #-47]	; 0x2f

00000f22 <Code_170>:
     f22:	b500      	push	{lr}
     f24:	17f0      	asrs	r0, r6, #31
     f26:	d00e      	beq.n	f46 <Code_170+0x24>
     f28:	f7ff fdef 	bl	b0a <Code_105>
     f2c:	f7ff fcc2 	bl	8b4 <Code_76>
     f30:	17f0      	asrs	r0, r6, #31
     f32:	d00e      	beq.n	f52 <Code_170+0x30>
     f34:	f7ff fde9 	bl	b0a <Code_105>
     f38:	f7ff fcbc 	bl	8b4 <Code_76>
     f3c:	f7ff ff79 	bl	e32 <uf_slash_mod>
     f40:	f7ff fcdc 	bl	8fc <Code_78>
     f44:	bd00      	pop	{pc}
     f46:	f7ff fcb5 	bl	8b4 <Code_76>
     f4a:	17f0      	asrs	r0, r6, #31
     f4c:	d0f4      	beq.n	f38 <Code_170+0x16>
     f4e:	f7ff fddc 	bl	b0a <Code_105>
     f52:	f7ff fcaf 	bl	8b4 <Code_76>
     f56:	f7ff ff6c 	bl	e32 <uf_slash_mod>
     f5a:	f7ff fdd6 	bl	b0a <Code_105>
     f5e:	f7ff fccd 	bl	8fc <Code_78>
     f62:	bd00      	pop	{pc}

00000f64 <Dictionary_171>:
     f64:	00000fac 	andeq	r0, r0, ip, lsr #31
     f68:	32020220 	andcc	r0, r2, #2
     f6c:	cf060021 	svcgt	0x00060021

00000f6e <Code_171>:
     f6e:	cf06      	ldmia	r7!, {r1, r2}
     f70:	6031      	str	r1, [r6, #0]
     f72:	6072      	str	r2, [r6, #4]
     f74:	cf40      	ldmia	r7!, {r6}
     f76:	4770      	bx	lr
     f78:	b500      	push	{lr}
     f7a:	f7ff fbe1 	bl	740 <expect_three_elements>
     f7e:	6801      	ldr	r1, [r0, #0]
     f80:	6842      	ldr	r2, [r0, #4]
     f82:	b406      	push	{r1, r2}
     f84:	f000 fdd2 	bl	1b2c <allocator_4store>
     f88:	f7ff fab1 	bl	4ee <befreie_tos>
     f8c:	bc06      	pop	{r1, r2}
     f8e:	6001      	str	r1, [r0, #0]
     f90:	2928      	cmp	r1, #40	; 0x28
     f92:	d005      	beq.n	fa0 <Code_171+0x32>
     f94:	3f04      	subs	r7, #4
     f96:	603e      	str	r6, [r7, #0]
     f98:	4e61      	ldr	r6, [pc, #388]	; (1120 <dgleichungleich_common+0x1c>)
     f9a:	f000 fdca 	bl	1b32 <allocator_4store_anderer_opcode>
     f9e:	bd00      	pop	{pc}
     fa0:	3204      	adds	r2, #4
     fa2:	6042      	str	r2, [r0, #4]
     fa4:	f000 fdc2 	bl	1b2c <allocator_4store>
     fa8:	bd00      	pop	{pc}
     faa:	46c0      	nop			; (mov r8, r8)

00000fac <Dictionary_175>:
     fac:	00000ff4 	strdeq	r0, [r0], -r4
     fb0:	32020220 	andcc	r0, r2, #2
     fb4:	3f040040 	svccc	0x00040040

00000fb6 <Code_175>:
     fb6:	3f04      	subs	r7, #4
     fb8:	6870      	ldr	r0, [r6, #4]
     fba:	6038      	str	r0, [r7, #0]
     fbc:	6836      	ldr	r6, [r6, #0]
     fbe:	4770      	bx	lr
     fc0:	b500      	push	{lr}
     fc2:	f000 f8df 	bl	1184 <dup_allocator>
     fc6:	6801      	ldr	r1, [r0, #0]
     fc8:	2928      	cmp	r1, #40	; 0x28
     fca:	d009      	beq.n	fe0 <Code_175+0x2a>
     fcc:	3f04      	subs	r7, #4
     fce:	603e      	str	r6, [r7, #0]
     fd0:	4e54      	ldr	r6, [pc, #336]	; (1124 <dgleichungleich_common+0x20>)
     fd2:	f000 fd8c 	bl	1aee <allocator_4fetch_anderer_opcode>
     fd6:	f000 f90b 	bl	11f0 <swap_allocator>
     fda:	f000 fd85 	bl	1ae8 <allocator_4fetch>
     fde:	bd00      	pop	{pc}
     fe0:	6841      	ldr	r1, [r0, #4]
     fe2:	3104      	adds	r1, #4
     fe4:	6041      	str	r1, [r0, #4]
     fe6:	f000 fd7f 	bl	1ae8 <allocator_4fetch>
     fea:	f000 f901 	bl	11f0 <swap_allocator>
     fee:	f000 fd7b 	bl	1ae8 <allocator_4fetch>
     ff2:	bd00      	pop	{pc}

00000ff4 <Dictionary_178>:
     ff4:	00001014 	andeq	r1, r0, r4, lsl r0
     ff8:	64030044 	strvs	r0, [r3], #-68	; 0x44
     ffc:	cf073c75 	svcgt	0x00073c75

00000ffe <Code_178>:
     ffe:	cf07      	ldmia	r7!, {r0, r1, r2}
    1000:	428e      	cmp	r6, r1
    1002:	d804      	bhi.n	100e <BIT12+0xe>
    1004:	d101      	bne.n	100a <BIT12+0xa>
    1006:	4290      	cmp	r0, r2
    1008:	d801      	bhi.n	100e <BIT12+0xe>
    100a:	2600      	movs	r6, #0
    100c:	4770      	bx	lr
    100e:	2600      	movs	r6, #0
    1010:	43f6      	mvns	r6, r6
    1012:	4770      	bx	lr

00001014 <Dictionary_179>:
    1014:	00001034 	andeq	r1, r0, r4, lsr r0
    1018:	64030044 	strvs	r0, [r3], #-68	; 0x44
    101c:	cf073e75 	svcgt	0x00073e75

0000101e <Code_179>:
    101e:	cf07      	ldmia	r7!, {r0, r1, r2}
    1020:	42b1      	cmp	r1, r6
    1022:	d804      	bhi.n	102e <Code_179+0x10>
    1024:	d101      	bne.n	102a <Code_179+0xc>
    1026:	4282      	cmp	r2, r0
    1028:	d801      	bhi.n	102e <Code_179+0x10>
    102a:	2600      	movs	r6, #0
    102c:	4770      	bx	lr
    102e:	2600      	movs	r6, #0
    1030:	43f6      	mvns	r6, r6
    1032:	4770      	bx	lr

00001034 <Dictionary_180>:
    1034:	00001054 	andeq	r1, r0, r4, asr r0
    1038:	64020044 	strvs	r0, [r2], #-68	; 0x44
    103c:	cf07003c 	svcgt	0x0007003c

0000103e <Code_180>:
    103e:	cf07      	ldmia	r7!, {r0, r1, r2}
    1040:	428e      	cmp	r6, r1
    1042:	dc04      	bgt.n	104e <Code_180+0x10>
    1044:	d101      	bne.n	104a <Code_180+0xc>
    1046:	4290      	cmp	r0, r2
    1048:	dc01      	bgt.n	104e <Code_180+0x10>
    104a:	2600      	movs	r6, #0
    104c:	4770      	bx	lr
    104e:	2600      	movs	r6, #0
    1050:	43f6      	mvns	r6, r6
    1052:	4770      	bx	lr

00001054 <Dictionary_181>:
    1054:	00001074 	andeq	r1, r0, r4, ror r0
    1058:	64020044 	strvs	r0, [r2], #-68	; 0x44
    105c:	cf07003e 	svcgt	0x0007003e

0000105e <Code_181>:
    105e:	cf07      	ldmia	r7!, {r0, r1, r2}
    1060:	42b1      	cmp	r1, r6
    1062:	dc04      	bgt.n	106e <Code_181+0x10>
    1064:	d101      	bne.n	106a <Code_181+0xc>
    1066:	4282      	cmp	r2, r0
    1068:	dc01      	bgt.n	106e <Code_181+0x10>
    106a:	2600      	movs	r6, #0
    106c:	4770      	bx	lr
    106e:	2600      	movs	r6, #0
    1070:	43f6      	mvns	r6, r6
    1072:	4770      	bx	lr

00001074 <Dictionary_182>:
    1074:	00001090 	muleq	r0, r0, r0
    1078:	64030262 	strvs	r0, [r3], #-610	; 0x262
    107c:	37043c30 	smladxcc	r4, r0, ip, r3

0000107e <Code_182>:
    107e:	3704      	adds	r7, #4
    1080:	17f6      	asrs	r6, r6, #31
    1082:	4770      	bx	lr
    1084:	b500      	push	{lr}
    1086:	f000 f8c6 	bl	1216 <nip_allocator>
    108a:	f000 fb10 	bl	16ae <alloc_nullkleiner>
    108e:	bd00      	pop	{pc}

00001090 <Dictionary_183>:
    1090:	000010b8 	strheq	r1, [r0], -r8
    1094:	64030262 	strvs	r0, [r3], #-610	; 0x262
    1098:	cf013d30 	svcgt	0x00013d30

0000109a <Code_183>:
    109a:	cf01      	ldmia	r7!, {r0}
    109c:	4306      	orrs	r6, r0
    109e:	3e01      	subs	r6, #1
    10a0:	41b6      	sbcs	r6, r6
    10a2:	4770      	bx	lr
    10a4:	b500      	push	{lr}
    10a6:	3f04      	subs	r7, #4
    10a8:	603e      	str	r6, [r7, #0]
    10aa:	4e1f      	ldr	r6, [pc, #124]	; (1128 <dgleichungleich_common+0x24>)
    10ac:	f000 fa9f 	bl	15ee <alloc_kommutativ>
    10b0:	f000 fad8 	bl	1664 <allocator_equal_zero>
    10b4:	bd00      	pop	{pc}
    10b6:	46c0      	nop			; (mov r8, r8)

000010b8 <Dictionary_186>:
    10b8:	000010e0 	andeq	r1, r0, r0, ror #1
    10bc:	64030244 	strvs	r0, [r3], #-580	; 0x244
    10c0:	cf073e3c 	svcgt	0x00073e3c

000010c2 <Code_186>:
    10c2:	cf07      	ldmia	r7!, {r0, r1, r2}
    10c4:	4050      	eors	r0, r2
    10c6:	404e      	eors	r6, r1
    10c8:	4306      	orrs	r6, r0
    10ca:	3e01      	subs	r6, #1
    10cc:	41b6      	sbcs	r6, r6
    10ce:	43f6      	mvns	r6, r6
    10d0:	4770      	bx	lr
    10d2:	b500      	push	{lr}
    10d4:	f000 f816 	bl	1104 <dgleichungleich_common>
    10d8:	f000 fad7 	bl	168a <allocator_unequal_zero>
    10dc:	bd00      	pop	{pc}
    10de:	46c0      	nop			; (mov r8, r8)

000010e0 <Dictionary_187>:
    10e0:	0000112c 	andeq	r1, r0, ip, lsr #2
    10e4:	64020244 	strvs	r0, [r2], #-580	; 0x244
    10e8:	cf07003d 	svcgt	0x0007003d

000010ea <Code_187>:
    10ea:	cf07      	ldmia	r7!, {r0, r1, r2}
    10ec:	4050      	eors	r0, r2
    10ee:	404e      	eors	r6, r1
    10f0:	4306      	orrs	r6, r0
    10f2:	3e01      	subs	r6, #1
    10f4:	41b6      	sbcs	r6, r6
    10f6:	4770      	bx	lr
    10f8:	b500      	push	{lr}
    10fa:	f000 f803 	bl	1104 <dgleichungleich_common>
    10fe:	f000 fab1 	bl	1664 <allocator_equal_zero>
    1102:	bd00      	pop	{pc}

00001104 <dgleichungleich_common>:
    1104:	b500      	push	{lr}
    1106:	f7ff fb2b 	bl	760 <expect_four_elements>
    110a:	f000 f8c6 	bl	129a <rot_allocator>
    110e:	f000 f9cf 	bl	14b0 <xor_allocator>
    1112:	f000 f8df 	bl	12d4 <minusrot_allocator>
    1116:	f000 f9cb 	bl	14b0 <xor_allocator>
    111a:	f000 f9bd 	bl	1498 <or_allocator>
    111e:	bd00      	pop	{pc}
    1120:	00006040 	andeq	r6, r0, r0, asr #32
    1124:	00006840 	andeq	r6, r0, r0, asr #16
    1128:	00004300 	andeq	r4, r0, r0, lsl #6

0000112c <Dictionary_188>:
    112c:	00001140 	andeq	r1, r0, r0, asr #2
    1130:	73030020 	movwvc	r0, #12320	; 0x3020
    1134:	3f044070 	svccc	0x00044070

00001136 <Code_188>:
    1136:	3f04      	subs	r7, #4
    1138:	603e      	str	r6, [r7, #0]
    113a:	003e      	movs	r6, r7
    113c:	4770      	bx	lr
    113e:	46c0      	nop			; (mov r8, r8)

00001140 <Dictionary_190>:
    1140:	00001150 	andeq	r1, r0, r0, asr r1
    1144:	73030020 	movwvc	r0, #12320	; 0x3020
    1148:	00372170 	eorseq	r2, r7, r0, ror r1

0000114a <Code_190>:
    114a:	0037      	movs	r7, r6
    114c:	cf40      	ldmia	r7!, {r6}
    114e:	4770      	bx	lr

00001150 <Dictionary_191>:
    1150:	00001164 	andeq	r1, r0, r4, ror #2
    1154:	72030020 	andvc	r0, r3, #32
    1158:	3f044070 	svccc	0x00044070

0000115a <Code_191>:
    115a:	3f04      	subs	r7, #4
    115c:	603e      	str	r6, [r7, #0]
    115e:	466e      	mov	r6, sp
    1160:	4770      	bx	lr
    1162:	46c0      	nop			; (mov r8, r8)

00001164 <Dictionary_193>:
    1164:	00001174 	andeq	r1, r0, r4, ror r1
    1168:	72030020 	andvc	r0, r3, #32
    116c:	46b52170 			; <UNDEFINED> instruction: 0x46b52170

0000116e <Code_193>:
    116e:	46b5      	mov	sp, r6
    1170:	cf40      	ldmia	r7!, {r6}
    1172:	4770      	bx	lr

00001174 <Dictionary_194>:
    1174:	00001198 	muleq	r0, r8, r1
    1178:	64030261 	strvs	r0, [r3], #-609	; 0x261
    117c:	3f047075 	svccc	0x00047075

0000117e <Code_194>:
    117e:	3f04      	subs	r7, #4
    1180:	603e      	str	r6, [r7, #0]
    1182:	4770      	bx	lr

00001184 <dup_allocator>:
    1184:	b506      	push	{r1, r2, lr}
    1186:	f7ff fac4 	bl	712 <expect_one_element>
    118a:	6801      	ldr	r1, [r0, #0]
    118c:	6842      	ldr	r2, [r0, #4]
    118e:	f7ff f9ae 	bl	4ee <befreie_tos>
    1192:	6001      	str	r1, [r0, #0]
    1194:	6042      	str	r2, [r0, #4]
    1196:	bd06      	pop	{r1, r2, pc}

00001198 <Dictionary_197>:
    1198:	000011c4 	andeq	r1, r0, r4, asr #3
    119c:	64040261 	strvs	r0, [r4], #-609	; 0x261
    11a0:	00706f72 	rsbseq	r6, r0, r2, ror pc

000011a4 <Code_197>:
    11a4:	cf40      	ldmia	r7!, {r6}
    11a6:	4770      	bx	lr

000011a8 <drop_allocator>:
    11a8:	b500      	push	{lr}
    11aa:	6801      	ldr	r1, [r0, #0]
    11ac:	291e      	cmp	r1, #30
    11ae:	d105      	bne.n	11bc <drop_allocator+0x14>
    11b0:	3f04      	subs	r7, #4
    11b2:	603e      	str	r6, [r7, #0]
    11b4:	4ea1      	ldr	r6, [pc, #644]	; (143c <Code_233+0x1c>)
    11b6:	f002 fa3c 	bl	3632 <Code_826>
    11ba:	bd00      	pop	{pc}
    11bc:	f7ff f9a1 	bl	502 <eliminiere_tos>
    11c0:	bd00      	pop	{pc}
    11c2:	46c0      	nop			; (mov r8, r8)

000011c4 <Dictionary_201>:
    11c4:	000011dc 	ldrdeq	r1, [r0], -ip
    11c8:	3f040061 	svccc	0x00040061
    11cc:	00707564 	rsbseq	r7, r0, r4, ror #10

000011d0 <Code_201>:
    11d0:	2e00      	cmp	r6, #0
    11d2:	d001      	beq.n	11d8 <Code_201+0x8>
    11d4:	3f04      	subs	r7, #4
    11d6:	603e      	str	r6, [r7, #0]
    11d8:	4770      	bx	lr
    11da:	46c0      	nop			; (mov r8, r8)

000011dc <Dictionary_203>:
    11dc:	00001208 	andeq	r1, r0, r8, lsl #4
    11e0:	73040262 	movwvc	r0, #16994	; 0x4262
    11e4:	00706177 	rsbseq	r6, r0, r7, ror r1

000011e8 <Code_203>:
    11e8:	6839      	ldr	r1, [r7, #0]
    11ea:	603e      	str	r6, [r7, #0]
    11ec:	000e      	movs	r6, r1
    11ee:	4770      	bx	lr

000011f0 <swap_allocator>:
    11f0:	b50c      	push	{r2, r3, lr}
    11f2:	f7ff fa98 	bl	726 <expect_two_elements>
    11f6:	6802      	ldr	r2, [r0, #0]
    11f8:	6883      	ldr	r3, [r0, #8]
    11fa:	6003      	str	r3, [r0, #0]
    11fc:	6082      	str	r2, [r0, #8]
    11fe:	6842      	ldr	r2, [r0, #4]
    1200:	68c3      	ldr	r3, [r0, #12]
    1202:	6043      	str	r3, [r0, #4]
    1204:	60c2      	str	r2, [r0, #12]
    1206:	bd0c      	pop	{r2, r3, pc}

00001208 <Dictionary_204>:
    1208:	00001234 	andeq	r1, r0, r4, lsr r2
    120c:	6e030262 	cdpvs	2, 0, cr0, cr3, cr2, {3}
    1210:	37047069 	strcc	r7, [r4, -r9, rrx]

00001212 <Code_204>:
    1212:	3704      	adds	r7, #4
    1214:	4770      	bx	lr

00001216 <nip_allocator>:
    1216:	b500      	push	{lr}
    1218:	f7ff fa7b 	bl	712 <expect_one_element>
    121c:	6881      	ldr	r1, [r0, #8]
    121e:	291e      	cmp	r1, #30
    1220:	d002      	beq.n	1228 <nip_allocator+0x12>
    1222:	f7ff f974 	bl	50e <eliminiere_nos>
    1226:	bd00      	pop	{pc}
    1228:	3f04      	subs	r7, #4
    122a:	603e      	str	r6, [r7, #0]
    122c:	4e83      	ldr	r6, [pc, #524]	; (143c <Code_233+0x1c>)
    122e:	f002 fa00 	bl	3632 <Code_826>
    1232:	bd00      	pop	{pc}

00001234 <Dictionary_208>:
    1234:	0000125c 	andeq	r1, r0, ip, asr r2
    1238:	6f040262 	svcvs	0x00040262
    123c:	00726576 	rsbseq	r6, r2, r6, ror r5

00001240 <Code_208>:
    1240:	3f04      	subs	r7, #4
    1242:	603e      	str	r6, [r7, #0]
    1244:	687e      	ldr	r6, [r7, #4]
    1246:	4770      	bx	lr

00001248 <over_allocator>:
    1248:	b500      	push	{lr}
    124a:	f7ff fa6c 	bl	726 <expect_two_elements>
    124e:	6881      	ldr	r1, [r0, #8]
    1250:	68c2      	ldr	r2, [r0, #12]
    1252:	f7ff f94c 	bl	4ee <befreie_tos>
    1256:	6001      	str	r1, [r0, #0]
    1258:	6042      	str	r2, [r0, #4]
    125a:	bd00      	pop	{pc}

0000125c <Dictionary_210>:
    125c:	00001284 	andeq	r1, r0, r4, lsl #5
    1260:	74040262 	strvc	r0, [r4], #-610	; 0x262
    1264:	006b6375 	rsbeq	r6, fp, r5, ror r3

00001268 <Code_210>:
    1268:	cf01      	ldmia	r7!, {r0}
    126a:	3f08      	subs	r7, #8
    126c:	607e      	str	r6, [r7, #4]
    126e:	6038      	str	r0, [r7, #0]
    1270:	4770      	bx	lr
    1272:	b500      	push	{lr}
    1274:	f7ff fa57 	bl	726 <expect_two_elements>
    1278:	f7ff ff84 	bl	1184 <dup_allocator>
    127c:	f000 f82a 	bl	12d4 <minusrot_allocator>
    1280:	bd00      	pop	{pc}
    1282:	46c0      	nop			; (mov r8, r8)

00001284 <Dictionary_211>:
    1284:	000012bc 			; <UNDEFINED> instruction: 0x000012bc
    1288:	72030263 	andvc	r0, r3, #805306374	; 0x30000006
    128c:	cf03746f 	svcgt	0x0003746f

0000128e <Code_211>:
    128e:	cf03      	ldmia	r7!, {r0, r1}
    1290:	3f08      	subs	r7, #8
    1292:	6078      	str	r0, [r7, #4]
    1294:	603e      	str	r6, [r7, #0]
    1296:	000e      	movs	r6, r1
    1298:	4770      	bx	lr

0000129a <rot_allocator>:
    129a:	b50e      	push	{r1, r2, r3, lr}
    129c:	f7ff fa50 	bl	740 <expect_three_elements>
    12a0:	6801      	ldr	r1, [r0, #0]
    12a2:	6882      	ldr	r2, [r0, #8]
    12a4:	6903      	ldr	r3, [r0, #16]
    12a6:	6081      	str	r1, [r0, #8]
    12a8:	6102      	str	r2, [r0, #16]
    12aa:	6003      	str	r3, [r0, #0]
    12ac:	6841      	ldr	r1, [r0, #4]
    12ae:	68c2      	ldr	r2, [r0, #12]
    12b0:	6943      	ldr	r3, [r0, #20]
    12b2:	60c1      	str	r1, [r0, #12]
    12b4:	6142      	str	r2, [r0, #20]
    12b6:	6043      	str	r3, [r0, #4]
    12b8:	bd0e      	pop	{r1, r2, r3, pc}
    12ba:	46c0      	nop			; (mov r8, r8)

000012bc <Dictionary_212>:
    12bc:	000012e0 	andeq	r1, r0, r0, ror #5
    12c0:	2d040263 	sfmcs	f0, 4, [r4, #-396]	; 0xfffffe74
    12c4:	00746f72 	rsbseq	r6, r4, r2, ror pc

000012c8 <Code_212>:
    12c8:	cf03      	ldmia	r7!, {r0, r1}
    12ca:	3f08      	subs	r7, #8
    12cc:	607e      	str	r6, [r7, #4]
    12ce:	6039      	str	r1, [r7, #0]
    12d0:	0006      	movs	r6, r0
    12d2:	4770      	bx	lr

000012d4 <minusrot_allocator>:
    12d4:	b500      	push	{lr}
    12d6:	f7ff ffe0 	bl	129a <rot_allocator>
    12da:	f7ff ffde 	bl	129a <rot_allocator>
    12de:	bd00      	pop	{pc}

000012e0 <Dictionary_213>:
    12e0:	000012f4 	strdeq	r1, [r0], -r4
    12e4:	70040020 	andvc	r0, r4, r0, lsr #32
    12e8:	006b6369 	rsbeq	r6, fp, r9, ror #6

000012ec <Code_213>:
    12ec:	00b0      	lsls	r0, r6, #2
    12ee:	583e      	ldr	r6, [r7, r0]
    12f0:	4770      	bx	lr
    12f2:	46c0      	nop			; (mov r8, r8)

000012f4 <Dictionary_214>:
    12f4:	0000130c 	andeq	r1, r0, ip, lsl #6
    12f8:	64050000 	strvs	r0, [r5]
    12fc:	68747065 	ldmdavs	r4!, {r0, r2, r5, r6, ip, sp, lr}^

00001300 <Code_214>:
    1300:	494f      	ldr	r1, [pc, #316]	; (1440 <Code_233+0x20>)
    1302:	1bc9      	subs	r1, r1, r7
    1304:	3f04      	subs	r7, #4
    1306:	603e      	str	r6, [r7, #0]
    1308:	088e      	lsrs	r6, r1, #2
    130a:	4770      	bx	lr

0000130c <Dictionary_216>:
    130c:	00001328 	andeq	r1, r0, r8, lsr #6
    1310:	72060000 	andvc	r0, r6, #0
    1314:	74706564 	ldrbtvc	r6, [r0], #-1380	; 0x564
    1318:	3f040068 	svccc	0x00040068

0000131a <Code_216>:
    131a:	3f04      	subs	r7, #4
    131c:	603e      	str	r6, [r7, #0]
    131e:	466e      	mov	r6, sp
    1320:	4948      	ldr	r1, [pc, #288]	; (1444 <Code_233+0x24>)
    1322:	1b89      	subs	r1, r1, r6
    1324:	088e      	lsrs	r6, r1, #2
    1326:	4770      	bx	lr

00001328 <Dictionary_218>:
    1328:	0000135c 	andeq	r1, r0, ip, asr r3
    132c:	3e020220 	cdpcc	2, 0, cr0, cr2, cr0, {1}
    1330:	b4400072 	strblt	r0, [r0], #-114	; 0x72

00001332 <Code_218>:
    1332:	b440      	push	{r6}
    1334:	cf40      	ldmia	r7!, {r6}
    1336:	4770      	bx	lr

00001338 <allocator_to_r>:
    1338:	b500      	push	{lr}
    133a:	f7ff fa80 	bl	83e <push_lr_nachholen>
    133e:	f7ff f9e8 	bl	712 <expect_one_element>
    1342:	f7ff fa25 	bl	790 <expect_tos_in_register>
    1346:	3f04      	subs	r7, #4
    1348:	603e      	str	r6, [r7, #0]
    134a:	4e3f      	ldr	r6, [pc, #252]	; (1448 <Code_233+0x28>)
    134c:	2201      	movs	r2, #1
    134e:	408a      	lsls	r2, r1
    1350:	4316      	orrs	r6, r2
    1352:	f002 f96e 	bl	3632 <Code_826>
    1356:	f7ff f8d4 	bl	502 <eliminiere_tos>
    135a:	bd00      	pop	{pc}

0000135c <Dictionary_221>:
    135c:	00001390 	muleq	r0, r0, r3
    1360:	72020220 	andvc	r0, r2, #2
    1364:	3f04003e 	svccc	0x0004003e

00001366 <Code_221>:
    1366:	3f04      	subs	r7, #4
    1368:	603e      	str	r6, [r7, #0]
    136a:	bc40      	pop	{r6}
    136c:	4770      	bx	lr

0000136e <allocator_r_from>:
    136e:	b500      	push	{lr}
    1370:	f7ff fa65 	bl	83e <push_lr_nachholen>
    1374:	f7ff f8bb 	bl	4ee <befreie_tos>
    1378:	f7ff f998 	bl	6ac <get_free_register>
    137c:	6003      	str	r3, [r0, #0]
    137e:	3f04      	subs	r7, #4
    1380:	603e      	str	r6, [r7, #0]
    1382:	4e32      	ldr	r6, [pc, #200]	; (144c <Code_233+0x2c>)
    1384:	2201      	movs	r2, #1
    1386:	409a      	lsls	r2, r3
    1388:	4316      	orrs	r6, r2
    138a:	f002 f952 	bl	3632 <Code_826>
    138e:	bd00      	pop	{pc}

00001390 <Dictionary_225>:
    1390:	000013b0 			; <UNDEFINED> instruction: 0x000013b0
    1394:	72020220 	andvc	r0, r2, #2
    1398:	3f040040 	svccc	0x00040040

0000139a <Code_225>:
    139a:	3f04      	subs	r7, #4
    139c:	603e      	str	r6, [r7, #0]
    139e:	9e00      	ldr	r6, [sp, #0]
    13a0:	4770      	bx	lr
    13a2:	b500      	push	{lr}
    13a4:	f7ff fa4b 	bl	83e <push_lr_nachholen>
    13a8:	f002 fe5a 	bl	4060 <rfetch_allocator>
    13ac:	bd00      	pop	{pc}
    13ae:	46c0      	nop			; (mov r8, r8)

000013b0 <Dictionary_227>:
    13b0:	000013d4 	ldrdeq	r1, [r0], -r4
    13b4:	72050220 	andvc	r0, r5, #2
    13b8:	706f7264 	rsbvc	r7, pc, r4, ror #4

000013bc <Code_227>:
    13bc:	b001      	add	sp, #4
    13be:	4770      	bx	lr
    13c0:	b500      	push	{lr}
    13c2:	f7ff fa3c 	bl	83e <push_lr_nachholen>
    13c6:	3f04      	subs	r7, #4
    13c8:	603e      	str	r6, [r7, #0]
    13ca:	4e21      	ldr	r6, [pc, #132]	; (1450 <Code_233+0x30>)
    13cc:	f002 f931 	bl	3632 <Code_826>
    13d0:	bd00      	pop	{pc}
    13d2:	46c0      	nop			; (mov r8, r8)

000013d4 <Dictionary_230>:
    13d4:	000013e8 	andeq	r1, r0, r8, ror #7
    13d8:	72050020 	andvc	r0, r5, #32
    13dc:	6b636970 	blvs	18db9a4 <BIT24+0x8db9a4>

000013e0 <Code_230>:
    13e0:	00b6      	lsls	r6, r6, #2
    13e2:	446e      	add	r6, sp
    13e4:	6836      	ldr	r6, [r6, #0]
    13e6:	4770      	bx	lr

000013e8 <Dictionary_231>:
    13e8:	00001414 	andeq	r1, r0, r4, lsl r4
    13ec:	72040000 	andvc	r0, r4, #0
    13f0:	006c6c6f 	rsbeq	r6, ip, pc, ror #24

000013f4 <Code_231>:
    13f4:	2e00      	cmp	r6, #0
    13f6:	d101      	bne.n	13fc <Code_231+0x8>
    13f8:	cf40      	ldmia	r7!, {r6}
    13fa:	4770      	bx	lr
    13fc:	00b0      	lsls	r0, r6, #2
    13fe:	5839      	ldr	r1, [r7, r0]
    1400:	19c0      	adds	r0, r0, r7
    1402:	1f03      	subs	r3, r0, #4
    1404:	681a      	ldr	r2, [r3, #0]
    1406:	6002      	str	r2, [r0, #0]
    1408:	3804      	subs	r0, #4
    140a:	3e01      	subs	r6, #1
    140c:	d1f9      	bne.n	1402 <Code_231+0xe>
    140e:	3704      	adds	r7, #4
    1410:	000e      	movs	r6, r1
    1412:	4770      	bx	lr

00001414 <Dictionary_233>:
    1414:	00001454 	andeq	r1, r0, r4, asr r4
    1418:	2d050000 	stccs	0, cr0, [r5]
    141c:	6c6c6f72 	stclvs	15, cr6, [ip], #-456	; 0xfffffe38

00001420 <Code_233>:
    1420:	2e00      	cmp	r6, #0
    1422:	d101      	bne.n	1428 <Code_233+0x8>
    1424:	cf40      	ldmia	r7!, {r6}
    1426:	4770      	bx	lr
    1428:	6838      	ldr	r0, [r7, #0]
    142a:	4639      	mov	r1, r7
    142c:	684a      	ldr	r2, [r1, #4]
    142e:	600a      	str	r2, [r1, #0]
    1430:	3104      	adds	r1, #4
    1432:	3e01      	subs	r6, #1
    1434:	d1fa      	bne.n	142c <Code_233+0xc>
    1436:	6008      	str	r0, [r1, #0]
    1438:	cf40      	ldmia	r7!, {r6}
    143a:	4770      	bx	lr
    143c:	00003704 	andeq	r3, r0, r4, lsl #14
    1440:	1ffff28c 	svcne	0x00fff28c
    1444:	1ffff38c 	svcne	0x00fff38c
    1448:	0000b400 	andeq	fp, r0, r0, lsl #8
    144c:	0000bc00 	andeq	fp, r0, r0, lsl #24
    1450:	0000b001 	andeq	fp, r0, r1

00001454 <Dictionary_236>:
    1454:	0000146c 	andeq	r1, r0, ip, ror #8
    1458:	61030262 	tstvs	r3, r2, ror #4
    145c:	cf01646e 	svcgt	0x0001646e

0000145e <Code_236>:
    145e:	cf01      	ldmia	r7!, {r0}
    1460:	4006      	ands	r6, r0
    1462:	4770      	bx	lr
    1464:	3f04      	subs	r7, #4
    1466:	603e      	str	r6, [r7, #0]
    1468:	4e6f      	ldr	r6, [pc, #444]	; (1628 <alloc_logic_gemeinsam+0x20>)
    146a:	e0c0      	b.n	15ee <alloc_kommutativ>

0000146c <Dictionary_239>:
    146c:	00001488 	andeq	r1, r0, r8, lsl #9
    1470:	62030262 	andvs	r0, r3, #536870918	; 0x20000006
    1474:	cf016369 	svcgt	0x00016369

00001476 <Code_239>:
    1476:	cf01      	ldmia	r7!, {r0}
    1478:	43b0      	bics	r0, r6
    147a:	0006      	movs	r6, r0
    147c:	4770      	bx	lr
    147e:	3f04      	subs	r7, #4
    1480:	603e      	str	r6, [r7, #0]
    1482:	4e6a      	ldr	r6, [pc, #424]	; (162c <alloc_logic_gemeinsam+0x24>)
    1484:	e0af      	b.n	15e6 <alloc_unkommutativ>
    1486:	46c0      	nop			; (mov r8, r8)

00001488 <Dictionary_242>:
    1488:	000014a0 	andeq	r1, r0, r0, lsr #9
    148c:	6f020262 	svcvs	0x00020262
    1490:	cf010072 	svcgt	0x00010072

00001492 <Code_242>:
    1492:	cf01      	ldmia	r7!, {r0}
    1494:	4306      	orrs	r6, r0
    1496:	4770      	bx	lr

00001498 <or_allocator>:
    1498:	3f04      	subs	r7, #4
    149a:	603e      	str	r6, [r7, #0]
    149c:	4e64      	ldr	r6, [pc, #400]	; (1630 <alloc_logic_gemeinsam+0x28>)
    149e:	e0a6      	b.n	15ee <alloc_kommutativ>

000014a0 <Dictionary_245>:
    14a0:	000014b8 			; <UNDEFINED> instruction: 0x000014b8
    14a4:	78030262 	stmdavc	r3, {r1, r5, r6, r9}
    14a8:	cf01726f 	svcgt	0x0001726f

000014aa <Code_245>:
    14aa:	cf01      	ldmia	r7!, {r0}
    14ac:	4046      	eors	r6, r0
    14ae:	4770      	bx	lr

000014b0 <xor_allocator>:
    14b0:	3f04      	subs	r7, #4
    14b2:	603e      	str	r6, [r7, #0]
    14b4:	4e5f      	ldr	r6, [pc, #380]	; (1634 <alloc_logic_gemeinsam+0x2c>)
    14b6:	e09a      	b.n	15ee <alloc_kommutativ>

000014b8 <Dictionary_248>:
    14b8:	000014d0 	ldrdeq	r1, [r0], -r0
    14bc:	2a010262 	bcs	41e4c <BIT18+0x1e4c>

000014c0 <Code_248>:
    14c0:	cf01      	ldmia	r7!, {r0}
    14c2:	4346      	muls	r6, r0
    14c4:	4770      	bx	lr
    14c6:	3f04      	subs	r7, #4
    14c8:	603e      	str	r6, [r7, #0]
    14ca:	4e5b      	ldr	r6, [pc, #364]	; (1638 <alloc_logic_gemeinsam+0x30>)
    14cc:	e08f      	b.n	15ee <alloc_kommutativ>
    14ce:	46c0      	nop			; (mov r8, r8)

000014d0 <Dictionary_251>:
    14d0:	000014f0 	strdeq	r1, [r0], -r0
    14d4:	63030041 	movwvs	r0, #12353	; 0x3041
    14d8:	00307a6c 	eorseq	r7, r0, ip, ror #20

000014da <Code_251>:
    14da:	0030      	movs	r0, r6
    14dc:	d006      	beq.n	14ec <Code_251+0x12>
    14de:	2600      	movs	r6, #0
    14e0:	0040      	lsls	r0, r0, #1
    14e2:	d002      	beq.n	14ea <Code_251+0x10>
    14e4:	d201      	bcs.n	14ea <Code_251+0x10>
    14e6:	3601      	adds	r6, #1
    14e8:	e7fa      	b.n	14e0 <Code_251+0x6>
    14ea:	4770      	bx	lr
    14ec:	2620      	movs	r6, #32
    14ee:	4770      	bx	lr

000014f0 <Dictionary_252>:
    14f0:	00001500 	andeq	r1, r0, r0, lsl #10
    14f4:	72030061 	andvc	r0, r3, #97	; 0x61
    14f8:	2001726f 	andcs	r7, r1, pc, ror #4

000014fa <Code_252>:
    14fa:	2001      	movs	r0, #1
    14fc:	41c6      	rors	r6, r0
    14fe:	4770      	bx	lr

00001500 <Dictionary_253>:
    1500:	00001514 	andeq	r1, r0, r4, lsl r5
    1504:	72030061 	andvc	r0, r3, #97	; 0x61
    1508:	20006c6f 	andcs	r6, r0, pc, ror #24

0000150a <Code_253>:
    150a:	2000      	movs	r0, #0
    150c:	19b6      	adds	r6, r6, r6
    150e:	4146      	adcs	r6, r0
    1510:	4770      	bx	lr
    1512:	46c0      	nop			; (mov r8, r8)

00001514 <Dictionary_254>:
    1514:	00001548 	andeq	r1, r0, r8, asr #10
    1518:	61070262 	tstvs	r7, r2, ror #4
    151c:	69687372 	stmdbvs	r8!, {r1, r4, r5, r6, r8, r9, ip, sp, lr}^
    1520:	cf017466 	svcgt	0x00017466

00001522 <Code_254>:
    1522:	cf01      	ldmia	r7!, {r0}
    1524:	4130      	asrs	r0, r6
    1526:	0006      	movs	r6, r0
    1528:	4770      	bx	lr
    152a:	b500      	push	{lr}
    152c:	3f04      	subs	r7, #4
    152e:	603e      	str	r6, [r7, #0]
    1530:	4e42      	ldr	r6, [pc, #264]	; (163c <alloc_logic_gemeinsam+0x34>)
    1532:	3f04      	subs	r7, #4
    1534:	603e      	str	r6, [r7, #0]
    1536:	4e42      	ldr	r6, [pc, #264]	; (1640 <alloc_logic_gemeinsam+0x38>)
    1538:	f7ff f8f5 	bl	726 <expect_two_elements>
    153c:	6841      	ldr	r1, [r0, #4]
    153e:	291f      	cmp	r1, #31
    1540:	d928      	bls.n	1594 <Code_264+0x16>
    1542:	211f      	movs	r1, #31
    1544:	6041      	str	r1, [r0, #4]
    1546:	e025      	b.n	1594 <Code_264+0x16>

00001548 <Dictionary_259>:
    1548:	00001570 	andeq	r1, r0, r0, ror r5
    154c:	72060262 	andvc	r0, r6, #536870918	; 0x20000006
    1550:	66696873 			; <UNDEFINED> instruction: 0x66696873
    1554:	cf010074 	svcgt	0x00010074

00001556 <Code_259>:
    1556:	cf01      	ldmia	r7!, {r0}
    1558:	40f0      	lsrs	r0, r6
    155a:	0006      	movs	r6, r0
    155c:	4770      	bx	lr
    155e:	b500      	push	{lr}
    1560:	3f04      	subs	r7, #4
    1562:	603e      	str	r6, [r7, #0]
    1564:	4e37      	ldr	r6, [pc, #220]	; (1644 <alloc_logic_gemeinsam+0x3c>)
    1566:	3f04      	subs	r7, #4
    1568:	603e      	str	r6, [r7, #0]
    156a:	4e37      	ldr	r6, [pc, #220]	; (1648 <alloc_logic_gemeinsam+0x40>)
    156c:	e012      	b.n	1594 <Code_264+0x16>
    156e:	46c0      	nop			; (mov r8, r8)

00001570 <Dictionary_264>:
    1570:	00001654 	andeq	r1, r0, r4, asr r6
    1574:	6c060262 	sfmvs	f0, 4, [r6], {98}	; 0x62
    1578:	66696873 			; <UNDEFINED> instruction: 0x66696873
    157c:	cf010074 	svcgt	0x00010074

0000157e <Code_264>:
    157e:	cf01      	ldmia	r7!, {r0}
    1580:	40b0      	lsls	r0, r6
    1582:	0006      	movs	r6, r0
    1584:	4770      	bx	lr
    1586:	b500      	push	{lr}
    1588:	3f04      	subs	r7, #4
    158a:	603e      	str	r6, [r7, #0]
    158c:	4e2f      	ldr	r6, [pc, #188]	; (164c <alloc_logic_gemeinsam+0x44>)
    158e:	3f04      	subs	r7, #4
    1590:	603e      	str	r6, [r7, #0]
    1592:	2600      	movs	r6, #0
    1594:	f7ff f8c7 	bl	726 <expect_two_elements>
    1598:	6801      	ldr	r1, [r0, #0]
    159a:	2928      	cmp	r1, #40	; 0x28
    159c:	d003      	beq.n	15a6 <Code_264+0x28>
    159e:	cf40      	ldmia	r7!, {r6}
    15a0:	f000 f821 	bl	15e6 <alloc_unkommutativ>
    15a4:	bd00      	pop	{pc}
    15a6:	3704      	adds	r7, #4
    15a8:	6841      	ldr	r1, [r0, #4]
    15aa:	f7fe ffaa 	bl	502 <eliminiere_tos>
    15ae:	2900      	cmp	r1, #0
    15b0:	d101      	bne.n	15b6 <Code_264+0x38>
    15b2:	cf40      	ldmia	r7!, {r6}
    15b4:	bd00      	pop	{pc}
    15b6:	291f      	cmp	r1, #31
    15b8:	d80a      	bhi.n	15d0 <Code_264+0x52>
    15ba:	0189      	lsls	r1, r1, #6
    15bc:	430e      	orrs	r6, r1
    15be:	6802      	ldr	r2, [r0, #0]
    15c0:	00d2      	lsls	r2, r2, #3
    15c2:	4316      	orrs	r6, r2
    15c4:	f7ff f932 	bl	82c <tos_registerwechsel>
    15c8:	431e      	orrs	r6, r3
    15ca:	f002 f832 	bl	3632 <Code_826>
    15ce:	bd00      	pop	{pc}
    15d0:	cf40      	ldmia	r7!, {r6}
    15d2:	f7ff f92b 	bl	82c <tos_registerwechsel>
    15d6:	3f04      	subs	r7, #4
    15d8:	603e      	str	r6, [r7, #0]
    15da:	4e1d      	ldr	r6, [pc, #116]	; (1650 <alloc_logic_gemeinsam+0x48>)
    15dc:	021b      	lsls	r3, r3, #8
    15de:	431e      	orrs	r6, r3
    15e0:	f002 f827 	bl	3632 <Code_826>
    15e4:	bd00      	pop	{pc}

000015e6 <alloc_unkommutativ>:
    15e6:	b50f      	push	{r0, r1, r2, r3, lr}

000015e8 <alloc_unkommutativ_ohneregister>:
    15e8:	f7ff f89d 	bl	726 <expect_two_elements>
    15ec:	e00c      	b.n	1608 <alloc_logic_gemeinsam>

000015ee <alloc_kommutativ>:
    15ee:	b50f      	push	{r0, r1, r2, r3, lr}

000015f0 <alloc_kommutativ_ohneregister>:
    15f0:	f7ff f899 	bl	726 <expect_two_elements>
    15f4:	6801      	ldr	r1, [r0, #0]
    15f6:	2906      	cmp	r1, #6
    15f8:	d101      	bne.n	15fe <alloc_kommutativ_ohneregister+0xe>
    15fa:	f7ff fdf9 	bl	11f0 <swap_allocator>
    15fe:	6882      	ldr	r2, [r0, #8]
    1600:	2a28      	cmp	r2, #40	; 0x28
    1602:	d101      	bne.n	1608 <alloc_logic_gemeinsam>
    1604:	f7ff fdf4 	bl	11f0 <swap_allocator>

00001608 <alloc_logic_gemeinsam>:
    1608:	f7ff f8cc 	bl	7a4 <expect_nos_in_register>
    160c:	f7ff f8de 	bl	7cc <nos_change_tos_away_later>
    1610:	f7ff f8be 	bl	790 <expect_tos_in_register>
    1614:	00c9      	lsls	r1, r1, #3
    1616:	6882      	ldr	r2, [r0, #8]
    1618:	430e      	orrs	r6, r1
    161a:	4316      	orrs	r6, r2
    161c:	f002 f809 	bl	3632 <Code_826>
    1620:	f7fe ff6f 	bl	502 <eliminiere_tos>
    1624:	bd0f      	pop	{r0, r1, r2, r3, pc}
    1626:	40000000 	andmi	r0, r0, r0
    162a:	43800000 	orrmi	r0, r0, #0
    162e:	43000000 	movwmi	r0, #0
    1632:	40400000 	submi	r0, r0, r0
    1636:	43400000 	movtmi	r0, #0
    163a:	41000000 	mrsmi	r0, (UNDEF: 0)
    163e:	10000000 	andne	r0, r0, r0
    1642:	40c00000 	sbcmi	r0, r0, r0
    1646:	08000000 	stmdaeq	r0, {}	; <UNPREDICTABLE>
    164a:	40800000 	addmi	r0, r0, r0
    164e:	20000000 	andcs	r0, r0, r0
	...

00001654 <Dictionary_275>:
    1654:	00001678 	andeq	r1, r0, r8, ror r6
    1658:	30020261 	andcc	r0, r2, r1, ror #4
    165c:	3e01003d 	mcrcc	0, 0, r0, cr1, cr13, {1}

0000165e <Code_275>:
    165e:	3e01      	subs	r6, #1
    1660:	41b6      	sbcs	r6, r6
    1662:	4770      	bx	lr

00001664 <allocator_equal_zero>:
    1664:	b500      	push	{lr}
    1666:	f000 f903 	bl	1870 <prepare_single_compare>
    166a:	f000 ff06 	bl	247a <allocator_one_minus>
    166e:	f7fe ff48 	bl	502 <eliminiere_tos>
    1672:	4973      	ldr	r1, [pc, #460]	; (1840 <Code_329+0x18>)
    1674:	6281      	str	r1, [r0, #40]	; 0x28
    1676:	bd00      	pop	{pc}

00001678 <Dictionary_276>:
    1678:	000016a0 	andeq	r1, r0, r0, lsr #13
    167c:	30030261 	andcc	r0, r3, r1, ror #4
    1680:	3e013e3c 	mcrcc	14, 0, r3, cr1, cr12, {1}

00001682 <Code_276>:
    1682:	3e01      	subs	r6, #1
    1684:	41b6      	sbcs	r6, r6
    1686:	43f6      	mvns	r6, r6
    1688:	4770      	bx	lr

0000168a <allocator_unequal_zero>:
    168a:	b500      	push	{lr}
    168c:	f000 f8f0 	bl	1870 <prepare_single_compare>
    1690:	f000 fef3 	bl	247a <allocator_one_minus>
    1694:	f7fe ff35 	bl	502 <eliminiere_tos>
    1698:	496a      	ldr	r1, [pc, #424]	; (1844 <Code_329+0x1c>)
    169a:	6281      	str	r1, [r0, #40]	; 0x28
    169c:	bd00      	pop	{pc}
    169e:	46c0      	nop			; (mov r8, r8)

000016a0 <Dictionary_277>:
    16a0:	000016c4 	andeq	r1, r0, r4, asr #13
    16a4:	30020261 	andcc	r0, r2, r1, ror #4
    16a8:	17f6003c 			; <UNDEFINED> instruction: 0x17f6003c

000016aa <Code_277>:
    16aa:	17f6      	asrs	r6, r6, #31
    16ac:	4770      	bx	lr

000016ae <alloc_nullkleiner>:
    16ae:	b500      	push	{lr}
    16b0:	f000 f8de 	bl	1870 <prepare_single_compare>
    16b4:	3f04      	subs	r7, #4
    16b6:	603e      	str	r6, [r7, #0]
    16b8:	4e63      	ldr	r6, [pc, #396]	; (1848 <Code_329+0x20>)
    16ba:	f000 ff1f 	bl	24fc <smalltworegisters>
    16be:	4963      	ldr	r1, [pc, #396]	; (184c <Code_329+0x24>)
    16c0:	6281      	str	r1, [r0, #40]	; 0x28
    16c2:	bd00      	pop	{pc}

000016c4 <Dictionary_280>:
    16c4:	000016dc 	ldrdeq	r1, [r0], -ip
    16c8:	74040060 	strvc	r0, [r4], #-96	; 0x60
    16cc:	00657572 	rsbeq	r7, r5, r2, ror r5

000016d0 <Code_280>:
    16d0:	3f04      	subs	r7, #4
    16d2:	603e      	str	r6, [r7, #0]

000016d4 <generate_true>:
    16d4:	2600      	movs	r6, #0
    16d6:	43f6      	mvns	r6, r6
    16d8:	4770      	bx	lr
    16da:	46c0      	nop			; (mov r8, r8)

000016dc <Dictionary_282>:
    16dc:	000016f0 	strdeq	r1, [r0], -r0
    16e0:	66050060 	strvs	r0, [r5], -r0, rrx
    16e4:	65736c61 	ldrbvs	r6, [r3, #-3169]!	; 0xc61

000016e8 <Code_282>:
    16e8:	3f04      	subs	r7, #4
    16ea:	603e      	str	r6, [r7, #0]
    16ec:	2600      	movs	r6, #0
    16ee:	4770      	bx	lr

000016f0 <Dictionary_284>:
    16f0:	00001714 	andeq	r1, r0, r4, lsl r7
    16f4:	3e020242 	cdpcc	2, 0, cr0, cr2, cr2, {2}
    16f8:	cf01003d 	svcgt	0x0001003d

000016fa <Code_284>:
    16fa:	cf01      	ldmia	r7!, {r0}
    16fc:	42b0      	cmp	r0, r6
    16fe:	dae9      	bge.n	16d4 <generate_true>
    1700:	2600      	movs	r6, #0
    1702:	4770      	bx	lr
    1704:	3f04      	subs	r7, #4
    1706:	603e      	str	r6, [r7, #0]
    1708:	4e51      	ldr	r6, [pc, #324]	; (1850 <Code_329+0x28>)
    170a:	3f04      	subs	r7, #4
    170c:	603e      	str	r6, [r7, #0]
    170e:	4e51      	ldr	r6, [pc, #324]	; (1854 <Code_329+0x2c>)
    1710:	e0ba      	b.n	1888 <prepare_compare>
    1712:	46c0      	nop			; (mov r8, r8)

00001714 <Dictionary_289>:
    1714:	00001738 	andeq	r1, r0, r8, lsr r7
    1718:	3c020242 	sfmcc	f0, 4, [r2], {66}	; 0x42
    171c:	cf01003d 	svcgt	0x0001003d

0000171e <Code_289>:
    171e:	cf01      	ldmia	r7!, {r0}
    1720:	42b0      	cmp	r0, r6
    1722:	ddd7      	ble.n	16d4 <generate_true>
    1724:	2600      	movs	r6, #0
    1726:	4770      	bx	lr
    1728:	3f04      	subs	r7, #4
    172a:	603e      	str	r6, [r7, #0]
    172c:	4e4a      	ldr	r6, [pc, #296]	; (1858 <Code_329+0x30>)
    172e:	3f04      	subs	r7, #4
    1730:	603e      	str	r6, [r7, #0]
    1732:	4e4a      	ldr	r6, [pc, #296]	; (185c <Code_329+0x34>)
    1734:	e0a8      	b.n	1888 <prepare_compare>
    1736:	46c0      	nop			; (mov r8, r8)

00001738 <Dictionary_294>:
    1738:	00001758 	andeq	r1, r0, r8, asr r7
    173c:	3c010242 	sfmcc	f0, 4, [r1], {66}	; 0x42

00001740 <Code_294>:
    1740:	cf01      	ldmia	r7!, {r0}
    1742:	42b0      	cmp	r0, r6
    1744:	dbc6      	blt.n	16d4 <generate_true>
    1746:	2600      	movs	r6, #0
    1748:	4770      	bx	lr
    174a:	3f04      	subs	r7, #4
    174c:	603e      	str	r6, [r7, #0]
    174e:	4e41      	ldr	r6, [pc, #260]	; (1854 <Code_329+0x2c>)
    1750:	3f04      	subs	r7, #4
    1752:	603e      	str	r6, [r7, #0]
    1754:	4e3e      	ldr	r6, [pc, #248]	; (1850 <Code_329+0x28>)
    1756:	e097      	b.n	1888 <prepare_compare>

00001758 <Dictionary_299>:
    1758:	00001778 	andeq	r1, r0, r8, ror r7
    175c:	3e010242 	cdpcc	2, 0, cr0, cr1, cr2, {2}

00001760 <Code_299>:
    1760:	cf01      	ldmia	r7!, {r0}
    1762:	42b0      	cmp	r0, r6
    1764:	dcb6      	bgt.n	16d4 <generate_true>
    1766:	2600      	movs	r6, #0
    1768:	4770      	bx	lr
    176a:	3f04      	subs	r7, #4
    176c:	603e      	str	r6, [r7, #0]
    176e:	4e3b      	ldr	r6, [pc, #236]	; (185c <Code_329+0x34>)
    1770:	3f04      	subs	r7, #4
    1772:	603e      	str	r6, [r7, #0]
    1774:	4e38      	ldr	r6, [pc, #224]	; (1858 <Code_329+0x30>)
    1776:	e087      	b.n	1888 <prepare_compare>

00001778 <Dictionary_304>:
    1778:	0000179c 	muleq	r0, ip, r7
    177c:	75030262 	strvc	r0, [r3, #-610]	; 0x262
    1780:	cf013d3e 	svcgt	0x00013d3e

00001782 <Code_304>:
    1782:	cf01      	ldmia	r7!, {r0}
    1784:	1b86      	subs	r6, r0, r6
    1786:	41b6      	sbcs	r6, r6
    1788:	43f6      	mvns	r6, r6
    178a:	4770      	bx	lr
    178c:	3f04      	subs	r7, #4
    178e:	603e      	str	r6, [r7, #0]
    1790:	4e2c      	ldr	r6, [pc, #176]	; (1844 <Code_329+0x1c>)
    1792:	3f04      	subs	r7, #4
    1794:	603e      	str	r6, [r7, #0]
    1796:	4e2a      	ldr	r6, [pc, #168]	; (1840 <Code_329+0x18>)
    1798:	e076      	b.n	1888 <prepare_compare>
    179a:	46c0      	nop			; (mov r8, r8)

0000179c <Dictionary_309>:
    179c:	000017c0 	andeq	r1, r0, r0, asr #15
    17a0:	75030262 	strvc	r0, [r3, #-610]	; 0x262
    17a4:	cf013d3c 	svcgt	0x00013d3c

000017a6 <Code_309>:
    17a6:	cf01      	ldmia	r7!, {r0}
    17a8:	1a36      	subs	r6, r6, r0
    17aa:	41b6      	sbcs	r6, r6
    17ac:	43f6      	mvns	r6, r6
    17ae:	4770      	bx	lr
    17b0:	3f04      	subs	r7, #4
    17b2:	603e      	str	r6, [r7, #0]
    17b4:	4e2a      	ldr	r6, [pc, #168]	; (1860 <Code_329+0x38>)
    17b6:	3f04      	subs	r7, #4
    17b8:	603e      	str	r6, [r7, #0]
    17ba:	4e2a      	ldr	r6, [pc, #168]	; (1864 <Code_329+0x3c>)
    17bc:	e064      	b.n	1888 <prepare_compare>
    17be:	46c0      	nop			; (mov r8, r8)

000017c0 <Dictionary_314>:
    17c0:	000017e0 	andeq	r1, r0, r0, ror #15
    17c4:	75020262 	strvc	r0, [r2, #-610]	; 0x262
    17c8:	cf01003c 	svcgt	0x0001003c

000017ca <Code_314>:
    17ca:	cf01      	ldmia	r7!, {r0}
    17cc:	1b86      	subs	r6, r0, r6
    17ce:	41b6      	sbcs	r6, r6
    17d0:	4770      	bx	lr
    17d2:	3f04      	subs	r7, #4
    17d4:	603e      	str	r6, [r7, #0]
    17d6:	4e1a      	ldr	r6, [pc, #104]	; (1840 <Code_329+0x18>)
    17d8:	3f04      	subs	r7, #4
    17da:	603e      	str	r6, [r7, #0]
    17dc:	4e19      	ldr	r6, [pc, #100]	; (1844 <Code_329+0x1c>)
    17de:	e053      	b.n	1888 <prepare_compare>

000017e0 <Dictionary_319>:
    17e0:	00001800 	andeq	r1, r0, r0, lsl #16
    17e4:	75020262 	strvc	r0, [r2, #-610]	; 0x262
    17e8:	cf01003e 	svcgt	0x0001003e

000017ea <Code_319>:
    17ea:	cf01      	ldmia	r7!, {r0}
    17ec:	1a36      	subs	r6, r6, r0
    17ee:	41b6      	sbcs	r6, r6
    17f0:	4770      	bx	lr
    17f2:	3f04      	subs	r7, #4
    17f4:	603e      	str	r6, [r7, #0]
    17f6:	4e1b      	ldr	r6, [pc, #108]	; (1864 <Code_329+0x3c>)
    17f8:	3f04      	subs	r7, #4
    17fa:	603e      	str	r6, [r7, #0]
    17fc:	4e18      	ldr	r6, [pc, #96]	; (1860 <Code_329+0x38>)
    17fe:	e043      	b.n	1888 <prepare_compare>

00001800 <Dictionary_324>:
    1800:	00001820 	andeq	r1, r0, r0, lsr #16
    1804:	3c020262 	sfmcc	f0, 4, [r2], {98}	; 0x62
    1808:	cf01003e 	svcgt	0x0001003e

0000180a <Code_324>:
    180a:	cf01      	ldmia	r7!, {r0}
    180c:	1b81      	subs	r1, r0, r6
    180e:	1a36      	subs	r6, r6, r0
    1810:	430e      	orrs	r6, r1
    1812:	4770      	bx	lr
    1814:	3f04      	subs	r7, #4
    1816:	603e      	str	r6, [r7, #0]
    1818:	4e13      	ldr	r6, [pc, #76]	; (1868 <Code_329+0x40>)
    181a:	3f04      	subs	r7, #4
    181c:	603e      	str	r6, [r7, #0]
    181e:	e033      	b.n	1888 <prepare_compare>

00001820 <Dictionary_329>:
    1820:	0000197c 	andeq	r1, r0, ip, ror r9
    1824:	3d010262 	sfmcc	f0, 4, [r1, #-392]	; 0xfffffe78

00001828 <Code_329>:
    1828:	cf01      	ldmia	r7!, {r0}
    182a:	1a36      	subs	r6, r6, r0
    182c:	3e01      	subs	r6, #1
    182e:	41b6      	sbcs	r6, r6
    1830:	4770      	bx	lr
    1832:	3f04      	subs	r7, #4
    1834:	603e      	str	r6, [r7, #0]
    1836:	4e0d      	ldr	r6, [pc, #52]	; (186c <Code_329+0x44>)
    1838:	3f04      	subs	r7, #4
    183a:	603e      	str	r6, [r7, #0]
    183c:	e024      	b.n	1888 <prepare_compare>
    183e:	d2000000 	andle	r0, r0, #0
    1842:	d3000000 	movwle	r0, #0
    1846:	17c00000 	strbne	r0, [r0, r0]
    184a:	d5000000 	strle	r0, [r0]
    184e:	db000000 	blle	1856 <Code_329+0x2e>
    1852:	da000000 	ble	185a <Code_329+0x32>
    1856:	dc000000 	stcle	0, cr0, [r0], {0}
    185a:	dd000000 	stcle	0, cr0, [r0]
    185e:	d8000000 	stmdale	r0, {}	; <UNPREDICTABLE>
    1862:	d9000000 	stmdble	r0, {}	; <UNPREDICTABLE>
    1866:	d0000000 	andle	r0, r0, r0
    186a:	d1000000 	mrsle	r0, (UNDEF: 0)
	...

00001870 <prepare_single_compare>:
    1870:	b500      	push	{lr}
    1872:	f7fe ff4e 	bl	712 <expect_one_element>
    1876:	f7fe fe7f 	bl	578 <tidyup_register_allocator_5os>
    187a:	f7fe fe82 	bl	582 <tidyup_register_allocator_4os>
    187e:	f7fe fe85 	bl	58c <tidyup_register_allocator_3os>
    1882:	f7fe ff8f 	bl	7a4 <expect_nos_in_register>
    1886:	bd00      	pop	{pc}

00001888 <prepare_compare>:
    1888:	b500      	push	{lr}
    188a:	f7fe ff4c 	bl	726 <expect_two_elements>
    188e:	f7fe fe73 	bl	578 <tidyup_register_allocator_5os>
    1892:	f7fe fe76 	bl	582 <tidyup_register_allocator_4os>
    1896:	f7fe ff8f 	bl	7b8 <expect_3os_in_register>
    189a:	6882      	ldr	r2, [r0, #8]
    189c:	2a28      	cmp	r2, #40	; 0x28
    189e:	d104      	bne.n	18aa <prepare_compare+0x22>
    18a0:	f7ff fca6 	bl	11f0 <swap_allocator>
    18a4:	6839      	ldr	r1, [r7, #0]
    18a6:	603e      	str	r6, [r7, #0]
    18a8:	460e      	mov	r6, r1
    18aa:	cf40      	ldmia	r7!, {r6}
    18ac:	6801      	ldr	r1, [r0, #0]
    18ae:	2928      	cmp	r1, #40	; 0x28
    18b0:	d109      	bne.n	18c6 <prepare_compare+0x3e>
    18b2:	6841      	ldr	r1, [r0, #4]
    18b4:	29ff      	cmp	r1, #255	; 0xff
    18b6:	d806      	bhi.n	18c6 <prepare_compare+0x3e>
    18b8:	3f04      	subs	r7, #4
    18ba:	603e      	str	r6, [r7, #0]
    18bc:	4e63      	ldr	r6, [pc, #396]	; (1a4c <alloc_minmax+0x5c>)
    18be:	430e      	orrs	r6, r1
    18c0:	6881      	ldr	r1, [r0, #8]
    18c2:	0209      	lsls	r1, r1, #8
    18c4:	e006      	b.n	18d4 <prepare_compare+0x4c>
    18c6:	f7fe ff63 	bl	790 <expect_tos_in_register>
    18ca:	3f04      	subs	r7, #4
    18cc:	603e      	str	r6, [r7, #0]
    18ce:	4e60      	ldr	r6, [pc, #384]	; (1a50 <alloc_minmax+0x60>)
    18d0:	00c9      	lsls	r1, r1, #3
    18d2:	4316      	orrs	r6, r2
    18d4:	430e      	orrs	r6, r1
    18d6:	f001 feac 	bl	3632 <Code_826>
    18da:	f7fe fe12 	bl	502 <eliminiere_tos>
    18de:	f7fe fe10 	bl	502 <eliminiere_tos>
    18e2:	6286      	str	r6, [r0, #40]	; 0x28
    18e4:	cf40      	ldmia	r7!, {r6}
    18e6:	bd00      	pop	{pc}

000018e8 <sprungschreiber_flaggenerator>:
    18e8:	b50f      	push	{r0, r1, r2, r3, lr}
    18ea:	485a      	ldr	r0, [pc, #360]	; (1a54 <alloc_minmax+0x64>)
    18ec:	6a81      	ldr	r1, [r0, #40]	; 0x28
    18ee:	2900      	cmp	r1, #0
    18f0:	d030      	beq.n	1954 <sprungschreiber_flaggenerator+0x6c>
    18f2:	3f04      	subs	r7, #4
    18f4:	603e      	str	r6, [r7, #0]
    18f6:	6a86      	ldr	r6, [r0, #40]	; 0x28
    18f8:	2100      	movs	r1, #0
    18fa:	6281      	str	r1, [r0, #40]	; 0x28
    18fc:	0a31      	lsrs	r1, r6, #8
    18fe:	29d5      	cmp	r1, #213	; 0xd5
    1900:	d101      	bne.n	1906 <sprungschreiber_flaggenerator+0x1e>
    1902:	cf40      	ldmia	r7!, {r6}
    1904:	bd0f      	pop	{r0, r1, r2, r3, pc}
    1906:	f7fe fdf2 	bl	4ee <befreie_tos>
    190a:	f7fe fecf 	bl	6ac <get_free_register>
    190e:	6003      	str	r3, [r0, #0]
    1910:	29d2      	cmp	r1, #210	; 0xd2
    1912:	d103      	bne.n	191c <sprungschreiber_flaggenerator+0x34>
    1914:	4e50      	ldr	r6, [pc, #320]	; (1a58 <alloc_minmax+0x68>)
    1916:	f000 fdf1 	bl	24fc <smalltworegisters>
    191a:	bd0f      	pop	{r0, r1, r2, r3, pc}
    191c:	29d3      	cmp	r1, #211	; 0xd3
    191e:	d105      	bne.n	192c <sprungschreiber_flaggenerator+0x44>
    1920:	4e4d      	ldr	r6, [pc, #308]	; (1a58 <alloc_minmax+0x68>)
    1922:	f000 fdeb 	bl	24fc <smalltworegisters>
    1926:	f000 fdfc 	bl	2522 <allocator_not>
    192a:	bd0f      	pop	{r0, r1, r2, r3, pc}
    192c:	3602      	adds	r6, #2
    192e:	f001 fe80 	bl	3632 <Code_826>
    1932:	3f04      	subs	r7, #4
    1934:	603e      	str	r6, [r7, #0]
    1936:	4e49      	ldr	r6, [pc, #292]	; (1a5c <alloc_minmax+0x6c>)
    1938:	f000 f80d 	bl	1956 <smallplusminus>
    193c:	f000 fdf1 	bl	2522 <allocator_not>
    1940:	3f04      	subs	r7, #4
    1942:	603e      	str	r6, [r7, #0]
    1944:	4e46      	ldr	r6, [pc, #280]	; (1a60 <alloc_minmax+0x70>)
    1946:	f001 fe74 	bl	3632 <Code_826>
    194a:	3f04      	subs	r7, #4
    194c:	603e      	str	r6, [r7, #0]
    194e:	4e43      	ldr	r6, [pc, #268]	; (1a5c <alloc_minmax+0x6c>)
    1950:	f000 f801 	bl	1956 <smallplusminus>
    1954:	bd0f      	pop	{r0, r1, r2, r3, pc}

00001956 <smallplusminus>:
    1956:	b500      	push	{lr}
    1958:	f7fe fedb 	bl	712 <expect_one_element>
    195c:	f7fe ff4d 	bl	7fa <make_tos_changeable>
    1960:	6801      	ldr	r1, [r0, #0]
    1962:	0209      	lsls	r1, r1, #8
    1964:	430e      	orrs	r6, r1
    1966:	f001 fe64 	bl	3632 <Code_826>
    196a:	bd00      	pop	{pc}

0000196c <eliminiere_tos_wenn_bmi>:
    196c:	b500      	push	{lr}
    196e:	6a81      	ldr	r1, [r0, #40]	; 0x28
    1970:	0a09      	lsrs	r1, r1, #8
    1972:	29d5      	cmp	r1, #213	; 0xd5
    1974:	d101      	bne.n	197a <eliminiere_tos_wenn_bmi+0xe>
    1976:	f7fe fdc4 	bl	502 <eliminiere_tos>
    197a:	bd00      	pop	{pc}

0000197c <Dictionary_349>:
    197c:	00001998 	muleq	r0, r8, r9
    1980:	6d030262 	sfmvs	f0, 4, [r3, #-392]	; 0xfffffe78
    1984:	cf016e69 	svcgt	0x00016e69

00001986 <Code_349>:
    1986:	cf01      	ldmia	r7!, {r0}
    1988:	42b0      	cmp	r0, r6
    198a:	dc00      	bgt.n	198e <Code_349+0x8>
    198c:	0006      	movs	r6, r0
    198e:	4770      	bx	lr
    1990:	3f04      	subs	r7, #4
    1992:	603e      	str	r6, [r7, #0]
    1994:	4e33      	ldr	r6, [pc, #204]	; (1a64 <alloc_minmax+0x74>)
    1996:	e02b      	b.n	19f0 <alloc_minmax>

00001998 <Dictionary_352>:
    1998:	000019b4 			; <UNDEFINED> instruction: 0x000019b4
    199c:	6d030262 	sfmvs	f0, 4, [r3, #-392]	; 0xfffffe78
    19a0:	cf017861 	svcgt	0x00017861

000019a2 <Code_352>:
    19a2:	cf01      	ldmia	r7!, {r0}
    19a4:	42b0      	cmp	r0, r6
    19a6:	db00      	blt.n	19aa <Code_352+0x8>
    19a8:	0006      	movs	r6, r0
    19aa:	4770      	bx	lr
    19ac:	3f04      	subs	r7, #4
    19ae:	603e      	str	r6, [r7, #0]
    19b0:	4e2d      	ldr	r6, [pc, #180]	; (1a68 <alloc_minmax+0x78>)
    19b2:	e01d      	b.n	19f0 <alloc_minmax>

000019b4 <Dictionary_355>:
    19b4:	000019d4 	ldrdeq	r1, [r0], -r4
    19b8:	75040262 	strvc	r0, [r4, #-610]	; 0x262
    19bc:	0078616d 	rsbseq	r6, r8, sp, ror #2

000019c0 <Code_355>:
    19c0:	cf01      	ldmia	r7!, {r0}
    19c2:	42b0      	cmp	r0, r6
    19c4:	d300      	bcc.n	19c8 <Code_355+0x8>
    19c6:	0006      	movs	r6, r0
    19c8:	4770      	bx	lr
    19ca:	3f04      	subs	r7, #4
    19cc:	603e      	str	r6, [r7, #0]
    19ce:	4e27      	ldr	r6, [pc, #156]	; (1a6c <alloc_minmax+0x7c>)
    19d0:	e00e      	b.n	19f0 <alloc_minmax>
    19d2:	46c0      	nop			; (mov r8, r8)

000019d4 <Dictionary_358>:
    19d4:	00001a78 	andeq	r1, r0, r8, ror sl
    19d8:	75040262 	strvc	r0, [r4, #-610]	; 0x262
    19dc:	006e696d 	rsbeq	r6, lr, sp, ror #18

000019e0 <Code_358>:
    19e0:	cf01      	ldmia	r7!, {r0}
    19e2:	42b0      	cmp	r0, r6
    19e4:	d800      	bhi.n	19e8 <Code_358+0x8>
    19e6:	0006      	movs	r6, r0
    19e8:	4770      	bx	lr
    19ea:	3f04      	subs	r7, #4
    19ec:	603e      	str	r6, [r7, #0]
    19ee:	4e20      	ldr	r6, [pc, #128]	; (1a70 <alloc_minmax+0x80>)

000019f0 <alloc_minmax>:
    19f0:	b500      	push	{lr}
    19f2:	f7fe fe98 	bl	726 <expect_two_elements>
    19f6:	6801      	ldr	r1, [r0, #0]
    19f8:	6882      	ldr	r2, [r0, #8]
    19fa:	4291      	cmp	r1, r2
    19fc:	d103      	bne.n	1a06 <alloc_minmax+0x16>
    19fe:	cf40      	ldmia	r7!, {r6}
    1a00:	f7fe fd85 	bl	50e <eliminiere_nos>
    1a04:	bd00      	pop	{pc}
    1a06:	2a06      	cmp	r2, #6
    1a08:	d101      	bne.n	1a0e <alloc_minmax+0x1e>
    1a0a:	f7ff fbf1 	bl	11f0 <swap_allocator>
    1a0e:	6801      	ldr	r1, [r0, #0]
    1a10:	2928      	cmp	r1, #40	; 0x28
    1a12:	d101      	bne.n	1a18 <alloc_minmax+0x28>
    1a14:	f7ff fbec 	bl	11f0 <swap_allocator>
    1a18:	f7fe feef 	bl	7fa <make_tos_changeable>
    1a1c:	f7fe fec2 	bl	7a4 <expect_nos_in_register>
    1a20:	00c9      	lsls	r1, r1, #3
    1a22:	6802      	ldr	r2, [r0, #0]
    1a24:	3f04      	subs	r7, #4
    1a26:	603e      	str	r6, [r7, #0]
    1a28:	4e09      	ldr	r6, [pc, #36]	; (1a50 <alloc_minmax+0x60>)
    1a2a:	430e      	orrs	r6, r1
    1a2c:	4316      	orrs	r6, r2
    1a2e:	f001 fe00 	bl	3632 <Code_826>
    1a32:	f001 fdfe 	bl	3632 <Code_826>
    1a36:	3f04      	subs	r7, #4
    1a38:	603e      	str	r6, [r7, #0]
    1a3a:	4e0e      	ldr	r6, [pc, #56]	; (1a74 <alloc_minmax+0x84>)
    1a3c:	430e      	orrs	r6, r1
    1a3e:	4316      	orrs	r6, r2
    1a40:	f001 fdf7 	bl	3632 <Code_826>
    1a44:	f7fe fd63 	bl	50e <eliminiere_nos>
    1a48:	bd00      	pop	{pc}
    1a4a:	28000000 	stmdacs	r0, {}	; <UNPREDICTABLE>
    1a4e:	42800000 	addmi	r0, r0, #0
    1a52:	f0280000 			; <UNDEFINED> instruction: 0xf0280000
    1a56:	41801fff 	strdmi	r1, [r0, pc]
    1a5a:	20000000 	andcs	r0, r0, r0
    1a5e:	e0000000 	and	r0, r0, r0
    1a62:	db000000 	blle	1a6a <alloc_minmax+0x7a>
    1a66:	dc000000 	stcle	0, cr0, [r0], {0}
    1a6a:	d8000000 	stmdale	r0, {}	; <UNPREDICTABLE>
    1a6e:	d3000000 	movwle	r0, #0
    1a72:	46000000 	strmi	r0, [r0], -r0
	...

00001a78 <Dictionary_366>:
    1a78:	00001ab8 			; <UNDEFINED> instruction: 0x00001ab8
    1a7c:	6d040000 	stcvs	0, cr0, [r4]
    1a80:	0065766f 	rsbeq	r7, r5, pc, ror #12

00001a84 <Code_366>:
    1a84:	b507      	push	{r0, r1, r2, lr}
    1a86:	0031      	movs	r1, r6
    1a88:	cf40      	ldmia	r7!, {r6}
    1a8a:	0032      	movs	r2, r6
    1a8c:	cf40      	ldmia	r7!, {r6}
    1a8e:	2900      	cmp	r1, #0
    1a90:	d00f      	beq.n	1ab2 <Code_366+0x2e>
    1a92:	42b2      	cmp	r2, r6
    1a94:	d00d      	beq.n	1ab2 <Code_366+0x2e>
    1a96:	d306      	bcc.n	1aa6 <Code_366+0x22>
    1a98:	3e01      	subs	r6, #1
    1a9a:	3a01      	subs	r2, #1
    1a9c:	5c70      	ldrb	r0, [r6, r1]
    1a9e:	5450      	strb	r0, [r2, r1]
    1aa0:	3901      	subs	r1, #1
    1aa2:	d1fb      	bne.n	1a9c <Code_366+0x18>
    1aa4:	e005      	b.n	1ab2 <Code_366+0x2e>
    1aa6:	7830      	ldrb	r0, [r6, #0]
    1aa8:	7010      	strb	r0, [r2, #0]
    1aaa:	3601      	adds	r6, #1
    1aac:	3201      	adds	r2, #1
    1aae:	3901      	subs	r1, #1
    1ab0:	d1f9      	bne.n	1aa6 <Code_366+0x22>
    1ab2:	cf40      	ldmia	r7!, {r6}
    1ab4:	bd07      	pop	{r0, r1, r2, pc}
    1ab6:	46c0      	nop			; (mov r8, r8)

00001ab8 <Dictionary_370>:
    1ab8:	00001adc 	ldrdeq	r1, [r0], -ip
    1abc:	66040000 	strvs	r0, [r4], -r0
    1ac0:	006c6c69 	rsbeq	r6, ip, r9, ror #24

00001ac4 <Code_370>:
    1ac4:	0030      	movs	r0, r6
    1ac6:	cf40      	ldmia	r7!, {r6}
    1ac8:	0031      	movs	r1, r6
    1aca:	cf40      	ldmia	r7!, {r6}
    1acc:	2900      	cmp	r1, #0
    1ace:	d002      	beq.n	1ad6 <Code_370+0x12>
    1ad0:	3901      	subs	r1, #1
    1ad2:	5470      	strb	r0, [r6, r1]
    1ad4:	d1fc      	bne.n	1ad0 <Code_370+0xc>
    1ad6:	cf40      	ldmia	r7!, {r6}
    1ad8:	4770      	bx	lr
    1ada:	46c0      	nop			; (mov r8, r8)

00001adc <Dictionary_374>:
    1adc:	00001b1c 	andeq	r1, r0, ip, lsl fp
    1ae0:	40010220 	andmi	r0, r1, r0, lsr #4

00001ae4 <Code_374>:
    1ae4:	6836      	ldr	r6, [r6, #0]
    1ae6:	4770      	bx	lr

00001ae8 <allocator_4fetch>:
    1ae8:	3f04      	subs	r7, #4
    1aea:	603e      	str	r6, [r7, #0]
    1aec:	4e99      	ldr	r6, [pc, #612]	; (1d54 <Code_394+0x2e>)

00001aee <allocator_4fetch_anderer_opcode>:
    1aee:	b500      	push	{lr}
    1af0:	f7fe fe0f 	bl	712 <expect_one_element>
    1af4:	6803      	ldr	r3, [r0, #0]
    1af6:	2b28      	cmp	r3, #40	; 0x28
    1af8:	d108      	bne.n	1b0c <allocator_4fetch_anderer_opcode+0x1e>
    1afa:	6843      	ldr	r3, [r0, #4]
    1afc:	217c      	movs	r1, #124	; 0x7c
    1afe:	4019      	ands	r1, r3
    1b00:	0109      	lsls	r1, r1, #4
    1b02:	430e      	orrs	r6, r1
    1b04:	217c      	movs	r1, #124	; 0x7c
    1b06:	438b      	bics	r3, r1
    1b08:	f7fe fd87 	bl	61a <generiere_adresskonstante>
    1b0c:	00db      	lsls	r3, r3, #3
    1b0e:	431e      	orrs	r6, r3
    1b10:	f7fe fe8c 	bl	82c <tos_registerwechsel>
    1b14:	431e      	orrs	r6, r3
    1b16:	f001 fd8c 	bl	3632 <Code_826>
    1b1a:	bd00      	pop	{pc}

00001b1c <Dictionary_377>:
    1b1c:	00001b74 	andeq	r1, r0, r4, ror fp
    1b20:	21010220 	tstcs	r1, r0, lsr #4

00001b24 <Code_377>:
    1b24:	cf03      	ldmia	r7!, {r0, r1}
    1b26:	6030      	str	r0, [r6, #0]
    1b28:	000e      	movs	r6, r1
    1b2a:	4770      	bx	lr

00001b2c <allocator_4store>:
    1b2c:	3f04      	subs	r7, #4
    1b2e:	603e      	str	r6, [r7, #0]
    1b30:	4e89      	ldr	r6, [pc, #548]	; (1d58 <Code_394+0x32>)

00001b32 <allocator_4store_anderer_opcode>:
    1b32:	b500      	push	{lr}
    1b34:	f7fe fdf7 	bl	726 <expect_two_elements>
    1b38:	6803      	ldr	r3, [r0, #0]
    1b3a:	2b28      	cmp	r3, #40	; 0x28
    1b3c:	d109      	bne.n	1b52 <allocator_4store_anderer_opcode+0x20>
    1b3e:	6843      	ldr	r3, [r0, #4]
    1b40:	217c      	movs	r1, #124	; 0x7c
    1b42:	4019      	ands	r1, r3
    1b44:	0109      	lsls	r1, r1, #4
    1b46:	430e      	orrs	r6, r1
    1b48:	217c      	movs	r1, #124	; 0x7c
    1b4a:	438b      	bics	r3, r1
    1b4c:	f7fe fd65 	bl	61a <generiere_adresskonstante>
    1b50:	6003      	str	r3, [r0, #0]
    1b52:	00db      	lsls	r3, r3, #3
    1b54:	431e      	orrs	r6, r3
    1b56:	6883      	ldr	r3, [r0, #8]
    1b58:	2b28      	cmp	r3, #40	; 0x28
    1b5a:	d102      	bne.n	1b62 <allocator_4store_anderer_opcode+0x30>
    1b5c:	68c3      	ldr	r3, [r0, #12]
    1b5e:	f7fe fd50 	bl	602 <generiere_konstante>
    1b62:	431e      	orrs	r6, r3
    1b64:	f001 fd65 	bl	3632 <Code_826>
    1b68:	f7fe fccb 	bl	502 <eliminiere_tos>
    1b6c:	f7fe fcc9 	bl	502 <eliminiere_tos>
    1b70:	bd00      	pop	{pc}
    1b72:	46c0      	nop			; (mov r8, r8)

00001b74 <Dictionary_380>:
    1b74:	00001bac 	andeq	r1, r0, ip, lsr #23
    1b78:	2b020220 	blcs	82400 <BIT19+0x2400>
    1b7c:	cf030021 	svcgt	0x00030021

00001b7e <Code_380>:
    1b7e:	cf03      	ldmia	r7!, {r0, r1}
    1b80:	6832      	ldr	r2, [r6, #0]
    1b82:	1812      	adds	r2, r2, r0
    1b84:	6032      	str	r2, [r6, #0]
    1b86:	000e      	movs	r6, r1
    1b88:	4770      	bx	lr
    1b8a:	b500      	push	{lr}
    1b8c:	f7fe fdcb 	bl	726 <expect_two_elements>
    1b90:	f7ff faf8 	bl	1184 <dup_allocator>
    1b94:	f7ff ffa8 	bl	1ae8 <allocator_4fetch>
    1b98:	f7ff fb7f 	bl	129a <rot_allocator>
    1b9c:	f000 fc23 	bl	23e6 <plus_allocator>
    1ba0:	f7ff fb26 	bl	11f0 <swap_allocator>
    1ba4:	f7ff ffc2 	bl	1b2c <allocator_4store>
    1ba8:	bd00      	pop	{pc}
    1baa:	46c0      	nop			; (mov r8, r8)

00001bac <Dictionary_381>:
    1bac:	00001bf0 	strdeq	r1, [r0], -r0
    1bb0:	68020220 	stmdavs	r2, {r5, r9}
    1bb4:	88360040 	ldmdahi	r6!, {r6}

00001bb6 <Code_381>:
    1bb6:	8836      	ldrh	r6, [r6, #0]
    1bb8:	4770      	bx	lr

00001bba <allocator_2fetch>:
    1bba:	b500      	push	{lr}
    1bbc:	f7fe fda9 	bl	712 <expect_one_element>
    1bc0:	3f04      	subs	r7, #4
    1bc2:	603e      	str	r6, [r7, #0]
    1bc4:	4e65      	ldr	r6, [pc, #404]	; (1d5c <Code_394+0x36>)
    1bc6:	6803      	ldr	r3, [r0, #0]
    1bc8:	2b28      	cmp	r3, #40	; 0x28
    1bca:	d108      	bne.n	1bde <allocator_2fetch+0x24>
    1bcc:	6843      	ldr	r3, [r0, #4]
    1bce:	213e      	movs	r1, #62	; 0x3e
    1bd0:	4019      	ands	r1, r3
    1bd2:	0149      	lsls	r1, r1, #5
    1bd4:	430e      	orrs	r6, r1
    1bd6:	213e      	movs	r1, #62	; 0x3e
    1bd8:	438b      	bics	r3, r1
    1bda:	f7fe fd1e 	bl	61a <generiere_adresskonstante>
    1bde:	00db      	lsls	r3, r3, #3
    1be0:	431e      	orrs	r6, r3
    1be2:	f7fe fe23 	bl	82c <tos_registerwechsel>
    1be6:	431e      	orrs	r6, r3
    1be8:	f001 fd23 	bl	3632 <Code_826>
    1bec:	bd00      	pop	{pc}
    1bee:	46c0      	nop			; (mov r8, r8)

00001bf0 <Dictionary_384>:
    1bf0:	00001c48 	andeq	r1, r0, r8, asr #24
    1bf4:	68020220 	stmdavs	r2, {r5, r9}
    1bf8:	cf030021 	svcgt	0x00030021

00001bfa <Code_384>:
    1bfa:	cf03      	ldmia	r7!, {r0, r1}
    1bfc:	8030      	strh	r0, [r6, #0]
    1bfe:	000e      	movs	r6, r1
    1c00:	4770      	bx	lr

00001c02 <allocator_2store>:
    1c02:	b500      	push	{lr}
    1c04:	f7fe fd8f 	bl	726 <expect_two_elements>
    1c08:	3f04      	subs	r7, #4
    1c0a:	603e      	str	r6, [r7, #0]
    1c0c:	4e54      	ldr	r6, [pc, #336]	; (1d60 <Code_394+0x3a>)
    1c0e:	6803      	ldr	r3, [r0, #0]
    1c10:	2b28      	cmp	r3, #40	; 0x28
    1c12:	d109      	bne.n	1c28 <allocator_2store+0x26>
    1c14:	6843      	ldr	r3, [r0, #4]
    1c16:	213e      	movs	r1, #62	; 0x3e
    1c18:	4019      	ands	r1, r3
    1c1a:	0149      	lsls	r1, r1, #5
    1c1c:	430e      	orrs	r6, r1
    1c1e:	213e      	movs	r1, #62	; 0x3e
    1c20:	438b      	bics	r3, r1
    1c22:	f7fe fcfa 	bl	61a <generiere_adresskonstante>
    1c26:	6003      	str	r3, [r0, #0]
    1c28:	00db      	lsls	r3, r3, #3
    1c2a:	431e      	orrs	r6, r3
    1c2c:	6883      	ldr	r3, [r0, #8]
    1c2e:	2b28      	cmp	r3, #40	; 0x28
    1c30:	d102      	bne.n	1c38 <allocator_2store+0x36>
    1c32:	68c3      	ldr	r3, [r0, #12]
    1c34:	f7fe fce5 	bl	602 <generiere_konstante>
    1c38:	431e      	orrs	r6, r3
    1c3a:	f001 fcfa 	bl	3632 <Code_826>
    1c3e:	f7fe fc60 	bl	502 <eliminiere_tos>
    1c42:	f7fe fc5e 	bl	502 <eliminiere_tos>
    1c46:	bd00      	pop	{pc}

00001c48 <Dictionary_387>:
    1c48:	00001c80 	andeq	r1, r0, r0, lsl #25
    1c4c:	68030220 	stmdavs	r3, {r5, r9}
    1c50:	cf03212b 	svcgt	0x0003212b

00001c52 <Code_387>:
    1c52:	cf03      	ldmia	r7!, {r0, r1}
    1c54:	8832      	ldrh	r2, [r6, #0]
    1c56:	1812      	adds	r2, r2, r0
    1c58:	8032      	strh	r2, [r6, #0]
    1c5a:	000e      	movs	r6, r1
    1c5c:	4770      	bx	lr
    1c5e:	b500      	push	{lr}
    1c60:	f7fe fd61 	bl	726 <expect_two_elements>
    1c64:	f7ff fa8e 	bl	1184 <dup_allocator>
    1c68:	f7ff ffa7 	bl	1bba <allocator_2fetch>
    1c6c:	f7ff fb15 	bl	129a <rot_allocator>
    1c70:	f000 fbb9 	bl	23e6 <plus_allocator>
    1c74:	f7ff fabc 	bl	11f0 <swap_allocator>
    1c78:	f7ff ffc3 	bl	1c02 <allocator_2store>
    1c7c:	bd00      	pop	{pc}
    1c7e:	46c0      	nop			; (mov r8, r8)

00001c80 <Dictionary_388>:
    1c80:	00001cc4 	andeq	r1, r0, r4, asr #25
    1c84:	63020220 	movwvs	r0, #8736	; 0x2220
    1c88:	78360040 	ldmdavc	r6!, {r6}

00001c8a <Code_388>:
    1c8a:	7836      	ldrb	r6, [r6, #0]
    1c8c:	4770      	bx	lr

00001c8e <allocator_1fetch>:
    1c8e:	b500      	push	{lr}
    1c90:	f7fe fd3f 	bl	712 <expect_one_element>
    1c94:	3f04      	subs	r7, #4
    1c96:	603e      	str	r6, [r7, #0]
    1c98:	4e32      	ldr	r6, [pc, #200]	; (1d64 <Code_394+0x3e>)
    1c9a:	6803      	ldr	r3, [r0, #0]
    1c9c:	2b28      	cmp	r3, #40	; 0x28
    1c9e:	d108      	bne.n	1cb2 <allocator_1fetch+0x24>
    1ca0:	6843      	ldr	r3, [r0, #4]
    1ca2:	211f      	movs	r1, #31
    1ca4:	4019      	ands	r1, r3
    1ca6:	0189      	lsls	r1, r1, #6
    1ca8:	430e      	orrs	r6, r1
    1caa:	211f      	movs	r1, #31
    1cac:	438b      	bics	r3, r1
    1cae:	f7fe fcb4 	bl	61a <generiere_adresskonstante>
    1cb2:	00db      	lsls	r3, r3, #3
    1cb4:	431e      	orrs	r6, r3
    1cb6:	f7fe fdb9 	bl	82c <tos_registerwechsel>
    1cba:	431e      	orrs	r6, r3
    1cbc:	f001 fcb9 	bl	3632 <Code_826>
    1cc0:	bd00      	pop	{pc}
    1cc2:	46c0      	nop			; (mov r8, r8)

00001cc4 <Dictionary_391>:
    1cc4:	00001d1c 	andeq	r1, r0, ip, lsl sp
    1cc8:	63020220 	movwvs	r0, #8736	; 0x2220
    1ccc:	cf030021 	svcgt	0x00030021

00001cce <Code_391>:
    1cce:	cf03      	ldmia	r7!, {r0, r1}
    1cd0:	7030      	strb	r0, [r6, #0]
    1cd2:	000e      	movs	r6, r1
    1cd4:	4770      	bx	lr

00001cd6 <allocator_1store>:
    1cd6:	b500      	push	{lr}
    1cd8:	f7fe fd25 	bl	726 <expect_two_elements>
    1cdc:	3f04      	subs	r7, #4
    1cde:	603e      	str	r6, [r7, #0]
    1ce0:	4e21      	ldr	r6, [pc, #132]	; (1d68 <Code_394+0x42>)
    1ce2:	6803      	ldr	r3, [r0, #0]
    1ce4:	2b28      	cmp	r3, #40	; 0x28
    1ce6:	d109      	bne.n	1cfc <allocator_1store+0x26>
    1ce8:	6843      	ldr	r3, [r0, #4]
    1cea:	211f      	movs	r1, #31
    1cec:	4019      	ands	r1, r3
    1cee:	0189      	lsls	r1, r1, #6
    1cf0:	430e      	orrs	r6, r1
    1cf2:	211f      	movs	r1, #31
    1cf4:	438b      	bics	r3, r1
    1cf6:	f7fe fc90 	bl	61a <generiere_adresskonstante>
    1cfa:	6003      	str	r3, [r0, #0]
    1cfc:	00db      	lsls	r3, r3, #3
    1cfe:	431e      	orrs	r6, r3
    1d00:	6883      	ldr	r3, [r0, #8]
    1d02:	2b28      	cmp	r3, #40	; 0x28
    1d04:	d102      	bne.n	1d0c <allocator_1store+0x36>
    1d06:	68c3      	ldr	r3, [r0, #12]
    1d08:	f7fe fc7b 	bl	602 <generiere_konstante>
    1d0c:	431e      	orrs	r6, r3
    1d0e:	f001 fc90 	bl	3632 <Code_826>
    1d12:	f7fe fbf6 	bl	502 <eliminiere_tos>
    1d16:	f7fe fbf4 	bl	502 <eliminiere_tos>
    1d1a:	bd00      	pop	{pc}

00001d1c <Dictionary_394>:
    1d1c:	00001d6c 	andeq	r1, r0, ip, ror #26
    1d20:	63030220 	movwvs	r0, #12832	; 0x3220
    1d24:	cf03212b 	svcgt	0x0003212b

00001d26 <Code_394>:
    1d26:	cf03      	ldmia	r7!, {r0, r1}
    1d28:	7832      	ldrb	r2, [r6, #0]
    1d2a:	1812      	adds	r2, r2, r0
    1d2c:	7032      	strb	r2, [r6, #0]
    1d2e:	000e      	movs	r6, r1
    1d30:	4770      	bx	lr
    1d32:	b500      	push	{lr}
    1d34:	f7fe fcf7 	bl	726 <expect_two_elements>
    1d38:	f7ff fa24 	bl	1184 <dup_allocator>
    1d3c:	f7ff ffa7 	bl	1c8e <allocator_1fetch>
    1d40:	f7ff faab 	bl	129a <rot_allocator>
    1d44:	f000 fb4f 	bl	23e6 <plus_allocator>
    1d48:	f7ff fa52 	bl	11f0 <swap_allocator>
    1d4c:	f7ff ffc3 	bl	1cd6 <allocator_1store>
    1d50:	bd00      	pop	{pc}
    1d52:	68000000 	stmdavs	r0, {}	; <UNPREDICTABLE>
    1d56:	60000000 	andvs	r0, r0, r0
    1d5a:	88000000 	stmdahi	r0, {}	; <UNPREDICTABLE>
    1d5e:	80000000 	andhi	r0, r0, r0
    1d62:	78000000 	stmdavc	r0, {}	; <UNPREDICTABLE>
    1d66:	70000000 	andvc	r0, r0, r0
	...

00001d6c <Dictionary_395>:
    1d6c:	00001dac 	andeq	r1, r0, ip, lsr #27
    1d70:	62040220 	andvs	r0, r4, #2
    1d74:	00217369 	eoreq	r7, r1, r9, ror #6

00001d78 <Code_395>:
    1d78:	cf03      	ldmia	r7!, {r0, r1}
    1d7a:	6832      	ldr	r2, [r6, #0]
    1d7c:	4302      	orrs	r2, r0
    1d7e:	6032      	str	r2, [r6, #0]
    1d80:	000e      	movs	r6, r1
    1d82:	4770      	bx	lr
    1d84:	b500      	push	{lr}
    1d86:	f7fe fcce 	bl	726 <expect_two_elements>
    1d8a:	f7ff f9fb 	bl	1184 <dup_allocator>
    1d8e:	f7ff feab 	bl	1ae8 <allocator_4fetch>
    1d92:	f7ff fa82 	bl	129a <rot_allocator>
    1d96:	3f04      	subs	r7, #4
    1d98:	603e      	str	r6, [r7, #0]
    1d9a:	4eab      	ldr	r6, [pc, #684]	; (2048 <Code_428+0x28>)
    1d9c:	f7ff fc27 	bl	15ee <alloc_kommutativ>
    1da0:	f7ff fa26 	bl	11f0 <swap_allocator>
    1da4:	f7ff fec2 	bl	1b2c <allocator_4store>
    1da8:	bd00      	pop	{pc}
    1daa:	46c0      	nop			; (mov r8, r8)

00001dac <Dictionary_398>:
    1dac:	00001dec 	andeq	r1, r0, ip, ror #27
    1db0:	62040220 	andvs	r0, r4, #2
    1db4:	00216369 	eoreq	r6, r1, r9, ror #6

00001db8 <Code_398>:
    1db8:	cf03      	ldmia	r7!, {r0, r1}
    1dba:	6832      	ldr	r2, [r6, #0]
    1dbc:	4382      	bics	r2, r0
    1dbe:	6032      	str	r2, [r6, #0]
    1dc0:	000e      	movs	r6, r1
    1dc2:	4770      	bx	lr
    1dc4:	b500      	push	{lr}
    1dc6:	f7fe fcae 	bl	726 <expect_two_elements>
    1dca:	f7ff f9db 	bl	1184 <dup_allocator>
    1dce:	f7ff fe8b 	bl	1ae8 <allocator_4fetch>
    1dd2:	f7ff fa62 	bl	129a <rot_allocator>
    1dd6:	3f04      	subs	r7, #4
    1dd8:	603e      	str	r6, [r7, #0]
    1dda:	4e9c      	ldr	r6, [pc, #624]	; (204c <Code_428+0x2c>)
    1ddc:	f7ff fc03 	bl	15e6 <alloc_unkommutativ>
    1de0:	f7ff fa06 	bl	11f0 <swap_allocator>
    1de4:	f7ff fea2 	bl	1b2c <allocator_4store>
    1de8:	bd00      	pop	{pc}
    1dea:	46c0      	nop			; (mov r8, r8)

00001dec <Dictionary_401>:
    1dec:	00001e2c 	andeq	r1, r0, ip, lsr #28
    1df0:	78040220 	stmdavc	r4, {r5, r9}
    1df4:	0021726f 	eoreq	r7, r1, pc, ror #4

00001df8 <Code_401>:
    1df8:	cf03      	ldmia	r7!, {r0, r1}
    1dfa:	6832      	ldr	r2, [r6, #0]
    1dfc:	4042      	eors	r2, r0
    1dfe:	6032      	str	r2, [r6, #0]
    1e00:	000e      	movs	r6, r1
    1e02:	4770      	bx	lr
    1e04:	b500      	push	{lr}
    1e06:	f7fe fc8e 	bl	726 <expect_two_elements>
    1e0a:	f7ff f9bb 	bl	1184 <dup_allocator>
    1e0e:	f7ff fe6b 	bl	1ae8 <allocator_4fetch>
    1e12:	f7ff fa42 	bl	129a <rot_allocator>
    1e16:	3f04      	subs	r7, #4
    1e18:	603e      	str	r6, [r7, #0]
    1e1a:	4e8d      	ldr	r6, [pc, #564]	; (2050 <Code_428+0x30>)
    1e1c:	f7ff fbe7 	bl	15ee <alloc_kommutativ>
    1e20:	f7ff f9e6 	bl	11f0 <swap_allocator>
    1e24:	f7ff fe82 	bl	1b2c <allocator_4store>
    1e28:	bd00      	pop	{pc}
    1e2a:	46c0      	nop			; (mov r8, r8)

00001e2c <Dictionary_404>:
    1e2c:	00001e60 	andeq	r1, r0, r0, ror #28
    1e30:	62040220 	andvs	r0, r4, #2
    1e34:	00407469 	subeq	r7, r0, r9, ror #8

00001e38 <Code_404>:
    1e38:	cf01      	ldmia	r7!, {r0}
    1e3a:	6836      	ldr	r6, [r6, #0]
    1e3c:	4006      	ands	r6, r0
    1e3e:	3e01      	subs	r6, #1
    1e40:	41b6      	sbcs	r6, r6
    1e42:	43f6      	mvns	r6, r6
    1e44:	4770      	bx	lr
    1e46:	b500      	push	{lr}
    1e48:	f7fe fc6d 	bl	726 <expect_two_elements>
    1e4c:	f7ff fe4c 	bl	1ae8 <allocator_4fetch>
    1e50:	3f04      	subs	r7, #4
    1e52:	603e      	str	r6, [r7, #0]
    1e54:	4e7f      	ldr	r6, [pc, #508]	; (2054 <Code_428+0x34>)
    1e56:	f7ff fbca 	bl	15ee <alloc_kommutativ>
    1e5a:	f7ff fc16 	bl	168a <allocator_unequal_zero>
    1e5e:	bd00      	pop	{pc}

00001e60 <Dictionary_407>:
    1e60:	00001ea0 	andeq	r1, r0, r0, lsr #29
    1e64:	68050220 	stmdavs	r5, {r5, r9}
    1e68:	21736962 	cmncs	r3, r2, ror #18

00001e6c <Code_407>:
    1e6c:	cf03      	ldmia	r7!, {r0, r1}
    1e6e:	8832      	ldrh	r2, [r6, #0]
    1e70:	4302      	orrs	r2, r0
    1e72:	8032      	strh	r2, [r6, #0]
    1e74:	000e      	movs	r6, r1
    1e76:	4770      	bx	lr
    1e78:	b500      	push	{lr}
    1e7a:	f7fe fc54 	bl	726 <expect_two_elements>
    1e7e:	f7ff f981 	bl	1184 <dup_allocator>
    1e82:	f7ff fe9a 	bl	1bba <allocator_2fetch>
    1e86:	f7ff fa08 	bl	129a <rot_allocator>
    1e8a:	3f04      	subs	r7, #4
    1e8c:	603e      	str	r6, [r7, #0]
    1e8e:	4e6e      	ldr	r6, [pc, #440]	; (2048 <Code_428+0x28>)
    1e90:	f7ff fbad 	bl	15ee <alloc_kommutativ>
    1e94:	f7ff f9ac 	bl	11f0 <swap_allocator>
    1e98:	f7ff feb3 	bl	1c02 <allocator_2store>
    1e9c:	bd00      	pop	{pc}
    1e9e:	46c0      	nop			; (mov r8, r8)

00001ea0 <Dictionary_410>:
    1ea0:	00001ee0 	andeq	r1, r0, r0, ror #29
    1ea4:	68050220 	stmdavs	r5, {r5, r9}
    1ea8:	21636962 	cmncs	r3, r2, ror #18

00001eac <Code_410>:
    1eac:	cf03      	ldmia	r7!, {r0, r1}
    1eae:	8832      	ldrh	r2, [r6, #0]
    1eb0:	4382      	bics	r2, r0
    1eb2:	8032      	strh	r2, [r6, #0]
    1eb4:	000e      	movs	r6, r1
    1eb6:	4770      	bx	lr
    1eb8:	b500      	push	{lr}
    1eba:	f7fe fc34 	bl	726 <expect_two_elements>
    1ebe:	f7ff f961 	bl	1184 <dup_allocator>
    1ec2:	f7ff fe7a 	bl	1bba <allocator_2fetch>
    1ec6:	f7ff f9e8 	bl	129a <rot_allocator>
    1eca:	3f04      	subs	r7, #4
    1ecc:	603e      	str	r6, [r7, #0]
    1ece:	4e5f      	ldr	r6, [pc, #380]	; (204c <Code_428+0x2c>)
    1ed0:	f7ff fb89 	bl	15e6 <alloc_unkommutativ>
    1ed4:	f7ff f98c 	bl	11f0 <swap_allocator>
    1ed8:	f7ff fe93 	bl	1c02 <allocator_2store>
    1edc:	bd00      	pop	{pc}
    1ede:	46c0      	nop			; (mov r8, r8)

00001ee0 <Dictionary_413>:
    1ee0:	00001f20 	andeq	r1, r0, r0, lsr #30
    1ee4:	68050220 	stmdavs	r5, {r5, r9}
    1ee8:	21726f78 	cmncs	r2, r8, ror pc

00001eec <Code_413>:
    1eec:	cf03      	ldmia	r7!, {r0, r1}
    1eee:	8832      	ldrh	r2, [r6, #0]
    1ef0:	4042      	eors	r2, r0
    1ef2:	8032      	strh	r2, [r6, #0]
    1ef4:	000e      	movs	r6, r1
    1ef6:	4770      	bx	lr
    1ef8:	b500      	push	{lr}
    1efa:	f7fe fc14 	bl	726 <expect_two_elements>
    1efe:	f7ff f941 	bl	1184 <dup_allocator>
    1f02:	f7ff fe5a 	bl	1bba <allocator_2fetch>
    1f06:	f7ff f9c8 	bl	129a <rot_allocator>
    1f0a:	3f04      	subs	r7, #4
    1f0c:	603e      	str	r6, [r7, #0]
    1f0e:	4e50      	ldr	r6, [pc, #320]	; (2050 <Code_428+0x30>)
    1f10:	f7ff fb6d 	bl	15ee <alloc_kommutativ>
    1f14:	f7ff f96c 	bl	11f0 <swap_allocator>
    1f18:	f7ff fe73 	bl	1c02 <allocator_2store>
    1f1c:	bd00      	pop	{pc}
    1f1e:	46c0      	nop			; (mov r8, r8)

00001f20 <Dictionary_416>:
    1f20:	00001f54 	andeq	r1, r0, r4, asr pc
    1f24:	68050220 	stmdavs	r5, {r5, r9}
    1f28:	40746962 	rsbsmi	r6, r4, r2, ror #18

00001f2c <Code_416>:
    1f2c:	cf01      	ldmia	r7!, {r0}
    1f2e:	8836      	ldrh	r6, [r6, #0]
    1f30:	4006      	ands	r6, r0
    1f32:	3e01      	subs	r6, #1
    1f34:	41b6      	sbcs	r6, r6
    1f36:	43f6      	mvns	r6, r6
    1f38:	4770      	bx	lr
    1f3a:	b500      	push	{lr}
    1f3c:	f7fe fbf3 	bl	726 <expect_two_elements>
    1f40:	f7ff fe3b 	bl	1bba <allocator_2fetch>
    1f44:	3f04      	subs	r7, #4
    1f46:	603e      	str	r6, [r7, #0]
    1f48:	4e42      	ldr	r6, [pc, #264]	; (2054 <Code_428+0x34>)
    1f4a:	f7ff fb50 	bl	15ee <alloc_kommutativ>
    1f4e:	f7ff fb9c 	bl	168a <allocator_unequal_zero>
    1f52:	bd00      	pop	{pc}

00001f54 <Dictionary_419>:
    1f54:	00001f94 	muleq	r0, r4, pc	; <UNPREDICTABLE>
    1f58:	63050220 	movwvs	r0, #21024	; 0x5220
    1f5c:	21736962 	cmncs	r3, r2, ror #18

00001f60 <Code_419>:
    1f60:	cf03      	ldmia	r7!, {r0, r1}
    1f62:	7832      	ldrb	r2, [r6, #0]
    1f64:	4302      	orrs	r2, r0
    1f66:	7032      	strb	r2, [r6, #0]
    1f68:	000e      	movs	r6, r1
    1f6a:	4770      	bx	lr
    1f6c:	b500      	push	{lr}
    1f6e:	f7fe fbda 	bl	726 <expect_two_elements>
    1f72:	f7ff f907 	bl	1184 <dup_allocator>
    1f76:	f7ff fe8a 	bl	1c8e <allocator_1fetch>
    1f7a:	f7ff f98e 	bl	129a <rot_allocator>
    1f7e:	3f04      	subs	r7, #4
    1f80:	603e      	str	r6, [r7, #0]
    1f82:	4e31      	ldr	r6, [pc, #196]	; (2048 <Code_428+0x28>)
    1f84:	f7ff fb33 	bl	15ee <alloc_kommutativ>
    1f88:	f7ff f932 	bl	11f0 <swap_allocator>
    1f8c:	f7ff fea3 	bl	1cd6 <allocator_1store>
    1f90:	bd00      	pop	{pc}
    1f92:	46c0      	nop			; (mov r8, r8)

00001f94 <Dictionary_422>:
    1f94:	00001fd4 	ldrdeq	r1, [r0], -r4
    1f98:	63050220 	movwvs	r0, #21024	; 0x5220
    1f9c:	21636962 	cmncs	r3, r2, ror #18

00001fa0 <Code_422>:
    1fa0:	cf03      	ldmia	r7!, {r0, r1}
    1fa2:	7832      	ldrb	r2, [r6, #0]
    1fa4:	4382      	bics	r2, r0
    1fa6:	7032      	strb	r2, [r6, #0]
    1fa8:	000e      	movs	r6, r1
    1faa:	4770      	bx	lr
    1fac:	b500      	push	{lr}
    1fae:	f7fe fbba 	bl	726 <expect_two_elements>
    1fb2:	f7ff f8e7 	bl	1184 <dup_allocator>
    1fb6:	f7ff fe6a 	bl	1c8e <allocator_1fetch>
    1fba:	f7ff f96e 	bl	129a <rot_allocator>
    1fbe:	3f04      	subs	r7, #4
    1fc0:	603e      	str	r6, [r7, #0]
    1fc2:	4e22      	ldr	r6, [pc, #136]	; (204c <Code_428+0x2c>)
    1fc4:	f7ff fb0f 	bl	15e6 <alloc_unkommutativ>
    1fc8:	f7ff f912 	bl	11f0 <swap_allocator>
    1fcc:	f7ff fe83 	bl	1cd6 <allocator_1store>
    1fd0:	bd00      	pop	{pc}
    1fd2:	46c0      	nop			; (mov r8, r8)

00001fd4 <Dictionary_425>:
    1fd4:	00002014 	andeq	r2, r0, r4, lsl r0
    1fd8:	63050220 	movwvs	r0, #21024	; 0x5220
    1fdc:	21726f78 	cmncs	r2, r8, ror pc

00001fe0 <Code_425>:
    1fe0:	cf03      	ldmia	r7!, {r0, r1}
    1fe2:	7832      	ldrb	r2, [r6, #0]
    1fe4:	4042      	eors	r2, r0
    1fe6:	7032      	strb	r2, [r6, #0]
    1fe8:	000e      	movs	r6, r1
    1fea:	4770      	bx	lr
    1fec:	b500      	push	{lr}
    1fee:	f7fe fb9a 	bl	726 <expect_two_elements>
    1ff2:	f7ff f8c7 	bl	1184 <dup_allocator>
    1ff6:	f7ff fe4a 	bl	1c8e <allocator_1fetch>
    1ffa:	f7ff f94e 	bl	129a <rot_allocator>
    1ffe:	3f04      	subs	r7, #4
    2000:	603e      	str	r6, [r7, #0]
    2002:	4e13      	ldr	r6, [pc, #76]	; (2050 <Code_428+0x30>)
    2004:	f7ff faf3 	bl	15ee <alloc_kommutativ>
    2008:	f7ff f8f2 	bl	11f0 <swap_allocator>
    200c:	f7ff fe63 	bl	1cd6 <allocator_1store>
    2010:	bd00      	pop	{pc}
    2012:	46c0      	nop			; (mov r8, r8)

00002014 <Dictionary_428>:
    2014:	00002058 	andeq	r2, r0, r8, asr r0
    2018:	63050220 	movwvs	r0, #21024	; 0x5220
    201c:	40746962 	rsbsmi	r6, r4, r2, ror #18

00002020 <Code_428>:
    2020:	cf01      	ldmia	r7!, {r0}
    2022:	7836      	ldrb	r6, [r6, #0]
    2024:	4006      	ands	r6, r0
    2026:	3e01      	subs	r6, #1
    2028:	41b6      	sbcs	r6, r6
    202a:	43f6      	mvns	r6, r6
    202c:	4770      	bx	lr
    202e:	b500      	push	{lr}
    2030:	f7fe fb79 	bl	726 <expect_two_elements>
    2034:	f7ff fe2b 	bl	1c8e <allocator_1fetch>
    2038:	3f04      	subs	r7, #4
    203a:	603e      	str	r6, [r7, #0]
    203c:	4e05      	ldr	r6, [pc, #20]	; (2054 <Code_428+0x34>)
    203e:	f7ff fad6 	bl	15ee <alloc_kommutativ>
    2042:	f7ff fb22 	bl	168a <allocator_unequal_zero>
    2046:	bd00      	pop	{pc}
    2048:	00004300 	andeq	r4, r0, r0, lsl #6
    204c:	00004380 	andeq	r4, r0, r0, lsl #7
    2050:	00004040 	andeq	r4, r0, r0, asr #32
    2054:	00004000 	andeq	r4, r0, r0

00002058 <Dictionary_431>:
    2058:	00002168 	andeq	r2, r0, r8, ror #2
    205c:	66060000 	strvs	r0, [r6], -r0
    2060:	6873616c 	ldmdavs	r3!, {r2, r3, r5, r6, r8, sp, lr}^
    2064:	00300021 	eorseq	r0, r0, r1, lsr #32

00002066 <Code_431>:
    2066:	0030      	movs	r0, r6
    2068:	cf40      	ldmia	r7!, {r6}
    206a:	0031      	movs	r1, r6
    206c:	cf40      	ldmia	r7!, {r6}
    206e:	4b85      	ldr	r3, [pc, #532]	; (2284 <Code_448+0x6>)
    2070:	4298      	cmp	r0, r3
    2072:	d368      	bcc.n	2146 <Code_431+0xe0>
    2074:	4b84      	ldr	r3, [pc, #528]	; (2288 <Code_448+0xa>)
    2076:	4299      	cmp	r1, r3
    2078:	d02e      	beq.n	20d8 <Code_431+0x72>
    207a:	2203      	movs	r2, #3
    207c:	4002      	ands	r2, r0
    207e:	d12c      	bne.n	20da <Code_431+0x74>
    2080:	6802      	ldr	r2, [r0, #0]
    2082:	429a      	cmp	r2, r3
    2084:	d146      	bne.n	2114 <Code_431+0xae>
    2086:	4a81      	ldr	r2, [pc, #516]	; (228c <Code_448+0xe>)
    2088:	7813      	ldrb	r3, [r2, #0]
    208a:	2280      	movs	r2, #128	; 0x80
    208c:	401a      	ands	r2, r3
    208e:	d0fa      	beq.n	2086 <Code_431+0x20>
    2090:	2230      	movs	r2, #48	; 0x30
    2092:	401a      	ands	r2, r3
    2094:	d002      	beq.n	209c <Code_431+0x36>
    2096:	4a7d      	ldr	r2, [pc, #500]	; (228c <Code_448+0xe>)
    2098:	2330      	movs	r3, #48	; 0x30
    209a:	7013      	strb	r3, [r2, #0]
    209c:	4a7c      	ldr	r2, [pc, #496]	; (2290 <Code_448+0x12>)
    209e:	2306      	movs	r3, #6
    20a0:	7013      	strb	r3, [r2, #0]
    20a2:	4a7c      	ldr	r2, [pc, #496]	; (2294 <Code_448+0x16>)
    20a4:	7010      	strb	r0, [r2, #0]
    20a6:	0a00      	lsrs	r0, r0, #8
    20a8:	4a7b      	ldr	r2, [pc, #492]	; (2298 <Code_448+0x1a>)
    20aa:	7010      	strb	r0, [r2, #0]
    20ac:	0a00      	lsrs	r0, r0, #8
    20ae:	4a7b      	ldr	r2, [pc, #492]	; (229c <Code_448+0x1e>)
    20b0:	7010      	strb	r0, [r2, #0]
    20b2:	4a7b      	ldr	r2, [pc, #492]	; (22a0 <Code_448+0x22>)
    20b4:	7011      	strb	r1, [r2, #0]
    20b6:	0a09      	lsrs	r1, r1, #8
    20b8:	4a7a      	ldr	r2, [pc, #488]	; (22a4 <Code_448+0x26>)
    20ba:	7011      	strb	r1, [r2, #0]
    20bc:	0a09      	lsrs	r1, r1, #8
    20be:	4a7a      	ldr	r2, [pc, #488]	; (22a8 <Code_448+0x2a>)
    20c0:	7011      	strb	r1, [r2, #0]
    20c2:	0a09      	lsrs	r1, r1, #8
    20c4:	4a79      	ldr	r2, [pc, #484]	; (22ac <Code_448+0x2e>)
    20c6:	7011      	strb	r1, [r2, #0]
    20c8:	4a70      	ldr	r2, [pc, #448]	; (228c <Code_448+0xe>)
    20ca:	2380      	movs	r3, #128	; 0x80
    20cc:	7013      	strb	r3, [r2, #0]
    20ce:	4a6f      	ldr	r2, [pc, #444]	; (228c <Code_448+0xe>)
    20d0:	7813      	ldrb	r3, [r2, #0]
    20d2:	2280      	movs	r2, #128	; 0x80
    20d4:	401a      	ands	r2, r3
    20d6:	d0fa      	beq.n	20ce <Code_431+0x68>
    20d8:	4770      	bx	lr
    20da:	f000 fdb9 	bl	2c50 <dotgaensefuesschen>
    20de:	64644130 	strbtvs	r4, [r4], #-304	; 0x130
    20e2:	73736572 	cmnvc	r3, #478150656	; 0x1c800000
    20e6:	73616820 	cmnvc	r1, #2097152	; 0x200000
    20ea:	206f7420 	rsbcs	r7, pc, r0, lsr #8
    20ee:	34206562 	strtcc	r6, [r0], #-1378	; 0x562
    20f2:	696c612d 	stmdbvs	ip!, {r0, r2, r3, r5, r8, sp, lr}^
    20f6:	64656e67 	strbtvs	r6, [r5], #-3687	; 0xe67
    20fa:	726f6620 	rsbvc	r6, pc, #33554432	; 0x2000000
    20fe:	69727720 	ldmdbvs	r2!, {r5, r8, r9, sl, ip, sp, lr}^
    2102:	676e6974 			; <UNDEFINED> instruction: 0x676e6974
    2106:	616c6620 	cmnvs	ip, r0, lsr #12
    210a:	21206873 	teqcs	r0, r3, ror r8
    210e:	f002000a 			; <UNDEFINED> instruction: 0xf002000a
    2112:	fd06 f000 	stc2	0, cr15, [r6]
    2116:	fd9c 4629 	ldc2	6, cr4, [ip, #164]	; 0xa4
    211a:	6873616c 	ldmdavs	r3!, {r2, r3, r5, r6, r8, sp, lr}^
    211e:	636f6c20 	cmnvs	pc, #8192	; 0x2000
    2122:	6f697461 	svcvs	0x00697461
    2126:	6163206e 	cmnvs	r3, lr, rrx
    212a:	746f6e6e 	strbtvc	r6, [pc], #-3694	; 2132 <Code_431+0xcc>
    212e:	20656220 	rsbcs	r6, r5, r0, lsr #4
    2132:	74697277 	strbtvc	r7, [r9], #-631	; 0x277
    2136:	206e6574 	rsbcs	r6, lr, r4, ror r5
    213a:	63697774 	cmnvs	r9, #30408704	; 0x1d00000
    213e:	0a212065 	beq	84a2da <BIT23+0x4a2da>
    2142:	f002 fced 	bl	4b20 <Code_1235>
    2146:	f000 fd83 	bl	2c50 <dotgaensefuesschen>
    214a:	6e614319 	mcrvs	3, 3, r4, cr1, cr9, {0}
    214e:	20746f6e 	rsbscs	r6, r4, lr, ror #30
    2152:	74697277 	strbtvc	r7, [r9], #-631	; 0x277
    2156:	6e692065 	cdpvs	0, 6, cr2, cr9, cr5, {3}
    215a:	63206f74 	teqvs	r0, #464	; 0x1d0
    215e:	2065726f 	rsbcs	r7, r5, pc, ror #4
    2162:	f0020a21 			; <UNDEFINED> instruction: 0xf0020a21
    2166:	fcdc 21ec 	ldc2l	1, cr2, [ip], {236}	; 0xec

00002168 <Dictionary_437>:
    2168:	000021ec 	andeq	r2, r0, ip, ror #3
    216c:	660e0000 	strvs	r0, [lr], -r0
    2170:	6873616c 	ldmdavs	r3!, {r2, r3, r5, r6, r8, sp, lr}^
    2174:	65676170 	strbvs	r6, [r7, #-368]!	; 0x170
    2178:	73617265 	cmnvc	r1, #1342177286	; 0x50000006
    217c:	b50f0065 	strlt	r0, [pc, #-101]	; 211f <Code_431+0xb9>

0000217e <Code_437>:
    217e:	b50f      	push	{r0, r1, r2, r3, lr}
    2180:	0030      	movs	r0, r6
    2182:	cf40      	ldmia	r7!, {r6}
    2184:	4b3f      	ldr	r3, [pc, #252]	; (2284 <Code_448+0x6>)
    2186:	4298      	cmp	r0, r3
    2188:	d320      	bcc.n	21cc <Code_437+0x4e>
    218a:	2303      	movs	r3, #3
    218c:	4398      	bics	r0, r3
    218e:	4a3f      	ldr	r2, [pc, #252]	; (228c <Code_448+0xe>)
    2190:	7813      	ldrb	r3, [r2, #0]
    2192:	2280      	movs	r2, #128	; 0x80
    2194:	401a      	ands	r2, r3
    2196:	d0fa      	beq.n	218e <Code_437+0x10>
    2198:	2230      	movs	r2, #48	; 0x30
    219a:	401a      	ands	r2, r3
    219c:	d002      	beq.n	21a4 <Code_437+0x26>
    219e:	4a3b      	ldr	r2, [pc, #236]	; (228c <Code_448+0xe>)
    21a0:	2330      	movs	r3, #48	; 0x30
    21a2:	7013      	strb	r3, [r2, #0]
    21a4:	4a3a      	ldr	r2, [pc, #232]	; (2290 <Code_448+0x12>)
    21a6:	2309      	movs	r3, #9
    21a8:	7013      	strb	r3, [r2, #0]
    21aa:	4a3a      	ldr	r2, [pc, #232]	; (2294 <Code_448+0x16>)
    21ac:	7010      	strb	r0, [r2, #0]
    21ae:	0a00      	lsrs	r0, r0, #8
    21b0:	4a39      	ldr	r2, [pc, #228]	; (2298 <Code_448+0x1a>)
    21b2:	7010      	strb	r0, [r2, #0]
    21b4:	0a00      	lsrs	r0, r0, #8
    21b6:	4a39      	ldr	r2, [pc, #228]	; (229c <Code_448+0x1e>)
    21b8:	7010      	strb	r0, [r2, #0]
    21ba:	4a34      	ldr	r2, [pc, #208]	; (228c <Code_448+0xe>)
    21bc:	2380      	movs	r3, #128	; 0x80
    21be:	7013      	strb	r3, [r2, #0]
    21c0:	4a32      	ldr	r2, [pc, #200]	; (228c <Code_448+0xe>)
    21c2:	7813      	ldrb	r3, [r2, #0]
    21c4:	2280      	movs	r2, #128	; 0x80
    21c6:	401a      	ands	r2, r3
    21c8:	d0fa      	beq.n	21c0 <Code_437+0x42>
    21ca:	bd0f      	pop	{r0, r1, r2, r3, pc}
    21cc:	f000 fd40 	bl	2c50 <dotgaensefuesschen>
    21d0:	6e614314 	mcrvs	3, 3, r4, cr1, cr4, {0}
    21d4:	20746f6e 	rsbscs	r6, r4, lr, ror #30
    21d8:	73617265 	cmnvc	r1, #1342177286	; 0x50000006
    21dc:	6f632065 	svcvs	0x00632065
    21e0:	21206572 	teqcs	r0, r2, ror r5
    21e4:	f002000a 			; <UNDEFINED> instruction: 0xf002000a
    21e8:	fc9b 46c0 	ldc2	6, cr4, [fp], {192}	; 0xc0

000021ec <Dictionary_440>:
    21ec:	00002268 	andeq	r2, r0, r8, ror #4
    21f0:	650a0000 	strvs	r0, [sl]
    21f4:	65736172 	ldrbvs	r6, [r3, #-370]!	; 0x172
    21f8:	73616c66 	cmnvc	r1, #26112	; 0x6600
    21fc:	48210068 	stmdami	r1!, {r3, r5, r6}

000021fe <Code_440>:
    21fe:	4821      	ldr	r0, [pc, #132]	; (2284 <Code_448+0x6>)

00002200 <eraseflash_intern>:
    2200:	b672      	cpsid	i
    2202:	492b      	ldr	r1, [pc, #172]	; (22b0 <Code_448+0x32>)
    2204:	4a2b      	ldr	r2, [pc, #172]	; (22b4 <Code_448+0x36>)
    2206:	6803      	ldr	r3, [r0, #0]
    2208:	4293      	cmp	r3, r2
    220a:	d01c      	beq.n	2246 <eraseflash_intern+0x46>
    220c:	3f04      	subs	r7, #4
    220e:	603e      	str	r6, [r7, #0]
    2210:	0006      	movs	r6, r0
    2212:	3f04      	subs	r7, #4
    2214:	603e      	str	r6, [r7, #0]
    2216:	f000 fd1b 	bl	2c50 <dotgaensefuesschen>
    221a:	61724510 	cmnvs	r2, r0, lsl r5
    221e:	62206573 	eorvs	r6, r0, #482344960	; 0x1cc00000
    2222:	6b636f6c 	blvs	18ddfda <BIT24+0x8ddfda>
    2226:	20746120 	rsbscs	r6, r4, r0, lsr #2
    222a:	f0000020 			; <UNDEFINED> instruction: 0xf0000020
    222e:	fd88 f000 	stc2	0, cr15, [r8]
    2232:	fd0e 200c 	stc2	0, cr2, [lr, #-48]	; 0xffffffd0
    2236:	6d6f7266 	sfmvs	f7, 2, [pc, #-408]!	; 20a4 <Code_431+0x3e>
    223a:	616c4620 	cmnvs	ip, r0, lsr #12
    223e:	000a6873 	andeq	r6, sl, r3, ror r8
    2242:	f7ff ff9c 	bl	217e <Code_437>
    2246:	3004      	adds	r0, #4
    2248:	4288      	cmp	r0, r1
    224a:	d1dc      	bne.n	2206 <eraseflash_intern+0x6>
    224c:	f000 fd00 	bl	2c50 <dotgaensefuesschen>
    2250:	6e694612 	mcrvs	6, 3, r4, cr9, cr2, {0}
    2254:	65687369 	strbvs	r7, [r8, #-873]!	; 0x369
    2258:	52202e64 	eorpl	r2, r0, #1600	; 0x640
    225c:	74657365 	strbtvc	r7, [r5], #-869	; 0x365
    2260:	000a2120 	andeq	r2, sl, r0, lsr #2
    2264:	f002 fcfa 	bl	4c5c <Code_1248>

00002268 <Dictionary_448>:
    2268:	00002300 	andeq	r2, r0, r0, lsl #6
    226c:	650e0000 	strvs	r0, [lr]
    2270:	65736172 	ldrbvs	r6, [r3, #-370]!	; 0x172
    2274:	73616c66 	cmnvc	r1, #26112	; 0x6600
    2278:	6f726668 	svcvs	0x00726668
    227c:	0030006d 	eorseq	r0, r0, sp, rrx

0000227e <Code_448>:
    227e:	0030      	movs	r0, r6
    2280:	cf40      	ldmia	r7!, {r6}
    2282:	e7bd      	b.n	2200 <eraseflash_intern>
    2284:	00005000 	andeq	r5, r0, r0
    2288:	ffffffff 			; <UNDEFINED> instruction: 0xffffffff
    228c:	40020000 	andmi	r0, r2, r0
    2290:	40020007 	andmi	r0, r2, r7
    2294:	40020004 	andmi	r0, r2, r4
    2298:	40020005 	andmi	r0, r2, r5
    229c:	40020006 	andmi	r0, r2, r6
    22a0:	40020008 	andmi	r0, r2, r8
    22a4:	40020009 	andmi	r0, r2, r9
    22a8:	4002000a 	andmi	r0, r2, sl
    22ac:	4002000b 	andmi	r0, r2, fp
    22b0:	00020000 	andeq	r0, r2, r0
    22b4:	ffffffff 			; <UNDEFINED> instruction: 0xffffffff

000022b8 <sammeltabelleleeren>:
    22b8:	4846      	ldr	r0, [pc, #280]	; (23d4 <hflashstoreemulation_gefunden+0x2a>)
    22ba:	2160      	movs	r1, #96	; 0x60
    22bc:	2200      	movs	r2, #0
    22be:	8002      	strh	r2, [r0, #0]
    22c0:	3002      	adds	r0, #2
    22c2:	3901      	subs	r1, #1
    22c4:	d1fb      	bne.n	22be <sammeltabelleleeren+0x6>
    22c6:	4770      	bx	lr

000022c8 <sammeltabelleleerprobe>:
    22c8:	4842      	ldr	r0, [pc, #264]	; (23d4 <hflashstoreemulation_gefunden+0x2a>)
    22ca:	2160      	movs	r1, #96	; 0x60
    22cc:	8802      	ldrh	r2, [r0, #0]
    22ce:	2a00      	cmp	r2, #0
    22d0:	d012      	beq.n	22f8 <sammeltabelleleerprobe+0x30>
    22d2:	f000 fcbd 	bl	2c50 <dotgaensefuesschen>
    22d6:	706e551d 	rsbvc	r5, lr, sp, lsl r5
    22da:	65726961 	ldrbvs	r6, [r2, #-2401]!	; 0x961
    22de:	36312064 	ldrtcc	r2, [r1], -r4, rrx
    22e2:	7469622d 	strbtvc	r6, [r9], #-557	; 0x22d
    22e6:	616c4620 	cmnvs	ip, r0, lsr #12
    22ea:	77206873 			; <UNDEFINED> instruction: 0x77206873
    22ee:	65746972 	ldrbvs	r6, [r4, #-2418]!	; 0x972
    22f2:	f0020a2e 			; <UNDEFINED> instruction: 0xf0020a2e
    22f6:	fc14 3002 	ldc2	0, cr3, [r4], {2}
    22fa:	3901      	subs	r1, #1
    22fc:	d1e6      	bne.n	22cc <sammeltabelleleerprobe+0x4>
    22fe:	4770      	bx	lr

00002300 <Dictionary_451>:
    2300:	000023d8 	ldrdeq	r2, [r0], -r8
    2304:	68070000 	stmdavs	r7, {}	; <UNPREDICTABLE>
    2308:	73616c66 	cmnvc	r1, #26112	; 0x6600
    230c:	b5302168 	ldrlt	r2, [r0, #-360]!	; 0x168

0000230e <Code_451>:
    230e:	b530      	push	{r4, r5, lr}
    2310:	0032      	movs	r2, r6
    2312:	cf40      	ldmia	r7!, {r6}
    2314:	0850      	lsrs	r0, r2, #1
    2316:	d313      	bcc.n	2340 <Code_451+0x32>
    2318:	f000 fc9a 	bl	2c50 <dotgaensefuesschen>
    231c:	6c66681e 	stclvs	8, cr6, [r6], #-120	; 0xffffff88
    2320:	21687361 	cmncs	r8, r1, ror #6
    2324:	65656e20 	strbvs	r6, [r5, #-3616]!	; 0xe20
    2328:	65207364 	strvs	r7, [r0, #-868]!	; 0x364
    232c:	206e6576 	rsbcs	r6, lr, r6, ror r5
    2330:	72646461 	rsbvc	r6, r4, #1627389952	; 0x61000000
    2334:	65737365 	ldrbvs	r7, [r3, #-869]!	; 0x365
    2338:	000a2e73 	andeq	r2, sl, r3, ror lr
    233c:	f002 fbf0 	bl	4b20 <Code_1235>
    2340:	2302      	movs	r3, #2
    2342:	4053      	eors	r3, r2
    2344:	4823      	ldr	r0, [pc, #140]	; (23d4 <hflashstoreemulation_gefunden+0x2a>)
    2346:	2120      	movs	r1, #32
    2348:	8804      	ldrh	r4, [r0, #0]
    234a:	8845      	ldrh	r5, [r0, #2]
    234c:	042d      	lsls	r5, r5, #16
    234e:	432c      	orrs	r4, r5
    2350:	429c      	cmp	r4, r3
    2352:	d02a      	beq.n	23aa <hflashstoreemulation_gefunden>
    2354:	3006      	adds	r0, #6
    2356:	3901      	subs	r1, #1
    2358:	d1f6      	bne.n	2348 <Code_451+0x3a>
    235a:	481e      	ldr	r0, [pc, #120]	; (23d4 <hflashstoreemulation_gefunden+0x2a>)
    235c:	2120      	movs	r1, #32
    235e:	8804      	ldrh	r4, [r0, #0]
    2360:	8845      	ldrh	r5, [r0, #2]
    2362:	042d      	lsls	r5, r5, #16
    2364:	432c      	orrs	r4, r5
    2366:	d01a      	beq.n	239e <hflashstoreemulation_leerestelle>
    2368:	3006      	adds	r0, #6
    236a:	3901      	subs	r1, #1
    236c:	d1f7      	bne.n	235e <Code_451+0x50>
    236e:	f000 fc6f 	bl	2c50 <dotgaensefuesschen>
    2372:	6f6f5427 	svcvs	0x006f5427
    2376:	6e616d20 	cdpvs	13, 6, cr6, cr1, cr0, {1}
    237a:	6e752079 	mrcvs	0, 3, r2, cr5, cr9, {3}
    237e:	72696170 	rsbvc	r6, r9, #28
    2382:	31206465 	teqcc	r0, r5, ror #8
    2386:	69622d36 	stmdbvs	r2!, {r1, r2, r4, r5, r8, sl, fp, sp}^
    238a:	6c462074 	mcrrvs	0, 7, r2, r6, cr4
    238e:	20687361 	rsbcs	r7, r8, r1, ror #6
    2392:	74697277 	strbtvc	r7, [r9], #-631	; 0x277
    2396:	0a2e7365 	beq	b9f132 <BIT23+0x39f132>
    239a:	f002 fbc1 	bl	4b20 <Code_1235>

0000239e <hflashstoreemulation_leerestelle>:
    239e:	8002      	strh	r2, [r0, #0]
    23a0:	0c12      	lsrs	r2, r2, #16
    23a2:	8042      	strh	r2, [r0, #2]
    23a4:	8086      	strh	r6, [r0, #4]
    23a6:	cf40      	ldmia	r7!, {r6}
    23a8:	bd30      	pop	{r4, r5, pc}

000023aa <hflashstoreemulation_gefunden>:
    23aa:	2102      	movs	r1, #2
    23ac:	4011      	ands	r1, r2
    23ae:	d003      	beq.n	23b8 <hflashstoreemulation_gefunden+0xe>
    23b0:	3a02      	subs	r2, #2
    23b2:	8881      	ldrh	r1, [r0, #4]
    23b4:	0436      	lsls	r6, r6, #16
    23b6:	e001      	b.n	23bc <hflashstoreemulation_gefunden+0x12>
    23b8:	8881      	ldrh	r1, [r0, #4]
    23ba:	0409      	lsls	r1, r1, #16
    23bc:	430e      	orrs	r6, r1
    23be:	3f04      	subs	r7, #4
    23c0:	603e      	str	r6, [r7, #0]
    23c2:	0016      	movs	r6, r2
    23c4:	2100      	movs	r1, #0
    23c6:	8001      	strh	r1, [r0, #0]
    23c8:	8041      	strh	r1, [r0, #2]
    23ca:	8081      	strh	r1, [r0, #4]
    23cc:	f7ff fe4b 	bl	2066 <Code_431>
    23d0:	bd30      	pop	{r4, r5, pc}
    23d2:	f38c0000 	vaddl.u8	q0, d12, d0
    23d6:	24041fff 	strcs	r1, [r4], #-4095	; 0xfff

000023d8 <Dictionary_458>:
    23d8:	00002404 	andeq	r2, r0, r4, lsl #8
    23dc:	2b010262 	blcs	42d6c <BIT18+0x2d6c>

000023e0 <Code_458>:
    23e0:	cf01      	ldmia	r7!, {r0}
    23e2:	1836      	adds	r6, r6, r0
    23e4:	4770      	bx	lr

000023e6 <plus_allocator>:
    23e6:	b500      	push	{lr}
    23e8:	f7fe f99d 	bl	726 <expect_two_elements>
    23ec:	3f04      	subs	r7, #4
    23ee:	603e      	str	r6, [r7, #0]
    23f0:	4ecc      	ldr	r6, [pc, #816]	; (2724 <Code_540+0xa>)
    23f2:	3f04      	subs	r7, #4
    23f4:	603e      	str	r6, [r7, #0]
    23f6:	4ecc      	ldr	r6, [pc, #816]	; (2728 <Code_540+0xe>)
    23f8:	6881      	ldr	r1, [r0, #8]
    23fa:	2928      	cmp	r1, #40	; 0x28
    23fc:	d112      	bne.n	2424 <minus_allocator+0x12>
    23fe:	f7fe fef7 	bl	11f0 <swap_allocator>
    2402:	e00f      	b.n	2424 <minus_allocator+0x12>

00002404 <Dictionary_463>:
    2404:	0000246c 	andeq	r2, r0, ip, ror #8
    2408:	2d010262 	sfmcs	f0, 4, [r1, #-392]	; 0xfffffe78

0000240c <Code_463>:
    240c:	cf01      	ldmia	r7!, {r0}
    240e:	1b86      	subs	r6, r0, r6
    2410:	4770      	bx	lr

00002412 <minus_allocator>:
    2412:	b500      	push	{lr}
    2414:	f7fe f987 	bl	726 <expect_two_elements>
    2418:	3f04      	subs	r7, #4
    241a:	603e      	str	r6, [r7, #0]
    241c:	4ec3      	ldr	r6, [pc, #780]	; (272c <Code_540+0x12>)
    241e:	3f04      	subs	r7, #4
    2420:	603e      	str	r6, [r7, #0]
    2422:	4ec3      	ldr	r6, [pc, #780]	; (2730 <Code_540+0x16>)
    2424:	f7fe f9be 	bl	7a4 <expect_nos_in_register>
    2428:	6801      	ldr	r1, [r0, #0]
    242a:	2928      	cmp	r1, #40	; 0x28
    242c:	d10e      	bne.n	244c <minus_allocator+0x3a>
    242e:	6841      	ldr	r1, [r0, #4]
    2430:	29ff      	cmp	r1, #255	; 0xff
    2432:	d80b      	bhi.n	244c <minus_allocator+0x3a>
    2434:	cf40      	ldmia	r7!, {r6}
    2436:	f7fe f9c9 	bl	7cc <nos_change_tos_away_later>
    243a:	430e      	orrs	r6, r1
    243c:	6881      	ldr	r1, [r0, #8]
    243e:	0209      	lsls	r1, r1, #8
    2440:	430e      	orrs	r6, r1
    2442:	f001 f8f6 	bl	3632 <Code_826>
    2446:	f7fe f85c 	bl	502 <eliminiere_tos>
    244a:	bd00      	pop	{pc}
    244c:	3704      	adds	r7, #4
    244e:	f7fe f99f 	bl	790 <expect_tos_in_register>
    2452:	0189      	lsls	r1, r1, #6
    2454:	6882      	ldr	r2, [r0, #8]
    2456:	00d2      	lsls	r2, r2, #3
    2458:	430e      	orrs	r6, r1
    245a:	4316      	orrs	r6, r2
    245c:	f7fe f851 	bl	502 <eliminiere_tos>
    2460:	f7fe f9e4 	bl	82c <tos_registerwechsel>
    2464:	431e      	orrs	r6, r3
    2466:	f001 f8e4 	bl	3632 <Code_826>
    246a:	bd00      	pop	{pc}

0000246c <Dictionary_470>:
    246c:	00002484 	andeq	r2, r0, r4, lsl #9
    2470:	31020261 	tstcc	r2, r1, ror #4
    2474:	3e01002d 	cdpcc	0, 0, cr0, cr1, cr13, {1}

00002476 <Code_470>:
    2476:	3e01      	subs	r6, #1
    2478:	4770      	bx	lr

0000247a <allocator_one_minus>:
    247a:	3f04      	subs	r7, #4
    247c:	603e      	str	r6, [r7, #0]
    247e:	4ead      	ldr	r6, [pc, #692]	; (2734 <Code_540+0x1a>)
    2480:	e03c      	b.n	24fc <smalltworegisters>
    2482:	46c0      	nop			; (mov r8, r8)

00002484 <Dictionary_473>:
    2484:	0000249c 	muleq	r0, ip, r4
    2488:	31020261 	tstcc	r2, r1, ror #4
    248c:	3601002b 	strcc	r0, [r1], -fp, lsr #32

0000248e <Code_473>:
    248e:	3601      	adds	r6, #1
    2490:	4770      	bx	lr
    2492:	3f04      	subs	r7, #4
    2494:	603e      	str	r6, [r7, #0]
    2496:	4ea8      	ldr	r6, [pc, #672]	; (2738 <Code_540+0x1e>)
    2498:	e030      	b.n	24fc <smalltworegisters>
    249a:	46c0      	nop			; (mov r8, r8)

0000249c <Dictionary_476>:
    249c:	000024b4 			; <UNDEFINED> instruction: 0x000024b4
    24a0:	32020261 	andcc	r0, r2, #268435462	; 0x10000006
    24a4:	3e02002d 	cdpcc	0, 0, cr0, cr2, cr13, {1}

000024a6 <Code_476>:
    24a6:	3e02      	subs	r6, #2
    24a8:	4770      	bx	lr
    24aa:	3f04      	subs	r7, #4
    24ac:	603e      	str	r6, [r7, #0]
    24ae:	4ea3      	ldr	r6, [pc, #652]	; (273c <Code_540+0x22>)
    24b0:	e024      	b.n	24fc <smalltworegisters>
    24b2:	46c0      	nop			; (mov r8, r8)

000024b4 <Dictionary_479>:
    24b4:	000024cc 	andeq	r2, r0, ip, asr #9
    24b8:	32020261 	andcc	r0, r2, #268435462	; 0x10000006
    24bc:	3602002b 	strcc	r0, [r2], -fp, lsr #32

000024be <Code_479>:
    24be:	3602      	adds	r6, #2
    24c0:	4770      	bx	lr
    24c2:	3f04      	subs	r7, #4
    24c4:	603e      	str	r6, [r7, #0]
    24c6:	4e9e      	ldr	r6, [pc, #632]	; (2740 <Code_540+0x26>)
    24c8:	e018      	b.n	24fc <smalltworegisters>
    24ca:	46c0      	nop			; (mov r8, r8)

000024cc <Dictionary_482>:
    24cc:	000024e4 	andeq	r2, r0, r4, ror #9
    24d0:	63050261 	movwvs	r0, #21089	; 0x5261
    24d4:	2b6c6c65 	blcs	1b1d670 <BIT24+0xb1d670>

000024d8 <Code_482>:
    24d8:	3604      	adds	r6, #4
    24da:	4770      	bx	lr
    24dc:	3f04      	subs	r7, #4
    24de:	603e      	str	r6, [r7, #0]
    24e0:	4e98      	ldr	r6, [pc, #608]	; (2744 <Code_540+0x2a>)
    24e2:	e00b      	b.n	24fc <smalltworegisters>

000024e4 <Dictionary_485>:
    24e4:	00002514 	andeq	r2, r0, r4, lsl r5
    24e8:	6e060261 	cdpvs	2, 0, cr0, cr6, cr1, {3}
    24ec:	74616765 	strbtvc	r6, [r1], #-1893	; 0x765
    24f0:	42760065 	rsbsmi	r0, r6, #101	; 0x65

000024f2 <Code_485>:
    24f2:	4276      	negs	r6, r6
    24f4:	4770      	bx	lr

000024f6 <allocator_negate>:
    24f6:	3f04      	subs	r7, #4
    24f8:	603e      	str	r6, [r7, #0]
    24fa:	4e93      	ldr	r6, [pc, #588]	; (2748 <Code_540+0x2e>)

000024fc <smalltworegisters>:
    24fc:	b500      	push	{lr}
    24fe:	f7fe f908 	bl	712 <expect_one_element>
    2502:	6801      	ldr	r1, [r0, #0]
    2504:	00c9      	lsls	r1, r1, #3
    2506:	430e      	orrs	r6, r1
    2508:	f7fe f990 	bl	82c <tos_registerwechsel>
    250c:	431e      	orrs	r6, r3
    250e:	f001 f890 	bl	3632 <Code_826>
    2512:	bd00      	pop	{pc}

00002514 <Dictionary_488>:
    2514:	0000252c 	andeq	r2, r0, ip, lsr #10
    2518:	6e030261 	cdpvs	2, 0, cr0, cr3, cr1, {3}
    251c:	43f6746f 	mvnsmi	r7, #1862270976	; 0x6f000000

0000251e <Code_488>:
    251e:	43f6      	mvns	r6, r6
    2520:	4770      	bx	lr

00002522 <allocator_not>:
    2522:	3f04      	subs	r7, #4
    2524:	603e      	str	r6, [r7, #0]
    2526:	4e89      	ldr	r6, [pc, #548]	; (274c <Code_540+0x32>)
    2528:	e7e8      	b.n	24fc <smalltworegisters>
    252a:	46c0      	nop			; (mov r8, r8)

0000252c <Dictionary_491>:
    252c:	00002544 	andeq	r2, r0, r4, asr #10
    2530:	73030261 	movwvc	r0, #12897	; 0x3261
    2534:	08767268 	ldmdaeq	r6!, {r3, r5, r6, r9, ip, sp, lr}^

00002536 <Code_491>:
    2536:	0876      	lsrs	r6, r6, #1
    2538:	4770      	bx	lr
    253a:	3f04      	subs	r7, #4
    253c:	603e      	str	r6, [r7, #0]
    253e:	4e84      	ldr	r6, [pc, #528]	; (2750 <Code_540+0x36>)
    2540:	e7dc      	b.n	24fc <smalltworegisters>
    2542:	46c0      	nop			; (mov r8, r8)

00002544 <Dictionary_494>:
    2544:	00002554 	andeq	r2, r0, r4, asr r5
    2548:	73030261 	movwvc	r0, #12897	; 0x3261
    254c:	00766c68 	rsbseq	r6, r6, r8, ror #24

0000254e <Code_494>:
    254e:	0076      	lsls	r6, r6, #1
    2550:	4770      	bx	lr
    2552:	e006      	b.n	2562 <Code_495+0x4>

00002554 <Dictionary_495>:
    2554:	0000256c 	andeq	r2, r0, ip, ror #10
    2558:	32020261 	andcc	r0, r2, #268435462	; 0x10000006
    255c:	0076002a 	rsbseq	r0, r6, sl, lsr #32

0000255e <Code_495>:
    255e:	0076      	lsls	r6, r6, #1
    2560:	4770      	bx	lr
    2562:	3f04      	subs	r7, #4
    2564:	603e      	str	r6, [r7, #0]
    2566:	2640      	movs	r6, #64	; 0x40
    2568:	e7c8      	b.n	24fc <smalltworegisters>
    256a:	46c0      	nop			; (mov r8, r8)

0000256c <Dictionary_498>:
    256c:	00002584 	andeq	r2, r0, r4, lsl #11
    2570:	63050261 	movwvs	r0, #21089	; 0x5261
    2574:	736c6c65 	cmnvc	ip, #25856	; 0x6500

00002578 <Code_498>:
    2578:	00b6      	lsls	r6, r6, #2
    257a:	4770      	bx	lr
    257c:	3f04      	subs	r7, #4
    257e:	603e      	str	r6, [r7, #0]
    2580:	2680      	movs	r6, #128	; 0x80
    2582:	e7bb      	b.n	24fc <smalltworegisters>

00002584 <Dictionary_501>:
    2584:	0000259c 	muleq	r0, ip, r5
    2588:	32020261 	andcc	r0, r2, #268435462	; 0x10000006
    258c:	1076002f 	rsbsne	r0, r6, pc, lsr #32

0000258e <Code_501>:
    258e:	1076      	asrs	r6, r6, #1
    2590:	4770      	bx	lr
    2592:	3f04      	subs	r7, #4
    2594:	603e      	str	r6, [r7, #0]
    2596:	4e6f      	ldr	r6, [pc, #444]	; (2754 <Code_540+0x3a>)
    2598:	e7b0      	b.n	24fc <smalltworegisters>
    259a:	46c0      	nop			; (mov r8, r8)

0000259c <Dictionary_504>:
    259c:	000025d4 	ldrdeq	r2, [r0], -r4
    25a0:	61030261 	tstvs	r3, r1, ror #4
    25a4:	17f07362 	ldrbne	r7, [r0, r2, ror #6]!

000025a6 <Code_504>:
    25a6:	17f0      	asrs	r0, r6, #31
    25a8:	1836      	adds	r6, r6, r0
    25aa:	4046      	eors	r6, r0
    25ac:	4770      	bx	lr
    25ae:	b500      	push	{lr}
    25b0:	f7fe f8af 	bl	712 <expect_one_element>
    25b4:	3f04      	subs	r7, #4
    25b6:	603e      	str	r6, [r7, #0]
    25b8:	4e67      	ldr	r6, [pc, #412]	; (2758 <Code_540+0x3e>)
    25ba:	6801      	ldr	r1, [r0, #0]
    25bc:	0209      	lsls	r1, r1, #8
    25be:	430e      	orrs	r6, r1
    25c0:	f001 f837 	bl	3632 <Code_826>
    25c4:	3f04      	subs	r7, #4
    25c6:	603e      	str	r6, [r7, #0]
    25c8:	4e64      	ldr	r6, [pc, #400]	; (275c <Code_540+0x42>)
    25ca:	f001 f832 	bl	3632 <Code_826>
    25ce:	f7ff ff92 	bl	24f6 <allocator_negate>
    25d2:	bd00      	pop	{pc}

000025d4 <Dictionary_509>:
    25d4:	0000261c 	andeq	r2, r0, ip, lsl r6
    25d8:	75050042 	strvc	r0, [r5, #-66]	; 0x42
    25dc:	646f6d2f 	strbtvs	r6, [pc], #-3375	; 25e4 <Code_509+0x4>

000025e0 <Code_509>:
    25e0:	0031      	movs	r1, r6
    25e2:	cf40      	ldmia	r7!, {r6}
    25e4:	2900      	cmp	r1, #0
    25e6:	d103      	bne.n	25f0 <Code_509+0x10>
    25e8:	3f04      	subs	r7, #4
    25ea:	603e      	str	r6, [r7, #0]
    25ec:	2600      	movs	r6, #0
    25ee:	4770      	bx	lr
    25f0:	2201      	movs	r2, #1
    25f2:	2300      	movs	r3, #0
    25f4:	428e      	cmp	r6, r1
    25f6:	d906      	bls.n	2606 <Code_509+0x26>
    25f8:	3100      	adds	r1, #0
    25fa:	d404      	bmi.n	2606 <Code_509+0x26>
    25fc:	0052      	lsls	r2, r2, #1
    25fe:	0049      	lsls	r1, r1, #1
    2600:	d401      	bmi.n	2606 <Code_509+0x26>
    2602:	428e      	cmp	r6, r1
    2604:	d8fa      	bhi.n	25fc <Code_509+0x1c>
    2606:	428e      	cmp	r6, r1
    2608:	d301      	bcc.n	260e <Code_509+0x2e>
    260a:	1a76      	subs	r6, r6, r1
    260c:	4313      	orrs	r3, r2
    260e:	0849      	lsrs	r1, r1, #1
    2610:	0852      	lsrs	r2, r2, #1
    2612:	d1f8      	bne.n	2606 <Code_509+0x26>
    2614:	3f04      	subs	r7, #4
    2616:	603e      	str	r6, [r7, #0]
    2618:	001e      	movs	r6, r3
    261a:	4770      	bx	lr

0000261c <Dictionary_515>:
    261c:	0000268c 	andeq	r2, r0, ip, lsl #13
    2620:	2f040042 	svccs	0x00040042
    2624:	00646f6d 	rsbeq	r6, r4, sp, ror #30

00002628 <Code_515>:
    2628:	b500      	push	{lr}
    262a:	0030      	movs	r0, r6
    262c:	cf40      	ldmia	r7!, {r6}
    262e:	2e00      	cmp	r6, #0
    2630:	da1c      	bge.n	266c <divmod_plus>
    2632:	4276      	negs	r6, r6

00002634 <divmod_minus>:
    2634:	2800      	cmp	r0, #0
    2636:	da0c      	bge.n	2652 <divmod_minus_plus>

00002638 <divmod_minus_minus>:
    2638:	4240      	negs	r0, r0
    263a:	3f04      	subs	r7, #4
    263c:	603e      	str	r6, [r7, #0]
    263e:	0006      	movs	r6, r0
    2640:	f7ff ffce 	bl	25e0 <Code_509>
    2644:	0030      	movs	r0, r6
    2646:	cf40      	ldmia	r7!, {r6}
    2648:	4276      	negs	r6, r6
    264a:	3f04      	subs	r7, #4
    264c:	603e      	str	r6, [r7, #0]
    264e:	0006      	movs	r6, r0
    2650:	bd00      	pop	{pc}

00002652 <divmod_minus_plus>:
    2652:	3f04      	subs	r7, #4
    2654:	603e      	str	r6, [r7, #0]
    2656:	0006      	movs	r6, r0
    2658:	f7ff ffc2 	bl	25e0 <Code_509>
    265c:	0030      	movs	r0, r6
    265e:	cf40      	ldmia	r7!, {r6}
    2660:	4240      	negs	r0, r0
    2662:	4276      	negs	r6, r6
    2664:	3f04      	subs	r7, #4
    2666:	603e      	str	r6, [r7, #0]
    2668:	0006      	movs	r6, r0
    266a:	bd00      	pop	{pc}

0000266c <divmod_plus>:
    266c:	2800      	cmp	r0, #0
    266e:	da07      	bge.n	2680 <divmod_plus_plus>

00002670 <divmod_plus_minus>:
    2670:	4240      	negs	r0, r0
    2672:	3f04      	subs	r7, #4
    2674:	603e      	str	r6, [r7, #0]
    2676:	0006      	movs	r6, r0
    2678:	f7ff ffb2 	bl	25e0 <Code_509>
    267c:	4276      	negs	r6, r6
    267e:	bd00      	pop	{pc}

00002680 <divmod_plus_plus>:
    2680:	3f04      	subs	r7, #4
    2682:	603e      	str	r6, [r7, #0]
    2684:	0006      	movs	r6, r0
    2686:	f7ff ffab 	bl	25e0 <Code_509>
    268a:	bd00      	pop	{pc}

0000268c <Dictionary_531>:
    268c:	000026a0 	andeq	r2, r0, r0, lsr #13
    2690:	6d030042 	stcvs	0, cr0, [r3, #-264]	; 0xfffffef8
    2694:	b500646f 	strlt	r6, [r0, #-1135]	; 0x46f

00002696 <Code_531>:
    2696:	b500      	push	{lr}
    2698:	f7ff ffc6 	bl	2628 <Code_515>
    269c:	cf40      	ldmia	r7!, {r6}
    269e:	bd00      	pop	{pc}

000026a0 <Dictionary_533>:
    26a0:	000026b4 			; <UNDEFINED> instruction: 0x000026b4
    26a4:	2f010042 	svccs	0x00010042

000026a8 <Code_533>:
    26a8:	b500      	push	{lr}
    26aa:	f7ff ffbd 	bl	2628 <Code_515>
    26ae:	3704      	adds	r7, #4
    26b0:	bd00      	pop	{pc}
    26b2:	46c0      	nop			; (mov r8, r8)

000026b4 <Dictionary_534>:
    26b4:	000026c8 	andeq	r2, r0, r8, asr #13
    26b8:	65040061 	strvs	r0, [r4, #-97]	; 0x61
    26bc:	006e6576 	rsbeq	r6, lr, r6, ror r5

000026c0 <Code_534>:
    26c0:	2001      	movs	r0, #1
    26c2:	4030      	ands	r0, r6
    26c4:	1836      	adds	r6, r6, r0
    26c6:	4770      	bx	lr

000026c8 <Dictionary_535>:
    26c8:	000026e0 	andeq	r2, r0, r0, ror #13
    26cc:	62040081 	andvs	r0, r4, #129	; 0x81
    26d0:	00657361 	rsbeq	r7, r5, r1, ror #6

000026d4 <Code_535>:
    26d4:	3f04      	subs	r7, #4
    26d6:	603e      	str	r6, [r7, #0]
    26d8:	4e21      	ldr	r6, [pc, #132]	; (2760 <Code_540+0x46>)
    26da:	4770      	bx	lr
    26dc:	0000000a 	andeq	r0, r0, sl

000026e0 <Dictionary_538>:
    26e0:	000026f8 	strdeq	r2, [r0], -r8
    26e4:	62060000 	andvs	r0, r6, #0
    26e8:	72616e69 	rsbvc	r6, r1, #1680	; 0x690
    26ec:	481c0079 	ldmdami	ip, {r0, r3, r4, r5, r6}

000026ee <Code_538>:
    26ee:	481c      	ldr	r0, [pc, #112]	; (2760 <Code_540+0x46>)
    26f0:	2102      	movs	r1, #2
    26f2:	6001      	str	r1, [r0, #0]
    26f4:	4770      	bx	lr
    26f6:	46c0      	nop			; (mov r8, r8)

000026f8 <Dictionary_539>:
    26f8:	00002710 	andeq	r2, r0, r0, lsl r7
    26fc:	64070000 	strvs	r0, [r7]
    2700:	6d696365 	stclvs	3, cr6, [r9, #-404]!	; 0xfffffe6c
    2704:	48166c61 	ldmdami	r6, {r0, r5, r6, sl, fp, sp, lr}

00002706 <Code_539>:
    2706:	4816      	ldr	r0, [pc, #88]	; (2760 <Code_540+0x46>)
    2708:	210a      	movs	r1, #10
    270a:	6001      	str	r1, [r0, #0]
    270c:	4770      	bx	lr
    270e:	46c0      	nop			; (mov r8, r8)

00002710 <Dictionary_540>:
    2710:	000027ac 	andeq	r2, r0, ip, lsr #15
    2714:	68030000 	stmdavs	r3, {}	; <UNPREDICTABLE>
    2718:	48117865 	ldmdami	r1, {r0, r2, r5, r6, fp, ip, sp, lr}

0000271a <Code_540>:
    271a:	4811      	ldr	r0, [pc, #68]	; (2760 <Code_540+0x46>)
    271c:	2110      	movs	r1, #16
    271e:	6001      	str	r1, [r0, #0]
    2720:	4770      	bx	lr
    2722:	30000000 	andcc	r0, r0, r0
    2726:	18000000 	stmdane	r0, {}	; <UNPREDICTABLE>
    272a:	38000000 	stmdacc	r0, {}	; <UNPREDICTABLE>
    272e:	1a000000 	bne	2736 <Code_540+0x1c>
    2732:	1e400000 	cdpne	0, 4, cr0, cr0, cr0, {0}
    2736:	1c400000 	marne	acc0, r0, r0
    273a:	1e800000 	cdpne	0, 8, cr0, cr0, cr0, {0}
    273e:	1c800000 	stcne	0, cr0, [r0], {0}
    2742:	1d000000 	stcne	0, cr0, [r0]
    2746:	42400000 	submi	r0, r0, #0
    274a:	43c00000 	bicmi	r0, r0, #0
    274e:	08400000 	stmdaeq	r0, {}^	; <UNPREDICTABLE>
    2752:	10400000 	subne	r0, r0, r0
    2756:	28000000 	stmdacs	r0, {}	; <UNPREDICTABLE>
    275a:	d5000000 	strle	r0, [r0]
    275e:	2ffc0000 	svccs	0x00fc0000
    2762:	49802000 	stmibmi	r0, {sp}

00002764 <uart_init>:
    2764:	4980      	ldr	r1, [pc, #512]	; (2968 <Code_570+0x22>)
    2766:	4881      	ldr	r0, [pc, #516]	; (296c <Code_570+0x26>)
    2768:	6001      	str	r1, [r0, #0]
    276a:	4981      	ldr	r1, [pc, #516]	; (2970 <Code_570+0x2a>)
    276c:	4881      	ldr	r0, [pc, #516]	; (2974 <Code_570+0x2e>)
    276e:	6001      	str	r1, [r0, #0]
    2770:	4981      	ldr	r1, [pc, #516]	; (2978 <Code_570+0x32>)
    2772:	4882      	ldr	r0, [pc, #520]	; (297c <Code_570+0x36>)
    2774:	6001      	str	r1, [r0, #0]
    2776:	4982      	ldr	r1, [pc, #520]	; (2980 <Code_570+0x3a>)
    2778:	4882      	ldr	r0, [pc, #520]	; (2984 <Code_570+0x3e>)
    277a:	6001      	str	r1, [r0, #0]
    277c:	4882      	ldr	r0, [pc, #520]	; (2988 <Code_570+0x42>)
    277e:	6001      	str	r1, [r0, #0]
    2780:	2100      	movs	r1, #0
    2782:	4882      	ldr	r0, [pc, #520]	; (298c <Code_570+0x46>)
    2784:	7001      	strb	r1, [r0, #0]
    2786:	4882      	ldr	r0, [pc, #520]	; (2990 <Code_570+0x4a>)
    2788:	7001      	strb	r1, [r0, #0]
    278a:	4882      	ldr	r0, [pc, #520]	; (2994 <Code_570+0x4e>)
    278c:	7001      	strb	r1, [r0, #0]
    278e:	4882      	ldr	r0, [pc, #520]	; (2998 <Code_570+0x52>)
    2790:	7001      	strb	r1, [r0, #0]
    2792:	2106      	movs	r1, #6
    2794:	4881      	ldr	r0, [pc, #516]	; (299c <Code_570+0x56>)
    2796:	7001      	strb	r1, [r0, #0]
    2798:	2100      	movs	r1, #0
    279a:	4881      	ldr	r0, [pc, #516]	; (29a0 <Code_570+0x5a>)
    279c:	7001      	strb	r1, [r0, #0]
    279e:	211a      	movs	r1, #26
    27a0:	4880      	ldr	r0, [pc, #512]	; (29a4 <Code_570+0x5e>)
    27a2:	7001      	strb	r1, [r0, #0]
    27a4:	210c      	movs	r1, #12
    27a6:	4879      	ldr	r0, [pc, #484]	; (298c <Code_570+0x46>)
    27a8:	7001      	strb	r1, [r0, #0]
    27aa:	4770      	bx	lr

000027ac <Dictionary_541>:
    27ac:	000027c8 	andeq	r2, r0, r8, asr #15
    27b0:	68090081 	stmdavs	r9, {r0, r7}
    27b4:	2d6b6f6f 	stclcs	15, cr6, [fp, #-444]!	; 0xfffffe44
    27b8:	74696d65 	strbtvc	r6, [r9], #-3429	; 0xd65

000027bc <Code_541>:
    27bc:	3f04      	subs	r7, #4
    27be:	603e      	str	r6, [r7, #0]
    27c0:	4e79      	ldr	r6, [pc, #484]	; (29a8 <Code_570+0x62>)
    27c2:	4770      	bx	lr
    27c4:	000028be 			; <UNDEFINED> instruction: 0x000028be

000027c8 <Dictionary_544>:
    27c8:	000027e4 	andeq	r2, r0, r4, ror #15
    27cc:	68080081 	stmdavs	r8, {r0, r7}
    27d0:	2d6b6f6f 	stclcs	15, cr6, [fp, #-444]!	; 0xfffffe44
    27d4:	0079656b 	rsbseq	r6, r9, fp, ror #10

000027d8 <Code_544>:
    27d8:	3f04      	subs	r7, #4
    27da:	603e      	str	r6, [r7, #0]
    27dc:	4e73      	ldr	r6, [pc, #460]	; (29ac <Code_570+0x66>)
    27de:	4770      	bx	lr
    27e0:	000028e6 	andeq	r2, r0, r6, ror #17

000027e4 <Dictionary_547>:
    27e4:	00002804 	andeq	r2, r0, r4, lsl #16
    27e8:	680a0081 	stmdavs	sl, {r0, r7}
    27ec:	2d6b6f6f 	stclcs	15, cr6, [fp, #-444]!	; 0xfffffe44
    27f0:	74696d65 	strbtvc	r6, [r9], #-3429	; 0xd65
    27f4:	3f04003f 	svccc	0x0004003f

000027f6 <Code_547>:
    27f6:	3f04      	subs	r7, #4
    27f8:	603e      	str	r6, [r7, #0]
    27fa:	4e6d      	ldr	r6, [pc, #436]	; (29b0 <Code_570+0x6a>)
    27fc:	4770      	bx	lr
    27fe:	00002914 	andeq	r2, r0, r4, lsl r9
    2802:	282046c0 	stmdacs	r0!, {r6, r7, r9, sl, lr}

00002804 <Dictionary_550>:
    2804:	00002820 	andeq	r2, r0, r0, lsr #16
    2808:	68090081 	stmdavs	r9, {r0, r7}
    280c:	2d6b6f6f 	stclcs	15, cr6, [fp, #-444]!	; 0xfffffe44
    2810:	3f79656b 	svccc	0x0079656b

00002814 <Code_550>:
    2814:	3f04      	subs	r7, #4
    2816:	603e      	str	r6, [r7, #0]
    2818:	4e66      	ldr	r6, [pc, #408]	; (29b4 <Code_570+0x6e>)
    281a:	4770      	bx	lr
    281c:	00002946 	andeq	r2, r0, r6, asr #18

00002820 <Dictionary_553>:
    2820:	00002840 	andeq	r2, r0, r0, asr #16
    2824:	680a0081 	stmdavs	sl, {r0, r7}
    2828:	2d6b6f6f 	stclcs	15, cr6, [fp, #-444]!	; 0xfffffe44
    282c:	73756170 	cmnvc	r5, #28
    2830:	3f040065 	svccc	0x00040065

00002832 <Code_553>:
    2832:	3f04      	subs	r7, #4
    2834:	603e      	str	r6, [r7, #0]
    2836:	4e60      	ldr	r6, [pc, #384]	; (29b8 <Code_570+0x72>)
    2838:	4770      	bx	lr
    283a:	00004c0a 	andeq	r4, r0, sl, lsl #24
    283e:	285846c0 	ldmdacs	r8, {r6, r7, r9, sl, lr}^

00002840 <Dictionary_556>:
    2840:	00002858 	andeq	r2, r0, r8, asr r8
    2844:	65040000 	strvs	r0, [r4]
    2848:	0074696d 	rsbseq	r6, r4, sp, ror #18

0000284c <Code_556>:
    284c:	b50f      	push	{r0, r1, r2, r3, lr}
    284e:	4856      	ldr	r0, [pc, #344]	; (29a8 <Code_570+0x62>)
    2850:	f000 f829 	bl	28a6 <hook_intern>
    2854:	bd0f      	pop	{r0, r1, r2, r3, pc}
    2856:	46c0      	nop			; (mov r8, r8)

00002858 <Dictionary_557>:
    2858:	0000286c 	andeq	r2, r0, ip, ror #16
    285c:	6b030000 	blvs	c2864 <BIT19+0x42864>
    2860:	b50f7965 	strlt	r7, [pc, #-2405]	; 1f03 <Code_413+0x17>

00002862 <Code_557>:
    2862:	b50f      	push	{r0, r1, r2, r3, lr}
    2864:	4851      	ldr	r0, [pc, #324]	; (29ac <Code_570+0x66>)
    2866:	f000 f81e 	bl	28a6 <hook_intern>
    286a:	bd0f      	pop	{r0, r1, r2, r3, pc}

0000286c <Dictionary_558>:
    286c:	00002880 	andeq	r2, r0, r0, lsl #17
    2870:	65050000 	strvs	r0, [r5]
    2874:	3f74696d 	svccc	0x0074696d

00002878 <Code_558>:
    2878:	484d      	ldr	r0, [pc, #308]	; (29b0 <Code_570+0x6a>)
    287a:	6800      	ldr	r0, [r0, #0]
    287c:	4687      	mov	pc, r0
    287e:	46c0      	nop			; (mov r8, r8)

00002880 <Dictionary_559>:
    2880:	00002894 	muleq	r0, r4, r8
    2884:	6b040000 	blvs	10288c <BIT20+0x288c>
    2888:	003f7965 	eorseq	r7, pc, r5, ror #18

0000288c <Code_559>:
    288c:	4849      	ldr	r0, [pc, #292]	; (29b4 <Code_570+0x6e>)
    288e:	6800      	ldr	r0, [r0, #0]
    2890:	4687      	mov	pc, r0
    2892:	46c0      	nop			; (mov r8, r8)

00002894 <Dictionary_560>:
    2894:	000028ac 	andeq	r2, r0, ip, lsr #17
    2898:	70050000 	andvc	r0, r5, r0
    289c:	65737561 	ldrbvs	r7, [r3, #-1377]!	; 0x561

000028a0 <Code_560>:
    28a0:	4845      	ldr	r0, [pc, #276]	; (29b8 <Code_570+0x72>)
    28a2:	6800      	ldr	r0, [r0, #0]
    28a4:	4687      	mov	pc, r0

000028a6 <hook_intern>:
    28a6:	6800      	ldr	r0, [r0, #0]
    28a8:	4687      	mov	pc, r0
    28aa:	46c0      	nop			; (mov r8, r8)

000028ac <Dictionary_561>:
    28ac:	000028d4 	ldrdeq	r2, [r0], -r4
    28b0:	730b0000 	movwvc	r0, #45056	; 0xb000
    28b4:	61697265 	cmnvs	r9, r5, ror #4
    28b8:	6d652d6c 	stclvs	13, cr2, [r5, #-432]!	; 0xfffffe50
    28bc:	b5007469 	strlt	r7, [r0, #-1129]	; 0x469

000028be <Code_561>:
    28be:	b500      	push	{lr}
    28c0:	f000 f828 	bl	2914 <Code_567>
    28c4:	2e00      	cmp	r6, #0
    28c6:	cf40      	ldmia	r7!, {r6}
    28c8:	d0fa      	beq.n	28c0 <Code_561+0x2>
    28ca:	483c      	ldr	r0, [pc, #240]	; (29bc <Code_570+0x76>)
    28cc:	7006      	strb	r6, [r0, #0]
    28ce:	cf40      	ldmia	r7!, {r6}
    28d0:	bd00      	pop	{pc}
    28d2:	46c0      	nop			; (mov r8, r8)

000028d4 <Dictionary_564>:
    28d4:	00002900 	andeq	r2, r0, r0, lsl #18
    28d8:	730a0000 	movwvc	r0, #40960	; 0xa000
    28dc:	61697265 	cmnvs	r9, r5, ror #4
    28e0:	656b2d6c 	strbvs	r2, [fp, #-3436]!	; 0xd6c
    28e4:	b5000079 	strlt	r0, [r0, #-121]	; 0x79

000028e6 <Code_564>:
    28e6:	b500      	push	{lr}
    28e8:	f000 f82d 	bl	2946 <Code_570>
    28ec:	2e00      	cmp	r6, #0
    28ee:	cf40      	ldmia	r7!, {r6}
    28f0:	d0fa      	beq.n	28e8 <Code_564+0x2>
    28f2:	4832      	ldr	r0, [pc, #200]	; (29bc <Code_570+0x76>)
    28f4:	3f04      	subs	r7, #4
    28f6:	603e      	str	r6, [r7, #0]
    28f8:	7806      	ldrb	r6, [r0, #0]
    28fa:	b2f6      	uxtb	r6, r6
    28fc:	bd00      	pop	{pc}
    28fe:	46c0      	nop			; (mov r8, r8)

00002900 <Dictionary_567>:
    2900:	00002934 	andeq	r2, r0, r4, lsr r9
    2904:	730c0000 	movwvc	r0, #49152	; 0xc000
    2908:	61697265 	cmnvs	r9, r5, ror #4
    290c:	6d652d6c 	stclvs	13, cr2, [r5, #-432]!	; 0xfffffe50
    2910:	003f7469 	eorseq	r7, pc, r9, ror #8

00002914 <Code_567>:
    2914:	b500      	push	{lr}
    2916:	f7ff ffc3 	bl	28a0 <Code_560>
    291a:	4829      	ldr	r0, [pc, #164]	; (29c0 <Code_570+0x7a>)
    291c:	2108      	movs	r1, #8
    291e:	7001      	strb	r1, [r0, #0]
    2920:	3f04      	subs	r7, #4
    2922:	603e      	str	r6, [r7, #0]
    2924:	2600      	movs	r6, #0
    2926:	4826      	ldr	r0, [pc, #152]	; (29c0 <Code_570+0x7a>)
    2928:	2280      	movs	r2, #128	; 0x80
    292a:	7801      	ldrb	r1, [r0, #0]
    292c:	4011      	ands	r1, r2
    292e:	d000      	beq.n	2932 <Code_567+0x1e>
    2930:	43f6      	mvns	r6, r6
    2932:	bd00      	pop	{pc}

00002934 <Dictionary_570>:
    2934:	000029c4 	andeq	r2, r0, r4, asr #19
    2938:	730b0000 	movwvc	r0, #45056	; 0xb000
    293c:	61697265 	cmnvs	r9, r5, ror #4
    2940:	656b2d6c 	strbvs	r2, [fp, #-3436]!	; 0xd6c
    2944:	b5003f79 	strlt	r3, [r0, #-3961]	; 0xf79

00002946 <Code_570>:
    2946:	b500      	push	{lr}
    2948:	f7ff ffaa 	bl	28a0 <Code_560>
    294c:	481c      	ldr	r0, [pc, #112]	; (29c0 <Code_570+0x7a>)
    294e:	2108      	movs	r1, #8
    2950:	7001      	strb	r1, [r0, #0]
    2952:	3f04      	subs	r7, #4
    2954:	603e      	str	r6, [r7, #0]
    2956:	2600      	movs	r6, #0
    2958:	4819      	ldr	r0, [pc, #100]	; (29c0 <Code_570+0x7a>)
    295a:	2220      	movs	r2, #32
    295c:	7801      	ldrb	r1, [r0, #0]
    295e:	4011      	ands	r1, r2
    2960:	d000      	beq.n	2964 <Code_570+0x1e>
    2962:	43f6      	mvns	r6, r6
    2964:	bd00      	pop	{pc}
    2966:	3f800000 	svccc	0x00800000
    296a:	80380000 	eorshi	r0, r8, r0
    296e:	04304004 	ldrteq	r4, [r0], #-4
    2972:	8034f000 	eorshi	pc, r4, r0
    2976:	00004004 	andeq	r4, r0, r4
    297a:	80040400 	andhi	r0, r4, r0, lsl #8
    297e:	02004004 	andeq	r4, r0, #4
    2982:	90040000 	andls	r0, r4, r0
    2986:	90084004 	andls	r4, r8, r4
    298a:	a0034004 	andge	r4, r3, r4
    298e:	a0024006 	andge	r4, r2, r6
    2992:	a0064006 	andge	r4, r6, r6
    2996:	a0054006 	andge	r4, r5, r6
    299a:	a00a4006 	andge	r4, sl, r6
    299e:	a0004006 	andge	r4, r0, r6
    29a2:	a0014006 	andge	r4, r1, r6
    29a6:	2ff84006 	svccs	0x00f84006
    29aa:	2ff42000 	svccs	0x00f42000
    29ae:	2ff02000 	svccs	0x00f02000
    29b2:	2fec2000 	svccs	0x00ec2000
    29b6:	2fe82000 	svccs	0x00e82000
    29ba:	a0072000 	andge	r2, r7, r0
    29be:	a0044006 	andge	r4, r4, r6
    29c2:	29e84006 	stmibcs	r8!, {r1, r2, lr}^

000029c4 <Dictionary_573>:
    29c4:	000029e8 	andeq	r2, r0, r8, ror #19
    29c8:	63070000 	movwvs	r0, #28672	; 0x7000
    29cc:	65707865 	ldrbvs	r7, [r0, #-2149]!	; 0x865
    29d0:	b5007463 	strlt	r7, [r0, #-1123]	; 0x463

000029d2 <Code_573>:
    29d2:	b500      	push	{lr}
    29d4:	6838      	ldr	r0, [r7, #0]
    29d6:	b401      	push	{r0}
    29d8:	3001      	adds	r0, #1
    29da:	6038      	str	r0, [r7, #0]
    29dc:	f000 f80b 	bl	29f6 <Code_575>
    29e0:	bc01      	pop	{r0}
    29e2:	7006      	strb	r6, [r0, #0]
    29e4:	cf40      	ldmia	r7!, {r6}
    29e6:	bd00      	pop	{pc}

000029e8 <Dictionary_575>:
    29e8:	00002a60 	andeq	r2, r0, r0, ror #20
    29ec:	61060000 	mrsvs	r0, (UNDEF: 6)
    29f0:	70656363 	rsbvc	r6, r5, r3, ror #6
    29f4:	b5000074 	strlt	r0, [r0, #-116]	; 0x74

000029f6 <Code_575>:
    29f6:	b500      	push	{lr}
    29f8:	cf02      	ldmia	r7!, {r1}
    29fa:	3901      	subs	r1, #1
    29fc:	2200      	movs	r2, #0
    29fe:	f7ff ff30 	bl	2862 <Code_557>
    2a02:	0030      	movs	r0, r6
    2a04:	cf40      	ldmia	r7!, {r6}
    2a06:	287f      	cmp	r0, #127	; 0x7f
    2a08:	d009      	beq.n	2a1e <Code_575+0x28>
    2a0a:	2820      	cmp	r0, #32
    2a0c:	d219      	bcs.n	2a42 <Code_575+0x4c>
    2a0e:	2809      	cmp	r0, #9
    2a10:	d016      	beq.n	2a40 <Code_575+0x4a>
    2a12:	280a      	cmp	r0, #10
    2a14:	d01f      	beq.n	2a56 <Code_575+0x60>
    2a16:	280d      	cmp	r0, #13
    2a18:	d01d      	beq.n	2a56 <Code_575+0x60>
    2a1a:	2808      	cmp	r0, #8
    2a1c:	d1ef      	bne.n	29fe <Code_575+0x8>
    2a1e:	2a00      	cmp	r2, #0
    2a20:	d0ed      	beq.n	29fe <Code_575+0x8>
    2a22:	f000 f915 	bl	2c50 <dotgaensefuesschen>
    2a26:	08200803 	stmdaeq	r0!, {r0, r1, fp}
    2a2a:	2a00      	cmp	r2, #0
    2a2c:	d0e7      	beq.n	29fe <Code_575+0x8>
    2a2e:	5c88      	ldrb	r0, [r1, r2]
    2a30:	3a01      	subs	r2, #1
    2a32:	2380      	movs	r3, #128	; 0x80
    2a34:	4003      	ands	r3, r0
    2a36:	d0e2      	beq.n	29fe <Code_575+0x8>
    2a38:	2340      	movs	r3, #64	; 0x40
    2a3a:	4003      	ands	r3, r0
    2a3c:	d0f5      	beq.n	2a2a <Code_575+0x34>
    2a3e:	e7de      	b.n	29fe <Code_575+0x8>
    2a40:	2020      	movs	r0, #32
    2a42:	42b2      	cmp	r2, r6
    2a44:	d2db      	bcs.n	29fe <Code_575+0x8>
    2a46:	3f04      	subs	r7, #4
    2a48:	603e      	str	r6, [r7, #0]
    2a4a:	0006      	movs	r6, r0
    2a4c:	f7ff fefe 	bl	284c <Code_556>
    2a50:	3201      	adds	r2, #1
    2a52:	5488      	strb	r0, [r1, r2]
    2a54:	e7d3      	b.n	29fe <Code_575+0x8>
    2a56:	0016      	movs	r6, r2
    2a58:	f000 f8a8 	bl	2bac <Code_606>
    2a5c:	bd00      	pop	{pc}
    2a5e:	46c0      	nop			; (mov r8, r8)

00002a60 <Dictionary_579>:
    2a60:	00002a74 	andeq	r2, r0, r4, ror sl
    2a64:	74030040 	strvc	r0, [r3], #-64	; 0x40
    2a68:	3f046269 	svccc	0x00046269

00002a6a <Code_579>:
    2a6a:	3f04      	subs	r7, #4
    2a6c:	603e      	str	r6, [r7, #0]
    2a6e:	4e2b      	ldr	r6, [pc, #172]	; (2b1c <Code_591+0x20>)
    2a70:	4770      	bx	lr
    2a72:	46c0      	nop			; (mov r8, r8)

00002a74 <Dictionary_581>:
    2a74:	00002a8c 	andeq	r2, r0, ip, lsl #21
    2a78:	3e030081 	cdpcc	0, 0, cr0, cr3, cr1, {4}
    2a7c:	3f046e69 	svccc	0x00046e69

00002a7e <Code_581>:
    2a7e:	3f04      	subs	r7, #4
    2a80:	603e      	str	r6, [r7, #0]
    2a82:	4e27      	ldr	r6, [pc, #156]	; (2b20 <Code_591+0x24>)
    2a84:	4770      	bx	lr
    2a86:	00000000 	andeq	r0, r0, r0
    2a8a:	2ab446c0 	bcs	fed14592 <BIT31+0x7ed14592>

00002a8c <Dictionary_584>:
    2a8c:	00002ab4 			; <UNDEFINED> instruction: 0x00002ab4
    2a90:	630e0082 	movwvs	r0, #57474	; 0xe082
    2a94:	65727275 	ldrbvs	r7, [r2, #-629]!	; 0x275
    2a98:	732d746e 	teqvc	sp, #1845493760	; 0x6e000000
    2a9c:	6372756f 	cmnvs	r2, #465567744	; 0x1bc00000
    2aa0:	3f040065 	svccc	0x00040065

00002aa2 <Code_584>:
    2aa2:	3f04      	subs	r7, #4
    2aa4:	603e      	str	r6, [r7, #0]
    2aa6:	4e1f      	ldr	r6, [pc, #124]	; (2b24 <Code_591+0x28>)
    2aa8:	4770      	bx	lr
    2aaa:	00000000 	andeq	r0, r0, r0
    2aae:	1ffff0c4 	svcne	0x00fff0c4
    2ab2:	2ad046c0 	bcs	ff4145ba <BIT31+0x7f4145ba>

00002ab4 <Dictionary_587>:
    2ab4:	00002ad0 	ldrdeq	r2, [r0], -r0
    2ab8:	73090000 	movwvc	r0, #36864	; 0x9000
    2abc:	6f737465 	svcvs	0x00737465
    2ac0:	65637275 	strbvs	r7, [r3, #-629]!	; 0x275

00002ac4 <Code_587>:
    2ac4:	4817      	ldr	r0, [pc, #92]	; (2b24 <Code_591+0x28>)
    2ac6:	cf02      	ldmia	r7!, {r1}
    2ac8:	6006      	str	r6, [r0, #0]
    2aca:	6041      	str	r1, [r0, #4]
    2acc:	cf40      	ldmia	r7!, {r6}
    2ace:	4770      	bx	lr

00002ad0 <Dictionary_589>:
    2ad0:	00002af0 	strdeq	r2, [r0], -r0
    2ad4:	73060000 	movwvc	r0, #24576	; 0x6000
    2ad8:	6372756f 	cmnvs	r2, #465567744	; 0x1bc00000
    2adc:	3f040065 	svccc	0x00040065

00002ade <Code_589>:
    2ade:	3f04      	subs	r7, #4
    2ae0:	603e      	str	r6, [r7, #0]
    2ae2:	4e10      	ldr	r6, [pc, #64]	; (2b24 <Code_591+0x28>)
    2ae4:	3f04      	subs	r7, #4
    2ae6:	6870      	ldr	r0, [r6, #4]
    2ae8:	6038      	str	r0, [r7, #0]
    2aea:	6836      	ldr	r6, [r6, #0]
    2aec:	4770      	bx	lr
    2aee:	46c0      	nop			; (mov r8, r8)

00002af0 <Dictionary_591>:
    2af0:	00002b28 	andeq	r2, r0, r8, lsr #22
    2af4:	71050000 	mrsvc	r0, (UNDEF: 5)
    2af8:	79726575 	ldmdbvc	r2!, {r0, r2, r4, r5, r6, r8, sl, sp, lr}^

00002afc <Code_591>:
    2afc:	b50f      	push	{r0, r1, r2, r3, lr}
    2afe:	4808      	ldr	r0, [pc, #32]	; (2b20 <Code_591+0x24>)
    2b00:	2100      	movs	r1, #0
    2b02:	6001      	str	r1, [r0, #0]
    2b04:	f7ff ffb1 	bl	2a6a <Code_579>
    2b08:	3f04      	subs	r7, #4
    2b0a:	603e      	str	r6, [r7, #0]
    2b0c:	3f04      	subs	r7, #4
    2b0e:	603e      	str	r6, [r7, #0]
    2b10:	26c8      	movs	r6, #200	; 0xc8
    2b12:	f7ff ff70 	bl	29f6 <Code_575>
    2b16:	f7ff ffd5 	bl	2ac4 <Code_587>
    2b1a:	bd0f      	pop	{r0, r1, r2, r3, pc}
    2b1c:	1ffff0c4 	svcne	0x00fff0c4
    2b20:	20002fe4 	andcs	r2, r0, r4, ror #31
    2b24:	20002fdc 	ldrdcs	r2, [r0], -ip

00002b28 <Dictionary_596>:
    2b28:	00002b78 	andeq	r2, r0, r8, ror fp
    2b2c:	63070000 	movwvs	r0, #28672	; 0x7000
    2b30:	61706d6f 	cmnvs	r0, pc, ror #26
    2b34:	b50f6572 	strlt	r6, [pc, #-1394]	; 25ca <Code_504+0x24>

00002b36 <Code_596>:
    2b36:	b50f      	push	{r0, r1, r2, r3, lr}
    2b38:	0031      	movs	r1, r6
    2b3a:	cf40      	ldmia	r7!, {r6}
    2b3c:	cf01      	ldmia	r7!, {r0}
    2b3e:	4288      	cmp	r0, r1
    2b40:	d002      	beq.n	2b48 <Code_596+0x12>
    2b42:	cf40      	ldmia	r7!, {r6}
    2b44:	2600      	movs	r6, #0
    2b46:	bd0f      	pop	{r0, r1, r2, r3, pc}
    2b48:	cf02      	ldmia	r7!, {r1}
    2b4a:	2800      	cmp	r0, #0
    2b4c:	d010      	beq.n	2b70 <Code_596+0x3a>
    2b4e:	3801      	subs	r0, #1
    2b50:	5c0a      	ldrb	r2, [r1, r0]
    2b52:	5c33      	ldrb	r3, [r6, r0]
    2b54:	2a41      	cmp	r2, #65	; 0x41
    2b56:	d302      	bcc.n	2b5e <Code_596+0x28>
    2b58:	2a5b      	cmp	r2, #91	; 0x5b
    2b5a:	d200      	bcs.n	2b5e <Code_596+0x28>
    2b5c:	3220      	adds	r2, #32
    2b5e:	2b41      	cmp	r3, #65	; 0x41
    2b60:	d302      	bcc.n	2b68 <Code_596+0x32>
    2b62:	2b5b      	cmp	r3, #91	; 0x5b
    2b64:	d200      	bcs.n	2b68 <Code_596+0x32>
    2b66:	3320      	adds	r3, #32
    2b68:	429a      	cmp	r2, r3
    2b6a:	d0ee      	beq.n	2b4a <Code_596+0x14>
    2b6c:	2600      	movs	r6, #0
    2b6e:	bd0f      	pop	{r0, r1, r2, r3, pc}
    2b70:	2600      	movs	r6, #0
    2b72:	43f6      	mvns	r6, r6
    2b74:	bd0f      	pop	{r0, r1, r2, r3, pc}
    2b76:	46c0      	nop			; (mov r8, r8)

00002b78 <Dictionary_601>:
    2b78:	00002b8c 	andeq	r2, r0, ip, lsl #23
    2b7c:	63020000 	movwvs	r0, #8192	; 0x2000
    2b80:	b5000072 	strlt	r0, [r0, #-114]	; 0x72

00002b82 <Code_601>:
    2b82:	b500      	push	{lr}
    2b84:	f000 f864 	bl	2c50 <dotgaensefuesschen>
    2b88:	bd000a01 	vstrlt	s0, [r0, #-4]

00002b8c <Dictionary_603>:
    2b8c:	00002ba0 	andeq	r2, r0, r0, lsr #23
    2b90:	62020000 	andvs	r0, r2, #0
    2b94:	3f04006c 	svccc	0x0004006c

00002b96 <Code_603>:
    2b96:	3f04      	subs	r7, #4
    2b98:	603e      	str	r6, [r7, #0]
    2b9a:	2620      	movs	r6, #32
    2b9c:	4770      	bx	lr
    2b9e:	46c0      	nop			; (mov r8, r8)

00002ba0 <Dictionary_606>:
    2ba0:	00002bb4 			; <UNDEFINED> instruction: 0x00002bb4
    2ba4:	73050000 	movwvc	r0, #20480	; 0x5000
    2ba8:	65636170 	strbvs	r6, [r3, #-368]!	; 0x170

00002bac <Code_606>:
    2bac:	3f04      	subs	r7, #4
    2bae:	603e      	str	r6, [r7, #0]
    2bb0:	2620      	movs	r6, #32
    2bb2:	e64b      	b.n	284c <Code_556>

00002bb4 <Dictionary_609>:
    2bb4:	00002bd4 	ldrdeq	r2, [r0], -r4
    2bb8:	73060000 	movwvc	r0, #24576	; 0x6000
    2bbc:	65636170 	strbvs	r6, [r3, #-368]!	; 0x170
    2bc0:	b5000073 	strlt	r0, [r0, #-115]	; 0x73

00002bc2 <Code_609>:
    2bc2:	b500      	push	{lr}
    2bc4:	2e00      	cmp	r6, #0
    2bc6:	dd03      	ble.n	2bd0 <Code_609+0xe>
    2bc8:	f7ff fff0 	bl	2bac <Code_606>
    2bcc:	3e01      	subs	r6, #1
    2bce:	d1fb      	bne.n	2bc8 <Code_609+0x6>
    2bd0:	cf40      	ldmia	r7!, {r6}
    2bd2:	bd00      	pop	{pc}

00002bd4 <Dictionary_611>:
    2bd4:	00002be4 	andeq	r2, r0, r4, ror #23
    2bd8:	5b060050 	blpl	182d20 <BIT20+0x82d20>
    2bdc:	72616863 	rsbvc	r6, r1, #6488064	; 0x630000
    2be0:	e005005d 	and	r0, r5, sp, asr r0

00002be2 <Code_611>:
    2be2:	e005      	b.n	2bf0 <Code_612>

00002be4 <Dictionary_612>:
    2be4:	00002bfc 	strdeq	r2, [r0], -ip
    2be8:	63040000 	movwvs	r0, #16384	; 0x4000
    2bec:	00726168 	rsbseq	r6, r2, r8, ror #2

00002bf0 <Code_612>:
    2bf0:	b500      	push	{lr}
    2bf2:	f001 fc17 	bl	4424 <Code_1108>
    2bf6:	cf40      	ldmia	r7!, {r6}
    2bf8:	7836      	ldrb	r6, [r6, #0]
    2bfa:	bd00      	pop	{pc}

00002bfc <Dictionary_614>:
    2bfc:	00002c0c 	andeq	r2, r0, ip, lsl #24
    2c00:	28010450 	stmdacs	r1, {r4, r6, sl}

00002c04 <Code_614>:
    2c04:	3f04      	subs	r7, #4
    2c06:	603e      	str	r6, [r7, #0]
    2c08:	2629      	movs	r6, #41	; 0x29
    2c0a:	e006      	b.n	2c1a <Code_617+0x6>

00002c0c <Dictionary_617>:
    2c0c:	00002c28 	andeq	r2, r0, r8, lsr #24
    2c10:	5c010450 	cfstrspl	mvf0, [r1], {80}	; 0x50

00002c14 <Code_617>:
    2c14:	3f04      	subs	r7, #4
    2c16:	603e      	str	r6, [r7, #0]
    2c18:	2600      	movs	r6, #0
    2c1a:	b500      	push	{lr}
    2c1c:	f001 fc0c 	bl	4438 <Code_1110>
    2c20:	3704      	adds	r7, #4
    2c22:	cf40      	ldmia	r7!, {r6}
    2c24:	bd00      	pop	{pc}
    2c26:	46c0      	nop			; (mov r8, r8)

00002c28 <Dictionary_622>:
    2c28:	00002c70 	andeq	r2, r0, r0, ror ip
    2c2c:	2e020010 	mcrcs	0, 0, r0, cr2, cr0, {0}
    2c30:	489f0022 	ldmmi	pc, {r1, r5}	; <UNPREDICTABLE>

00002c32 <Code_622>:
    2c32:	489f      	ldr	r0, [pc, #636]	; (2eb0 <Code_661+0x94>)
    2c34:	b500      	push	{lr}
    2c36:	3f04      	subs	r7, #4
    2c38:	603e      	str	r6, [r7, #0]
    2c3a:	0006      	movs	r6, r0
    2c3c:	f000 f9f8 	bl	3030 <Code_708>
    2c40:	3f04      	subs	r7, #4
    2c42:	603e      	str	r6, [r7, #0]
    2c44:	2622      	movs	r6, #34	; 0x22
    2c46:	f001 fbf7 	bl	4438 <Code_1110>
    2c4a:	f000 fd32 	bl	36b2 <Code_838>
    2c4e:	bd00      	pop	{pc}

00002c50 <dotgaensefuesschen>:
    2c50:	b40a      	push	{r1, r3}
    2c52:	3f04      	subs	r7, #4
    2c54:	603e      	str	r6, [r7, #0]
    2c56:	4676      	mov	r6, lr
    2c58:	3e01      	subs	r6, #1
    2c5a:	7833      	ldrb	r3, [r6, #0]
    2c5c:	2101      	movs	r1, #1
    2c5e:	3301      	adds	r3, #1
    2c60:	4019      	ands	r1, r3
    2c62:	185b      	adds	r3, r3, r1
    2c64:	4671      	mov	r1, lr
    2c66:	18c9      	adds	r1, r1, r3
    2c68:	468e      	mov	lr, r1
    2c6a:	bc0a      	pop	{r1, r3}
    2c6c:	e03c      	b.n	2ce8 <Code_637>
    2c6e:	46c0      	nop			; (mov r8, r8)

00002c70 <Dictionary_628>:
    2c70:	00002c98 	muleq	r0, r8, ip
    2c74:	63020010 	movwvs	r0, #8208	; 0x2010
    2c78:	488e0022 	stmmi	lr, {r1, r5}

00002c7a <Code_628>:
    2c7a:	488e      	ldr	r0, [pc, #568]	; (2eb4 <Code_661+0x98>)
    2c7c:	e7da      	b.n	2c34 <Code_622+0x2>

00002c7e <dotcfuesschen>:
    2c7e:	3f04      	subs	r7, #4
    2c80:	603e      	str	r6, [r7, #0]
    2c82:	4676      	mov	r6, lr
    2c84:	3e01      	subs	r6, #1
    2c86:	7833      	ldrb	r3, [r6, #0]
    2c88:	2101      	movs	r1, #1
    2c8a:	3301      	adds	r3, #1
    2c8c:	4019      	ands	r1, r3
    2c8e:	185b      	adds	r3, r3, r1
    2c90:	4671      	mov	r1, lr
    2c92:	18c9      	adds	r1, r1, r3
    2c94:	468e      	mov	lr, r1
    2c96:	4770      	bx	lr

00002c98 <Dictionary_630>:
    2c98:	00002cc4 	andeq	r2, r0, r4, asr #25
    2c9c:	73020010 	movwvc	r0, #8208	; 0x2010
    2ca0:	48850022 	stmmi	r5, {r1, r5}

00002ca2 <Code_630>:
    2ca2:	4885      	ldr	r0, [pc, #532]	; (2eb8 <Code_661+0x9c>)
    2ca4:	e7c6      	b.n	2c34 <Code_622+0x2>

00002ca6 <dotsfuesschen>:
    2ca6:	3f04      	subs	r7, #4
    2ca8:	603e      	str	r6, [r7, #0]
    2caa:	4676      	mov	r6, lr
    2cac:	3f04      	subs	r7, #4
    2cae:	603e      	str	r6, [r7, #0]
    2cb0:	3e01      	subs	r6, #1
    2cb2:	7836      	ldrb	r6, [r6, #0]
    2cb4:	2101      	movs	r1, #1
    2cb6:	1c73      	adds	r3, r6, #1
    2cb8:	4019      	ands	r1, r3
    2cba:	185b      	adds	r3, r3, r1
    2cbc:	4671      	mov	r1, lr
    2cbe:	18c9      	adds	r1, r1, r3
    2cc0:	468e      	mov	lr, r1
    2cc2:	4770      	bx	lr

00002cc4 <Dictionary_634>:
    2cc4:	00002cdc 	ldrdeq	r2, [r0], -ip
    2cc8:	63050000 	movwvs	r0, #20480	; 0x5000
    2ccc:	746e756f 	strbtvc	r7, [lr], #-1391	; 0x56f

00002cd0 <Code_634>:
    2cd0:	3601      	adds	r6, #1
    2cd2:	3f04      	subs	r7, #4
    2cd4:	603e      	str	r6, [r7, #0]
    2cd6:	3e01      	subs	r6, #1
    2cd8:	7836      	ldrb	r6, [r6, #0]
    2cda:	4770      	bx	lr

00002cdc <Dictionary_637>:
    2cdc:	00002d04 	andeq	r2, r0, r4, lsl #26
    2ce0:	63050000 	movwvs	r0, #20480	; 0x5000
    2ce4:	65707974 	ldrbvs	r7, [r0, #-2420]!	; 0x974

00002ce8 <Code_637>:
    2ce8:	b501      	push	{r0, lr}
    2cea:	7830      	ldrb	r0, [r6, #0]
    2cec:	2800      	cmp	r0, #0
    2cee:	d007      	beq.n	2d00 <Code_637+0x18>
    2cf0:	3601      	adds	r6, #1
    2cf2:	3f04      	subs	r7, #4
    2cf4:	603e      	str	r6, [r7, #0]
    2cf6:	7836      	ldrb	r6, [r6, #0]
    2cf8:	f7ff fda8 	bl	284c <Code_556>
    2cfc:	3801      	subs	r0, #1
    2cfe:	d1f7      	bne.n	2cf0 <Code_637+0x8>
    2d00:	cf40      	ldmia	r7!, {r6}
    2d02:	bd01      	pop	{r0, pc}

00002d04 <Dictionary_641>:
    2d04:	00002d34 	andeq	r2, r0, r4, lsr sp
    2d08:	74040000 	strvc	r0, [r4]
    2d0c:	00657079 	rsbeq	r7, r5, r9, ror r0

00002d10 <Code_641>:
    2d10:	0031      	movs	r1, r6
    2d12:	cf40      	ldmia	r7!, {r6}
    2d14:	0030      	movs	r0, r6
    2d16:	cf40      	ldmia	r7!, {r6}

00002d18 <stype_addr_r0_len_r1>:
    2d18:	b500      	push	{lr}
    2d1a:	2900      	cmp	r1, #0
    2d1c:	d008      	beq.n	2d30 <stype_addr_r0_len_r1+0x18>
    2d1e:	2200      	movs	r2, #0
    2d20:	3f04      	subs	r7, #4
    2d22:	603e      	str	r6, [r7, #0]
    2d24:	5c86      	ldrb	r6, [r0, r2]
    2d26:	f7ff fd91 	bl	284c <Code_556>
    2d2a:	3201      	adds	r2, #1
    2d2c:	4291      	cmp	r1, r2
    2d2e:	d1f7      	bne.n	2d20 <stype_addr_r0_len_r1+0x8>
    2d30:	bd00      	pop	{pc}
    2d32:	46c0      	nop			; (mov r8, r8)

00002d34 <Dictionary_645>:
    2d34:	00002d70 	andeq	r2, r0, r0, ror sp
    2d38:	68040000 	stmdavs	r4, {}	; <UNPREDICTABLE>
    2d3c:	002e7865 	eoreq	r7, lr, r5, ror #16

00002d40 <Code_645>:
    2d40:	b507      	push	{r0, r1, r2, lr}
    2d42:	0031      	movs	r1, r6
    2d44:	cf40      	ldmia	r7!, {r6}
    2d46:	2020      	movs	r0, #32
    2d48:	220f      	movs	r2, #15
    2d4a:	3804      	subs	r0, #4
    2d4c:	3f04      	subs	r7, #4
    2d4e:	603e      	str	r6, [r7, #0]
    2d50:	000e      	movs	r6, r1
    2d52:	40c6      	lsrs	r6, r0
    2d54:	4016      	ands	r6, r2
    2d56:	2e09      	cmp	r6, #9
    2d58:	d901      	bls.n	2d5e <Code_645+0x1e>
    2d5a:	3637      	adds	r6, #55	; 0x37
    2d5c:	e000      	b.n	2d60 <Code_645+0x20>
    2d5e:	3630      	adds	r6, #48	; 0x30
    2d60:	f7ff fd74 	bl	284c <Code_556>
    2d64:	2800      	cmp	r0, #0
    2d66:	d1f0      	bne.n	2d4a <Code_645+0xa>
    2d68:	f7ff ff20 	bl	2bac <Code_606>
    2d6c:	bd07      	pop	{r0, r1, r2, pc}
    2d6e:	46c0      	nop			; (mov r8, r8)

00002d70 <Dictionary_648>:
    2d70:	00002d80 	andeq	r2, r0, r0, lsl #27
    2d74:	68030000 	stmdavs	r3, {}	; <UNPREDICTABLE>
    2d78:	b51f732e 	ldrlt	r7, [pc, #-814]	; 2a52 <Code_575+0x5c>

00002d7a <Code_648>:
    2d7a:	b51f      	push	{r0, r1, r2, r3, r4, lr}
    2d7c:	4c4f      	ldr	r4, [pc, #316]	; (2ebc <Code_661+0xa0>)
    2d7e:	e00e      	b.n	2d9e <Code_650+0x4>

00002d80 <Dictionary_649>:
    2d80:	00002d90 	muleq	r0, r0, sp
    2d84:	75030000 	strvc	r0, [r3]
    2d88:	b51f732e 	ldrlt	r7, [pc, #-814]	; 2a62 <Dictionary_579+0x2>

00002d8a <Code_649>:
    2d8a:	b51f      	push	{r0, r1, r2, r3, r4, lr}
    2d8c:	4c4c      	ldr	r4, [pc, #304]	; (2ec0 <Code_661+0xa4>)
    2d8e:	e006      	b.n	2d9e <Code_650+0x4>

00002d90 <Dictionary_650>:
    2d90:	00002e10 	andeq	r2, r0, r0, lsl lr
    2d94:	2e020000 	cdpcs	0, 0, cr0, cr2, cr0, {0}
    2d98:	b51f0073 	ldrlt	r0, [pc, #-115]	; 2d2d <stype_addr_r0_len_r1+0x15>

00002d9a <Code_650>:
    2d9a:	b51f      	push	{r0, r1, r2, r3, r4, lr}
    2d9c:	4c49      	ldr	r4, [pc, #292]	; (2ec4 <Code_661+0xa8>)
    2d9e:	494a      	ldr	r1, [pc, #296]	; (2ec8 <Code_661+0xac>)
    2da0:	1bc9      	subs	r1, r1, r7
    2da2:	0889      	lsrs	r1, r1, #2
    2da4:	4a49      	ldr	r2, [pc, #292]	; (2ecc <Code_661+0xb0>)
    2da6:	6810      	ldr	r0, [r2, #0]
    2da8:	b403      	push	{r0, r1}
    2daa:	200a      	movs	r0, #10
    2dac:	6010      	str	r0, [r2, #0]
    2dae:	f7ff ff4f 	bl	2c50 <dotgaensefuesschen>
    2db2:	61745308 	cmnvs	r4, r8, lsl #6
    2db6:	203a6b63 	eorscs	r6, sl, r3, ror #22
    2dba:	3f04005b 	svccc	0x0004005b
    2dbe:	603e      	str	r6, [r7, #0]
    2dc0:	000e      	movs	r6, r1
    2dc2:	f001 fd17 	bl	47f4 <Code_1176>
    2dc6:	f7ff ff43 	bl	2c50 <dotgaensefuesschen>
    2dca:	00205d02 	eoreq	r5, r0, r2, lsl #26
    2dce:	bc03      	pop	{r0, r1}
    2dd0:	4a3e      	ldr	r2, [pc, #248]	; (2ecc <Code_661+0xb0>)
    2dd2:	6010      	str	r0, [r2, #0]
    2dd4:	2900      	cmp	r1, #0
    2dd6:	d00a      	beq.n	2dee <Code_650+0x54>
    2dd8:	4a3d      	ldr	r2, [pc, #244]	; (2ed0 <Code_661+0xb4>)
    2dda:	6810      	ldr	r0, [r2, #0]
    2ddc:	b406      	push	{r1, r2}
    2dde:	3f04      	subs	r7, #4
    2de0:	603e      	str	r6, [r7, #0]
    2de2:	0006      	movs	r6, r0
    2de4:	47a0      	blx	r4
    2de6:	bc06      	pop	{r1, r2}
    2de8:	3a04      	subs	r2, #4
    2dea:	3901      	subs	r1, #1
    2dec:	d1f5      	bne.n	2dda <Code_650+0x40>
    2dee:	f7ff ff2f 	bl	2c50 <dotgaensefuesschen>
    2df2:	4f542006 	svcmi	0x00542006
    2df6:	00203a53 	eoreq	r3, r0, r3, asr sl
    2dfa:	3f04      	subs	r7, #4
    2dfc:	603e      	str	r6, [r7, #0]
    2dfe:	0036      	movs	r6, r6
    2e00:	47a0      	blx	r4
    2e02:	f7ff ff25 	bl	2c50 <dotgaensefuesschen>
    2e06:	3e2a2004 	cdpcc	0, 2, cr2, cr10, cr4, {0}
    2e0a:	bd1f000a 	ldclt	0, cr0, [pc, #-40]	; 2de8 <Code_650+0x4e>
    2e0e:	46c0      	nop			; (mov r8, r8)

00002e10 <Dictionary_661>:
    2e10:	00002ed4 	ldrdeq	r2, [r0], -r4
    2e14:	77050000 	strvc	r0, [r5, -r0]
    2e18:	7364726f 	cmnvc	r4, #-268435450	; 0xf0000006

00002e1c <Code_661>:
    2e1c:	b500      	push	{lr}
    2e1e:	f7ff ff17 	bl	2c50 <dotgaensefuesschen>
    2e22:	f0000a01 			; <UNDEFINED> instruction: 0xf0000a01
    2e26:	fe85 f7ff 	mcr2	7, 4, pc, cr5, cr15, {7}	; <UNPREDICTABLE>
    2e2a:	ff12 4109 	vrhadd.u16	d4, d2, d9
    2e2e:	65726464 	ldrbvs	r6, [r2, #-1124]!	; 0x464
    2e32:	203a7373 	eorscs	r7, sl, r3, ror r3
    2e36:	3f04      	subs	r7, #4
    2e38:	603e      	str	r6, [r7, #0]
    2e3a:	f7ff ff81 	bl	2d40 <Code_645>
    2e3e:	f7ff ff07 	bl	2c50 <dotgaensefuesschen>
    2e42:	6e694c06 	cdpvs	12, 6, cr4, cr9, cr6, {0}
    2e46:	00203a6b 	eoreq	r3, r0, fp, ror #20
    2e4a:	3f04      	subs	r7, #4
    2e4c:	603e      	str	r6, [r7, #0]
    2e4e:	6836      	ldr	r6, [r6, #0]
    2e50:	f7ff ff76 	bl	2d40 <Code_645>
    2e54:	f7ff fefc 	bl	2c50 <dotgaensefuesschen>
    2e58:	616c4607 	cmnvs	ip, r7, lsl #12
    2e5c:	203a7367 	eorscs	r7, sl, r7, ror #6
    2e60:	3f04      	subs	r7, #4
    2e62:	603e      	str	r6, [r7, #0]
    2e64:	88b6      	ldrh	r6, [r6, #4]
    2e66:	f7ff ff6b 	bl	2d40 <Code_645>
    2e6a:	f7ff fef1 	bl	2c50 <dotgaensefuesschen>
    2e6e:	646f4306 	strbtvs	r4, [pc], #-774	; 2e76 <Code_661+0x5a>
    2e72:	00203a65 	eoreq	r3, r0, r5, ror #20
    2e76:	1db0      	adds	r0, r6, #6
    2e78:	f000 fe96 	bl	3ba8 <skipstring>
    2e7c:	3f04      	subs	r7, #4
    2e7e:	603e      	str	r6, [r7, #0]
    2e80:	0006      	movs	r6, r0
    2e82:	f7ff ff5d 	bl	2d40 <Code_645>
    2e86:	f7ff fee3 	bl	2c50 <dotgaensefuesschen>
    2e8a:	6d614e06 	stclvs	14, cr4, [r1, #-24]!	; 0xffffffe8
    2e8e:	00203a65 	eoreq	r3, r0, r5, ror #20
    2e92:	3f04      	subs	r7, #4
    2e94:	603e      	str	r6, [r7, #0]
    2e96:	3606      	adds	r6, #6
    2e98:	f7ff ff26 	bl	2ce8 <Code_637>
    2e9c:	f7ff fed8 	bl	2c50 <dotgaensefuesschen>
    2ea0:	f0000a01 			; <UNDEFINED> instruction: 0xf0000a01
    2ea4:	fe5e 0030 	mrc2	0, 2, r0, cr14, cr0, {1}
    2ea8:	cf40      	ldmia	r7!, {r6}
    2eaa:	d0bd      	beq.n	2e28 <Code_661+0xc>
    2eac:	cf40      	ldmia	r7!, {r6}
    2eae:	bd00      	pop	{pc}
    2eb0:	00002c50 	andeq	r2, r0, r0, asr ip
    2eb4:	00002c7e 	andeq	r2, r0, lr, ror ip
    2eb8:	00002ca6 	andeq	r2, r0, r6, lsr #25
    2ebc:	00002d41 	andeq	r2, r0, r1, asr #26
    2ec0:	000047e3 	andeq	r4, r0, r3, ror #15
    2ec4:	000047f5 	strdeq	r4, [r0], -r5
    2ec8:	1ffff28c 	svcne	0x00fff28c
    2ecc:	20002ffc 	strdcs	r2, [r0], -ip
    2ed0:	1ffff288 	svcne	0x00fff288

00002ed4 <Dictionary_681>:
    2ed4:	00003024 	andeq	r3, r0, r4, lsr #32
    2ed8:	72100000 	andsvc	r0, r0, #0
    2edc:	73696765 	cmnvc	r9, #26476544	; 0x1940000
    2ee0:	6c726574 	cfldr64vs	mvdx6, [r2], #-464	; 0xfffffe30
    2ee4:	72657469 	rsbvc	r7, r5, #1761607680	; 0x69000000
    2ee8:	002c6c61 	eoreq	r6, ip, r1, ror #24

00002eec <Code_681>:
    2eec:	b53f      	push	{r0, r1, r2, r3, r4, r5, lr}
    2eee:	4ba6      	ldr	r3, [pc, #664]	; (3188 <Code_733+0x32>)
    2ef0:	6838      	ldr	r0, [r7, #0]
    2ef2:	4018      	ands	r0, r3
    2ef4:	4298      	cmp	r0, r3
    2ef6:	d10f      	bne.n	2f18 <Code_681+0x2c>
    2ef8:	6838      	ldr	r0, [r7, #0]
    2efa:	43c0      	mvns	r0, r0
    2efc:	6038      	str	r0, [r7, #0]
    2efe:	b440      	push	{r6}
    2f00:	f000 f80d 	bl	2f1e <registerliteralkomma_intern>
    2f04:	3f04      	subs	r7, #4
    2f06:	603e      	str	r6, [r7, #0]
    2f08:	4ea0      	ldr	r6, [pc, #640]	; (318c <Code_733+0x36>)
    2f0a:	bc01      	pop	{r0}
    2f0c:	4306      	orrs	r6, r0
    2f0e:	00c0      	lsls	r0, r0, #3
    2f10:	4306      	orrs	r6, r0
    2f12:	f000 fb8e 	bl	3632 <Code_826>
    2f16:	bd3f      	pop	{r0, r1, r2, r3, r4, r5, pc}
    2f18:	f000 f801 	bl	2f1e <registerliteralkomma_intern>
    2f1c:	bd3f      	pop	{r0, r1, r2, r3, r4, r5, pc}

00002f1e <registerliteralkomma_intern>:
    2f1e:	b500      	push	{lr}
    2f20:	0035      	movs	r5, r6
    2f22:	cf40      	ldmia	r7!, {r6}
    2f24:	0029      	movs	r1, r5
    2f26:	00c9      	lsls	r1, r1, #3
    2f28:	4329      	orrs	r1, r5
    2f2a:	022d      	lsls	r5, r5, #8
    2f2c:	4898      	ldr	r0, [pc, #608]	; (3190 <Code_733+0x3a>)
    2f2e:	4305      	orrs	r5, r0
    2f30:	23ff      	movs	r3, #255	; 0xff
    2f32:	2200      	movs	r2, #0
    2f34:	0030      	movs	r0, r6
    2f36:	40d0      	lsrs	r0, r2
    2f38:	4398      	bics	r0, r3
    2f3a:	d001      	beq.n	2f40 <registerliteralkomma_intern+0x22>
    2f3c:	3201      	adds	r2, #1
    2f3e:	e7f9      	b.n	2f34 <registerliteralkomma_intern+0x16>
    2f40:	0030      	movs	r0, r6
    2f42:	40d0      	lsrs	r0, r2
    2f44:	4018      	ands	r0, r3
    2f46:	4328      	orrs	r0, r5
    2f48:	3f04      	subs	r7, #4
    2f4a:	603e      	str	r6, [r7, #0]
    2f4c:	0006      	movs	r6, r0
    2f4e:	f000 fb70 	bl	3632 <Code_826>
    2f52:	4890      	ldr	r0, [pc, #576]	; (3194 <Code_733+0x3e>)
    2f54:	4305      	orrs	r5, r0
    2f56:	0018      	movs	r0, r3
    2f58:	4090      	lsls	r0, r2
    2f5a:	4386      	bics	r6, r0
    2f5c:	d010      	beq.n	2f80 <registerliteralkomma_intern+0x62>
    2f5e:	2400      	movs	r4, #0
    2f60:	0030      	movs	r0, r6
    2f62:	40e0      	lsrs	r0, r4
    2f64:	4398      	bics	r0, r3
    2f66:	d001      	beq.n	2f6c <registerliteralkomma_intern+0x4e>
    2f68:	3401      	adds	r4, #1
    2f6a:	e7f9      	b.n	2f60 <registerliteralkomma_intern+0x42>
    2f6c:	1b10      	subs	r0, r2, r4
    2f6e:	3f04      	subs	r7, #4
    2f70:	603e      	str	r6, [r7, #0]
    2f72:	000e      	movs	r6, r1
    2f74:	0180      	lsls	r0, r0, #6
    2f76:	4306      	orrs	r6, r0
    2f78:	f000 fb5b 	bl	3632 <Code_826>
    2f7c:	0022      	movs	r2, r4
    2f7e:	e7df      	b.n	2f40 <registerliteralkomma_intern+0x22>
    2f80:	2a00      	cmp	r2, #0
    2f82:	d006      	beq.n	2f92 <registerliteralkomma_intern+0x74>
    2f84:	3f04      	subs	r7, #4
    2f86:	603e      	str	r6, [r7, #0]
    2f88:	000e      	movs	r6, r1
    2f8a:	0192      	lsls	r2, r2, #6
    2f8c:	4316      	orrs	r6, r2
    2f8e:	f000 fb50 	bl	3632 <Code_826>
    2f92:	cf40      	ldmia	r7!, {r6}
    2f94:	bd00      	pop	{pc}

00002f96 <registerliteralkommalang>:
    2f96:	b51f      	push	{r0, r1, r2, r3, r4, lr}
    2f98:	0031      	movs	r1, r6
    2f9a:	cf40      	ldmia	r7!, {r6}
    2f9c:	4c7e      	ldr	r4, [pc, #504]	; (3198 <Code_733+0x42>)
    2f9e:	430c      	orrs	r4, r1
    2fa0:	00c9      	lsls	r1, r1, #3
    2fa2:	430c      	orrs	r4, r1
    2fa4:	0149      	lsls	r1, r1, #5
    2fa6:	0030      	movs	r0, r6
    2fa8:	cf40      	ldmia	r7!, {r6}
    2faa:	0e02      	lsrs	r2, r0, #24
    2fac:	23ff      	movs	r3, #255	; 0xff
    2fae:	401a      	ands	r2, r3
    2fb0:	4b77      	ldr	r3, [pc, #476]	; (3190 <Code_733+0x3a>)
    2fb2:	430b      	orrs	r3, r1
    2fb4:	4313      	orrs	r3, r2
    2fb6:	3f04      	subs	r7, #4
    2fb8:	603e      	str	r6, [r7, #0]
    2fba:	001e      	movs	r6, r3
    2fbc:	f000 fb39 	bl	3632 <Code_826>
    2fc0:	3f04      	subs	r7, #4
    2fc2:	603e      	str	r6, [r7, #0]
    2fc4:	0026      	movs	r6, r4
    2fc6:	f000 fb34 	bl	3632 <Code_826>
    2fca:	0c02      	lsrs	r2, r0, #16
    2fcc:	23ff      	movs	r3, #255	; 0xff
    2fce:	401a      	ands	r2, r3
    2fd0:	4b72      	ldr	r3, [pc, #456]	; (319c <Code_733+0x46>)
    2fd2:	430b      	orrs	r3, r1
    2fd4:	4313      	orrs	r3, r2
    2fd6:	3f04      	subs	r7, #4
    2fd8:	603e      	str	r6, [r7, #0]
    2fda:	001e      	movs	r6, r3
    2fdc:	f000 fb29 	bl	3632 <Code_826>
    2fe0:	3f04      	subs	r7, #4
    2fe2:	603e      	str	r6, [r7, #0]
    2fe4:	0026      	movs	r6, r4
    2fe6:	f000 fb24 	bl	3632 <Code_826>
    2fea:	0a02      	lsrs	r2, r0, #8
    2fec:	23ff      	movs	r3, #255	; 0xff
    2fee:	401a      	ands	r2, r3
    2ff0:	4b6a      	ldr	r3, [pc, #424]	; (319c <Code_733+0x46>)
    2ff2:	430b      	orrs	r3, r1
    2ff4:	4313      	orrs	r3, r2
    2ff6:	3f04      	subs	r7, #4
    2ff8:	603e      	str	r6, [r7, #0]
    2ffa:	001e      	movs	r6, r3
    2ffc:	f000 fb19 	bl	3632 <Code_826>
    3000:	3f04      	subs	r7, #4
    3002:	603e      	str	r6, [r7, #0]
    3004:	0026      	movs	r6, r4
    3006:	f000 fb14 	bl	3632 <Code_826>
    300a:	0002      	movs	r2, r0
    300c:	23ff      	movs	r3, #255	; 0xff
    300e:	401a      	ands	r2, r3
    3010:	4b62      	ldr	r3, [pc, #392]	; (319c <Code_733+0x46>)
    3012:	430b      	orrs	r3, r1
    3014:	4313      	orrs	r3, r2
    3016:	3f04      	subs	r7, #4
    3018:	603e      	str	r6, [r7, #0]
    301a:	001e      	movs	r6, r3
    301c:	f000 fb09 	bl	3632 <Code_826>
    3020:	bd1f      	pop	{r0, r1, r2, r3, r4, pc}
    3022:	46c0      	nop			; (mov r8, r8)

00003024 <Dictionary_708>:
    3024:	00003094 	muleq	r0, r4, r0
    3028:	63050000 	movwvs	r0, #20480	; 0x5000
    302c:	2c6c6c61 	stclcs	12, cr6, [ip], #-388	; 0xfffffe7c

00003030 <Code_708>:
    3030:	b50f      	push	{r0, r1, r2, r3, lr}
    3032:	0033      	movs	r3, r6
    3034:	f000 fe5c 	bl	3cf0 <Code_942>
    3038:	0030      	movs	r0, r6
    303a:	cf40      	ldmia	r7!, {r6}
    303c:	1a1b      	subs	r3, r3, r0
    303e:	3b04      	subs	r3, #4
    3040:	4957      	ldr	r1, [pc, #348]	; (31a0 <Code_733+0x4a>)
    3042:	4019      	ands	r1, r3
    3044:	2900      	cmp	r1, #0
    3046:	d00e      	beq.n	3066 <Code_708+0x36>
    3048:	4a56      	ldr	r2, [pc, #344]	; (31a4 <Code_733+0x4e>)
    304a:	4291      	cmp	r1, r2
    304c:	d00b      	beq.n	3066 <Code_708+0x36>
    304e:	3601      	adds	r6, #1
    3050:	3f04      	subs	r7, #4
    3052:	603e      	str	r6, [r7, #0]
    3054:	2600      	movs	r6, #0
    3056:	f7ff ff49 	bl	2eec <Code_681>
    305a:	3f04      	subs	r7, #4
    305c:	603e      	str	r6, [r7, #0]
    305e:	4e52      	ldr	r6, [pc, #328]	; (31a8 <Code_733+0x52>)
    3060:	f000 fae7 	bl	3632 <Code_826>
    3064:	bd0f      	pop	{r0, r1, r2, r3, pc}
    3066:	cf40      	ldmia	r7!, {r6}
    3068:	085b      	lsrs	r3, r3, #1
    306a:	4850      	ldr	r0, [pc, #320]	; (31ac <Code_733+0x56>)
    306c:	4950      	ldr	r1, [pc, #320]	; (31b0 <Code_733+0x5a>)
    306e:	4019      	ands	r1, r3
    3070:	4308      	orrs	r0, r1
    3072:	0adb      	lsrs	r3, r3, #11
    3074:	494f      	ldr	r1, [pc, #316]	; (31b4 <Code_733+0x5e>)
    3076:	4019      	ands	r1, r3
    3078:	0409      	lsls	r1, r1, #16
    307a:	4308      	orrs	r0, r1
    307c:	0a9b      	lsrs	r3, r3, #10
    307e:	2101      	movs	r1, #1
    3080:	4019      	ands	r1, r3
    3082:	0689      	lsls	r1, r1, #26
    3084:	4308      	orrs	r0, r1
    3086:	3f04      	subs	r7, #4
    3088:	603e      	str	r6, [r7, #0]
    308a:	0006      	movs	r6, r0
    308c:	f000 fb01 	bl	3692 <Code_835>
    3090:	bd0f      	pop	{r0, r1, r2, r3, pc}
    3092:	46c0      	nop			; (mov r8, r8)

00003094 <Dictionary_717>:
    3094:	000030c8 	andeq	r3, r0, r8, asr #1
    3098:	6c080000 	stcvs	0, cr0, [r8], {0}
    309c:	72657469 	rsbvc	r7, r5, #1761607680	; 0x69000000
    30a0:	002c6c61 	eoreq	r6, ip, r1, ror #24

000030a4 <Code_717>:
    30a4:	b500      	push	{lr}
    30a6:	3f04      	subs	r7, #4
    30a8:	603e      	str	r6, [r7, #0]
    30aa:	4e43      	ldr	r6, [pc, #268]	; (31b8 <Code_733+0x62>)
    30ac:	f000 fac1 	bl	3632 <Code_826>
    30b0:	3f04      	subs	r7, #4
    30b2:	603e      	str	r6, [r7, #0]
    30b4:	4e41      	ldr	r6, [pc, #260]	; (31bc <Code_733+0x66>)
    30b6:	f000 fabc 	bl	3632 <Code_826>
    30ba:	3f04      	subs	r7, #4
    30bc:	603e      	str	r6, [r7, #0]
    30be:	2606      	movs	r6, #6
    30c0:	f7ff ff14 	bl	2eec <Code_681>
    30c4:	bd00      	pop	{pc}
    30c6:	46c0      	nop			; (mov r8, r8)

000030c8 <Dictionary_724>:
    30c8:	000030f0 	strdeq	r3, [r0], -r0
    30cc:	63060000 	movwvs	r0, #24576	; 0x6000
    30d0:	74616572 	strbtvc	r6, [r1], #-1394	; 0x572
    30d4:	b5000065 	strlt	r0, [r0, #-101]	; 0x65

000030d6 <Code_724>:
    30d6:	b500      	push	{lr}
    30d8:	f000 f83d 	bl	3156 <Code_733>
    30dc:	2031      	movs	r0, #49	; 0x31
    30de:	0200      	lsls	r0, r0, #8
    30e0:	300f      	adds	r0, #15
    30e2:	4780      	blx	r0
    30e4:	3f04      	subs	r7, #4
    30e6:	603e      	str	r6, [r7, #0]
    30e8:	4676      	mov	r6, lr
    30ea:	3e01      	subs	r6, #1
    30ec:	bd00      	pop	{pc}
    30ee:	46c0      	nop			; (mov r8, r8)

000030f0 <Dictionary_726>:
    30f0:	00003148 	andeq	r3, r0, r8, asr #2
    30f4:	64050020 	strvs	r0, [r5], #-32
    30f8:	3e73656f 	cdpcc	5, 7, cr6, cr3, cr15, {3}

000030fc <Code_726>:
    30fc:	2031      	movs	r0, #49	; 0x31
    30fe:	0200      	lsls	r0, r0, #8
    3100:	300f      	adds	r0, #15
    3102:	4780      	blx	r0
    3104:	3f04      	subs	r7, #4
    3106:	603e      	str	r6, [r7, #0]
    3108:	4676      	mov	r6, lr
    310a:	3e01      	subs	r6, #1
    310c:	4770      	bx	lr

0000310e <dodoes>:
    310e:	3f04      	subs	r7, #4
    3110:	603e      	str	r6, [r7, #0]
    3112:	4676      	mov	r6, lr
    3114:	3e01      	subs	r6, #1
    3116:	4a2a      	ldr	r2, [pc, #168]	; (31c0 <Code_733+0x6a>)
    3118:	6813      	ldr	r3, [r2, #0]
    311a:	492a      	ldr	r1, [pc, #168]	; (31c4 <Code_733+0x6e>)
    311c:	6809      	ldr	r1, [r1, #0]
    311e:	2002      	movs	r0, #2
    3120:	4008      	ands	r0, r1
    3122:	d100      	bne.n	3126 <dodoes+0x18>
    3124:	3102      	adds	r1, #2
    3126:	3102      	adds	r1, #2
    3128:	6011      	str	r1, [r2, #0]
    312a:	3601      	adds	r6, #1
    312c:	3f04      	subs	r7, #4
    312e:	603e      	str	r6, [r7, #0]
    3130:	2600      	movs	r6, #0
    3132:	f7ff ff30 	bl	2f96 <registerliteralkommalang>
    3136:	3f04      	subs	r7, #4
    3138:	603e      	str	r6, [r7, #0]
    313a:	4e1b      	ldr	r6, [pc, #108]	; (31a8 <Code_733+0x52>)
    313c:	f000 fa79 	bl	3632 <Code_826>
    3140:	6013      	str	r3, [r2, #0]
    3142:	f000 f9ea 	bl	351a <Code_813>
    3146:	bd00      	pop	{pc}

00003148 <Dictionary_733>:
    3148:	000031cc 	andeq	r3, r0, ip, asr #3
    314c:	3c070000 	stccc	0, cr0, [r7], {0}
    3150:	6c697562 	cfstr64vs	mvdx7, [r9], #-392	; 0xfffffe78
    3154:	b5007364 	strlt	r7, [r0, #-868]	; 0x364

00003156 <Code_733>:
    3156:	b500      	push	{lr}
    3158:	f000 fb78 	bl	384c <Code_857>
    315c:	f000 fdc8 	bl	3cf0 <Code_942>
    3160:	2002      	movs	r0, #2
    3162:	4006      	ands	r6, r0
    3164:	cf40      	ldmia	r7!, {r6}
    3166:	d104      	bne.n	3172 <Code_733+0x1c>
    3168:	3f04      	subs	r7, #4
    316a:	603e      	str	r6, [r7, #0]
    316c:	2636      	movs	r6, #54	; 0x36
    316e:	f000 fa60 	bl	3632 <Code_826>
    3172:	3f04      	subs	r7, #4
    3174:	603e      	str	r6, [r7, #0]
    3176:	4e14      	ldr	r6, [pc, #80]	; (31c8 <Code_733+0x72>)
    3178:	f000 fa5b 	bl	3632 <Code_826>
    317c:	3f04      	subs	r7, #4
    317e:	603e      	str	r6, [r7, #0]
    3180:	2610      	movs	r6, #16
    3182:	f000 fac9 	bl	3718 <Code_846>
    3186:	bd00      	pop	{pc}
    3188:	ffff0000 			; <UNDEFINED> instruction: 0xffff0000
    318c:	000043c0 	andeq	r4, r0, r0, asr #7
    3190:	00002000 	andeq	r2, r0, r0
    3194:	00001000 	andeq	r1, r0, r0
    3198:	00000200 	andeq	r0, r0, r0, lsl #4
    319c:	00003000 	andeq	r3, r0, r0
    31a0:	ffc00001 			; <UNDEFINED> instruction: 0xffc00001
    31a4:	ffc00000 			; <UNDEFINED> instruction: 0xffc00000
    31a8:	00004780 	andeq	r4, r0, r0, lsl #15
    31ac:	f000f800 			; <UNDEFINED> instruction: 0xf000f800
    31b0:	000007ff 	strdeq	r0, [r0], -pc	; <UNPREDICTABLE>
    31b4:	000003ff 	strdeq	r0, [r0], -pc	; <UNPREDICTABLE>
    31b8:	00003f04 	andeq	r3, r0, r4, lsl #30
    31bc:	0000603e 	andeq	r6, r0, lr, lsr r0
    31c0:	1ffff000 	svcne	0x00fff000
    31c4:	1ffff014 	svcne	0x00fff014
    31c8:	0000b500 	andeq	fp, r0, r0, lsl #10

000031cc <Dictionary_741>:
    31cc:	000031d8 	ldrdeq	r3, [r0], -r8
    31d0:	5b030050 	blpl	c3318 <BIT19+0x43318>
    31d4:	e0035d27 	and	r5, r3, r7, lsr #26

000031d6 <Code_741>:
    31d6:	e003      	b.n	31e0 <Code_742>

000031d8 <Dictionary_742>:
    31d8:	000031f0 	strdeq	r3, [r0], -r0
    31dc:	27010000 	strcs	r0, [r1, -r0]

000031e0 <Code_742>:
    31e0:	b500      	push	{lr}
    31e2:	f001 f91f 	bl	4424 <Code_1108>
    31e6:	f000 fd1e 	bl	3c26 <find_not_found>
    31ea:	0030      	movs	r0, r6
    31ec:	cf40      	ldmia	r7!, {r6}
    31ee:	bd00      	pop	{pc}

000031f0 <Dictionary_744>:
    31f0:	00003228 	andeq	r3, r0, r8, lsr #4
    31f4:	70080030 	andvc	r0, r8, r0, lsr r0
    31f8:	7074736f 	rsbsvc	r7, r4, pc, ror #6
    31fc:	00656e6f 	rsbeq	r6, r5, pc, ror #28

00003200 <Code_744>:
    3200:	b500      	push	{lr}
    3202:	f7ff ffed 	bl	31e0 <Code_742>
    3206:	3f04      	subs	r7, #4
    3208:	603e      	str	r6, [r7, #0]
    320a:	0006      	movs	r6, r0
    320c:	6839      	ldr	r1, [r7, #0]
    320e:	603e      	str	r6, [r7, #0]
    3210:	460e      	mov	r6, r1
    3212:	f7ff ff47 	bl	30a4 <Code_717>
    3216:	f7ff ff45 	bl	30a4 <Code_717>
    321a:	3f04      	subs	r7, #4
    321c:	603e      	str	r6, [r7, #0]
    321e:	4ee4      	ldr	r6, [pc, #912]	; (35b0 <setflags_ram+0x1c>)
    3220:	f7ff ff06 	bl	3030 <Code_708>
    3224:	bd00      	pop	{pc}
    3226:	46c0      	nop			; (mov r8, r8)

00003228 <Dictionary_749>:
    3228:	00003274 	andeq	r3, r0, r4, ror r2
    322c:	69070000 	stmdbvs	r7, {}	; <UNPREDICTABLE>
    3230:	6e696c6e 	cdpvs	12, 6, cr6, cr9, cr14, {3}
    3234:	b5002c65 	strlt	r2, [r0, #-3173]	; 0xc65

00003236 <Code_749>:
    3236:	b500      	push	{lr}
    3238:	49de      	ldr	r1, [pc, #888]	; (35b4 <setflags_ram+0x20>)
    323a:	4adf      	ldr	r2, [pc, #892]	; (35b8 <setflags_ram+0x24>)
    323c:	4bdf      	ldr	r3, [pc, #892]	; (35bc <setflags_ram+0x28>)
    323e:	8830      	ldrh	r0, [r6, #0]
    3240:	4288      	cmp	r0, r1
    3242:	d008      	beq.n	3256 <Code_749+0x20>
    3244:	4290      	cmp	r0, r2
    3246:	d008      	beq.n	325a <Code_749+0x24>
    3248:	4298      	cmp	r0, r3
    324a:	d006      	beq.n	325a <Code_749+0x24>
    324c:	3f04      	subs	r7, #4
    324e:	603e      	str	r6, [r7, #0]
    3250:	0006      	movs	r6, r0
    3252:	f000 f9ee 	bl	3632 <Code_826>
    3256:	3602      	adds	r6, #2
    3258:	e7f1      	b.n	323e <Code_749+0x8>
    325a:	cf40      	ldmia	r7!, {r6}
    325c:	bd00      	pop	{pc}

0000325e <suchedefinitionsende>:
    325e:	b40e      	push	{r1, r2, r3}
    3260:	4ad5      	ldr	r2, [pc, #852]	; (35b8 <setflags_ram+0x24>)
    3262:	4bd6      	ldr	r3, [pc, #856]	; (35bc <setflags_ram+0x28>)
    3264:	8801      	ldrh	r1, [r0, #0]
    3266:	3002      	adds	r0, #2
    3268:	4291      	cmp	r1, r2
    326a:	d001      	beq.n	3270 <suchedefinitionsende+0x12>
    326c:	4299      	cmp	r1, r3
    326e:	d1f9      	bne.n	3264 <suchedefinitionsende+0x6>
    3270:	bc0e      	pop	{r1, r2, r3}
    3272:	4770      	bx	lr

00003274 <Dictionary_753>:
    3274:	00003288 	andeq	r3, r0, r8, lsl #5
    3278:	72040000 	andvc	r0, r4, #0
    327c:	002c7465 	eoreq	r7, ip, r5, ror #8

00003280 <Code_753>:
    3280:	3f04      	subs	r7, #4
    3282:	603e      	str	r6, [r7, #0]
    3284:	4ecc      	ldr	r6, [pc, #816]	; (35b8 <setflags_ram+0x24>)
    3286:	e1d4      	b.n	3632 <Code_826>

00003288 <Dictionary_756>:
    3288:	00003298 	muleq	r0, r8, r2
    328c:	65040030 	strvs	r0, [r4, #-48]	; 0x30
    3290:	00746978 	rsbseq	r6, r4, r8, ror r9

00003294 <Code_756>:
    3294:	e7f4      	b.n	3280 <Code_753>
    3296:	46c0      	nop			; (mov r8, r8)

00003298 <Dictionary_757>:
    3298:	000032b0 			; <UNDEFINED> instruction: 0x000032b0
    329c:	72070030 	andvc	r0, r7, #48	; 0x30
    32a0:	72756365 	rsbsvc	r6, r5, #-1811939327	; 0x94000001
    32a4:	3f046573 	svccc	0x00046573

000032a6 <Code_757>:
    32a6:	3f04      	subs	r7, #4
    32a8:	603e      	str	r6, [r7, #0]
    32aa:	4ec5      	ldr	r6, [pc, #788]	; (35c0 <setflags_ram+0x2c>)
    32ac:	6836      	ldr	r6, [r6, #0]
    32ae:	e6bf      	b.n	3030 <Code_708>

000032b0 <Dictionary_759>:
    32b0:	000032c8 	andeq	r3, r0, r8, asr #5
    32b4:	73050081 	movwvc	r0, #20609	; 0x5081
    32b8:	65746174 	ldrbvs	r6, [r4, #-372]!	; 0x174

000032bc <Code_759>:
    32bc:	3f04      	subs	r7, #4
    32be:	603e      	str	r6, [r7, #0]
    32c0:	4ec0      	ldr	r6, [pc, #768]	; (35c4 <setflags_ram+0x30>)
    32c2:	4770      	bx	lr
    32c4:	00000000 	andeq	r0, r0, r0

000032c8 <Dictionary_762>:
    32c8:	000032dc 	ldrdeq	r3, [r0], -ip
    32cc:	5d010000 	stcpl	0, cr0, [r1]

000032d0 <Code_762>:
    32d0:	48bc      	ldr	r0, [pc, #752]	; (35c4 <setflags_ram+0x30>)
    32d2:	2100      	movs	r1, #0
    32d4:	43c9      	mvns	r1, r1
    32d6:	6001      	str	r1, [r0, #0]
    32d8:	4770      	bx	lr
    32da:	46c0      	nop			; (mov r8, r8)

000032dc <Dictionary_763>:
    32dc:	000032ec 	andeq	r3, r0, ip, ror #5
    32e0:	5b010010 	blpl	43328 <BIT18+0x3328>

000032e4 <Code_763>:
    32e4:	48b7      	ldr	r0, [pc, #732]	; (35c4 <setflags_ram+0x30>)
    32e6:	2100      	movs	r1, #0
    32e8:	6001      	str	r1, [r0, #0]
    32ea:	4770      	bx	lr

000032ec <Dictionary_764>:
    32ec:	0000330c 	andeq	r3, r0, ip, lsl #6
    32f0:	3a010000 	bcc	432f8 <BIT18+0x32f8>

000032f4 <Code_764>:
    32f4:	b500      	push	{lr}
    32f6:	48b4      	ldr	r0, [pc, #720]	; (35c8 <setflags_ram+0x34>)
    32f8:	6007      	str	r7, [r0, #0]
    32fa:	f000 faa7 	bl	384c <Code_857>
    32fe:	48b1      	ldr	r0, [pc, #708]	; (35c4 <setflags_ram+0x30>)
    3300:	2101      	movs	r1, #1
    3302:	6001      	str	r1, [r0, #0]
    3304:	48b1      	ldr	r0, [pc, #708]	; (35cc <setflags_ram+0x38>)
    3306:	2100      	movs	r1, #0
    3308:	6001      	str	r1, [r0, #0]
    330a:	bd00      	pop	{pc}

0000330c <Dictionary_765>:
    330c:	00003378 	andeq	r3, r0, r8, ror r3
    3310:	3b010830 	blcc	453d8 <BIT18+0x53d8>

00003314 <Code_765>:
    3314:	b500      	push	{lr}
    3316:	48ac      	ldr	r0, [pc, #688]	; (35c8 <setflags_ram+0x34>)
    3318:	6801      	ldr	r1, [r0, #0]
    331a:	42b9      	cmp	r1, r7
    331c:	d00e      	beq.n	333c <Code_765+0x28>
    331e:	f7ff fc97 	bl	2c50 <dotgaensefuesschen>
    3322:	74532015 	ldrbvc	r2, [r3], #-21
    3326:	206b6361 	rsbcs	r6, fp, r1, ror #6
    332a:	20746f6e 	rsbscs	r6, r4, lr, ror #30
    332e:	616c6162 	cmnvs	ip, r2, ror #2
    3332:	6465636e 	strbtvs	r6, [r5], #-878	; 0x36e
    3336:	f0010a2e 			; <UNDEFINED> instruction: 0xf0010a2e
    333a:	fbf2 48a1 			; <UNDEFINED> instruction: 0xfbf248a1
    333e:	6800      	ldr	r0, [r0, #0]
    3340:	1c41      	adds	r1, r0, #1
    3342:	d00e      	beq.n	3362 <Code_765+0x4e>
    3344:	280b      	cmp	r0, #11
    3346:	d804      	bhi.n	3352 <Code_765+0x3e>
    3348:	3f04      	subs	r7, #4
    334a:	603e      	str	r6, [r7, #0]
    334c:	4ea0      	ldr	r6, [pc, #640]	; (35d0 <setflags_ram+0x3c>)
    334e:	f000 f915 	bl	357c <Code_819>
    3352:	3f04      	subs	r7, #4
    3354:	603e      	str	r6, [r7, #0]
    3356:	4e99      	ldr	r6, [pc, #612]	; (35bc <setflags_ram+0x28>)
    3358:	f000 f96b 	bl	3632 <Code_826>
    335c:	f001 fae7 	bl	492e <inline_cache_schreiben>
    3360:	e004      	b.n	336c <Code_765+0x58>
    3362:	3f04      	subs	r7, #4
    3364:	603e      	str	r6, [r7, #0]
    3366:	4e94      	ldr	r6, [pc, #592]	; (35b8 <setflags_ram+0x24>)
    3368:	f000 f963 	bl	3632 <Code_826>
    336c:	f000 f8d5 	bl	351a <Code_813>
    3370:	4894      	ldr	r0, [pc, #592]	; (35c4 <setflags_ram+0x30>)
    3372:	2100      	movs	r1, #0
    3374:	6001      	str	r1, [r0, #0]
    3376:	bd00      	pop	{pc}

00003378 <Dictionary_773>:
    3378:	0000338c 	andeq	r3, r0, ip, lsl #7
    337c:	65070000 	strvs	r0, [r7]
    3380:	75636578 	strbvc	r6, [r3, #-1400]!	; 0x578
    3384:	00306574 	eorseq	r6, r0, r4, ror r5

00003386 <Code_773>:
    3386:	0030      	movs	r0, r6
    3388:	cf40      	ldmia	r7!, {r6}
    338a:	4687      	mov	pc, r0

0000338c <Dictionary_775>:
    338c:	000033a4 	andeq	r3, r0, r4, lsr #7
    3390:	69090010 	stmdbvs	r9, {r4}
    3394:	64656d6d 	strbtvs	r6, [r5], #-3437	; 0xd6d
    3398:	65746169 	ldrbvs	r6, [r4, #-361]!	; 0x169

0000339c <Code_775>:
    339c:	3f04      	subs	r7, #4
    339e:	603e      	str	r6, [r7, #0]
    33a0:	2610      	movs	r6, #16
    33a2:	e0eb      	b.n	357c <Code_819>

000033a4 <Dictionary_778>:
    33a4:	000033bc 			; <UNDEFINED> instruction: 0x000033bc
    33a8:	69060050 	stmdbvs	r6, {r4, r6}
    33ac:	6e696c6e 	cdpvs	12, 6, cr6, cr9, cr14, {3}
    33b0:	3f040065 	svccc	0x00040065

000033b2 <Code_778>:
    33b2:	3f04      	subs	r7, #4
    33b4:	603e      	str	r6, [r7, #0]
    33b6:	2620      	movs	r6, #32
    33b8:	e0e0      	b.n	357c <Code_819>
    33ba:	46c0      	nop			; (mov r8, r8)

000033bc <Dictionary_781>:
    33bc:	000033d8 	ldrdeq	r3, [r0], -r8
    33c0:	630b0010 	movwvs	r0, #45072	; 0xb010
    33c4:	69706d6f 	ldmdbvs	r0!, {r0, r1, r2, r3, r5, r6, r8, sl, fp, sp, lr}^
    33c8:	6e6f656c 	cdpvs	5, 6, cr6, cr15, cr12, {3}
    33cc:	3f04796c 	svccc	0x0004796c

000033ce <Code_781>:
    33ce:	3f04      	subs	r7, #4
    33d0:	603e      	str	r6, [r7, #0]
    33d2:	2630      	movs	r6, #48	; 0x30
    33d4:	e0d2      	b.n	357c <Code_819>
    33d6:	46c0      	nop			; (mov r8, r8)

000033d8 <Dictionary_784>:
    33d8:	000033f4 	strdeq	r3, [r0], -r4
    33dc:	300a0050 	andcc	r0, sl, r0, asr r0
    33e0:	6c6f662d 	stclvs	6, cr6, [pc], #-180	; 3334 <Code_765+0x20>
    33e4:	6c626164 	stfvse	f6, [r2], #-400	; 0xfffffe70
    33e8:	3f040065 	svccc	0x00040065

000033ea <Code_784>:
    33ea:	3f04      	subs	r7, #4
    33ec:	603e      	str	r6, [r7, #0]
    33ee:	2640      	movs	r6, #64	; 0x40
    33f0:	e0c4      	b.n	357c <Code_819>
    33f2:	46c0      	nop			; (mov r8, r8)

000033f4 <Dictionary_787>:
    33f4:	00003410 	andeq	r3, r0, r0, lsl r4
    33f8:	310a0050 	qaddcc	r0, r0, sl
    33fc:	6c6f662d 	stclvs	6, cr6, [pc], #-180	; 3350 <Code_765+0x3c>
    3400:	6c626164 	stfvse	f6, [r2], #-400	; 0xfffffe70
    3404:	3f040065 	svccc	0x00040065

00003406 <Code_787>:
    3406:	3f04      	subs	r7, #4
    3408:	603e      	str	r6, [r7, #0]
    340a:	2641      	movs	r6, #65	; 0x41
    340c:	e0b6      	b.n	357c <Code_819>
    340e:	46c0      	nop			; (mov r8, r8)

00003410 <Dictionary_790>:
    3410:	0000342c 	andeq	r3, r0, ip, lsr #8
    3414:	320a0050 	andcc	r0, sl, #80	; 0x50
    3418:	6c6f662d 	stclvs	6, cr6, [pc], #-180	; 336c <Code_765+0x58>
    341c:	6c626164 	stfvse	f6, [r2], #-400	; 0xfffffe70
    3420:	3f040065 	svccc	0x00040065

00003422 <Code_790>:
    3422:	3f04      	subs	r7, #4
    3424:	603e      	str	r6, [r7, #0]
    3426:	2642      	movs	r6, #66	; 0x42
    3428:	e0a8      	b.n	357c <Code_819>
    342a:	46c0      	nop			; (mov r8, r8)

0000342c <Dictionary_793>:
    342c:	00003448 	andeq	r3, r0, r8, asr #8
    3430:	330a0050 	movwcc	r0, #41040	; 0xa050
    3434:	6c6f662d 	stclvs	6, cr6, [pc], #-180	; 3388 <Code_773+0x2>
    3438:	6c626164 	stfvse	f6, [r2], #-400	; 0xfffffe70
    343c:	3f040065 	svccc	0x00040065

0000343e <Code_793>:
    343e:	3f04      	subs	r7, #4
    3440:	603e      	str	r6, [r7, #0]
    3442:	2643      	movs	r6, #67	; 0x43
    3444:	e09a      	b.n	357c <Code_819>
    3446:	46c0      	nop			; (mov r8, r8)

00003448 <Dictionary_796>:
    3448:	00003464 	andeq	r3, r0, r4, ror #8
    344c:	340a0050 	strcc	r0, [sl], #-80	; 0x50
    3450:	6c6f662d 	stclvs	6, cr6, [pc], #-180	; 33a4 <Dictionary_778>
    3454:	6c626164 	stfvse	f6, [r2], #-400	; 0xfffffe70
    3458:	3f040065 	svccc	0x00040065

0000345a <Code_796>:
    345a:	3f04      	subs	r7, #4
    345c:	603e      	str	r6, [r7, #0]
    345e:	2644      	movs	r6, #68	; 0x44
    3460:	e08c      	b.n	357c <Code_819>
    3462:	46c0      	nop			; (mov r8, r8)

00003464 <Dictionary_799>:
    3464:	00003480 	andeq	r3, r0, r0, lsl #9
    3468:	350a0050 	strcc	r0, [sl, #-80]	; 0x50
    346c:	6c6f662d 	stclvs	6, cr6, [pc], #-180	; 33c0 <Dictionary_781+0x4>
    3470:	6c626164 	stfvse	f6, [r2], #-400	; 0xfffffe70
    3474:	3f040065 	svccc	0x00040065

00003476 <Code_799>:
    3476:	3f04      	subs	r7, #4
    3478:	603e      	str	r6, [r7, #0]
    347a:	2645      	movs	r6, #69	; 0x45
    347c:	e07e      	b.n	357c <Code_819>
    347e:	46c0      	nop			; (mov r8, r8)

00003480 <Dictionary_802>:
    3480:	0000349c 	muleq	r0, ip, r4
    3484:	360a0050 			; <UNDEFINED> instruction: 0x360a0050
    3488:	6c6f662d 	stclvs	6, cr6, [pc], #-180	; 33dc <Dictionary_784+0x4>
    348c:	6c626164 	stfvse	f6, [r2], #-400	; 0xfffffe70
    3490:	3f040065 	svccc	0x00040065

00003492 <Code_802>:
    3492:	3f04      	subs	r7, #4
    3494:	603e      	str	r6, [r7, #0]
    3496:	2646      	movs	r6, #70	; 0x46
    3498:	e070      	b.n	357c <Code_819>
    349a:	46c0      	nop			; (mov r8, r8)

0000349c <Dictionary_805>:
    349c:	000034b8 			; <UNDEFINED> instruction: 0x000034b8
    34a0:	370a0050 	smlsdcc	sl, r0, r0, r0
    34a4:	6c6f662d 	stclvs	6, cr6, [pc], #-180	; 33f8 <Dictionary_787+0x4>
    34a8:	6c626164 	stfvse	f6, [r2], #-400	; 0xfffffe70
    34ac:	3f040065 	svccc	0x00040065

000034ae <Code_805>:
    34ae:	3f04      	subs	r7, #4
    34b0:	603e      	str	r6, [r7, #0]
    34b2:	2647      	movs	r6, #71	; 0x47
    34b4:	e062      	b.n	357c <Code_819>
    34b6:	46c0      	nop			; (mov r8, r8)

000034b8 <Dictionary_808>:
    34b8:	000034e8 	andeq	r3, r0, r8, ror #9
    34bc:	63080000 	movwvs	r0, #32768	; 0x8000
    34c0:	74736e6f 	ldrbtvc	r6, [r3], #-3695	; 0xe6f
    34c4:	00746e61 	rsbseq	r6, r4, r1, ror #28

000034c8 <Code_808>:
    34c8:	b500      	push	{lr}
    34ca:	f000 f9bf 	bl	384c <Code_857>
    34ce:	f7ff fde9 	bl	30a4 <Code_717>
    34d2:	3f04      	subs	r7, #4
    34d4:	603e      	str	r6, [r7, #0]
    34d6:	4e39      	ldr	r6, [pc, #228]	; (35bc <setflags_ram+0x28>)
    34d8:	f000 f8ab 	bl	3632 <Code_826>
    34dc:	f7ff ff85 	bl	33ea <Code_784>
    34e0:	f000 f81b 	bl	351a <Code_813>
    34e4:	bd00      	pop	{pc}
    34e6:	46c0      	nop			; (mov r8, r8)

000034e8 <Dictionary_811>:
    34e8:	0000350c 	andeq	r3, r0, ip, lsl #10
    34ec:	32090000 	andcc	r0, r9, #0
    34f0:	736e6f63 	cmnvc	lr, #396	; 0x18c
    34f4:	746e6174 	strbtvc	r6, [lr], #-372	; 0x174

000034f8 <Code_811>:
    34f8:	b500      	push	{lr}
    34fa:	f000 f9a7 	bl	384c <Code_857>
    34fe:	6839      	ldr	r1, [r7, #0]
    3500:	603e      	str	r6, [r7, #0]
    3502:	460e      	mov	r6, r1
    3504:	f7ff fdce 	bl	30a4 <Code_717>
    3508:	e7e1      	b.n	34ce <Code_808+0x6>
    350a:	46c0      	nop			; (mov r8, r8)

0000350c <Dictionary_813>:
    350c:	0000356c 	andeq	r3, r0, ip, ror #10
    3510:	73060000 	movwvc	r0, #24576	; 0x6000
    3514:	6764756d 	strbvs	r7, [r4, -sp, ror #10]!
    3518:	b5000065 	strlt	r0, [r0, #-101]	; 0x65

0000351a <Code_813>:
    351a:	b500      	push	{lr}
    351c:	482d      	ldr	r0, [pc, #180]	; (35d4 <setflags_ram+0x40>)
    351e:	6801      	ldr	r1, [r0, #0]
    3520:	4a2c      	ldr	r2, [pc, #176]	; (35d4 <setflags_ram+0x40>)
    3522:	4291      	cmp	r1, r2
    3524:	d21c      	bcs.n	3560 <smudge_ram>
    3526:	3902      	subs	r1, #2
    3528:	880a      	ldrh	r2, [r1, #0]
    352a:	4b2b      	ldr	r3, [pc, #172]	; (35d8 <setflags_ram+0x44>)
    352c:	429a      	cmp	r2, r3
    352e:	d104      	bne.n	353a <Code_813+0x20>
    3530:	3f04      	subs	r7, #4
    3532:	603e      	str	r6, [r7, #0]
    3534:	4e29      	ldr	r6, [pc, #164]	; (35dc <setflags_ram+0x48>)
    3536:	f000 f87c 	bl	3632 <Code_826>
    353a:	f000 f869 	bl	3610 <Code_823>
    353e:	4828      	ldr	r0, [pc, #160]	; (35e0 <setflags_ram+0x4c>)
    3540:	6800      	ldr	r0, [r0, #0]
    3542:	3f04      	subs	r7, #4
    3544:	603e      	str	r6, [r7, #0]
    3546:	0006      	movs	r6, r0
    3548:	4926      	ldr	r1, [pc, #152]	; (35e4 <setflags_ram+0x50>)
    354a:	6809      	ldr	r1, [r1, #0]
    354c:	3104      	adds	r1, #4
    354e:	4a21      	ldr	r2, [pc, #132]	; (35d4 <setflags_ram+0x40>)
    3550:	6813      	ldr	r3, [r2, #0]
    3552:	6011      	str	r1, [r2, #0]
    3554:	f000 f86d 	bl	3632 <Code_826>
    3558:	6013      	str	r3, [r2, #0]
    355a:	f7fe feb5 	bl	22c8 <sammeltabelleleerprobe>
    355e:	bd00      	pop	{pc}

00003560 <smudge_ram>:
    3560:	f000 f856 	bl	3610 <Code_823>
    3564:	3f04      	subs	r7, #4
    3566:	603e      	str	r6, [r7, #0]
    3568:	2600      	movs	r6, #0
    356a:	e008      	b.n	357e <setflags_intern>

0000356c <Dictionary_819>:
    356c:	000035e8 	andeq	r3, r0, r8, ror #11
    3570:	73080000 	movwvc	r0, #32768	; 0x8000
    3574:	6c667465 	cfstrdvs	mvd7, [r6], #-404	; 0xfffffe6c
    3578:	00736761 	rsbseq	r6, r3, r1, ror #14

0000357c <Code_819>:
    357c:	b500      	push	{lr}

0000357e <setflags_intern>:
    357e:	4815      	ldr	r0, [pc, #84]	; (35d4 <setflags_ram+0x40>)
    3580:	6801      	ldr	r1, [r0, #0]
    3582:	4a14      	ldr	r2, [pc, #80]	; (35d4 <setflags_ram+0x40>)
    3584:	4291      	cmp	r1, r2
    3586:	d205      	bcs.n	3594 <setflags_ram>
    3588:	4815      	ldr	r0, [pc, #84]	; (35e0 <setflags_ram+0x4c>)
    358a:	6801      	ldr	r1, [r0, #0]
    358c:	4331      	orrs	r1, r6
    358e:	6001      	str	r1, [r0, #0]
    3590:	cf40      	ldmia	r7!, {r6}
    3592:	bd00      	pop	{pc}

00003594 <setflags_ram>:
    3594:	0032      	movs	r2, r6
    3596:	cf40      	ldmia	r7!, {r6}
    3598:	4812      	ldr	r0, [pc, #72]	; (35e4 <setflags_ram+0x50>)
    359a:	6800      	ldr	r0, [r0, #0]
    359c:	3004      	adds	r0, #4
    359e:	8801      	ldrh	r1, [r0, #0]
    35a0:	4b0d      	ldr	r3, [pc, #52]	; (35d8 <setflags_ram+0x44>)
    35a2:	4299      	cmp	r1, r3
    35a4:	d101      	bne.n	35aa <setflags_ram+0x16>
    35a6:	0011      	movs	r1, r2
    35a8:	e000      	b.n	35ac <setflags_ram+0x18>
    35aa:	4311      	orrs	r1, r2
    35ac:	8001      	strh	r1, [r0, #0]
    35ae:	bd00      	pop	{pc}
    35b0:	00004832 	andeq	r4, r0, r2, lsr r8
    35b4:	0000b500 	andeq	fp, r0, r0, lsl #10
    35b8:	0000bd00 	andeq	fp, r0, r0, lsl #26
    35bc:	00004770 	andeq	r4, r0, r0, ror r7
    35c0:	1ffff014 	svcne	0x00fff014
    35c4:	20002fd8 	ldrdcs	r2, [r0], -r8
    35c8:	1ffff010 	svcne	0x00fff010
    35cc:	1ffff05c 	svcne	0x00fff05c
    35d0:	00000820 	andeq	r0, r0, r0, lsr #16
    35d4:	1ffff000 	svcne	0x00fff000
    35d8:	0000ffff 	strdeq	pc, [r0], -pc	; <UNPREDICTABLE>
    35dc:	00000000 	andeq	r0, r0, r0
    35e0:	1ffff020 	svcne	0x00fff020
    35e4:	1ffff004 	svcne	0x00fff004

000035e8 <Dictionary_822>:
    35e8:	00003604 	andeq	r3, r0, r4, lsl #12
    35ec:	61070041 	tstvs	r7, r1, asr #32
    35f0:	6e67696c 	cdpvs	9, 6, cr6, cr7, cr12, {3}
    35f4:	20016465 	andcs	r6, r1, r5, ror #8

000035f6 <Code_822>:
    35f6:	2001      	movs	r0, #1
    35f8:	4030      	ands	r0, r6
    35fa:	1836      	adds	r6, r6, r0
    35fc:	2002      	movs	r0, #2
    35fe:	4030      	ands	r0, r6
    3600:	1836      	adds	r6, r6, r0
    3602:	4770      	bx	lr

00003604 <Dictionary_823>:
    3604:	00003628 	andeq	r3, r0, r8, lsr #12
    3608:	61050000 	mrsvs	r0, (UNDEF: 5)
    360c:	6e67696c 	cdpvs	9, 6, cr6, cr7, cr12, {3}

00003610 <Code_823>:
    3610:	b500      	push	{lr}
    3612:	4883      	ldr	r0, [pc, #524]	; (3820 <Zweitpointertausch+0x4e>)
    3614:	6801      	ldr	r1, [r0, #0]
    3616:	2002      	movs	r0, #2
    3618:	4001      	ands	r1, r0
    361a:	d004      	beq.n	3626 <Code_823+0x16>
    361c:	3f04      	subs	r7, #4
    361e:	603e      	str	r6, [r7, #0]
    3620:	2600      	movs	r6, #0
    3622:	f000 f806 	bl	3632 <Code_826>
    3626:	bd00      	pop	{pc}

00003628 <Dictionary_826>:
    3628:	0000366c 	andeq	r3, r0, ip, ror #12
    362c:	68020000 	stmdavs	r2, {}	; <UNPREDICTABLE>
    3630:	b50f002c 	strlt	r0, [pc, #-44]	; 360c <Dictionary_823+0x8>

00003632 <Code_826>:
    3632:	b50f      	push	{r0, r1, r2, r3, lr}
    3634:	b2b6      	uxth	r6, r6
    3636:	487b      	ldr	r0, [pc, #492]	; (3824 <Zweitpointertausch+0x52>)
    3638:	6801      	ldr	r1, [r0, #0]
    363a:	2900      	cmp	r1, #0
    363c:	d002      	beq.n	3644 <Code_826+0x12>
    363e:	3101      	adds	r1, #1
    3640:	d000      	beq.n	3644 <Code_826+0x12>
    3642:	6001      	str	r1, [r0, #0]
    3644:	4876      	ldr	r0, [pc, #472]	; (3820 <Zweitpointertausch+0x4e>)
    3646:	6801      	ldr	r1, [r0, #0]
    3648:	4a75      	ldr	r2, [pc, #468]	; (3820 <Zweitpointertausch+0x4e>)
    364a:	4291      	cmp	r1, r2
    364c:	d205      	bcs.n	365a <hkomma_ram>
    364e:	3f04      	subs	r7, #4
    3650:	603e      	str	r6, [r7, #0]
    3652:	000e      	movs	r6, r1
    3654:	f7fe fe5b 	bl	230e <Code_451>
    3658:	e002      	b.n	3660 <hkomma_fertig>

0000365a <hkomma_ram>:
    365a:	0032      	movs	r2, r6
    365c:	cf40      	ldmia	r7!, {r6}
    365e:	800a      	strh	r2, [r1, #0]

00003660 <hkomma_fertig>:
    3660:	3f04      	subs	r7, #4
    3662:	603e      	str	r6, [r7, #0]
    3664:	2602      	movs	r6, #2
    3666:	f000 f857 	bl	3718 <Code_846>
    366a:	bd0f      	pop	{r0, r1, r2, r3, pc}

0000366c <Dictionary_832>:
    366c:	00003688 	andeq	r3, r0, r8, lsl #13
    3670:	2c010000 	stccs	0, cr0, [r1], {0}

00003674 <Code_832>:
    3674:	b500      	push	{lr}
    3676:	3f04      	subs	r7, #4
    3678:	603e      	str	r6, [r7, #0]
    367a:	f7ff ffda 	bl	3632 <Code_826>
    367e:	0c36      	lsrs	r6, r6, #16
    3680:	f7ff ffd7 	bl	3632 <Code_826>
    3684:	bd00      	pop	{pc}
    3686:	46c0      	nop			; (mov r8, r8)

00003688 <Dictionary_835>:
    3688:	000036a4 	andeq	r3, r0, r4, lsr #13
    368c:	3e030000 	cdpcc	0, 0, cr0, cr3, cr0, {0}
    3690:	b5002c3c 	strlt	r2, [r0, #-3132]	; 0xc3c

00003692 <Code_835>:
    3692:	b500      	push	{lr}
    3694:	3f04      	subs	r7, #4
    3696:	603e      	str	r6, [r7, #0]
    3698:	0c36      	lsrs	r6, r6, #16
    369a:	f7ff ffca 	bl	3632 <Code_826>
    369e:	f7ff ffc8 	bl	3632 <Code_826>
    36a2:	bd00      	pop	{pc}

000036a4 <Dictionary_838>:
    36a4:	0000370c 	andeq	r3, r0, ip, lsl #14
    36a8:	73070000 	movwvc	r0, #28672	; 0x7000
    36ac:	6e697274 	mcrvs	2, 3, r7, cr9, cr4, {3}
    36b0:	b5072c67 	strlt	r2, [r7, #-3175]	; 0xc67

000036b2 <Code_838>:
    36b2:	b507      	push	{r0, r1, r2, lr}
    36b4:	21ff      	movs	r1, #255	; 0xff
    36b6:	4031      	ands	r1, r6
    36b8:	cf40      	ldmia	r7!, {r6}
    36ba:	0030      	movs	r0, r6
    36bc:	cf40      	ldmia	r7!, {r6}
    36be:	2900      	cmp	r1, #0
    36c0:	d105      	bne.n	36ce <Code_838+0x1c>
    36c2:	3f04      	subs	r7, #4
    36c4:	603e      	str	r6, [r7, #0]
    36c6:	2600      	movs	r6, #0
    36c8:	f7ff ffb3 	bl	3632 <Code_826>
    36cc:	bd07      	pop	{r0, r1, r2, pc}
    36ce:	3f04      	subs	r7, #4
    36d0:	603e      	str	r6, [r7, #0]
    36d2:	7806      	ldrb	r6, [r0, #0]
    36d4:	0236      	lsls	r6, r6, #8
    36d6:	430e      	orrs	r6, r1
    36d8:	f7ff ffab 	bl	3632 <Code_826>
    36dc:	3001      	adds	r0, #1
    36de:	3901      	subs	r1, #1
    36e0:	2902      	cmp	r1, #2
    36e2:	d30a      	bcc.n	36fa <Code_838+0x48>
    36e4:	3f04      	subs	r7, #4
    36e6:	603e      	str	r6, [r7, #0]
    36e8:	7846      	ldrb	r6, [r0, #1]
    36ea:	0236      	lsls	r6, r6, #8
    36ec:	7802      	ldrb	r2, [r0, #0]
    36ee:	4316      	orrs	r6, r2
    36f0:	f7ff ff9f 	bl	3632 <Code_826>
    36f4:	3002      	adds	r0, #2
    36f6:	3902      	subs	r1, #2
    36f8:	e7f2      	b.n	36e0 <Code_838+0x2e>
    36fa:	2900      	cmp	r1, #0
    36fc:	d100      	bne.n	3700 <Code_838+0x4e>
    36fe:	bd07      	pop	{r0, r1, r2, pc}
    3700:	3f04      	subs	r7, #4
    3702:	603e      	str	r6, [r7, #0]
    3704:	7806      	ldrb	r6, [r0, #0]
    3706:	f7ff ff94 	bl	3632 <Code_826>
    370a:	bd07      	pop	{r0, r1, r2, pc}

0000370c <Dictionary_846>:
    370c:	00003768 	andeq	r3, r0, r8, ror #14
    3710:	61050000 	mrsvs	r0, (UNDEF: 5)
    3714:	746f6c6c 	strbtvc	r6, [pc], #-3180	; 371c <Code_846+0x4>

00003718 <Code_846>:
    3718:	4841      	ldr	r0, [pc, #260]	; (3820 <Zweitpointertausch+0x4e>)
    371a:	6801      	ldr	r1, [r0, #0]
    371c:	4a40      	ldr	r2, [pc, #256]	; (3820 <Zweitpointertausch+0x4e>)
    371e:	4291      	cmp	r1, r2
    3720:	d20f      	bcs.n	3742 <allot_ram>
    3722:	0032      	movs	r2, r6
    3724:	cf40      	ldmia	r7!, {r6}
    3726:	1889      	adds	r1, r1, r2
    3728:	4a3f      	ldr	r2, [pc, #252]	; (3828 <Zweitpointertausch+0x56>)
    372a:	4291      	cmp	r1, r2
    372c:	d319      	bcc.n	3762 <allot_ok>
    372e:	f7ff fa8f 	bl	2c50 <dotgaensefuesschen>
    3732:	616c460b 	cmnvs	ip, fp, lsl #12
    3736:	66206873 			; <UNDEFINED> instruction: 0x66206873
    373a:	0a6c6c75 	beq	1b1e916 <BIT24+0xb1e916>
    373e:	f001 f9ef 	bl	4b20 <Code_1235>

00003742 <allot_ram>:
    3742:	0032      	movs	r2, r6
    3744:	cf40      	ldmia	r7!, {r6}
    3746:	1889      	adds	r1, r1, r2
    3748:	4a38      	ldr	r2, [pc, #224]	; (382c <Zweitpointertausch+0x5a>)
    374a:	6812      	ldr	r2, [r2, #0]
    374c:	4291      	cmp	r1, r2
    374e:	d308      	bcc.n	3762 <allot_ok>
    3750:	f7ff fa7e 	bl	2c50 <dotgaensefuesschen>
    3754:	6d615209 	sfmvs	f5, 2, [r1, #-36]!	; 0xffffffdc
    3758:	6c756620 	ldclvs	6, cr6, [r5], #-128	; 0xffffff80
    375c:	f0010a6c 			; <UNDEFINED> instruction: 0xf0010a6c
    3760:	f9df 6001 	ldr??.w	r6, [pc, #1]	; 3765 <allot_ok+0x3>

00003762 <allot_ok>:
    3762:	6001      	str	r1, [r0, #0]
    3764:	4770      	bx	lr
    3766:	46c0      	nop			; (mov r8, r8)

00003768 <Dictionary_851>:
    3768:	00003790 	muleq	r0, r0, r7
    376c:	630d0000 	movwvs	r0, #53248	; 0xd000
    3770:	69706d6f 	ldmdbvs	r0!, {r0, r1, r2, r3, r5, r6, r8, sl, fp, sp, lr}^
    3774:	6f74656c 	svcvs	0x0074656c
    3778:	3f6d6172 	svccc	0x006d6172

0000377c <Code_851>:
    377c:	3f04      	subs	r7, #4
    377e:	603e      	str	r6, [r7, #0]
    3780:	2600      	movs	r6, #0
    3782:	4827      	ldr	r0, [pc, #156]	; (3820 <Zweitpointertausch+0x4e>)
    3784:	6800      	ldr	r0, [r0, #0]
    3786:	4926      	ldr	r1, [pc, #152]	; (3820 <Zweitpointertausch+0x4e>)
    3788:	4288      	cmp	r0, r1
    378a:	d348      	bcc.n	381e <Zweitpointertausch+0x4c>
    378c:	43f6      	mvns	r6, r6
    378e:	4770      	bx	lr

00003790 <Dictionary_854>:
    3790:	000037b0 			; <UNDEFINED> instruction: 0x000037b0
    3794:	630c0000 	movwvs	r0, #49152	; 0xc000
    3798:	69706d6f 	ldmdbvs	r0!, {r0, r1, r2, r3, r5, r6, r8, sl, fp, sp, lr}^
    379c:	6f74656c 	svcvs	0x0074656c
    37a0:	006d6172 	rsbeq	r6, sp, r2, ror r1

000037a4 <Code_854>:
    37a4:	481e      	ldr	r0, [pc, #120]	; (3820 <Zweitpointertausch+0x4e>)
    37a6:	6800      	ldr	r0, [r0, #0]
    37a8:	491d      	ldr	r1, [pc, #116]	; (3820 <Zweitpointertausch+0x4e>)
    37aa:	4288      	cmp	r0, r1
    37ac:	d311      	bcc.n	37d2 <Zweitpointertausch>
    37ae:	4770      	bx	lr

000037b0 <Dictionary_855>:
    37b0:	0000383c 	andeq	r3, r0, ip, lsr r8
    37b4:	630e0000 	movwvs	r0, #57344	; 0xe000
    37b8:	69706d6f 	ldmdbvs	r0!, {r0, r1, r2, r3, r5, r6, r8, sl, fp, sp, lr}^
    37bc:	6f74656c 	svcvs	0x0074656c
    37c0:	73616c66 	cmnvc	r1, #26112	; 0x6600
    37c4:	48160068 	ldmdami	r6, {r3, r5, r6}

000037c6 <Code_855>:
    37c6:	4816      	ldr	r0, [pc, #88]	; (3820 <Zweitpointertausch+0x4e>)
    37c8:	6800      	ldr	r0, [r0, #0]
    37ca:	4915      	ldr	r1, [pc, #84]	; (3820 <Zweitpointertausch+0x4e>)
    37cc:	4288      	cmp	r0, r1
    37ce:	d200      	bcs.n	37d2 <Zweitpointertausch>
    37d0:	4770      	bx	lr

000037d2 <Zweitpointertausch>:
    37d2:	4817      	ldr	r0, [pc, #92]	; (3830 <Zweitpointertausch+0x5e>)
    37d4:	4917      	ldr	r1, [pc, #92]	; (3834 <Zweitpointertausch+0x62>)
    37d6:	6802      	ldr	r2, [r0, #0]
    37d8:	680b      	ldr	r3, [r1, #0]
    37da:	600a      	str	r2, [r1, #0]
    37dc:	6003      	str	r3, [r0, #0]
    37de:	4810      	ldr	r0, [pc, #64]	; (3820 <Zweitpointertausch+0x4e>)
    37e0:	4915      	ldr	r1, [pc, #84]	; (3838 <Zweitpointertausch+0x66>)
    37e2:	6802      	ldr	r2, [r0, #0]
    37e4:	680b      	ldr	r3, [r1, #0]
    37e6:	600a      	str	r2, [r1, #0]
    37e8:	6003      	str	r3, [r0, #0]
    37ea:	4810      	ldr	r0, [pc, #64]	; (382c <Zweitpointertausch+0x5a>)
    37ec:	6800      	ldr	r0, [r0, #0]
    37ee:	4283      	cmp	r3, r0
    37f0:	d315      	bcc.n	381e <Zweitpointertausch+0x4c>
    37f2:	b500      	push	{lr}
    37f4:	f7ff fa2c 	bl	2c50 <dotgaensefuesschen>
    37f8:	61562023 	cmpvs	r6, r3, lsr #32
    37fc:	62616972 	rsbvs	r6, r1, #1867776	; 0x1c8000
    3800:	2073656c 	rsbscs	r6, r3, ip, ror #10
    3804:	6c6c6f63 	stclvs	15, cr6, [ip], #-396	; 0xfffffe74
    3808:	20656469 	rsbcs	r6, r5, r9, ror #8
    380c:	68746977 	ldmdavs	r4!, {r0, r1, r2, r4, r5, r6, r8, fp, sp, lr}^
    3810:	63696420 	cmnvs	r9, #536870912	; 0x20000000
    3814:	6e6f6974 	mcrvs	9, 3, r6, cr15, cr4, {3}
    3818:	0a797261 	beq	1e601a4 <BIT24+0xe601a4>
    381c:	bd00      	pop	{pc}
    381e:	4770      	bx	lr
    3820:	1ffff000 	svcne	0x00fff000
    3824:	20002fd8 	ldrdcs	r2, [r0], -r8
    3828:	00020000 	andeq	r0, r2, r0
    382c:	1ffff024 	svcne	0x00fff024
    3830:	1ffff004 	svcne	0x00fff004
    3834:	1ffff01c 	svcne	0x00fff01c
    3838:	1ffff018 	svcne	0x00fff018

0000383c <Dictionary_857>:
    383c:	00003928 	andeq	r3, r0, r8, lsr #18
    3840:	28080000 	stmdacs	r8, {}	; <UNPREDICTABLE>
    3844:	61657263 	cmnvs	r5, r3, ror #4
    3848:	00296574 	eoreq	r6, r9, r4, ror r5

0000384c <Code_857>:
    384c:	b500      	push	{lr}
    384e:	f000 fde9 	bl	4424 <Code_1108>
    3852:	2e00      	cmp	r6, #0
    3854:	d10e      	bne.n	3874 <Code_857+0x28>
    3856:	f7ff f9fb 	bl	2c50 <dotgaensefuesschen>
    385a:	72432015 	subvc	r2, r3, #21
    385e:	65746165 	ldrbvs	r6, [r4, #-357]!	; 0x165
    3862:	65656e20 	strbvs	r6, [r5, #-3616]!	; 0xe20
    3866:	6e207364 	cdpvs	3, 2, cr7, cr0, cr4, {3}
    386a:	20656d61 	rsbcs	r6, r5, r1, ror #26
    386e:	f0010a21 			; <UNDEFINED> instruction: 0xf0010a21
    3872:	f956 6838 	ldr??.w	r6, [r6, <undefined>]
    3876:	3f04      	subs	r7, #4
    3878:	603e      	str	r6, [r7, #0]
    387a:	3f04      	subs	r7, #4
    387c:	6038      	str	r0, [r7, #0]
    387e:	f000 f9a3 	bl	3bc8 <Code_920>
    3882:	cf40      	ldmia	r7!, {r6}
    3884:	2e00      	cmp	r6, #0
    3886:	cf40      	ldmia	r7!, {r6}
    3888:	d011      	beq.n	38ae <Code_857+0x62>
    388a:	6838      	ldr	r0, [r7, #0]
    388c:	3f04      	subs	r7, #4
    388e:	603e      	str	r6, [r7, #0]
    3890:	3f04      	subs	r7, #4
    3892:	6038      	str	r0, [r7, #0]
    3894:	f7ff f9dc 	bl	2c50 <dotgaensefuesschen>
    3898:	64655209 	strbtvs	r5, [r5], #-521	; 0x209
    389c:	6e696665 	cdpvs	6, 6, cr6, cr9, cr5, {3}
    38a0:	f7ff2065 			; <UNDEFINED> instruction: 0xf7ff2065
    38a4:	fa35 f7ff 			; <UNDEFINED> instruction: 0xfa35f7ff
    38a8:	f9d3 2e02 	ldr??.w	r2, [r3, #3586]	; 0xe02
    38ac:	f7ff000a 			; <UNDEFINED> instruction: 0xf7ff000a
    38b0:	feaf f000 	cdp2	0, 10, cr15, cr15, cr0, {0}
    38b4:	fa1d 488d 			; <UNDEFINED> instruction: 0xfa1d488d
    38b8:	6800      	ldr	r0, [r0, #0]
    38ba:	498c      	ldr	r1, [pc, #560]	; (3aec <rambuffer_ram+0x44>)
    38bc:	4288      	cmp	r0, r1
    38be:	d21c      	bcs.n	38fa <create_ram>
    38c0:	488b      	ldr	r0, [pc, #556]	; (3af0 <rambuffer_ram+0x48>)
    38c2:	2100      	movs	r1, #0
    38c4:	6001      	str	r1, [r0, #0]
    38c6:	3f04      	subs	r7, #4
    38c8:	603e      	str	r6, [r7, #0]
    38ca:	2606      	movs	r6, #6
    38cc:	f7ff ff24 	bl	3718 <Code_846>
    38d0:	f7fd fcfa 	bl	12c8 <Code_212>
    38d4:	f7ff feed 	bl	36b2 <Code_838>
    38d8:	4886      	ldr	r0, [pc, #536]	; (3af4 <rambuffer_ram+0x4c>)
    38da:	6801      	ldr	r1, [r0, #0]
    38dc:	680a      	ldr	r2, [r1, #0]
    38de:	4b86      	ldr	r3, [pc, #536]	; (3af8 <rambuffer_ram+0x50>)
    38e0:	429a      	cmp	r2, r3
    38e2:	d107      	bne.n	38f4 <Code_857+0xa8>
    38e4:	4a81      	ldr	r2, [pc, #516]	; (3aec <rambuffer_ram+0x44>)
    38e6:	6813      	ldr	r3, [r2, #0]
    38e8:	6011      	str	r1, [r2, #0]
    38ea:	3f04      	subs	r7, #4
    38ec:	603e      	str	r6, [r7, #0]
    38ee:	f7ff fec1 	bl	3674 <Code_832>
    38f2:	6013      	str	r3, [r2, #0]
    38f4:	6006      	str	r6, [r0, #0]
    38f6:	cf40      	ldmia	r7!, {r6}
    38f8:	e010      	b.n	391c <create_ende>

000038fa <create_ram>:
    38fa:	487e      	ldr	r0, [pc, #504]	; (3af4 <rambuffer_ram+0x4c>)
    38fc:	3f04      	subs	r7, #4
    38fe:	603e      	str	r6, [r7, #0]
    3900:	6806      	ldr	r6, [r0, #0]
    3902:	f7ff feb7 	bl	3674 <Code_832>
    3906:	3f04      	subs	r7, #4
    3908:	603e      	str	r6, [r7, #0]
    390a:	4e7c      	ldr	r6, [pc, #496]	; (3afc <rambuffer_ram+0x54>)
    390c:	f7ff fe91 	bl	3632 <Code_826>
    3910:	4878      	ldr	r0, [pc, #480]	; (3af4 <rambuffer_ram+0x4c>)
    3912:	0031      	movs	r1, r6
    3914:	cf40      	ldmia	r7!, {r6}
    3916:	6001      	str	r1, [r0, #0]
    3918:	f7ff fecb 	bl	36b2 <Code_838>

0000391c <create_ende>:
    391c:	4873      	ldr	r0, [pc, #460]	; (3aec <rambuffer_ram+0x44>)
    391e:	6801      	ldr	r1, [r0, #0]
    3920:	4877      	ldr	r0, [pc, #476]	; (3b00 <rambuffer_ram+0x58>)
    3922:	6001      	str	r1, [r0, #0]
    3924:	bd00      	pop	{pc}
    3926:	46c0      	nop			; (mov r8, r8)

00003928 <Dictionary_875>:
    3928:	00003940 	andeq	r3, r0, r0, asr #18
    392c:	76080000 	strvc	r0, [r8], -r0
    3930:	61697261 	cmnvs	r9, r1, ror #4
    3934:	00656c62 	rsbeq	r6, r5, r2, ror #24

00003938 <Code_875>:
    3938:	3f04      	subs	r7, #4
    393a:	603e      	str	r6, [r7, #0]
    393c:	2601      	movs	r6, #1
    393e:	e013      	b.n	3968 <Code_881>

00003940 <Dictionary_878>:
    3940:	00003958 	andeq	r3, r0, r8, asr r9
    3944:	32090000 	andcc	r0, r9, #0
    3948:	69726176 	ldmdbvs	r2!, {r1, r2, r4, r5, r6, r8, sp, lr}^
    394c:	656c6261 	strbvs	r6, [ip, #-609]!	; 0x261

00003950 <Code_878>:
    3950:	3f04      	subs	r7, #4
    3952:	603e      	str	r6, [r7, #0]
    3954:	2602      	movs	r6, #2
    3956:	e007      	b.n	3968 <Code_881>

00003958 <Dictionary_881>:
    3958:	00003a30 	andeq	r3, r0, r0, lsr sl
    395c:	6e090000 	cdpvs	0, 0, cr0, cr9, cr0, {0}
    3960:	69726176 	ldmdbvs	r2!, {r1, r2, r4, r5, r6, r8, sp, lr}^
    3964:	656c6261 	strbvs	r6, [ip, #-609]!	; 0x261

00003968 <Code_881>:
    3968:	b500      	push	{lr}
    396a:	f7ff ff6f 	bl	384c <Code_857>
    396e:	485f      	ldr	r0, [pc, #380]	; (3aec <rambuffer_ram+0x44>)
    3970:	6801      	ldr	r1, [r0, #0]
    3972:	4a5e      	ldr	r2, [pc, #376]	; (3aec <rambuffer_ram+0x44>)
    3974:	4291      	cmp	r1, r2
    3976:	d233      	bcs.n	39e0 <variable_ram>
    3978:	200f      	movs	r0, #15
    397a:	4006      	ands	r6, r0
    397c:	00b2      	lsls	r2, r6, #2
    397e:	4861      	ldr	r0, [pc, #388]	; (3b04 <rambuffer_ram+0x5c>)
    3980:	6801      	ldr	r1, [r0, #0]
    3982:	1a89      	subs	r1, r1, r2
    3984:	4a60      	ldr	r2, [pc, #384]	; (3b08 <rambuffer_ram+0x60>)
    3986:	4291      	cmp	r1, r2
    3988:	d20b      	bcs.n	39a2 <Code_881+0x3a>
    398a:	f7ff f961 	bl	2c50 <dotgaensefuesschen>
    398e:	746f4e0f 	strbtvc	r4, [pc], #-3599	; 3996 <Code_881+0x2e>
    3992:	6f6e6520 	svcvs	0x006e6520
    3996:	20686775 	rsbcs	r6, r8, r5, ror r7
    399a:	0a4d4152 	beq	1353eea <BIT24+0x353eea>
    399e:	f001 f8bf 	bl	4b20 <Code_1235>
    39a2:	6001      	str	r1, [r0, #0]
    39a4:	3f04      	subs	r7, #4
    39a6:	603e      	str	r6, [r7, #0]
    39a8:	000e      	movs	r6, r1
    39aa:	f7ff fb7b 	bl	30a4 <Code_717>
    39ae:	3f04      	subs	r7, #4
    39b0:	603e      	str	r6, [r7, #0]
    39b2:	4e56      	ldr	r6, [pc, #344]	; (3b0c <rambuffer_ram+0x64>)
    39b4:	f7ff fe3d 	bl	3632 <Code_826>
    39b8:	0030      	movs	r0, r6
    39ba:	cf40      	ldmia	r7!, {r6}
    39bc:	0002      	movs	r2, r0
    39be:	2800      	cmp	r0, #0
    39c0:	d005      	beq.n	39ce <Code_881+0x66>
    39c2:	600e      	str	r6, [r1, #0]
    39c4:	3104      	adds	r1, #4
    39c6:	f7ff fe55 	bl	3674 <Code_832>
    39ca:	3801      	subs	r0, #1
    39cc:	d1f9      	bne.n	39c2 <Code_881+0x5a>
    39ce:	3f04      	subs	r7, #4
    39d0:	603e      	str	r6, [r7, #0]
    39d2:	2680      	movs	r6, #128	; 0x80
    39d4:	4316      	orrs	r6, r2
    39d6:	f7ff fdd1 	bl	357c <Code_819>
    39da:	f7ff fd9e 	bl	351a <Code_813>
    39de:	bd00      	pop	{pc}

000039e0 <variable_ram>:
    39e0:	f000 f986 	bl	3cf0 <Code_942>
    39e4:	2002      	movs	r0, #2
    39e6:	4006      	ands	r6, r0
    39e8:	cf40      	ldmia	r7!, {r6}
    39ea:	d104      	bne.n	39f6 <variable_ram+0x16>
    39ec:	3f04      	subs	r7, #4
    39ee:	603e      	str	r6, [r7, #0]
    39f0:	2636      	movs	r6, #54	; 0x36
    39f2:	f7ff fe1e 	bl	3632 <Code_826>
    39f6:	3f04      	subs	r7, #4
    39f8:	603e      	str	r6, [r7, #0]
    39fa:	4e45      	ldr	r6, [pc, #276]	; (3b10 <rambuffer_ram+0x68>)
    39fc:	f7ff fe49 	bl	3692 <Code_835>
    3a00:	3f04      	subs	r7, #4
    3a02:	603e      	str	r6, [r7, #0]
    3a04:	4e43      	ldr	r6, [pc, #268]	; (3b14 <rambuffer_ram+0x6c>)
    3a06:	f7ff fe44 	bl	3692 <Code_835>
    3a0a:	3f04      	subs	r7, #4
    3a0c:	603e      	str	r6, [r7, #0]
    3a0e:	4e3f      	ldr	r6, [pc, #252]	; (3b0c <rambuffer_ram+0x64>)
    3a10:	f7ff fe0f 	bl	3632 <Code_826>
    3a14:	0030      	movs	r0, r6
    3a16:	cf40      	ldmia	r7!, {r6}
    3a18:	2800      	cmp	r0, #0
    3a1a:	d003      	beq.n	3a24 <variable_ram+0x44>
    3a1c:	f7ff fe2a 	bl	3674 <Code_832>
    3a20:	3801      	subs	r0, #1
    3a22:	d1fb      	bne.n	3a1c <variable_ram+0x3c>
    3a24:	f7ff fce1 	bl	33ea <Code_784>
    3a28:	f7ff fd77 	bl	351a <Code_813>
    3a2c:	bd00      	pop	{pc}
    3a2e:	46c0      	nop			; (mov r8, r8)

00003a30 <Dictionary_898>:
    3a30:	00003b1c 	andeq	r3, r0, ip, lsl fp
    3a34:	62070000 	andvs	r0, r7, #0
    3a38:	65666675 	strbvs	r6, [r6, #-1653]!	; 0x675
    3a3c:	b5003a72 	strlt	r3, [r0, #-2674]	; 0xa72

00003a3e <Code_898>:
    3a3e:	b500      	push	{lr}
    3a40:	f7ff ff04 	bl	384c <Code_857>
    3a44:	2001      	movs	r0, #1
    3a46:	4030      	ands	r0, r6
    3a48:	1836      	adds	r6, r6, r0
    3a4a:	2002      	movs	r0, #2
    3a4c:	4030      	ands	r0, r6
    3a4e:	1836      	adds	r6, r6, r0
    3a50:	4826      	ldr	r0, [pc, #152]	; (3aec <rambuffer_ram+0x44>)
    3a52:	6801      	ldr	r1, [r0, #0]
    3a54:	4a25      	ldr	r2, [pc, #148]	; (3aec <rambuffer_ram+0x44>)
    3a56:	4291      	cmp	r1, r2
    3a58:	d226      	bcs.n	3aa8 <rambuffer_ram>
    3a5a:	482a      	ldr	r0, [pc, #168]	; (3b04 <rambuffer_ram+0x5c>)
    3a5c:	6801      	ldr	r1, [r0, #0]
    3a5e:	1b89      	subs	r1, r1, r6
    3a60:	4a29      	ldr	r2, [pc, #164]	; (3b08 <rambuffer_ram+0x60>)
    3a62:	4291      	cmp	r1, r2
    3a64:	d20b      	bcs.n	3a7e <Code_898+0x40>
    3a66:	f7ff f8f3 	bl	2c50 <dotgaensefuesschen>
    3a6a:	746f4e0f 	strbtvc	r4, [pc], #-3599	; 3a72 <Code_898+0x34>
    3a6e:	6f6e6520 	svcvs	0x006e6520
    3a72:	20686775 	rsbcs	r6, r8, r5, ror r7
    3a76:	0a4d4152 	beq	1353fc6 <BIT24+0x353fc6>
    3a7a:	f001 f851 	bl	4b20 <Code_1235>
    3a7e:	6001      	str	r1, [r0, #0]
    3a80:	3f04      	subs	r7, #4
    3a82:	603e      	str	r6, [r7, #0]
    3a84:	000e      	movs	r6, r1
    3a86:	f7ff fb0d 	bl	30a4 <Code_717>
    3a8a:	3f04      	subs	r7, #4
    3a8c:	603e      	str	r6, [r7, #0]
    3a8e:	4e1f      	ldr	r6, [pc, #124]	; (3b0c <rambuffer_ram+0x64>)
    3a90:	f7ff fdcf 	bl	3632 <Code_826>
    3a94:	f7ff fdee 	bl	3674 <Code_832>
    3a98:	3f04      	subs	r7, #4
    3a9a:	603e      	str	r6, [r7, #0]
    3a9c:	4e1e      	ldr	r6, [pc, #120]	; (3b18 <rambuffer_ram+0x70>)
    3a9e:	f7ff fd6d 	bl	357c <Code_819>
    3aa2:	f7ff fd3a 	bl	351a <Code_813>
    3aa6:	bd00      	pop	{pc}

00003aa8 <rambuffer_ram>:
    3aa8:	f000 f922 	bl	3cf0 <Code_942>
    3aac:	2002      	movs	r0, #2
    3aae:	4006      	ands	r6, r0
    3ab0:	cf40      	ldmia	r7!, {r6}
    3ab2:	d104      	bne.n	3abe <rambuffer_ram+0x16>
    3ab4:	3f04      	subs	r7, #4
    3ab6:	603e      	str	r6, [r7, #0]
    3ab8:	2636      	movs	r6, #54	; 0x36
    3aba:	f7ff fdba 	bl	3632 <Code_826>
    3abe:	3f04      	subs	r7, #4
    3ac0:	603e      	str	r6, [r7, #0]
    3ac2:	4e13      	ldr	r6, [pc, #76]	; (3b10 <rambuffer_ram+0x68>)
    3ac4:	f7ff fde5 	bl	3692 <Code_835>
    3ac8:	3f04      	subs	r7, #4
    3aca:	603e      	str	r6, [r7, #0]
    3acc:	4e11      	ldr	r6, [pc, #68]	; (3b14 <rambuffer_ram+0x6c>)
    3ace:	f7ff fde0 	bl	3692 <Code_835>
    3ad2:	3f04      	subs	r7, #4
    3ad4:	603e      	str	r6, [r7, #0]
    3ad6:	4e0d      	ldr	r6, [pc, #52]	; (3b0c <rambuffer_ram+0x64>)
    3ad8:	f7ff fdab 	bl	3632 <Code_826>
    3adc:	f7ff fe1c 	bl	3718 <Code_846>
    3ae0:	f7ff fc83 	bl	33ea <Code_784>
    3ae4:	f7ff fd19 	bl	351a <Code_813>
    3ae8:	bd00      	pop	{pc}
    3aea:	f0000000 			; <UNDEFINED> instruction: 0xf0000000
    3aee:	f0201fff 			; <UNDEFINED> instruction: 0xf0201fff
    3af2:	f0041fff 			; <UNDEFINED> instruction: 0xf0041fff
    3af6:	ffff1fff 			; <UNDEFINED> instruction: 0xffff1fff
    3afa:	ffffffff 			; <UNDEFINED> instruction: 0xffffffff
    3afe:	f0140000 			; <UNDEFINED> instruction: 0xf0140000
    3b02:	f0241fff 			; <UNDEFINED> instruction: 0xf0241fff
    3b06:	f44c1fff 			; <UNDEFINED> instruction: 0xf44c1fff
    3b0a:	47701fff 			; <UNDEFINED> instruction: 0x47701fff
    3b0e:	603e0000 	eorsvs	r0, lr, r0
    3b12:	36023f04 	strcc	r3, [r2], -r4, lsl #30
    3b16:	0140467e 	hvceq	1134	; 0x46e
	...

00003b1c <Dictionary_913>:
    3b1c:	00003b4c 	andeq	r3, r0, ip, asr #22
    3b20:	640f0000 	strvs	r0, [pc], #0	; 3b28 <Dictionary_913+0xc>
    3b24:	69746369 	ldmdbvs	r4!, {r0, r3, r5, r6, r8, r9, sp, lr}^
    3b28:	72616e6f 	rsbvc	r6, r1, #1776	; 0x6f0
    3b2c:	61747379 	cmnvs	r4, r9, ror r3
    3b30:	48427472 	stmdami	r2, {r1, r4, r5, r6, sl, ip, sp, lr}^

00003b32 <Code_913>:
    3b32:	4842      	ldr	r0, [pc, #264]	; (3c3c <find_not_found+0x16>)
    3b34:	6800      	ldr	r0, [r0, #0]
    3b36:	4941      	ldr	r1, [pc, #260]	; (3c3c <find_not_found+0x16>)
    3b38:	3f04      	subs	r7, #4
    3b3a:	603e      	str	r6, [r7, #0]
    3b3c:	4288      	cmp	r0, r1
    3b3e:	d201      	bcs.n	3b44 <Code_913+0x12>
    3b40:	4e3f      	ldr	r6, [pc, #252]	; (3c40 <find_not_found+0x1a>)
    3b42:	4770      	bx	lr
    3b44:	4e3f      	ldr	r6, [pc, #252]	; (3c44 <find_not_found+0x1e>)
    3b46:	6836      	ldr	r6, [r6, #0]
    3b48:	4770      	bx	lr
    3b4a:	46c0      	nop			; (mov r8, r8)

00003b4c <Dictionary_915>:
    3b4c:	00003b88 	andeq	r3, r0, r8, lsl #23
    3b50:	640e0000 	strvs	r0, [lr]
    3b54:	69746369 	ldmdbvs	r4!, {r0, r3, r5, r6, r8, r9, sp, lr}^
    3b58:	72616e6f 	rsbvc	r6, r1, #1776	; 0x6f0
    3b5c:	78656e79 	stmdavc	r5!, {r0, r3, r4, r5, r6, r9, sl, fp, sp, lr}^
    3b60:	b5030074 	strlt	r0, [r3, #-116]	; 0x74

00003b62 <Code_915>:
    3b62:	b503      	push	{r0, r1, lr}
    3b64:	6831      	ldr	r1, [r6, #0]
    3b66:	4838      	ldr	r0, [pc, #224]	; (3c48 <find_not_found+0x22>)
    3b68:	4281      	cmp	r1, r0
    3b6a:	d007      	beq.n	3b7c <Code_915+0x1a>
    3b6c:	7988      	ldrb	r0, [r1, #6]
    3b6e:	28ff      	cmp	r0, #255	; 0xff
    3b70:	d004      	beq.n	3b7c <Code_915+0x1a>
    3b72:	000e      	movs	r6, r1
    3b74:	3f04      	subs	r7, #4
    3b76:	603e      	str	r6, [r7, #0]
    3b78:	2600      	movs	r6, #0
    3b7a:	bd03      	pop	{r0, r1, pc}
    3b7c:	3f04      	subs	r7, #4
    3b7e:	603e      	str	r6, [r7, #0]
    3b80:	2600      	movs	r6, #0
    3b82:	43f6      	mvns	r6, r6
    3b84:	bd03      	pop	{r0, r1, pc}
    3b86:	46c0      	nop			; (mov r8, r8)

00003b88 <Dictionary_919>:
    3b88:	00003bbc 			; <UNDEFINED> instruction: 0x00003bbc
    3b8c:	730a0000 	movwvc	r0, #40960	; 0xa000
    3b90:	7370696b 	cmnvc	r0, #1753088	; 0x1ac000
    3b94:	6e697274 	mcrvs	2, 3, r7, cr9, cr4, {3}
    3b98:	78310067 	ldmdavc	r1!, {r0, r1, r2, r5, r6}

00003b9a <Code_919>:
    3b9a:	7831      	ldrb	r1, [r6, #0]
    3b9c:	3101      	adds	r1, #1
    3b9e:	2201      	movs	r2, #1
    3ba0:	400a      	ands	r2, r1
    3ba2:	1889      	adds	r1, r1, r2
    3ba4:	1876      	adds	r6, r6, r1
    3ba6:	4770      	bx	lr

00003ba8 <skipstring>:
    3ba8:	b406      	push	{r1, r2}
    3baa:	7801      	ldrb	r1, [r0, #0]
    3bac:	3101      	adds	r1, #1
    3bae:	2201      	movs	r2, #1
    3bb0:	400a      	ands	r2, r1
    3bb2:	1889      	adds	r1, r1, r2
    3bb4:	1840      	adds	r0, r0, r1
    3bb6:	bc06      	pop	{r1, r2}
    3bb8:	4770      	bx	lr
    3bba:	46c0      	nop			; (mov r8, r8)

00003bbc <Dictionary_920>:
    3bbc:	00003c50 	andeq	r3, r0, r0, asr ip
    3bc0:	66040000 	strvs	r0, [r4], -r0
    3bc4:	00646e69 	rsbeq	r6, r4, r9, ror #28

00003bc8 <Code_920>:
    3bc8:	b53f      	push	{r0, r1, r2, r3, r4, r5, lr}
    3bca:	2200      	movs	r2, #0
    3bcc:	2300      	movs	r3, #0
    3bce:	0035      	movs	r5, r6
    3bd0:	cf40      	ldmia	r7!, {r6}
    3bd2:	0034      	movs	r4, r6
    3bd4:	cf40      	ldmia	r7!, {r6}
    3bd6:	f7ff ffac 	bl	3b32 <Code_913>
    3bda:	481c      	ldr	r0, [pc, #112]	; (3c4c <find_not_found+0x26>)
    3bdc:	88b1      	ldrh	r1, [r6, #4]
    3bde:	4288      	cmp	r0, r1
    3be0:	d017      	beq.n	3c12 <Code_920+0x4a>
    3be2:	3f04      	subs	r7, #4
    3be4:	603e      	str	r6, [r7, #0]
    3be6:	3606      	adds	r6, #6
    3be8:	f7ff f872 	bl	2cd0 <Code_634>
    3bec:	3f04      	subs	r7, #4
    3bee:	603e      	str	r6, [r7, #0]
    3bf0:	0026      	movs	r6, r4
    3bf2:	3f04      	subs	r7, #4
    3bf4:	603e      	str	r6, [r7, #0]
    3bf6:	002e      	movs	r6, r5
    3bf8:	f7fe ff9d 	bl	2b36 <Code_596>
    3bfc:	2e00      	cmp	r6, #0
    3bfe:	cf40      	ldmia	r7!, {r6}
    3c00:	d007      	beq.n	3c12 <Code_920+0x4a>
    3c02:	1db0      	adds	r0, r6, #6
    3c04:	f7ff ffd0 	bl	3ba8 <skipstring>
    3c08:	0002      	movs	r2, r0
    3c0a:	000b      	movs	r3, r1
    3c0c:	480b      	ldr	r0, [pc, #44]	; (3c3c <find_not_found+0x16>)
    3c0e:	4282      	cmp	r2, r0
    3c10:	d204      	bcs.n	3c1c <Code_920+0x54>
    3c12:	f7ff ffa6 	bl	3b62 <Code_915>
    3c16:	0030      	movs	r0, r6
    3c18:	cf40      	ldmia	r7!, {r6}
    3c1a:	d0de      	beq.n	3bda <Code_920+0x12>
    3c1c:	0016      	movs	r6, r2
    3c1e:	3f04      	subs	r7, #4
    3c20:	603e      	str	r6, [r7, #0]
    3c22:	001e      	movs	r6, r3
    3c24:	bd3f      	pop	{r0, r1, r2, r3, r4, r5, pc}

00003c26 <find_not_found>:
    3c26:	b500      	push	{lr}
    3c28:	0031      	movs	r1, r6
    3c2a:	6838      	ldr	r0, [r7, #0]
    3c2c:	f7ff ffcc 	bl	3bc8 <Code_920>
    3c30:	683a      	ldr	r2, [r7, #0]
    3c32:	2a00      	cmp	r2, #0
    3c34:	d101      	bne.n	3c3a <find_not_found+0x14>
    3c36:	f000 ff27 	bl	4a88 <not_found_addr_r0_len_r1>
    3c3a:	bd00      	pop	{pc}
    3c3c:	1ffff000 	svcne	0x00fff000
    3c40:	00000410 	andeq	r0, r0, r0, lsl r4
    3c44:	1ffff004 	svcne	0x00fff004
    3c48:	ffffffff 			; <UNDEFINED> instruction: 0xffffffff
    3c4c:	0000ffff 	strdeq	pc, [r0], -pc	; <UNPREDICTABLE>

00003c50 <Dictionary_933>:
    3c50:	00003cac 	andeq	r3, r0, ip, lsr #25
    3c54:	63060000 	movwvs	r0, #24576	; 0x6000
    3c58:	706d756a 	rsbvc	r7, sp, sl, ror #10
    3c5c:	0032002c 	eorseq	r0, r2, ip, lsr #32

00003c5e <Code_933>:
    3c5e:	0032      	movs	r2, r6
    3c60:	cf40      	ldmia	r7!, {r6}
    3c62:	0031      	movs	r1, r6
    3c64:	cf40      	ldmia	r7!, {r6}
    3c66:	1b8b      	subs	r3, r1, r6
    3c68:	3b04      	subs	r3, #4
    3c6a:	49e5      	ldr	r1, [pc, #916]	; (4000 <BIT14>)
    3c6c:	4019      	ands	r1, r3
    3c6e:	2900      	cmp	r1, #0
    3c70:	d00d      	beq.n	3c8e <jump_too_far+0x16>
    3c72:	48e4      	ldr	r0, [pc, #912]	; (4004 <BIT14+0x4>)
    3c74:	4281      	cmp	r1, r0
    3c76:	d00a      	beq.n	3c8e <jump_too_far+0x16>

00003c78 <jump_too_far>:
    3c78:	f7fe ffea 	bl	2c50 <dotgaensefuesschen>
    3c7c:	6d754a0d 	vldmdbvs	r5!, {s9-s21}
    3c80:	6f742070 	svcvs	0x00742070
    3c84:	6166206f 	cmnvs	r6, pc, rrx
    3c88:	f0000a72 			; <UNDEFINED> instruction: 0xf0000a72
    3c8c:	ff49 105b 	vqadd.u8	<illegal reg q8.5>, <illegal reg q4.5>, <illegal reg q5.5>
    3c90:	21ff      	movs	r1, #255	; 0xff
    3c92:	400b      	ands	r3, r1
    3c94:	4313      	orrs	r3, r2
    3c96:	0030      	movs	r0, r6
    3c98:	001e      	movs	r6, r3

00003c9a <sprungbefehl_einfuegen>:
    3c9a:	b500      	push	{lr}
    3c9c:	4ada      	ldr	r2, [pc, #872]	; (4008 <BIT14+0x8>)
    3c9e:	6813      	ldr	r3, [r2, #0]
    3ca0:	6010      	str	r0, [r2, #0]
    3ca2:	f7ff fcc6 	bl	3632 <Code_826>
    3ca6:	6013      	str	r3, [r2, #0]
    3ca8:	bd00      	pop	{pc}
    3caa:	46c0      	nop			; (mov r8, r8)

00003cac <Dictionary_937>:
    3cac:	00003ce4 	andeq	r3, r0, r4, ror #25
    3cb0:	6a050000 	bvs	143cb8 <BIT20+0x43cb8>
    3cb4:	2c706d75 	ldclcs	13, cr6, [r0], #-468	; 0xfffffe2c

00003cb8 <Code_937>:
    3cb8:	0031      	movs	r1, r6
    3cba:	cf40      	ldmia	r7!, {r6}
    3cbc:	0030      	movs	r0, r6
    3cbe:	cf40      	ldmia	r7!, {r6}
    3cc0:	1a0b      	subs	r3, r1, r0
    3cc2:	3b04      	subs	r3, #4
    3cc4:	49d1      	ldr	r1, [pc, #836]	; (400c <BIT14+0xc>)
    3cc6:	4019      	ands	r1, r3
    3cc8:	2900      	cmp	r1, #0
    3cca:	d002      	beq.n	3cd2 <Code_937+0x1a>
    3ccc:	4ad0      	ldr	r2, [pc, #832]	; (4010 <BIT14+0x10>)
    3cce:	4291      	cmp	r1, r2
    3cd0:	d1d2      	bne.n	3c78 <jump_too_far>
    3cd2:	105b      	asrs	r3, r3, #1
    3cd4:	4acf      	ldr	r2, [pc, #828]	; (4014 <BIT14+0x14>)
    3cd6:	4013      	ands	r3, r2
    3cd8:	4acf      	ldr	r2, [pc, #828]	; (4018 <BIT14+0x18>)
    3cda:	4313      	orrs	r3, r2
    3cdc:	3f04      	subs	r7, #4
    3cde:	603e      	str	r6, [r7, #0]
    3ce0:	001e      	movs	r6, r3
    3ce2:	e7da      	b.n	3c9a <sprungbefehl_einfuegen>

00003ce4 <Dictionary_942>:
    3ce4:	00003cfc 	strdeq	r3, [r0], -ip
    3ce8:	68040000 	stmdavs	r4, {}	; <UNPREDICTABLE>
    3cec:	00657265 	rsbeq	r7, r5, r5, ror #4

00003cf0 <Code_942>:
    3cf0:	3f04      	subs	r7, #4
    3cf2:	603e      	str	r6, [r7, #0]
    3cf4:	4ec4      	ldr	r6, [pc, #784]	; (4008 <BIT14+0x8>)
    3cf6:	6836      	ldr	r6, [r6, #0]
    3cf8:	4770      	bx	lr
    3cfa:	46c0      	nop			; (mov r8, r8)

00003cfc <Dictionary_944>:
    3cfc:	00003e24 	andeq	r3, r0, r4, lsr #28
    3d00:	660d0000 	strvs	r0, [sp], -r0
    3d04:	6873616c 	ldmdavs	r3!, {r2, r3, r5, r6, r8, sp, lr}^
    3d08:	2d726176 	ldfcse	f6, [r2, #-472]!	; 0xfffffe28
    3d0c:	65726568 	ldrbvs	r6, [r2, #-1384]!	; 0x568

00003d10 <Code_944>:
    3d10:	3f04      	subs	r7, #4
    3d12:	603e      	str	r6, [r7, #0]
    3d14:	4ec1      	ldr	r6, [pc, #772]	; (401c <BIT14+0x1c>)
    3d16:	6836      	ldr	r6, [r6, #0]
    3d18:	4770      	bx	lr

00003d1a <nullprobekomma>:
    3d1a:	b500      	push	{lr}
    3d1c:	3f04      	subs	r7, #4
    3d1e:	603e      	str	r6, [r7, #0]
    3d20:	4ebf      	ldr	r6, [pc, #764]	; (4020 <BIT14+0x20>)
    3d22:	f7ff fc86 	bl	3632 <Code_826>
    3d26:	3f04      	subs	r7, #4
    3d28:	603e      	str	r6, [r7, #0]
    3d2a:	4ebe      	ldr	r6, [pc, #760]	; (4024 <BIT14+0x24>)
    3d2c:	f7ff fc81 	bl	3632 <Code_826>
    3d30:	bd00      	pop	{pc}

00003d32 <branch_r>:
    3d32:	e7dd      	b.n	3cf0 <Code_942>

00003d34 <r_branch_jne>:
    3d34:	b500      	push	{lr}
    3d36:	f000 f837 	bl	3da8 <branch_v>
    3d3a:	6839      	ldr	r1, [r7, #0]
    3d3c:	603e      	str	r6, [r7, #0]
    3d3e:	460e      	mov	r6, r1
    3d40:	3f04      	subs	r7, #4
    3d42:	603e      	str	r6, [r7, #0]
    3d44:	4eb8      	ldr	r6, [pc, #736]	; (4028 <BIT14+0x28>)
    3d46:	f7ff ff8a 	bl	3c5e <Code_933>
    3d4a:	bd00      	pop	{pc}

00003d4c <r_branch_jvc>:
    3d4c:	b500      	push	{lr}
    3d4e:	f000 f82b 	bl	3da8 <branch_v>
    3d52:	6839      	ldr	r1, [r7, #0]
    3d54:	603e      	str	r6, [r7, #0]
    3d56:	460e      	mov	r6, r1
    3d58:	3f04      	subs	r7, #4
    3d5a:	603e      	str	r6, [r7, #0]
    3d5c:	4eb3      	ldr	r6, [pc, #716]	; (402c <BIT14+0x2c>)
    3d5e:	f7ff ff7e 	bl	3c5e <Code_933>
    3d62:	bd00      	pop	{pc}

00003d64 <r_nullbranch>:
    3d64:	b500      	push	{lr}
    3d66:	f7ff ffd8 	bl	3d1a <nullprobekomma>
    3d6a:	f000 f81d 	bl	3da8 <branch_v>
    3d6e:	6839      	ldr	r1, [r7, #0]
    3d70:	603e      	str	r6, [r7, #0]
    3d72:	460e      	mov	r6, r1
    3d74:	3f04      	subs	r7, #4
    3d76:	603e      	str	r6, [r7, #0]
    3d78:	4ead      	ldr	r6, [pc, #692]	; (4030 <BIT14+0x30>)
    3d7a:	f7ff ff70 	bl	3c5e <Code_933>
    3d7e:	bd00      	pop	{pc}

00003d80 <r_branch>:
    3d80:	b500      	push	{lr}
    3d82:	f000 f811 	bl	3da8 <branch_v>
    3d86:	6839      	ldr	r1, [r7, #0]
    3d88:	603e      	str	r6, [r7, #0]
    3d8a:	460e      	mov	r6, r1
    3d8c:	f7ff ff94 	bl	3cb8 <Code_937>
    3d90:	bd00      	pop	{pc}

00003d92 <nullbranch_v>:
    3d92:	b500      	push	{lr}
    3d94:	f7ff ffc1 	bl	3d1a <nullprobekomma>
    3d98:	f7ff ffaa 	bl	3cf0 <Code_942>
    3d9c:	3f04      	subs	r7, #4
    3d9e:	603e      	str	r6, [r7, #0]
    3da0:	2602      	movs	r6, #2
    3da2:	f7ff fcb9 	bl	3718 <Code_846>
    3da6:	bd00      	pop	{pc}

00003da8 <branch_v>:
    3da8:	b500      	push	{lr}
    3daa:	f7ff ffa1 	bl	3cf0 <Code_942>
    3dae:	3f04      	subs	r7, #4
    3db0:	603e      	str	r6, [r7, #0]
    3db2:	2602      	movs	r6, #2
    3db4:	f7ff fcb0 	bl	3718 <Code_846>
    3db8:	bd00      	pop	{pc}

00003dba <v_branch>:
    3dba:	b500      	push	{lr}
    3dbc:	f7ff ff98 	bl	3cf0 <Code_942>
    3dc0:	f7ff ff7a 	bl	3cb8 <Code_937>
    3dc4:	bd00      	pop	{pc}

00003dc6 <v_nullbranch>:
    3dc6:	b500      	push	{lr}
    3dc8:	f7ff ff92 	bl	3cf0 <Code_942>
    3dcc:	3f04      	subs	r7, #4
    3dce:	603e      	str	r6, [r7, #0]
    3dd0:	4e97      	ldr	r6, [pc, #604]	; (4030 <BIT14+0x30>)
    3dd2:	f7ff ff44 	bl	3c5e <Code_933>
    3dd6:	bd00      	pop	{pc}

00003dd8 <v_casebranch>:
    3dd8:	b500      	push	{lr}
    3dda:	f7ff ff89 	bl	3cf0 <Code_942>
    3dde:	3f04      	subs	r7, #4
    3de0:	603e      	str	r6, [r7, #0]
    3de2:	4e91      	ldr	r6, [pc, #580]	; (4028 <BIT14+0x28>)
    3de4:	f7ff ff3b 	bl	3c5e <Code_933>
    3de8:	bd00      	pop	{pc}

00003dea <allocator_nullsprungprobe>:
    3dea:	b500      	push	{lr}
    3dec:	f7fc fc91 	bl	712 <expect_one_element>
    3df0:	f7fc fbc2 	bl	578 <tidyup_register_allocator_5os>
    3df4:	f7fc fbc5 	bl	582 <tidyup_register_allocator_4os>
    3df8:	f7fc fbc8 	bl	58c <tidyup_register_allocator_3os>
    3dfc:	6881      	ldr	r1, [r0, #8]
    3dfe:	2928      	cmp	r1, #40	; 0x28
    3e00:	d101      	bne.n	3e06 <allocator_nullsprungprobe+0x1c>
    3e02:	f7fc fccf 	bl	7a4 <expect_nos_in_register>
    3e06:	f7fc fcc3 	bl	790 <expect_tos_in_register>
    3e0a:	3f04      	subs	r7, #4
    3e0c:	603e      	str	r6, [r7, #0]
    3e0e:	4e89      	ldr	r6, [pc, #548]	; (4034 <BIT14+0x34>)
    3e10:	0209      	lsls	r1, r1, #8
    3e12:	430e      	orrs	r6, r1
    3e14:	f7ff fc0d 	bl	3632 <Code_826>
    3e18:	f7fc fb73 	bl	502 <eliminiere_tos>
    3e1c:	f7fc fba0 	bl	560 <tidyup_register_allocator>
    3e20:	bd00      	pop	{pc}
    3e22:	46c0      	nop			; (mov r8, r8)

00003e24 <Dictionary_970>:
    3e24:	00003e94 	muleq	r0, r4, lr
    3e28:	69020630 	stmdbvs	r2, {r4, r5, r9, sl}
    3e2c:	b5000066 	strlt	r0, [r0, #-102]	; 0x66

00003e2e <Code_970>:
    3e2e:	b500      	push	{lr}
    3e30:	f7ff ffaf 	bl	3d92 <nullbranch_v>
    3e34:	3f04      	subs	r7, #4
    3e36:	603e      	str	r6, [r7, #0]
    3e38:	4e7d      	ldr	r6, [pc, #500]	; (4030 <BIT14+0x30>)
    3e3a:	3f04      	subs	r7, #4
    3e3c:	603e      	str	r6, [r7, #0]
    3e3e:	2602      	movs	r6, #2
    3e40:	bd00      	pop	{pc}

00003e42 <struktur_if_allokator>:
    3e42:	b500      	push	{lr}
    3e44:	f7fc fcfb 	bl	83e <push_lr_nachholen>
    3e48:	f7fd fd90 	bl	196c <eliminiere_tos_wenn_bmi>
    3e4c:	6a81      	ldr	r1, [r0, #40]	; 0x28
    3e4e:	2900      	cmp	r1, #0
    3e50:	d010      	beq.n	3e74 <struktur_if_allokator+0x32>
    3e52:	b402      	push	{r1}
    3e54:	f7fc fb84 	bl	560 <tidyup_register_allocator>
    3e58:	f7ff ff4a 	bl	3cf0 <Code_942>
    3e5c:	3f04      	subs	r7, #4
    3e5e:	603e      	str	r6, [r7, #0]
    3e60:	2602      	movs	r6, #2
    3e62:	f7ff fc59 	bl	3718 <Code_846>
    3e66:	3f04      	subs	r7, #4
    3e68:	603e      	str	r6, [r7, #0]
    3e6a:	bc40      	pop	{r6}
    3e6c:	3f04      	subs	r7, #4
    3e6e:	603e      	str	r6, [r7, #0]
    3e70:	2602      	movs	r6, #2
    3e72:	bd00      	pop	{pc}
    3e74:	f7ff ffb9 	bl	3dea <allocator_nullsprungprobe>
    3e78:	f7ff ff3a 	bl	3cf0 <Code_942>
    3e7c:	3f04      	subs	r7, #4
    3e7e:	603e      	str	r6, [r7, #0]
    3e80:	2602      	movs	r6, #2
    3e82:	f7ff fc49 	bl	3718 <Code_846>
    3e86:	3f04      	subs	r7, #4
    3e88:	603e      	str	r6, [r7, #0]
    3e8a:	4e69      	ldr	r6, [pc, #420]	; (4030 <BIT14+0x30>)
    3e8c:	3f04      	subs	r7, #4
    3e8e:	603e      	str	r6, [r7, #0]
    3e90:	2602      	movs	r6, #2
    3e92:	bd00      	pop	{pc}

00003e94 <Dictionary_986>:
    3e94:	00003ec8 	andeq	r3, r0, r8, asr #29
    3e98:	65040030 	strvs	r0, [r4, #-48]	; 0x30
    3e9c:	0065736c 	rsbeq	r7, r5, ip, ror #6

00003ea0 <Code_986>:
    3ea0:	b500      	push	{lr}
    3ea2:	2e02      	cmp	r6, #2
    3ea4:	d126      	bne.n	3ef4 <strukturen_passen_nicht>
    3ea6:	cf40      	ldmia	r7!, {r6}
    3ea8:	f7ff ff7e 	bl	3da8 <branch_v>
    3eac:	f7fd fa0c 	bl	12c8 <Code_212>
    3eb0:	f7ff ff1e 	bl	3cf0 <Code_942>
    3eb4:	6839      	ldr	r1, [r7, #0]
    3eb6:	603e      	str	r6, [r7, #0]
    3eb8:	460e      	mov	r6, r1
    3eba:	f7ff fed0 	bl	3c5e <Code_933>
    3ebe:	3f04      	subs	r7, #4
    3ec0:	603e      	str	r6, [r7, #0]
    3ec2:	2605      	movs	r6, #5
    3ec4:	bd00      	pop	{pc}
    3ec6:	46c0      	nop			; (mov r8, r8)

00003ec8 <Dictionary_991>:
    3ec8:	00003f14 	andeq	r3, r0, r4, lsl pc
    3ecc:	74040030 	strvc	r0, [r4], #-48	; 0x30
    3ed0:	006e6568 	rsbeq	r6, lr, r8, ror #10

00003ed4 <Code_991>:
    3ed4:	2e05      	cmp	r6, #5
    3ed6:	d101      	bne.n	3edc <Code_991+0x8>
    3ed8:	cf40      	ldmia	r7!, {r6}
    3eda:	e76e      	b.n	3dba <v_branch>
    3edc:	2e02      	cmp	r6, #2
    3ede:	d109      	bne.n	3ef4 <strukturen_passen_nicht>
    3ee0:	cf40      	ldmia	r7!, {r6}
    3ee2:	b500      	push	{lr}
    3ee4:	f7ff ff04 	bl	3cf0 <Code_942>
    3ee8:	6839      	ldr	r1, [r7, #0]
    3eea:	603e      	str	r6, [r7, #0]
    3eec:	460e      	mov	r6, r1
    3eee:	f7ff feb6 	bl	3c5e <Code_933>
    3ef2:	bd00      	pop	{pc}

00003ef4 <strukturen_passen_nicht>:
    3ef4:	f7fe feac 	bl	2c50 <dotgaensefuesschen>
    3ef8:	72745317 	rsbsvc	r5, r4, #1543503872	; 0x5c000000
    3efc:	75746375 	ldrbvc	r6, [r4, #-885]!	; 0x375
    3f00:	20736572 	rsbscs	r6, r3, r2, ror r5
    3f04:	276e6f64 	strbcs	r6, [lr, -r4, ror #30]!
    3f08:	616d2074 	smcvs	53764	; 0xd204
    3f0c:	0a686374 	beq	1a1cce4 <BIT24+0xa1cce4>
    3f10:	f000 fe06 	bl	4b20 <Code_1235>

00003f14 <Dictionary_996>:
    3f14:	00003f44 	andeq	r3, r0, r4, asr #30
    3f18:	72060030 	andvc	r0, r6, #48	; 0x30
    3f1c:	61657065 	cmnvs	r5, r5, rrx
    3f20:	2e040074 	mcrcs	0, 0, r0, cr4, cr4, {3}

00003f22 <Code_996>:
    3f22:	2e04      	cmp	r6, #4
    3f24:	d1e6      	bne.n	3ef4 <strukturen_passen_nicht>
    3f26:	cf40      	ldmia	r7!, {r6}
    3f28:	b500      	push	{lr}
    3f2a:	f7fd f9b0 	bl	128e <Code_211>
    3f2e:	f7ff ff27 	bl	3d80 <r_branch>
    3f32:	f7ff fedd 	bl	3cf0 <Code_942>
    3f36:	6839      	ldr	r1, [r7, #0]
    3f38:	603e      	str	r6, [r7, #0]
    3f3a:	460e      	mov	r6, r1
    3f3c:	f7ff fe8f 	bl	3c5e <Code_933>
    3f40:	bd00      	pop	{pc}
    3f42:	46c0      	nop			; (mov r8, r8)

00003f44 <Dictionary_999>:
    3f44:	00003f70 	andeq	r3, r0, r0, ror pc
    3f48:	77050630 	smladxvc	r5, r0, r6, r0
    3f4c:	656c6968 	strbvs	r6, [ip, #-2408]!	; 0x968

00003f50 <Code_999>:
    3f50:	2e01      	cmp	r6, #1
    3f52:	d1cf      	bne.n	3ef4 <strukturen_passen_nicht>
    3f54:	cf40      	ldmia	r7!, {r6}
    3f56:	b500      	push	{lr}
    3f58:	f7ff ff69 	bl	3e2e <Code_970>
    3f5c:	3602      	adds	r6, #2
    3f5e:	bd00      	pop	{pc}
    3f60:	2e01      	cmp	r6, #1
    3f62:	d1c7      	bne.n	3ef4 <strukturen_passen_nicht>
    3f64:	cf40      	ldmia	r7!, {r6}
    3f66:	b500      	push	{lr}
    3f68:	f7ff ff6b 	bl	3e42 <struktur_if_allokator>
    3f6c:	3602      	adds	r6, #2
    3f6e:	bd00      	pop	{pc}

00003f70 <Dictionary_1002>:
    3f70:	00003fd0 	ldrdeq	r3, [r0], -r0
    3f74:	75050630 	strvc	r0, [r5, #-1584]	; 0x630
    3f78:	6c69746e 	cfstrdvs	mvd7, [r9], #-440	; 0xfffffe48

00003f7c <Code_1002>:
    3f7c:	2e01      	cmp	r6, #1
    3f7e:	d1b9      	bne.n	3ef4 <strukturen_passen_nicht>
    3f80:	cf40      	ldmia	r7!, {r6}
    3f82:	e6ef      	b.n	3d64 <r_nullbranch>
    3f84:	4770      	bx	lr
    3f86:	2e01      	cmp	r6, #1
    3f88:	d1b4      	bne.n	3ef4 <strukturen_passen_nicht>
    3f8a:	cf40      	ldmia	r7!, {r6}
    3f8c:	b500      	push	{lr}
    3f8e:	f7fd fced 	bl	196c <eliminiere_tos_wenn_bmi>
    3f92:	6a81      	ldr	r1, [r0, #40]	; 0x28
    3f94:	2900      	cmp	r1, #0
    3f96:	d00d      	beq.n	3fb4 <Code_1002+0x38>
    3f98:	b402      	push	{r1}
    3f9a:	f7fc fae1 	bl	560 <tidyup_register_allocator>
    3f9e:	f7ff ff03 	bl	3da8 <branch_v>
    3fa2:	6839      	ldr	r1, [r7, #0]
    3fa4:	603e      	str	r6, [r7, #0]
    3fa6:	460e      	mov	r6, r1
    3fa8:	3f04      	subs	r7, #4
    3faa:	603e      	str	r6, [r7, #0]
    3fac:	bc40      	pop	{r6}
    3fae:	f7ff fe56 	bl	3c5e <Code_933>
    3fb2:	bd00      	pop	{pc}
    3fb4:	f7ff ff19 	bl	3dea <allocator_nullsprungprobe>
    3fb8:	f7ff fef6 	bl	3da8 <branch_v>
    3fbc:	6839      	ldr	r1, [r7, #0]
    3fbe:	603e      	str	r6, [r7, #0]
    3fc0:	460e      	mov	r6, r1
    3fc2:	3f04      	subs	r7, #4
    3fc4:	603e      	str	r6, [r7, #0]
    3fc6:	4e1a      	ldr	r6, [pc, #104]	; (4030 <BIT14+0x30>)
    3fc8:	f7ff fe49 	bl	3c5e <Code_933>
    3fcc:	bd00      	pop	{pc}
    3fce:	46c0      	nop			; (mov r8, r8)

00003fd0 <Dictionary_1010>:
    3fd0:	00003fe4 	andeq	r3, r0, r4, ror #31
    3fd4:	61050030 	tstvs	r5, r0, lsr r0
    3fd8:	6e696167 	powvsez	f6, f1, f7

00003fdc <Code_1010>:
    3fdc:	2e01      	cmp	r6, #1
    3fde:	d189      	bne.n	3ef4 <strukturen_passen_nicht>
    3fe0:	cf40      	ldmia	r7!, {r6}
    3fe2:	e6cd      	b.n	3d80 <r_branch>

00003fe4 <Dictionary_1012>:
    3fe4:	00004038 	andeq	r4, r0, r8, lsr r0
    3fe8:	62050030 	andvs	r0, r5, #48	; 0x30
    3fec:	6e696765 	cdpvs	7, 6, cr6, cr9, cr5, {3}

00003ff0 <Code_1012>:
    3ff0:	b500      	push	{lr}
    3ff2:	f7ff fe9e 	bl	3d32 <branch_r>
    3ff6:	3f04      	subs	r7, #4
    3ff8:	603e      	str	r6, [r7, #0]
    3ffa:	2601      	movs	r6, #1
    3ffc:	bd00      	pop	{pc}
    3ffe:	ff010000 			; <UNDEFINED> instruction: 0xff010000
    4002:	ff00ffff 			; <UNDEFINED> instruction: 0xff00ffff
    4006:	f000ffff 			; <UNDEFINED> instruction: 0xf000ffff
    400a:	f8011fff 			; <UNDEFINED> instruction: 0xf8011fff
    400e:	f800ffff 			; <UNDEFINED> instruction: 0xf800ffff
    4012:	07ffffff 			; <UNDEFINED> instruction: 0x07ffffff
    4016:	e0000000 	and	r0, r0, r0
    401a:	f0240000 			; <UNDEFINED> instruction: 0xf0240000
    401e:	2e001fff 	mcrcs	15, 0, r1, cr0, cr15, {7}
    4022:	cf400000 	svcgt	0x00400000
    4026:	d1000000 	mrsle	r0, (UNDEF: 0)
    402a:	d7000000 	strle	r0, [r0, -r0]
    402e:	d0000000 	andle	r0, r0, r0
    4032:	28000000 	stmdacs	r0, {}	; <UNPREDICTABLE>
	...

00004038 <Dictionary_1015>:
    4038:	00004050 	andeq	r4, r0, r0, asr r0
    403c:	6b010220 	blvs	448c4 <BIT18+0x48c4>

00004040 <Code_1015>:
    4040:	3f04      	subs	r7, #4
    4042:	603e      	str	r6, [r7, #0]
    4044:	9e02      	ldr	r6, [sp, #8]
    4046:	4770      	bx	lr
    4048:	3f04      	subs	r7, #4
    404a:	603e      	str	r6, [r7, #0]
    404c:	4e8e      	ldr	r6, [pc, #568]	; (4288 <gemeinsame_schleifenoptimierung+0x7a>)
    404e:	e00a      	b.n	4066 <loop_j_allocator>

00004050 <Dictionary_1019>:
    4050:	0000407c 	andeq	r4, r0, ip, ror r0
    4054:	6a010220 	bvs	448dc <BIT18+0x48dc>

00004058 <Code_1019>:
    4058:	3f04      	subs	r7, #4
    405a:	603e      	str	r6, [r7, #0]
    405c:	9e00      	ldr	r6, [sp, #0]
    405e:	4770      	bx	lr

00004060 <rfetch_allocator>:
    4060:	3f04      	subs	r7, #4
    4062:	603e      	str	r6, [r7, #0]
    4064:	4e89      	ldr	r6, [pc, #548]	; (428c <gemeinsame_schleifenoptimierung+0x7e>)

00004066 <loop_j_allocator>:
    4066:	b500      	push	{lr}
    4068:	f7fc fa41 	bl	4ee <befreie_tos>
    406c:	f7fc fb1e 	bl	6ac <get_free_register>
    4070:	6003      	str	r3, [r0, #0]
    4072:	021b      	lsls	r3, r3, #8
    4074:	431e      	orrs	r6, r3
    4076:	f7ff fadc 	bl	3632 <Code_826>
    407a:	bd00      	pop	{pc}

0000407c <Dictionary_1023>:
    407c:	000040a8 	andeq	r4, r0, r8, lsr #1
    4080:	69010220 	stmdbvs	r1, {r5, r9}

00004084 <Code_1023>:
    4084:	3f04      	subs	r7, #4
    4086:	603e      	str	r6, [r7, #0]
    4088:	0026      	movs	r6, r4
    408a:	4770      	bx	lr
    408c:	b500      	push	{lr}
    408e:	3f04      	subs	r7, #4
    4090:	603e      	str	r6, [r7, #0]
    4092:	4e7f      	ldr	r6, [pc, #508]	; (4290 <gemeinsame_schleifenoptimierung+0x82>)
    4094:	f7fc fa2b 	bl	4ee <befreie_tos>
    4098:	f7fc fb08 	bl	6ac <get_free_register>
    409c:	6003      	str	r3, [r0, #0]
    409e:	431e      	orrs	r6, r3
    40a0:	f7ff fac7 	bl	3632 <Code_826>
    40a4:	bd00      	pop	{pc}
    40a6:	46c0      	nop			; (mov r8, r8)

000040a8 <Dictionary_1028>:
    40a8:	000040e8 	andeq	r4, r0, r8, ror #1
    40ac:	6c050030 	stcvs	0, cr0, [r5], {48}	; 0x30
    40b0:	65766165 	ldrbvs	r6, [r6, #-357]!	; 0x165

000040b4 <Code_1028>:
    40b4:	b500      	push	{lr}
    40b6:	4877      	ldr	r0, [pc, #476]	; (4294 <gemeinsame_schleifenoptimierung+0x86>)
    40b8:	6801      	ldr	r1, [r0, #0]
    40ba:	003b      	movs	r3, r7
    40bc:	3f04      	subs	r7, #4
    40be:	681a      	ldr	r2, [r3, #0]
    40c0:	3b04      	subs	r3, #4
    40c2:	601a      	str	r2, [r3, #0]
    40c4:	3308      	adds	r3, #8
    40c6:	428b      	cmp	r3, r1
    40c8:	d1f9      	bne.n	40be <Code_1028+0xa>
    40ca:	b403      	push	{r0, r1}
    40cc:	f7ff fe6c 	bl	3da8 <branch_v>
    40d0:	bc03      	pop	{r0, r1}
    40d2:	0033      	movs	r3, r6
    40d4:	cf40      	ldmia	r7!, {r6}
    40d6:	3904      	subs	r1, #4
    40d8:	600b      	str	r3, [r1, #0]
    40da:	6001      	str	r1, [r0, #0]
    40dc:	3904      	subs	r1, #4
    40de:	680a      	ldr	r2, [r1, #0]
    40e0:	3201      	adds	r2, #1
    40e2:	600a      	str	r2, [r1, #0]
    40e4:	bd00      	pop	{pc}
    40e6:	46c0      	nop			; (mov r8, r8)

000040e8 <Dictionary_1030>:
    40e8:	000040fc 	strdeq	r4, [r0], -ip
    40ec:	75060020 	strvc	r0, [r6, #-32]
    40f0:	6f6f6c6e 	svcvs	0x006f6c6e
    40f4:	bc300070 	ldclt	0, cr0, [r0], #-448	; 0xfffffe40

000040f6 <Code_1030>:
    40f6:	bc30      	pop	{r4, r5}
    40f8:	4770      	bx	lr
    40fa:	46c0      	nop			; (mov r8, r8)

000040fc <Dictionary_1031>:
    40fc:	00004134 	andeq	r4, r0, r4, lsr r1
    4100:	2b050030 	blcs	1441c8 <BIT20+0x441c8>
    4104:	706f6f6c 	rsbvc	r6, pc, ip, ror #30

00004108 <Code_1031>:
    4108:	2e03      	cmp	r6, #3
    410a:	d000      	beq.n	410e <Code_1031+0x6>
    410c:	e6f2      	b.n	3ef4 <strukturen_passen_nicht>
    410e:	cf40      	ldmia	r7!, {r6}
    4110:	b500      	push	{lr}
    4112:	3f04      	subs	r7, #4
    4114:	603e      	str	r6, [r7, #0]
    4116:	4e60      	ldr	r6, [pc, #384]	; (4298 <gemeinsame_schleifenoptimierung+0x8a>)
    4118:	f7ff f88d 	bl	3236 <Code_749>
    411c:	f7ff fe16 	bl	3d4c <r_branch_jvc>
    4120:	e01a      	b.n	4158 <loop_intern>

00004122 <struktur_plusloop>:
    4122:	2080      	movs	r0, #128	; 0x80
    4124:	0600      	lsls	r0, r0, #24
    4126:	1900      	adds	r0, r0, r4
    4128:	19a4      	adds	r4, r4, r6
    412a:	1b40      	subs	r0, r0, r5
    412c:	1980      	adds	r0, r0, r6
    412e:	cf40      	ldmia	r7!, {r6}
    4130:	4770      	bx	lr
    4132:	46c0      	nop			; (mov r8, r8)

00004134 <Dictionary_1035>:
    4134:	00004178 	andeq	r4, r0, r8, ror r1
    4138:	6c040030 	stcvs	0, cr0, [r4], {48}	; 0x30
    413c:	00706f6f 	rsbseq	r6, r0, pc, ror #30

00004140 <Code_1035>:
    4140:	2e03      	cmp	r6, #3
    4142:	d000      	beq.n	4146 <Code_1035+0x6>
    4144:	e6d6      	b.n	3ef4 <strukturen_passen_nicht>
    4146:	cf40      	ldmia	r7!, {r6}
    4148:	b500      	push	{lr}
    414a:	3f04      	subs	r7, #4
    414c:	603e      	str	r6, [r7, #0]
    414e:	4e53      	ldr	r6, [pc, #332]	; (429c <gemeinsame_schleifenoptimierung+0x8e>)
    4150:	f7ff f871 	bl	3236 <Code_749>
    4154:	f7ff fdee 	bl	3d34 <r_branch_jne>

00004158 <loop_intern>:
    4158:	f000 f94a 	bl	43f0 <spruenge_einpflegen>
    415c:	484d      	ldr	r0, [pc, #308]	; (4294 <gemeinsame_schleifenoptimierung+0x86>)
    415e:	0031      	movs	r1, r6
    4160:	cf40      	ldmia	r7!, {r6}
    4162:	6001      	str	r1, [r0, #0]
    4164:	3f04      	subs	r7, #4
    4166:	603e      	str	r6, [r7, #0]
    4168:	4e4d      	ldr	r6, [pc, #308]	; (42a0 <gemeinsame_schleifenoptimierung+0x92>)
    416a:	f7ff f864 	bl	3236 <Code_749>
    416e:	bd00      	pop	{pc}

00004170 <struktur_loop>:
    4170:	3401      	adds	r4, #1
    4172:	42ac      	cmp	r4, r5
    4174:	4770      	bx	lr
    4176:	46c0      	nop			; (mov r8, r8)

00004178 <Dictionary_1040>:
    4178:	000041c0 	andeq	r4, r0, r0, asr #3
    417c:	64020230 	strvs	r0, [r2], #-560	; 0x230
    4180:	b500006f 	strlt	r0, [r0, #-111]	; 0x6f

00004182 <Code_1040>:
    4182:	b500      	push	{lr}
    4184:	3f04      	subs	r7, #4
    4186:	603e      	str	r6, [r7, #0]
    4188:	4e46      	ldr	r6, [pc, #280]	; (42a4 <gemeinsame_schleifenoptimierung+0x96>)
    418a:	f7ff f854 	bl	3236 <Code_749>

0000418e <do_rest_der_schleifenstruktur>:
    418e:	4841      	ldr	r0, [pc, #260]	; (4294 <gemeinsame_schleifenoptimierung+0x86>)
    4190:	6801      	ldr	r1, [r0, #0]
    4192:	3f04      	subs	r7, #4
    4194:	603e      	str	r6, [r7, #0]
    4196:	000e      	movs	r6, r1
    4198:	3f04      	subs	r7, #4
    419a:	603e      	str	r6, [r7, #0]
    419c:	2600      	movs	r6, #0
    419e:	6007      	str	r7, [r0, #0]
    41a0:	f7ff fdc7 	bl	3d32 <branch_r>
    41a4:	3f04      	subs	r7, #4
    41a6:	603e      	str	r6, [r7, #0]
    41a8:	2603      	movs	r6, #3
    41aa:	bd00      	pop	{pc}
    41ac:	b500      	push	{lr}
    41ae:	f000 f82e 	bl	420e <gemeinsame_schleifenoptimierung>
    41b2:	e7ec      	b.n	418e <do_rest_der_schleifenstruktur>

000041b4 <struktur_do>:
    41b4:	b430      	push	{r4, r5}
    41b6:	0034      	movs	r4, r6
    41b8:	cf40      	ldmia	r7!, {r6}
    41ba:	0035      	movs	r5, r6
    41bc:	cf40      	ldmia	r7!, {r6}
    41be:	4770      	bx	lr

000041c0 <Dictionary_1050>:
    41c0:	000042b8 			; <UNDEFINED> instruction: 0x000042b8
    41c4:	3f030230 	svccc	0x00030230
    41c8:	b5006f64 	strlt	r6, [r0, #-3940]	; 0xf64

000041ca <Code_1050>:
    41ca:	b500      	push	{lr}
    41cc:	3f04      	subs	r7, #4
    41ce:	603e      	str	r6, [r7, #0]
    41d0:	4e34      	ldr	r6, [pc, #208]	; (42a4 <gemeinsame_schleifenoptimierung+0x96>)
    41d2:	f7ff f830 	bl	3236 <Code_749>

000041d6 <qdo_rest_der_schleifenstruktur>:
    41d6:	3f04      	subs	r7, #4
    41d8:	603e      	str	r6, [r7, #0]
    41da:	4e33      	ldr	r6, [pc, #204]	; (42a8 <gemeinsame_schleifenoptimierung+0x9a>)
    41dc:	f7ff fa29 	bl	3632 <Code_826>
    41e0:	482c      	ldr	r0, [pc, #176]	; (4294 <gemeinsame_schleifenoptimierung+0x86>)
    41e2:	6801      	ldr	r1, [r0, #0]
    41e4:	3f04      	subs	r7, #4
    41e6:	603e      	str	r6, [r7, #0]
    41e8:	000e      	movs	r6, r1
    41ea:	f7ff fddd 	bl	3da8 <branch_v>
    41ee:	3601      	adds	r6, #1
    41f0:	3f04      	subs	r7, #4
    41f2:	603e      	str	r6, [r7, #0]
    41f4:	2601      	movs	r6, #1
    41f6:	4827      	ldr	r0, [pc, #156]	; (4294 <gemeinsame_schleifenoptimierung+0x86>)
    41f8:	6007      	str	r7, [r0, #0]
    41fa:	f7ff fd9a 	bl	3d32 <branch_r>
    41fe:	3f04      	subs	r7, #4
    4200:	603e      	str	r6, [r7, #0]
    4202:	2603      	movs	r6, #3
    4204:	bd00      	pop	{pc}
    4206:	b500      	push	{lr}
    4208:	f000 f801 	bl	420e <gemeinsame_schleifenoptimierung>
    420c:	e7e3      	b.n	41d6 <qdo_rest_der_schleifenstruktur>

0000420e <gemeinsame_schleifenoptimierung>:
    420e:	b500      	push	{lr}
    4210:	f7fc fb15 	bl	83e <push_lr_nachholen>
    4214:	f7fc fa87 	bl	726 <expect_two_elements>
    4218:	f7fc f9ae 	bl	578 <tidyup_register_allocator_5os>
    421c:	f7fc f9b1 	bl	582 <tidyup_register_allocator_4os>
    4220:	f7fc f9b4 	bl	58c <tidyup_register_allocator_3os>
    4224:	3f04      	subs	r7, #4
    4226:	603e      	str	r6, [r7, #0]
    4228:	4e20      	ldr	r6, [pc, #128]	; (42ac <gemeinsame_schleifenoptimierung+0x9e>)
    422a:	f7ff fa02 	bl	3632 <Code_826>
    422e:	6801      	ldr	r1, [r0, #0]
    4230:	2928      	cmp	r1, #40	; 0x28
    4232:	d007      	beq.n	4244 <gemeinsame_schleifenoptimierung+0x36>
    4234:	3f04      	subs	r7, #4
    4236:	603e      	str	r6, [r7, #0]
    4238:	4e1d      	ldr	r6, [pc, #116]	; (42b0 <gemeinsame_schleifenoptimierung+0xa2>)
    423a:	00c9      	lsls	r1, r1, #3
    423c:	430e      	orrs	r6, r1
    423e:	f7ff f9f8 	bl	3632 <Code_826>
    4242:	e007      	b.n	4254 <gemeinsame_schleifenoptimierung+0x46>
    4244:	3f04      	subs	r7, #4
    4246:	603e      	str	r6, [r7, #0]
    4248:	6846      	ldr	r6, [r0, #4]
    424a:	3f04      	subs	r7, #4
    424c:	603e      	str	r6, [r7, #0]
    424e:	2604      	movs	r6, #4
    4250:	f7fe fe4c 	bl	2eec <Code_681>
    4254:	6881      	ldr	r1, [r0, #8]
    4256:	2928      	cmp	r1, #40	; 0x28
    4258:	d007      	beq.n	426a <gemeinsame_schleifenoptimierung+0x5c>
    425a:	3f04      	subs	r7, #4
    425c:	603e      	str	r6, [r7, #0]
    425e:	4e15      	ldr	r6, [pc, #84]	; (42b4 <gemeinsame_schleifenoptimierung+0xa6>)
    4260:	00c9      	lsls	r1, r1, #3
    4262:	430e      	orrs	r6, r1
    4264:	f7ff f9e5 	bl	3632 <Code_826>
    4268:	e007      	b.n	427a <gemeinsame_schleifenoptimierung+0x6c>
    426a:	3f04      	subs	r7, #4
    426c:	603e      	str	r6, [r7, #0]
    426e:	68c6      	ldr	r6, [r0, #12]
    4270:	3f04      	subs	r7, #4
    4272:	603e      	str	r6, [r7, #0]
    4274:	2605      	movs	r6, #5
    4276:	f7fe fe39 	bl	2eec <Code_681>
    427a:	f7fc f942 	bl	502 <eliminiere_tos>
    427e:	f7fc f940 	bl	502 <eliminiere_tos>
    4282:	f7fc f98d 	bl	5a0 <tidyup_register_allocator_tos>
    4286:	bd00      	pop	{pc}
    4288:	00009802 	andeq	r9, r0, r2, lsl #16
    428c:	00009800 	andeq	r9, r0, r0, lsl #16
    4290:	00000020 	andeq	r0, r0, r0, lsr #32
    4294:	1ffff00c 	svcne	0x00fff00c
    4298:	00004122 	andeq	r4, r0, r2, lsr #2
    429c:	00004170 	andeq	r4, r0, r0, ror r1
    42a0:	000040f6 	strdeq	r4, [r0], -r6
    42a4:	000041b4 			; <UNDEFINED> instruction: 0x000041b4
    42a8:	000042ac 	andeq	r4, r0, ip, lsr #5
    42ac:	0000b430 	andeq	fp, r0, r0, lsr r4
    42b0:	00000004 	andeq	r0, r0, r4
    42b4:	00000005 	andeq	r0, r0, r5

000042b8 <Dictionary_1072>:
    42b8:	000042d8 	ldrdeq	r4, [r0], -r8
    42bc:	63040030 	movwvs	r0, #16432	; 0x4030
    42c0:	00657361 	rsbeq	r7, r5, r1, ror #6

000042c4 <Code_1072>:
    42c4:	b500      	push	{lr}
    42c6:	f7fc faba 	bl	83e <push_lr_nachholen>
    42ca:	3f04      	subs	r7, #4
    42cc:	603e      	str	r6, [r7, #0]
    42ce:	2600      	movs	r6, #0
    42d0:	3f04      	subs	r7, #4
    42d2:	603e      	str	r6, [r7, #0]
    42d4:	2608      	movs	r6, #8
    42d6:	bd00      	pop	{pc}

000042d8 <Dictionary_1077>:
    42d8:	000042f0 	strdeq	r4, [r0], -r0
    42dc:	3f030030 	svccc	0x00030030
    42e0:	4868666f 	stmdami	r8!, {r0, r1, r2, r3, r5, r6, r9, sl, sp, lr}^

000042e2 <Code_1077>:
    42e2:	4868      	ldr	r0, [pc, #416]	; (4484 <Code_1110+0x4c>)
    42e4:	e00a      	b.n	42fc <of_inneneinsprung>

000042e6 <struktur_qof>:
    42e6:	3e01      	subs	r6, #1
    42e8:	41b6      	sbcs	r6, r6
    42ea:	cf40      	ldmia	r7!, {r6}
    42ec:	4770      	bx	lr
    42ee:	46c0      	nop			; (mov r8, r8)

000042f0 <Dictionary_1079>:
    42f0:	00004390 	muleq	r0, r0, r3
    42f4:	6f020230 	svcvs	0x00020230
    42f8:	48630066 	stmdami	r3!, {r1, r2, r5, r6}^

000042fa <Code_1079>:
    42fa:	4863      	ldr	r0, [pc, #396]	; (4488 <Code_1110+0x50>)

000042fc <of_inneneinsprung>:
    42fc:	2e08      	cmp	r6, #8
    42fe:	d000      	beq.n	4302 <of_inneneinsprung+0x6>
    4300:	e5f8      	b.n	3ef4 <strukturen_passen_nicht>
    4302:	cf40      	ldmia	r7!, {r6}
    4304:	b500      	push	{lr}
    4306:	3f04      	subs	r7, #4
    4308:	603e      	str	r6, [r7, #0]
    430a:	0006      	movs	r6, r0
    430c:	f7fe ff93 	bl	3236 <Code_749>

00004310 <of_opcodiereinsprung>:
    4310:	f7ff fd4a 	bl	3da8 <branch_v>
    4314:	6839      	ldr	r1, [r7, #0]
    4316:	603e      	str	r6, [r7, #0]
    4318:	460e      	mov	r6, r1
    431a:	3601      	adds	r6, #1
    431c:	3f04      	subs	r7, #4
    431e:	603e      	str	r6, [r7, #0]
    4320:	2609      	movs	r6, #9
    4322:	3f04      	subs	r7, #4
    4324:	603e      	str	r6, [r7, #0]
    4326:	4e59      	ldr	r6, [pc, #356]	; (448c <Code_1110+0x54>)
    4328:	f7ff f983 	bl	3632 <Code_826>
    432c:	bd00      	pop	{pc}
    432e:	2e08      	cmp	r6, #8
    4330:	d000      	beq.n	4334 <of_opcodiereinsprung+0x24>
    4332:	e5df      	b.n	3ef4 <strukturen_passen_nicht>
    4334:	cf40      	ldmia	r7!, {r6}
    4336:	b500      	push	{lr}
    4338:	f7fc f9f5 	bl	726 <expect_two_elements>
    433c:	f7fc f91c 	bl	578 <tidyup_register_allocator_5os>
    4340:	f7fc f91f 	bl	582 <tidyup_register_allocator_4os>
    4344:	f7fc f922 	bl	58c <tidyup_register_allocator_3os>
    4348:	3f04      	subs	r7, #4
    434a:	603e      	str	r6, [r7, #0]
    434c:	4e50      	ldr	r6, [pc, #320]	; (4490 <Code_1110+0x58>)
    434e:	f7fc fa29 	bl	7a4 <expect_nos_in_register>
    4352:	430e      	orrs	r6, r1
    4354:	6802      	ldr	r2, [r0, #0]
    4356:	2a28      	cmp	r2, #40	; 0x28
    4358:	d10d      	bne.n	4376 <of_opcodiereinsprung+0x66>
    435a:	6842      	ldr	r2, [r0, #4]
    435c:	2aff      	cmp	r2, #255	; 0xff
    435e:	d807      	bhi.n	4370 <of_opcodiereinsprung+0x60>
    4360:	cf40      	ldmia	r7!, {r6}
    4362:	3f04      	subs	r7, #4
    4364:	603e      	str	r6, [r7, #0]
    4366:	4e4b      	ldr	r6, [pc, #300]	; (4494 <Code_1110+0x5c>)
    4368:	4316      	orrs	r6, r2
    436a:	0209      	lsls	r1, r1, #8
    436c:	430e      	orrs	r6, r1
    436e:	e004      	b.n	437a <of_opcodiereinsprung+0x6a>
    4370:	f7fc fa0e 	bl	790 <expect_tos_in_register>
    4374:	000a      	movs	r2, r1
    4376:	00d2      	lsls	r2, r2, #3
    4378:	4316      	orrs	r6, r2
    437a:	f7ff f95a 	bl	3632 <Code_826>
    437e:	f7fc f8c0 	bl	502 <eliminiere_tos>
    4382:	f7fc f90d 	bl	5a0 <tidyup_register_allocator_tos>
    4386:	e7c3      	b.n	4310 <of_opcodiereinsprung>

00004388 <struktur_of>:
    4388:	0030      	movs	r0, r6
    438a:	cf40      	ldmia	r7!, {r6}
    438c:	42b0      	cmp	r0, r6
    438e:	4770      	bx	lr

00004390 <Dictionary_1095>:
    4390:	000043c8 	andeq	r4, r0, r8, asr #7
    4394:	65050030 	strvs	r0, [r5, #-48]	; 0x30
    4398:	666f646e 	strbtvs	r6, [pc], -lr, ror #8

0000439c <Code_1095>:
    439c:	2e09      	cmp	r6, #9
    439e:	d000      	beq.n	43a2 <Code_1095+0x6>
    43a0:	e5a8      	b.n	3ef4 <strukturen_passen_nicht>
    43a2:	cf40      	ldmia	r7!, {r6}
    43a4:	b500      	push	{lr}
    43a6:	b440      	push	{r6}
    43a8:	cf40      	ldmia	r7!, {r6}
    43aa:	f7ff fcfd 	bl	3da8 <branch_v>
    43ae:	6839      	ldr	r1, [r7, #0]
    43b0:	603e      	str	r6, [r7, #0]
    43b2:	460e      	mov	r6, r1
    43b4:	f7ff fd10 	bl	3dd8 <v_casebranch>
    43b8:	3f04      	subs	r7, #4
    43ba:	603e      	str	r6, [r7, #0]
    43bc:	bc40      	pop	{r6}
    43be:	3f04      	subs	r7, #4
    43c0:	603e      	str	r6, [r7, #0]
    43c2:	2608      	movs	r6, #8
    43c4:	bd00      	pop	{pc}
    43c6:	46c0      	nop			; (mov r8, r8)

000043c8 <Dictionary_1103>:
    43c8:	00004418 	andeq	r4, r0, r8, lsl r4
    43cc:	65070030 	strvs	r0, [r7, #-48]	; 0x30
    43d0:	6163646e 	cmnvs	r3, lr, ror #8
    43d4:	2e086573 	cfrshl64cs	mvdx8, mvdx3, r6

000043d6 <Code_1103>:
    43d6:	2e08      	cmp	r6, #8
    43d8:	d000      	beq.n	43dc <Code_1103+0x6>
    43da:	e58b      	b.n	3ef4 <strukturen_passen_nicht>
    43dc:	cf40      	ldmia	r7!, {r6}
    43de:	b500      	push	{lr}
    43e0:	3f04      	subs	r7, #4
    43e2:	603e      	str	r6, [r7, #0]
    43e4:	4e29      	ldr	r6, [pc, #164]	; (448c <Code_1110+0x54>)
    43e6:	f7ff f924 	bl	3632 <Code_826>
    43ea:	f000 f801 	bl	43f0 <spruenge_einpflegen>
    43ee:	bd00      	pop	{pc}

000043f0 <spruenge_einpflegen>:
    43f0:	b500      	push	{lr}
    43f2:	0030      	movs	r0, r6
    43f4:	cf40      	ldmia	r7!, {r6}
    43f6:	2800      	cmp	r0, #0
    43f8:	d00d      	beq.n	4416 <spruenge_einpflegen+0x26>
    43fa:	b403      	push	{r0, r1}
    43fc:	2101      	movs	r1, #1
    43fe:	4031      	ands	r1, r6
    4400:	2900      	cmp	r1, #0
    4402:	d003      	beq.n	440c <spruenge_einpflegen+0x1c>
    4404:	3e01      	subs	r6, #1
    4406:	f7ff fcde 	bl	3dc6 <v_nullbranch>
    440a:	e001      	b.n	4410 <spruenge_einpflegen+0x20>
    440c:	f7ff fcd5 	bl	3dba <v_branch>
    4410:	bc03      	pop	{r0, r1}
    4412:	3801      	subs	r0, #1
    4414:	e7ef      	b.n	43f6 <spruenge_einpflegen+0x6>
    4416:	bd00      	pop	{pc}

00004418 <Dictionary_1108>:
    4418:	0000442c 	andeq	r4, r0, ip, lsr #8
    441c:	74050000 	strvc	r0, [r5]
    4420:	6e656b6f 	vnmulvs.f64	d22, d5, d31

00004424 <Code_1108>:
    4424:	3f04      	subs	r7, #4
    4426:	603e      	str	r6, [r7, #0]
    4428:	2620      	movs	r6, #32
    442a:	e005      	b.n	4438 <Code_1110>

0000442c <Dictionary_1110>:
    442c:	0000449c 	muleq	r0, ip, r4
    4430:	70050000 	andvc	r0, r5, r0
    4434:	65737261 	ldrbvs	r7, [r3, #-609]!	; 0x261

00004438 <Code_1110>:
    4438:	b510      	push	{r4, lr}
    443a:	f7fe fb50 	bl	2ade <Code_589>
    443e:	0031      	movs	r1, r6
    4440:	cf40      	ldmia	r7!, {r6}
    4442:	0030      	movs	r0, r6
    4444:	cf40      	ldmia	r7!, {r6}
    4446:	4a14      	ldr	r2, [pc, #80]	; (4498 <Code_1110+0x60>)
    4448:	6812      	ldr	r2, [r2, #0]
    444a:	1884      	adds	r4, r0, r2
    444c:	2e20      	cmp	r6, #32
    444e:	d107      	bne.n	4460 <Code_1110+0x28>
    4450:	4291      	cmp	r1, r2
    4452:	d00f      	beq.n	4474 <Code_1110+0x3c>
    4454:	5c83      	ldrb	r3, [r0, r2]
    4456:	42b3      	cmp	r3, r6
    4458:	d102      	bne.n	4460 <Code_1110+0x28>
    445a:	3201      	adds	r2, #1
    445c:	1884      	adds	r4, r0, r2
    445e:	e7f7      	b.n	4450 <Code_1110+0x18>
    4460:	4291      	cmp	r1, r2
    4462:	d007      	beq.n	4474 <Code_1110+0x3c>
    4464:	5c83      	ldrb	r3, [r0, r2]
    4466:	3201      	adds	r2, #1
    4468:	42b3      	cmp	r3, r6
    446a:	d1f9      	bne.n	4460 <Code_1110+0x28>
    446c:	1886      	adds	r6, r0, r2
    446e:	1b36      	subs	r6, r6, r4
    4470:	3e01      	subs	r6, #1
    4472:	e001      	b.n	4478 <Code_1110+0x40>
    4474:	1886      	adds	r6, r0, r2
    4476:	1b36      	subs	r6, r6, r4
    4478:	3f04      	subs	r7, #4
    447a:	603c      	str	r4, [r7, #0]
    447c:	4806      	ldr	r0, [pc, #24]	; (4498 <Code_1110+0x60>)
    447e:	6002      	str	r2, [r0, #0]
    4480:	bd10      	pop	{r4, pc}
    4482:	42e60000 	rscmi	r0, r6, #0
    4486:	43880000 	orrmi	r0, r8, #0
    448a:	cf400000 	svcgt	0x00400000
    448e:	42800000 	addmi	r0, r0, #0
    4492:	28000000 	stmdacs	r0, {}	; <UNPREDICTABLE>
    4496:	2fe40000 	svccs	0x00e40000
    449a:	44dc2000 	ldrbmi	r2, [ip]

0000449c <Dictionary_1113>:
    449c:	000044dc 	ldrdeq	r4, [r0], -ip
    44a0:	64050000 	strvs	r0, [r5]
    44a4:	74696769 	strbtvc	r6, [r9], #-1897	; 0x769

000044a8 <Code_1113>:
    44a8:	4bd4      	ldr	r3, [pc, #848]	; (47fc <Code_1176+0x8>)
    44aa:	681b      	ldr	r3, [r3, #0]

000044ac <digit_base_r3>:
    44ac:	3e30      	subs	r6, #48	; 0x30
    44ae:	d30b      	bcc.n	44c8 <digit_base_r3+0x1c>
    44b0:	2e0a      	cmp	r6, #10
    44b2:	d30b      	bcc.n	44cc <digit_base_r3+0x20>
    44b4:	3e07      	subs	r6, #7
    44b6:	2e0a      	cmp	r6, #10
    44b8:	d306      	bcc.n	44c8 <digit_base_r3+0x1c>
    44ba:	2e24      	cmp	r6, #36	; 0x24
    44bc:	d306      	bcc.n	44cc <digit_base_r3+0x20>
    44be:	3e20      	subs	r6, #32
    44c0:	2e0a      	cmp	r6, #10
    44c2:	d301      	bcc.n	44c8 <digit_base_r3+0x1c>
    44c4:	2e24      	cmp	r6, #36	; 0x24
    44c6:	d301      	bcc.n	44cc <digit_base_r3+0x20>
    44c8:	2600      	movs	r6, #0
    44ca:	4770      	bx	lr
    44cc:	429e      	cmp	r6, r3
    44ce:	d2fb      	bcs.n	44c8 <digit_base_r3+0x1c>
    44d0:	3f04      	subs	r7, #4
    44d2:	603e      	str	r6, [r7, #0]
    44d4:	2600      	movs	r6, #0
    44d6:	43f6      	mvns	r6, r6
    44d8:	4770      	bx	lr
    44da:	46c0      	nop			; (mov r8, r8)

000044dc <Dictionary_1115>:
    44dc:	000045e8 	andeq	r4, r0, r8, ror #11
    44e0:	6e060000 	cdpvs	0, 0, cr0, cr6, cr0, {0}
    44e4:	65626d75 	strbvs	r6, [r2, #-3445]!	; 0xd75
    44e8:	b53f0072 	ldrlt	r0, [pc, #-114]!	; 447e <Code_1110+0x46>

000044ea <Code_1115>:
    44ea:	b53f      	push	{r0, r1, r2, r3, r4, r5, lr}
    44ec:	0031      	movs	r1, r6
    44ee:	cf40      	ldmia	r7!, {r6}
    44f0:	1e70      	subs	r0, r6, #1
    44f2:	2601      	movs	r6, #1
    44f4:	2201      	movs	r2, #1
    44f6:	b404      	push	{r2}
    44f8:	4bc0      	ldr	r3, [pc, #768]	; (47fc <Code_1176+0x8>)
    44fa:	681b      	ldr	r3, [r3, #0]
    44fc:	2400      	movs	r4, #0
    44fe:	2500      	movs	r5, #0
    4500:	2900      	cmp	r1, #0
    4502:	d03c      	beq.n	457e <Code_1115+0x94>
    4504:	3001      	adds	r0, #1
    4506:	3901      	subs	r1, #1
    4508:	7802      	ldrb	r2, [r0, #0]
    450a:	2a2d      	cmp	r2, #45	; 0x2d
    450c:	d104      	bne.n	4518 <Code_1115+0x2e>
    450e:	b001      	add	sp, #4
    4510:	2200      	movs	r2, #0
    4512:	43d2      	mvns	r2, r2
    4514:	b404      	push	{r2}
    4516:	e7f3      	b.n	4500 <Code_1115+0x16>
    4518:	2a23      	cmp	r2, #35	; 0x23
    451a:	d101      	bne.n	4520 <Code_1115+0x36>
    451c:	230a      	movs	r3, #10
    451e:	e7ef      	b.n	4500 <Code_1115+0x16>
    4520:	2a24      	cmp	r2, #36	; 0x24
    4522:	d101      	bne.n	4528 <Code_1115+0x3e>
    4524:	2310      	movs	r3, #16
    4526:	e7eb      	b.n	4500 <Code_1115+0x16>
    4528:	2a25      	cmp	r2, #37	; 0x25
    452a:	d101      	bne.n	4530 <Code_1115+0x46>
    452c:	2302      	movs	r3, #2
    452e:	e7e7      	b.n	4500 <Code_1115+0x16>
    4530:	2a2e      	cmp	r2, #46	; 0x2e
    4532:	d101      	bne.n	4538 <Code_1115+0x4e>
    4534:	2602      	movs	r6, #2
    4536:	e7e3      	b.n	4500 <Code_1115+0x16>
    4538:	2a2c      	cmp	r2, #44	; 0x2c
    453a:	d036      	beq.n	45aa <number_nachkommastellen>
    453c:	3f04      	subs	r7, #4
    453e:	603e      	str	r6, [r7, #0]
    4540:	0016      	movs	r6, r2
    4542:	f7ff ffb3 	bl	44ac <digit_base_r3>
    4546:	2e00      	cmp	r6, #0
    4548:	cf40      	ldmia	r7!, {r6}
    454a:	d02b      	beq.n	45a4 <Code_1115+0xba>
    454c:	3f04      	subs	r7, #4
    454e:	603e      	str	r6, [r7, #0]
    4550:	0026      	movs	r6, r4
    4552:	3f04      	subs	r7, #4
    4554:	603e      	str	r6, [r7, #0]
    4556:	002e      	movs	r6, r5
    4558:	3f04      	subs	r7, #4
    455a:	603e      	str	r6, [r7, #0]
    455c:	001e      	movs	r6, r3
    455e:	3f04      	subs	r7, #4
    4560:	603e      	str	r6, [r7, #0]
    4562:	2600      	movs	r6, #0
    4564:	b40f      	push	{r0, r1, r2, r3}
    4566:	f7fc fb74 	bl	c52 <Code_118>
    456a:	bc0f      	pop	{r0, r1, r2, r3}
    456c:	0035      	movs	r5, r6
    456e:	cf40      	ldmia	r7!, {r6}
    4570:	0034      	movs	r4, r6
    4572:	cf40      	ldmia	r7!, {r6}
    4574:	2200      	movs	r2, #0
    4576:	19a4      	adds	r4, r4, r6
    4578:	4155      	adcs	r5, r2
    457a:	cf40      	ldmia	r7!, {r6}
    457c:	e7c0      	b.n	4500 <Code_1115+0x16>
    457e:	bc04      	pop	{r2}
    4580:	2a00      	cmp	r2, #0
    4582:	d504      	bpl.n	458e <Code_1115+0xa4>
    4584:	2200      	movs	r2, #0
    4586:	43e4      	mvns	r4, r4
    4588:	43ed      	mvns	r5, r5
    458a:	3401      	adds	r4, #1
    458c:	4155      	adcs	r5, r2
    458e:	0033      	movs	r3, r6
    4590:	0026      	movs	r6, r4
    4592:	2b01      	cmp	r3, #1
    4594:	d002      	beq.n	459c <Code_1115+0xb2>
    4596:	3f04      	subs	r7, #4
    4598:	603e      	str	r6, [r7, #0]
    459a:	002e      	movs	r6, r5
    459c:	3f04      	subs	r7, #4
    459e:	603e      	str	r6, [r7, #0]
    45a0:	001e      	movs	r6, r3
    45a2:	bd3f      	pop	{r0, r1, r2, r3, r4, r5, pc}
    45a4:	b001      	add	sp, #4
    45a6:	2600      	movs	r6, #0
    45a8:	bd3f      	pop	{r0, r1, r2, r3, r4, r5, pc}

000045aa <number_nachkommastellen>:
    45aa:	0025      	movs	r5, r4
    45ac:	2400      	movs	r4, #0
    45ae:	2602      	movs	r6, #2
    45b0:	2900      	cmp	r1, #0
    45b2:	d0e4      	beq.n	457e <Code_1115+0x94>
    45b4:	5c42      	ldrb	r2, [r0, r1]
    45b6:	3901      	subs	r1, #1
    45b8:	2a2e      	cmp	r2, #46	; 0x2e
    45ba:	d0f9      	beq.n	45b0 <number_nachkommastellen+0x6>
    45bc:	3f04      	subs	r7, #4
    45be:	603e      	str	r6, [r7, #0]
    45c0:	0016      	movs	r6, r2
    45c2:	f7ff ff73 	bl	44ac <digit_base_r3>
    45c6:	2e00      	cmp	r6, #0
    45c8:	cf40      	ldmia	r7!, {r6}
    45ca:	d0eb      	beq.n	45a4 <Code_1115+0xba>
    45cc:	3f04      	subs	r7, #4
    45ce:	603c      	str	r4, [r7, #0]
    45d0:	3f04      	subs	r7, #4
    45d2:	603e      	str	r6, [r7, #0]
    45d4:	001e      	movs	r6, r3
    45d6:	b40f      	push	{r0, r1, r2, r3}
    45d8:	f7fc fbef 	bl	dba <Code_154>
    45dc:	bc0f      	pop	{r0, r1, r2, r3}
    45de:	0034      	movs	r4, r6
    45e0:	cf40      	ldmia	r7!, {r6}
    45e2:	cf40      	ldmia	r7!, {r6}
    45e4:	e7e4      	b.n	45b0 <number_nachkommastellen+0x6>
    45e6:	46c0      	nop			; (mov r8, r8)

000045e8 <Dictionary_1142>:
    45e8:	0000460c 	andeq	r4, r0, ip, lsl #12
    45ec:	2e060000 	cdpcs	0, 0, cr0, cr6, cr0, {0}
    45f0:	69676964 	stmdbvs	r7!, {r2, r5, r6, r8, fp, sp, lr}^
    45f4:	2e0a0074 	mcrcs	0, 0, r0, cr10, cr4, {3}

000045f6 <Code_1142>:
    45f6:	2e0a      	cmp	r6, #10
    45f8:	d201      	bcs.n	45fe <Code_1142+0x8>
    45fa:	3630      	adds	r6, #48	; 0x30
    45fc:	4770      	bx	lr
    45fe:	2e24      	cmp	r6, #36	; 0x24
    4600:	d201      	bcs.n	4606 <Code_1142+0x10>
    4602:	3637      	adds	r6, #55	; 0x37
    4604:	4770      	bx	lr
    4606:	2623      	movs	r6, #35	; 0x23
    4608:	4770      	bx	lr
    460a:	46c0      	nop			; (mov r8, r8)

0000460c <Dictionary_1143>:
    460c:	00004644 	andeq	r4, r0, r4, asr #12
    4610:	68040000 	stmdavs	r4, {}	; <UNPREDICTABLE>
    4614:	00646c6f 	rsbeq	r6, r4, pc, ror #24

00004618 <Code_1143>:
    4618:	0033      	movs	r3, r6
    461a:	cf40      	ldmia	r7!, {r6}
    461c:	4878      	ldr	r0, [pc, #480]	; (4800 <Code_1176+0xc>)
    461e:	7801      	ldrb	r1, [r0, #0]
    4620:	293f      	cmp	r1, #63	; 0x3f
    4622:	d20d      	bcs.n	4640 <Code_1143+0x28>
    4624:	3101      	adds	r1, #1
    4626:	7001      	strb	r1, [r0, #0]
    4628:	1840      	adds	r0, r0, r1
    462a:	2901      	cmp	r1, #1
    462c:	d007      	beq.n	463e <Code_1143+0x26>
    462e:	3801      	subs	r0, #1
    4630:	7802      	ldrb	r2, [r0, #0]
    4632:	3001      	adds	r0, #1
    4634:	7002      	strb	r2, [r0, #0]
    4636:	3801      	subs	r0, #1
    4638:	3901      	subs	r1, #1
    463a:	2901      	cmp	r1, #1
    463c:	d1f7      	bne.n	462e <Code_1143+0x16>
    463e:	7003      	strb	r3, [r0, #0]
    4640:	4770      	bx	lr
    4642:	46c0      	nop			; (mov r8, r8)

00004644 <Dictionary_1145>:
    4644:	00004664 	andeq	r4, r0, r4, ror #12
    4648:	68050000 	stmdavs	r5, {}	; <UNPREDICTABLE>
    464c:	3c646c6f 	stclcc	12, cr6, [r4], #-444	; 0xfffffe44

00004650 <Code_1145>:
    4650:	0033      	movs	r3, r6
    4652:	cf40      	ldmia	r7!, {r6}
    4654:	486a      	ldr	r0, [pc, #424]	; (4800 <Code_1176+0xc>)
    4656:	7801      	ldrb	r1, [r0, #0]
    4658:	293f      	cmp	r1, #63	; 0x3f
    465a:	d202      	bcs.n	4662 <Code_1145+0x12>
    465c:	3101      	adds	r1, #1
    465e:	7001      	strb	r1, [r0, #0]
    4660:	5443      	strb	r3, [r0, r1]
    4662:	4770      	bx	lr

00004664 <Dictionary_1147>:
    4664:	0000467c 	andeq	r4, r0, ip, ror r6
    4668:	73040000 	movwvc	r0, #16384	; 0x4000
    466c:	006e6769 	rsbeq	r6, lr, r9, ror #14

00004670 <Code_1147>:
    4670:	2e00      	cmp	r6, #0
    4672:	d401      	bmi.n	4678 <Code_1147+0x8>
    4674:	cf40      	ldmia	r7!, {r6}
    4676:	4770      	bx	lr
    4678:	262d      	movs	r6, #45	; 0x2d
    467a:	e7cd      	b.n	4618 <Code_1143>

0000467c <Dictionary_1149>:
    467c:	00004690 	muleq	r0, r0, r6
    4680:	23020000 	movwcs	r0, #8192	; 0x2000
    4684:	485e003e 	ldmdami	lr, {r1, r2, r3, r4, r5}^

00004686 <Code_1149>:
    4686:	485e      	ldr	r0, [pc, #376]	; (4800 <Code_1176+0xc>)
    4688:	7806      	ldrb	r6, [r0, #0]
    468a:	3001      	adds	r0, #1
    468c:	6038      	str	r0, [r7, #0]
    468e:	4770      	bx	lr

00004690 <Dictionary_1150>:
    4690:	000046a8 	andeq	r4, r0, r8, lsr #13
    4694:	66030000 	strvs	r0, [r3], -r0
    4698:	b5105323 	ldrlt	r5, [r0, #-803]	; 0x323

0000469a <Code_1150>:
    469a:	b510      	push	{r4, lr}
    469c:	2420      	movs	r4, #32
    469e:	f000 f808 	bl	46b2 <Code_1151>
    46a2:	3c01      	subs	r4, #1
    46a4:	d1fb      	bne.n	469e <Code_1150+0x4>
    46a6:	bd10      	pop	{r4, pc}

000046a8 <Dictionary_1151>:
    46a8:	000046cc 	andeq	r4, r0, ip, asr #13
    46ac:	66020000 	strvs	r0, [r2], -r0
    46b0:	b5000023 	strlt	r0, [r0, #-35]	; 0x23

000046b2 <Code_1151>:
    46b2:	b500      	push	{lr}
    46b4:	3f04      	subs	r7, #4
    46b6:	603e      	str	r6, [r7, #0]
    46b8:	4e50      	ldr	r6, [pc, #320]	; (47fc <Code_1176+0x8>)
    46ba:	6836      	ldr	r6, [r6, #0]
    46bc:	f7fc fa9b 	bl	bf6 <Code_116>
    46c0:	f7ff ff99 	bl	45f6 <Code_1142>
    46c4:	f7ff ffc4 	bl	4650 <Code_1145>
    46c8:	bd00      	pop	{pc}
    46ca:	46c0      	nop			; (mov r8, r8)

000046cc <Dictionary_1153>:
    46cc:	000046e8 	andeq	r4, r0, r8, ror #13
    46d0:	23020000 	movwcs	r0, #8192	; 0x2000
    46d4:	b5000053 	strlt	r0, [r0, #-83]	; 0x53

000046d6 <Code_1153>:
    46d6:	b500      	push	{lr}
    46d8:	f000 f80a 	bl	46f0 <Code_1154>
    46dc:	2e00      	cmp	r6, #0
    46de:	d1fb      	bne.n	46d8 <Code_1153+0x2>
    46e0:	6838      	ldr	r0, [r7, #0]
    46e2:	2800      	cmp	r0, #0
    46e4:	d1f8      	bne.n	46d8 <Code_1153+0x2>
    46e6:	bd00      	pop	{pc}

000046e8 <Dictionary_1154>:
    46e8:	00004714 	andeq	r4, r0, r4, lsl r7
    46ec:	23010000 	movwcs	r0, #4096	; 0x1000

000046f0 <Code_1154>:
    46f0:	b500      	push	{lr}
    46f2:	3f04      	subs	r7, #4
    46f4:	603e      	str	r6, [r7, #0]
    46f6:	4e41      	ldr	r6, [pc, #260]	; (47fc <Code_1176+0x8>)
    46f8:	6836      	ldr	r6, [r6, #0]
    46fa:	3f04      	subs	r7, #4
    46fc:	603e      	str	r6, [r7, #0]
    46fe:	2600      	movs	r6, #0
    4700:	f7fc fb7b 	bl	dfa <Code_163>
    4704:	f7fc f8d6 	bl	8b4 <Code_76>
    4708:	cf40      	ldmia	r7!, {r6}
    470a:	f7ff ff74 	bl	45f6 <Code_1142>
    470e:	f7ff ff83 	bl	4618 <Code_1143>
    4712:	bd00      	pop	{pc}

00004714 <Dictionary_1159>:
    4714:	00004728 	andeq	r4, r0, r8, lsr #14
    4718:	3c020000 	stccc	0, cr0, [r2], {0}
    471c:	48380023 	ldmdami	r8!, {r0, r1, r5}

0000471e <Code_1159>:
    471e:	4838      	ldr	r0, [pc, #224]	; (4800 <Code_1176+0xc>)
    4720:	2100      	movs	r1, #0
    4722:	7001      	strb	r1, [r0, #0]
    4724:	4770      	bx	lr
    4726:	46c0      	nop			; (mov r8, r8)

00004728 <Dictionary_1160>:
    4728:	0000473c 	andeq	r4, r0, ip, lsr r7
    472c:	66020000 	strvs	r0, [r2], -r0
    4730:	3f04002e 	svccc	0x0004002e

00004732 <Code_1160>:
    4732:	3f04      	subs	r7, #4
    4734:	603e      	str	r6, [r7, #0]
    4736:	2620      	movs	r6, #32
    4738:	e005      	b.n	4746 <Code_1163>
    473a:	46c0      	nop			; (mov r8, r8)

0000473c <Dictionary_1163>:
    473c:	0000478c 	andeq	r4, r0, ip, lsl #15
    4740:	66030000 	strvs	r0, [r3], -r0
    4744:	b5006e2e 	strlt	r6, [r0, #-3630]	; 0xe2e

00004746 <Code_1163>:
    4746:	b500      	push	{lr}
    4748:	b410      	push	{r4}
    474a:	0034      	movs	r4, r6
    474c:	cf40      	ldmia	r7!, {r6}
    474e:	f7fc fd8b 	bl	1268 <Code_210>
    4752:	f7fc f9cf 	bl	af4 <Code_104>
    4756:	3f04      	subs	r7, #4
    4758:	603e      	str	r6, [r7, #0]
    475a:	2600      	movs	r6, #0
    475c:	f7ff ffdf 	bl	471e <Code_1159>
    4760:	f7ff ffb9 	bl	46d6 <Code_1153>
    4764:	cf40      	ldmia	r7!, {r6}
    4766:	262c      	movs	r6, #44	; 0x2c
    4768:	f7ff ff72 	bl	4650 <Code_1145>
    476c:	2c00      	cmp	r4, #0
    476e:	d003      	beq.n	4778 <Code_1163+0x32>
    4770:	f7ff ff9f 	bl	46b2 <Code_1151>
    4774:	3c01      	subs	r4, #1
    4776:	d1fb      	bne.n	4770 <Code_1163+0x2a>
    4778:	bc10      	pop	{r4}
    477a:	cf40      	ldmia	r7!, {r6}
    477c:	f7ff ff78 	bl	4670 <Code_1147>
    4780:	3f04      	subs	r7, #4
    4782:	603e      	str	r6, [r7, #0]
    4784:	3f04      	subs	r7, #4
    4786:	603e      	str	r6, [r7, #0]
    4788:	e01e      	b.n	47c8 <abschluss_zahlenausgabe>
    478a:	46c0      	nop			; (mov r8, r8)

0000478c <Dictionary_1171>:
    478c:	000047a4 	andeq	r4, r0, r4, lsr #15
    4790:	75030000 	strvc	r0, [r3]
    4794:	b5002e64 	strlt	r2, [r0, #-3684]	; 0xe64

00004796 <Code_1171>:
    4796:	b500      	push	{lr}
    4798:	f7ff ffc1 	bl	471e <Code_1159>
    479c:	f7ff ff9b 	bl	46d6 <Code_1153>
    47a0:	e012      	b.n	47c8 <abschluss_zahlenausgabe>
    47a2:	46c0      	nop			; (mov r8, r8)

000047a4 <Dictionary_1172>:
    47a4:	000047d8 	ldrdeq	r4, [r0], -r8
    47a8:	64020000 	strvs	r0, [r2]
    47ac:	b500002e 	strlt	r0, [r0, #-46]	; 0x2e

000047ae <Code_1172>:
    47ae:	b500      	push	{lr}
    47b0:	f7fc fd5a 	bl	1268 <Code_210>
    47b4:	f7fc f99e 	bl	af4 <Code_104>
    47b8:	f7ff ffb1 	bl	471e <Code_1159>
    47bc:	f7ff ff8b 	bl	46d6 <Code_1153>
    47c0:	f7fc fd65 	bl	128e <Code_211>
    47c4:	f7ff ff54 	bl	4670 <Code_1147>

000047c8 <abschluss_zahlenausgabe>:
    47c8:	f7ff ff5d 	bl	4686 <Code_1149>
    47cc:	f7fe faa0 	bl	2d10 <Code_641>
    47d0:	f7fe f9ec 	bl	2bac <Code_606>
    47d4:	bd00      	pop	{pc}
    47d6:	46c0      	nop			; (mov r8, r8)

000047d8 <Dictionary_1173>:
    47d8:	000047ec 	andeq	r4, r0, ip, ror #15
    47dc:	75020000 	strvc	r0, [r2]
    47e0:	3f04002e 	svccc	0x0004002e

000047e2 <Code_1173>:
    47e2:	3f04      	subs	r7, #4
    47e4:	603e      	str	r6, [r7, #0]
    47e6:	2600      	movs	r6, #0
    47e8:	e7d5      	b.n	4796 <Code_1171>
    47ea:	46c0      	nop			; (mov r8, r8)

000047ec <Dictionary_1176>:
    47ec:	000049b4 			; <UNDEFINED> instruction: 0x000049b4
    47f0:	2e010000 	cdpcs	0, 0, cr0, cr1, cr0, {0}

000047f4 <Code_1176>:
    47f4:	3f04      	subs	r7, #4
    47f6:	603e      	str	r6, [r7, #0]
    47f8:	17f6      	asrs	r6, r6, #31
    47fa:	e7d8      	b.n	47ae <Code_1172>
    47fc:	20002ffc 	strdcs	r2, [r0], -ip
    4800:	1ffff084 	svcne	0x00fff084

00004804 <konstantenfaltungszeiger_setzen>:
    4804:	b530      	push	{r4, r5, lr}
    4806:	4cd7      	ldr	r4, [pc, #860]	; (4b64 <quit_innenschleife+0x14>)
    4808:	6825      	ldr	r5, [r4, #0]
    480a:	2d00      	cmp	r5, #0
    480c:	d101      	bne.n	4812 <konstantenfaltungszeiger_setzen+0xe>
    480e:	003d      	movs	r5, r7
    4810:	6025      	str	r5, [r4, #0]
    4812:	bd30      	pop	{r4, r5, pc}

00004814 <konstantenfaltungszeiger_neusetzen>:
    4814:	b530      	push	{r4, r5, lr}
    4816:	4cd3      	ldr	r4, [pc, #844]	; (4b64 <quit_innenschleife+0x14>)
    4818:	003d      	movs	r5, r7
    481a:	6025      	str	r5, [r4, #0]
    481c:	bd30      	pop	{r4, r5, pc}

0000481e <konstantenfaltungszeiger_loeschen>:
    481e:	b530      	push	{r4, r5, lr}
    4820:	4cd0      	ldr	r4, [pc, #832]	; (4b64 <quit_innenschleife+0x14>)
    4822:	2500      	movs	r5, #0
    4824:	6025      	str	r5, [r4, #0]
    4826:	bd30      	pop	{r4, r5, pc}

00004828 <wievielefaltkonstanten>:
    4828:	4bce      	ldr	r3, [pc, #824]	; (4b64 <quit_innenschleife+0x14>)
    482a:	681b      	ldr	r3, [r3, #0]
    482c:	1bdb      	subs	r3, r3, r7
    482e:	089b      	lsrs	r3, r3, #2
    4830:	4770      	bx	lr

00004832 <kompilator>:
    4832:	b500      	push	{lr}
    4834:	0031      	movs	r1, r6
    4836:	cf40      	ldmia	r7!, {r6}
    4838:	48cb      	ldr	r0, [pc, #812]	; (4b68 <quit_innenschleife+0x18>)
    483a:	4008      	ands	r0, r1
    483c:	d002      	beq.n	4844 <kompilator+0x12>
    483e:	f000 f8a1 	bl	4984 <inline_cache_parser>
    4842:	bd00      	pop	{pc}
    4844:	48c9      	ldr	r0, [pc, #804]	; (4b6c <quit_innenschleife+0x1c>)
    4846:	4008      	ands	r0, r1
    4848:	d101      	bne.n	484e <kompilator+0x1c>
    484a:	f7fd f84d 	bl	18e8 <sprungschreiber_flaggenerator>
    484e:	0032      	movs	r2, r6
    4850:	cf40      	ldmia	r7!, {r6}
    4852:	f7ff ffd7 	bl	4804 <konstantenfaltungszeiger_setzen>
    4856:	48c6      	ldr	r0, [pc, #792]	; (4b70 <quit_innenschleife+0x20>)
    4858:	4008      	ands	r0, r1
    485a:	d003      	beq.n	4864 <kompilator+0x32>
    485c:	3f04      	subs	r7, #4
    485e:	603e      	str	r6, [r7, #0]
    4860:	0016      	movs	r6, r2
    4862:	bd00      	pop	{pc}
    4864:	f7ff ffe0 	bl	4828 <wievielefaltkonstanten>
    4868:	2080      	movs	r0, #128	; 0x80
    486a:	4008      	ands	r0, r1
    486c:	d106      	bne.n	487c <.interpret_faltoptimierung>
    486e:	2040      	movs	r0, #64	; 0x40
    4870:	4008      	ands	r0, r1
    4872:	d009      	beq.n	4888 <.interpret_allocator>

00004874 <.interpret_genugkonstanten>:
    4874:	200f      	movs	r0, #15
    4876:	4008      	ands	r0, r1
    4878:	4283      	cmp	r3, r0
    487a:	d305      	bcc.n	4888 <.interpret_allocator>

0000487c <.interpret_faltoptimierung>:
    487c:	3f04      	subs	r7, #4
    487e:	603e      	str	r6, [r7, #0]
    4880:	0016      	movs	r6, r2
    4882:	f7fe fd80 	bl	3386 <Code_773>
    4886:	bd00      	pop	{pc}

00004888 <.interpret_allocator>:
    4888:	48ba      	ldr	r0, [pc, #744]	; (4b74 <quit_innenschleife+0x24>)
    488a:	4008      	ands	r0, r1
    488c:	d014      	beq.n	48b8 <.interpret_allocator_finished>
    488e:	f7fb fdd2 	bl	436 <Code_32>
    4892:	3f04      	subs	r7, #4
    4894:	603e      	str	r6, [r7, #0]
    4896:	0016      	movs	r6, r2
    4898:	3f04      	subs	r7, #4
    489a:	603e      	str	r6, [r7, #0]
    489c:	000e      	movs	r6, r1
    489e:	f000 f830 	bl	4902 <add_to_inline_cache>
    48a2:	0010      	movs	r0, r2
    48a4:	f7fe fcdb 	bl	325e <suchedefinitionsende>
    48a8:	1c42      	adds	r2, r0, #1
    48aa:	48b3      	ldr	r0, [pc, #716]	; (4b78 <quit_innenschleife+0x28>)
    48ac:	4790      	blx	r2
    48ae:	f7ff ffb1 	bl	4814 <konstantenfaltungszeiger_neusetzen>
    48b2:	f7fb fdcf 	bl	454 <nfaltkonstanten_aufschwimmen>
    48b6:	bd00      	pop	{pc}

000048b8 <.interpret_allocator_finished>:
    48b8:	f7fb fdbd 	bl	436 <Code_32>
    48bc:	3f04      	subs	r7, #4
    48be:	603e      	str	r6, [r7, #0]
    48c0:	0016      	movs	r6, r2
    48c2:	3f04      	subs	r7, #4
    48c4:	603e      	str	r6, [r7, #0]
    48c6:	000e      	movs	r6, r1
    48c8:	f000 f81b 	bl	4902 <add_to_inline_cache>
    48cc:	f7fb fe48 	bl	560 <tidyup_register_allocator>
    48d0:	f7ff ffa5 	bl	481e <konstantenfaltungszeiger_loeschen>
    48d4:	48a9      	ldr	r0, [pc, #676]	; (4b7c <quit_innenschleife+0x2c>)
    48d6:	4008      	ands	r0, r1
    48d8:	d101      	bne.n	48de <.prepared_for_classic>
    48da:	f7fb ffb0 	bl	83e <push_lr_nachholen>

000048de <.prepared_for_classic>:
    48de:	3f04      	subs	r7, #4
    48e0:	603e      	str	r6, [r7, #0]
    48e2:	0016      	movs	r6, r2
    48e4:	2210      	movs	r2, #16
    48e6:	400a      	ands	r2, r1
    48e8:	d002      	beq.n	48f0 <.prepared_for_classic+0x12>
    48ea:	f7fe fd4c 	bl	3386 <Code_773>
    48ee:	bd00      	pop	{pc}
    48f0:	2220      	movs	r2, #32
    48f2:	400a      	ands	r2, r1
    48f4:	d002      	beq.n	48fc <.prepared_for_classic+0x1e>
    48f6:	f7fe fc9e 	bl	3236 <Code_749>
    48fa:	bd00      	pop	{pc}
    48fc:	f7fe fb98 	bl	3030 <Code_708>
    4900:	bd00      	pop	{pc}

00004902 <add_to_inline_cache>:
    4902:	b50f      	push	{r0, r1, r2, r3, lr}
    4904:	0032      	movs	r2, r6
    4906:	cf40      	ldmia	r7!, {r6}
    4908:	0033      	movs	r3, r6
    490a:	cf40      	ldmia	r7!, {r6}
    490c:	489c      	ldr	r0, [pc, #624]	; (4b80 <quit_innenschleife+0x30>)
    490e:	6801      	ldr	r1, [r0, #0]
    4910:	2906      	cmp	r1, #6
    4912:	d207      	bcs.n	4924 <add_to_inline_cache+0x22>
    4914:	2006      	movs	r0, #6
    4916:	4341      	muls	r1, r0
    4918:	489a      	ldr	r0, [pc, #616]	; (4b84 <quit_innenschleife+0x34>)
    491a:	1840      	adds	r0, r0, r1
    491c:	8003      	strh	r3, [r0, #0]
    491e:	0c1b      	lsrs	r3, r3, #16
    4920:	8043      	strh	r3, [r0, #2]
    4922:	8082      	strh	r2, [r0, #4]
    4924:	4896      	ldr	r0, [pc, #600]	; (4b80 <quit_innenschleife+0x30>)
    4926:	6801      	ldr	r1, [r0, #0]
    4928:	3101      	adds	r1, #1
    492a:	6001      	str	r1, [r0, #0]
    492c:	bd0f      	pop	{r0, r1, r2, r3, pc}

0000492e <inline_cache_schreiben>:
    492e:	b50f      	push	{r0, r1, r2, r3, lr}
    4930:	4893      	ldr	r0, [pc, #588]	; (4b80 <quit_innenschleife+0x30>)
    4932:	6801      	ldr	r1, [r0, #0]
    4934:	2906      	cmp	r1, #6
    4936:	d81e      	bhi.n	4976 <inline_cache_schreiben+0x48>
    4938:	4892      	ldr	r0, [pc, #584]	; (4b84 <quit_innenschleife+0x34>)
    493a:	3901      	subs	r1, #1
    493c:	d01c      	beq.n	4978 <inline_cache_schreiben+0x4a>
    493e:	3f04      	subs	r7, #4
    4940:	603e      	str	r6, [r7, #0]
    4942:	000e      	movs	r6, r1
    4944:	f7fe fe75 	bl	3632 <Code_826>
    4948:	3f04      	subs	r7, #4
    494a:	603e      	str	r6, [r7, #0]
    494c:	8806      	ldrh	r6, [r0, #0]
    494e:	f7fe fe70 	bl	3632 <Code_826>
    4952:	3f04      	subs	r7, #4
    4954:	603e      	str	r6, [r7, #0]
    4956:	8846      	ldrh	r6, [r0, #2]
    4958:	f7fe fe6b 	bl	3632 <Code_826>
    495c:	3f04      	subs	r7, #4
    495e:	603e      	str	r6, [r7, #0]
    4960:	8886      	ldrh	r6, [r0, #4]
    4962:	f7fe fe66 	bl	3632 <Code_826>
    4966:	3006      	adds	r0, #6
    4968:	3901      	subs	r1, #1
    496a:	d1ed      	bne.n	4948 <inline_cache_schreiben+0x1a>
    496c:	3f04      	subs	r7, #4
    496e:	603e      	str	r6, [r7, #0]
    4970:	4e7d      	ldr	r6, [pc, #500]	; (4b68 <quit_innenschleife+0x18>)
    4972:	f7fe fe03 	bl	357c <Code_819>
    4976:	bd0f      	pop	{r0, r1, r2, r3, pc}
    4978:	3f04      	subs	r7, #4
    497a:	603e      	str	r6, [r7, #0]
    497c:	2640      	movs	r6, #64	; 0x40
    497e:	f7fe fdfd 	bl	357c <Code_819>
    4982:	bd0f      	pop	{r0, r1, r2, r3, pc}

00004984 <inline_cache_parser>:
    4984:	b500      	push	{lr}
    4986:	0030      	movs	r0, r6
    4988:	cf40      	ldmia	r7!, {r6}
    498a:	f7fe fc68 	bl	325e <suchedefinitionsende>
    498e:	8801      	ldrh	r1, [r0, #0]
    4990:	3002      	adds	r0, #2
    4992:	3f04      	subs	r7, #4
    4994:	603e      	str	r6, [r7, #0]
    4996:	8806      	ldrh	r6, [r0, #0]
    4998:	8842      	ldrh	r2, [r0, #2]
    499a:	0412      	lsls	r2, r2, #16
    499c:	4316      	orrs	r6, r2
    499e:	3f04      	subs	r7, #4
    49a0:	603e      	str	r6, [r7, #0]
    49a2:	8886      	ldrh	r6, [r0, #4]
    49a4:	b403      	push	{r0, r1}
    49a6:	f7ff ff44 	bl	4832 <kompilator>
    49aa:	bc03      	pop	{r0, r1}
    49ac:	3006      	adds	r0, #6
    49ae:	3901      	subs	r1, #1
    49b0:	d1ef      	bne.n	4992 <inline_cache_parser+0xe>
    49b2:	bd00      	pop	{pc}

000049b4 <Dictionary_1208>:
    49b4:	000049fc 	strdeq	r4, [r0], -ip
    49b8:	65080000 	strvs	r0, [r8]
    49bc:	756c6176 	strbvc	r6, [ip, #-374]!	; 0x176
    49c0:	00657461 	rsbeq	r7, r5, r1, ror #8

000049c4 <Code_1208>:
    49c4:	b500      	push	{lr}
    49c6:	f7fe f88a 	bl	2ade <Code_589>
    49ca:	cf01      	ldmia	r7!, {r0}
    49cc:	b401      	push	{r0}
    49ce:	b440      	push	{r6}
    49d0:	cf40      	ldmia	r7!, {r6}
    49d2:	486d      	ldr	r0, [pc, #436]	; (4b88 <quit_innenschleife+0x38>)
    49d4:	6801      	ldr	r1, [r0, #0]
    49d6:	b402      	push	{r1}
    49d8:	2100      	movs	r1, #0
    49da:	6001      	str	r1, [r0, #0]
    49dc:	f7fe f872 	bl	2ac4 <Code_587>
    49e0:	f000 f814 	bl	4a0c <Code_1210>
    49e4:	4868      	ldr	r0, [pc, #416]	; (4b88 <quit_innenschleife+0x38>)
    49e6:	bc02      	pop	{r1}
    49e8:	6001      	str	r1, [r0, #0]
    49ea:	3f04      	subs	r7, #4
    49ec:	603e      	str	r6, [r7, #0]
    49ee:	bc40      	pop	{r6}
    49f0:	bc01      	pop	{r0}
    49f2:	3f04      	subs	r7, #4
    49f4:	6038      	str	r0, [r7, #0]
    49f6:	f7fe f865 	bl	2ac4 <Code_587>
    49fa:	bd00      	pop	{pc}

000049fc <Dictionary_1210>:
    49fc:	00004af8 	strdeq	r4, [r0], -r8
    4a00:	69090000 	stmdbvs	r9, {}	; <UNPREDICTABLE>
    4a04:	7265746e 	rsbvc	r7, r5, #1845493760	; 0x6e000000
    4a08:	74657270 	strbtvc	r7, [r5], #-624	; 0x270

00004a0c <Code_1210>:
    4a0c:	b500      	push	{lr}
    4a0e:	485f      	ldr	r0, [pc, #380]	; (4b8c <quit_innenschleife+0x3c>)
    4a10:	4287      	cmp	r7, r0
    4a12:	d90b      	bls.n	4a2c <Code_1210+0x20>
    4a14:	f7fe f91c 	bl	2c50 <dotgaensefuesschen>
    4a18:	61745310 	cmnvs	r4, r0, lsl r3
    4a1c:	75206b63 	strvc	r6, [r0, #-2915]!	; 0xb63
    4a20:	7265646e 	rsbvc	r6, r5, #1845493760	; 0x6e000000
    4a24:	776f6c66 	strbvc	r6, [pc, -r6, ror #24]!
    4a28:	e079000a 	rsbs	r0, r9, sl
    4a2c:	4858      	ldr	r0, [pc, #352]	; (4b90 <quit_innenschleife+0x40>)
    4a2e:	4287      	cmp	r7, r0
    4a30:	d20a      	bcs.n	4a48 <Code_1210+0x3c>
    4a32:	f7fe f90d 	bl	2c50 <dotgaensefuesschen>
    4a36:	6174530f 	cmnvs	r4, pc, lsl #6
    4a3a:	6f206b63 	svcvs	0x00206b63
    4a3e:	66726576 			; <UNDEFINED> instruction: 0x66726576
    4a42:	0a776f6c 	beq	1de07fa <BIT24+0xde07fa>
    4a46:	e06b      	b.n	4b20 <Code_1235>
    4a48:	f7ff fedc 	bl	4804 <konstantenfaltungszeiger_setzen>
    4a4c:	f7ff fcea 	bl	4424 <Code_1108>
    4a50:	2e00      	cmp	r6, #0
    4a52:	d102      	bne.n	4a5a <Code_1210+0x4e>
    4a54:	3704      	adds	r7, #4
    4a56:	cf40      	ldmia	r7!, {r6}
    4a58:	bd00      	pop	{pc}
    4a5a:	6838      	ldr	r0, [r7, #0]
    4a5c:	3f04      	subs	r7, #4
    4a5e:	603e      	str	r6, [r7, #0]
    4a60:	3f04      	subs	r7, #4
    4a62:	6038      	str	r0, [r7, #0]
    4a64:	f7ff f8b0 	bl	3bc8 <Code_920>
    4a68:	0031      	movs	r1, r6
    4a6a:	cf40      	ldmia	r7!, {r6}
    4a6c:	0032      	movs	r2, r6
    4a6e:	cf40      	ldmia	r7!, {r6}
    4a70:	2a00      	cmp	r2, #0
    4a72:	d115      	bne.n	4aa0 <.interpret_token_found>
    4a74:	6838      	ldr	r0, [r7, #0]
    4a76:	0031      	movs	r1, r6
    4a78:	f7fc ff36 	bl	18e8 <sprungschreiber_flaggenerator>
    4a7c:	f7ff fd35 	bl	44ea <Code_1115>
    4a80:	0032      	movs	r2, r6
    4a82:	cf40      	ldmia	r7!, {r6}
    4a84:	2a00      	cmp	r2, #0
    4a86:	d1c2      	bne.n	4a0e <Code_1210+0x2>

00004a88 <not_found_addr_r0_len_r1>:
    4a88:	f7fe f946 	bl	2d18 <stype_addr_r0_len_r1>
    4a8c:	f7fe f8e0 	bl	2c50 <dotgaensefuesschen>
    4a90:	6f6e200c 	svcvs	0x006e200c
    4a94:	6f662074 	svcvs	0x00662074
    4a98:	2e646e75 	mcrcs	14, 3, r6, cr4, cr5, {3}
    4a9c:	e03f000a 	eors	r0, pc, sl

00004aa0 <.interpret_token_found>:
    4aa0:	4b3c      	ldr	r3, [pc, #240]	; (4b94 <quit_innenschleife+0x44>)
    4aa2:	681b      	ldr	r3, [r3, #0]
    4aa4:	2b00      	cmp	r3, #0
    4aa6:	d11c      	bne.n	4ae2 <.ausfuehren+0x10>
    4aa8:	f7ff feb9 	bl	481e <konstantenfaltungszeiger_loeschen>
    4aac:	2330      	movs	r3, #48	; 0x30
    4aae:	400b      	ands	r3, r1
    4ab0:	2b30      	cmp	r3, #48	; 0x30
    4ab2:	d10e      	bne.n	4ad2 <.ausfuehren>
    4ab4:	f7fe f92c 	bl	2d10 <Code_641>
    4ab8:	f7fe f8ca 	bl	2c50 <dotgaensefuesschen>
    4abc:	73692012 	cmnvc	r9, #18
    4ac0:	6d6f6320 	stclvs	3, cr6, [pc, #-128]!	; 4a48 <Code_1210+0x3c>
    4ac4:	656c6970 	strbvs	r6, [ip, #-2416]!	; 0x970
    4ac8:	6c6e6f2d 	stclvs	15, cr6, [lr], #-180	; 0xffffff4c
    4acc:	000a2e79 	andeq	r2, sl, r9, ror lr
    4ad0:	e026      	b.n	4b20 <Code_1235>

00004ad2 <.ausfuehren>:
    4ad2:	3704      	adds	r7, #4
    4ad4:	cf40      	ldmia	r7!, {r6}
    4ad6:	3f04      	subs	r7, #4
    4ad8:	603e      	str	r6, [r7, #0]
    4ada:	0016      	movs	r6, r2
    4adc:	f7fe fc53 	bl	3386 <Code_773>
    4ae0:	e795      	b.n	4a0e <Code_1210+0x2>
    4ae2:	3704      	adds	r7, #4
    4ae4:	cf40      	ldmia	r7!, {r6}
    4ae6:	3f04      	subs	r7, #4
    4ae8:	603e      	str	r6, [r7, #0]
    4aea:	0016      	movs	r6, r2
    4aec:	3f04      	subs	r7, #4
    4aee:	603e      	str	r6, [r7, #0]
    4af0:	000e      	movs	r6, r1
    4af2:	f7ff fe9e 	bl	4832 <kompilator>
    4af6:	e78a      	b.n	4a0e <Code_1210+0x2>

00004af8 <Dictionary_1232>:
    4af8:	00004b14 	andeq	r4, r0, r4, lsl fp
    4afc:	68090081 	stmdavs	r9, {r0, r7}
    4b00:	2d6b6f6f 	stclcs	15, cr6, [fp, #-444]!	; 0xfffffe44
    4b04:	74697571 	strbtvc	r7, [r9], #-1393	; 0x571

00004b08 <Code_1232>:
    4b08:	3f04      	subs	r7, #4
    4b0a:	603e      	str	r6, [r7, #0]
    4b0c:	4e22      	ldr	r6, [pc, #136]	; (4b98 <quit_innenschleife+0x48>)
    4b0e:	4770      	bx	lr
    4b10:	00004b50 	andeq	r4, r0, r0, asr fp

00004b14 <Dictionary_1235>:
    4b14:	00004bac 	andeq	r4, r0, ip, lsr #23
    4b18:	71040000 	mrsvc	r0, (UNDEF: 4)
    4b1c:	00746975 	rsbseq	r6, r4, r5, ror r9

00004b20 <Code_1235>:
    4b20:	481e      	ldr	r0, [pc, #120]	; (4b9c <quit_innenschleife+0x4c>)
    4b22:	4685      	mov	sp, r0
    4b24:	4f19      	ldr	r7, [pc, #100]	; (4b8c <quit_innenschleife+0x3c>)
    4b26:	f7fd fbc7 	bl	22b8 <sammeltabelleleeren>
    4b2a:	481d      	ldr	r0, [pc, #116]	; (4ba0 <quit_innenschleife+0x50>)
    4b2c:	210a      	movs	r1, #10
    4b2e:	6001      	str	r1, [r0, #0]
    4b30:	4818      	ldr	r0, [pc, #96]	; (4b94 <quit_innenschleife+0x44>)
    4b32:	2100      	movs	r1, #0
    4b34:	6001      	str	r1, [r0, #0]
    4b36:	480b      	ldr	r0, [pc, #44]	; (4b64 <quit_innenschleife+0x14>)
    4b38:	6001      	str	r1, [r0, #0]
    4b3a:	f7fb fd56 	bl	5ea <init_register_allocator>
    4b3e:	4812      	ldr	r0, [pc, #72]	; (4b88 <quit_innenschleife+0x38>)
    4b40:	6001      	str	r1, [r0, #0]
    4b42:	4818      	ldr	r0, [pc, #96]	; (4ba4 <quit_innenschleife+0x54>)
    4b44:	6001      	str	r1, [r0, #0]
    4b46:	4918      	ldr	r1, [pc, #96]	; (4ba8 <quit_innenschleife+0x58>)
    4b48:	6041      	str	r1, [r0, #4]

00004b4a <quit_intern>:
    4b4a:	4813      	ldr	r0, [pc, #76]	; (4b98 <quit_innenschleife+0x48>)
    4b4c:	6800      	ldr	r0, [r0, #0]
    4b4e:	4687      	mov	pc, r0

00004b50 <quit_innenschleife>:
    4b50:	f7fd ffd4 	bl	2afc <Code_591>
    4b54:	f7ff ff5a 	bl	4a0c <Code_1210>
    4b58:	f7fe f87a 	bl	2c50 <dotgaensefuesschen>
    4b5c:	6b6f2005 	blvs	1bccb78 <BIT24+0xbccb78>
    4b60:	e7f50a2e 	ldrb	r0, [r5, lr, lsr #20]!
    4b64:	1ffff008 	svcne	0x00fff008
    4b68:	00001000 	andeq	r1, r0, r0
    4b6c:	00000400 	andeq	r0, r0, r0, lsl #8
    4b70:	00002000 	andeq	r2, r0, r0
    4b74:	00000200 	andeq	r0, r0, r0, lsl #4
    4b78:	1ffff028 	svcne	0x00fff028
    4b7c:	00000800 	andeq	r0, r0, r0, lsl #16
    4b80:	1ffff05c 	svcne	0x00fff05c
    4b84:	1ffff060 	svcne	0x00fff060
    4b88:	20002fe4 	andcs	r2, r0, r4, ror #31
    4b8c:	1ffff28c 	svcne	0x00fff28c
    4b90:	1ffff18c 	svcne	0x00fff18c
    4b94:	20002fd8 	ldrdcs	r2, [r0], -r8
    4b98:	20002fd4 	ldrdcs	r2, [r0], -r4
    4b9c:	1ffff38c 	svcne	0x00fff38c
    4ba0:	20002ffc 	strdcs	r2, [r0], -ip
    4ba4:	20002fdc 	ldrdcs	r2, [r0], -ip
    4ba8:	1ffff0c4 	svcne	0x00fff0c4

00004bac <Dictionary_1237>:
    4bac:	00004bc8 	andeq	r4, r0, r8, asr #23
    4bb0:	65050000 	strvs	r0, [r5]
    4bb4:	3f746e69 	svccc	0x00746e69

00004bb8 <Code_1237>:
    4bb8:	3f04      	subs	r7, #4
    4bba:	603e      	str	r6, [r7, #0]
    4bbc:	f3ef 8610 	mrs	r6, PRIMASK
    4bc0:	3e01      	subs	r6, #1
    4bc2:	41b6      	sbcs	r6, r6
    4bc4:	4770      	bx	lr
    4bc6:	46c0      	nop			; (mov r8, r8)

00004bc8 <Dictionary_1239>:
    4bc8:	00004bd8 	ldrdeq	r4, [r0], -r8
    4bcc:	65040020 	strvs	r0, [r4, #-32]
    4bd0:	00746e69 	rsbseq	r6, r4, r9, ror #28

00004bd4 <Code_1239>:
    4bd4:	b662      	cpsie	i
    4bd6:	4770      	bx	lr

00004bd8 <Dictionary_1240>:
    4bd8:	00004be8 	andeq	r4, r0, r8, ror #23
    4bdc:	64040020 	strvs	r0, [r4], #-32
    4be0:	00746e69 	rsbseq	r6, r4, r9, ror #28

00004be4 <Code_1240>:
    4be4:	b672      	cpsid	i
    4be6:	4770      	bx	lr

00004be8 <Dictionary_1241>:
    4be8:	00004c00 	andeq	r4, r0, r0, lsl #24
    4bec:	69040020 	stmdbvs	r4, {r5}
    4bf0:	00727370 	rsbseq	r7, r2, r0, ror r3

00004bf4 <Code_1241>:
    4bf4:	3f04      	subs	r7, #4
    4bf6:	603e      	str	r6, [r7, #0]
    4bf8:	f3ef 8605 	mrs	r6, IPSR
    4bfc:	4770      	bx	lr
    4bfe:	46c0      	nop			; (mov r8, r8)

00004c00 <Dictionary_1243>:
    4c00:	00004c0c 	andeq	r4, r0, ip, lsl #24
    4c04:	6e030000 	cdpvs	0, 0, cr0, cr3, cr0, {0}
    4c08:	4770706f 	ldrbmi	r7, [r0, -pc, rrx]!

00004c0a <Code_1243>:
    4c0a:	4770      	bx	lr

00004c0c <Dictionary_1244>:
    4c0c:	00004c50 	andeq	r4, r0, r0, asr ip
    4c10:	75090000 	strvc	r0, [r9]
    4c14:	6e61686e 	cdpvs	8, 6, cr6, cr1, cr14, {3}
    4c18:	64656c64 	strbtvs	r6, [r5], #-3172	; 0xc64

00004c1c <Code_1244>:
    4c1c:	b500      	push	{lr}
    4c1e:	f7fe f817 	bl	2c50 <dotgaensefuesschen>
    4c22:	686e5514 	stmdavs	lr!, {r2, r4, r8, sl, ip, lr}^
    4c26:	6c646e61 	stclvs	14, cr6, [r4], #-388	; 0xfffffe7c
    4c2a:	49206465 	stmdbmi	r0!, {r0, r2, r5, r6, sl, sp, lr}
    4c2e:	7265746e 	rsbvc	r7, r5, #1845493760	; 0x6e000000
    4c32:	74707572 	ldrbtvc	r7, [r0], #-1394	; 0x572
    4c36:	3f040020 	svccc	0x00040020
    4c3a:	603e      	str	r6, [r7, #0]
    4c3c:	f3ef 8605 	mrs	r6, IPSR
    4c40:	f7fe f87e 	bl	2d40 <Code_645>
    4c44:	f7fe f804 	bl	2c50 <dotgaensefuesschen>
    4c48:	000a2102 	andeq	r2, sl, r2, lsl #2
    4c4c:	bd00      	pop	{pc}
    4c4e:	46c0      	nop			; (mov r8, r8)

00004c50 <Dictionary_1248>:
    4c50:	00004c64 	andeq	r4, r0, r4, ror #24
    4c54:	72050000 	andvc	r0, r5, #0
    4c58:	74657365 	strbtvc	r7, [r5], #-869	; 0x365

00004c5c <Code_1248>:
    4c5c:	4897      	ldr	r0, [pc, #604]	; (4ebc <init_name+0x6>)
    4c5e:	4998      	ldr	r1, [pc, #608]	; (4ec0 <init_name+0xa>)
    4c60:	6001      	str	r1, [r0, #0]
    4c62:	46c0      	nop			; (mov r8, r8)

00004c64 <Dictionary_1250>:
    4c64:	00004c88 	andeq	r4, r0, r8, lsl #25
    4c68:	690b0081 	stmdbvs	fp, {r0, r7}
    4c6c:	732d7172 	teqvc	sp, #-2147483620	; 0x8000001c
    4c70:	69747379 	ldmdbvs	r4!, {r0, r3, r4, r5, r6, r8, r9, ip, sp, lr}^
    4c74:	3f046b63 	svccc	0x00046b63

00004c76 <Code_1250>:
    4c76:	3f04      	subs	r7, #4
    4c78:	603e      	str	r6, [r7, #0]
    4c7a:	4e92      	ldr	r6, [pc, #584]	; (4ec4 <init_name+0xe>)
    4c7c:	4770      	bx	lr
    4c7e:	00004c1c 	andeq	r4, r0, ip, lsl ip

00004c82 <irq_vektor_systick>:
    4c82:	4890      	ldr	r0, [pc, #576]	; (4ec4 <init_name+0xe>)
    4c84:	6800      	ldr	r0, [r0, #0]
    4c86:	4687      	mov	pc, r0

00004c88 <Dictionary_1254>:
    4c88:	00004cac 	andeq	r4, r0, ip, lsr #25
    4c8c:	69090081 	stmdbvs	r9, {r0, r7}
    4c90:	662d7172 			; <UNDEFINED> instruction: 0x662d7172
    4c94:	746c7561 	strbtvc	r7, [ip], #-1377	; 0x561

00004c98 <Code_1254>:
    4c98:	3f04      	subs	r7, #4
    4c9a:	603e      	str	r6, [r7, #0]
    4c9c:	4e8a      	ldr	r6, [pc, #552]	; (4ec8 <init_name+0x12>)
    4c9e:	4770      	bx	lr
    4ca0:	00004c1c 	andeq	r4, r0, ip, lsl ip

00004ca4 <faulthandler>:
    4ca4:	4888      	ldr	r0, [pc, #544]	; (4ec8 <init_name+0x12>)
    4ca6:	6800      	ldr	r0, [r0, #0]
    4ca8:	4687      	mov	pc, r0
    4caa:	46c0      	nop			; (mov r8, r8)

00004cac <Dictionary_1258>:
    4cac:	00004cd4 	ldrdeq	r4, [r0], -r4	; <UNPREDICTABLE>
    4cb0:	690e0081 	stmdbvs	lr, {r0, r7}
    4cb4:	632d7172 	teqvs	sp, #-2147483620	; 0x8000001c
    4cb8:	656c6c6f 	strbvs	r6, [ip, #-3183]!	; 0xc6f
    4cbc:	6f697463 	svcvs	0x00697463
    4cc0:	3f04006e 	svccc	0x0004006e

00004cc2 <Code_1258>:
    4cc2:	3f04      	subs	r7, #4
    4cc4:	603e      	str	r6, [r7, #0]
    4cc6:	4e81      	ldr	r6, [pc, #516]	; (4ecc <init_name+0x16>)
    4cc8:	4770      	bx	lr
    4cca:	00004c1c 	andeq	r4, r0, ip, lsl ip

00004cce <nullhandler>:
    4cce:	487f      	ldr	r0, [pc, #508]	; (4ecc <init_name+0x16>)
    4cd0:	6800      	ldr	r0, [r0, #0]
    4cd2:	4687      	mov	pc, r0

00004cd4 <Dictionary_1262>:
    4cd4:	00004cf4 	strdeq	r4, [r0], -r4	; <UNPREDICTABLE>
    4cd8:	69070081 	stmdbvs	r7, {r0, r7}
    4cdc:	612d7172 	teqvs	sp, r2, ror r1
    4ce0:	3f046364 	svccc	0x00046364

00004ce2 <Code_1262>:
    4ce2:	3f04      	subs	r7, #4
    4ce4:	603e      	str	r6, [r7, #0]
    4ce6:	4e7a      	ldr	r6, [pc, #488]	; (4ed0 <init_name+0x1a>)
    4ce8:	4770      	bx	lr
    4cea:	00004c1c 	andeq	r4, r0, ip, lsl ip

00004cee <irq_vektor_adc>:
    4cee:	4878      	ldr	r0, [pc, #480]	; (4ed0 <init_name+0x1a>)
    4cf0:	6800      	ldr	r0, [r0, #0]
    4cf2:	4687      	mov	pc, r0

00004cf4 <Dictionary_1266>:
    4cf4:	00004d14 	andeq	r4, r0, r4, lsl sp
    4cf8:	69070081 	stmdbvs	r7, {r0, r7}
    4cfc:	632d7172 	teqvs	sp, #-2147483620	; 0x8000001c
    4d00:	3f04706d 	svccc	0x0004706d

00004d02 <Code_1266>:
    4d02:	3f04      	subs	r7, #4
    4d04:	603e      	str	r6, [r7, #0]
    4d06:	4e73      	ldr	r6, [pc, #460]	; (4ed4 <init_name+0x1e>)
    4d08:	4770      	bx	lr
    4d0a:	00004c1c 	andeq	r4, r0, ip, lsl ip

00004d0e <irq_vektor_cmp>:
    4d0e:	4871      	ldr	r0, [pc, #452]	; (4ed4 <init_name+0x1e>)
    4d10:	6800      	ldr	r0, [r0, #0]
    4d12:	4687      	mov	pc, r0

00004d14 <Dictionary_1270>:
    4d14:	00004d34 	andeq	r4, r0, r4, lsr sp
    4d18:	69070081 	stmdbvs	r7, {r0, r7}
    4d1c:	642d7172 	strtvs	r7, [sp], #-370	; 0x172
    4d20:	3f046361 	svccc	0x00046361

00004d22 <Code_1270>:
    4d22:	3f04      	subs	r7, #4
    4d24:	603e      	str	r6, [r7, #0]
    4d26:	4e6c      	ldr	r6, [pc, #432]	; (4ed8 <init_name+0x22>)
    4d28:	4770      	bx	lr
    4d2a:	00004c1c 	andeq	r4, r0, ip, lsl ip

00004d2e <irq_vektor_dac>:
    4d2e:	486a      	ldr	r0, [pc, #424]	; (4ed8 <init_name+0x22>)
    4d30:	6800      	ldr	r0, [r0, #0]
    4d32:	4687      	mov	pc, r0

00004d34 <Dictionary_1274>:
    4d34:	00004d58 	andeq	r4, r0, r8, asr sp
    4d38:	69090081 	stmdbvs	r9, {r0, r7}
    4d3c:	702d7172 	eorvc	r7, sp, r2, ror r1
    4d40:	6174726f 	cmnvs	r4, pc, ror #4

00004d44 <Code_1274>:
    4d44:	3f04      	subs	r7, #4
    4d46:	603e      	str	r6, [r7, #0]
    4d48:	4e64      	ldr	r6, [pc, #400]	; (4edc <init_name+0x26>)
    4d4a:	4770      	bx	lr
    4d4c:	00004c1c 	andeq	r4, r0, ip, lsl ip

00004d50 <irq_vektor_porta>:
    4d50:	4862      	ldr	r0, [pc, #392]	; (4edc <init_name+0x26>)
    4d52:	6800      	ldr	r0, [r0, #0]
    4d54:	4687      	mov	pc, r0
    4d56:	46c0      	nop			; (mov r8, r8)

00004d58 <Dictionary_1278>:
    4d58:	00004d7c 	andeq	r4, r0, ip, ror sp
    4d5c:	69090081 	stmdbvs	r9, {r0, r7}
    4d60:	702d7172 	eorvc	r7, sp, r2, ror r1
    4d64:	6474726f 	ldrbtvs	r7, [r4], #-623	; 0x26f

00004d68 <Code_1278>:
    4d68:	3f04      	subs	r7, #4
    4d6a:	603e      	str	r6, [r7, #0]
    4d6c:	4e5c      	ldr	r6, [pc, #368]	; (4ee0 <init_name+0x2a>)
    4d6e:	4770      	bx	lr
    4d70:	00004c1c 	andeq	r4, r0, ip, lsl ip

00004d74 <irq_vektor_portd>:
    4d74:	485a      	ldr	r0, [pc, #360]	; (4ee0 <init_name+0x2a>)
    4d76:	6800      	ldr	r0, [r0, #0]
    4d78:	4687      	mov	pc, r0
    4d7a:	46c0      	nop			; (mov r8, r8)

00004d7c <Dictionary_1281>:
    4d7c:	00005000 	andeq	r5, r0, r0
    4d80:	2d18ffff 	ldccs	15, cr15, [r8, #-1020]	; 0xfffffc04
    4d84:	46202d2d 	strtmi	r2, [r0], -sp, lsr #26
    4d88:	6873616c 	ldmdavs	r3!, {r2, r3, r5, r6, r8, sp, lr}^
    4d8c:	63694420 	cmnvs	r9, #536870912	; 0x20000000
    4d90:	6e6f6974 	mcrvs	9, 3, r6, cr15, cr4, {3}
    4d94:	20797261 	rsbscs	r7, r9, r1, ror #4
    4d98:	002d2d2d 	eoreq	r2, sp, sp, lsr #26

00004d9c <Code_1281>:
    4d9c:	2100      	movs	r1, #0
    4d9e:	4851      	ldr	r0, [pc, #324]	; (4ee4 <init_name+0x2e>)
    4da0:	6001      	str	r1, [r0, #0]
    4da2:	f7fd fcdf 	bl	2764 <uart_init>
    4da6:	4850      	ldr	r0, [pc, #320]	; (4ee8 <init_name+0x32>)
    4da8:	4685      	mov	sp, r0
    4daa:	4f50      	ldr	r7, [pc, #320]	; (4eec <init_name+0x36>)
    4dac:	262a      	movs	r6, #42	; 0x2a
    4dae:	4850      	ldr	r0, [pc, #320]	; (4ef0 <init_name+0x3a>)
    4db0:	4950      	ldr	r1, [pc, #320]	; (4ef4 <init_name+0x3e>)
    4db2:	6001      	str	r1, [r0, #0]
    4db4:	4850      	ldr	r0, [pc, #320]	; (4ef8 <init_name+0x42>)
    4db6:	4951      	ldr	r1, [pc, #324]	; (4efc <init_name+0x46>)
    4db8:	6001      	str	r1, [r0, #0]
    4dba:	3f04      	subs	r7, #4
    4dbc:	603e      	str	r6, [r7, #0]
    4dbe:	4e4f      	ldr	r6, [pc, #316]	; (4efc <init_name+0x46>)
    4dc0:	4d4f      	ldr	r5, [pc, #316]	; (4f00 <init_name+0x4a>)

00004dc2 <SucheFlashPointer_Hangelschleife>:
    4dc2:	88b1      	ldrh	r1, [r6, #4]
    4dc4:	4b4f      	ldr	r3, [pc, #316]	; (4f04 <init_name+0x4e>)
    4dc6:	4299      	cmp	r1, r3
    4dc8:	d024      	beq.n	4e14 <Sucheflashpointer_Speicherbelegung_fertig>
    4dca:	4b4f      	ldr	r3, [pc, #316]	; (4f08 <init_name+0x52>)
    4dcc:	400b      	ands	r3, r1
    4dce:	d00a      	beq.n	4de6 <SucheFlashPointer_Hangelschleife+0x24>
    4dd0:	1db0      	adds	r0, r6, #6
    4dd2:	f7fe fee9 	bl	3ba8 <skipstring>
    4dd6:	f7fe fa42 	bl	325e <suchedefinitionsende>
    4dda:	8803      	ldrh	r3, [r0, #0]
    4ddc:	8840      	ldrh	r0, [r0, #2]
    4dde:	0400      	lsls	r0, r0, #16
    4de0:	4303      	orrs	r3, r0
    4de2:	1aed      	subs	r5, r5, r3
    4de4:	e016      	b.n	4e14 <Sucheflashpointer_Speicherbelegung_fertig>
    4de6:	2380      	movs	r3, #128	; 0x80
    4de8:	400b      	ands	r3, r1
    4dea:	d013      	beq.n	4e14 <Sucheflashpointer_Speicherbelegung_fertig>
    4dec:	230f      	movs	r3, #15
    4dee:	4019      	ands	r1, r3
    4df0:	0089      	lsls	r1, r1, #2
    4df2:	1a6d      	subs	r5, r5, r1
    4df4:	1db0      	adds	r0, r6, #6
    4df6:	f7fe fed7 	bl	3ba8 <skipstring>
    4dfa:	f7fe fa30 	bl	325e <suchedefinitionsende>
    4dfe:	3f04      	subs	r7, #4
    4e00:	603e      	str	r6, [r7, #0]
    4e02:	0006      	movs	r6, r0
    4e04:	3f04      	subs	r7, #4
    4e06:	603e      	str	r6, [r7, #0]
    4e08:	002e      	movs	r6, r5
    4e0a:	3f04      	subs	r7, #4
    4e0c:	603e      	str	r6, [r7, #0]
    4e0e:	000e      	movs	r6, r1
    4e10:	f7fc fe38 	bl	1a84 <Code_366>

00004e14 <Sucheflashpointer_Speicherbelegung_fertig>:
    4e14:	f7fe fea5 	bl	3b62 <Code_915>
    4e18:	0030      	movs	r0, r6
    4e1a:	cf40      	ldmia	r7!, {r6}
    4e1c:	d0d1      	beq.n	4dc2 <SucheFlashPointer_Hangelschleife>
    4e1e:	483b      	ldr	r0, [pc, #236]	; (4f0c <init_name+0x56>)
    4e20:	6006      	str	r6, [r0, #0]
    4e22:	cf40      	ldmia	r7!, {r6}
    4e24:	483a      	ldr	r0, [pc, #232]	; (4f10 <init_name+0x5a>)
    4e26:	6005      	str	r5, [r0, #0]
    4e28:	483a      	ldr	r0, [pc, #232]	; (4f14 <init_name+0x5e>)
    4e2a:	493b      	ldr	r1, [pc, #236]	; (4f18 <init_name+0x62>)
    4e2c:	4a35      	ldr	r2, [pc, #212]	; (4f04 <init_name+0x4e>)
    4e2e:	4288      	cmp	r0, r1
    4e30:	d004      	beq.n	4e3c <Sucheflashpointer_Speicherbelegung_fertig+0x28>
    4e32:	3802      	subs	r0, #2
    4e34:	8803      	ldrh	r3, [r0, #0]
    4e36:	4293      	cmp	r3, r2
    4e38:	d0f9      	beq.n	4e2e <Sucheflashpointer_Speicherbelegung_fertig+0x1a>
    4e3a:	3002      	adds	r0, #2
    4e3c:	4937      	ldr	r1, [pc, #220]	; (4f1c <init_name+0x66>)
    4e3e:	6008      	str	r0, [r1, #0]
    4e40:	f7fd fa3a 	bl	22b8 <sammeltabelleleeren>
    4e44:	f7fd ff04 	bl	2c50 <dotgaensefuesschen>
    4e48:	63654d46 	cmnvs	r5, #4480	; 0x1180
    4e4c:	70736972 	rsbsvc	r6, r3, r2, ror r9
    4e50:	6574532d 	ldrbvs	r5, [r4, #-813]!	; 0x32d
    4e54:	72616c6c 	rsbvc	r6, r1, #27648	; 0x6c00
    4e58:	52207369 	eorpl	r7, r0, #-1543503871	; 0xa4000001
    4e5c:	2e322041 	cdpcs	0, 3, cr2, cr2, cr1, {2}
    4e60:	20312e32 	eorscs	r2, r1, r2, lsr lr
    4e64:	68746977 	ldmdavs	r4!, {r0, r1, r2, r4, r5, r6, r8, fp, sp, lr}^
    4e68:	20304d20 	eorscs	r4, r0, r0, lsr #26
    4e6c:	65726f63 	ldrbvs	r6, [r2, #-3939]!	; 0xf63
    4e70:	726f6620 	rsbvc	r6, pc, #33554432	; 0x2000000
    4e74:	324c4b20 	subcc	r4, ip, #32768	; 0x8000
    4e78:	32315a35 	eorscc	r5, r1, #217088	; 0x35000
    4e7c:	79622038 	stmdbvc	r2!, {r3, r4, r5, sp}^
    4e80:	74614d20 	strbtvc	r4, [r1], #-3360	; 0xd20
    4e84:	61696874 	smcvs	38532	; 0x9684
    4e88:	6f4b2073 	svcvs	0x004b2073
    4e8c:	000a6863 	andeq	r6, sl, r3, ror #16
    4e90:	4823      	ldr	r0, [pc, #140]	; (4f20 <init_name+0x6a>)
    4e92:	2100      	movs	r1, #0
    4e94:	6001      	str	r1, [r0, #0]
    4e96:	3f04      	subs	r7, #4
    4e98:	603e      	str	r6, [r7, #0]
    4e9a:	4e22      	ldr	r6, [pc, #136]	; (4f24 <init_name+0x6e>)
    4e9c:	3f04      	subs	r7, #4
    4e9e:	603e      	str	r6, [r7, #0]
    4ea0:	2604      	movs	r6, #4
    4ea2:	f7fe fe91 	bl	3bc8 <Code_920>
    4ea6:	cf40      	ldmia	r7!, {r6}
    4ea8:	2e00      	cmp	r6, #0
    4eaa:	d002      	beq.n	4eb2 <Sucheflashpointer_Speicherbelegung_fertig+0x9e>
    4eac:	f7fe fa6b 	bl	3386 <Code_773>
    4eb0:	e64b      	b.n	4b4a <quit_intern>
    4eb2:	cf40      	ldmia	r7!, {r6}
    4eb4:	e634      	b.n	4b20 <Code_1235>

00004eb6 <init_name>:
    4eb6:	74696e69 	strbtvc	r6, [r9], #-3689	; 0xe69
    4eba:	ed0c0000 	stc	0, cr0, [ip]
    4ebe:	0004e000 	andeq	lr, r4, r0
    4ec2:	2fd005fa 	svccs	0x00d005fa
    4ec6:	2fcc2000 	svccs	0x00cc2000
    4eca:	2fc82000 	svccs	0x00c82000
    4ece:	2fc42000 	svccs	0x00c42000
    4ed2:	2fc02000 	svccs	0x00c02000
    4ed6:	2fbc2000 	svccs	0x00bc2000
    4eda:	2fb82000 	svccs	0x00b82000
    4ede:	2fb42000 	svccs	0x00b42000
    4ee2:	81002000 	mrshi	r2, (UNDEF: 0)
    4ee6:	f38c4004 	vaddl.u8	q2, d12, d4
    4eea:	f28c1fff 			; <UNDEFINED> instruction: 0xf28c1fff
    4eee:	f0001fff 			; <UNDEFINED> instruction: 0xf0001fff
    4ef2:	f44c1fff 			; <UNDEFINED> instruction: 0xf44c1fff
    4ef6:	f0041fff 			; <UNDEFINED> instruction: 0xf0041fff
    4efa:	04101fff 	ldreq	r1, [r0], #-4095	; 0xfff
    4efe:	30000000 	andcc	r0, r0, r0
    4f02:	ffff2000 			; <UNDEFINED> instruction: 0xffff2000
    4f06:	01000000 	mrseq	r0, (UNDEF: 0)
    4f0a:	f01c0000 			; <UNDEFINED> instruction: 0xf01c0000
    4f0e:	f0241fff 			; <UNDEFINED> instruction: 0xf0241fff
    4f12:	00001fff 	strdeq	r1, [r0], -pc	; <UNPREDICTABLE>
    4f16:	50000002 	andpl	r0, r0, r2
    4f1a:	f0180000 			; <UNDEFINED> instruction: 0xf0180000
    4f1e:	f0081fff 			; <UNDEFINED> instruction: 0xf0081fff
    4f22:	4eb61fff 	mrcmi	15, 5, r1, cr6, cr15, {7}
	...

Disassembly of section .ARM.attributes:

00000000 <.ARM.attributes>:
   0:	00002241 	andeq	r2, r0, r1, asr #4
   4:	61656100 	cmnvs	r5, r0, lsl #2
   8:	01006962 	tsteq	r0, r2, ror #18
   c:	00000018 	andeq	r0, r0, r8, lsl r0
  10:	726f4305 	rsbvc	r4, pc, #335544320	; 0x14000000
  14:	2d786574 	cfldr64cs	mvdx6, [r8, #-464]!	; 0xfffffe30
  18:	0600304d 	streq	r3, [r0], -sp, asr #32
  1c:	094d070c 	stmdbeq	sp, {r2, r3, r8, r9, sl}^
  20:	Address 0x00000020 is out of bounds.

